
mp3wSA.elf:	file format elf32-mos

SYMBOL TABLE:
00000000 l    df *ABS*	00000000 zero-bss.c
00000000 l    df *ABS*	00000000 zero-zp-bss.c
00000000 l    df *ABS*	00000000 ld-temp.o
00000036 l     O .zp.bss	00000007 kernelEventData
00000030 l     O .zp.bss	00000001 _ccolor
00003025 l     O .rodata	00000030 textColors
00000031 l     O .zp.bss	00000001 _col
00000032 l     O .zp.bss	00000001 _row
00005dd9 l     O .bss	00000004 _BITMAP_BASE.0
00000035 l     O .zp.bss	00000001 kernelError
00002bfd l     F .text	000001d6 malloc
00001bc1 l     F .text	00000084 setTextLUT1
00005609 l     O .rodata	000007d0 saplugin2
00001cd4 l     F .text	0000017e initVS1053Plugin
00002fb1 l     F .text	00000039 strlen
00002be5 l     F .text	00000018 puts
00002035 l     F .text	00000bb0 printf
00005ddd l     O .bss	00000002 theMP3file
00003193 l     O .rodata	00002476 bigpatch
00001868 l     F .text	0000014b fileRead
000019b3 l     F .text	000001ce textPrint
00001c45 l     F .text	00000082 setTextLUT2
00001b81 l     F .text	00000040 fileClose
00002dd3 l     F .text	00000192 free
00001cc7 l     F .text	0000000d __putchar
00000033 l     O .zp.bss	00000002 __putchar.s
00001e57 l     F .text	000000d1 _ZN12_GLOBAL__N_13putEcP6Status
00001f28 l     F .text	0000010d _ZN12_GLOBAL__N_112print_stringEPKcP6Status
00005ddf l     O .bss	00000001 _ZN12_GLOBAL__N_111initializedE
00000316 l     F .text	00000139 _ZN12_GLOBAL__N_19FreeChunk6insertEPvj
00005de0 l     O .bss	00000001 _ZN12_GLOBAL__N_19last_freeE
00005de3 l     O .bss	00000002 _ZN12_GLOBAL__N_19free_listE
00000450 l     F .text	000000df _ZN12_GLOBAL__N_19FreeChunk6removeEv
00005de1 l     O .bss	00000002 _ZN12_GLOBAL__N_19free_sizeE
00000555 g     F .text	00001313 main
00031400 g       .mlogopal	00000000 mlogopal_end
00030d00 g       .mac	00000000 mac_end
00044000 g       .mlogo	00000000 mlogo_end
00010000 g       .mac	00000000 mac_start
00031400 g       .mlogo	00000000 mlogo_start
00031000 g       .mlogopal	00000000 mlogopal_start
00000311 g       .text	00000000 __after_main
00000300 g       .text	00000000 __do_init_stack
00000308 g       .text	00000000 __do_zero_bss
0000052f g     F .text	00000013 __zero_bss
0000030b g       .text	00000000 __do_zero_zp_bss
00000542 g     F .text	00000013 __zero_zp_bss
00001e52 g     F .text	00000005 exit
00000314 g       .text	00000000 _fini
00002fea g       .rodata	00000000 __set_v
00002f91  w    F .text	00000020 __memset
00001000  w      *ABS*	00000000 __heap_default_limit
00005de6 g       .noinit	00000000 __heap_start
00002f65  w    F .text	0000002c memcpy
00000010 g       *ABS*	00000000 __rc0
00000012 g       *ABS*	00000000 __rc2
00000014 g       *ABS*	00000000 __rc4
00000016 g       *ABS*	00000000 __rc6
00000018 g       *ABS*	00000000 __rc8
0000001a g       *ABS*	00000000 __rc10
0000001c g       *ABS*	00000000 __rc12
0000001e g       *ABS*	00000000 __rc14
00000020 g       *ABS*	00000000 __rc16
00000022 g       *ABS*	00000000 __rc18
00000024 g       *ABS*	00000000 __rc20
00000026 g       *ABS*	00000000 __rc22
00000028 g       *ABS*	00000000 __rc24
0000002a g       *ABS*	00000000 __rc26
0000002c g       *ABS*	00000000 __rc28
0000002e g       *ABS*	00000000 __rc30
0000002f g       *ABS*	00000000 __rc31
00000300 g       *ABS*	00000000 __f256_start
0000a000 g       *ABS*	00000000 __stack
0000a000 g       *ABS*	00000000 __SLOT_ADDR
0800a000 g       *ABS*	00000000 __block8_lma
00002000 g       *ABS*	00000000 __BLOCK_SIZE
0900a000 g       *ABS*	00000000 __block9_lma
0a00a000 g       *ABS*	00000000 __block10_lma
0b00a000 g       *ABS*	00000000 __block11_lma
0c00a000 g       *ABS*	00000000 __block12_lma
0d00a000 g       *ABS*	00000000 __block13_lma
0e00a000 g       *ABS*	00000000 __block14_lma
0f00a000 g       *ABS*	00000000 __block15_lma
1000a000 g       *ABS*	00000000 __block16_lma
1100a000 g       *ABS*	00000000 __block17_lma
1200a000 g       *ABS*	00000000 __block18_lma
1300a000 g       *ABS*	00000000 __block19_lma
1400a000 g       *ABS*	00000000 __block20_lma
1500a000 g       *ABS*	00000000 __block21_lma
1600a000 g       *ABS*	00000000 __block22_lma
1700a000 g       *ABS*	00000000 __block23_lma
00010000 g       *ABS*	00000000 __mac_lma
00020d00 g       *ABS*	00000000 __mac_size
00031000 g       *ABS*	00000000 __mlogopal_lma
00000400 g       *ABS*	00000000 __mlogopal_size
00031400 g       *ABS*	00000000 __mlogo_lma
00012c00 g       *ABS*	00000000 __mlogo_size
00005dd9 g       .bss	00000000 __bss_start
00030d00 g       .mac	00000000 end_mac
00031400 g       .mlogopal	00000000 end_mlogopal
00044000 g       .mlogo	00000000 end_mlogo
00000300 g       .text	00000000 _start
0000002d g       *ABS*	00000000 __rc29
0000002b g       *ABS*	00000000 __rc27
00000029 g       *ABS*	00000000 __rc25
00000027 g       *ABS*	00000000 __rc23
00000025 g       *ABS*	00000000 __rc21
00000023 g       *ABS*	00000000 __rc19
00000021 g       *ABS*	00000000 __rc17
0000001f g       *ABS*	00000000 __rc15
0000001d g       *ABS*	00000000 __rc13
0000001b g       *ABS*	00000000 __rc11
00000019 g       *ABS*	00000000 __rc9
00000017 g       *ABS*	00000000 __rc7
00000015 g       *ABS*	00000000 __rc5
00000013 g       *ABS*	00000000 __rc3
00000011 g       *ABS*	00000000 __rc1
00000030 g       .zp.data	00000000 __zp_data_start
00000300 g       *ABS*	00000000 __zp_data_load_start
00000000 g       *ABS*	00000000 __zp_data_size
00000030 g       .zp.bss	00000000 __zp_bss_start
0000000d g       *ABS*	00000000 __zp_bss_size
00000300 g       .text	00000000 _init
00002fea g       .text	00000000 __init_array_start
00002fea g       .text	00000000 __init_array_end
00002fea g       .text	00000000 __fini_array_start
00002fea g       .text	00000000 __fini_array_end
00005dd9 g       .data	00000000 __data_start
00005dd9 g       .data	00000000 __data_end
00005dd9 g       *ABS*	00000000 __data_load_start
00000000 g       *ABS*	00000000 __data_size
00005de5 g       .bss	00000000 __bss_end
0000000c g       *ABS*	00000000 __bss_size
00005de5 g       .noinit	00000000 end_block8
00005de5 g       .noinit	00000000 end_block9
00005de5 g       .noinit	00000000 end_block10
00005de5 g       .noinit	00000000 end_block11
00005de5 g       .noinit	00000000 end_block12
00005de5 g       .noinit	00000000 end_block13
00005de5 g       .noinit	00000000 end_block14
00005de5 g       .noinit	00000000 end_block15
00005de5 g       .noinit	00000000 end_block16
00005de5 g       .noinit	00000000 end_block17
00005de5 g       .noinit	00000000 end_block18
00005de5 g       .noinit	00000000 end_block19
00005de5 g       .noinit	00000000 end_block20
00005de5 g       .noinit	00000000 end_block21
00005de5 g       .noinit	00000000 end_block22
00005de5 g       .noinit	00000000 end_block23

Disassembly of section .text:

00000300 <_start>:
     300: a9 00        	lda	#$0
     302: 85 10        	sta	$10                     ; 0x2010 <_ZN12_GLOBAL__N_112print_stringEPKcP6Status+0xe8>
     304: a9 a0        	lda	#$a0
     306: 85 11        	sta	$11                     ; 0x2011 <_ZN12_GLOBAL__N_112print_stringEPKcP6Status+0xe9>

00000308 <__do_zero_bss>:
     308: 20 2f 05     	jsr	$52f <__zero_bss>

0000030b <__do_zero_zp_bss>:
     30b: 20 42 05     	jsr	$542 <__zero_zp_bss>
     30e: 20 55 05     	jsr	$555 <main>

00000311 <__after_main>:
     311: 4c 52 1e     	jmp	$1e52 <exit>

00000314 <_fini>:
     314: 60           	rts
     315: 00           	brk

00000316 <_ZN12_GLOBAL__N_19FreeChunk6insertEPvj>:
     316: 85 16        	sta	$16                     ; 0x2016 <_ZN12_GLOBAL__N_112print_stringEPKcP6Status+0xee>
     318: 29 fe        	and	#$fe
     31a: 85 14        	sta	$14                     ; 0x2014 <_ZN12_GLOBAL__N_112print_stringEPKcP6Status+0xec>
     31c: a0 01        	ldy	#$1
     31e: 98           	tya
     31f: 32 12        	and	($12)                   ; 0x2012 <_ZN12_GLOBAL__N_112print_stringEPKcP6Status+0xea>
     321: 05 14        	ora	$14                     ; 0x2014 <_ZN12_GLOBAL__N_112print_stringEPKcP6Status+0xec>
     323: 92 12        	sta	($12)                   ; 0x2012 <_ZN12_GLOBAL__N_112print_stringEPKcP6Status+0xea>
     325: a5 12        	lda	$12                     ; 0x2012 <_ZN12_GLOBAL__N_112print_stringEPKcP6Status+0xea>
     327: 18           	clc
     328: 65 14        	adc	$14                     ; 0x2014 <_ZN12_GLOBAL__N_112print_stringEPKcP6Status+0xec>
     32a: 85 15        	sta	$15                     ; 0x2015 <_ZN12_GLOBAL__N_112print_stringEPKcP6Status+0xed>
     32c: 8a           	txa
     32d: 65 13        	adc	$13                     ; 0x2013 <_ZN12_GLOBAL__N_112print_stringEPKcP6Status+0xeb>
     32f: 85 14        	sta	$14                     ; 0x2014 <_ZN12_GLOBAL__N_112print_stringEPKcP6Status+0xec>
     331: 18           	clc
     332: a5 15        	lda	$15                     ; 0x2015 <_ZN12_GLOBAL__N_112print_stringEPKcP6Status+0xed>
     334: 69 fe        	adc	#$fe
     336: 85 17        	sta	$17                     ; 0x2017 <_ZN12_GLOBAL__N_112print_stringEPKcP6Status+0xef>
     338: a5 14        	lda	$14                     ; 0x2014 <_ZN12_GLOBAL__N_112print_stringEPKcP6Status+0xec>
     33a: 69 ff        	adc	#$ff
     33c: 85 15        	sta	$15                     ; 0x2015 <_ZN12_GLOBAL__N_112print_stringEPKcP6Status+0xed>
     33e: a5 17        	lda	$17                     ; 0x2017 <_ZN12_GLOBAL__N_112print_stringEPKcP6Status+0xef>
     340: 85 14        	sta	$14                     ; 0x2014 <_ZN12_GLOBAL__N_112print_stringEPKcP6Status+0xec>
     342: 8a           	txa
     343: 91 12        	sta	($12),y                 ; 0x2012 <_ZN12_GLOBAL__N_112print_stringEPKcP6Status+0xea>
     345: a5 16        	lda	$16                     ; 0x2016 <_ZN12_GLOBAL__N_112print_stringEPKcP6Status+0xee>
     347: 92 14        	sta	($14)                   ; 0x2014 <_ZN12_GLOBAL__N_112print_stringEPKcP6Status+0xec>
     349: 8a           	txa
     34a: 91 14        	sta	($14),y                 ; 0x2014 <_ZN12_GLOBAL__N_112print_stringEPKcP6Status+0xec>
     34c: b1 12        	lda	($12),y                 ; 0x2012 <_ZN12_GLOBAL__N_112print_stringEPKcP6Status+0xea>
     34e: 85 14        	sta	$14                     ; 0x2014 <_ZN12_GLOBAL__N_112print_stringEPKcP6Status+0xec>
     350: a9 fe        	lda	#$fe
     352: 32 12        	and	($12)                   ; 0x2012 <_ZN12_GLOBAL__N_112print_stringEPKcP6Status+0xea>
     354: 18           	clc
     355: 6d e1 5d     	adc	$5de1                   ; 0x5de1 <_ZN12_GLOBAL__N_19free_sizeE>
     358: aa           	tax
     359: a5 14        	lda	$14                     ; 0x2014 <_ZN12_GLOBAL__N_112print_stringEPKcP6Status+0xec>
     35b: 6d e2 5d     	adc	$5de2                   ; 0x5de2 <_ZN12_GLOBAL__N_19free_sizeE+0x1>
     35e: a8           	tay
     35f: 18           	clc
     360: 8a           	txa
     361: 69 fe        	adc	#$fe
     363: aa           	tax
     364: 98           	tya
     365: 69 ff        	adc	#$ff
     367: 8e e1 5d     	stx	$5de1                   ; 0x5de1 <_ZN12_GLOBAL__N_19free_sizeE>
     36a: 8d e2 5d     	sta	$5de2                   ; 0x5de2 <_ZN12_GLOBAL__N_19free_sizeE+0x1>
     36d: ae e3 5d     	ldx	$5de3                   ; 0x5de3 <_ZN12_GLOBAL__N_19free_listE>
     370: 86 16        	stx	$16                     ; 0x2016 <_ZN12_GLOBAL__N_112print_stringEPKcP6Status+0xee>
     372: ac e4 5d     	ldy	$5de4                   ; 0x5de4 <_ZN12_GLOBAL__N_19free_listE+0x1>
     375: a2 00        	ldx	#$0
     377: 86 14        	stx	$14                     ; 0x2014 <_ZN12_GLOBAL__N_112print_stringEPKcP6Status+0xec>
     379: a2 00        	ldx	#$0
     37b: 86 15        	stx	$15                     ; 0x2015 <_ZN12_GLOBAL__N_112print_stringEPKcP6Status+0xed>
     37d: 84 18        	sty	$18                     ; 0x2018 <_ZN12_GLOBAL__N_112print_stringEPKcP6Status+0xf0>
     37f: c4 15        	cpy	$15                     ; 0x2015 <_ZN12_GLOBAL__N_112print_stringEPKcP6Status+0xed>
     381: d0 31        	bne	$3b4 <_ZN12_GLOBAL__N_19FreeChunk6insertEPvj+0x9e>
     383: a6 16        	ldx	$16                     ; 0x2016 <_ZN12_GLOBAL__N_112print_stringEPKcP6Status+0xee>
     385: e4 14        	cpx	$14                     ; 0x2014 <_ZN12_GLOBAL__N_112print_stringEPKcP6Status+0xec>
     387: d0 2b        	bne	$3b4 <_ZN12_GLOBAL__N_19FreeChunk6insertEPvj+0x9e>
     389: a0 02        	ldy	#$2
     38b: 18           	clc
     38c: a5 12        	lda	$12                     ; 0x2012 <_ZN12_GLOBAL__N_112print_stringEPKcP6Status+0xea>
     38e: 69 02        	adc	#$2
     390: 85 14        	sta	$14                     ; 0x2014 <_ZN12_GLOBAL__N_112print_stringEPKcP6Status+0xec>
     392: a5 12        	lda	$12                     ; 0x2012 <_ZN12_GLOBAL__N_112print_stringEPKcP6Status+0xea>
     394: 91 12        	sta	($12),y                 ; 0x2012 <_ZN12_GLOBAL__N_112print_stringEPKcP6Status+0xea>
     396: a5 13        	lda	$13                     ; 0x2013 <_ZN12_GLOBAL__N_112print_stringEPKcP6Status+0xeb>
     398: 69 00        	adc	#$0
     39a: 85 15        	sta	$15                     ; 0x2015 <_ZN12_GLOBAL__N_112print_stringEPKcP6Status+0xed>
     39c: 88           	dey
     39d: a5 13        	lda	$13                     ; 0x2013 <_ZN12_GLOBAL__N_112print_stringEPKcP6Status+0xeb>
     39f: 91 14        	sta	($14),y                 ; 0x2014 <_ZN12_GLOBAL__N_112print_stringEPKcP6Status+0xec>
     3a1: a2 e3        	ldx	#$e3
     3a3: 86 16        	stx	$16                     ; 0x2016 <_ZN12_GLOBAL__N_112print_stringEPKcP6Status+0xee>
     3a5: a2 5d        	ldx	#$5d
     3a7: 86 17        	stx	$17                     ; 0x2017 <_ZN12_GLOBAL__N_112print_stringEPKcP6Status+0xef>
     3a9: a6 12        	ldx	$12                     ; 0x2012 <_ZN12_GLOBAL__N_112print_stringEPKcP6Status+0xea>
     3ab: 86 14        	stx	$14                     ; 0x2014 <_ZN12_GLOBAL__N_112print_stringEPKcP6Status+0xec>
     3ad: a6 13        	ldx	$13                     ; 0x2013 <_ZN12_GLOBAL__N_112print_stringEPKcP6Status+0xeb>
     3af: 86 15        	stx	$15                     ; 0x2015 <_ZN12_GLOBAL__N_112print_stringEPKcP6Status+0xed>
     3b1: 4c 2d 04     	jmp	$42d <_ZN12_GLOBAL__N_19FreeChunk6insertEPvj+0x117>
     3b4: a5 12        	lda	$12                     ; 0x2012 <_ZN12_GLOBAL__N_112print_stringEPKcP6Status+0xea>
     3b6: 18           	clc
     3b7: 69 02        	adc	#$2
     3b9: 85 14        	sta	$14                     ; 0x2014 <_ZN12_GLOBAL__N_112print_stringEPKcP6Status+0xec>
     3bb: a4 13        	ldy	$13                     ; 0x2013 <_ZN12_GLOBAL__N_112print_stringEPKcP6Status+0xeb>
     3bd: a6 16        	ldx	$16                     ; 0x2016 <_ZN12_GLOBAL__N_112print_stringEPKcP6Status+0xee>
     3bf: 86 19        	stx	$19                     ; 0x2019 <_ZN12_GLOBAL__N_112print_stringEPKcP6Status+0xf1>
     3c1: a5 13        	lda	$13                     ; 0x2013 <_ZN12_GLOBAL__N_112print_stringEPKcP6Status+0xeb>
     3c3: 84 1a        	sty	$1a                     ; 0x201a <_ZN12_GLOBAL__N_112print_stringEPKcP6Status+0xf2>
     3c5: 69 00        	adc	#$0
     3c7: a6 14        	ldx	$14                     ; 0x2014 <_ZN12_GLOBAL__N_112print_stringEPKcP6Status+0xec>
     3c9: 86 16        	stx	$16                     ; 0x2016 <_ZN12_GLOBAL__N_112print_stringEPKcP6Status+0xee>
     3cb: 85 17        	sta	$17                     ; 0x2017 <_ZN12_GLOBAL__N_112print_stringEPKcP6Status+0xef>
     3cd: a6 19        	ldx	$19                     ; 0x2019 <_ZN12_GLOBAL__N_112print_stringEPKcP6Status+0xf1>
     3cf: 86 14        	stx	$14                     ; 0x2014 <_ZN12_GLOBAL__N_112print_stringEPKcP6Status+0xec>
     3d1: a4 18        	ldy	$18                     ; 0x2018 <_ZN12_GLOBAL__N_112print_stringEPKcP6Status+0xf0>
     3d3: 84 15        	sty	$15                     ; 0x2015 <_ZN12_GLOBAL__N_112print_stringEPKcP6Status+0xed>
     3d5: 84 1b        	sty	$1b                     ; 0x201b <_ZN12_GLOBAL__N_112print_stringEPKcP6Status+0xf3>
     3d7: a0 02        	ldy	#$2
     3d9: a5 19        	lda	$19                     ; 0x2019 <_ZN12_GLOBAL__N_112print_stringEPKcP6Status+0xf1>
     3db: 91 12        	sta	($12),y                 ; 0x2012 <_ZN12_GLOBAL__N_112print_stringEPKcP6Status+0xea>
     3dd: 88           	dey
     3de: a5 1b        	lda	$1b                     ; 0x201b <_ZN12_GLOBAL__N_112print_stringEPKcP6Status+0xf3>
     3e0: 91 16        	sta	($16),y                 ; 0x2016 <_ZN12_GLOBAL__N_112print_stringEPKcP6Status+0xee>
     3e2: 18           	clc
     3e3: a5 19        	lda	$19                     ; 0x2019 <_ZN12_GLOBAL__N_112print_stringEPKcP6Status+0xf1>
     3e5: 69 04        	adc	#$4
     3e7: 85 18        	sta	$18                     ; 0x2018 <_ZN12_GLOBAL__N_112print_stringEPKcP6Status+0xf0>
     3e9: a5 1b        	lda	$1b                     ; 0x201b <_ZN12_GLOBAL__N_112print_stringEPKcP6Status+0xf3>
     3eb: 69 00        	adc	#$0
     3ed: 85 19        	sta	$19                     ; 0x2019 <_ZN12_GLOBAL__N_112print_stringEPKcP6Status+0xf1>
     3ef: a0 04        	ldy	#$4
     3f1: b1 14        	lda	($14),y                 ; 0x2014 <_ZN12_GLOBAL__N_112print_stringEPKcP6Status+0xec>
     3f3: 85 14        	sta	$14                     ; 0x2014 <_ZN12_GLOBAL__N_112print_stringEPKcP6Status+0xec>
     3f5: 85 1b        	sta	$1b                     ; 0x201b <_ZN12_GLOBAL__N_112print_stringEPKcP6Status+0xf3>
     3f7: a0 01        	ldy	#$1
     3f9: b1 18        	lda	($18),y                 ; 0x2018 <_ZN12_GLOBAL__N_112print_stringEPKcP6Status+0xf0>
     3fb: 85 15        	sta	$15                     ; 0x2015 <_ZN12_GLOBAL__N_112print_stringEPKcP6Status+0xed>
     3fd: a8           	tay
     3fe: 18           	clc
     3ff: a5 1b        	lda	$1b                     ; 0x201b <_ZN12_GLOBAL__N_112print_stringEPKcP6Status+0xf3>
     401: 69 02        	adc	#$2
     403: 85 18        	sta	$18                     ; 0x2018 <_ZN12_GLOBAL__N_112print_stringEPKcP6Status+0xf0>
     405: 98           	tya
     406: 69 00        	adc	#$0
     408: 85 19        	sta	$19                     ; 0x2019 <_ZN12_GLOBAL__N_112print_stringEPKcP6Status+0xf1>
     40a: a5 12        	lda	$12                     ; 0x2012 <_ZN12_GLOBAL__N_112print_stringEPKcP6Status+0xea>
     40c: a0 02        	ldy	#$2
     40e: 91 14        	sta	($14),y                 ; 0x2014 <_ZN12_GLOBAL__N_112print_stringEPKcP6Status+0xec>
     410: a5 1a        	lda	$1a                     ; 0x201a <_ZN12_GLOBAL__N_112print_stringEPKcP6Status+0xf2>
     412: 88           	dey
     413: 91 18        	sta	($18),y                 ; 0x2018 <_ZN12_GLOBAL__N_112print_stringEPKcP6Status+0xf0>
     415: c8           	iny
     416: b1 12        	lda	($12),y                 ; 0x2012 <_ZN12_GLOBAL__N_112print_stringEPKcP6Status+0xea>
     418: 85 18        	sta	$18                     ; 0x2018 <_ZN12_GLOBAL__N_112print_stringEPKcP6Status+0xf0>
     41a: 88           	dey
     41b: b1 16        	lda	($16),y                 ; 0x2016 <_ZN12_GLOBAL__N_112print_stringEPKcP6Status+0xee>
     41d: 85 16        	sta	$16                     ; 0x2016 <_ZN12_GLOBAL__N_112print_stringEPKcP6Status+0xee>
     41f: 18           	clc
     420: a5 18        	lda	$18                     ; 0x2018 <_ZN12_GLOBAL__N_112print_stringEPKcP6Status+0xf0>
     422: 69 04        	adc	#$4
     424: aa           	tax
     425: a5 16        	lda	$16                     ; 0x2016 <_ZN12_GLOBAL__N_112print_stringEPKcP6Status+0xee>
     427: 69 00        	adc	#$0
     429: 86 16        	stx	$16                     ; 0x2016 <_ZN12_GLOBAL__N_112print_stringEPKcP6Status+0xee>
     42b: 85 17        	sta	$17                     ; 0x2017 <_ZN12_GLOBAL__N_112print_stringEPKcP6Status+0xef>
     42d: 18           	clc
     42e: a5 12        	lda	$12                     ; 0x2012 <_ZN12_GLOBAL__N_112print_stringEPKcP6Status+0xea>
     430: 69 04        	adc	#$4
     432: 85 18        	sta	$18                     ; 0x2018 <_ZN12_GLOBAL__N_112print_stringEPKcP6Status+0xf0>
     434: a5 13        	lda	$13                     ; 0x2013 <_ZN12_GLOBAL__N_112print_stringEPKcP6Status+0xeb>
     436: 69 00        	adc	#$0
     438: a0 04        	ldy	#$4
     43a: 85 19        	sta	$19                     ; 0x2019 <_ZN12_GLOBAL__N_112print_stringEPKcP6Status+0xf1>
     43c: a5 14        	lda	$14                     ; 0x2014 <_ZN12_GLOBAL__N_112print_stringEPKcP6Status+0xec>
     43e: 91 12        	sta	($12),y                 ; 0x2012 <_ZN12_GLOBAL__N_112print_stringEPKcP6Status+0xea>
     440: a5 15        	lda	$15                     ; 0x2015 <_ZN12_GLOBAL__N_112print_stringEPKcP6Status+0xed>
     442: a0 01        	ldy	#$1
     444: 91 18        	sta	($18),y                 ; 0x2018 <_ZN12_GLOBAL__N_112print_stringEPKcP6Status+0xf0>
     446: a5 13        	lda	$13                     ; 0x2013 <_ZN12_GLOBAL__N_112print_stringEPKcP6Status+0xeb>
     448: 91 16        	sta	($16),y                 ; 0x2016 <_ZN12_GLOBAL__N_112print_stringEPKcP6Status+0xee>
     44a: a5 12        	lda	$12                     ; 0x2012 <_ZN12_GLOBAL__N_112print_stringEPKcP6Status+0xea>
     44c: 92 16        	sta	($16)                   ; 0x2016 <_ZN12_GLOBAL__N_112print_stringEPKcP6Status+0xee>
     44e: 60           	rts
     44f: 00           	brk

00000450 <_ZN12_GLOBAL__N_19FreeChunk6removeEv>:
     450: a0 01        	ldy	#$1
     452: a9 fe        	lda	#$fe
     454: 32 12        	and	($12)                   ; 0x2012 <_ZN12_GLOBAL__N_112print_stringEPKcP6Status+0xea>
     456: 85 14        	sta	$14                     ; 0x2014 <_ZN12_GLOBAL__N_112print_stringEPKcP6Status+0xec>
     458: ad e1 5d     	lda	$5de1                   ; 0x5de1 <_ZN12_GLOBAL__N_19free_sizeE>
     45b: ae e2 5d     	ldx	$5de2                   ; 0x5de2 <_ZN12_GLOBAL__N_19free_sizeE+0x1>
     45e: 86 15        	stx	$15                     ; 0x2015 <_ZN12_GLOBAL__N_112print_stringEPKcP6Status+0xed>
     460: 38           	sec
     461: e5 14        	sbc	$14                     ; 0x2014 <_ZN12_GLOBAL__N_112print_stringEPKcP6Status+0xec>
     463: aa           	tax
     464: a5 15        	lda	$15                     ; 0x2015 <_ZN12_GLOBAL__N_112print_stringEPKcP6Status+0xed>
     466: f1 12        	sbc	($12),y                 ; 0x2012 <_ZN12_GLOBAL__N_112print_stringEPKcP6Status+0xea>
     468: 85 14        	sta	$14                     ; 0x2014 <_ZN12_GLOBAL__N_112print_stringEPKcP6Status+0xec>
     46a: 18           	clc
     46b: 8a           	txa
     46c: 69 02        	adc	#$2
     46e: 85 15        	sta	$15                     ; 0x2015 <_ZN12_GLOBAL__N_112print_stringEPKcP6Status+0xed>
     470: a5 14        	lda	$14                     ; 0x2014 <_ZN12_GLOBAL__N_112print_stringEPKcP6Status+0xec>
     472: 69 00        	adc	#$0
     474: a6 15        	ldx	$15                     ; 0x2015 <_ZN12_GLOBAL__N_112print_stringEPKcP6Status+0xed>
     476: 8e e1 5d     	stx	$5de1                   ; 0x5de1 <_ZN12_GLOBAL__N_19free_sizeE>
     479: 8d e2 5d     	sta	$5de2                   ; 0x5de2 <_ZN12_GLOBAL__N_19free_sizeE+0x1>
     47c: a5 12        	lda	$12                     ; 0x2012 <_ZN12_GLOBAL__N_112print_stringEPKcP6Status+0xea>
     47e: 18           	clc
     47f: 69 02        	adc	#$2
     481: 85 14        	sta	$14                     ; 0x2014 <_ZN12_GLOBAL__N_112print_stringEPKcP6Status+0xec>
     483: a5 13        	lda	$13                     ; 0x2013 <_ZN12_GLOBAL__N_112print_stringEPKcP6Status+0xeb>
     485: 69 00        	adc	#$0
     487: c8           	iny
     488: 85 15        	sta	$15                     ; 0x2015 <_ZN12_GLOBAL__N_112print_stringEPKcP6Status+0xed>
     48a: b1 12        	lda	($12),y                 ; 0x2012 <_ZN12_GLOBAL__N_112print_stringEPKcP6Status+0xea>
     48c: aa           	tax
     48d: 88           	dey
     48e: b1 14        	lda	($14),y                 ; 0x2014 <_ZN12_GLOBAL__N_112print_stringEPKcP6Status+0xec>
     490: 85 19        	sta	$19                     ; 0x2019 <_ZN12_GLOBAL__N_112print_stringEPKcP6Status+0xf1>
     492: c5 13        	cmp	$13                     ; 0x2013 <_ZN12_GLOBAL__N_112print_stringEPKcP6Status+0xeb>
     494: d0 0f        	bne	$4a5 <_ZN12_GLOBAL__N_19FreeChunk6removeEv+0x55>
     496: e4 12        	cpx	$12                     ; 0x2012 <_ZN12_GLOBAL__N_112print_stringEPKcP6Status+0xea>
     498: d0 0b        	bne	$4a5 <_ZN12_GLOBAL__N_19FreeChunk6removeEv+0x55>
     49a: a2 00        	ldx	#$0
     49c: 86 14        	stx	$14                     ; 0x2014 <_ZN12_GLOBAL__N_112print_stringEPKcP6Status+0xec>
     49e: a2 00        	ldx	#$0
     4a0: 86 15        	stx	$15                     ; 0x2015 <_ZN12_GLOBAL__N_112print_stringEPKcP6Status+0xed>
     4a2: 4c 24 05     	jmp	$524 <_ZN12_GLOBAL__N_19FreeChunk6removeEv+0xd4>
     4a5: 86 18        	stx	$18                     ; 0x2018 <_ZN12_GLOBAL__N_112print_stringEPKcP6Status+0xf0>
     4a7: a6 12        	ldx	$12                     ; 0x2012 <_ZN12_GLOBAL__N_112print_stringEPKcP6Status+0xea>
     4a9: a5 12        	lda	$12                     ; 0x2012 <_ZN12_GLOBAL__N_112print_stringEPKcP6Status+0xea>
     4ab: 86 1b        	stx	$1b                     ; 0x201b <_ZN12_GLOBAL__N_112print_stringEPKcP6Status+0xf3>
     4ad: 18           	clc
     4ae: 69 04        	adc	#$4
     4b0: 85 14        	sta	$14                     ; 0x2014 <_ZN12_GLOBAL__N_112print_stringEPKcP6Status+0xec>
     4b2: a5 13        	lda	$13                     ; 0x2013 <_ZN12_GLOBAL__N_112print_stringEPKcP6Status+0xeb>
     4b4: 69 00        	adc	#$0
     4b6: a0 04        	ldy	#$4
     4b8: 85 15        	sta	$15                     ; 0x2015 <_ZN12_GLOBAL__N_112print_stringEPKcP6Status+0xed>
     4ba: b1 12        	lda	($12),y                 ; 0x2012 <_ZN12_GLOBAL__N_112print_stringEPKcP6Status+0xea>
     4bc: 85 1c        	sta	$1c                     ; 0x201c <_ZN12_GLOBAL__N_112print_stringEPKcP6Status+0xf4>
     4be: 18           	clc
     4bf: 69 02        	adc	#$2
     4c1: 85 16        	sta	$16                     ; 0x2016 <_ZN12_GLOBAL__N_112print_stringEPKcP6Status+0xee>
     4c3: a0 01        	ldy	#$1
     4c5: b1 14        	lda	($14),y                 ; 0x2014 <_ZN12_GLOBAL__N_112print_stringEPKcP6Status+0xec>
     4c7: aa           	tax
     4c8: 69 00        	adc	#$0
     4ca: a4 16        	ldy	$16                     ; 0x2016 <_ZN12_GLOBAL__N_112print_stringEPKcP6Status+0xee>
     4cc: 84 14        	sty	$14                     ; 0x2014 <_ZN12_GLOBAL__N_112print_stringEPKcP6Status+0xec>
     4ce: 85 15        	sta	$15                     ; 0x2015 <_ZN12_GLOBAL__N_112print_stringEPKcP6Status+0xed>
     4d0: a4 1c        	ldy	$1c                     ; 0x201c <_ZN12_GLOBAL__N_112print_stringEPKcP6Status+0xf4>
     4d2: 84 16        	sty	$16                     ; 0x2016 <_ZN12_GLOBAL__N_112print_stringEPKcP6Status+0xee>
     4d4: 86 17        	stx	$17                     ; 0x2017 <_ZN12_GLOBAL__N_112print_stringEPKcP6Status+0xef>
     4d6: a0 02        	ldy	#$2
     4d8: a5 18        	lda	$18                     ; 0x2018 <_ZN12_GLOBAL__N_112print_stringEPKcP6Status+0xf0>
     4da: 91 16        	sta	($16),y                 ; 0x2016 <_ZN12_GLOBAL__N_112print_stringEPKcP6Status+0xee>
     4dc: a5 19        	lda	$19                     ; 0x2019 <_ZN12_GLOBAL__N_112print_stringEPKcP6Status+0xf1>
     4de: 88           	dey
     4df: 91 14        	sta	($14),y                 ; 0x2014 <_ZN12_GLOBAL__N_112print_stringEPKcP6Status+0xec>
     4e1: 18           	clc
     4e2: a5 1b        	lda	$1b                     ; 0x201b <_ZN12_GLOBAL__N_112print_stringEPKcP6Status+0xf3>
     4e4: 69 02        	adc	#$2
     4e6: 85 14        	sta	$14                     ; 0x2014 <_ZN12_GLOBAL__N_112print_stringEPKcP6Status+0xec>
     4e8: a5 13        	lda	$13                     ; 0x2013 <_ZN12_GLOBAL__N_112print_stringEPKcP6Status+0xeb>
     4ea: 69 00        	adc	#$0
     4ec: 85 15        	sta	$15                     ; 0x2015 <_ZN12_GLOBAL__N_112print_stringEPKcP6Status+0xed>
     4ee: c8           	iny
     4ef: b1 12        	lda	($12),y                 ; 0x2012 <_ZN12_GLOBAL__N_112print_stringEPKcP6Status+0xea>
     4f1: 85 16        	sta	$16                     ; 0x2016 <_ZN12_GLOBAL__N_112print_stringEPKcP6Status+0xee>
     4f3: 88           	dey
     4f4: b1 14        	lda	($14),y                 ; 0x2014 <_ZN12_GLOBAL__N_112print_stringEPKcP6Status+0xec>
     4f6: a4 16        	ldy	$16                     ; 0x2016 <_ZN12_GLOBAL__N_112print_stringEPKcP6Status+0xee>
     4f8: 84 14        	sty	$14                     ; 0x2014 <_ZN12_GLOBAL__N_112print_stringEPKcP6Status+0xec>
     4fa: 85 15        	sta	$15                     ; 0x2015 <_ZN12_GLOBAL__N_112print_stringEPKcP6Status+0xed>
     4fc: 85 17        	sta	$17                     ; 0x2017 <_ZN12_GLOBAL__N_112print_stringEPKcP6Status+0xef>
     4fe: a0 04        	ldy	#$4
     500: a5 1c        	lda	$1c                     ; 0x201c <_ZN12_GLOBAL__N_112print_stringEPKcP6Status+0xf4>
     502: 91 14        	sta	($14),y                 ; 0x2014 <_ZN12_GLOBAL__N_112print_stringEPKcP6Status+0xec>
     504: 18           	clc
     505: a5 16        	lda	$16                     ; 0x2016 <_ZN12_GLOBAL__N_112print_stringEPKcP6Status+0xee>
     507: 69 04        	adc	#$4
     509: 85 16        	sta	$16                     ; 0x2016 <_ZN12_GLOBAL__N_112print_stringEPKcP6Status+0xee>
     50b: a5 17        	lda	$17                     ; 0x2017 <_ZN12_GLOBAL__N_112print_stringEPKcP6Status+0xef>
     50d: 69 00        	adc	#$0
     50f: 85 17        	sta	$17                     ; 0x2017 <_ZN12_GLOBAL__N_112print_stringEPKcP6Status+0xef>
     511: 8a           	txa
     512: a0 01        	ldy	#$1
     514: 91 16        	sta	($16),y                 ; 0x2016 <_ZN12_GLOBAL__N_112print_stringEPKcP6Status+0xee>
     516: ae e4 5d     	ldx	$5de4                   ; 0x5de4 <_ZN12_GLOBAL__N_19free_listE+0x1>
     519: e4 13        	cpx	$13                     ; 0x2013 <_ZN12_GLOBAL__N_112print_stringEPKcP6Status+0xeb>
     51b: d0 11        	bne	$52e <_ZN12_GLOBAL__N_19FreeChunk6removeEv+0xde>
     51d: ae e3 5d     	ldx	$5de3                   ; 0x5de3 <_ZN12_GLOBAL__N_19free_listE>
     520: e4 12        	cpx	$12                     ; 0x2012 <_ZN12_GLOBAL__N_112print_stringEPKcP6Status+0xea>
     522: d0 0a        	bne	$52e <_ZN12_GLOBAL__N_19FreeChunk6removeEv+0xde>
     524: a6 14        	ldx	$14                     ; 0x2014 <_ZN12_GLOBAL__N_112print_stringEPKcP6Status+0xec>
     526: a4 15        	ldy	$15                     ; 0x2015 <_ZN12_GLOBAL__N_112print_stringEPKcP6Status+0xed>
     528: 8e e3 5d     	stx	$5de3                   ; 0x5de3 <_ZN12_GLOBAL__N_19free_listE>
     52b: 8c e4 5d     	sty	$5de4                   ; 0x5de4 <_ZN12_GLOBAL__N_19free_listE+0x1>
     52e: 60           	rts

0000052f <__zero_bss>:
     52f: a2 0c        	ldx	#$c
     531: a0 00        	ldy	#$0
     533: a9 d9        	lda	#$d9
     535: 85 12        	sta	$12                     ; 0x2012 <_ZN12_GLOBAL__N_112print_stringEPKcP6Status+0xea>
     537: a9 5d        	lda	#$5d
     539: 85 13        	sta	$13                     ; 0x2013 <_ZN12_GLOBAL__N_112print_stringEPKcP6Status+0xeb>
     53b: a9 00        	lda	#$0
     53d: 84 14        	sty	$14                     ; 0x2014 <_ZN12_GLOBAL__N_112print_stringEPKcP6Status+0xec>
     53f: 4c 91 2f     	jmp	$2f91 <__memset>

00000542 <__zero_zp_bss>:
     542: a2 0d        	ldx	#$d
     544: a0 00        	ldy	#$0
     546: a9 30        	lda	#$30
     548: 85 12        	sta	$12                     ; 0x2012 <_ZN12_GLOBAL__N_112print_stringEPKcP6Status+0xea>
     54a: a9 00        	lda	#$0
     54c: 85 13        	sta	$13                     ; 0x2013 <_ZN12_GLOBAL__N_112print_stringEPKcP6Status+0xeb>
     54e: a9 00        	lda	#$0
     550: 84 14        	sty	$14                     ; 0x2014 <_ZN12_GLOBAL__N_112print_stringEPKcP6Status+0xec>
     552: 4c 91 2f     	jmp	$2f91 <__memset>

00000555 <main>:
     555: 18           	clc
     556: a5 10        	lda	$10                     ; 0x2010 <_ZN12_GLOBAL__N_112print_stringEPKcP6Status+0xe8>
     558: 69 67        	adc	#$67
     55a: 85 10        	sta	$10                     ; 0x2010 <_ZN12_GLOBAL__N_112print_stringEPKcP6Status+0xe8>
     55c: a5 11        	lda	$11                     ; 0x2011 <_ZN12_GLOBAL__N_112print_stringEPKcP6Status+0xe9>
     55e: 69 df        	adc	#$df
     560: 85 11        	sta	$11                     ; 0x2011 <_ZN12_GLOBAL__N_112print_stringEPKcP6Status+0xe9>
     562: a6 24        	ldx	$24                     ; 0x2024 <_ZN12_GLOBAL__N_112print_stringEPKcP6Status+0xfc>
     564: da           	phx
     565: a6 25        	ldx	$25                     ; 0x2025 <_ZN12_GLOBAL__N_112print_stringEPKcP6Status+0xfd>
     567: da           	phx
     568: a6 26        	ldx	$26                     ; 0x2026 <_ZN12_GLOBAL__N_112print_stringEPKcP6Status+0xfe>
     56a: da           	phx
     56b: a6 27        	ldx	$27                     ; 0x2027 <_ZN12_GLOBAL__N_112print_stringEPKcP6Status+0xff>
     56d: da           	phx
     56e: a5 28        	lda	$28                     ; 0x2028 <_ZN12_GLOBAL__N_112print_stringEPKcP6Status+0x100>
     570: a0 09        	ldy	#$9
     572: 91 10        	sta	($10),y                 ; 0x2010 <_ZN12_GLOBAL__N_112print_stringEPKcP6Status+0xe8>
     574: a5 29        	lda	$29                     ; 0x2029 <_ZN12_GLOBAL__N_112print_stringEPKcP6Status+0x101>
     576: 88           	dey
     577: 91 10        	sta	($10),y                 ; 0x2010 <_ZN12_GLOBAL__N_112print_stringEPKcP6Status+0xe8>
     579: a5 2a        	lda	$2a                     ; 0x202a <_ZN12_GLOBAL__N_112print_stringEPKcP6Status+0x102>
     57b: 88           	dey
     57c: 91 10        	sta	($10),y                 ; 0x2010 <_ZN12_GLOBAL__N_112print_stringEPKcP6Status+0xe8>
     57e: a5 2b        	lda	$2b                     ; 0x202b <_ZN12_GLOBAL__N_112print_stringEPKcP6Status+0x103>
     580: 88           	dey
     581: 91 10        	sta	($10),y                 ; 0x2010 <_ZN12_GLOBAL__N_112print_stringEPKcP6Status+0xe8>
     583: a5 2c        	lda	$2c                     ; 0x202c <_ZN12_GLOBAL__N_112print_stringEPKcP6Status+0x104>
     585: 88           	dey
     586: 91 10        	sta	($10),y                 ; 0x2010 <_ZN12_GLOBAL__N_112print_stringEPKcP6Status+0xe8>
     588: a5 2d        	lda	$2d                     ; 0x202d <_ZN12_GLOBAL__N_112print_stringEPKcP6Status+0x105>
     58a: 88           	dey
     58b: 91 10        	sta	($10),y                 ; 0x2010 <_ZN12_GLOBAL__N_112print_stringEPKcP6Status+0xe8>
     58d: a5 2e        	lda	$2e                     ; 0x202e <_ZN12_GLOBAL__N_112print_stringEPKcP6Status+0x106>
     58f: 88           	dey
     590: 91 10        	sta	($10),y                 ; 0x2010 <_ZN12_GLOBAL__N_112print_stringEPKcP6Status+0xe8>
     592: a5 2f        	lda	$2f                     ; 0x202f <_ZN12_GLOBAL__N_112print_stringEPKcP6Status+0x107>
     594: 88           	dey
     595: 91 10        	sta	($10),y                 ; 0x2010 <_ZN12_GLOBAL__N_112print_stringEPKcP6Status+0xe8>
     597: 64 28        	stz	$28                     ; 0x2028 <_ZN12_GLOBAL__N_112print_stringEPKcP6Status+0x100>
     599: a2 00        	ldx	#$0
     59b: 86 12        	stx	$12                     ; 0x2012 <_ZN12_GLOBAL__N_112print_stringEPKcP6Status+0xea>
     59d: a2 c0        	ldx	#$c0
     59f: 86 13        	stx	$13                     ; 0x2013 <_ZN12_GLOBAL__N_112print_stringEPKcP6Status+0xeb>
     5a1: 64 01        	stz	$1                      ; 0x2001 <_ZN12_GLOBAL__N_112print_stringEPKcP6Status+0xd9>
     5a3: a2 3f        	ldx	#$3f
     5a5: 8e 00 d0     	stx	$d000                   ; 0xd000 <__heap_start+0x721a>
     5a8: a2 b3        	ldx	#$b3
     5aa: 86 00        	stx	$0                      ; 0x2000 <_ZN12_GLOBAL__N_112print_stringEPKcP6Status+0xd8>
     5ac: 64 08        	stz	$8                      ; 0x2008 <_ZN12_GLOBAL__N_112print_stringEPKcP6Status+0xe0>
     5ae: a2 01        	ldx	#$1
     5b0: 86 09        	stx	$9                      ; 0x2009 <_ZN12_GLOBAL__N_112print_stringEPKcP6Status+0xe1>
     5b2: e8           	inx
     5b3: 86 0a        	stx	$a                      ; 0x200a <_ZN12_GLOBAL__N_112print_stringEPKcP6Status+0xe2>
     5b5: e8           	inx
     5b6: 86 0b        	stx	$b                      ; 0x200b <_ZN12_GLOBAL__N_112print_stringEPKcP6Status+0xe3>
     5b8: e8           	inx
     5b9: 86 0c        	stx	$c                      ; 0x200c <_ZN12_GLOBAL__N_112print_stringEPKcP6Status+0xe4>
     5bb: e8           	inx
     5bc: 86 0d        	stx	$d                      ; 0x200d <_ZN12_GLOBAL__N_112print_stringEPKcP6Status+0xe5>
     5be: a2 36        	ldx	#$36
     5c0: a0 00        	ldy	#$0
     5c2: 86 f0        	stx	$f0                     ; 0x20f0 <printf+0xbb>
     5c4: 84 f1        	sty	$f1                     ; 0x20f1 <printf+0xbc>
     5c6: a2 00        	ldx	#$0
     5c8: 86 16        	stx	$16                     ; 0x2016 <_ZN12_GLOBAL__N_112print_stringEPKcP6Status+0xee>
     5ca: ca           	dex
     5cb: 86 17        	stx	$17                     ; 0x2017 <_ZN12_GLOBAL__N_112print_stringEPKcP6Status+0xef>
     5cd: 8a           	txa
     5ce: 0a           	asl
     5cf: 0a           	asl
     5d0: 18           	clc
     5d1: 69 d4        	adc	#$d4
     5d3: 85 18        	sta	$18                     ; 0x2018 <_ZN12_GLOBAL__N_112print_stringEPKcP6Status+0xf0>
     5d5: a0 00        	ldy	#$0
     5d7: 64 1c        	stz	$1c                     ; 0x201c <_ZN12_GLOBAL__N_112print_stringEPKcP6Status+0xf4>
     5d9: 64 15        	stz	$15                     ; 0x2015 <_ZN12_GLOBAL__N_112print_stringEPKcP6Status+0xed>
     5db: a6 17        	ldx	$17                     ; 0x2017 <_ZN12_GLOBAL__N_112print_stringEPKcP6Status+0xef>
     5dd: e0 03        	cpx	#$3
     5df: a6 01        	ldx	$1                      ; 0x2001 <_ZN12_GLOBAL__N_112print_stringEPKcP6Status+0xd9>
     5e1: 86 1a        	stx	$1a                     ; 0x201a <_ZN12_GLOBAL__N_112print_stringEPKcP6Status+0xf2>
     5e3: a2 d0        	ldx	#$d0
     5e5: 84 19        	sty	$19                     ; 0x2019 <_ZN12_GLOBAL__N_112print_stringEPKcP6Status+0xf1>
     5e7: b0 02        	bcs	$5eb <main+0x96>
     5e9: a6 18        	ldx	$18                     ; 0x2018 <_ZN12_GLOBAL__N_112print_stringEPKcP6Status+0xf0>
     5eb: 86 14        	stx	$14                     ; 0x2014 <_ZN12_GLOBAL__N_112print_stringEPKcP6Status+0xec>
     5ed: a5 1c        	lda	$1c                     ; 0x201c <_ZN12_GLOBAL__N_112print_stringEPKcP6Status+0xf4>
     5ef: 18           	clc
     5f0: 65 28        	adc	$28                     ; 0x2028 <_ZN12_GLOBAL__N_112print_stringEPKcP6Status+0x100>
     5f2: a8           	tay
     5f3: a6 15        	ldx	$15                     ; 0x2015 <_ZN12_GLOBAL__N_112print_stringEPKcP6Status+0xed>
     5f5: 86 1b        	stx	$1b                     ; 0x201b <_ZN12_GLOBAL__N_112print_stringEPKcP6Status+0xf3>
     5f7: a5 15        	lda	$15                     ; 0x2015 <_ZN12_GLOBAL__N_112print_stringEPKcP6Status+0xed>
     5f9: 65 14        	adc	$14                     ; 0x2014 <_ZN12_GLOBAL__N_112print_stringEPKcP6Status+0xec>
     5fb: 84 14        	sty	$14                     ; 0x2014 <_ZN12_GLOBAL__N_112print_stringEPKcP6Status+0xec>
     5fd: a0 01        	ldy	#$1
     5ff: 84 01        	sty	$1                      ; 0x2001 <_ZN12_GLOBAL__N_112print_stringEPKcP6Status+0xd9>
     601: 85 15        	sta	$15                     ; 0x2015 <_ZN12_GLOBAL__N_112print_stringEPKcP6Status+0xed>
     603: a5 19        	lda	$19                     ; 0x2019 <_ZN12_GLOBAL__N_112print_stringEPKcP6Status+0xf1>
     605: 92 14        	sta	($14)                   ; 0x2014 <_ZN12_GLOBAL__N_112print_stringEPKcP6Status+0xec>
     607: 91 14        	sta	($14),y                 ; 0x2014 <_ZN12_GLOBAL__N_112print_stringEPKcP6Status+0xec>
     609: c8           	iny
     60a: 91 14        	sta	($14),y                 ; 0x2014 <_ZN12_GLOBAL__N_112print_stringEPKcP6Status+0xec>
     60c: c8           	iny
     60d: a9 ff        	lda	#$ff
     60f: 91 14        	sta	($14),y                 ; 0x2014 <_ZN12_GLOBAL__N_112print_stringEPKcP6Status+0xec>
     611: a5 1c        	lda	$1c                     ; 0x201c <_ZN12_GLOBAL__N_112print_stringEPKcP6Status+0xf4>
     613: a6 1a        	ldx	$1a                     ; 0x201a <_ZN12_GLOBAL__N_112print_stringEPKcP6Status+0xf2>
     615: 86 01        	stx	$1                      ; 0x2001 <_ZN12_GLOBAL__N_112print_stringEPKcP6Status+0xd9>
     617: 18           	clc
     618: 69 04        	adc	#$4
     61a: 85 1c        	sta	$1c                     ; 0x201c <_ZN12_GLOBAL__N_112print_stringEPKcP6Status+0xf4>
     61c: a5 1b        	lda	$1b                     ; 0x201b <_ZN12_GLOBAL__N_112print_stringEPKcP6Status+0xf3>
     61e: 69 00        	adc	#$0
     620: e6 19        	inc	$19                     ; 0x2019 <_ZN12_GLOBAL__N_112print_stringEPKcP6Status+0xf1>
     622: a4 19        	ldy	$19                     ; 0x2019 <_ZN12_GLOBAL__N_112print_stringEPKcP6Status+0xf1>
     624: 85 15        	sta	$15                     ; 0x2015 <_ZN12_GLOBAL__N_112print_stringEPKcP6Status+0xed>
     626: c9 04        	cmp	#$4
     628: d0 b1        	bne	$5db <main+0x86>
     62a: a5 1c        	lda	$1c                     ; 0x201c <_ZN12_GLOBAL__N_112print_stringEPKcP6Status+0xf4>
     62c: f0 03        	beq	$631 <main+0xdc>
     62e: 4c db 05     	jmp	$5db <main+0x86>
     631: a6 16        	ldx	$16                     ; 0x2016 <_ZN12_GLOBAL__N_112print_stringEPKcP6Status+0xee>
     633: e8           	inx
     634: e0 04        	cpx	#$4
     636: f0 03        	beq	$63b <main+0xe6>
     638: 4c c8 05     	jmp	$5c8 <main+0x73>
     63b: ad 02 d0     	lda	$d002                   ; 0xd002 <__heap_start+0x721c>
     63e: 29 f0        	and	#$f0
     640: 8d 02 d0     	sta	$d002                   ; 0xd002 <__heap_start+0x721c>
     643: ad 02 d0     	lda	$d002                   ; 0xd002 <__heap_start+0x721c>
     646: 29 0f        	and	#$f
     648: 09 10        	ora	#$10
     64a: 8d 02 d0     	sta	$d002                   ; 0xd002 <__heap_start+0x721c>
     64d: a2 02        	ldx	#$2
     64f: 8e 03 d0     	stx	$d003                   ; 0xd003 <__heap_start+0x721d>
     652: 64 30        	stz	$30                     ; 0x2030 <_ZN12_GLOBAL__N_112print_stringEPKcP6Status+0x108>
     654: ad 01 d0     	lda	$d001                   ; 0xd001 <__heap_start+0x721b>
     657: 29 f9        	and	#$f9
     659: 09 04        	ora	#$4
     65b: 8d 01 d0     	sta	$d001                   ; 0xd001 <__heap_start+0x721b>
     65e: 64 14        	stz	$14                     ; 0x2014 <_ZN12_GLOBAL__N_112print_stringEPKcP6Status+0xec>
     660: 9c 10 d0     	stz	$d010                   ; 0xd010 <__heap_start+0x722a>
     663: a2 00        	ldx	#$0
     665: 64 15        	stz	$15                     ; 0x2015 <_ZN12_GLOBAL__N_112print_stringEPKcP6Status+0xed>
     667: 86 18        	stx	$18                     ; 0x2018 <_ZN12_GLOBAL__N_112print_stringEPKcP6Status+0xf0>
     669: a4 18        	ldy	$18                     ; 0x2018 <_ZN12_GLOBAL__N_112print_stringEPKcP6Status+0xf0>
     66b: be 25 30     	ldx	$3025,y                 ; 0x3025 <textColors>
     66e: 86 19        	stx	$19                     ; 0x2019 <_ZN12_GLOBAL__N_112print_stringEPKcP6Status+0xf1>
     670: be 26 30     	ldx	$3026,y                 ; 0x3026 <textColors+0x1>
     673: 86 1a        	stx	$1a                     ; 0x201a <_ZN12_GLOBAL__N_112print_stringEPKcP6Status+0xf2>
     675: be 27 30     	ldx	$3027,y                 ; 0x3027 <textColors+0x2>
     678: 86 1b        	stx	$1b                     ; 0x201b <_ZN12_GLOBAL__N_112print_stringEPKcP6Status+0xf3>
     67a: a6 15        	ldx	$15                     ; 0x2015 <_ZN12_GLOBAL__N_112print_stringEPKcP6Status+0xed>
     67c: 8e 00 de     	stx	$de00                   ; 0xde00 <__heap_start+0x801a>
     67f: 86 17        	stx	$17                     ; 0x2017 <_ZN12_GLOBAL__N_112print_stringEPKcP6Status+0xef>
     681: 9c 01 de     	stz	$de01                   ; 0xde01 <__heap_start+0x801b>
     684: a2 04        	ldx	#$4
     686: 8e 02 de     	stx	$de02                   ; 0xde02 <__heap_start+0x801c>
     689: 9c 03 de     	stz	$de03                   ; 0xde03 <__heap_start+0x801d>
     68c: ad 10 de     	lda	$de10                   ; 0xde10 <__heap_start+0x802a>
     68f: ac 11 de     	ldy	$de11                   ; 0xde11 <__heap_start+0x802b>
     692: 84 15        	sty	$15                     ; 0x2015 <_ZN12_GLOBAL__N_112print_stringEPKcP6Status+0xed>
     694: ac 12 de     	ldy	$de12                   ; 0xde12 <__heap_start+0x802c>
     697: ac 13 de     	ldy	$de13                   ; 0xde13 <__heap_start+0x802d>
     69a: 18           	clc
     69b: 65 14        	adc	$14                     ; 0x2014 <_ZN12_GLOBAL__N_112print_stringEPKcP6Status+0xec>
     69d: 85 16        	sta	$16                     ; 0x2016 <_ZN12_GLOBAL__N_112print_stringEPKcP6Status+0xee>
     69f: a6 17        	ldx	$17                     ; 0x2017 <_ZN12_GLOBAL__N_112print_stringEPKcP6Status+0xef>
     6a1: a9 d8        	lda	#$d8
     6a3: 65 15        	adc	$15                     ; 0x2015 <_ZN12_GLOBAL__N_112print_stringEPKcP6Status+0xed>
     6a5: 85 17        	sta	$17                     ; 0x2017 <_ZN12_GLOBAL__N_112print_stringEPKcP6Status+0xef>
     6a7: a5 1b        	lda	$1b                     ; 0x201b <_ZN12_GLOBAL__N_112print_stringEPKcP6Status+0xf3>
     6a9: 92 16        	sta	($16)                   ; 0x2016 <_ZN12_GLOBAL__N_112print_stringEPKcP6Status+0xee>
     6ab: a0 01        	ldy	#$1
     6ad: a5 1a        	lda	$1a                     ; 0x201a <_ZN12_GLOBAL__N_112print_stringEPKcP6Status+0xf2>
     6af: 91 16        	sta	($16),y                 ; 0x2016 <_ZN12_GLOBAL__N_112print_stringEPKcP6Status+0xee>
     6b1: c8           	iny
     6b2: a5 19        	lda	$19                     ; 0x2019 <_ZN12_GLOBAL__N_112print_stringEPKcP6Status+0xf1>
     6b4: 91 16        	sta	($16),y                 ; 0x2016 <_ZN12_GLOBAL__N_112print_stringEPKcP6Status+0xee>
     6b6: c8           	iny
     6b7: a9 ff        	lda	#$ff
     6b9: 91 16        	sta	($16),y                 ; 0x2016 <_ZN12_GLOBAL__N_112print_stringEPKcP6Status+0xee>
     6bb: 8e 00 de     	stx	$de00                   ; 0xde00 <__heap_start+0x801a>
     6be: 9c 01 de     	stz	$de01                   ; 0xde01 <__heap_start+0x801b>
     6c1: c8           	iny
     6c2: 8c 02 de     	sty	$de02                   ; 0xde02 <__heap_start+0x801c>
     6c5: 9c 03 de     	stz	$de03                   ; 0xde03 <__heap_start+0x801d>
     6c8: ad 10 de     	lda	$de10                   ; 0xde10 <__heap_start+0x802a>
     6cb: 85 15        	sta	$15                     ; 0x2015 <_ZN12_GLOBAL__N_112print_stringEPKcP6Status+0xed>
     6cd: ad 11 de     	lda	$de11                   ; 0xde11 <__heap_start+0x802b>
     6d0: 85 16        	sta	$16                     ; 0x2016 <_ZN12_GLOBAL__N_112print_stringEPKcP6Status+0xee>
     6d2: a9 40        	lda	#$40
     6d4: 18           	clc
     6d5: 65 15        	adc	$15                     ; 0x2015 <_ZN12_GLOBAL__N_112print_stringEPKcP6Status+0xed>
     6d7: a8           	tay
     6d8: a9 d8        	lda	#$d8
     6da: 65 16        	adc	$16                     ; 0x2016 <_ZN12_GLOBAL__N_112print_stringEPKcP6Status+0xee>
     6dc: 85 17        	sta	$17                     ; 0x2017 <_ZN12_GLOBAL__N_112print_stringEPKcP6Status+0xef>
     6de: 84 16        	sty	$16                     ; 0x2016 <_ZN12_GLOBAL__N_112print_stringEPKcP6Status+0xee>
     6e0: ad 12 de     	lda	$de12                   ; 0xde12 <__heap_start+0x802c>
     6e3: ad 13 de     	lda	$de13                   ; 0xde13 <__heap_start+0x802d>
     6e6: a5 1b        	lda	$1b                     ; 0x201b <_ZN12_GLOBAL__N_112print_stringEPKcP6Status+0xf3>
     6e8: 92 16        	sta	($16)                   ; 0x2016 <_ZN12_GLOBAL__N_112print_stringEPKcP6Status+0xee>
     6ea: a5 1a        	lda	$1a                     ; 0x201a <_ZN12_GLOBAL__N_112print_stringEPKcP6Status+0xf2>
     6ec: a0 01        	ldy	#$1
     6ee: 91 16        	sta	($16),y                 ; 0x2016 <_ZN12_GLOBAL__N_112print_stringEPKcP6Status+0xee>
     6f0: a5 19        	lda	$19                     ; 0x2019 <_ZN12_GLOBAL__N_112print_stringEPKcP6Status+0xf1>
     6f2: c8           	iny
     6f3: 91 16        	sta	($16),y                 ; 0x2016 <_ZN12_GLOBAL__N_112print_stringEPKcP6Status+0xee>
     6f5: c8           	iny
     6f6: a9 ff        	lda	#$ff
     6f8: 91 16        	sta	($16),y                 ; 0x2016 <_ZN12_GLOBAL__N_112print_stringEPKcP6Status+0xee>
     6fa: e8           	inx
     6fb: 86 15        	stx	$15                     ; 0x2015 <_ZN12_GLOBAL__N_112print_stringEPKcP6Status+0xed>
     6fd: 18           	clc
     6fe: a5 18        	lda	$18                     ; 0x2018 <_ZN12_GLOBAL__N_112print_stringEPKcP6Status+0xf0>
     700: 69 03        	adc	#$3
     702: aa           	tax
     703: c9 30        	cmp	#$30
     705: f0 03        	beq	$70a <main+0x1b5>
     707: 4c 67 06     	jmp	$667 <main+0x112>
     70a: a6 01        	ldx	$1                      ; 0x2001 <_ZN12_GLOBAL__N_112print_stringEPKcP6Status+0xd9>
     70c: 86 18        	stx	$18                     ; 0x2018 <_ZN12_GLOBAL__N_112print_stringEPKcP6Status+0xf0>
     70e: a2 50        	ldx	#$50
     710: 8e 00 de     	stx	$de00                   ; 0xde00 <__heap_start+0x801a>
     713: 9c 01 de     	stz	$de01                   ; 0xde01 <__heap_start+0x801b>
     716: a2 1e        	ldx	#$1e
     718: 8e 02 de     	stx	$de02                   ; 0xde02 <__heap_start+0x801c>
     71b: 9c 03 de     	stz	$de03                   ; 0xde03 <__heap_start+0x801d>
     71e: ae 10 de     	ldx	$de10                   ; 0xde10 <__heap_start+0x802a>
     721: ac 11 de     	ldy	$de11                   ; 0xde11 <__heap_start+0x802b>
     724: ad 12 de     	lda	$de12                   ; 0xde12 <__heap_start+0x802c>
     727: ad 13 de     	lda	$de13                   ; 0xde13 <__heap_start+0x802d>
     72a: a9 02        	lda	#$2
     72c: 85 01        	sta	$1                      ; 0x2001 <_ZN12_GLOBAL__N_112print_stringEPKcP6Status+0xd9>
     72e: e0 01        	cpx	#$1
     730: 98           	tya
     731: e9 00        	sbc	#$0
     733: 50 02        	bvc	$737 <main+0x1e2>
     735: 49 80        	eor	#$80
     737: c9 00        	cmp	#$0
     739: 10 03        	bpl	$73e <main+0x1e9>
     73b: 4c 97 07     	jmp	$797 <main+0x242>
     73e: a9 20        	lda	#$20
     740: 86 19        	stx	$19                     ; 0x2019 <_ZN12_GLOBAL__N_112print_stringEPKcP6Status+0xf1>
     742: 86 14        	stx	$14                     ; 0x2014 <_ZN12_GLOBAL__N_112print_stringEPKcP6Status+0xec>
     744: 84 15        	sty	$15                     ; 0x2015 <_ZN12_GLOBAL__N_112print_stringEPKcP6Status+0xed>
     746: a2 00        	ldx	#$0
     748: 86 16        	stx	$16                     ; 0x2016 <_ZN12_GLOBAL__N_112print_stringEPKcP6Status+0xee>
     74a: a2 c0        	ldx	#$c0
     74c: 86 17        	stx	$17                     ; 0x2017 <_ZN12_GLOBAL__N_112print_stringEPKcP6Status+0xef>
     74e: 92 16        	sta	($16)                   ; 0x2016 <_ZN12_GLOBAL__N_112print_stringEPKcP6Status+0xee>
     750: e6 16        	inc	$16                     ; 0x2016 <_ZN12_GLOBAL__N_112print_stringEPKcP6Status+0xee>
     752: d0 02        	bne	$756 <main+0x201>
     754: e6 17        	inc	$17                     ; 0x2017 <_ZN12_GLOBAL__N_112print_stringEPKcP6Status+0xef>
     756: a2 ff        	ldx	#$ff
     758: c6 14        	dec	$14                     ; 0x2014 <_ZN12_GLOBAL__N_112print_stringEPKcP6Status+0xec>
     75a: e4 14        	cpx	$14                     ; 0x2014 <_ZN12_GLOBAL__N_112print_stringEPKcP6Status+0xec>
     75c: d0 02        	bne	$760 <main+0x20b>
     75e: c6 15        	dec	$15                     ; 0x2015 <_ZN12_GLOBAL__N_112print_stringEPKcP6Status+0xed>
     760: a6 15        	ldx	$15                     ; 0x2015 <_ZN12_GLOBAL__N_112print_stringEPKcP6Status+0xed>
     762: d0 ea        	bne	$74e <main+0x1f9>
     764: a6 14        	ldx	$14                     ; 0x2014 <_ZN12_GLOBAL__N_112print_stringEPKcP6Status+0xec>
     766: d0 e6        	bne	$74e <main+0x1f9>
     768: a2 03        	ldx	#$3
     76a: 86 01        	stx	$1                      ; 0x2001 <_ZN12_GLOBAL__N_112print_stringEPKcP6Status+0xd9>
     76c: a5 30        	lda	$30                     ; 0x2030 <_ZN12_GLOBAL__N_112print_stringEPKcP6Status+0x108>
     76e: 29 01        	and	#$1
     770: aa           	tax
     771: a9 60        	lda	#$60
     773: e0 00        	cpx	#$0
     775: d0 02        	bne	$779 <main+0x224>
     777: a9 f0        	lda	#$f0
     779: a6 19        	ldx	$19                     ; 0x2019 <_ZN12_GLOBAL__N_112print_stringEPKcP6Status+0xf1>
     77b: 92 12        	sta	($12)                   ; 0x2012 <_ZN12_GLOBAL__N_112print_stringEPKcP6Status+0xea>
     77d: e6 12        	inc	$12                     ; 0x2012 <_ZN12_GLOBAL__N_112print_stringEPKcP6Status+0xea>
     77f: d0 02        	bne	$783 <main+0x22e>
     781: e6 13        	inc	$13                     ; 0x2013 <_ZN12_GLOBAL__N_112print_stringEPKcP6Status+0xeb>
     783: 85 14        	sta	$14                     ; 0x2014 <_ZN12_GLOBAL__N_112print_stringEPKcP6Status+0xec>
     785: ca           	dex
     786: e0 ff        	cpx	#$ff
     788: d0 01        	bne	$78b <main+0x236>
     78a: 88           	dey
     78b: a5 14        	lda	$14                     ; 0x2014 <_ZN12_GLOBAL__N_112print_stringEPKcP6Status+0xec>
     78d: c0 00        	cpy	#$0
     78f: d0 ea        	bne	$77b <main+0x226>
     791: e0 00        	cpx	#$0
     793: d0 e6        	bne	$77b <main+0x226>
     795: 80 04        	bra	$79b <main+0x246>
     797: a2 03        	ldx	#$3
     799: 86 01        	stx	$1                      ; 0x2001 <_ZN12_GLOBAL__N_112print_stringEPKcP6Status+0xd9>
     79b: a6 18        	ldx	$18                     ; 0x2018 <_ZN12_GLOBAL__N_112print_stringEPKcP6Status+0xf0>
     79d: 86 01        	stx	$1                      ; 0x2001 <_ZN12_GLOBAL__N_112print_stringEPKcP6Status+0xd9>
     79f: 64 31        	stz	$31                     ; 0x2031 <_ZN12_GLOBAL__N_112print_stringEPKcP6Status+0x109>
     7a1: 9c 14 d0     	stz	$d014                   ; 0xd014 <__heap_start+0x722e>
     7a4: 9c 15 d0     	stz	$d015                   ; 0xd015 <__heap_start+0x722f>
     7a7: 64 32        	stz	$32                     ; 0x2032 <_ZN12_GLOBAL__N_112print_stringEPKcP6Status+0x10a>
     7a9: 9c 16 d0     	stz	$d016                   ; 0xd016 <__heap_start+0x7230>
     7ac: 9c 17 d0     	stz	$d017                   ; 0xd017 <__heap_start+0x7231>
     7af: a2 40        	ldx	#$40
     7b1: 8e 00 de     	stx	$de00                   ; 0xde00 <__heap_start+0x801a>
     7b4: a2 01        	ldx	#$1
     7b6: 8e 01 de     	stx	$de01                   ; 0xde01 <__heap_start+0x801b>
     7b9: a2 f0        	ldx	#$f0
     7bb: 8e 02 de     	stx	$de02                   ; 0xde02 <__heap_start+0x801c>
     7be: 9c 03 de     	stz	$de03                   ; 0xde03 <__heap_start+0x801d>
     7c1: ae 10 de     	ldx	$de10                   ; 0xde10 <__heap_start+0x802a>
     7c4: 86 17        	stx	$17                     ; 0x2017 <_ZN12_GLOBAL__N_112print_stringEPKcP6Status+0xef>
     7c6: ae 11 de     	ldx	$de11                   ; 0xde11 <__heap_start+0x802b>
     7c9: 86 12        	stx	$12                     ; 0x2012 <_ZN12_GLOBAL__N_112print_stringEPKcP6Status+0xea>
     7cb: ae 12 de     	ldx	$de12                   ; 0xde12 <__heap_start+0x802c>
     7ce: 86 13        	stx	$13                     ; 0x2013 <_ZN12_GLOBAL__N_112print_stringEPKcP6Status+0xeb>
     7d0: ae 13 de     	ldx	$de13                   ; 0xde13 <__heap_start+0x802d>
     7d3: 86 14        	stx	$14                     ; 0x2014 <_ZN12_GLOBAL__N_112print_stringEPKcP6Status+0xec>
     7d5: a4 12        	ldy	$12                     ; 0x2012 <_ZN12_GLOBAL__N_112print_stringEPKcP6Status+0xea>
     7d7: 84 15        	sty	$15                     ; 0x2015 <_ZN12_GLOBAL__N_112print_stringEPKcP6Status+0xed>
     7d9: 06 15        	asl	$15                     ; 0x2015 <_ZN12_GLOBAL__N_112print_stringEPKcP6Status+0xed>
     7db: a5 13        	lda	$13                     ; 0x2013 <_ZN12_GLOBAL__N_112print_stringEPKcP6Status+0xeb>
     7dd: 2a           	rol
     7de: 86 16        	stx	$16                     ; 0x2016 <_ZN12_GLOBAL__N_112print_stringEPKcP6Status+0xee>
     7e0: 26 16        	rol	$16                     ; 0x2016 <_ZN12_GLOBAL__N_112print_stringEPKcP6Status+0xee>
     7e2: 06 15        	asl	$15                     ; 0x2015 <_ZN12_GLOBAL__N_112print_stringEPKcP6Status+0xed>
     7e4: 2a           	rol
     7e5: 26 16        	rol	$16                     ; 0x2016 <_ZN12_GLOBAL__N_112print_stringEPKcP6Status+0xee>
     7e7: 06 15        	asl	$15                     ; 0x2015 <_ZN12_GLOBAL__N_112print_stringEPKcP6Status+0xed>
     7e9: 2a           	rol
     7ea: 26 16        	rol	$16                     ; 0x2016 <_ZN12_GLOBAL__N_112print_stringEPKcP6Status+0xee>
     7ec: 85 15        	sta	$15                     ; 0x2015 <_ZN12_GLOBAL__N_112print_stringEPKcP6Status+0xed>
     7ee: 8d 00 de     	sta	$de00                   ; 0xde00 <__heap_start+0x801a>
     7f1: a5 16        	lda	$16                     ; 0x2016 <_ZN12_GLOBAL__N_112print_stringEPKcP6Status+0xee>
     7f3: 8d 01 de     	sta	$de01                   ; 0xde01 <__heap_start+0x801b>
     7f6: 9c 02 de     	stz	$de02                   ; 0xde02 <__heap_start+0x801c>
     7f9: a2 20        	ldx	#$20
     7fb: 8e 03 de     	stx	$de03                   ; 0xde03 <__heap_start+0x801d>
     7fe: ae 10 de     	ldx	$de10                   ; 0xde10 <__heap_start+0x802a>
     801: 86 16        	stx	$16                     ; 0x2016 <_ZN12_GLOBAL__N_112print_stringEPKcP6Status+0xee>
     803: ae 11 de     	ldx	$de11                   ; 0xde11 <__heap_start+0x802b>
     806: 86 18        	stx	$18                     ; 0x2018 <_ZN12_GLOBAL__N_112print_stringEPKcP6Status+0xf0>
     808: ac 12 de     	ldy	$de12                   ; 0xde12 <__heap_start+0x802c>
     80b: ae 13 de     	ldx	$de13                   ; 0xde13 <__heap_start+0x802d>
     80e: e4 14        	cpx	$14                     ; 0x2014 <_ZN12_GLOBAL__N_112print_stringEPKcP6Status+0xec>
     810: d0 14        	bne	$826 <main+0x2d1>
     812: c4 13        	cpy	$13                     ; 0x2013 <_ZN12_GLOBAL__N_112print_stringEPKcP6Status+0xeb>
     814: d0 10        	bne	$826 <main+0x2d1>
     816: a6 18        	ldx	$18                     ; 0x2018 <_ZN12_GLOBAL__N_112print_stringEPKcP6Status+0xf0>
     818: e4 12        	cpx	$12                     ; 0x2012 <_ZN12_GLOBAL__N_112print_stringEPKcP6Status+0xea>
     81a: d0 0a        	bne	$826 <main+0x2d1>
     81c: a6 16        	ldx	$16                     ; 0x2016 <_ZN12_GLOBAL__N_112print_stringEPKcP6Status+0xee>
     81e: e4 17        	cpx	$17                     ; 0x2017 <_ZN12_GLOBAL__N_112print_stringEPKcP6Status+0xef>
     820: d0 04        	bne	$826 <main+0x2d1>
     822: a6 15        	ldx	$15                     ; 0x2015 <_ZN12_GLOBAL__N_112print_stringEPKcP6Status+0xed>
     824: 80 06        	bra	$82c <main+0x2d7>
     826: a6 15        	ldx	$15                     ; 0x2015 <_ZN12_GLOBAL__N_112print_stringEPKcP6Status+0xed>
     828: e8           	inx
     829: d0 01        	bne	$82c <main+0x2d7>
     82b: 1a           	inc
     82c: 8e 00 de     	stx	$de00                   ; 0xde00 <__heap_start+0x801a>
     82f: 8d 01 de     	sta	$de01                   ; 0xde01 <__heap_start+0x801b>
     832: 9c 02 de     	stz	$de02                   ; 0xde02 <__heap_start+0x801c>
     835: a2 20        	ldx	#$20
     837: 8e 03 de     	stx	$de03                   ; 0xde03 <__heap_start+0x801d>
     83a: ae 10 de     	ldx	$de10                   ; 0xde10 <__heap_start+0x802a>
     83d: 86 12        	stx	$12                     ; 0x2012 <_ZN12_GLOBAL__N_112print_stringEPKcP6Status+0xea>
     83f: ae 11 de     	ldx	$de11                   ; 0xde11 <__heap_start+0x802b>
     842: 86 13        	stx	$13                     ; 0x2013 <_ZN12_GLOBAL__N_112print_stringEPKcP6Status+0xeb>
     844: ae 12 de     	ldx	$de12                   ; 0xde12 <__heap_start+0x802c>
     847: 86 14        	stx	$14                     ; 0x2014 <_ZN12_GLOBAL__N_112print_stringEPKcP6Status+0xec>
     849: ae 13 de     	ldx	$de13                   ; 0xde13 <__heap_start+0x802d>
     84c: 86 15        	stx	$15                     ; 0x2015 <_ZN12_GLOBAL__N_112print_stringEPKcP6Status+0xed>
     84e: a9 00        	lda	#$0
     850: 38           	sec
     851: e5 12        	sbc	$12                     ; 0x2012 <_ZN12_GLOBAL__N_112print_stringEPKcP6Status+0xea>
     853: 85 16        	sta	$16                     ; 0x2016 <_ZN12_GLOBAL__N_112print_stringEPKcP6Status+0xee>
     855: a9 00        	lda	#$0
     857: e5 13        	sbc	$13                     ; 0x2013 <_ZN12_GLOBAL__N_112print_stringEPKcP6Status+0xeb>
     859: 85 17        	sta	$17                     ; 0x2017 <_ZN12_GLOBAL__N_112print_stringEPKcP6Status+0xef>
     85b: a9 08        	lda	#$8
     85d: e5 14        	sbc	$14                     ; 0x2014 <_ZN12_GLOBAL__N_112print_stringEPKcP6Status+0xec>
     85f: aa           	tax
     860: a9 00        	lda	#$0
     862: e5 15        	sbc	$15                     ; 0x2015 <_ZN12_GLOBAL__N_112print_stringEPKcP6Status+0xed>
     864: a8           	tay
     865: a5 17        	lda	$17                     ; 0x2017 <_ZN12_GLOBAL__N_112print_stringEPKcP6Status+0xef>
     867: 8d da 5d     	sta	$5dda                   ; 0x5dda <__bss_start+0x1>
     86a: 8e db 5d     	stx	$5ddb                   ; 0x5ddb <__bss_start+0x2>
     86d: 8c dc 5d     	sty	$5ddc                   ; 0x5ddc <__bss_start+0x3>
     870: a5 16        	lda	$16                     ; 0x2016 <_ZN12_GLOBAL__N_112print_stringEPKcP6Status+0xee>
     872: 38           	sec
     873: e5 12        	sbc	$12                     ; 0x2012 <_ZN12_GLOBAL__N_112print_stringEPKcP6Status+0xea>
     875: a8           	tay
     876: a5 17        	lda	$17                     ; 0x2017 <_ZN12_GLOBAL__N_112print_stringEPKcP6Status+0xef>
     878: e5 13        	sbc	$13                     ; 0x2013 <_ZN12_GLOBAL__N_112print_stringEPKcP6Status+0xeb>
     87a: 85 15        	sta	$15                     ; 0x2015 <_ZN12_GLOBAL__N_112print_stringEPKcP6Status+0xed>
     87c: 8a           	txa
     87d: e5 14        	sbc	$14                     ; 0x2014 <_ZN12_GLOBAL__N_112print_stringEPKcP6Status+0xec>
     87f: aa           	tax
     880: 98           	tya
     881: 38           	sec
     882: e5 12        	sbc	$12                     ; 0x2012 <_ZN12_GLOBAL__N_112print_stringEPKcP6Status+0xea>
     884: 85 12        	sta	$12                     ; 0x2012 <_ZN12_GLOBAL__N_112print_stringEPKcP6Status+0xea>
     886: a5 15        	lda	$15                     ; 0x2015 <_ZN12_GLOBAL__N_112print_stringEPKcP6Status+0xed>
     888: e5 13        	sbc	$13                     ; 0x2013 <_ZN12_GLOBAL__N_112print_stringEPKcP6Status+0xeb>
     88a: 85 13        	sta	$13                     ; 0x2013 <_ZN12_GLOBAL__N_112print_stringEPKcP6Status+0xeb>
     88c: 8a           	txa
     88d: 86 17        	stx	$17                     ; 0x2017 <_ZN12_GLOBAL__N_112print_stringEPKcP6Status+0xef>
     88f: e5 14        	sbc	$14                     ; 0x2014 <_ZN12_GLOBAL__N_112print_stringEPKcP6Status+0xec>
     891: a6 16        	ldx	$16                     ; 0x2016 <_ZN12_GLOBAL__N_112print_stringEPKcP6Status+0xee>
     893: 8e d9 5d     	stx	$5dd9                   ; 0x5dd9 <__bss_start>
     896: 8e 01 d1     	stx	$d101                   ; 0xd101 <__heap_start+0x731b>
     899: ae da 5d     	ldx	$5dda                   ; 0x5dda <__bss_start+0x1>
     89c: 8e 02 d1     	stx	$d102                   ; 0xd102 <__heap_start+0x731c>
     89f: ae db 5d     	ldx	$5ddb                   ; 0x5ddb <__bss_start+0x2>
     8a2: 8e 03 d1     	stx	$d103                   ; 0xd103 <__heap_start+0x731d>
     8a5: 8c 09 d1     	sty	$d109                   ; 0xd109 <__heap_start+0x7323>
     8a8: a6 15        	ldx	$15                     ; 0x2015 <_ZN12_GLOBAL__N_112print_stringEPKcP6Status+0xed>
     8aa: 8e 0a d1     	stx	$d10a                   ; 0xd10a <__heap_start+0x7324>
     8ad: a6 17        	ldx	$17                     ; 0x2017 <_ZN12_GLOBAL__N_112print_stringEPKcP6Status+0xef>
     8af: 8e 0b d1     	stx	$d10b                   ; 0xd10b <__heap_start+0x7325>
     8b2: a6 12        	ldx	$12                     ; 0x2012 <_ZN12_GLOBAL__N_112print_stringEPKcP6Status+0xea>
     8b4: 8e 11 d1     	stx	$d111                   ; 0xd111 <__heap_start+0x732b>
     8b7: a6 13        	ldx	$13                     ; 0x2013 <_ZN12_GLOBAL__N_112print_stringEPKcP6Status+0xeb>
     8b9: 8e 12 d1     	stx	$d112                   ; 0xd112 <__heap_start+0x732c>
     8bc: 8d 13 d1     	sta	$d113                   ; 0xd113 <__heap_start+0x732d>
     8bf: 9c 00 d1     	stz	$d100                   ; 0xd100 <__heap_start+0x731a>
     8c2: 9c 08 d1     	stz	$d108                   ; 0xd108 <__heap_start+0x7322>
     8c5: 9c 10 d1     	stz	$d110                   ; 0xd110 <__heap_start+0x732a>
     8c8: a2 10        	ldx	#$10
     8ca: 8e 00 d2     	stx	$d200                   ; 0xd200 <__heap_start+0x741a>
     8cd: 8e 0c d2     	stx	$d20c                   ; 0xd20c <__heap_start+0x7426>
     8d0: 8e 18 d2     	stx	$d218                   ; 0xd218 <__heap_start+0x7432>
     8d3: a0 d9        	ldy	#$d9
     8d5: a2 40        	ldx	#$40
     8d7: 64 12        	stz	$12                     ; 0x2012 <_ZN12_GLOBAL__N_112print_stringEPKcP6Status+0xea>
     8d9: 84 13        	sty	$13                     ; 0x2013 <_ZN12_GLOBAL__N_112print_stringEPKcP6Status+0xeb>
     8db: a9 00        	lda	#$0
     8dd: 92 12        	sta	($12)                   ; 0x2012 <_ZN12_GLOBAL__N_112print_stringEPKcP6Status+0xea>
     8df: ca           	dex
     8e0: 18           	clc
     8e1: a5 12        	lda	$12                     ; 0x2012 <_ZN12_GLOBAL__N_112print_stringEPKcP6Status+0xea>
     8e3: 69 08        	adc	#$8
     8e5: 85 12        	sta	$12                     ; 0x2012 <_ZN12_GLOBAL__N_112print_stringEPKcP6Status+0xea>
     8e7: 98           	tya
     8e8: 69 00        	adc	#$0
     8ea: a8           	tay
     8eb: 8a           	txa
     8ec: d0 eb        	bne	$8d9 <main+0x384>
     8ee: 18           	clc
     8ef: a5 10        	lda	$10                     ; 0x2010 <_ZN12_GLOBAL__N_112print_stringEPKcP6Status+0xe8>
     8f1: 69 5d        	adc	#$5d
     8f3: 85 2c        	sta	$2c                     ; 0x202c <_ZN12_GLOBAL__N_112print_stringEPKcP6Status+0x104>
     8f5: a5 11        	lda	$11                     ; 0x2011 <_ZN12_GLOBAL__N_112print_stringEPKcP6Status+0xe9>
     8f7: 69 00        	adc	#$0
     8f9: 85 2d        	sta	$2d                     ; 0x202d <_ZN12_GLOBAL__N_112print_stringEPKcP6Status+0x105>
     8fb: a6 2c        	ldx	$2c                     ; 0x202c <_ZN12_GLOBAL__N_112print_stringEPKcP6Status+0x104>
     8fd: 86 fb        	stx	$fb                     ; 0x20fb <printf+0xc6>
     8ff: 85 fc        	sta	$fc                     ; 0x20fc <printf+0xc7>
     901: a2 08        	ldx	#$8
     903: 86 fd        	stx	$fd                     ; 0x20fd <printf+0xc8>
     905: 18           	clc
     906: a5 10        	lda	$10                     ; 0x2010 <_ZN12_GLOBAL__N_112print_stringEPKcP6Status+0xe8>
     908: 69 1d        	adc	#$1d
     90a: 85 24        	sta	$24                     ; 0x2024 <_ZN12_GLOBAL__N_112print_stringEPKcP6Status+0xfc>
     90c: a5 11        	lda	$11                     ; 0x2011 <_ZN12_GLOBAL__N_112print_stringEPKcP6Status+0xe9>
     90e: 69 00        	adc	#$0
     910: 85 25        	sta	$25                     ; 0x2025 <_ZN12_GLOBAL__N_112print_stringEPKcP6Status+0xfd>
     912: a2 35        	ldx	#$35
     914: 86 12        	stx	$12                     ; 0x2012 <_ZN12_GLOBAL__N_112print_stringEPKcP6Status+0xea>
     916: a2 00        	ldx	#$0
     918: 86 13        	stx	$13                     ; 0x2013 <_ZN12_GLOBAL__N_112print_stringEPKcP6Status+0xeb>
     91a: a0 06        	ldy	#$6
     91c: 20 dc ff     	jsr	$ffdc <__heap_start+0xa1f6>
     91f: 92 24        	sta	($24)                   ; 0x2024 <_ZN12_GLOBAL__N_112print_stringEPKcP6Status+0xfc>
     921: a9 00        	lda	#$0
     923: 6a           	ror
     924: 85 12        	sta	$12                     ; 0x2012 <_ZN12_GLOBAL__N_112print_stringEPKcP6Status+0xea>
     926: b1 2c        	lda	($2c),y                 ; 0x202c <_ZN12_GLOBAL__N_112print_stringEPKcP6Status+0x104>
     928: 85 12        	sta	$12                     ; 0x2012 <_ZN12_GLOBAL__N_112print_stringEPKcP6Status+0xea>
     92a: c8           	iny
     92b: b1 2c        	lda	($2c),y                 ; 0x202c <_ZN12_GLOBAL__N_112print_stringEPKcP6Status+0x104>
     92d: a6 12        	ldx	$12                     ; 0x2012 <_ZN12_GLOBAL__N_112print_stringEPKcP6Status+0xea>
     92f: 8e 00 de     	stx	$de00                   ; 0xde00 <__heap_start+0x801a>
     932: 9c 01 de     	stz	$de01                   ; 0xde01 <__heap_start+0x801b>
     935: 8d 02 de     	sta	$de02                   ; 0xde02 <__heap_start+0x801c>
     938: 9c 03 de     	stz	$de03                   ; 0xde03 <__heap_start+0x801d>
     93b: ae 10 de     	ldx	$de10                   ; 0xde10 <__heap_start+0x802a>
     93e: ac 11 de     	ldy	$de11                   ; 0xde11 <__heap_start+0x802b>
     941: ad 12 de     	lda	$de12                   ; 0xde12 <__heap_start+0x802c>
     944: ad 13 de     	lda	$de13                   ; 0xde13 <__heap_start+0x802d>
     947: 8e a4 d6     	stx	$d6a4                   ; 0xd6a4 <__heap_start+0x78be>
     94a: 8c a5 d6     	sty	$d6a5                   ; 0xd6a5 <__heap_start+0x78bf>
     94d: a2 03        	ldx	#$3
     94f: 8e a6 d6     	stx	$d6a6                   ; 0xd6a6 <__heap_start+0x78c0>
     952: a6 fa        	ldx	$fa                     ; 0x20fa <printf+0xc5>
     954: 86 2f        	stx	$2f                     ; 0x202f <_ZN12_GLOBAL__N_112print_stringEPKcP6Status+0x107>
     956: a6 f8        	ldx	$f8                     ; 0x20f8 <printf+0xc3>
     958: a4 f9        	ldy	$f9                     ; 0x20f9 <printf+0xc4>
     95a: 86 29        	stx	$29                     ; 0x2029 <_ZN12_GLOBAL__N_112print_stringEPKcP6Status+0x101>
     95c: 86 2a        	stx	$2a                     ; 0x202a <_ZN12_GLOBAL__N_112print_stringEPKcP6Status+0x102>
     95e: 84 2e        	sty	$2e                     ; 0x202e <_ZN12_GLOBAL__N_112print_stringEPKcP6Status+0x106>
     960: 84 2b        	sty	$2b                     ; 0x202b <_ZN12_GLOBAL__N_112print_stringEPKcP6Status+0x103>
     962: a9 40        	lda	#$40
     964: a2 00        	ldx	#$0
     966: 20 fd 2b     	jsr	$2bfd <malloc>
     969: a5 12        	lda	$12                     ; 0x2012 <_ZN12_GLOBAL__N_112print_stringEPKcP6Status+0xea>
     96b: a0 11        	ldy	#$11
     96d: 91 10        	sta	($10),y                 ; 0x2010 <_ZN12_GLOBAL__N_112print_stringEPKcP6Status+0xe8>
     96f: a5 13        	lda	$13                     ; 0x2013 <_ZN12_GLOBAL__N_112print_stringEPKcP6Status+0xeb>
     971: c8           	iny
     972: 91 10        	sta	($10),y                 ; 0x2010 <_ZN12_GLOBAL__N_112print_stringEPKcP6Status+0xe8>
     974: 18           	clc
     975: a5 10        	lda	$10                     ; 0x2010 <_ZN12_GLOBAL__N_112print_stringEPKcP6Status+0xe8>
     977: 69 7b        	adc	#$7b
     979: 85 12        	sta	$12                     ; 0x2012 <_ZN12_GLOBAL__N_112print_stringEPKcP6Status+0xea>
     97b: a5 11        	lda	$11                     ; 0x2011 <_ZN12_GLOBAL__N_112print_stringEPKcP6Status+0xe9>
     97d: 69 20        	adc	#$20
     97f: 85 13        	sta	$13                     ; 0x2013 <_ZN12_GLOBAL__N_112print_stringEPKcP6Status+0xeb>
     981: a2 1e        	ldx	#$1e
     983: 64 14        	stz	$14                     ; 0x2014 <_ZN12_GLOBAL__N_112print_stringEPKcP6Status+0xec>
     985: a9 00        	lda	#$0
     987: 20 91 2f     	jsr	$2f91 <__memset>
     98a: a0 00        	ldy	#$0
     98c: 18           	clc
     98d: a5 10        	lda	$10                     ; 0x2010 <_ZN12_GLOBAL__N_112print_stringEPKcP6Status+0xe8>
     98f: 69 5d        	adc	#$5d
     991: 85 12        	sta	$12                     ; 0x2012 <_ZN12_GLOBAL__N_112print_stringEPKcP6Status+0xea>
     993: a5 11        	lda	$11                     ; 0x2011 <_ZN12_GLOBAL__N_112print_stringEPKcP6Status+0xe9>
     995: 69 20        	adc	#$20
     997: aa           	tax
     998: 85 13        	sta	$13                     ; 0x2013 <_ZN12_GLOBAL__N_112print_stringEPKcP6Status+0xeb>
     99a: 84 16        	sty	$16                     ; 0x2016 <_ZN12_GLOBAL__N_112print_stringEPKcP6Status+0xee>
     99c: 98           	tya
     99d: 18           	clc
     99e: 65 12        	adc	$12                     ; 0x2012 <_ZN12_GLOBAL__N_112print_stringEPKcP6Status+0xea>
     9a0: 85 14        	sta	$14                     ; 0x2014 <_ZN12_GLOBAL__N_112print_stringEPKcP6Status+0xec>
     9a2: 8a           	txa
     9a3: 69 00        	adc	#$0
     9a5: 85 15        	sta	$15                     ; 0x2015 <_ZN12_GLOBAL__N_112print_stringEPKcP6Status+0xed>
     9a7: a9 10        	lda	#$10
     9a9: 91 12        	sta	($12),y                 ; 0x2012 <_ZN12_GLOBAL__N_112print_stringEPKcP6Status+0xea>
     9ab: a9 00        	lda	#$0
     9ad: a0 01        	ldy	#$1
     9af: 91 14        	sta	($14),y                 ; 0x2014 <_ZN12_GLOBAL__N_112print_stringEPKcP6Status+0xec>
     9b1: a5 16        	lda	$16                     ; 0x2016 <_ZN12_GLOBAL__N_112print_stringEPKcP6Status+0xee>
     9b3: 18           	clc
     9b4: 69 02        	adc	#$2
     9b6: a8           	tay
     9b7: c9 1e        	cmp	#$1e
     9b9: d0 d1        	bne	$98c <main+0x437>
     9bb: a6 24        	ldx	$24                     ; 0x2024 <_ZN12_GLOBAL__N_112print_stringEPKcP6Status+0xfc>
     9bd: 86 12        	stx	$12                     ; 0x2012 <_ZN12_GLOBAL__N_112print_stringEPKcP6Status+0xea>
     9bf: a6 25        	ldx	$25                     ; 0x2025 <_ZN12_GLOBAL__N_112print_stringEPKcP6Status+0xfd>
     9c1: 86 13        	stx	$13                     ; 0x2013 <_ZN12_GLOBAL__N_112print_stringEPKcP6Status+0xeb>
     9c3: a2 40        	ldx	#$40
     9c5: 64 14        	stz	$14                     ; 0x2014 <_ZN12_GLOBAL__N_112print_stringEPKcP6Status+0xec>
     9c7: a9 00        	lda	#$0
     9c9: 20 91 2f     	jsr	$2f91 <__memset>
     9cc: 64 14        	stz	$14                     ; 0x2014 <_ZN12_GLOBAL__N_112print_stringEPKcP6Status+0xec>
     9ce: 64 01        	stz	$1                      ; 0x2001 <_ZN12_GLOBAL__N_112print_stringEPKcP6Status+0xd9>
     9d0: a2 2f        	ldx	#$2f
     9d2: 8e 00 d0     	stx	$d000                   ; 0xd000 <__heap_start+0x721a>
     9d5: a2 04        	ldx	#$4
     9d7: 8e 01 d0     	stx	$d001                   ; 0xd001 <__heap_start+0x721b>
     9da: a2 01        	ldx	#$1
     9dc: 8e 02 d0     	stx	$d002                   ; 0xd002 <__heap_start+0x721c>
     9df: a0 02        	ldy	#$2
     9e1: 8c 03 d0     	sty	$d003                   ; 0xd003 <__heap_start+0x721d>
     9e4: 9c 0d d0     	stz	$d00d                   ; 0xd00d <__heap_start+0x7227>
     9e7: 9c 0e d0     	stz	$d00e                   ; 0xd00e <__heap_start+0x7228>
     9ea: 9c 0f d0     	stz	$d00f                   ; 0xd00f <__heap_start+0x7229>
     9ed: 86 01        	stx	$1                      ; 0x2001 <_ZN12_GLOBAL__N_112print_stringEPKcP6Status+0xd9>
     9ef: a2 f0        	ldx	#$f0
     9f1: a5 14        	lda	$14                     ; 0x2014 <_ZN12_GLOBAL__N_112print_stringEPKcP6Status+0xec>
     9f3: 85 12        	sta	$12                     ; 0x2012 <_ZN12_GLOBAL__N_112print_stringEPKcP6Status+0xea>
     9f5: 86 13        	stx	$13                     ; 0x2013 <_ZN12_GLOBAL__N_112print_stringEPKcP6Status+0xeb>
     9f7: a4 0f        	ldy	$f                      ; 0x200f <_ZN12_GLOBAL__N_112print_stringEPKcP6Status+0xe7>
     9f9: 78           	sei
     9fa: a9 18        	lda	#$18
     9fc: 85 0f        	sta	$f                      ; 0x200f <_ZN12_GLOBAL__N_112print_stringEPKcP6Status+0xe7>
     9fe: b2 12        	lda	($12)                   ; 0x2012 <_ZN12_GLOBAL__N_112print_stringEPKcP6Status+0xea>
     a00: 85 15        	sta	$15                     ; 0x2015 <_ZN12_GLOBAL__N_112print_stringEPKcP6Status+0xed>
     a02: 84 0f        	sty	$f                      ; 0x200f <_ZN12_GLOBAL__N_112print_stringEPKcP6Status+0xe7>
     a04: a5 14        	lda	$14                     ; 0x2014 <_ZN12_GLOBAL__N_112print_stringEPKcP6Status+0xec>
     a06: 18           	clc
     a07: 69 00        	adc	#$0
     a09: 85 12        	sta	$12                     ; 0x2012 <_ZN12_GLOBAL__N_112print_stringEPKcP6Status+0xea>
     a0b: 8a           	txa
     a0c: 69 e0        	adc	#$e0
     a0e: 58           	cli
     a0f: 85 13        	sta	$13                     ; 0x2013 <_ZN12_GLOBAL__N_112print_stringEPKcP6Status+0xeb>
     a11: a5 15        	lda	$15                     ; 0x2015 <_ZN12_GLOBAL__N_112print_stringEPKcP6Status+0xed>
     a13: 92 12        	sta	($12)                   ; 0x2012 <_ZN12_GLOBAL__N_112print_stringEPKcP6Status+0xea>
     a15: e6 14        	inc	$14                     ; 0x2014 <_ZN12_GLOBAL__N_112print_stringEPKcP6Status+0xec>
     a17: d0 01        	bne	$a1a <main+0x4c5>
     a19: e8           	inx
     a1a: e0 f3        	cpx	#$f3
     a1c: d0 d3        	bne	$9f1 <main+0x49c>
     a1e: a4 14        	ldy	$14                     ; 0x2014 <_ZN12_GLOBAL__N_112print_stringEPKcP6Status+0xec>
     a20: c0 ff        	cpy	#$ff
     a22: d0 cd        	bne	$9f1 <main+0x49c>
     a24: 64 01        	stz	$1                      ; 0x2001 <_ZN12_GLOBAL__N_112print_stringEPKcP6Status+0xd9>
     a26: 9c d9 5d     	stz	$5dd9                   ; 0x5dd9 <__bss_start>
     a29: a2 14        	ldx	#$14
     a2b: 8e da 5d     	stx	$5dda                   ; 0x5dda <__bss_start+0x1>
     a2e: a0 03        	ldy	#$3
     a30: 8c db 5d     	sty	$5ddb                   ; 0x5ddb <__bss_start+0x2>
     a33: 9c dc 5d     	stz	$5ddc                   ; 0x5ddc <__bss_start+0x3>
     a36: 9c 01 d1     	stz	$d101                   ; 0xd101 <__heap_start+0x731b>
     a39: 8e 02 d1     	stx	$d102                   ; 0xd102 <__heap_start+0x731c>
     a3c: 8c 03 d1     	sty	$d103                   ; 0xd103 <__heap_start+0x731d>
     a3f: ad 00 d1     	lda	$d100                   ; 0xd100 <__heap_start+0x731a>
     a42: 29 f9        	and	#$f9
     a44: 8d 00 d1     	sta	$d100                   ; 0xd100 <__heap_start+0x731a>
     a47: a2 01        	ldx	#$1
     a49: 8e 00 d1     	stx	$d100                   ; 0xd100 <__heap_start+0x731a>
     a4c: 9c 08 d1     	stz	$d108                   ; 0xd108 <__heap_start+0x7322>
     a4f: 9c 10 d1     	stz	$d110                   ; 0xd110 <__heap_start+0x732a>
     a52: 20 c1 1b     	jsr	$1bc1 <setTextLUT1>
     a55: a0 00        	ldy	#$0
     a57: a2 03        	ldx	#$3
     a59: 86 01        	stx	$1                      ; 0x2001 <_ZN12_GLOBAL__N_112print_stringEPKcP6Status+0xd9>
     a5b: a9 c9        	lda	#$c9
     a5d: a2 10        	ldx	#$10
     a5f: 48           	pha
     a60: 8a           	txa
     a61: 5a           	phy
     a62: a0 1b        	ldy	#$1b
     a64: 91 10        	sta	($10),y                 ; 0x2010 <_ZN12_GLOBAL__N_112print_stringEPKcP6Status+0xe8>
     a66: 7a           	ply
     a67: 68           	pla
     a68: a2 00        	ldx	#$0
     a6a: 84 14        	sty	$14                     ; 0x2014 <_ZN12_GLOBAL__N_112print_stringEPKcP6Status+0xec>
     a6c: 85 13        	sta	$13                     ; 0x2013 <_ZN12_GLOBAL__N_112print_stringEPKcP6Status+0xeb>
     a6e: 98           	tya
     a6f: 0a           	asl
     a70: 0a           	asl
     a71: 85 12        	sta	$12                     ; 0x2012 <_ZN12_GLOBAL__N_112print_stringEPKcP6Status+0xea>
     a73: 0a           	asl
     a74: 18           	clc
     a75: 65 12        	adc	$12                     ; 0x2012 <_ZN12_GLOBAL__N_112print_stringEPKcP6Status+0xea>
     a77: 18           	clc
     a78: 69 0f        	adc	#$f
     a7a: a0 50        	ldy	#$50
     a7c: 48           	pha
     a7d: 5a           	phy
     a7e: a0 1b        	ldy	#$1b
     a80: b1 10        	lda	($10),y                 ; 0x2010 <_ZN12_GLOBAL__N_112print_stringEPKcP6Status+0xe8>
     a82: 7a           	ply
     a83: 85 12        	sta	$12                     ; 0x2012 <_ZN12_GLOBAL__N_112print_stringEPKcP6Status+0xea>
     a85: 68           	pla
     a86: 5a           	phy
     a87: a4 12        	ldy	$12                     ; 0x2012 <_ZN12_GLOBAL__N_112print_stringEPKcP6Status+0xea>
     a89: 84 16        	sty	$16                     ; 0x2016 <_ZN12_GLOBAL__N_112print_stringEPKcP6Status+0xee>
     a8b: a4 13        	ldy	$13                     ; 0x2013 <_ZN12_GLOBAL__N_112print_stringEPKcP6Status+0xeb>
     a8d: 84 15        	sty	$15                     ; 0x2015 <_ZN12_GLOBAL__N_112print_stringEPKcP6Status+0xed>
     a8f: 7a           	ply
     a90: 92 12        	sta	($12)                   ; 0x2012 <_ZN12_GLOBAL__N_112print_stringEPKcP6Status+0xea>
     a92: 88           	dey
     a93: e6 12        	inc	$12                     ; 0x2012 <_ZN12_GLOBAL__N_112print_stringEPKcP6Status+0xea>
     a95: d0 02        	bne	$a99 <main+0x544>
     a97: e6 13        	inc	$13                     ; 0x2013 <_ZN12_GLOBAL__N_112print_stringEPKcP6Status+0xeb>
     a99: c0 00        	cpy	#$0
     a9b: d0 f3        	bne	$a90 <main+0x53b>
     a9d: a4 14        	ldy	$14                     ; 0x2014 <_ZN12_GLOBAL__N_112print_stringEPKcP6Status+0xec>
     a9f: c8           	iny
     aa0: d0 01        	bne	$aa3 <main+0x54e>
     aa2: e8           	inx
     aa3: 18           	clc
     aa4: a5 16        	lda	$16                     ; 0x2016 <_ZN12_GLOBAL__N_112print_stringEPKcP6Status+0xee>
     aa6: 69 b0        	adc	#$b0
     aa8: 5a           	phy
     aa9: a0 1b        	ldy	#$1b
     aab: 91 10        	sta	($10),y                 ; 0x2010 <_ZN12_GLOBAL__N_112print_stringEPKcP6Status+0xe8>
     aad: 7a           	ply
     aae: a5 15        	lda	$15                     ; 0x2015 <_ZN12_GLOBAL__N_112print_stringEPKcP6Status+0xed>
     ab0: 69 ff        	adc	#$ff
     ab2: e0 00        	cpx	#$0
     ab4: f0 03        	beq	$ab9 <main+0x564>
     ab6: 4c 6a 0a     	jmp	$a6a <main+0x515>
     ab9: c0 14        	cpy	#$14
     abb: f0 03        	beq	$ac0 <main+0x56b>
     abd: 4c 6a 0a     	jmp	$a6a <main+0x515>
     ac0: 64 01        	stz	$1                      ; 0x2001 <_ZN12_GLOBAL__N_112print_stringEPKcP6Status+0xd9>
     ac2: ad a7 d6     	lda	$d6a7                   ; 0xd6a7 <__heap_start+0x78c1>
     ac5: 29 3f        	and	#$3f
     ac7: c9 11        	cmp	#$11
     ac9: f0 07        	beq	$ad2 <main+0x57d>
     acb: c9 22        	cmp	#$22
     acd: f0 03        	beq	$ad2 <main+0x57d>
     acf: 4c 61 0d     	jmp	$d61 <main+0x80c>
     ad2: ad a7 d6     	lda	$d6a7                   ; 0xd6a7 <__heap_start+0x78c1>
     ad5: 29 1f        	and	#$1f
     ad7: a0 13        	ldy	#$13
     ad9: 91 10        	sta	($10),y                 ; 0x2010 <_ZN12_GLOBAL__N_112print_stringEPKcP6Status+0xe8>
     adb: c9 11        	cmp	#$11
     add: f0 03        	beq	$ae2 <main+0x58d>
     adf: 4c 1c 0c     	jmp	$c1c <main+0x6c7>
     ae2: a2 2a        	ldx	#$2a
     ae4: 8e 40 dd     	stx	$dd40                   ; 0xdd40 <__heap_start+0x7f5a>
     ae7: 64 14        	stz	$14                     ; 0x2014 <_ZN12_GLOBAL__N_112print_stringEPKcP6Status+0xec>
     ae9: 9c 41 dd     	stz	$dd41                   ; 0xdd41 <__heap_start+0x7f5b>
     aec: 9c 41 dd     	stz	$dd41                   ; 0xdd41 <__heap_start+0x7f5b>
     aef: 9c 41 dd     	stz	$dd41                   ; 0xdd41 <__heap_start+0x7f5b>
     af2: a2 ef        	ldx	#$ef
     af4: 8e 41 dd     	stx	$dd41                   ; 0xdd41 <__heap_start+0x7f5b>
     af7: a2 2b        	ldx	#$2b
     af9: 8e 40 dd     	stx	$dd40                   ; 0xdd40 <__heap_start+0x7f5a>
     afc: 9c 41 dd     	stz	$dd41                   ; 0xdd41 <__heap_start+0x7f5b>
     aff: a2 14        	ldx	#$14
     b01: 8e 41 dd     	stx	$dd41                   ; 0xdd41 <__heap_start+0x7f5b>
     b04: a2 01        	ldx	#$1
     b06: 8e 41 dd     	stx	$dd41                   ; 0xdd41 <__heap_start+0x7f5b>
     b09: a2 3f        	ldx	#$3f
     b0b: 8e 41 dd     	stx	$dd41                   ; 0xdd41 <__heap_start+0x7f5b>
     b0e: a2 2c        	ldx	#$2c
     b10: 8e 40 dd     	stx	$dd40                   ; 0xdd40 <__heap_start+0x7f5a>
     b13: 64 17        	stz	$17                     ; 0x2017 <_ZN12_GLOBAL__N_112print_stringEPKcP6Status+0xef>
     b15: 64 15        	stz	$15                     ; 0x2015 <_ZN12_GLOBAL__N_112print_stringEPKcP6Status+0xed>
     b17: a9 00        	lda	#$0
     b19: a8           	tay
     b1a: aa           	tax
     b1b: 64 13        	stz	$13                     ; 0x2013 <_ZN12_GLOBAL__N_112print_stringEPKcP6Status+0xeb>
     b1d: 64 12        	stz	$12                     ; 0x2012 <_ZN12_GLOBAL__N_112print_stringEPKcP6Status+0xea>
     b1f: 86 18        	stx	$18                     ; 0x2018 <_ZN12_GLOBAL__N_112print_stringEPKcP6Status+0xf0>
     b21: 84 16        	sty	$16                     ; 0x2016 <_ZN12_GLOBAL__N_112print_stringEPKcP6Status+0xee>
     b23: a2 f0        	ldx	#$f0
     b25: a4 17        	ldy	$17                     ; 0x2017 <_ZN12_GLOBAL__N_112print_stringEPKcP6Status+0xef>
     b27: 85 1e        	sta	$1e                     ; 0x201e <_ZN12_GLOBAL__N_112print_stringEPKcP6Status+0xf6>
     b29: a5 15        	lda	$15                     ; 0x2015 <_ZN12_GLOBAL__N_112print_stringEPKcP6Status+0xed>
     b2b: 85 1f        	sta	$1f                     ; 0x201f <_ZN12_GLOBAL__N_112print_stringEPKcP6Status+0xf7>
     b2d: a5 15        	lda	$15                     ; 0x2015 <_ZN12_GLOBAL__N_112print_stringEPKcP6Status+0xed>
     b2f: 85 17        	sta	$17                     ; 0x2017 <_ZN12_GLOBAL__N_112print_stringEPKcP6Status+0xef>
     b31: 84 22        	sty	$22                     ; 0x2022 <_ZN12_GLOBAL__N_112print_stringEPKcP6Status+0xfa>
     b33: 84 1a        	sty	$1a                     ; 0x201a <_ZN12_GLOBAL__N_112print_stringEPKcP6Status+0xf2>
     b35: a4 14        	ldy	$14                     ; 0x2014 <_ZN12_GLOBAL__N_112print_stringEPKcP6Status+0xec>
     b37: 84 1b        	sty	$1b                     ; 0x201b <_ZN12_GLOBAL__N_112print_stringEPKcP6Status+0xf3>
     b39: 84 1d        	sty	$1d                     ; 0x201d <_ZN12_GLOBAL__N_112print_stringEPKcP6Status+0xf5>
     b3b: 98           	tya
     b3c: 18           	clc
     b3d: 69 00        	adc	#$0
     b3f: a5 1a        	lda	$1a                     ; 0x201a <_ZN12_GLOBAL__N_112print_stringEPKcP6Status+0xf2>
     b41: 69 00        	adc	#$0
     b43: 85 14        	sta	$14                     ; 0x2014 <_ZN12_GLOBAL__N_112print_stringEPKcP6Status+0xec>
     b45: a5 15        	lda	$15                     ; 0x2015 <_ZN12_GLOBAL__N_112print_stringEPKcP6Status+0xed>
     b47: 69 01        	adc	#$1
     b49: 06 14        	asl	$14                     ; 0x2014 <_ZN12_GLOBAL__N_112print_stringEPKcP6Status+0xec>
     b4b: 2a           	rol
     b4c: 06 14        	asl	$14                     ; 0x2014 <_ZN12_GLOBAL__N_112print_stringEPKcP6Status+0xec>
     b4e: 2a           	rol
     b4f: a4 0f        	ldy	$f                      ; 0x200f <_ZN12_GLOBAL__N_112print_stringEPKcP6Status+0xe7>
     b51: 78           	sei
     b52: 06 14        	asl	$14                     ; 0x2014 <_ZN12_GLOBAL__N_112print_stringEPKcP6Status+0xec>
     b54: 2a           	rol
     b55: 85 0f        	sta	$f                      ; 0x200f <_ZN12_GLOBAL__N_112print_stringEPKcP6Status+0xe7>
     b57: a5 1a        	lda	$1a                     ; 0x201a <_ZN12_GLOBAL__N_112print_stringEPKcP6Status+0xf2>
     b59: 09 e0        	ora	#$e0
     b5b: 5a           	phy
     b5c: a4 1b        	ldy	$1b                     ; 0x201b <_ZN12_GLOBAL__N_112print_stringEPKcP6Status+0xf3>
     b5e: 84 14        	sty	$14                     ; 0x2014 <_ZN12_GLOBAL__N_112print_stringEPKcP6Status+0xec>
     b60: 7a           	ply
     b61: 85 15        	sta	$15                     ; 0x2015 <_ZN12_GLOBAL__N_112print_stringEPKcP6Status+0xed>
     b63: b2 14        	lda	($14)                   ; 0x2014 <_ZN12_GLOBAL__N_112print_stringEPKcP6Status+0xec>
     b65: 84 0f        	sty	$f                      ; 0x200f <_ZN12_GLOBAL__N_112print_stringEPKcP6Status+0xe7>
     b67: 58           	cli
     b68: 8d 42 dd     	sta	$dd42                   ; 0xdd42 <__heap_start+0x7f5c>
     b6b: a5 1b        	lda	$1b                     ; 0x201b <_ZN12_GLOBAL__N_112print_stringEPKcP6Status+0xf3>
     b6d: 18           	clc
     b6e: 69 01        	adc	#$1
     b70: a5 1a        	lda	$1a                     ; 0x201a <_ZN12_GLOBAL__N_112print_stringEPKcP6Status+0xf2>
     b72: 69 00        	adc	#$0
     b74: 85 14        	sta	$14                     ; 0x2014 <_ZN12_GLOBAL__N_112print_stringEPKcP6Status+0xec>
     b76: a5 17        	lda	$17                     ; 0x2017 <_ZN12_GLOBAL__N_112print_stringEPKcP6Status+0xef>
     b78: 69 01        	adc	#$1
     b7a: 06 14        	asl	$14                     ; 0x2014 <_ZN12_GLOBAL__N_112print_stringEPKcP6Status+0xec>
     b7c: 2a           	rol
     b7d: 06 14        	asl	$14                     ; 0x2014 <_ZN12_GLOBAL__N_112print_stringEPKcP6Status+0xec>
     b7f: 2a           	rol
     b80: a4 1e        	ldy	$1e                     ; 0x201e <_ZN12_GLOBAL__N_112print_stringEPKcP6Status+0xf6>
     b82: 84 23        	sty	$23                     ; 0x2023 <_ZN12_GLOBAL__N_112print_stringEPKcP6Status+0xfb>
     b84: 06 14        	asl	$14                     ; 0x2014 <_ZN12_GLOBAL__N_112print_stringEPKcP6Status+0xec>
     b86: 2a           	rol
     b87: a4 0f        	ldy	$f                      ; 0x200f <_ZN12_GLOBAL__N_112print_stringEPKcP6Status+0xe7>
     b89: 78           	sei
     b8a: 85 0f        	sta	$f                      ; 0x200f <_ZN12_GLOBAL__N_112print_stringEPKcP6Status+0xe7>
     b8c: a5 1b        	lda	$1b                     ; 0x201b <_ZN12_GLOBAL__N_112print_stringEPKcP6Status+0xf3>
     b8e: 85 14        	sta	$14                     ; 0x2014 <_ZN12_GLOBAL__N_112print_stringEPKcP6Status+0xec>
     b90: a5 1a        	lda	$1a                     ; 0x201a <_ZN12_GLOBAL__N_112print_stringEPKcP6Status+0xf2>
     b92: e6 14        	inc	$14                     ; 0x2014 <_ZN12_GLOBAL__N_112print_stringEPKcP6Status+0xec>
     b94: d0 01        	bne	$b97 <main+0x642>
     b96: 1a           	inc
     b97: 09 e0        	ora	#$e0
     b99: 85 15        	sta	$15                     ; 0x2015 <_ZN12_GLOBAL__N_112print_stringEPKcP6Status+0xed>
     b9b: b2 14        	lda	($14)                   ; 0x2014 <_ZN12_GLOBAL__N_112print_stringEPKcP6Status+0xec>
     b9d: 84 0f        	sty	$f                      ; 0x200f <_ZN12_GLOBAL__N_112print_stringEPKcP6Status+0xe7>
     b9f: 58           	cli
     ba0: 8d 43 dd     	sta	$dd43                   ; 0xdd43 <__heap_start+0x7f5d>
     ba3: a5 1d        	lda	$1d                     ; 0x201d <_ZN12_GLOBAL__N_112print_stringEPKcP6Status+0xf5>
     ba5: ca           	dex
     ba6: 18           	clc
     ba7: 69 02        	adc	#$2
     ba9: 85 14        	sta	$14                     ; 0x2014 <_ZN12_GLOBAL__N_112print_stringEPKcP6Status+0xec>
     bab: a5 22        	lda	$22                     ; 0x2022 <_ZN12_GLOBAL__N_112print_stringEPKcP6Status+0xfa>
     bad: 69 00        	adc	#$0
     baf: a8           	tay
     bb0: a5 1f        	lda	$1f                     ; 0x201f <_ZN12_GLOBAL__N_112print_stringEPKcP6Status+0xf7>
     bb2: 69 00        	adc	#$0
     bb4: 85 15        	sta	$15                     ; 0x2015 <_ZN12_GLOBAL__N_112print_stringEPKcP6Status+0xed>
     bb6: a5 1e        	lda	$1e                     ; 0x201e <_ZN12_GLOBAL__N_112print_stringEPKcP6Status+0xf6>
     bb8: 69 00        	adc	#$0
     bba: 85 1e        	sta	$1e                     ; 0x201e <_ZN12_GLOBAL__N_112print_stringEPKcP6Status+0xf6>
     bbc: 8a           	txa
     bbd: f0 03        	beq	$bc2 <main+0x66d>
     bbf: 4c 29 0b     	jmp	$b29 <main+0x5d4>
     bc2: a6 17        	ldx	$17                     ; 0x2017 <_ZN12_GLOBAL__N_112print_stringEPKcP6Status+0xef>
     bc4: 86 19        	stx	$19                     ; 0x2019 <_ZN12_GLOBAL__N_112print_stringEPKcP6Status+0xf1>
     bc6: 18           	clc
     bc7: a5 1b        	lda	$1b                     ; 0x201b <_ZN12_GLOBAL__N_112print_stringEPKcP6Status+0xf3>
     bc9: 69 02        	adc	#$2
     bcb: 85 14        	sta	$14                     ; 0x2014 <_ZN12_GLOBAL__N_112print_stringEPKcP6Status+0xec>
     bcd: a5 1a        	lda	$1a                     ; 0x201a <_ZN12_GLOBAL__N_112print_stringEPKcP6Status+0xf2>
     bcf: 69 00        	adc	#$0
     bd1: 85 17        	sta	$17                     ; 0x2017 <_ZN12_GLOBAL__N_112print_stringEPKcP6Status+0xef>
     bd3: a5 19        	lda	$19                     ; 0x2019 <_ZN12_GLOBAL__N_112print_stringEPKcP6Status+0xf1>
     bd5: 69 00        	adc	#$0
     bd7: 85 15        	sta	$15                     ; 0x2015 <_ZN12_GLOBAL__N_112print_stringEPKcP6Status+0xed>
     bd9: a5 23        	lda	$23                     ; 0x2023 <_ZN12_GLOBAL__N_112print_stringEPKcP6Status+0xfb>
     bdb: 69 00        	adc	#$0
     bdd: a6 18        	ldx	$18                     ; 0x2018 <_ZN12_GLOBAL__N_112print_stringEPKcP6Status+0xf0>
     bdf: a4 16        	ldy	$16                     ; 0x2016 <_ZN12_GLOBAL__N_112print_stringEPKcP6Status+0xee>
     be1: c8           	iny
     be2: d0 09        	bne	$bed <main+0x698>
     be4: e8           	inx
     be5: d0 06        	bne	$bed <main+0x698>
     be7: e6 13        	inc	$13                     ; 0x2013 <_ZN12_GLOBAL__N_112print_stringEPKcP6Status+0xeb>
     be9: d0 02        	bne	$bed <main+0x698>
     beb: e6 12        	inc	$12                     ; 0x2012 <_ZN12_GLOBAL__N_112print_stringEPKcP6Status+0xea>
     bed: e6 12        	inc	$12                     ; 0x2012 <_ZN12_GLOBAL__N_112print_stringEPKcP6Status+0xea>
     bef: c6 12        	dec	$12                     ; 0x2012 <_ZN12_GLOBAL__N_112print_stringEPKcP6Status+0xea>
     bf1: f0 03        	beq	$bf6 <main+0x6a1>
     bf3: 4c 1f 0b     	jmp	$b1f <main+0x5ca>
     bf6: e6 13        	inc	$13                     ; 0x2013 <_ZN12_GLOBAL__N_112print_stringEPKcP6Status+0xeb>
     bf8: c6 13        	dec	$13                     ; 0x2013 <_ZN12_GLOBAL__N_112print_stringEPKcP6Status+0xeb>
     bfa: f0 03        	beq	$bff <main+0x6aa>
     bfc: 4c 1f 0b     	jmp	$b1f <main+0x5ca>
     bff: e0 01        	cpx	#$1
     c01: f0 03        	beq	$c06 <main+0x6b1>
     c03: 4c 1f 0b     	jmp	$b1f <main+0x5ca>
     c06: c0 18        	cpy	#$18
     c08: f0 03        	beq	$c0d <main+0x6b8>
     c0a: 4c 1f 0b     	jmp	$b1f <main+0x5ca>
     c0d: a2 36        	ldx	#$36
     c0f: 8e 40 dd     	stx	$dd40                   ; 0xdd40 <__heap_start+0x7f5a>
     c12: a2 80        	ldx	#$80
     c14: 8e 41 dd     	stx	$dd41                   ; 0xdd41 <__heap_start+0x7f5b>
     c17: a2 2c        	ldx	#$2c
     c19: 8e 40 dd     	stx	$dd40                   ; 0xdd40 <__heap_start+0x7f5a>
     c1c: a6 2f        	ldx	$2f                     ; 0x202f <_ZN12_GLOBAL__N_112print_stringEPKcP6Status+0x107>
     c1e: e0 04        	cpx	#$4
     c20: b0 03        	bcs	$c25 <main+0x6d0>
     c22: 4c 29 0d     	jmp	$d29 <main+0x7d4>
     c25: a0 02        	ldy	#$2
     c27: 18           	clc
     c28: a5 29        	lda	$29                     ; 0x2029 <_ZN12_GLOBAL__N_112print_stringEPKcP6Status+0x101>
     c2a: 69 02        	adc	#$2
     c2c: 85 12        	sta	$12                     ; 0x2012 <_ZN12_GLOBAL__N_112print_stringEPKcP6Status+0xea>
     c2e: a5 2e        	lda	$2e                     ; 0x202e <_ZN12_GLOBAL__N_112print_stringEPKcP6Status+0x106>
     c30: 69 00        	adc	#$0
     c32: a6 12        	ldx	$12                     ; 0x2012 <_ZN12_GLOBAL__N_112print_stringEPKcP6Status+0xea>
     c34: 85 14        	sta	$14                     ; 0x2014 <_ZN12_GLOBAL__N_112print_stringEPKcP6Status+0xec>
     c36: 85 13        	sta	$13                     ; 0x2013 <_ZN12_GLOBAL__N_112print_stringEPKcP6Status+0xeb>
     c38: b1 2a        	lda	($2a),y                 ; 0x202a <_ZN12_GLOBAL__N_112print_stringEPKcP6Status+0x102>
     c3a: 85 15        	sta	$15                     ; 0x2015 <_ZN12_GLOBAL__N_112print_stringEPKcP6Status+0xed>
     c3c: 88           	dey
     c3d: b1 12        	lda	($12),y                 ; 0x2012 <_ZN12_GLOBAL__N_112print_stringEPKcP6Status+0xea>
     c3f: 5a           	phy
     c40: a4 15        	ldy	$15                     ; 0x2015 <_ZN12_GLOBAL__N_112print_stringEPKcP6Status+0xed>
     c42: 84 12        	sty	$12                     ; 0x2012 <_ZN12_GLOBAL__N_112print_stringEPKcP6Status+0xea>
     c44: 7a           	ply
     c45: 85 13        	sta	$13                     ; 0x2013 <_ZN12_GLOBAL__N_112print_stringEPKcP6Status+0xeb>
     c47: b2 12        	lda	($12)                   ; 0x2012 <_ZN12_GLOBAL__N_112print_stringEPKcP6Status+0xea>
     c49: 64 15        	stz	$15                     ; 0x2015 <_ZN12_GLOBAL__N_112print_stringEPKcP6Status+0xed>
     c4b: 64 17        	stz	$17                     ; 0x2017 <_ZN12_GLOBAL__N_112print_stringEPKcP6Status+0xef>
     c4d: 48           	pha
     c4e: 5a           	phy
     c4f: a0 11        	ldy	#$11
     c51: b1 10        	lda	($10),y                 ; 0x2010 <_ZN12_GLOBAL__N_112print_stringEPKcP6Status+0xe8>
     c53: 85 26        	sta	$26                     ; 0x2026 <_ZN12_GLOBAL__N_112print_stringEPKcP6Status+0xfe>
     c55: c8           	iny
     c56: b1 10        	lda	($10),y                 ; 0x2010 <_ZN12_GLOBAL__N_112print_stringEPKcP6Status+0xe8>
     c58: 7a           	ply
     c59: 85 27        	sta	$27                     ; 0x2027 <_ZN12_GLOBAL__N_112print_stringEPKcP6Status+0xff>
     c5b: 68           	pla
     c5c: d0 03        	bne	$c61 <main+0x70c>
     c5e: 4c bf 0c     	jmp	$cbf <main+0x76a>
     c61: 85 18        	sta	$18                     ; 0x2018 <_ZN12_GLOBAL__N_112print_stringEPKcP6Status+0xf0>
     c63: 64 16        	stz	$16                     ; 0x2016 <_ZN12_GLOBAL__N_112print_stringEPKcP6Status+0xee>
     c65: 64 1a        	stz	$1a                     ; 0x201a <_ZN12_GLOBAL__N_112print_stringEPKcP6Status+0xf2>
     c67: a4 16        	ldy	$16                     ; 0x2016 <_ZN12_GLOBAL__N_112print_stringEPKcP6Status+0xee>
     c69: 84 19        	sty	$19                     ; 0x2019 <_ZN12_GLOBAL__N_112print_stringEPKcP6Status+0xf1>
     c6b: a5 16        	lda	$16                     ; 0x2016 <_ZN12_GLOBAL__N_112print_stringEPKcP6Status+0xee>
     c6d: 18           	clc
     c6e: 65 26        	adc	$26                     ; 0x2026 <_ZN12_GLOBAL__N_112print_stringEPKcP6Status+0xfe>
     c70: 85 12        	sta	$12                     ; 0x2012 <_ZN12_GLOBAL__N_112print_stringEPKcP6Status+0xea>
     c72: a5 1a        	lda	$1a                     ; 0x201a <_ZN12_GLOBAL__N_112print_stringEPKcP6Status+0xf2>
     c74: 65 27        	adc	$27                     ; 0x2027 <_ZN12_GLOBAL__N_112print_stringEPKcP6Status+0xff>
     c76: 85 13        	sta	$13                     ; 0x2013 <_ZN12_GLOBAL__N_112print_stringEPKcP6Status+0xeb>
     c78: a5 18        	lda	$18                     ; 0x2018 <_ZN12_GLOBAL__N_112print_stringEPKcP6Status+0xf0>
     c7a: 92 12        	sta	($12)                   ; 0x2012 <_ZN12_GLOBAL__N_112print_stringEPKcP6Status+0xea>
     c7c: a4 15        	ldy	$15                     ; 0x2015 <_ZN12_GLOBAL__N_112print_stringEPKcP6Status+0xed>
     c7e: 84 16        	sty	$16                     ; 0x2016 <_ZN12_GLOBAL__N_112print_stringEPKcP6Status+0xee>
     c80: a4 17        	ldy	$17                     ; 0x2017 <_ZN12_GLOBAL__N_112print_stringEPKcP6Status+0xef>
     c82: 84 18        	sty	$18                     ; 0x2018 <_ZN12_GLOBAL__N_112print_stringEPKcP6Status+0xf0>
     c84: e6 16        	inc	$16                     ; 0x2016 <_ZN12_GLOBAL__N_112print_stringEPKcP6Status+0xee>
     c86: d0 02        	bne	$c8a <main+0x735>
     c88: e6 18        	inc	$18                     ; 0x2018 <_ZN12_GLOBAL__N_112print_stringEPKcP6Status+0xf0>
     c8a: 86 12        	stx	$12                     ; 0x2012 <_ZN12_GLOBAL__N_112print_stringEPKcP6Status+0xea>
     c8c: a4 14        	ldy	$14                     ; 0x2014 <_ZN12_GLOBAL__N_112print_stringEPKcP6Status+0xec>
     c8e: 84 13        	sty	$13                     ; 0x2013 <_ZN12_GLOBAL__N_112print_stringEPKcP6Status+0xeb>
     c90: 18           	clc
     c91: a0 02        	ldy	#$2
     c93: a5 19        	lda	$19                     ; 0x2019 <_ZN12_GLOBAL__N_112print_stringEPKcP6Status+0xf1>
     c95: 71 2a        	adc	($2a),y                 ; 0x202a <_ZN12_GLOBAL__N_112print_stringEPKcP6Status+0x102>
     c97: 85 15        	sta	$15                     ; 0x2015 <_ZN12_GLOBAL__N_112print_stringEPKcP6Status+0xed>
     c99: 88           	dey
     c9a: a5 1a        	lda	$1a                     ; 0x201a <_ZN12_GLOBAL__N_112print_stringEPKcP6Status+0xf2>
     c9c: 71 12        	adc	($12),y                 ; 0x2012 <_ZN12_GLOBAL__N_112print_stringEPKcP6Status+0xea>
     c9e: 5a           	phy
     c9f: a4 15        	ldy	$15                     ; 0x2015 <_ZN12_GLOBAL__N_112print_stringEPKcP6Status+0xed>
     ca1: 84 12        	sty	$12                     ; 0x2012 <_ZN12_GLOBAL__N_112print_stringEPKcP6Status+0xea>
     ca3: 7a           	ply
     ca4: 85 13        	sta	$13                     ; 0x2013 <_ZN12_GLOBAL__N_112print_stringEPKcP6Status+0xeb>
     ca6: b1 12        	lda	($12),y                 ; 0x2012 <_ZN12_GLOBAL__N_112print_stringEPKcP6Status+0xea>
     ca8: 5a           	phy
     ca9: a4 16        	ldy	$16                     ; 0x2016 <_ZN12_GLOBAL__N_112print_stringEPKcP6Status+0xee>
     cab: 84 15        	sty	$15                     ; 0x2015 <_ZN12_GLOBAL__N_112print_stringEPKcP6Status+0xed>
     cad: a4 18        	ldy	$18                     ; 0x2018 <_ZN12_GLOBAL__N_112print_stringEPKcP6Status+0xf0>
     caf: 84 17        	sty	$17                     ; 0x2017 <_ZN12_GLOBAL__N_112print_stringEPKcP6Status+0xef>
     cb1: a4 18        	ldy	$18                     ; 0x2018 <_ZN12_GLOBAL__N_112print_stringEPKcP6Status+0xf0>
     cb3: 84 1a        	sty	$1a                     ; 0x201a <_ZN12_GLOBAL__N_112print_stringEPKcP6Status+0xf2>
     cb5: 7a           	ply
     cb6: 85 18        	sta	$18                     ; 0x2018 <_ZN12_GLOBAL__N_112print_stringEPKcP6Status+0xf0>
     cb8: c9 00        	cmp	#$0
     cba: f0 03        	beq	$cbf <main+0x76a>
     cbc: 4c 67 0c     	jmp	$c67 <main+0x712>
     cbf: 18           	clc
     cc0: a5 15        	lda	$15                     ; 0x2015 <_ZN12_GLOBAL__N_112print_stringEPKcP6Status+0xed>
     cc2: 65 26        	adc	$26                     ; 0x2026 <_ZN12_GLOBAL__N_112print_stringEPKcP6Status+0xfe>
     cc4: 85 12        	sta	$12                     ; 0x2012 <_ZN12_GLOBAL__N_112print_stringEPKcP6Status+0xea>
     cc6: a5 17        	lda	$17                     ; 0x2017 <_ZN12_GLOBAL__N_112print_stringEPKcP6Status+0xef>
     cc8: 65 27        	adc	$27                     ; 0x2027 <_ZN12_GLOBAL__N_112print_stringEPKcP6Status+0xff>
     cca: 85 13        	sta	$13                     ; 0x2013 <_ZN12_GLOBAL__N_112print_stringEPKcP6Status+0xeb>
     ccc: a9 00        	lda	#$0
     cce: 92 12        	sta	($12)                   ; 0x2012 <_ZN12_GLOBAL__N_112print_stringEPKcP6Status+0xea>
     cd0: a2 1f        	ldx	#$1f
     cd2: 8e 20 d6     	stx	$d620                   ; 0xd620 <__heap_start+0x783a>
     cd5: a2 2a        	ldx	#$2a
     cd7: 8e 21 d6     	stx	$d621                   ; 0xd621 <__heap_start+0x783b>
     cda: 8c 22 d6     	sty	$d622                   ; 0xd622 <__heap_start+0x783c>
     cdd: ad 22 d6     	lda	$d622                   ; 0xd622 <__heap_start+0x783c>
     ce0: 29 01        	and	#$1
     ce2: 29 01        	and	#$1
     ce4: d0 f7        	bne	$cdd <main+0x788>
     ce6: a2 03        	ldx	#$3
     ce8: 8e 01 d7     	stx	$d701                   ; 0xd701 <__heap_start+0x791b>
     ceb: 9c 02 d7     	stz	$d702                   ; 0xd702 <__heap_start+0x791c>
     cee: 9c 02 d7     	stz	$d702                   ; 0xd702 <__heap_start+0x791c>
     cf1: a2 e0        	ldx	#$e0
     cf3: 8e 03 d7     	stx	$d703                   ; 0xd703 <__heap_start+0x791d>
     cf6: a2 01        	ldx	#$1
     cf8: 8e 00 d7     	stx	$d700                   ; 0xd700 <__heap_start+0x791a>
     cfb: 9c 00 d7     	stz	$d700                   ; 0xd700 <__heap_start+0x791a>
     cfe: ae 00 d7     	ldx	$d700                   ; 0xd700 <__heap_start+0x791a>
     d01: 30 fb        	bmi	$cfe <main+0x7a9>
     d03: a9 e8        	lda	#$e8
     d05: a2 03        	ldx	#$3
     d07: a0 09        	ldy	#$9
     d09: 84 12        	sty	$12                     ; 0x2012 <_ZN12_GLOBAL__N_112print_stringEPKcP6Status+0xea>
     d0b: a0 56        	ldy	#$56
     d0d: 84 13        	sty	$13                     ; 0x2013 <_ZN12_GLOBAL__N_112print_stringEPKcP6Status+0xeb>
     d0f: 20 d4 1c     	jsr	$1cd4 <initVS1053Plugin>
     d12: a6 26        	ldx	$26                     ; 0x2026 <_ZN12_GLOBAL__N_112print_stringEPKcP6Status+0xfe>
     d14: 86 12        	stx	$12                     ; 0x2012 <_ZN12_GLOBAL__N_112print_stringEPKcP6Status+0xea>
     d16: a6 27        	ldx	$27                     ; 0x2027 <_ZN12_GLOBAL__N_112print_stringEPKcP6Status+0xff>
     d18: 86 13        	stx	$13                     ; 0x2013 <_ZN12_GLOBAL__N_112print_stringEPKcP6Status+0xeb>
     d1a: 20 b1 2f     	jsr	$2fb1 <strlen>
     d1d: e0 00        	cpx	#$0
     d1f: f0 03        	beq	$d24 <main+0x7cf>
     d21: 4c a1 0d     	jmp	$da1 <main+0x84c>
     d24: c9 02        	cmp	#$2
     d26: 4c a3 0d     	jmp	$da3 <main+0x84e>
     d29: 20 e5 2b     	jsr	$2be5 <puts>
     d2c: a2 54        	ldx	#$54
     d2e: 86 12        	stx	$12                     ; 0x2012 <_ZN12_GLOBAL__N_112print_stringEPKcP6Status+0xea>
     d30: a2 31        	ldx	#$31
     d32: 86 13        	stx	$13                     ; 0x2013 <_ZN12_GLOBAL__N_112print_stringEPKcP6Status+0xeb>
     d34: 20 35 20     	jsr	$2035 <printf>
     d37: a2 35        	ldx	#$35
     d39: 86 12        	stx	$12                     ; 0x2012 <_ZN12_GLOBAL__N_112print_stringEPKcP6Status+0xea>
     d3b: a2 00        	ldx	#$0
     d3d: 86 13        	stx	$13                     ; 0x2013 <_ZN12_GLOBAL__N_112print_stringEPKcP6Status+0xeb>
     d3f: 64 36        	stz	$36                     ; 0x2036 <printf+0x1>
     d41: 20 00 ff     	jsr	$ff00 <__heap_start+0xa11a>
     d44: 92 2c        	sta	($2c)                   ; 0x202c <_ZN12_GLOBAL__N_112print_stringEPKcP6Status+0x104>
     d46: a9 00        	lda	#$0
     d48: 6a           	ror
     d49: 85 12        	sta	$12                     ; 0x2012 <_ZN12_GLOBAL__N_112print_stringEPKcP6Status+0xea>
     d4b: a6 36        	ldx	$36                     ; 0x2036 <printf+0x1>
     d4d: e0 08        	cpx	#$8
     d4f: d0 ee        	bne	$d3f <main+0x7ea>
     d51: a6 3a        	ldx	$3a                     ; 0x203a <printf+0x5>
     d53: e0 94        	cpx	#$94
     d55: d0 03        	bne	$d5a <main+0x805>
     d57: 4c 04 18     	jmp	$1804 <main+0x12af>
     d5a: e0 20        	cpx	#$20
     d5c: d0 e1        	bne	$d3f <main+0x7ea>
     d5e: 4c 04 18     	jmp	$1804 <main+0x12af>
     d61: a2 cc        	ldx	#$cc
     d63: 86 12        	stx	$12                     ; 0x2012 <_ZN12_GLOBAL__N_112print_stringEPKcP6Status+0xea>
     d65: a2 30        	ldx	#$30
     d67: 86 13        	stx	$13                     ; 0x2013 <_ZN12_GLOBAL__N_112print_stringEPKcP6Status+0xeb>
     d69: 20 35 20     	jsr	$2035 <printf>
     d6c: a2 80        	ldx	#$80
     d6e: 86 12        	stx	$12                     ; 0x2012 <_ZN12_GLOBAL__N_112print_stringEPKcP6Status+0xea>
     d70: a2 30        	ldx	#$30
     d72: 86 13        	stx	$13                     ; 0x2013 <_ZN12_GLOBAL__N_112print_stringEPKcP6Status+0xeb>
     d74: 20 35 20     	jsr	$2035 <printf>
     d77: a2 35        	ldx	#$35
     d79: 86 12        	stx	$12                     ; 0x2012 <_ZN12_GLOBAL__N_112print_stringEPKcP6Status+0xea>
     d7b: a2 00        	ldx	#$0
     d7d: 86 13        	stx	$13                     ; 0x2013 <_ZN12_GLOBAL__N_112print_stringEPKcP6Status+0xeb>
     d7f: 64 36        	stz	$36                     ; 0x2036 <printf+0x1>
     d81: 20 00 ff     	jsr	$ff00 <__heap_start+0xa11a>
     d84: 92 2c        	sta	($2c)                   ; 0x202c <_ZN12_GLOBAL__N_112print_stringEPKcP6Status+0x104>
     d86: a9 00        	lda	#$0
     d88: 6a           	ror
     d89: 85 12        	sta	$12                     ; 0x2012 <_ZN12_GLOBAL__N_112print_stringEPKcP6Status+0xea>
     d8b: a6 36        	ldx	$36                     ; 0x2036 <printf+0x1>
     d8d: e0 08        	cpx	#$8
     d8f: d0 ee        	bne	$d7f <main+0x82a>
     d91: a6 3a        	ldx	$3a                     ; 0x203a <printf+0x5>
     d93: e0 94        	cpx	#$94
     d95: d0 03        	bne	$d9a <main+0x845>
     d97: 4c 04 18     	jmp	$1804 <main+0x12af>
     d9a: e0 20        	cpx	#$20
     d9c: d0 e1        	bne	$d7f <main+0x82a>
     d9e: 4c 04 18     	jmp	$1804 <main+0x12af>
     da1: e0 00        	cpx	#$0
     da3: a2 00        	ldx	#$0
     da5: a4 26        	ldy	$26                     ; 0x2026 <_ZN12_GLOBAL__N_112print_stringEPKcP6Status+0xfe>
     da7: 84 12        	sty	$12                     ; 0x2012 <_ZN12_GLOBAL__N_112print_stringEPKcP6Status+0xea>
     da9: a4 27        	ldy	$27                     ; 0x2027 <_ZN12_GLOBAL__N_112print_stringEPKcP6Status+0xff>
     dab: 84 13        	sty	$13                     ; 0x2013 <_ZN12_GLOBAL__N_112print_stringEPKcP6Status+0xeb>
     dad: 90 2f        	bcc	$dde <main+0x889>
     daf: a0 01        	ldy	#$1
     db1: b1 26        	lda	($26),y                 ; 0x2026 <_ZN12_GLOBAL__N_112print_stringEPKcP6Status+0xfe>
     db3: a2 00        	ldx	#$0
     db5: a4 26        	ldy	$26                     ; 0x2026 <_ZN12_GLOBAL__N_112print_stringEPKcP6Status+0xfe>
     db7: 84 12        	sty	$12                     ; 0x2012 <_ZN12_GLOBAL__N_112print_stringEPKcP6Status+0xea>
     db9: a4 27        	ldy	$27                     ; 0x2027 <_ZN12_GLOBAL__N_112print_stringEPKcP6Status+0xff>
     dbb: 84 13        	sty	$13                     ; 0x2013 <_ZN12_GLOBAL__N_112print_stringEPKcP6Status+0xeb>
     dbd: c9 3a        	cmp	#$3a
     dbf: d0 1d        	bne	$dde <main+0x889>
     dc1: b2 26        	lda	($26)                   ; 0x2026 <_ZN12_GLOBAL__N_112print_stringEPKcP6Status+0xfe>
     dc3: c9 30        	cmp	#$30
     dc5: a2 00        	ldx	#$0
     dc7: 90 08        	bcc	$dd1 <main+0x87c>
     dc9: c9 38        	cmp	#$38
     dcb: b0 04        	bcs	$dd1 <main+0x87c>
     dcd: 18           	clc
     dce: 69 d0        	adc	#$d0
     dd0: aa           	tax
     dd1: a5 26        	lda	$26                     ; 0x2026 <_ZN12_GLOBAL__N_112print_stringEPKcP6Status+0xfe>
     dd3: 18           	clc
     dd4: 69 02        	adc	#$2
     dd6: 85 12        	sta	$12                     ; 0x2012 <_ZN12_GLOBAL__N_112print_stringEPKcP6Status+0xea>
     dd8: a5 27        	lda	$27                     ; 0x2027 <_ZN12_GLOBAL__N_112print_stringEPKcP6Status+0xff>
     dda: 69 00        	adc	#$0
     ddc: 85 13        	sta	$13                     ; 0x2013 <_ZN12_GLOBAL__N_112print_stringEPKcP6Status+0xeb>
     dde: 86 28        	stx	$28                     ; 0x2028 <_ZN12_GLOBAL__N_112print_stringEPKcP6Status+0x100>
     de0: a2 94        	ldx	#$94
     de2: 86 14        	stx	$14                     ; 0x2014 <_ZN12_GLOBAL__N_112print_stringEPKcP6Status+0xec>
     de4: a2 30        	ldx	#$30
     de6: 86 15        	stx	$15                     ; 0x2015 <_ZN12_GLOBAL__N_112print_stringEPKcP6Status+0xed>
     de8: 64 16        	stz	$16                     ; 0x2016 <_ZN12_GLOBAL__N_112print_stringEPKcP6Status+0xee>
     dea: 80 0a        	bra	$df6 <main+0x8a1>
     dec: a2 02        	ldx	#$2
     dee: e6 14        	inc	$14                     ; 0x2014 <_ZN12_GLOBAL__N_112print_stringEPKcP6Status+0xec>
     df0: d0 02        	bne	$df4 <main+0x89f>
     df2: e6 15        	inc	$15                     ; 0x2015 <_ZN12_GLOBAL__N_112print_stringEPKcP6Status+0xed>
     df4: 86 16        	stx	$16                     ; 0x2016 <_ZN12_GLOBAL__N_112print_stringEPKcP6Status+0xee>
     df6: b2 14        	lda	($14)                   ; 0x2014 <_ZN12_GLOBAL__N_112print_stringEPKcP6Status+0xec>
     df8: c9 61        	cmp	#$61
     dfa: f0 f0        	beq	$dec <main+0x897>
     dfc: a2 01        	ldx	#$1
     dfe: c9 77        	cmp	#$77
     e00: f0 ec        	beq	$dee <main+0x899>
     e02: aa           	tax
     e03: f0 04        	beq	$e09 <main+0x8b4>
     e05: a6 16        	ldx	$16                     ; 0x2016 <_ZN12_GLOBAL__N_112print_stringEPKcP6Status+0xee>
     e07: 80 e5        	bra	$dee <main+0x899>
     e09: a6 12        	ldx	$12                     ; 0x2012 <_ZN12_GLOBAL__N_112print_stringEPKcP6Status+0xea>
     e0b: a4 16        	ldy	$16                     ; 0x2016 <_ZN12_GLOBAL__N_112print_stringEPKcP6Status+0xee>
     e0d: 84 29        	sty	$29                     ; 0x2029 <_ZN12_GLOBAL__N_112print_stringEPKcP6Status+0x101>
     e0f: a4 13        	ldy	$13                     ; 0x2013 <_ZN12_GLOBAL__N_112print_stringEPKcP6Status+0xeb>
     e11: 86 fb        	stx	$fb                     ; 0x20fb <printf+0xc6>
     e13: 84 fc        	sty	$fc                     ; 0x20fc <printf+0xc7>
     e15: 20 b1 2f     	jsr	$2fb1 <strlen>
     e18: 85 fd        	sta	$fd                     ; 0x20fd <printf+0xc8>
     e1a: a6 28        	ldx	$28                     ; 0x2028 <_ZN12_GLOBAL__N_112print_stringEPKcP6Status+0x100>
     e1c: 86 f3        	stx	$f3                     ; 0x20f3 <printf+0xbe>
     e1e: a6 29        	ldx	$29                     ; 0x2029 <_ZN12_GLOBAL__N_112print_stringEPKcP6Status+0x101>
     e20: 86 f5        	stx	$f5                     ; 0x20f5 <printf+0xc0>
     e22: a2 35        	ldx	#$35
     e24: 86 28        	stx	$28                     ; 0x2028 <_ZN12_GLOBAL__N_112print_stringEPKcP6Status+0x100>
     e26: a2 00        	ldx	#$0
     e28: 86 29        	stx	$29                     ; 0x2029 <_ZN12_GLOBAL__N_112print_stringEPKcP6Status+0x101>
     e2a: 20 5c ff     	jsr	$ff5c <__heap_start+0xa176>
     e2d: 92 2c        	sta	($2c)                   ; 0x202c <_ZN12_GLOBAL__N_112print_stringEPKcP6Status+0x104>
     e2f: a9 00        	lda	#$0
     e31: 6a           	ror
     e32: 85 28        	sta	$28                     ; 0x2028 <_ZN12_GLOBAL__N_112print_stringEPKcP6Status+0x100>
     e34: a6 35        	ldx	$35                     ; 0x2035 <printf>
     e36: f0 54        	beq	$e8c <main+0x937>
     e38: a2 00        	ldx	#$0
     e3a: 86 12        	stx	$12                     ; 0x2012 <_ZN12_GLOBAL__N_112print_stringEPKcP6Status+0xea>
     e3c: a2 00        	ldx	#$0
     e3e: 86 13        	stx	$13                     ; 0x2013 <_ZN12_GLOBAL__N_112print_stringEPKcP6Status+0xeb>
     e40: a6 12        	ldx	$12                     ; 0x2012 <_ZN12_GLOBAL__N_112print_stringEPKcP6Status+0xea>
     e42: a4 13        	ldy	$13                     ; 0x2013 <_ZN12_GLOBAL__N_112print_stringEPKcP6Status+0xeb>
     e44: 8e dd 5d     	stx	$5ddd                   ; 0x5ddd <theMP3file>
     e47: 8c de 5d     	sty	$5dde                   ; 0x5dde <theMP3file+0x1>
     e4a: a5 26        	lda	$26                     ; 0x2026 <_ZN12_GLOBAL__N_112print_stringEPKcP6Status+0xfe>
     e4c: 92 10        	sta	($10)                   ; 0x2010 <_ZN12_GLOBAL__N_112print_stringEPKcP6Status+0xe8>
     e4e: a0 01        	ldy	#$1
     e50: a5 27        	lda	$27                     ; 0x2027 <_ZN12_GLOBAL__N_112print_stringEPKcP6Status+0xff>
     e52: 91 10        	sta	($10),y                 ; 0x2010 <_ZN12_GLOBAL__N_112print_stringEPKcP6Status+0xe8>
     e54: a2 69        	ldx	#$69
     e56: 86 12        	stx	$12                     ; 0x2012 <_ZN12_GLOBAL__N_112print_stringEPKcP6Status+0xea>
     e58: a2 31        	ldx	#$31
     e5a: 86 13        	stx	$13                     ; 0x2013 <_ZN12_GLOBAL__N_112print_stringEPKcP6Status+0xeb>
     e5c: 20 35 20     	jsr	$2035 <printf>
     e5f: a2 37        	ldx	#$37
     e61: 86 12        	stx	$12                     ; 0x2012 <_ZN12_GLOBAL__N_112print_stringEPKcP6Status+0xea>
     e63: a2 31        	ldx	#$31
     e65: 86 13        	stx	$13                     ; 0x2013 <_ZN12_GLOBAL__N_112print_stringEPKcP6Status+0xeb>
     e67: 20 35 20     	jsr	$2035 <printf>
     e6a: 64 36        	stz	$36                     ; 0x2036 <printf+0x1>
     e6c: 20 00 ff     	jsr	$ff00 <__heap_start+0xa11a>
     e6f: 92 2c        	sta	($2c)                   ; 0x202c <_ZN12_GLOBAL__N_112print_stringEPKcP6Status+0x104>
     e71: a9 00        	lda	#$0
     e73: 6a           	ror
     e74: 85 28        	sta	$28                     ; 0x2028 <_ZN12_GLOBAL__N_112print_stringEPKcP6Status+0x100>
     e76: a6 36        	ldx	$36                     ; 0x2036 <printf+0x1>
     e78: e0 08        	cpx	#$8
     e7a: d0 ee        	bne	$e6a <main+0x915>
     e7c: a6 3a        	ldx	$3a                     ; 0x203a <printf+0x5>
     e7e: e0 94        	cpx	#$94
     e80: d0 03        	bne	$e85 <main+0x930>
     e82: 4c 04 18     	jmp	$1804 <main+0x12af>
     e85: e0 20        	cpx	#$20
     e87: d0 e1        	bne	$e6a <main+0x915>
     e89: 4c 04 18     	jmp	$1804 <main+0x12af>
     e8c: b2 2c        	lda	($2c)                   ; 0x202c <_ZN12_GLOBAL__N_112print_stringEPKcP6Status+0x104>
     e8e: 85 2a        	sta	$2a                     ; 0x202a <_ZN12_GLOBAL__N_112print_stringEPKcP6Status+0x102>
     e90: 64 36        	stz	$36                     ; 0x2036 <printf+0x1>
     e92: 20 00 ff     	jsr	$ff00 <__heap_start+0xa11a>
     e95: 92 2c        	sta	($2c)                   ; 0x202c <_ZN12_GLOBAL__N_112print_stringEPKcP6Status+0x104>
     e97: a9 00        	lda	#$0
     e99: 6a           	ror
     e9a: 85 28        	sta	$28                     ; 0x2028 <_ZN12_GLOBAL__N_112print_stringEPKcP6Status+0x100>
     e9c: a6 36        	ldx	$36                     ; 0x2036 <printf+0x1>
     e9e: e0 28        	cpx	#$28
     ea0: d0 03        	bne	$ea5 <main+0x950>
     ea2: 4c 38 0e     	jmp	$e38 <main+0x8e3>
     ea5: e0 2a        	cpx	#$2a
     ea7: f0 07        	beq	$eb0 <main+0x95b>
     ea9: e0 38        	cpx	#$38
     eab: d0 e3        	bne	$e90 <main+0x93b>
     ead: 4c 38 0e     	jmp	$e38 <main+0x8e3>
     eb0: a9 01        	lda	#$1
     eb2: a2 00        	ldx	#$0
     eb4: 20 fd 2b     	jsr	$2bfd <malloc>
     eb7: a5 2a        	lda	$2a                     ; 0x202a <_ZN12_GLOBAL__N_112print_stringEPKcP6Status+0x102>
     eb9: 92 12        	sta	($12)                   ; 0x2012 <_ZN12_GLOBAL__N_112print_stringEPKcP6Status+0xea>
     ebb: a6 12        	ldx	$12                     ; 0x2012 <_ZN12_GLOBAL__N_112print_stringEPKcP6Status+0xea>
     ebd: a4 13        	ldy	$13                     ; 0x2013 <_ZN12_GLOBAL__N_112print_stringEPKcP6Status+0xeb>
     ebf: 8e dd 5d     	stx	$5ddd                   ; 0x5ddd <theMP3file>
     ec2: 8c de 5d     	sty	$5dde                   ; 0x5dde <theMP3file+0x1>
     ec5: a2 1f        	ldx	#$1f
     ec7: 8e 20 d6     	stx	$d620                   ; 0xd620 <__heap_start+0x783a>
     eca: a2 2a        	ldx	#$2a
     ecc: 8e 21 d6     	stx	$d621                   ; 0xd621 <__heap_start+0x783b>
     ecf: a2 01        	ldx	#$1
     ed1: 8e 22 d6     	stx	$d622                   ; 0xd622 <__heap_start+0x783c>
     ed4: ad 22 d6     	lda	$d622                   ; 0xd622 <__heap_start+0x783c>
     ed7: 29 01        	and	#$1
     ed9: 29 01        	and	#$1
     edb: d0 f7        	bne	$ed4 <main+0x97f>
     edd: a2 03        	ldx	#$3
     edf: 8e 01 d7     	stx	$d701                   ; 0xd701 <__heap_start+0x791b>
     ee2: 9c 02 d7     	stz	$d702                   ; 0xd702 <__heap_start+0x791c>
     ee5: 9c 02 d7     	stz	$d702                   ; 0xd702 <__heap_start+0x791c>
     ee8: a2 e0        	ldx	#$e0
     eea: 8e 03 d7     	stx	$d703                   ; 0xd703 <__heap_start+0x791d>
     eed: a2 01        	ldx	#$1
     eef: 8e 00 d7     	stx	$d700                   ; 0xd700 <__heap_start+0x791a>
     ef2: 9c 00 d7     	stz	$d700                   ; 0xd700 <__heap_start+0x791a>
     ef5: ae 00 d7     	ldx	$d700                   ; 0xd700 <__heap_start+0x791a>
     ef8: 30 fb        	bmi	$ef5 <main+0x9a0>
     efa: a9 3b        	lda	#$3b
     efc: a2 12        	ldx	#$12
     efe: a0 93        	ldy	#$93
     f00: 84 12        	sty	$12                     ; 0x2012 <_ZN12_GLOBAL__N_112print_stringEPKcP6Status+0xea>
     f02: a0 31        	ldy	#$31
     f04: 84 13        	sty	$13                     ; 0x2013 <_ZN12_GLOBAL__N_112print_stringEPKcP6Status+0xeb>
     f06: 20 d4 1c     	jsr	$1cd4 <initVS1053Plugin>
     f09: a9 e8        	lda	#$e8
     f0b: a2 03        	ldx	#$3
     f0d: a0 09        	ldy	#$9
     f0f: 84 12        	sty	$12                     ; 0x2012 <_ZN12_GLOBAL__N_112print_stringEPKcP6Status+0xea>
     f11: a0 56        	ldy	#$56
     f13: 84 13        	sty	$13                     ; 0x2013 <_ZN12_GLOBAL__N_112print_stringEPKcP6Status+0xeb>
     f15: 20 d4 1c     	jsr	$1cd4 <initVS1053Plugin>
     f18: ae dd 5d     	ldx	$5ddd                   ; 0x5ddd <theMP3file>
     f1b: ac de 5d     	ldy	$5dde                   ; 0x5dde <theMP3file+0x1>
     f1e: 86 28        	stx	$28                     ; 0x2028 <_ZN12_GLOBAL__N_112print_stringEPKcP6Status+0x100>
     f20: 84 29        	sty	$29                     ; 0x2029 <_ZN12_GLOBAL__N_112print_stringEPKcP6Status+0x101>
     f22: a2 40        	ldx	#$40
     f24: a4 2c        	ldy	$2c                     ; 0x202c <_ZN12_GLOBAL__N_112print_stringEPKcP6Status+0x104>
     f26: 84 2a        	sty	$2a                     ; 0x202a <_ZN12_GLOBAL__N_112print_stringEPKcP6Status+0x102>
     f28: a4 2d        	ldy	$2d                     ; 0x202d <_ZN12_GLOBAL__N_112print_stringEPKcP6Status+0x105>
     f2a: 84 2b        	sty	$2b                     ; 0x202b <_ZN12_GLOBAL__N_112print_stringEPKcP6Status+0x103>
     f2c: a4 2a        	ldy	$2a                     ; 0x202a <_ZN12_GLOBAL__N_112print_stringEPKcP6Status+0x102>
     f2e: 84 12        	sty	$12                     ; 0x2012 <_ZN12_GLOBAL__N_112print_stringEPKcP6Status+0xea>
     f30: a4 2b        	ldy	$2b                     ; 0x202b <_ZN12_GLOBAL__N_112print_stringEPKcP6Status+0x103>
     f32: 84 13        	sty	$13                     ; 0x2013 <_ZN12_GLOBAL__N_112print_stringEPKcP6Status+0xeb>
     f34: a4 28        	ldy	$28                     ; 0x2028 <_ZN12_GLOBAL__N_112print_stringEPKcP6Status+0x100>
     f36: 84 14        	sty	$14                     ; 0x2014 <_ZN12_GLOBAL__N_112print_stringEPKcP6Status+0xec>
     f38: a4 29        	ldy	$29                     ; 0x2029 <_ZN12_GLOBAL__N_112print_stringEPKcP6Status+0x101>
     f3a: 84 15        	sty	$15                     ; 0x2015 <_ZN12_GLOBAL__N_112print_stringEPKcP6Status+0xed>
     f3c: 86 2e        	stx	$2e                     ; 0x202e <_ZN12_GLOBAL__N_112print_stringEPKcP6Status+0x106>
     f3e: a2 00        	ldx	#$0
     f40: a9 80        	lda	#$80
     f42: 20 68 18     	jsr	$1868 <fileRead>
     f45: a6 2e        	ldx	$2e                     ; 0x202e <_ZN12_GLOBAL__N_112print_stringEPKcP6Status+0x106>
     f47: ca           	dex
     f48: a5 2a        	lda	$2a                     ; 0x202a <_ZN12_GLOBAL__N_112print_stringEPKcP6Status+0x102>
     f4a: 18           	clc
     f4b: 69 80        	adc	#$80
     f4d: 85 2a        	sta	$2a                     ; 0x202a <_ZN12_GLOBAL__N_112print_stringEPKcP6Status+0x102>
     f4f: a5 2b        	lda	$2b                     ; 0x202b <_ZN12_GLOBAL__N_112print_stringEPKcP6Status+0x103>
     f51: 69 00        	adc	#$0
     f53: 85 2b        	sta	$2b                     ; 0x202b <_ZN12_GLOBAL__N_112print_stringEPKcP6Status+0x103>
     f55: 8a           	txa
     f56: d0 d4        	bne	$f2c <main+0x9d7>
     f58: a0 01        	ldy	#$1
     f5a: 84 30        	sty	$30                     ; 0x2030 <_ZN12_GLOBAL__N_112print_stringEPKcP6Status+0x108>
     f5c: a2 42        	ldx	#$42
     f5e: 86 31        	stx	$31                     ; 0x2031 <_ZN12_GLOBAL__N_112print_stringEPKcP6Status+0x109>
     f60: 8e 14 d0     	stx	$d014                   ; 0xd014 <__heap_start+0x722e>
     f63: 64 28        	stz	$28                     ; 0x2028 <_ZN12_GLOBAL__N_112print_stringEPKcP6Status+0x100>
     f65: 9c 15 d0     	stz	$d015                   ; 0xd015 <__heap_start+0x722f>
     f68: 84 32        	sty	$32                     ; 0x2032 <_ZN12_GLOBAL__N_112print_stringEPKcP6Status+0x10a>
     f6a: 8c 16 d0     	sty	$d016                   ; 0xd016 <__heap_start+0x7230>
     f6d: 9c 17 d0     	stz	$d017                   ; 0xd017 <__heap_start+0x7231>
     f70: a2 86        	ldx	#$86
     f72: 86 12        	stx	$12                     ; 0x2012 <_ZN12_GLOBAL__N_112print_stringEPKcP6Status+0xea>
     f74: a2 31        	ldx	#$31
     f76: 86 13        	stx	$13                     ; 0x2013 <_ZN12_GLOBAL__N_112print_stringEPKcP6Status+0xeb>
     f78: 20 b3 19     	jsr	$19b3 <textPrint>
     f7b: a2 44        	ldx	#$44
     f7d: 86 31        	stx	$31                     ; 0x2031 <_ZN12_GLOBAL__N_112print_stringEPKcP6Status+0x109>
     f7f: 8e 14 d0     	stx	$d014                   ; 0xd014 <__heap_start+0x722e>
     f82: 9c 15 d0     	stz	$d015                   ; 0xd015 <__heap_start+0x722f>
     f85: a2 02        	ldx	#$2
     f87: 86 32        	stx	$32                     ; 0x2032 <_ZN12_GLOBAL__N_112print_stringEPKcP6Status+0x10a>
     f89: 8e 16 d0     	stx	$d016                   ; 0xd016 <__heap_start+0x7230>
     f8c: 9c 17 d0     	stz	$d017                   ; 0xd017 <__heap_start+0x7231>
     f8f: a2 64        	ldx	#$64
     f91: 86 12        	stx	$12                     ; 0x2012 <_ZN12_GLOBAL__N_112print_stringEPKcP6Status+0xea>
     f93: a2 30        	ldx	#$30
     f95: 86 13        	stx	$13                     ; 0x2013 <_ZN12_GLOBAL__N_112print_stringEPKcP6Status+0xeb>
     f97: 20 b3 19     	jsr	$19b3 <textPrint>
     f9a: a2 47        	ldx	#$47
     f9c: 86 31        	stx	$31                     ; 0x2031 <_ZN12_GLOBAL__N_112print_stringEPKcP6Status+0x109>
     f9e: 8e 14 d0     	stx	$d014                   ; 0xd014 <__heap_start+0x722e>
     fa1: 9c 15 d0     	stz	$d015                   ; 0xd015 <__heap_start+0x722f>
     fa4: a2 03        	ldx	#$3
     fa6: 86 32        	stx	$32                     ; 0x2032 <_ZN12_GLOBAL__N_112print_stringEPKcP6Status+0x10a>
     fa8: 8e 16 d0     	stx	$d016                   ; 0xd016 <__heap_start+0x7230>
     fab: 9c 17 d0     	stz	$d017                   ; 0xd017 <__heap_start+0x7231>
     fae: a2 4c        	ldx	#$4c
     fb0: 86 12        	stx	$12                     ; 0x2012 <_ZN12_GLOBAL__N_112print_stringEPKcP6Status+0xea>
     fb2: a2 31        	ldx	#$31
     fb4: 86 13        	stx	$13                     ; 0x2013 <_ZN12_GLOBAL__N_112print_stringEPKcP6Status+0xeb>
     fb6: 20 b3 19     	jsr	$19b3 <textPrint>
     fb9: 64 31        	stz	$31                     ; 0x2031 <_ZN12_GLOBAL__N_112print_stringEPKcP6Status+0x109>
     fbb: 9c 14 d0     	stz	$d014                   ; 0xd014 <__heap_start+0x722e>
     fbe: 9c 15 d0     	stz	$d015                   ; 0xd015 <__heap_start+0x722f>
     fc1: 64 32        	stz	$32                     ; 0x2032 <_ZN12_GLOBAL__N_112print_stringEPKcP6Status+0x10a>
     fc3: 9c 16 d0     	stz	$d016                   ; 0xd016 <__heap_start+0x7230>
     fc6: 9c 17 d0     	stz	$d017                   ; 0xd017 <__heap_start+0x7231>
     fc9: a5 26        	lda	$26                     ; 0x2026 <_ZN12_GLOBAL__N_112print_stringEPKcP6Status+0xfe>
     fcb: 92 10        	sta	($10)                   ; 0x2010 <_ZN12_GLOBAL__N_112print_stringEPKcP6Status+0xe8>
     fcd: a0 01        	ldy	#$1
     fcf: a5 27        	lda	$27                     ; 0x2027 <_ZN12_GLOBAL__N_112print_stringEPKcP6Status+0xff>
     fd1: 91 10        	sta	($10),y                 ; 0x2010 <_ZN12_GLOBAL__N_112print_stringEPKcP6Status+0xe8>
     fd3: a2 55        	ldx	#$55
     fd5: 86 12        	stx	$12                     ; 0x2012 <_ZN12_GLOBAL__N_112print_stringEPKcP6Status+0xea>
     fd7: a2 30        	ldx	#$30
     fd9: 86 13        	stx	$13                     ; 0x2013 <_ZN12_GLOBAL__N_112print_stringEPKcP6Status+0xeb>
     fdb: 20 35 20     	jsr	$2035 <printf>
     fde: a2 08        	ldx	#$8
     fe0: b2 2c        	lda	($2c)                   ; 0x202c <_ZN12_GLOBAL__N_112print_stringEPKcP6Status+0x104>
     fe2: 8d 07 d7     	sta	$d707                   ; 0xd707 <__heap_start+0x7921>
     fe5: a0 ff        	ldy	#$ff
     fe7: c6 28        	dec	$28                     ; 0x2028 <_ZN12_GLOBAL__N_112print_stringEPKcP6Status+0x100>
     fe9: c4 28        	cpy	$28                     ; 0x2028 <_ZN12_GLOBAL__N_112print_stringEPKcP6Status+0x100>
     feb: d0 01        	bne	$fee <main+0xa99>
     fed: ca           	dex
     fee: e6 2c        	inc	$2c                     ; 0x202c <_ZN12_GLOBAL__N_112print_stringEPKcP6Status+0x104>
     ff0: d0 02        	bne	$ff4 <main+0xa9f>
     ff2: e6 2d        	inc	$2d                     ; 0x202d <_ZN12_GLOBAL__N_112print_stringEPKcP6Status+0x105>
     ff4: 8a           	txa
     ff5: d0 e9        	bne	$fe0 <main+0xa8b>
     ff7: a5 28        	lda	$28                     ; 0x2028 <_ZN12_GLOBAL__N_112print_stringEPKcP6Status+0x100>
     ff9: d0 e5        	bne	$fe0 <main+0xa8b>
     ffb: 18           	clc
     ffc: a5 10        	lda	$10                     ; 0x2010 <_ZN12_GLOBAL__N_112print_stringEPKcP6Status+0xe8>
     ffe: 69 5d        	adc	#$5d
    1000: 48           	pha
    1001: a5 11        	lda	$11                     ; 0x2011 <_ZN12_GLOBAL__N_112print_stringEPKcP6Status+0xe9>
    1003: 69 00        	adc	#$0
    1005: 85 12        	sta	$12                     ; 0x2012 <_ZN12_GLOBAL__N_112print_stringEPKcP6Status+0xea>
    1007: 68           	pla
    1008: 18           	clc
    1009: 69 00        	adc	#$0
    100b: aa           	tax
    100c: a5 12        	lda	$12                     ; 0x2012 <_ZN12_GLOBAL__N_112print_stringEPKcP6Status+0xea>
    100e: 69 08        	adc	#$8
    1010: 86 12        	stx	$12                     ; 0x2012 <_ZN12_GLOBAL__N_112print_stringEPKcP6Status+0xea>
    1012: 85 13        	sta	$13                     ; 0x2013 <_ZN12_GLOBAL__N_112print_stringEPKcP6Status+0xeb>
    1014: a0 08        	ldy	#$8
    1016: a2 00        	ldx	#$0
    1018: b2 12        	lda	($12)                   ; 0x2012 <_ZN12_GLOBAL__N_112print_stringEPKcP6Status+0xea>
    101a: 8d 07 d7     	sta	$d707                   ; 0xd707 <__heap_start+0x7921>
    101d: ca           	dex
    101e: e0 ff        	cpx	#$ff
    1020: d0 01        	bne	$1023 <main+0xace>
    1022: 88           	dey
    1023: e6 12        	inc	$12                     ; 0x2012 <_ZN12_GLOBAL__N_112print_stringEPKcP6Status+0xea>
    1025: d0 02        	bne	$1029 <main+0xad4>
    1027: e6 13        	inc	$13                     ; 0x2013 <_ZN12_GLOBAL__N_112print_stringEPKcP6Status+0xeb>
    1029: 98           	tya
    102a: d0 ec        	bne	$1018 <main+0xac3>
    102c: 8a           	txa
    102d: d0 e9        	bne	$1018 <main+0xac3>
    102f: 18           	clc
    1030: a5 10        	lda	$10                     ; 0x2010 <_ZN12_GLOBAL__N_112print_stringEPKcP6Status+0xe8>
    1032: 69 5d        	adc	#$5d
    1034: 48           	pha
    1035: a5 11        	lda	$11                     ; 0x2011 <_ZN12_GLOBAL__N_112print_stringEPKcP6Status+0xe9>
    1037: 69 20        	adc	#$20
    1039: 85 12        	sta	$12                     ; 0x2012 <_ZN12_GLOBAL__N_112print_stringEPKcP6Status+0xea>
    103b: 68           	pla
    103c: 18           	clc
    103d: 69 02        	adc	#$2
    103f: 85 2a        	sta	$2a                     ; 0x202a <_ZN12_GLOBAL__N_112print_stringEPKcP6Status+0x102>
    1041: a5 12        	lda	$12                     ; 0x2012 <_ZN12_GLOBAL__N_112print_stringEPKcP6Status+0xea>
    1043: 69 00        	adc	#$0
    1045: 48           	pha
    1046: a5 2a        	lda	$2a                     ; 0x202a <_ZN12_GLOBAL__N_112print_stringEPKcP6Status+0x102>
    1048: a0 15        	ldy	#$15
    104a: 91 10        	sta	($10),y                 ; 0x2010 <_ZN12_GLOBAL__N_112print_stringEPKcP6Status+0xe8>
    104c: 68           	pla
    104d: 88           	dey
    104e: 91 10        	sta	($10),y                 ; 0x2010 <_ZN12_GLOBAL__N_112print_stringEPKcP6Status+0xe8>
    1050: 85 2b        	sta	$2b                     ; 0x202b <_ZN12_GLOBAL__N_112print_stringEPKcP6Status+0x103>
    1052: a2 10        	ldx	#$10
    1054: 8a           	txa
    1055: a0 16        	ldy	#$16
    1057: 91 10        	sta	($10),y                 ; 0x2010 <_ZN12_GLOBAL__N_112print_stringEPKcP6Status+0xe8>
    1059: 64 12        	stz	$12                     ; 0x2012 <_ZN12_GLOBAL__N_112print_stringEPKcP6Status+0xea>
    105b: a9 00        	lda	#$0
    105d: a0 10        	ldy	#$10
    105f: 91 10        	sta	($10),y                 ; 0x2010 <_ZN12_GLOBAL__N_112print_stringEPKcP6Status+0xe8>
    1061: a0 0b        	ldy	#$b
    1063: 91 10        	sta	($10),y                 ; 0x2010 <_ZN12_GLOBAL__N_112print_stringEPKcP6Status+0xe8>
    1065: 64 2d        	stz	$2d                     ; 0x202d <_ZN12_GLOBAL__N_112print_stringEPKcP6Status+0x105>
    1067: 64 2f        	stz	$2f                     ; 0x202f <_ZN12_GLOBAL__N_112print_stringEPKcP6Status+0x107>
    1069: 88           	dey
    106a: 91 10        	sta	($10),y                 ; 0x2010 <_ZN12_GLOBAL__N_112print_stringEPKcP6Status+0xe8>
    106c: a0 17        	ldy	#$17
    106e: 91 10        	sta	($10),y                 ; 0x2010 <_ZN12_GLOBAL__N_112print_stringEPKcP6Status+0xe8>
    1070: 64 2e        	stz	$2e                     ; 0x202e <_ZN12_GLOBAL__N_112print_stringEPKcP6Status+0x106>
    1072: a5 2d        	lda	$2d                     ; 0x202d <_ZN12_GLOBAL__N_112print_stringEPKcP6Status+0x105>
    1074: a0 0e        	ldy	#$e
    1076: 91 10        	sta	($10),y                 ; 0x2010 <_ZN12_GLOBAL__N_112print_stringEPKcP6Status+0xe8>
    1078: a5 2e        	lda	$2e                     ; 0x202e <_ZN12_GLOBAL__N_112print_stringEPKcP6Status+0x106>
    107a: c8           	iny
    107b: 91 10        	sta	($10),y                 ; 0x2010 <_ZN12_GLOBAL__N_112print_stringEPKcP6Status+0xe8>
    107d: 64 15        	stz	$15                     ; 0x2015 <_ZN12_GLOBAL__N_112print_stringEPKcP6Status+0xed>
    107f: a2 00        	ldx	#$0
    1081: 64 14        	stz	$14                     ; 0x2014 <_ZN12_GLOBAL__N_112print_stringEPKcP6Status+0xec>
    1083: 18           	clc
    1084: 86 1a        	stx	$1a                     ; 0x201a <_ZN12_GLOBAL__N_112print_stringEPKcP6Status+0xf2>
    1086: 8a           	txa
    1087: 69 14        	adc	#$14
    1089: aa           	tax
    108a: a5 14        	lda	$14                     ; 0x2014 <_ZN12_GLOBAL__N_112print_stringEPKcP6Status+0xec>
    108c: 69 18        	adc	#$18
    108e: a0 07        	ldy	#$7
    1090: 8c 01 d7     	sty	$d701                   ; 0xd701 <__heap_start+0x791b>
    1093: 9c 02 d7     	stz	$d702                   ; 0xd702 <__heap_start+0x791c>
    1096: 8e 02 d7     	stx	$d702                   ; 0xd702 <__heap_start+0x791c>
    1099: 8d 03 d7     	sta	$d703                   ; 0xd703 <__heap_start+0x791d>
    109c: a0 01        	ldy	#$1
    109e: 8c 00 d7     	sty	$d700                   ; 0xd700 <__heap_start+0x791a>
    10a1: 9c 00 d7     	stz	$d700                   ; 0xd700 <__heap_start+0x791a>
    10a4: ad 00 d7     	lda	$d700                   ; 0xd700 <__heap_start+0x791a>
    10a7: 30 fb        	bmi	$10a4 <main+0xb4f>
    10a9: a0 06        	ldy	#$6
    10ab: 8c 01 d7     	sty	$d701                   ; 0xd701 <__heap_start+0x791b>
    10ae: 9c 02 d7     	stz	$d702                   ; 0xd702 <__heap_start+0x791c>
    10b1: a0 03        	ldy	#$3
    10b3: 8c 00 d7     	sty	$d700                   ; 0xd700 <__heap_start+0x791a>
    10b6: 9c 00 d7     	stz	$d700                   ; 0xd700 <__heap_start+0x791a>
    10b9: ad 00 d7     	lda	$d700                   ; 0xd700 <__heap_start+0x791a>
    10bc: 30 fb        	bmi	$10b9 <main+0xb64>
    10be: ac 02 d7     	ldy	$d702                   ; 0xd702 <__heap_start+0x791c>
    10c1: 84 16        	sty	$16                     ; 0x2016 <_ZN12_GLOBAL__N_112print_stringEPKcP6Status+0xee>
    10c3: ac 03 d7     	ldy	$d703                   ; 0xd703 <__heap_start+0x791d>
    10c6: 84 18        	sty	$18                     ; 0x2018 <_ZN12_GLOBAL__N_112print_stringEPKcP6Status+0xf0>
    10c8: 18           	clc
    10c9: a5 10        	lda	$10                     ; 0x2010 <_ZN12_GLOBAL__N_112print_stringEPKcP6Status+0xe8>
    10cb: 69 7b        	adc	#$7b
    10cd: 85 12        	sta	$12                     ; 0x2012 <_ZN12_GLOBAL__N_112print_stringEPKcP6Status+0xea>
    10cf: a5 11        	lda	$11                     ; 0x2011 <_ZN12_GLOBAL__N_112print_stringEPKcP6Status+0xe9>
    10d1: 69 20        	adc	#$20
    10d3: 85 17        	sta	$17                     ; 0x2017 <_ZN12_GLOBAL__N_112print_stringEPKcP6Status+0xef>
    10d5: 85 13        	sta	$13                     ; 0x2013 <_ZN12_GLOBAL__N_112print_stringEPKcP6Status+0xeb>
    10d7: a5 15        	lda	$15                     ; 0x2015 <_ZN12_GLOBAL__N_112print_stringEPKcP6Status+0xed>
    10d9: 18           	clc
    10da: 65 12        	adc	$12                     ; 0x2012 <_ZN12_GLOBAL__N_112print_stringEPKcP6Status+0xea>
    10dc: 85 19        	sta	$19                     ; 0x2019 <_ZN12_GLOBAL__N_112print_stringEPKcP6Status+0xf1>
    10de: a4 15        	ldy	$15                     ; 0x2015 <_ZN12_GLOBAL__N_112print_stringEPKcP6Status+0xed>
    10e0: a5 16        	lda	$16                     ; 0x2016 <_ZN12_GLOBAL__N_112print_stringEPKcP6Status+0xee>
    10e2: 91 12        	sta	($12),y                 ; 0x2012 <_ZN12_GLOBAL__N_112print_stringEPKcP6Status+0xea>
    10e4: a5 17        	lda	$17                     ; 0x2017 <_ZN12_GLOBAL__N_112print_stringEPKcP6Status+0xef>
    10e6: 69 00        	adc	#$0
    10e8: a6 19        	ldx	$19                     ; 0x2019 <_ZN12_GLOBAL__N_112print_stringEPKcP6Status+0xf1>
    10ea: 86 16        	stx	$16                     ; 0x2016 <_ZN12_GLOBAL__N_112print_stringEPKcP6Status+0xee>
    10ec: 85 17        	sta	$17                     ; 0x2017 <_ZN12_GLOBAL__N_112print_stringEPKcP6Status+0xef>
    10ee: a0 01        	ldy	#$1
    10f0: a5 18        	lda	$18                     ; 0x2018 <_ZN12_GLOBAL__N_112print_stringEPKcP6Status+0xf0>
    10f2: 91 16        	sta	($16),y                 ; 0x2016 <_ZN12_GLOBAL__N_112print_stringEPKcP6Status+0xee>
    10f4: a6 1a        	ldx	$1a                     ; 0x201a <_ZN12_GLOBAL__N_112print_stringEPKcP6Status+0xf2>
    10f6: e8           	inx
    10f7: d0 02        	bne	$10fb <main+0xba6>
    10f9: e6 14        	inc	$14                     ; 0x2014 <_ZN12_GLOBAL__N_112print_stringEPKcP6Status+0xec>
    10fb: 18           	clc
    10fc: a5 15        	lda	$15                     ; 0x2015 <_ZN12_GLOBAL__N_112print_stringEPKcP6Status+0xed>
    10fe: 69 02        	adc	#$2
    1100: 85 15        	sta	$15                     ; 0x2015 <_ZN12_GLOBAL__N_112print_stringEPKcP6Status+0xed>
    1102: a5 14        	lda	$14                     ; 0x2014 <_ZN12_GLOBAL__N_112print_stringEPKcP6Status+0xec>
    1104: f0 03        	beq	$1109 <main+0xbb4>
    1106: 4c 83 10     	jmp	$1083 <main+0xb2e>
    1109: e0 0f        	cpx	#$f
    110b: f0 03        	beq	$1110 <main+0xbbb>
    110d: 4c 83 10     	jmp	$1083 <main+0xb2e>
    1110: a0 10        	ldy	#$10
    1112: b1 10        	lda	($10),y                 ; 0x2010 <_ZN12_GLOBAL__N_112print_stringEPKcP6Status+0xe8>
    1114: 29 01        	and	#$1
    1116: a0 01        	ldy	#$1
    1118: 48           	pha
    1119: 98           	tya
    111a: a0 10        	ldy	#$10
    111c: 91 10        	sta	($10),y                 ; 0x2010 <_ZN12_GLOBAL__N_112print_stringEPKcP6Status+0xe8>
    111e: 68           	pla
    111f: f0 03        	beq	$1124 <main+0xbcf>
    1121: 4c 85 11     	jmp	$1185 <main+0xc30>
    1124: a9 1f        	lda	#$1f
    1126: a0 04        	ldy	#$4
    1128: 31 12        	and	($12),y                 ; 0x2012 <_ZN12_GLOBAL__N_112print_stringEPKcP6Status+0xea>
    112a: f0 51        	beq	$117d <main+0xc28>
    112c: 64 31        	stz	$31                     ; 0x2031 <_ZN12_GLOBAL__N_112print_stringEPKcP6Status+0x109>
    112e: 9c 14 d0     	stz	$d014                   ; 0xd014 <__heap_start+0x722e>
    1131: 9c 15 d0     	stz	$d015                   ; 0xd015 <__heap_start+0x722f>
    1134: 64 32        	stz	$32                     ; 0x2032 <_ZN12_GLOBAL__N_112print_stringEPKcP6Status+0x10a>
    1136: 9c 16 d0     	stz	$d016                   ; 0xd016 <__heap_start+0x7230>
    1139: 9c 17 d0     	stz	$d017                   ; 0xd017 <__heap_start+0x7231>
    113c: a0 11        	ldy	#$11
    113e: b1 10        	lda	($10),y                 ; 0x2010 <_ZN12_GLOBAL__N_112print_stringEPKcP6Status+0xe8>
    1140: 85 14        	sta	$14                     ; 0x2014 <_ZN12_GLOBAL__N_112print_stringEPKcP6Status+0xec>
    1142: c8           	iny
    1143: b1 10        	lda	($10),y                 ; 0x2010 <_ZN12_GLOBAL__N_112print_stringEPKcP6Status+0xe8>
    1145: 85 15        	sta	$15                     ; 0x2015 <_ZN12_GLOBAL__N_112print_stringEPKcP6Status+0xed>
    1147: a5 14        	lda	$14                     ; 0x2014 <_ZN12_GLOBAL__N_112print_stringEPKcP6Status+0xec>
    1149: 92 10        	sta	($10)                   ; 0x2010 <_ZN12_GLOBAL__N_112print_stringEPKcP6Status+0xe8>
    114b: a0 01        	ldy	#$1
    114d: a5 15        	lda	$15                     ; 0x2015 <_ZN12_GLOBAL__N_112print_stringEPKcP6Status+0xed>
    114f: 91 10        	sta	($10),y                 ; 0x2010 <_ZN12_GLOBAL__N_112print_stringEPKcP6Status+0xe8>
    1151: a2 1b        	ldx	#$1b
    1153: 86 12        	stx	$12                     ; 0x2012 <_ZN12_GLOBAL__N_112print_stringEPKcP6Status+0xea>
    1155: a2 31        	ldx	#$31
    1157: 86 13        	stx	$13                     ; 0x2013 <_ZN12_GLOBAL__N_112print_stringEPKcP6Status+0xeb>
    1159: 20 35 20     	jsr	$2035 <printf>
    115c: a2 3e        	ldx	#$3e
    115e: 86 31        	stx	$31                     ; 0x2031 <_ZN12_GLOBAL__N_112print_stringEPKcP6Status+0x109>
    1160: 8e 14 d0     	stx	$d014                   ; 0xd014 <__heap_start+0x722e>
    1163: 9c 15 d0     	stz	$d015                   ; 0xd015 <__heap_start+0x722f>
    1166: a2 08        	ldx	#$8
    1168: 86 32        	stx	$32                     ; 0x2032 <_ZN12_GLOBAL__N_112print_stringEPKcP6Status+0x10a>
    116a: 8e 16 d0     	stx	$d016                   ; 0xd016 <__heap_start+0x7230>
    116d: 9c 17 d0     	stz	$d017                   ; 0xd017 <__heap_start+0x7231>
    1170: a2 6f        	ldx	#$6f
    1172: 86 12        	stx	$12                     ; 0x2012 <_ZN12_GLOBAL__N_112print_stringEPKcP6Status+0xea>
    1174: a2 30        	ldx	#$30
    1176: 86 13        	stx	$13                     ; 0x2013 <_ZN12_GLOBAL__N_112print_stringEPKcP6Status+0xeb>
    1178: 20 b3 19     	jsr	$19b3 <textPrint>
    117b: 80 08        	bra	$1185 <main+0xc30>
    117d: 64 12        	stz	$12                     ; 0x2012 <_ZN12_GLOBAL__N_112print_stringEPKcP6Status+0xea>
    117f: a9 00        	lda	#$0
    1181: a0 10        	ldy	#$10
    1183: 91 10        	sta	($10),y                 ; 0x2010 <_ZN12_GLOBAL__N_112print_stringEPKcP6Status+0xe8>
    1185: 64 36        	stz	$36                     ; 0x2036 <printf+0x1>
    1187: 18           	clc
    1188: a5 10        	lda	$10                     ; 0x2010 <_ZN12_GLOBAL__N_112print_stringEPKcP6Status+0xe8>
    118a: 69 1c        	adc	#$1c
    118c: 85 16        	sta	$16                     ; 0x2016 <_ZN12_GLOBAL__N_112print_stringEPKcP6Status+0xee>
    118e: a5 11        	lda	$11                     ; 0x2011 <_ZN12_GLOBAL__N_112print_stringEPKcP6Status+0xe9>
    1190: 69 00        	adc	#$0
    1192: 85 17        	sta	$17                     ; 0x2017 <_ZN12_GLOBAL__N_112print_stringEPKcP6Status+0xef>
    1194: a2 35        	ldx	#$35
    1196: 86 12        	stx	$12                     ; 0x2012 <_ZN12_GLOBAL__N_112print_stringEPKcP6Status+0xea>
    1198: a2 00        	ldx	#$0
    119a: 86 13        	stx	$13                     ; 0x2013 <_ZN12_GLOBAL__N_112print_stringEPKcP6Status+0xeb>
    119c: a5 16        	lda	$16                     ; 0x2016 <_ZN12_GLOBAL__N_112print_stringEPKcP6Status+0xee>
    119e: a0 0c        	ldy	#$c
    11a0: 91 10        	sta	($10),y                 ; 0x2010 <_ZN12_GLOBAL__N_112print_stringEPKcP6Status+0xe8>
    11a2: a5 17        	lda	$17                     ; 0x2017 <_ZN12_GLOBAL__N_112print_stringEPKcP6Status+0xef>
    11a4: c8           	iny
    11a5: 91 10        	sta	($10),y                 ; 0x2010 <_ZN12_GLOBAL__N_112print_stringEPKcP6Status+0xe8>
    11a7: 20 00 ff     	jsr	$ff00 <__heap_start+0xa11a>
    11aa: 92 16        	sta	($16)                   ; 0x2016 <_ZN12_GLOBAL__N_112print_stringEPKcP6Status+0xee>
    11ac: a9 00        	lda	#$0
    11ae: 6a           	ror
    11af: 85 12        	sta	$12                     ; 0x2012 <_ZN12_GLOBAL__N_112print_stringEPKcP6Status+0xea>
    11b1: a6 36        	ldx	$36                     ; 0x2036 <printf+0x1>
    11b3: e0 08        	cpx	#$8
    11b5: d0 26        	bne	$11dd <main+0xc88>
    11b7: a6 3a        	ldx	$3a                     ; 0x203a <printf+0x5>
    11b9: e0 81        	cpx	#$81
    11bb: f0 07        	beq	$11c4 <main+0xc6f>
    11bd: e0 92        	cpx	#$92
    11bf: d0 1c        	bne	$11dd <main+0xc88>
    11c1: 4c f7 17     	jmp	$17f7 <main+0x12a2>
    11c4: a0 0b        	ldy	#$b
    11c6: b1 10        	lda	($10),y                 ; 0x2010 <_ZN12_GLOBAL__N_112print_stringEPKcP6Status+0xe8>
    11c8: d0 08        	bne	$11d2 <main+0xc7d>
    11ca: 20 45 1c     	jsr	$1c45 <setTextLUT2>
    11cd: a2 01        	ldx	#$1
    11cf: 8a           	txa
    11d0: 80 07        	bra	$11d9 <main+0xc84>
    11d2: 20 c1 1b     	jsr	$1bc1 <setTextLUT1>
    11d5: 64 12        	stz	$12                     ; 0x2012 <_ZN12_GLOBAL__N_112print_stringEPKcP6Status+0xea>
    11d7: a9 00        	lda	#$0
    11d9: a0 0b        	ldy	#$b
    11db: 91 10        	sta	($10),y                 ; 0x2010 <_ZN12_GLOBAL__N_112print_stringEPKcP6Status+0xe8>
    11dd: a0 17        	ldy	#$17
    11df: b1 10        	lda	($10),y                 ; 0x2010 <_ZN12_GLOBAL__N_112print_stringEPKcP6Status+0xe8>
    11e1: f0 17        	beq	$11fa <main+0xca5>
    11e3: a0 0a        	ldy	#$a
    11e5: b1 10        	lda	($10),y                 ; 0x2010 <_ZN12_GLOBAL__N_112print_stringEPKcP6Status+0xe8>
    11e7: aa           	tax
    11e8: c9 81        	cmp	#$81
    11ea: f0 14        	beq	$1200 <main+0xcab>
    11ec: a0 01        	ldy	#$1
    11ee: 98           	tya
    11ef: a0 17        	ldy	#$17
    11f1: 91 10        	sta	($10),y                 ; 0x2010 <_ZN12_GLOBAL__N_112print_stringEPKcP6Status+0xe8>
    11f3: e0 92        	cpx	#$92
    11f5: d0 2e        	bne	$1225 <main+0xcd0>
    11f7: 4c f7 17     	jmp	$17f7 <main+0x12a2>
    11fa: 64 12        	stz	$12                     ; 0x2012 <_ZN12_GLOBAL__N_112print_stringEPKcP6Status+0xea>
    11fc: a9 00        	lda	#$0
    11fe: 80 23        	bra	$1223 <main+0xcce>
    1200: a0 0b        	ldy	#$b
    1202: b1 10        	lda	($10),y                 ; 0x2010 <_ZN12_GLOBAL__N_112print_stringEPKcP6Status+0xe8>
    1204: d0 0e        	bne	$1214 <main+0xcbf>
    1206: 20 45 1c     	jsr	$1c45 <setTextLUT2>
    1209: a2 01        	ldx	#$1
    120b: 8a           	txa
    120c: a0 0b        	ldy	#$b
    120e: 91 10        	sta	($10),y                 ; 0x2010 <_ZN12_GLOBAL__N_112print_stringEPKcP6Status+0xe8>
    1210: 64 12        	stz	$12                     ; 0x2012 <_ZN12_GLOBAL__N_112print_stringEPKcP6Status+0xea>
    1212: 80 0b        	bra	$121f <main+0xcca>
    1214: 20 c1 1b     	jsr	$1bc1 <setTextLUT1>
    1217: 64 12        	stz	$12                     ; 0x2012 <_ZN12_GLOBAL__N_112print_stringEPKcP6Status+0xea>
    1219: a9 00        	lda	#$0
    121b: a0 0b        	ldy	#$b
    121d: 91 10        	sta	($10),y                 ; 0x2010 <_ZN12_GLOBAL__N_112print_stringEPKcP6Status+0xe8>
    121f: a9 00        	lda	#$0
    1221: a0 17        	ldy	#$17
    1223: 91 10        	sta	($10),y                 ; 0x2010 <_ZN12_GLOBAL__N_112print_stringEPKcP6Status+0xe8>
    1225: a2 25        	ldx	#$25
    1227: 8a           	txa
    1228: a0 1b        	ldy	#$1b
    122a: 91 10        	sta	($10),y                 ; 0x2010 <_ZN12_GLOBAL__N_112print_stringEPKcP6Status+0xe8>
    122c: ca           	dex
    122d: 8a           	txa
    122e: 88           	dey
    122f: 91 10        	sta	($10),y                 ; 0x2010 <_ZN12_GLOBAL__N_112print_stringEPKcP6Status+0xe8>
    1231: a2 c9        	ldx	#$c9
    1233: 8a           	txa
    1234: 88           	dey
    1235: 91 10        	sta	($10),y                 ; 0x2010 <_ZN12_GLOBAL__N_112print_stringEPKcP6Status+0xe8>
    1237: a2 01        	ldx	#$1
    1239: a9 00        	lda	#$0
    123b: a0 c9        	ldy	#$c9
    123d: 48           	pha
    123e: 98           	tya
    123f: a0 18        	ldy	#$18
    1241: 91 10        	sta	($10),y                 ; 0x2010 <_ZN12_GLOBAL__N_112print_stringEPKcP6Status+0xe8>
    1243: 68           	pla
    1244: 64 18        	stz	$18                     ; 0x2018 <_ZN12_GLOBAL__N_112print_stringEPKcP6Status+0xf0>
    1246: 86 1a        	stx	$1a                     ; 0x201a <_ZN12_GLOBAL__N_112print_stringEPKcP6Status+0xf2>
    1248: 18           	clc
    1249: 48           	pha
    124a: a5 10        	lda	$10                     ; 0x2010 <_ZN12_GLOBAL__N_112print_stringEPKcP6Status+0xe8>
    124c: 69 7b        	adc	#$7b
    124e: 85 12        	sta	$12                     ; 0x2012 <_ZN12_GLOBAL__N_112print_stringEPKcP6Status+0xea>
    1250: a5 11        	lda	$11                     ; 0x2011 <_ZN12_GLOBAL__N_112print_stringEPKcP6Status+0xe9>
    1252: 69 20        	adc	#$20
    1254: 85 13        	sta	$13                     ; 0x2013 <_ZN12_GLOBAL__N_112print_stringEPKcP6Status+0xeb>
    1256: 68           	pla
    1257: 85 1b        	sta	$1b                     ; 0x201b <_ZN12_GLOBAL__N_112print_stringEPKcP6Status+0xf3>
    1259: 18           	clc
    125a: 65 12        	adc	$12                     ; 0x2012 <_ZN12_GLOBAL__N_112print_stringEPKcP6Status+0xea>
    125c: 85 12        	sta	$12                     ; 0x2012 <_ZN12_GLOBAL__N_112print_stringEPKcP6Status+0xea>
    125e: a5 13        	lda	$13                     ; 0x2013 <_ZN12_GLOBAL__N_112print_stringEPKcP6Status+0xeb>
    1260: 69 00        	adc	#$0
    1262: 85 13        	sta	$13                     ; 0x2013 <_ZN12_GLOBAL__N_112print_stringEPKcP6Status+0xeb>
    1264: a9 1f        	lda	#$1f
    1266: a0 02        	ldy	#$2
    1268: 31 12        	and	($12),y                 ; 0x2012 <_ZN12_GLOBAL__N_112print_stringEPKcP6Status+0xea>
    126a: 85 1c        	sta	$1c                     ; 0x201c <_ZN12_GLOBAL__N_112print_stringEPKcP6Status+0xf4>
    126c: 0a           	asl
    126d: 64 12        	stz	$12                     ; 0x2012 <_ZN12_GLOBAL__N_112print_stringEPKcP6Status+0xea>
    126f: 26 12        	rol	$12                     ; 0x2012 <_ZN12_GLOBAL__N_112print_stringEPKcP6Status+0xea>
    1271: 85 13        	sta	$13                     ; 0x2013 <_ZN12_GLOBAL__N_112print_stringEPKcP6Status+0xeb>
    1273: 06 13        	asl	$13                     ; 0x2013 <_ZN12_GLOBAL__N_112print_stringEPKcP6Status+0xeb>
    1275: 26 12        	rol	$12                     ; 0x2012 <_ZN12_GLOBAL__N_112print_stringEPKcP6Status+0xea>
    1277: 48           	pha
    1278: a0 13        	ldy	#$13
    127a: b1 10        	lda	($10),y                 ; 0x2010 <_ZN12_GLOBAL__N_112print_stringEPKcP6Status+0xe8>
    127c: aa           	tax
    127d: 68           	pla
    127e: e0 11        	cpx	#$11
    1280: f0 03        	beq	$1285 <main+0xd30>
    1282: 4c e6 13     	jmp	$13e6 <main+0xe91>
    1285: 85 19        	sta	$19                     ; 0x2019 <_ZN12_GLOBAL__N_112print_stringEPKcP6Status+0xf1>
    1287: a4 1b        	ldy	$1b                     ; 0x201b <_ZN12_GLOBAL__N_112print_stringEPKcP6Status+0xf3>
    1289: 84 14        	sty	$14                     ; 0x2014 <_ZN12_GLOBAL__N_112print_stringEPKcP6Status+0xec>
    128b: 5a           	phy
    128c: a0 15        	ldy	#$15
    128e: b1 10        	lda	($10),y                 ; 0x2010 <_ZN12_GLOBAL__N_112print_stringEPKcP6Status+0xe8>
    1290: 18           	clc
    1291: 65 14        	adc	$14                     ; 0x2014 <_ZN12_GLOBAL__N_112print_stringEPKcP6Status+0xec>
    1293: aa           	tax
    1294: 88           	dey
    1295: b1 10        	lda	($10),y                 ; 0x2010 <_ZN12_GLOBAL__N_112print_stringEPKcP6Status+0xe8>
    1297: 7a           	ply
    1298: 69 00        	adc	#$0
    129a: 86 14        	stx	$14                     ; 0x2014 <_ZN12_GLOBAL__N_112print_stringEPKcP6Status+0xec>
    129c: 85 15        	sta	$15                     ; 0x2015 <_ZN12_GLOBAL__N_112print_stringEPKcP6Status+0xed>
    129e: b1 2a        	lda	($2a),y                 ; 0x202a <_ZN12_GLOBAL__N_112print_stringEPKcP6Status+0x102>
    12a0: 85 1d        	sta	$1d                     ; 0x201d <_ZN12_GLOBAL__N_112print_stringEPKcP6Status+0xf5>
    12a2: 85 16        	sta	$16                     ; 0x2016 <_ZN12_GLOBAL__N_112print_stringEPKcP6Status+0xee>
    12a4: a0 01        	ldy	#$1
    12a6: b1 14        	lda	($14),y                 ; 0x2014 <_ZN12_GLOBAL__N_112print_stringEPKcP6Status+0xec>
    12a8: aa           	tax
    12a9: a4 16        	ldy	$16                     ; 0x2016 <_ZN12_GLOBAL__N_112print_stringEPKcP6Status+0xee>
    12ab: 84 15        	sty	$15                     ; 0x2015 <_ZN12_GLOBAL__N_112print_stringEPKcP6Status+0xed>
    12ad: 06 15        	asl	$15                     ; 0x2015 <_ZN12_GLOBAL__N_112print_stringEPKcP6Status+0xed>
    12af: 2a           	rol
    12b0: a4 15        	ldy	$15                     ; 0x2015 <_ZN12_GLOBAL__N_112print_stringEPKcP6Status+0xed>
    12b2: 06 15        	asl	$15                     ; 0x2015 <_ZN12_GLOBAL__N_112print_stringEPKcP6Status+0xed>
    12b4: 2a           	rol
    12b5: 85 14        	sta	$14                     ; 0x2014 <_ZN12_GLOBAL__N_112print_stringEPKcP6Status+0xec>
    12b7: 8a           	txa
    12b8: 86 17        	stx	$17                     ; 0x2017 <_ZN12_GLOBAL__N_112print_stringEPKcP6Status+0xef>
    12ba: a2 00        	ldx	#$0
    12bc: e4 17        	cpx	$17                     ; 0x2017 <_ZN12_GLOBAL__N_112print_stringEPKcP6Status+0xef>
    12be: d0 18        	bne	$12d8 <main+0xd83>
    12c0: a6 1c        	ldx	$1c                     ; 0x201c <_ZN12_GLOBAL__N_112print_stringEPKcP6Status+0xf4>
    12c2: e4 16        	cpx	$16                     ; 0x2016 <_ZN12_GLOBAL__N_112print_stringEPKcP6Status+0xee>
    12c4: 90 18        	bcc	$12de <main+0xd89>
    12c6: aa           	tax
    12c7: f0 03        	beq	$12cc <main+0xd77>
    12c9: 4c 63 13     	jmp	$1363 <main+0xe0e>
    12cc: a6 1d        	ldx	$1d                     ; 0x201d <_ZN12_GLOBAL__N_112print_stringEPKcP6Status+0xf5>
    12ce: e4 1c        	cpx	$1c                     ; 0x201c <_ZN12_GLOBAL__N_112print_stringEPKcP6Status+0xf4>
    12d0: b0 03        	bcs	$12d5 <main+0xd80>
    12d2: 4c 6a 13     	jmp	$136a <main+0xe15>
    12d5: 4c e6 13     	jmp	$13e6 <main+0xe91>
    12d8: 85 17        	sta	$17                     ; 0x2017 <_ZN12_GLOBAL__N_112print_stringEPKcP6Status+0xef>
    12da: e4 17        	cpx	$17                     ; 0x2017 <_ZN12_GLOBAL__N_112print_stringEPKcP6Status+0xef>
    12dc: b0 e8        	bcs	$12c6 <main+0xd71>
    12de: a0 f8        	ldy	#$f8
    12e0: 18           	clc
    12e1: a5 19        	lda	$19                     ; 0x2019 <_ZN12_GLOBAL__N_112print_stringEPKcP6Status+0xf1>
    12e3: 69 28        	adc	#$28
    12e5: 85 16        	sta	$16                     ; 0x2016 <_ZN12_GLOBAL__N_112print_stringEPKcP6Status+0xee>
    12e7: 85 19        	sta	$19                     ; 0x2019 <_ZN12_GLOBAL__N_112print_stringEPKcP6Status+0xf1>
    12e9: a5 1a        	lda	$1a                     ; 0x201a <_ZN12_GLOBAL__N_112print_stringEPKcP6Status+0xf2>
    12eb: 0a           	asl
    12ec: 0a           	asl
    12ed: 0a           	asl
    12ee: 18           	clc
    12ef: 85 1e        	sta	$1e                     ; 0x201e <_ZN12_GLOBAL__N_112print_stringEPKcP6Status+0xf6>
    12f1: 69 3c        	adc	#$3c
    12f3: 85 1f        	sta	$1f                     ; 0x201f <_ZN12_GLOBAL__N_112print_stringEPKcP6Status+0xf7>
    12f5: 38           	sec
    12f6: a5 1d        	lda	$1d                     ; 0x201d <_ZN12_GLOBAL__N_112print_stringEPKcP6Status+0xf5>
    12f8: e5 1c        	sbc	$1c                     ; 0x201c <_ZN12_GLOBAL__N_112print_stringEPKcP6Status+0xf4>
    12fa: 85 17        	sta	$17                     ; 0x2017 <_ZN12_GLOBAL__N_112print_stringEPKcP6Status+0xef>
    12fc: a2 2a        	ldx	#$2a
    12fe: 8e 40 dd     	stx	$dd40                   ; 0xdd40 <__heap_start+0x7f5a>
    1301: 9c 41 dd     	stz	$dd41                   ; 0xdd41 <__heap_start+0x7f5b>
    1304: a6 1f        	ldx	$1f                     ; 0x201f <_ZN12_GLOBAL__N_112print_stringEPKcP6Status+0xf7>
    1306: 8e 41 dd     	stx	$dd41                   ; 0xdd41 <__heap_start+0x7f5b>
    1309: 9c 41 dd     	stz	$dd41                   ; 0xdd41 <__heap_start+0x7f5b>
    130c: 18           	clc
    130d: a5 1e        	lda	$1e                     ; 0x201e <_ZN12_GLOBAL__N_112print_stringEPKcP6Status+0xf6>
    130f: 69 3d        	adc	#$3d
    1311: 8d 41 dd     	sta	$dd41                   ; 0xdd41 <__heap_start+0x7f5b>
    1314: a2 2b        	ldx	#$2b
    1316: 8e 40 dd     	stx	$dd40                   ; 0xdd40 <__heap_start+0x7f5a>
    1319: 9c 41 dd     	stz	$dd41                   ; 0xdd41 <__heap_start+0x7f5b>
    131c: 18           	clc
    131d: a5 19        	lda	$19                     ; 0x2019 <_ZN12_GLOBAL__N_112print_stringEPKcP6Status+0xf1>
    131f: 69 14        	adc	#$14
    1321: 8d 41 dd     	sta	$dd41                   ; 0xdd41 <__heap_start+0x7f5b>
    1324: 18           	clc
    1325: a5 17        	lda	$17                     ; 0x2017 <_ZN12_GLOBAL__N_112print_stringEPKcP6Status+0xef>
    1327: 65 16        	adc	$16                     ; 0x2016 <_ZN12_GLOBAL__N_112print_stringEPKcP6Status+0xee>
    1329: 8d 41 dd     	sta	$dd41                   ; 0xdd41 <__heap_start+0x7f5b>
    132c: 29 fe        	and	#$fe
    132e: 8d 41 dd     	sta	$dd41                   ; 0xdd41 <__heap_start+0x7f5b>
    1331: a5 15        	lda	$15                     ; 0x2015 <_ZN12_GLOBAL__N_112print_stringEPKcP6Status+0xed>
    1333: 09 01        	ora	#$1
    1335: 38           	sec
    1336: e5 13        	sbc	$13                     ; 0x2013 <_ZN12_GLOBAL__N_112print_stringEPKcP6Status+0xeb>
    1338: 85 15        	sta	$15                     ; 0x2015 <_ZN12_GLOBAL__N_112print_stringEPKcP6Status+0xed>
    133a: a5 14        	lda	$14                     ; 0x2014 <_ZN12_GLOBAL__N_112print_stringEPKcP6Status+0xec>
    133c: e5 12        	sbc	$12                     ; 0x2012 <_ZN12_GLOBAL__N_112print_stringEPKcP6Status+0xea>
    133e: e8           	inx
    133f: 8e 40 dd     	stx	$dd40                   ; 0xdd40 <__heap_start+0x7f5a>
    1342: 9c 42 dd     	stz	$dd42                   ; 0xdd42 <__heap_start+0x7f5c>
    1345: 8c 43 dd     	sty	$dd43                   ; 0xdd43 <__heap_start+0x7f5d>
    1348: a6 15        	ldx	$15                     ; 0x2015 <_ZN12_GLOBAL__N_112print_stringEPKcP6Status+0xed>
    134a: 86 14        	stx	$14                     ; 0x2014 <_ZN12_GLOBAL__N_112print_stringEPKcP6Status+0xec>
    134c: a2 ff        	ldx	#$ff
    134e: c6 14        	dec	$14                     ; 0x2014 <_ZN12_GLOBAL__N_112print_stringEPKcP6Status+0xec>
    1350: e4 14        	cpx	$14                     ; 0x2014 <_ZN12_GLOBAL__N_112print_stringEPKcP6Status+0xec>
    1352: d0 01        	bne	$1355 <main+0xe00>
    1354: 3a           	dec
    1355: a6 14        	ldx	$14                     ; 0x2014 <_ZN12_GLOBAL__N_112print_stringEPKcP6Status+0xec>
    1357: 86 15        	stx	$15                     ; 0x2015 <_ZN12_GLOBAL__N_112print_stringEPKcP6Status+0xed>
    1359: aa           	tax
    135a: d0 e6        	bne	$1342 <main+0xded>
    135c: a6 14        	ldx	$14                     ; 0x2014 <_ZN12_GLOBAL__N_112print_stringEPKcP6Status+0xec>
    135e: d0 e2        	bne	$1342 <main+0xded>
    1360: 4c e6 13     	jmp	$13e6 <main+0xe91>
    1363: c9 00        	cmp	#$0
    1365: 90 03        	bcc	$136a <main+0xe15>
    1367: 4c e6 13     	jmp	$13e6 <main+0xe91>
    136a: 18           	clc
    136b: 98           	tya
    136c: 69 28        	adc	#$28
    136e: 85 17        	sta	$17                     ; 0x2017 <_ZN12_GLOBAL__N_112print_stringEPKcP6Status+0xef>
    1370: a8           	tay
    1371: a5 1a        	lda	$1a                     ; 0x201a <_ZN12_GLOBAL__N_112print_stringEPKcP6Status+0xf2>
    1373: 0a           	asl
    1374: 0a           	asl
    1375: 0a           	asl
    1376: 18           	clc
    1377: 85 19        	sta	$19                     ; 0x2019 <_ZN12_GLOBAL__N_112print_stringEPKcP6Status+0xf1>
    1379: 69 3c        	adc	#$3c
    137b: 85 1d        	sta	$1d                     ; 0x201d <_ZN12_GLOBAL__N_112print_stringEPKcP6Status+0xf5>
    137d: 38           	sec
    137e: a5 1c        	lda	$1c                     ; 0x201c <_ZN12_GLOBAL__N_112print_stringEPKcP6Status+0xf4>
    1380: e5 16        	sbc	$16                     ; 0x2016 <_ZN12_GLOBAL__N_112print_stringEPKcP6Status+0xee>
    1382: 85 16        	sta	$16                     ; 0x2016 <_ZN12_GLOBAL__N_112print_stringEPKcP6Status+0xee>
    1384: a2 2a        	ldx	#$2a
    1386: 8e 40 dd     	stx	$dd40                   ; 0xdd40 <__heap_start+0x7f5a>
    1389: 9c 41 dd     	stz	$dd41                   ; 0xdd41 <__heap_start+0x7f5b>
    138c: a6 1d        	ldx	$1d                     ; 0x201d <_ZN12_GLOBAL__N_112print_stringEPKcP6Status+0xf5>
    138e: 8e 41 dd     	stx	$dd41                   ; 0xdd41 <__heap_start+0x7f5b>
    1391: 9c 41 dd     	stz	$dd41                   ; 0xdd41 <__heap_start+0x7f5b>
    1394: 18           	clc
    1395: a5 19        	lda	$19                     ; 0x2019 <_ZN12_GLOBAL__N_112print_stringEPKcP6Status+0xf1>
    1397: 69 3d        	adc	#$3d
    1399: 8d 41 dd     	sta	$dd41                   ; 0xdd41 <__heap_start+0x7f5b>
    139c: a2 2b        	ldx	#$2b
    139e: 8e 40 dd     	stx	$dd40                   ; 0xdd40 <__heap_start+0x7f5a>
    13a1: 9c 41 dd     	stz	$dd41                   ; 0xdd41 <__heap_start+0x7f5b>
    13a4: 18           	clc
    13a5: 98           	tya
    13a6: 69 14        	adc	#$14
    13a8: 8d 41 dd     	sta	$dd41                   ; 0xdd41 <__heap_start+0x7f5b>
    13ab: 18           	clc
    13ac: a5 16        	lda	$16                     ; 0x2016 <_ZN12_GLOBAL__N_112print_stringEPKcP6Status+0xee>
    13ae: 65 17        	adc	$17                     ; 0x2017 <_ZN12_GLOBAL__N_112print_stringEPKcP6Status+0xef>
    13b0: 8d 41 dd     	sta	$dd41                   ; 0xdd41 <__heap_start+0x7f5b>
    13b3: 29 fe        	and	#$fe
    13b5: 8d 41 dd     	sta	$dd41                   ; 0xdd41 <__heap_start+0x7f5b>
    13b8: a5 13        	lda	$13                     ; 0x2013 <_ZN12_GLOBAL__N_112print_stringEPKcP6Status+0xeb>
    13ba: 09 01        	ora	#$1
    13bc: 38           	sec
    13bd: e5 15        	sbc	$15                     ; 0x2015 <_ZN12_GLOBAL__N_112print_stringEPKcP6Status+0xed>
    13bf: a8           	tay
    13c0: a5 12        	lda	$12                     ; 0x2012 <_ZN12_GLOBAL__N_112print_stringEPKcP6Status+0xea>
    13c2: e5 14        	sbc	$14                     ; 0x2014 <_ZN12_GLOBAL__N_112print_stringEPKcP6Status+0xec>
    13c4: e8           	inx
    13c5: 8e 40 dd     	stx	$dd40                   ; 0xdd40 <__heap_start+0x7f5a>
    13c8: a2 e0        	ldx	#$e0
    13ca: 8e 42 dd     	stx	$dd42                   ; 0xdd42 <__heap_start+0x7f5c>
    13cd: a2 07        	ldx	#$7
    13cf: 8e 43 dd     	stx	$dd43                   ; 0xdd43 <__heap_start+0x7f5d>
    13d2: 84 14        	sty	$14                     ; 0x2014 <_ZN12_GLOBAL__N_112print_stringEPKcP6Status+0xec>
    13d4: a2 ff        	ldx	#$ff
    13d6: c6 14        	dec	$14                     ; 0x2014 <_ZN12_GLOBAL__N_112print_stringEPKcP6Status+0xec>
    13d8: e4 14        	cpx	$14                     ; 0x2014 <_ZN12_GLOBAL__N_112print_stringEPKcP6Status+0xec>
    13da: d0 01        	bne	$13dd <main+0xe88>
    13dc: 3a           	dec
    13dd: a4 14        	ldy	$14                     ; 0x2014 <_ZN12_GLOBAL__N_112print_stringEPKcP6Status+0xec>
    13df: aa           	tax
    13e0: d0 e6        	bne	$13c8 <main+0xe73>
    13e2: a6 14        	ldx	$14                     ; 0x2014 <_ZN12_GLOBAL__N_112print_stringEPKcP6Status+0xec>
    13e4: d0 e2        	bne	$13c8 <main+0xe73>
    13e6: a6 01        	ldx	$1                      ; 0x2001 <_ZN12_GLOBAL__N_112print_stringEPKcP6Status+0xd9>
    13e8: a0 02        	ldy	#$2
    13ea: 84 01        	sty	$1                      ; 0x2001 <_ZN12_GLOBAL__N_112print_stringEPKcP6Status+0xd9>
    13ec: a4 1b        	ldy	$1b                     ; 0x201b <_ZN12_GLOBAL__N_112print_stringEPKcP6Status+0xf3>
    13ee: 84 14        	sty	$14                     ; 0x2014 <_ZN12_GLOBAL__N_112print_stringEPKcP6Status+0xec>
    13f0: 5a           	phy
    13f1: a0 15        	ldy	#$15
    13f3: b1 10        	lda	($10),y                 ; 0x2010 <_ZN12_GLOBAL__N_112print_stringEPKcP6Status+0xe8>
    13f5: 18           	clc
    13f6: 65 14        	adc	$14                     ; 0x2014 <_ZN12_GLOBAL__N_112print_stringEPKcP6Status+0xec>
    13f8: 85 16        	sta	$16                     ; 0x2016 <_ZN12_GLOBAL__N_112print_stringEPKcP6Status+0xee>
    13fa: 88           	dey
    13fb: b1 10        	lda	($10),y                 ; 0x2010 <_ZN12_GLOBAL__N_112print_stringEPKcP6Status+0xe8>
    13fd: 7a           	ply
    13fe: 69 00        	adc	#$0
    1400: 5a           	phy
    1401: a4 16        	ldy	$16                     ; 0x2016 <_ZN12_GLOBAL__N_112print_stringEPKcP6Status+0xee>
    1403: 84 14        	sty	$14                     ; 0x2014 <_ZN12_GLOBAL__N_112print_stringEPKcP6Status+0xec>
    1405: 7a           	ply
    1406: 85 15        	sta	$15                     ; 0x2015 <_ZN12_GLOBAL__N_112print_stringEPKcP6Status+0xed>
    1408: b1 2a        	lda	($2a),y                 ; 0x202a <_ZN12_GLOBAL__N_112print_stringEPKcP6Status+0x102>
    140a: 85 1d        	sta	$1d                     ; 0x201d <_ZN12_GLOBAL__N_112print_stringEPKcP6Status+0xf5>
    140c: 85 17        	sta	$17                     ; 0x2017 <_ZN12_GLOBAL__N_112print_stringEPKcP6Status+0xef>
    140e: a0 01        	ldy	#$1
    1410: b1 14        	lda	($14),y                 ; 0x2014 <_ZN12_GLOBAL__N_112print_stringEPKcP6Status+0xec>
    1412: 85 16        	sta	$16                     ; 0x2016 <_ZN12_GLOBAL__N_112print_stringEPKcP6Status+0xee>
    1414: d0 1b        	bne	$1431 <main+0xedc>
    1416: a4 1d        	ldy	$1d                     ; 0x201d <_ZN12_GLOBAL__N_112print_stringEPKcP6Status+0xf5>
    1418: c4 1c        	cpy	$1c                     ; 0x201c <_ZN12_GLOBAL__N_112print_stringEPKcP6Status+0xf4>
    141a: 90 19        	bcc	$1435 <main+0xee0>
    141c: a0 00        	ldy	#$0
    141e: c4 16        	cpy	$16                     ; 0x2016 <_ZN12_GLOBAL__N_112print_stringEPKcP6Status+0xee>
    1420: f0 03        	beq	$1425 <main+0xed0>
    1422: 4c 2b 15     	jmp	$152b <main+0xfd6>
    1425: a4 1c        	ldy	$1c                     ; 0x201c <_ZN12_GLOBAL__N_112print_stringEPKcP6Status+0xf4>
    1427: c4 17        	cpy	$17                     ; 0x2017 <_ZN12_GLOBAL__N_112print_stringEPKcP6Status+0xef>
    1429: 90 03        	bcc	$142e <main+0xed9>
    142b: 4c db 14     	jmp	$14db <main+0xf86>
    142e: 4c 32 15     	jmp	$1532 <main+0xfdd>
    1431: c9 00        	cmp	#$0
    1433: b0 e7        	bcs	$141c <main+0xec7>
    1435: 38           	sec
    1436: a5 1c        	lda	$1c                     ; 0x201c <_ZN12_GLOBAL__N_112print_stringEPKcP6Status+0xf4>
    1438: e5 17        	sbc	$17                     ; 0x2017 <_ZN12_GLOBAL__N_112print_stringEPKcP6Status+0xef>
    143a: a8           	tay
    143b: a9 00        	lda	#$0
    143d: e5 16        	sbc	$16                     ; 0x2016 <_ZN12_GLOBAL__N_112print_stringEPKcP6Status+0xee>
    143f: 85 19        	sta	$19                     ; 0x2019 <_ZN12_GLOBAL__N_112print_stringEPKcP6Status+0xf1>
    1441: a5 17        	lda	$17                     ; 0x2017 <_ZN12_GLOBAL__N_112print_stringEPKcP6Status+0xef>
    1443: 0a           	asl
    1444: 26 16        	rol	$16                     ; 0x2016 <_ZN12_GLOBAL__N_112print_stringEPKcP6Status+0xee>
    1446: 0a           	asl
    1447: 26 16        	rol	$16                     ; 0x2016 <_ZN12_GLOBAL__N_112print_stringEPKcP6Status+0xee>
    1449: 0a           	asl
    144a: 26 16        	rol	$16                     ; 0x2016 <_ZN12_GLOBAL__N_112print_stringEPKcP6Status+0xee>
    144c: 0a           	asl
    144d: 85 12        	sta	$12                     ; 0x2012 <_ZN12_GLOBAL__N_112print_stringEPKcP6Status+0xea>
    144f: 26 16        	rol	$16                     ; 0x2016 <_ZN12_GLOBAL__N_112print_stringEPKcP6Status+0xee>
    1451: 0a           	asl
    1452: 5a           	phy
    1453: a4 16        	ldy	$16                     ; 0x2016 <_ZN12_GLOBAL__N_112print_stringEPKcP6Status+0xee>
    1455: 84 13        	sty	$13                     ; 0x2013 <_ZN12_GLOBAL__N_112print_stringEPKcP6Status+0xeb>
    1457: 7a           	ply
    1458: 26 13        	rol	$13                     ; 0x2013 <_ZN12_GLOBAL__N_112print_stringEPKcP6Status+0xeb>
    145a: 0a           	asl
    145b: 26 13        	rol	$13                     ; 0x2013 <_ZN12_GLOBAL__N_112print_stringEPKcP6Status+0xeb>
    145d: 18           	clc
    145e: 65 12        	adc	$12                     ; 0x2012 <_ZN12_GLOBAL__N_112print_stringEPKcP6Status+0xea>
    1460: 85 12        	sta	$12                     ; 0x2012 <_ZN12_GLOBAL__N_112print_stringEPKcP6Status+0xea>
    1462: a5 13        	lda	$13                     ; 0x2013 <_ZN12_GLOBAL__N_112print_stringEPKcP6Status+0xeb>
    1464: 65 16        	adc	$16                     ; 0x2016 <_ZN12_GLOBAL__N_112print_stringEPKcP6Status+0xee>
    1466: 85 13        	sta	$13                     ; 0x2013 <_ZN12_GLOBAL__N_112print_stringEPKcP6Status+0xeb>
    1468: 38           	sec
    1469: 5a           	phy
    146a: a0 1b        	ldy	#$1b
    146c: b1 10        	lda	($10),y                 ; 0x2010 <_ZN12_GLOBAL__N_112print_stringEPKcP6Status+0xe8>
    146e: e5 12        	sbc	$12                     ; 0x2012 <_ZN12_GLOBAL__N_112print_stringEPKcP6Status+0xea>
    1470: 85 1d        	sta	$1d                     ; 0x201d <_ZN12_GLOBAL__N_112print_stringEPKcP6Status+0xf5>
    1472: a0 18        	ldy	#$18
    1474: b1 10        	lda	($10),y                 ; 0x2010 <_ZN12_GLOBAL__N_112print_stringEPKcP6Status+0xe8>
    1476: e5 13        	sbc	$13                     ; 0x2013 <_ZN12_GLOBAL__N_112print_stringEPKcP6Status+0xeb>
    1478: 85 1e        	sta	$1e                     ; 0x201e <_ZN12_GLOBAL__N_112print_stringEPKcP6Status+0xf6>
    147a: 38           	sec
    147b: a0 1a        	ldy	#$1a
    147d: b1 10        	lda	($10),y                 ; 0x2010 <_ZN12_GLOBAL__N_112print_stringEPKcP6Status+0xe8>
    147f: e5 12        	sbc	$12                     ; 0x2012 <_ZN12_GLOBAL__N_112print_stringEPKcP6Status+0xea>
    1481: 85 1f        	sta	$1f                     ; 0x201f <_ZN12_GLOBAL__N_112print_stringEPKcP6Status+0xf7>
    1483: 88           	dey
    1484: b1 10        	lda	($10),y                 ; 0x2010 <_ZN12_GLOBAL__N_112print_stringEPKcP6Status+0xe8>
    1486: 7a           	ply
    1487: e5 13        	sbc	$13                     ; 0x2013 <_ZN12_GLOBAL__N_112print_stringEPKcP6Status+0xeb>
    1489: 85 16        	sta	$16                     ; 0x2016 <_ZN12_GLOBAL__N_112print_stringEPKcP6Status+0xee>
    148b: a5 1f        	lda	$1f                     ; 0x201f <_ZN12_GLOBAL__N_112print_stringEPKcP6Status+0xf7>
    148d: 85 12        	sta	$12                     ; 0x2012 <_ZN12_GLOBAL__N_112print_stringEPKcP6Status+0xea>
    148f: a5 16        	lda	$16                     ; 0x2016 <_ZN12_GLOBAL__N_112print_stringEPKcP6Status+0xee>
    1491: 85 22        	sta	$22                     ; 0x2022 <_ZN12_GLOBAL__N_112print_stringEPKcP6Status+0xfa>
    1493: a5 16        	lda	$16                     ; 0x2016 <_ZN12_GLOBAL__N_112print_stringEPKcP6Status+0xee>
    1495: 85 13        	sta	$13                     ; 0x2013 <_ZN12_GLOBAL__N_112print_stringEPKcP6Status+0xeb>
    1497: a5 1d        	lda	$1d                     ; 0x201d <_ZN12_GLOBAL__N_112print_stringEPKcP6Status+0xf5>
    1499: 85 16        	sta	$16                     ; 0x2016 <_ZN12_GLOBAL__N_112print_stringEPKcP6Status+0xee>
    149b: a5 1e        	lda	$1e                     ; 0x201e <_ZN12_GLOBAL__N_112print_stringEPKcP6Status+0xf6>
    149d: 85 17        	sta	$17                     ; 0x2017 <_ZN12_GLOBAL__N_112print_stringEPKcP6Status+0xef>
    149f: a9 15        	lda	#$15
    14a1: 92 12        	sta	($12)                   ; 0x2012 <_ZN12_GLOBAL__N_112print_stringEPKcP6Status+0xea>
    14a3: 92 16        	sta	($16)                   ; 0x2016 <_ZN12_GLOBAL__N_112print_stringEPKcP6Status+0xee>
    14a5: 84 12        	sty	$12                     ; 0x2012 <_ZN12_GLOBAL__N_112print_stringEPKcP6Status+0xea>
    14a7: a4 19        	ldy	$19                     ; 0x2019 <_ZN12_GLOBAL__N_112print_stringEPKcP6Status+0xf1>
    14a9: 84 13        	sty	$13                     ; 0x2013 <_ZN12_GLOBAL__N_112print_stringEPKcP6Status+0xeb>
    14ab: a0 ff        	ldy	#$ff
    14ad: c6 12        	dec	$12                     ; 0x2012 <_ZN12_GLOBAL__N_112print_stringEPKcP6Status+0xea>
    14af: c4 12        	cpy	$12                     ; 0x2012 <_ZN12_GLOBAL__N_112print_stringEPKcP6Status+0xea>
    14b1: d0 02        	bne	$14b5 <main+0xf60>
    14b3: c6 13        	dec	$13                     ; 0x2013 <_ZN12_GLOBAL__N_112print_stringEPKcP6Status+0xeb>
    14b5: 18           	clc
    14b6: a5 1d        	lda	$1d                     ; 0x201d <_ZN12_GLOBAL__N_112print_stringEPKcP6Status+0xf5>
    14b8: 69 b0        	adc	#$b0
    14ba: 85 1d        	sta	$1d                     ; 0x201d <_ZN12_GLOBAL__N_112print_stringEPKcP6Status+0xf5>
    14bc: a5 1e        	lda	$1e                     ; 0x201e <_ZN12_GLOBAL__N_112print_stringEPKcP6Status+0xf6>
    14be: 69 ff        	adc	#$ff
    14c0: 85 1e        	sta	$1e                     ; 0x201e <_ZN12_GLOBAL__N_112print_stringEPKcP6Status+0xf6>
    14c2: 18           	clc
    14c3: a5 1f        	lda	$1f                     ; 0x201f <_ZN12_GLOBAL__N_112print_stringEPKcP6Status+0xf7>
    14c5: 69 b0        	adc	#$b0
    14c7: 85 1f        	sta	$1f                     ; 0x201f <_ZN12_GLOBAL__N_112print_stringEPKcP6Status+0xf7>
    14c9: a5 22        	lda	$22                     ; 0x2022 <_ZN12_GLOBAL__N_112print_stringEPKcP6Status+0xfa>
    14cb: 69 ff        	adc	#$ff
    14cd: 85 16        	sta	$16                     ; 0x2016 <_ZN12_GLOBAL__N_112print_stringEPKcP6Status+0xee>
    14cf: a4 12        	ldy	$12                     ; 0x2012 <_ZN12_GLOBAL__N_112print_stringEPKcP6Status+0xea>
    14d1: a5 13        	lda	$13                     ; 0x2013 <_ZN12_GLOBAL__N_112print_stringEPKcP6Status+0xeb>
    14d3: 85 19        	sta	$19                     ; 0x2019 <_ZN12_GLOBAL__N_112print_stringEPKcP6Status+0xf1>
    14d5: d0 b4        	bne	$148b <main+0xf36>
    14d7: a5 12        	lda	$12                     ; 0x2012 <_ZN12_GLOBAL__N_112print_stringEPKcP6Status+0xea>
    14d9: d0 b0        	bne	$148b <main+0xf36>
    14db: 86 01        	stx	$1                      ; 0x2001 <_ZN12_GLOBAL__N_112print_stringEPKcP6Status+0xd9>
    14dd: a4 1b        	ldy	$1b                     ; 0x201b <_ZN12_GLOBAL__N_112print_stringEPKcP6Status+0xf3>
    14df: a5 1c        	lda	$1c                     ; 0x201c <_ZN12_GLOBAL__N_112print_stringEPKcP6Status+0xf4>
    14e1: 91 2a        	sta	($2a),y                 ; 0x202a <_ZN12_GLOBAL__N_112print_stringEPKcP6Status+0x102>
    14e3: a9 00        	lda	#$0
    14e5: a0 01        	ldy	#$1
    14e7: 91 14        	sta	($14),y                 ; 0x2014 <_ZN12_GLOBAL__N_112print_stringEPKcP6Status+0xec>
    14e9: a6 1a        	ldx	$1a                     ; 0x201a <_ZN12_GLOBAL__N_112print_stringEPKcP6Status+0xf2>
    14eb: e8           	inx
    14ec: d0 02        	bne	$14f0 <main+0xf9b>
    14ee: e6 18        	inc	$18                     ; 0x2018 <_ZN12_GLOBAL__N_112print_stringEPKcP6Status+0xf0>
    14f0: 18           	clc
    14f1: a5 1b        	lda	$1b                     ; 0x201b <_ZN12_GLOBAL__N_112print_stringEPKcP6Status+0xf3>
    14f3: 69 02        	adc	#$2
    14f5: a8           	tay
    14f6: 18           	clc
    14f7: 5a           	phy
    14f8: a0 1b        	ldy	#$1b
    14fa: b1 10        	lda	($10),y                 ; 0x2010 <_ZN12_GLOBAL__N_112print_stringEPKcP6Status+0xe8>
    14fc: 69 03        	adc	#$3
    14fe: 91 10        	sta	($10),y                 ; 0x2010 <_ZN12_GLOBAL__N_112print_stringEPKcP6Status+0xe8>
    1500: a0 18        	ldy	#$18
    1502: b1 10        	lda	($10),y                 ; 0x2010 <_ZN12_GLOBAL__N_112print_stringEPKcP6Status+0xe8>
    1504: 69 00        	adc	#$0
    1506: 91 10        	sta	($10),y                 ; 0x2010 <_ZN12_GLOBAL__N_112print_stringEPKcP6Status+0xe8>
    1508: 18           	clc
    1509: a0 1a        	ldy	#$1a
    150b: b1 10        	lda	($10),y                 ; 0x2010 <_ZN12_GLOBAL__N_112print_stringEPKcP6Status+0xe8>
    150d: 69 03        	adc	#$3
    150f: 91 10        	sta	($10),y                 ; 0x2010 <_ZN12_GLOBAL__N_112print_stringEPKcP6Status+0xe8>
    1511: 88           	dey
    1512: b1 10        	lda	($10),y                 ; 0x2010 <_ZN12_GLOBAL__N_112print_stringEPKcP6Status+0xe8>
    1514: 69 00        	adc	#$0
    1516: 91 10        	sta	($10),y                 ; 0x2010 <_ZN12_GLOBAL__N_112print_stringEPKcP6Status+0xe8>
    1518: 7a           	ply
    1519: 98           	tya
    151a: a4 18        	ldy	$18                     ; 0x2018 <_ZN12_GLOBAL__N_112print_stringEPKcP6Status+0xf0>
    151c: f0 03        	beq	$1521 <main+0xfcc>
    151e: 4c 46 12     	jmp	$1246 <main+0xcf1>
    1521: e0 0f        	cpx	#$f
    1523: f0 03        	beq	$1528 <main+0xfd3>
    1525: 4c 46 12     	jmp	$1246 <main+0xcf1>
    1528: 4c db 15     	jmp	$15db <main+0x1086>
    152b: c4 16        	cpy	$16                     ; 0x2016 <_ZN12_GLOBAL__N_112print_stringEPKcP6Status+0xee>
    152d: 90 03        	bcc	$1532 <main+0xfdd>
    152f: 4c db 14     	jmp	$14db <main+0xf86>
    1532: a4 1c        	ldy	$1c                     ; 0x201c <_ZN12_GLOBAL__N_112print_stringEPKcP6Status+0xf4>
    1534: c0 18        	cpy	#$18
    1536: 90 03        	bcc	$153b <main+0xfe6>
    1538: 4c db 14     	jmp	$14db <main+0xf86>
    153b: 18           	clc
    153c: a5 1c        	lda	$1c                     ; 0x201c <_ZN12_GLOBAL__N_112print_stringEPKcP6Status+0xf4>
    153e: 69 e8        	adc	#$e8
    1540: a8           	tay
    1541: a9 00        	lda	#$0
    1543: 69 ff        	adc	#$ff
    1545: 85 19        	sta	$19                     ; 0x2019 <_ZN12_GLOBAL__N_112print_stringEPKcP6Status+0xf1>
    1547: 06 13        	asl	$13                     ; 0x2013 <_ZN12_GLOBAL__N_112print_stringEPKcP6Status+0xeb>
    1549: 26 12        	rol	$12                     ; 0x2012 <_ZN12_GLOBAL__N_112print_stringEPKcP6Status+0xea>
    154b: 06 13        	asl	$13                     ; 0x2013 <_ZN12_GLOBAL__N_112print_stringEPKcP6Status+0xeb>
    154d: 26 12        	rol	$12                     ; 0x2012 <_ZN12_GLOBAL__N_112print_stringEPKcP6Status+0xea>
    154f: a5 13        	lda	$13                     ; 0x2013 <_ZN12_GLOBAL__N_112print_stringEPKcP6Status+0xeb>
    1551: 0a           	asl
    1552: 85 16        	sta	$16                     ; 0x2016 <_ZN12_GLOBAL__N_112print_stringEPKcP6Status+0xee>
    1554: a5 12        	lda	$12                     ; 0x2012 <_ZN12_GLOBAL__N_112print_stringEPKcP6Status+0xea>
    1556: 2a           	rol
    1557: 06 16        	asl	$16                     ; 0x2016 <_ZN12_GLOBAL__N_112print_stringEPKcP6Status+0xee>
    1559: 2a           	rol
    155a: 85 17        	sta	$17                     ; 0x2017 <_ZN12_GLOBAL__N_112print_stringEPKcP6Status+0xef>
    155c: 18           	clc
    155d: a5 16        	lda	$16                     ; 0x2016 <_ZN12_GLOBAL__N_112print_stringEPKcP6Status+0xee>
    155f: 65 13        	adc	$13                     ; 0x2013 <_ZN12_GLOBAL__N_112print_stringEPKcP6Status+0xeb>
    1561: 85 13        	sta	$13                     ; 0x2013 <_ZN12_GLOBAL__N_112print_stringEPKcP6Status+0xeb>
    1563: a5 17        	lda	$17                     ; 0x2017 <_ZN12_GLOBAL__N_112print_stringEPKcP6Status+0xef>
    1565: 65 12        	adc	$12                     ; 0x2012 <_ZN12_GLOBAL__N_112print_stringEPKcP6Status+0xea>
    1567: 85 12        	sta	$12                     ; 0x2012 <_ZN12_GLOBAL__N_112print_stringEPKcP6Status+0xea>
    1569: 38           	sec
    156a: 5a           	phy
    156b: a0 1b        	ldy	#$1b
    156d: b1 10        	lda	($10),y                 ; 0x2010 <_ZN12_GLOBAL__N_112print_stringEPKcP6Status+0xe8>
    156f: e5 13        	sbc	$13                     ; 0x2013 <_ZN12_GLOBAL__N_112print_stringEPKcP6Status+0xeb>
    1571: 85 1d        	sta	$1d                     ; 0x201d <_ZN12_GLOBAL__N_112print_stringEPKcP6Status+0xf5>
    1573: a0 18        	ldy	#$18
    1575: b1 10        	lda	($10),y                 ; 0x2010 <_ZN12_GLOBAL__N_112print_stringEPKcP6Status+0xe8>
    1577: e5 12        	sbc	$12                     ; 0x2012 <_ZN12_GLOBAL__N_112print_stringEPKcP6Status+0xea>
    1579: 85 1e        	sta	$1e                     ; 0x201e <_ZN12_GLOBAL__N_112print_stringEPKcP6Status+0xf6>
    157b: 38           	sec
    157c: a0 1a        	ldy	#$1a
    157e: b1 10        	lda	($10),y                 ; 0x2010 <_ZN12_GLOBAL__N_112print_stringEPKcP6Status+0xe8>
    1580: e5 13        	sbc	$13                     ; 0x2013 <_ZN12_GLOBAL__N_112print_stringEPKcP6Status+0xeb>
    1582: 85 1f        	sta	$1f                     ; 0x201f <_ZN12_GLOBAL__N_112print_stringEPKcP6Status+0xf7>
    1584: 88           	dey
    1585: b1 10        	lda	($10),y                 ; 0x2010 <_ZN12_GLOBAL__N_112print_stringEPKcP6Status+0xe8>
    1587: 7a           	ply
    1588: e5 12        	sbc	$12                     ; 0x2012 <_ZN12_GLOBAL__N_112print_stringEPKcP6Status+0xea>
    158a: 85 16        	sta	$16                     ; 0x2016 <_ZN12_GLOBAL__N_112print_stringEPKcP6Status+0xee>
    158c: a5 1f        	lda	$1f                     ; 0x201f <_ZN12_GLOBAL__N_112print_stringEPKcP6Status+0xf7>
    158e: 85 12        	sta	$12                     ; 0x2012 <_ZN12_GLOBAL__N_112print_stringEPKcP6Status+0xea>
    1590: a5 16        	lda	$16                     ; 0x2016 <_ZN12_GLOBAL__N_112print_stringEPKcP6Status+0xee>
    1592: 85 22        	sta	$22                     ; 0x2022 <_ZN12_GLOBAL__N_112print_stringEPKcP6Status+0xfa>
    1594: a5 16        	lda	$16                     ; 0x2016 <_ZN12_GLOBAL__N_112print_stringEPKcP6Status+0xee>
    1596: 85 13        	sta	$13                     ; 0x2013 <_ZN12_GLOBAL__N_112print_stringEPKcP6Status+0xeb>
    1598: a5 1d        	lda	$1d                     ; 0x201d <_ZN12_GLOBAL__N_112print_stringEPKcP6Status+0xf5>
    159a: 85 16        	sta	$16                     ; 0x2016 <_ZN12_GLOBAL__N_112print_stringEPKcP6Status+0xee>
    159c: a5 1e        	lda	$1e                     ; 0x201e <_ZN12_GLOBAL__N_112print_stringEPKcP6Status+0xf6>
    159e: 85 17        	sta	$17                     ; 0x2017 <_ZN12_GLOBAL__N_112print_stringEPKcP6Status+0xef>
    15a0: a9 20        	lda	#$20
    15a2: 92 12        	sta	($12)                   ; 0x2012 <_ZN12_GLOBAL__N_112print_stringEPKcP6Status+0xea>
    15a4: 92 16        	sta	($16)                   ; 0x2016 <_ZN12_GLOBAL__N_112print_stringEPKcP6Status+0xee>
    15a6: 84 12        	sty	$12                     ; 0x2012 <_ZN12_GLOBAL__N_112print_stringEPKcP6Status+0xea>
    15a8: a4 19        	ldy	$19                     ; 0x2019 <_ZN12_GLOBAL__N_112print_stringEPKcP6Status+0xf1>
    15aa: 84 13        	sty	$13                     ; 0x2013 <_ZN12_GLOBAL__N_112print_stringEPKcP6Status+0xeb>
    15ac: e6 12        	inc	$12                     ; 0x2012 <_ZN12_GLOBAL__N_112print_stringEPKcP6Status+0xea>
    15ae: d0 02        	bne	$15b2 <main+0x105d>
    15b0: e6 13        	inc	$13                     ; 0x2013 <_ZN12_GLOBAL__N_112print_stringEPKcP6Status+0xeb>
    15b2: 18           	clc
    15b3: a5 1d        	lda	$1d                     ; 0x201d <_ZN12_GLOBAL__N_112print_stringEPKcP6Status+0xf5>
    15b5: 69 b0        	adc	#$b0
    15b7: 85 1d        	sta	$1d                     ; 0x201d <_ZN12_GLOBAL__N_112print_stringEPKcP6Status+0xf5>
    15b9: a5 1e        	lda	$1e                     ; 0x201e <_ZN12_GLOBAL__N_112print_stringEPKcP6Status+0xf6>
    15bb: 69 ff        	adc	#$ff
    15bd: 85 1e        	sta	$1e                     ; 0x201e <_ZN12_GLOBAL__N_112print_stringEPKcP6Status+0xf6>
    15bf: 18           	clc
    15c0: a5 1f        	lda	$1f                     ; 0x201f <_ZN12_GLOBAL__N_112print_stringEPKcP6Status+0xf7>
    15c2: 69 b0        	adc	#$b0
    15c4: 85 1f        	sta	$1f                     ; 0x201f <_ZN12_GLOBAL__N_112print_stringEPKcP6Status+0xf7>
    15c6: a5 22        	lda	$22                     ; 0x2022 <_ZN12_GLOBAL__N_112print_stringEPKcP6Status+0xfa>
    15c8: 69 ff        	adc	#$ff
    15ca: 85 16        	sta	$16                     ; 0x2016 <_ZN12_GLOBAL__N_112print_stringEPKcP6Status+0xee>
    15cc: a4 12        	ldy	$12                     ; 0x2012 <_ZN12_GLOBAL__N_112print_stringEPKcP6Status+0xea>
    15ce: a5 13        	lda	$13                     ; 0x2013 <_ZN12_GLOBAL__N_112print_stringEPKcP6Status+0xeb>
    15d0: 85 19        	sta	$19                     ; 0x2019 <_ZN12_GLOBAL__N_112print_stringEPKcP6Status+0xf1>
    15d2: d0 b8        	bne	$158c <main+0x1037>
    15d4: a5 12        	lda	$12                     ; 0x2012 <_ZN12_GLOBAL__N_112print_stringEPKcP6Status+0xea>
    15d6: d0 b4        	bne	$158c <main+0x1037>
    15d8: 4c db 14     	jmp	$14db <main+0xf86>
    15db: ae 04 d7     	ldx	$d704                   ; 0xd704 <__heap_start+0x791e>
    15de: 86 12        	stx	$12                     ; 0x2012 <_ZN12_GLOBAL__N_112print_stringEPKcP6Status+0xea>
    15e0: ad 05 d7     	lda	$d705                   ; 0xd705 <__heap_start+0x791f>
    15e3: 29 07        	and	#$7
    15e5: 85 13        	sta	$13                     ; 0x2013 <_ZN12_GLOBAL__N_112print_stringEPKcP6Status+0xeb>
    15e7: 38           	sec
    15e8: a9 00        	lda	#$0
    15ea: e5 12        	sbc	$12                     ; 0x2012 <_ZN12_GLOBAL__N_112print_stringEPKcP6Status+0xea>
    15ec: 85 12        	sta	$12                     ; 0x2012 <_ZN12_GLOBAL__N_112print_stringEPKcP6Status+0xea>
    15ee: a9 08        	lda	#$8
    15f0: e5 13        	sbc	$13                     ; 0x2013 <_ZN12_GLOBAL__N_112print_stringEPKcP6Status+0xeb>
    15f2: 06 12        	asl	$12                     ; 0x2012 <_ZN12_GLOBAL__N_112print_stringEPKcP6Status+0xea>
    15f4: 2a           	rol
    15f5: 64 2c        	stz	$2c                     ; 0x202c <_ZN12_GLOBAL__N_112print_stringEPKcP6Status+0x104>
    15f7: 26 2c        	rol	$2c                     ; 0x202c <_ZN12_GLOBAL__N_112print_stringEPKcP6Status+0x104>
    15f9: 06 12        	asl	$12                     ; 0x2012 <_ZN12_GLOBAL__N_112print_stringEPKcP6Status+0xea>
    15fb: 2a           	rol
    15fc: 85 29        	sta	$29                     ; 0x2029 <_ZN12_GLOBAL__N_112print_stringEPKcP6Status+0x101>
    15fe: 26 2c        	rol	$2c                     ; 0x202c <_ZN12_GLOBAL__N_112print_stringEPKcP6Status+0x104>
    1600: d0 07        	bne	$1609 <main+0x10b4>
    1602: a5 29        	lda	$29                     ; 0x2029 <_ZN12_GLOBAL__N_112print_stringEPKcP6Status+0x101>
    1604: d0 03        	bne	$1609 <main+0x10b4>
    1606: 4c 67 17     	jmp	$1767 <main+0x1212>
    1609: a2 00        	ldx	#$0
    160b: a0 00        	ldy	#$0
    160d: 64 12        	stz	$12                     ; 0x2012 <_ZN12_GLOBAL__N_112print_stringEPKcP6Status+0xea>
    160f: 5a           	phy
    1610: 98           	tya
    1611: a0 1b        	ldy	#$1b
    1613: 91 10        	sta	($10),y                 ; 0x2010 <_ZN12_GLOBAL__N_112print_stringEPKcP6Status+0xe8>
    1615: a0 0f        	ldy	#$f
    1617: b1 10        	lda	($10),y                 ; 0x2010 <_ZN12_GLOBAL__N_112print_stringEPKcP6Status+0xe8>
    1619: 85 2e        	sta	$2e                     ; 0x202e <_ZN12_GLOBAL__N_112print_stringEPKcP6Status+0x106>
    161b: 88           	dey
    161c: b1 10        	lda	($10),y                 ; 0x2010 <_ZN12_GLOBAL__N_112print_stringEPKcP6Status+0xe8>
    161e: 7a           	ply
    161f: 85 2d        	sta	$2d                     ; 0x202d <_ZN12_GLOBAL__N_112print_stringEPKcP6Status+0x105>
    1621: 5a           	phy
    1622: a0 1b        	ldy	#$1b
    1624: b1 10        	lda	($10),y                 ; 0x2010 <_ZN12_GLOBAL__N_112print_stringEPKcP6Status+0xe8>
    1626: 7a           	ply
    1627: 29 01        	and	#$1
    1629: f0 03        	beq	$162e <main+0x10d9>
    162b: 4c 76 17     	jmp	$1776 <main+0x1221>
    162e: 84 26        	sty	$26                     ; 0x2026 <_ZN12_GLOBAL__N_112print_stringEPKcP6Status+0xfe>
    1630: 86 28        	stx	$28                     ; 0x2028 <_ZN12_GLOBAL__N_112print_stringEPKcP6Status+0x100>
    1632: a0 17        	ldy	#$17
    1634: b1 10        	lda	($10),y                 ; 0x2010 <_ZN12_GLOBAL__N_112print_stringEPKcP6Status+0xe8>
    1636: 29 01        	and	#$1
    1638: a0 01        	ldy	#$1
    163a: 48           	pha
    163b: 98           	tya
    163c: a0 17        	ldy	#$17
    163e: 91 10        	sta	($10),y                 ; 0x2010 <_ZN12_GLOBAL__N_112print_stringEPKcP6Status+0xe8>
    1640: 68           	pla
    1641: d0 39        	bne	$167c <main+0x1127>
    1643: 64 12        	stz	$12                     ; 0x2012 <_ZN12_GLOBAL__N_112print_stringEPKcP6Status+0xea>
    1645: a9 00        	lda	#$0
    1647: 91 10        	sta	($10),y                 ; 0x2010 <_ZN12_GLOBAL__N_112print_stringEPKcP6Status+0xe8>
    1649: 64 36        	stz	$36                     ; 0x2036 <printf+0x1>
    164b: a2 35        	ldx	#$35
    164d: 86 12        	stx	$12                     ; 0x2012 <_ZN12_GLOBAL__N_112print_stringEPKcP6Status+0xea>
    164f: a2 00        	ldx	#$0
    1651: 86 13        	stx	$13                     ; 0x2013 <_ZN12_GLOBAL__N_112print_stringEPKcP6Status+0xeb>
    1653: a0 0c        	ldy	#$c
    1655: b1 10        	lda	($10),y                 ; 0x2010 <_ZN12_GLOBAL__N_112print_stringEPKcP6Status+0xe8>
    1657: 85 14        	sta	$14                     ; 0x2014 <_ZN12_GLOBAL__N_112print_stringEPKcP6Status+0xec>
    1659: c8           	iny
    165a: b1 10        	lda	($10),y                 ; 0x2010 <_ZN12_GLOBAL__N_112print_stringEPKcP6Status+0xe8>
    165c: 85 15        	sta	$15                     ; 0x2015 <_ZN12_GLOBAL__N_112print_stringEPKcP6Status+0xed>
    165e: 20 00 ff     	jsr	$ff00 <__heap_start+0xa11a>
    1661: 92 14        	sta	($14)                   ; 0x2014 <_ZN12_GLOBAL__N_112print_stringEPKcP6Status+0xec>
    1663: a9 00        	lda	#$0
    1665: 6a           	ror
    1666: 85 12        	sta	$12                     ; 0x2012 <_ZN12_GLOBAL__N_112print_stringEPKcP6Status+0xea>
    1668: a6 36        	ldx	$36                     ; 0x2036 <printf+0x1>
    166a: e0 08        	cpx	#$8
    166c: d0 0e        	bne	$167c <main+0x1127>
    166e: a6 3a        	ldx	$3a                     ; 0x203a <printf+0x5>
    1670: 8a           	txa
    1671: a0 0a        	ldy	#$a
    1673: 91 10        	sta	($10),y                 ; 0x2010 <_ZN12_GLOBAL__N_112print_stringEPKcP6Status+0xe8>
    1675: a2 01        	ldx	#$1
    1677: 8a           	txa
    1678: a0 17        	ldy	#$17
    167a: 91 10        	sta	($10),y                 ; 0x2010 <_ZN12_GLOBAL__N_112print_stringEPKcP6Status+0xe8>
    167c: 18           	clc
    167d: a5 10        	lda	$10                     ; 0x2010 <_ZN12_GLOBAL__N_112print_stringEPKcP6Status+0xe8>
    167f: 69 5d        	adc	#$5d
    1681: 85 12        	sta	$12                     ; 0x2012 <_ZN12_GLOBAL__N_112print_stringEPKcP6Status+0xea>
    1683: a5 11        	lda	$11                     ; 0x2011 <_ZN12_GLOBAL__N_112print_stringEPKcP6Status+0xe9>
    1685: 69 00        	adc	#$0
    1687: 85 13        	sta	$13                     ; 0x2013 <_ZN12_GLOBAL__N_112print_stringEPKcP6Status+0xeb>
    1689: a6 2e        	ldx	$2e                     ; 0x202e <_ZN12_GLOBAL__N_112print_stringEPKcP6Status+0x106>
    168b: a5 2e        	lda	$2e                     ; 0x202e <_ZN12_GLOBAL__N_112print_stringEPKcP6Status+0x106>
    168d: 18           	clc
    168e: 65 12        	adc	$12                     ; 0x2012 <_ZN12_GLOBAL__N_112print_stringEPKcP6Status+0xea>
    1690: 85 12        	sta	$12                     ; 0x2012 <_ZN12_GLOBAL__N_112print_stringEPKcP6Status+0xea>
    1692: a0 16        	ldy	#$16
    1694: b1 10        	lda	($10),y                 ; 0x2010 <_ZN12_GLOBAL__N_112print_stringEPKcP6Status+0xe8>
    1696: 65 13        	adc	$13                     ; 0x2013 <_ZN12_GLOBAL__N_112print_stringEPKcP6Status+0xeb>
    1698: 85 13        	sta	$13                     ; 0x2013 <_ZN12_GLOBAL__N_112print_stringEPKcP6Status+0xeb>
    169a: a0 00        	ldy	#$0
    169c: b1 12        	lda	($12),y                 ; 0x2012 <_ZN12_GLOBAL__N_112print_stringEPKcP6Status+0xea>
    169e: 8d 07 d7     	sta	$d707                   ; 0xd707 <__heap_start+0x7921>
    16a1: c8           	iny
    16a2: c0 40        	cpy	#$40
    16a4: d0 f6        	bne	$169c <main+0x1147>
    16a6: 18           	clc
    16a7: 8a           	txa
    16a8: 69 40        	adc	#$40
    16aa: 85 2e        	sta	$2e                     ; 0x202e <_ZN12_GLOBAL__N_112print_stringEPKcP6Status+0x106>
    16ac: a0 16        	ldy	#$16
    16ae: b1 10        	lda	($10),y                 ; 0x2010 <_ZN12_GLOBAL__N_112print_stringEPKcP6Status+0xe8>
    16b0: 69 00        	adc	#$0
    16b2: 91 10        	sta	($10),y                 ; 0x2010 <_ZN12_GLOBAL__N_112print_stringEPKcP6Status+0xe8>
    16b4: c9 20        	cmp	#$20
    16b6: d0 10        	bne	$16c8 <main+0x1173>
    16b8: a6 2d        	ldx	$2d                     ; 0x202d <_ZN12_GLOBAL__N_112print_stringEPKcP6Status+0x105>
    16ba: a5 2e        	lda	$2e                     ; 0x202e <_ZN12_GLOBAL__N_112print_stringEPKcP6Status+0x106>
    16bc: d0 0c        	bne	$16ca <main+0x1175>
    16be: 64 2e        	stz	$2e                     ; 0x202e <_ZN12_GLOBAL__N_112print_stringEPKcP6Status+0x106>
    16c0: 64 12        	stz	$12                     ; 0x2012 <_ZN12_GLOBAL__N_112print_stringEPKcP6Status+0xea>
    16c2: a9 00        	lda	#$0
    16c4: 91 10        	sta	($10),y                 ; 0x2010 <_ZN12_GLOBAL__N_112print_stringEPKcP6Status+0xe8>
    16c6: 80 02        	bra	$16ca <main+0x1175>
    16c8: a6 2d        	ldx	$2d                     ; 0x202d <_ZN12_GLOBAL__N_112print_stringEPKcP6Status+0x105>
    16ca: 18           	clc
    16cb: a5 10        	lda	$10                     ; 0x2010 <_ZN12_GLOBAL__N_112print_stringEPKcP6Status+0xe8>
    16cd: 69 5d        	adc	#$5d
    16cf: 85 12        	sta	$12                     ; 0x2012 <_ZN12_GLOBAL__N_112print_stringEPKcP6Status+0xea>
    16d1: a5 11        	lda	$11                     ; 0x2011 <_ZN12_GLOBAL__N_112print_stringEPKcP6Status+0xe9>
    16d3: 69 00        	adc	#$0
    16d5: 85 13        	sta	$13                     ; 0x2013 <_ZN12_GLOBAL__N_112print_stringEPKcP6Status+0xeb>
    16d7: 18           	clc
    16d8: 8a           	txa
    16d9: 65 12        	adc	$12                     ; 0x2012 <_ZN12_GLOBAL__N_112print_stringEPKcP6Status+0xea>
    16db: 85 12        	sta	$12                     ; 0x2012 <_ZN12_GLOBAL__N_112print_stringEPKcP6Status+0xea>
    16dd: a5 2f        	lda	$2f                     ; 0x202f <_ZN12_GLOBAL__N_112print_stringEPKcP6Status+0x107>
    16df: 65 13        	adc	$13                     ; 0x2013 <_ZN12_GLOBAL__N_112print_stringEPKcP6Status+0xeb>
    16e1: 85 13        	sta	$13                     ; 0x2013 <_ZN12_GLOBAL__N_112print_stringEPKcP6Status+0xeb>
    16e3: ae dd 5d     	ldx	$5ddd                   ; 0x5ddd <theMP3file>
    16e6: ac de 5d     	ldy	$5dde                   ; 0x5dde <theMP3file+0x1>
    16e9: 86 14        	stx	$14                     ; 0x2014 <_ZN12_GLOBAL__N_112print_stringEPKcP6Status+0xec>
    16eb: 84 15        	sty	$15                     ; 0x2015 <_ZN12_GLOBAL__N_112print_stringEPKcP6Status+0xed>
    16ed: a2 00        	ldx	#$0
    16ef: a9 40        	lda	#$40
    16f1: 20 68 18     	jsr	$1868 <fileRead>
    16f4: a2 01        	ldx	#$1
    16f6: c9 40        	cmp	#$40
    16f8: f0 02        	beq	$16fc <main+0x11a7>
    16fa: a2 00        	ldx	#$0
    16fc: e0 00        	cpx	#$0
    16fe: f0 2d        	beq	$172d <main+0x11d8>
    1700: 86 16        	stx	$16                     ; 0x2016 <_ZN12_GLOBAL__N_112print_stringEPKcP6Status+0xee>
    1702: 18           	clc
    1703: a5 2d        	lda	$2d                     ; 0x202d <_ZN12_GLOBAL__N_112print_stringEPKcP6Status+0x105>
    1705: 69 40        	adc	#$40
    1707: 85 2d        	sta	$2d                     ; 0x202d <_ZN12_GLOBAL__N_112print_stringEPKcP6Status+0x105>
    1709: a5 2f        	lda	$2f                     ; 0x202f <_ZN12_GLOBAL__N_112print_stringEPKcP6Status+0x107>
    170b: 69 00        	adc	#$0
    170d: 85 2f        	sta	$2f                     ; 0x202f <_ZN12_GLOBAL__N_112print_stringEPKcP6Status+0x107>
    170f: c9 20        	cmp	#$20
    1711: d0 2c        	bne	$173f <main+0x11ea>
    1713: 64 12        	stz	$12                     ; 0x2012 <_ZN12_GLOBAL__N_112print_stringEPKcP6Status+0xea>
    1715: a9 00        	lda	#$0
    1717: a0 1b        	ldy	#$1b
    1719: 91 10        	sta	($10),y                 ; 0x2010 <_ZN12_GLOBAL__N_112print_stringEPKcP6Status+0xe8>
    171b: a5 28        	lda	$28                     ; 0x2028 <_ZN12_GLOBAL__N_112print_stringEPKcP6Status+0x100>
    171d: a6 2d        	ldx	$2d                     ; 0x202d <_ZN12_GLOBAL__N_112print_stringEPKcP6Status+0x105>
    171f: d0 28        	bne	$1749 <main+0x11f4>
    1721: 64 2d        	stz	$2d                     ; 0x202d <_ZN12_GLOBAL__N_112print_stringEPKcP6Status+0x105>
    1723: 48           	pha
    1724: a9 00        	lda	#$0
    1726: 91 10        	sta	($10),y                 ; 0x2010 <_ZN12_GLOBAL__N_112print_stringEPKcP6Status+0xe8>
    1728: 68           	pla
    1729: 64 2f        	stz	$2f                     ; 0x202f <_ZN12_GLOBAL__N_112print_stringEPKcP6Status+0x107>
    172b: 80 1c        	bra	$1749 <main+0x11f4>
    172d: 86 16        	stx	$16                     ; 0x2016 <_ZN12_GLOBAL__N_112print_stringEPKcP6Status+0xee>
    172f: 18           	clc
    1730: 65 2d        	adc	$2d                     ; 0x202d <_ZN12_GLOBAL__N_112print_stringEPKcP6Status+0x105>
    1732: 85 2d        	sta	$2d                     ; 0x202d <_ZN12_GLOBAL__N_112print_stringEPKcP6Status+0x105>
    1734: a9 00        	lda	#$0
    1736: 65 2f        	adc	$2f                     ; 0x202f <_ZN12_GLOBAL__N_112print_stringEPKcP6Status+0x107>
    1738: 85 2f        	sta	$2f                     ; 0x202f <_ZN12_GLOBAL__N_112print_stringEPKcP6Status+0x107>
    173a: a2 01        	ldx	#$1
    173c: 8a           	txa
    173d: 80 04        	bra	$1743 <main+0x11ee>
    173f: 64 12        	stz	$12                     ; 0x2012 <_ZN12_GLOBAL__N_112print_stringEPKcP6Status+0xea>
    1741: a9 00        	lda	#$0
    1743: a0 1b        	ldy	#$1b
    1745: 91 10        	sta	($10),y                 ; 0x2010 <_ZN12_GLOBAL__N_112print_stringEPKcP6Status+0xe8>
    1747: a5 28        	lda	$28                     ; 0x2028 <_ZN12_GLOBAL__N_112print_stringEPKcP6Status+0x100>
    1749: aa           	tax
    174a: e8           	inx
    174b: d0 02        	bne	$174f <main+0x11fa>
    174d: e6 26        	inc	$26                     ; 0x2026 <_ZN12_GLOBAL__N_112print_stringEPKcP6Status+0xfe>
    174f: a4 26        	ldy	$26                     ; 0x2026 <_ZN12_GLOBAL__N_112print_stringEPKcP6Status+0xfe>
    1751: c4 2c        	cpy	$2c                     ; 0x202c <_ZN12_GLOBAL__N_112print_stringEPKcP6Status+0x104>
    1753: f0 03        	beq	$1758 <main+0x1203>
    1755: 4c 21 16     	jmp	$1621 <main+0x10cc>
    1758: e4 29        	cpx	$29                     ; 0x2029 <_ZN12_GLOBAL__N_112print_stringEPKcP6Status+0x101>
    175a: f0 03        	beq	$175f <main+0x120a>
    175c: 4c 21 16     	jmp	$1621 <main+0x10cc>
    175f: a6 16        	ldx	$16                     ; 0x2016 <_ZN12_GLOBAL__N_112print_stringEPKcP6Status+0xee>
    1761: 8a           	txa
    1762: f0 12        	beq	$1776 <main+0x1221>
    1764: 4c 72 10     	jmp	$1072 <main+0xb1d>
    1767: a2 01        	ldx	#$1
    1769: a0 0f        	ldy	#$f
    176b: b1 10        	lda	($10),y                 ; 0x2010 <_ZN12_GLOBAL__N_112print_stringEPKcP6Status+0xe8>
    176d: 85 2e        	sta	$2e                     ; 0x202e <_ZN12_GLOBAL__N_112print_stringEPKcP6Status+0x106>
    176f: 88           	dey
    1770: b1 10        	lda	($10),y                 ; 0x2010 <_ZN12_GLOBAL__N_112print_stringEPKcP6Status+0xe8>
    1772: 85 2d        	sta	$2d                     ; 0x202d <_ZN12_GLOBAL__N_112print_stringEPKcP6Status+0x105>
    1774: 80 eb        	bra	$1761 <main+0x120c>
    1776: a2 08        	ldx	#$8
    1778: 64 15        	stz	$15                     ; 0x2015 <_ZN12_GLOBAL__N_112print_stringEPKcP6Status+0xed>
    177a: 86 14        	stx	$14                     ; 0x2014 <_ZN12_GLOBAL__N_112print_stringEPKcP6Status+0xec>
    177c: ae 04 d7     	ldx	$d704                   ; 0xd704 <__heap_start+0x791e>
    177f: 86 12        	stx	$12                     ; 0x2012 <_ZN12_GLOBAL__N_112print_stringEPKcP6Status+0xea>
    1781: ad 05 d7     	lda	$d705                   ; 0xd705 <__heap_start+0x791f>
    1784: 29 07        	and	#$7
    1786: 85 13        	sta	$13                     ; 0x2013 <_ZN12_GLOBAL__N_112print_stringEPKcP6Status+0xeb>
    1788: 38           	sec
    1789: a9 00        	lda	#$0
    178b: e5 12        	sbc	$12                     ; 0x2012 <_ZN12_GLOBAL__N_112print_stringEPKcP6Status+0xea>
    178d: a8           	tay
    178e: a9 08        	lda	#$8
    1790: e5 13        	sbc	$13                     ; 0x2013 <_ZN12_GLOBAL__N_112print_stringEPKcP6Status+0xeb>
    1792: 84 17        	sty	$17                     ; 0x2017 <_ZN12_GLOBAL__N_112print_stringEPKcP6Status+0xef>
    1794: 06 17        	asl	$17                     ; 0x2017 <_ZN12_GLOBAL__N_112print_stringEPKcP6Status+0xef>
    1796: 85 16        	sta	$16                     ; 0x2016 <_ZN12_GLOBAL__N_112print_stringEPKcP6Status+0xee>
    1798: 2a           	rol
    1799: 64 13        	stz	$13                     ; 0x2013 <_ZN12_GLOBAL__N_112print_stringEPKcP6Status+0xeb>
    179b: 26 13        	rol	$13                     ; 0x2013 <_ZN12_GLOBAL__N_112print_stringEPKcP6Status+0xeb>
    179d: 06 17        	asl	$17                     ; 0x2017 <_ZN12_GLOBAL__N_112print_stringEPKcP6Status+0xef>
    179f: 2a           	rol
    17a0: 85 12        	sta	$12                     ; 0x2012 <_ZN12_GLOBAL__N_112print_stringEPKcP6Status+0xea>
    17a2: 26 13        	rol	$13                     ; 0x2013 <_ZN12_GLOBAL__N_112print_stringEPKcP6Status+0xeb>
    17a4: d0 04        	bne	$17aa <main+0x1255>
    17a6: a5 12        	lda	$12                     ; 0x2012 <_ZN12_GLOBAL__N_112print_stringEPKcP6Status+0xea>
    17a8: f0 47        	beq	$17f1 <main+0x129c>
    17aa: 84 18        	sty	$18                     ; 0x2018 <_ZN12_GLOBAL__N_112print_stringEPKcP6Status+0xf0>
    17ac: a0 00        	ldy	#$0
    17ae: a2 00        	ldx	#$0
    17b0: 84 17        	sty	$17                     ; 0x2017 <_ZN12_GLOBAL__N_112print_stringEPKcP6Status+0xef>
    17b2: a0 00        	ldy	#$0
    17b4: b1 24        	lda	($24),y                 ; 0x2024 <_ZN12_GLOBAL__N_112print_stringEPKcP6Status+0xfc>
    17b6: 8d 07 d7     	sta	$d707                   ; 0xd707 <__heap_start+0x7921>
    17b9: c8           	iny
    17ba: c0 40        	cpy	#$40
    17bc: d0 f6        	bne	$17b4 <main+0x125f>
    17be: a4 17        	ldy	$17                     ; 0x2017 <_ZN12_GLOBAL__N_112print_stringEPKcP6Status+0xef>
    17c0: c8           	iny
    17c1: d0 01        	bne	$17c4 <main+0x126f>
    17c3: e8           	inx
    17c4: e4 13        	cpx	$13                     ; 0x2013 <_ZN12_GLOBAL__N_112print_stringEPKcP6Status+0xeb>
    17c6: d0 e8        	bne	$17b0 <main+0x125b>
    17c8: c4 12        	cpy	$12                     ; 0x2012 <_ZN12_GLOBAL__N_112print_stringEPKcP6Status+0xea>
    17ca: d0 e4        	bne	$17b0 <main+0x125b>
    17cc: a5 18        	lda	$18                     ; 0x2018 <_ZN12_GLOBAL__N_112print_stringEPKcP6Status+0xf0>
    17ce: 29 c0        	and	#$c0
    17d0: 85 12        	sta	$12                     ; 0x2012 <_ZN12_GLOBAL__N_112print_stringEPKcP6Status+0xea>
    17d2: a5 16        	lda	$16                     ; 0x2016 <_ZN12_GLOBAL__N_112print_stringEPKcP6Status+0xee>
    17d4: 29 0f        	and	#$f
    17d6: 85 13        	sta	$13                     ; 0x2013 <_ZN12_GLOBAL__N_112print_stringEPKcP6Status+0xeb>
    17d8: 38           	sec
    17d9: a5 15        	lda	$15                     ; 0x2015 <_ZN12_GLOBAL__N_112print_stringEPKcP6Status+0xed>
    17db: e5 12        	sbc	$12                     ; 0x2012 <_ZN12_GLOBAL__N_112print_stringEPKcP6Status+0xea>
    17dd: a8           	tay
    17de: a5 14        	lda	$14                     ; 0x2014 <_ZN12_GLOBAL__N_112print_stringEPKcP6Status+0xec>
    17e0: e5 13        	sbc	$13                     ; 0x2013 <_ZN12_GLOBAL__N_112print_stringEPKcP6Status+0xeb>
    17e2: aa           	tax
    17e3: 84 15        	sty	$15                     ; 0x2015 <_ZN12_GLOBAL__N_112print_stringEPKcP6Status+0xed>
    17e5: 8a           	txa
    17e6: f0 03        	beq	$17eb <main+0x1296>
    17e8: 4c 7a 17     	jmp	$177a <main+0x1225>
    17eb: 98           	tya
    17ec: f0 09        	beq	$17f7 <main+0x12a2>
    17ee: 4c 7a 17     	jmp	$177a <main+0x1225>
    17f1: a6 14        	ldx	$14                     ; 0x2014 <_ZN12_GLOBAL__N_112print_stringEPKcP6Status+0xec>
    17f3: a4 15        	ldy	$15                     ; 0x2015 <_ZN12_GLOBAL__N_112print_stringEPKcP6Status+0xed>
    17f5: 80 ec        	bra	$17e3 <main+0x128e>
    17f7: ae dd 5d     	ldx	$5ddd                   ; 0x5ddd <theMP3file>
    17fa: ac de 5d     	ldy	$5dde                   ; 0x5dde <theMP3file+0x1>
    17fd: 86 12        	stx	$12                     ; 0x2012 <_ZN12_GLOBAL__N_112print_stringEPKcP6Status+0xea>
    17ff: 84 13        	sty	$13                     ; 0x2013 <_ZN12_GLOBAL__N_112print_stringEPKcP6Status+0xeb>
    1801: 20 81 1b     	jsr	$1b81 <fileClose>
    1804: 78           	sei
    1805: a2 07        	ldx	#$7
    1807: 86 0f        	stx	$f                      ; 0x200f <_ZN12_GLOBAL__N_112print_stringEPKcP6Status+0xe7>
    1809: a2 de        	ldx	#$de
    180b: 8e a2 d6     	stx	$d6a2                   ; 0xd6a2 <__heap_start+0x78bc>
    180e: a2 ad        	ldx	#$ad
    1810: 8e a3 d6     	stx	$d6a3                   ; 0xd6a3 <__heap_start+0x78bd>
    1813: a2 f0        	ldx	#$f0
    1815: 8e a0 d6     	stx	$d6a0                   ; 0xd6a0 <__heap_start+0x78ba>
    1818: 9c a0 d6     	stz	$d6a0                   ; 0xd6a0 <__heap_start+0x78ba>
    181b: 6c fc ff     	jmp	($fffc)                 ; 0xfffc <__heap_start+0xa216>
    181e: a2 00        	ldx	#$0
    1820: 8a           	txa
    1821: 85 20        	sta	$20                     ; 0x2020 <_ZN12_GLOBAL__N_112print_stringEPKcP6Status+0xf8>
    1823: a0 02        	ldy	#$2
    1825: b1 10        	lda	($10),y                 ; 0x2010 <_ZN12_GLOBAL__N_112print_stringEPKcP6Status+0xe8>
    1827: 85 2f        	sta	$2f                     ; 0x202f <_ZN12_GLOBAL__N_112print_stringEPKcP6Status+0x107>
    1829: c8           	iny
    182a: b1 10        	lda	($10),y                 ; 0x2010 <_ZN12_GLOBAL__N_112print_stringEPKcP6Status+0xe8>
    182c: 85 2e        	sta	$2e                     ; 0x202e <_ZN12_GLOBAL__N_112print_stringEPKcP6Status+0x106>
    182e: c8           	iny
    182f: b1 10        	lda	($10),y                 ; 0x2010 <_ZN12_GLOBAL__N_112print_stringEPKcP6Status+0xe8>
    1831: 85 2d        	sta	$2d                     ; 0x202d <_ZN12_GLOBAL__N_112print_stringEPKcP6Status+0x105>
    1833: c8           	iny
    1834: b1 10        	lda	($10),y                 ; 0x2010 <_ZN12_GLOBAL__N_112print_stringEPKcP6Status+0xe8>
    1836: 85 2c        	sta	$2c                     ; 0x202c <_ZN12_GLOBAL__N_112print_stringEPKcP6Status+0x104>
    1838: c8           	iny
    1839: b1 10        	lda	($10),y                 ; 0x2010 <_ZN12_GLOBAL__N_112print_stringEPKcP6Status+0xe8>
    183b: 85 2b        	sta	$2b                     ; 0x202b <_ZN12_GLOBAL__N_112print_stringEPKcP6Status+0x103>
    183d: c8           	iny
    183e: b1 10        	lda	($10),y                 ; 0x2010 <_ZN12_GLOBAL__N_112print_stringEPKcP6Status+0xe8>
    1840: 85 2a        	sta	$2a                     ; 0x202a <_ZN12_GLOBAL__N_112print_stringEPKcP6Status+0x102>
    1842: c8           	iny
    1843: b1 10        	lda	($10),y                 ; 0x2010 <_ZN12_GLOBAL__N_112print_stringEPKcP6Status+0xe8>
    1845: 85 29        	sta	$29                     ; 0x2029 <_ZN12_GLOBAL__N_112print_stringEPKcP6Status+0x101>
    1847: c8           	iny
    1848: b1 10        	lda	($10),y                 ; 0x2010 <_ZN12_GLOBAL__N_112print_stringEPKcP6Status+0xe8>
    184a: 85 28        	sta	$28                     ; 0x2028 <_ZN12_GLOBAL__N_112print_stringEPKcP6Status+0x100>
    184c: 7a           	ply
    184d: 84 27        	sty	$27                     ; 0x2027 <_ZN12_GLOBAL__N_112print_stringEPKcP6Status+0xff>
    184f: 7a           	ply
    1850: 84 26        	sty	$26                     ; 0x2026 <_ZN12_GLOBAL__N_112print_stringEPKcP6Status+0xfe>
    1852: 7a           	ply
    1853: 84 25        	sty	$25                     ; 0x2025 <_ZN12_GLOBAL__N_112print_stringEPKcP6Status+0xfd>
    1855: 7a           	ply
    1856: 84 24        	sty	$24                     ; 0x2024 <_ZN12_GLOBAL__N_112print_stringEPKcP6Status+0xfc>
    1858: 18           	clc
    1859: a5 10        	lda	$10                     ; 0x2010 <_ZN12_GLOBAL__N_112print_stringEPKcP6Status+0xe8>
    185b: 69 99        	adc	#$99
    185d: 85 10        	sta	$10                     ; 0x2010 <_ZN12_GLOBAL__N_112print_stringEPKcP6Status+0xe8>
    185f: a5 11        	lda	$11                     ; 0x2011 <_ZN12_GLOBAL__N_112print_stringEPKcP6Status+0xe9>
    1861: 69 20        	adc	#$20
    1863: 85 11        	sta	$11                     ; 0x2011 <_ZN12_GLOBAL__N_112print_stringEPKcP6Status+0xe9>
    1865: a5 20        	lda	$20                     ; 0x2020 <_ZN12_GLOBAL__N_112print_stringEPKcP6Status+0xf8>
    1867: 60           	rts

00001868 <fileRead>:
    1868: 85 16        	sta	$16                     ; 0x2016 <_ZN12_GLOBAL__N_112print_stringEPKcP6Status+0xee>
    186a: 86 17        	stx	$17                     ; 0x2017 <_ZN12_GLOBAL__N_112print_stringEPKcP6Status+0xef>
    186c: 64 18        	stz	$18                     ; 0x2018 <_ZN12_GLOBAL__N_112print_stringEPKcP6Status+0xf0>
    186e: a6 12        	ldx	$12                     ; 0x2012 <_ZN12_GLOBAL__N_112print_stringEPKcP6Status+0xea>
    1870: 86 1a        	stx	$1a                     ; 0x201a <_ZN12_GLOBAL__N_112print_stringEPKcP6Status+0xf2>
    1872: a6 13        	ldx	$13                     ; 0x2013 <_ZN12_GLOBAL__N_112print_stringEPKcP6Status+0xeb>
    1874: 86 1b        	stx	$1b                     ; 0x201b <_ZN12_GLOBAL__N_112print_stringEPKcP6Status+0xf3>
    1876: a2 3d        	ldx	#$3d
    1878: a0 00        	ldy	#$0
    187a: a9 35        	lda	#$35
    187c: 85 12        	sta	$12                     ; 0x2012 <_ZN12_GLOBAL__N_112print_stringEPKcP6Status+0xea>
    187e: a9 00        	lda	#$0
    1880: 85 13        	sta	$13                     ; 0x2013 <_ZN12_GLOBAL__N_112print_stringEPKcP6Status+0xeb>
    1882: 64 19        	stz	$19                     ; 0x2019 <_ZN12_GLOBAL__N_112print_stringEPKcP6Status+0xf1>
    1884: b2 14        	lda	($14)                   ; 0x2014 <_ZN12_GLOBAL__N_112print_stringEPKcP6Status+0xec>
    1886: 85 1d        	sta	$1d                     ; 0x201d <_ZN12_GLOBAL__N_112print_stringEPKcP6Status+0xf5>
    1888: a5 1a        	lda	$1a                     ; 0x201a <_ZN12_GLOBAL__N_112print_stringEPKcP6Status+0xf2>
    188a: 85 1e        	sta	$1e                     ; 0x201e <_ZN12_GLOBAL__N_112print_stringEPKcP6Status+0xf6>
    188c: a5 1a        	lda	$1a                     ; 0x201a <_ZN12_GLOBAL__N_112print_stringEPKcP6Status+0xf2>
    188e: 18           	clc
    188f: 65 18        	adc	$18                     ; 0x2018 <_ZN12_GLOBAL__N_112print_stringEPKcP6Status+0xf0>
    1891: 85 1c        	sta	$1c                     ; 0x201c <_ZN12_GLOBAL__N_112print_stringEPKcP6Status+0xf4>
    1893: a5 1b        	lda	$1b                     ; 0x201b <_ZN12_GLOBAL__N_112print_stringEPKcP6Status+0xf3>
    1895: 85 1f        	sta	$1f                     ; 0x201f <_ZN12_GLOBAL__N_112print_stringEPKcP6Status+0xf7>
    1897: a5 1b        	lda	$1b                     ; 0x201b <_ZN12_GLOBAL__N_112print_stringEPKcP6Status+0xf3>
    1899: 65 19        	adc	$19                     ; 0x2019 <_ZN12_GLOBAL__N_112print_stringEPKcP6Status+0xf1>
    189b: e6 1d        	inc	$1d                     ; 0x201d <_ZN12_GLOBAL__N_112print_stringEPKcP6Status+0xf5>
    189d: c6 1d        	dec	$1d                     ; 0x201d <_ZN12_GLOBAL__N_112print_stringEPKcP6Status+0xf5>
    189f: d0 03        	bne	$18a4 <fileRead+0x3c>
    18a1: 4c 21 19     	jmp	$1921 <fileRead+0xb9>
    18a4: 5a           	phy
    18a5: a4 1d        	ldy	$1d                     ; 0x201d <_ZN12_GLOBAL__N_112print_stringEPKcP6Status+0xf5>
    18a7: 84 1a        	sty	$1a                     ; 0x201a <_ZN12_GLOBAL__N_112print_stringEPKcP6Status+0xf2>
    18a9: 7a           	ply
    18aa: 85 1d        	sta	$1d                     ; 0x201d <_ZN12_GLOBAL__N_112print_stringEPKcP6Status+0xf5>
    18ac: a5 16        	lda	$16                     ; 0x2016 <_ZN12_GLOBAL__N_112print_stringEPKcP6Status+0xee>
    18ae: 38           	sec
    18af: e5 18        	sbc	$18                     ; 0x2018 <_ZN12_GLOBAL__N_112print_stringEPKcP6Status+0xf0>
    18b1: 85 1b        	sta	$1b                     ; 0x201b <_ZN12_GLOBAL__N_112print_stringEPKcP6Status+0xf3>
    18b3: a5 1a        	lda	$1a                     ; 0x201a <_ZN12_GLOBAL__N_112print_stringEPKcP6Status+0xf2>
    18b5: 85 f3        	sta	$f3                     ; 0x20f3 <printf+0xbe>
    18b7: a5 1b        	lda	$1b                     ; 0x201b <_ZN12_GLOBAL__N_112print_stringEPKcP6Status+0xf3>
    18b9: 85 f4        	sta	$f4                     ; 0x20f4 <printf+0xbf>
    18bb: a9 3f        	lda	#$3f
    18bd: 85 1a        	sta	$1a                     ; 0x201a <_ZN12_GLOBAL__N_112print_stringEPKcP6Status+0xf2>
    18bf: a9 00        	lda	#$0
    18c1: 85 1b        	sta	$1b                     ; 0x201b <_ZN12_GLOBAL__N_112print_stringEPKcP6Status+0xf3>
    18c3: 20 60 ff     	jsr	$ff60 <__heap_start+0xa17a>
    18c6: 92 1a        	sta	($1a)                   ; 0x201a <_ZN12_GLOBAL__N_112print_stringEPKcP6Status+0xf2>
    18c8: a9 00        	lda	#$0
    18ca: 6a           	ror
    18cb: 85 12        	sta	$12                     ; 0x2012 <_ZN12_GLOBAL__N_112print_stringEPKcP6Status+0xea>
    18cd: a5 35        	lda	$35                     ; 0x2035 <printf>
    18cf: f0 03        	beq	$18d4 <fileRead+0x6c>
    18d1: 4c 9b 19     	jmp	$199b <fileRead+0x133>
    18d4: 64 36        	stz	$36                     ; 0x2036 <printf+0x1>
    18d6: a9 40        	lda	#$40
    18d8: 85 1a        	sta	$1a                     ; 0x201a <_ZN12_GLOBAL__N_112print_stringEPKcP6Status+0xf2>
    18da: a9 00        	lda	#$0
    18dc: 85 1b        	sta	$1b                     ; 0x201b <_ZN12_GLOBAL__N_112print_stringEPKcP6Status+0xf3>
    18de: 20 00 ff     	jsr	$ff00 <__heap_start+0xa11a>
    18e1: 92 1a        	sta	($1a)                   ; 0x201a <_ZN12_GLOBAL__N_112print_stringEPKcP6Status+0xf2>
    18e3: a9 00        	lda	#$0
    18e5: 6a           	ror
    18e6: 85 12        	sta	$12                     ; 0x2012 <_ZN12_GLOBAL__N_112print_stringEPKcP6Status+0xea>
    18e8: a5 36        	lda	$36                     ; 0x2036 <printf+0x1>
    18ea: c9 38        	cmp	#$38
    18ec: d0 03        	bne	$18f1 <fileRead+0x89>
    18ee: 4c 9b 19     	jmp	$199b <fileRead+0x133>
    18f1: c9 30        	cmp	#$30
    18f3: d0 03        	bne	$18f8 <fileRead+0x90>
    18f5: 4c a2 19     	jmp	$19a2 <fileRead+0x13a>
    18f8: c9 2c        	cmp	#$2c
    18fa: d0 d8        	bne	$18d4 <fileRead+0x6c>
    18fc: a5 1c        	lda	$1c                     ; 0x201c <_ZN12_GLOBAL__N_112print_stringEPKcP6Status+0xf4>
    18fe: 85 fb        	sta	$fb                     ; 0x20fb <printf+0xc6>
    1900: a5 1d        	lda	$1d                     ; 0x201d <_ZN12_GLOBAL__N_112print_stringEPKcP6Status+0xf5>
    1902: 85 fc        	sta	$fc                     ; 0x20fc <printf+0xc7>
    1904: a5 3c        	lda	$3c                     ; 0x203c <printf+0x7>
    1906: 85 fd        	sta	$fd                     ; 0x20fd <printf+0xc8>
    1908: a9 41        	lda	#$41
    190a: 85 1a        	sta	$1a                     ; 0x201a <_ZN12_GLOBAL__N_112print_stringEPKcP6Status+0xf2>
    190c: a9 00        	lda	#$0
    190e: 85 1b        	sta	$1b                     ; 0x201b <_ZN12_GLOBAL__N_112print_stringEPKcP6Status+0xf3>
    1910: 20 04 ff     	jsr	$ff04 <__heap_start+0xa11e>
    1913: 92 1a        	sta	($1a)                   ; 0x201a <_ZN12_GLOBAL__N_112print_stringEPKcP6Status+0xf2>
    1915: a9 00        	lda	#$0
    1917: 6a           	ror
    1918: 85 12        	sta	$12                     ; 0x2012 <_ZN12_GLOBAL__N_112print_stringEPKcP6Status+0xea>
    191a: a5 3c        	lda	$3c                     ; 0x203c <printf+0x7>
    191c: d0 45        	bne	$1963 <fileRead+0xfb>
    191e: 4c ac 19     	jmp	$19ac <fileRead+0x144>
    1921: 5a           	phy
    1922: a4 1c        	ldy	$1c                     ; 0x201c <_ZN12_GLOBAL__N_112print_stringEPKcP6Status+0xf4>
    1924: 84 1a        	sty	$1a                     ; 0x201a <_ZN12_GLOBAL__N_112print_stringEPKcP6Status+0xf2>
    1926: 7a           	ply
    1927: 85 1b        	sta	$1b                     ; 0x201b <_ZN12_GLOBAL__N_112print_stringEPKcP6Status+0xf3>
    1929: 80 0a        	bra	$1935 <fileRead+0xcd>
    192b: a5 36        	lda	$36                     ; 0x2036 <printf+0x1>
    192d: c9 08        	cmp	#$8
    192f: d0 04        	bne	$1935 <fileRead+0xcd>
    1931: a5 3c        	lda	$3c                     ; 0x203c <printf+0x7>
    1933: f0 28        	beq	$195d <fileRead+0xf5>
    1935: 64 36        	stz	$36                     ; 0x2036 <printf+0x1>
    1937: 86 1c        	stx	$1c                     ; 0x201c <_ZN12_GLOBAL__N_112print_stringEPKcP6Status+0xf4>
    1939: 84 1d        	sty	$1d                     ; 0x201d <_ZN12_GLOBAL__N_112print_stringEPKcP6Status+0xf5>
    193b: 20 00 ff     	jsr	$ff00 <__heap_start+0xa11a>
    193e: 92 1c        	sta	($1c)                   ; 0x201c <_ZN12_GLOBAL__N_112print_stringEPKcP6Status+0xf4>
    1940: a9 00        	lda	#$0
    1942: 6a           	ror
    1943: 85 12        	sta	$12                     ; 0x2012 <_ZN12_GLOBAL__N_112print_stringEPKcP6Status+0xea>
    1945: a5 35        	lda	$35                     ; 0x2035 <printf>
    1947: f0 e2        	beq	$192b <fileRead+0xc3>
    1949: a9 3e        	lda	#$3e
    194b: 85 1c        	sta	$1c                     ; 0x201c <_ZN12_GLOBAL__N_112print_stringEPKcP6Status+0xf4>
    194d: a9 00        	lda	#$0
    194f: 85 1d        	sta	$1d                     ; 0x201d <_ZN12_GLOBAL__N_112print_stringEPKcP6Status+0xf5>
    1951: 20 0c ff     	jsr	$ff0c <__heap_start+0xa126>
    1954: 92 1c        	sta	($1c)                   ; 0x201c <_ZN12_GLOBAL__N_112print_stringEPKcP6Status+0xf4>
    1956: a9 00        	lda	#$0
    1958: 6a           	ror
    1959: 85 12        	sta	$12                     ; 0x2012 <_ZN12_GLOBAL__N_112print_stringEPKcP6Status+0xea>
    195b: 80 d8        	bra	$1935 <fileRead+0xcd>
    195d: a5 3b        	lda	$3b                     ; 0x203b <printf+0x6>
    195f: 92 1a        	sta	($1a)                   ; 0x201a <_ZN12_GLOBAL__N_112print_stringEPKcP6Status+0xf2>
    1961: a9 01        	lda	#$1
    1963: 85 42        	sta	$42                     ; 0x2042 <printf+0xd>
    1965: a9 00        	lda	#$0
    1967: 85 43        	sta	$43                     ; 0x2043 <printf+0xe>
    1969: 18           	clc
    196a: a5 42        	lda	$42                     ; 0x2042 <printf+0xd>
    196c: 65 18        	adc	$18                     ; 0x2018 <_ZN12_GLOBAL__N_112print_stringEPKcP6Status+0xf0>
    196e: 85 42        	sta	$42                     ; 0x2042 <printf+0xd>
    1970: a5 43        	lda	$43                     ; 0x2043 <printf+0xe>
    1972: 65 19        	adc	$19                     ; 0x2019 <_ZN12_GLOBAL__N_112print_stringEPKcP6Status+0xf1>
    1974: c5 17        	cmp	$17                     ; 0x2017 <_ZN12_GLOBAL__N_112print_stringEPKcP6Status+0xef>
    1976: d0 0a        	bne	$1982 <fileRead+0x11a>
    1978: 85 19        	sta	$19                     ; 0x2019 <_ZN12_GLOBAL__N_112print_stringEPKcP6Status+0xf1>
    197a: a5 42        	lda	$42                     ; 0x2042 <printf+0xd>
    197c: 85 18        	sta	$18                     ; 0x2018 <_ZN12_GLOBAL__N_112print_stringEPKcP6Status+0xf0>
    197e: c5 16        	cmp	$16                     ; 0x2016 <_ZN12_GLOBAL__N_112print_stringEPKcP6Status+0xee>
    1980: 80 08        	bra	$198a <fileRead+0x122>
    1982: c5 17        	cmp	$17                     ; 0x2017 <_ZN12_GLOBAL__N_112print_stringEPKcP6Status+0xef>
    1984: 85 19        	sta	$19                     ; 0x2019 <_ZN12_GLOBAL__N_112print_stringEPKcP6Status+0xf1>
    1986: a5 42        	lda	$42                     ; 0x2042 <printf+0xd>
    1988: 85 18        	sta	$18                     ; 0x2018 <_ZN12_GLOBAL__N_112print_stringEPKcP6Status+0xf0>
    198a: a5 19        	lda	$19                     ; 0x2019 <_ZN12_GLOBAL__N_112print_stringEPKcP6Status+0xf1>
    198c: 5a           	phy
    198d: a4 1e        	ldy	$1e                     ; 0x201e <_ZN12_GLOBAL__N_112print_stringEPKcP6Status+0xf6>
    198f: 84 1a        	sty	$1a                     ; 0x201a <_ZN12_GLOBAL__N_112print_stringEPKcP6Status+0xf2>
    1991: a4 1f        	ldy	$1f                     ; 0x201f <_ZN12_GLOBAL__N_112print_stringEPKcP6Status+0xf7>
    1993: 84 1b        	sty	$1b                     ; 0x201b <_ZN12_GLOBAL__N_112print_stringEPKcP6Status+0xf3>
    1995: 7a           	ply
    1996: b0 10        	bcs	$19a8 <fileRead+0x140>
    1998: 4c 84 18     	jmp	$1884 <fileRead+0x1c>
    199b: a9 ff        	lda	#$ff
    199d: aa           	tax
    199e: 86 42        	stx	$42                     ; 0x2042 <printf+0xd>
    19a0: 80 06        	bra	$19a8 <fileRead+0x140>
    19a2: a6 18        	ldx	$18                     ; 0x2018 <_ZN12_GLOBAL__N_112print_stringEPKcP6Status+0xf0>
    19a4: 86 42        	stx	$42                     ; 0x2042 <printf+0xd>
    19a6: a5 19        	lda	$19                     ; 0x2019 <_ZN12_GLOBAL__N_112print_stringEPKcP6Status+0xf1>
    19a8: aa           	tax
    19a9: a5 42        	lda	$42                     ; 0x2042 <printf+0xd>
    19ab: 60           	rts
    19ac: a9 00        	lda	#$0
    19ae: 85 42        	sta	$42                     ; 0x2042 <printf+0xd>
    19b0: 1a           	inc
    19b1: 80 b4        	bra	$1967 <fileRead+0xff>

000019b3 <textPrint>:
    19b3: a6 01        	ldx	$1                      ; 0x2001 <_ZN12_GLOBAL__N_112print_stringEPKcP6Status+0xd9>
    19b5: 86 94        	stx	$94                     ; 0x2094 <printf+0x5f>
    19b7: a6 32        	ldx	$32                     ; 0x2032 <_ZN12_GLOBAL__N_112print_stringEPKcP6Status+0x10a>
    19b9: a0 50        	ldy	#$50
    19bb: 8c 00 de     	sty	$de00                   ; 0xde00 <__heap_start+0x801a>
    19be: 9c 01 de     	stz	$de01                   ; 0xde01 <__heap_start+0x801b>
    19c1: 8e 02 de     	stx	$de02                   ; 0xde02 <__heap_start+0x801c>
    19c4: 9c 03 de     	stz	$de03                   ; 0xde03 <__heap_start+0x801d>
    19c7: ae 10 de     	ldx	$de10                   ; 0xde10 <__heap_start+0x802a>
    19ca: ac 11 de     	ldy	$de11                   ; 0xde11 <__heap_start+0x802b>
    19cd: 84 15        	sty	$15                     ; 0x2015 <_ZN12_GLOBAL__N_112print_stringEPKcP6Status+0xed>
    19cf: ad 12 de     	lda	$de12                   ; 0xde12 <__heap_start+0x802c>
    19d2: ac 13 de     	ldy	$de13                   ; 0xde13 <__heap_start+0x802d>
    19d5: 84 1c        	sty	$1c                     ; 0x201c <_ZN12_GLOBAL__N_112print_stringEPKcP6Status+0xf4>
    19d7: 9c 08 de     	stz	$de08                   ; 0xde08 <__heap_start+0x8022>
    19da: a0 c0        	ldy	#$c0
    19dc: 8c 09 de     	sty	$de09                   ; 0xde09 <__heap_start+0x8023>
    19df: 9c 0a de     	stz	$de0a                   ; 0xde0a <__heap_start+0x8024>
    19e2: 9c 0b de     	stz	$de0b                   ; 0xde0b <__heap_start+0x8025>
    19e5: 8e 0c de     	stx	$de0c                   ; 0xde0c <__heap_start+0x8026>
    19e8: 64 14        	stz	$14                     ; 0x2014 <_ZN12_GLOBAL__N_112print_stringEPKcP6Status+0xec>
    19ea: a2 00        	ldx	#$0
    19ec: 86 16        	stx	$16                     ; 0x2016 <_ZN12_GLOBAL__N_112print_stringEPKcP6Status+0xee>
    19ee: a2 c0        	ldx	#$c0
    19f0: 86 17        	stx	$17                     ; 0x2017 <_ZN12_GLOBAL__N_112print_stringEPKcP6Status+0xef>
    19f2: a2 11        	ldx	#$11
    19f4: 86 18        	stx	$18                     ; 0x2018 <_ZN12_GLOBAL__N_112print_stringEPKcP6Status+0xf0>
    19f6: a2 c9        	ldx	#$c9
    19f8: 86 19        	stx	$19                     ; 0x2019 <_ZN12_GLOBAL__N_112print_stringEPKcP6Status+0xf1>
    19fa: a2 10        	ldx	#$10
    19fc: 86 1a        	stx	$1a                     ; 0x201a <_ZN12_GLOBAL__N_112print_stringEPKcP6Status+0xf2>
    19fe: a2 c9        	ldx	#$c9
    1a00: 86 1b        	stx	$1b                     ; 0x201b <_ZN12_GLOBAL__N_112print_stringEPKcP6Status+0xf3>
    1a02: a6 15        	ldx	$15                     ; 0x2015 <_ZN12_GLOBAL__N_112print_stringEPKcP6Status+0xed>
    1a04: 8e 0d de     	stx	$de0d                   ; 0xde0d <__heap_start+0x8027>
    1a07: 8d 0e de     	sta	$de0e                   ; 0xde0e <__heap_start+0x8028>
    1a0a: a6 1c        	ldx	$1c                     ; 0x201c <_ZN12_GLOBAL__N_112print_stringEPKcP6Status+0xf4>
    1a0c: 8e 0f de     	stx	$de0f                   ; 0xde0f <__heap_start+0x8029>
    1a0f: ac 18 de     	ldy	$de18                   ; 0xde18 <__heap_start+0x8032>
    1a12: ad 19 de     	lda	$de19                   ; 0xde19 <__heap_start+0x8033>
    1a15: ae 1a de     	ldx	$de1a                   ; 0xde1a <__heap_start+0x8034>
    1a18: ae 1b de     	ldx	$de1b                   ; 0xde1b <__heap_start+0x8035>
    1a1b: 84 1c        	sty	$1c                     ; 0x201c <_ZN12_GLOBAL__N_112print_stringEPKcP6Status+0xf4>
    1a1d: 85 1d        	sta	$1d                     ; 0x201d <_ZN12_GLOBAL__N_112print_stringEPKcP6Status+0xf5>
    1a1f: 64 15        	stz	$15                     ; 0x2015 <_ZN12_GLOBAL__N_112print_stringEPKcP6Status+0xed>
    1a21: 80 13        	bra	$1a36 <textPrint+0x83>
    1a23: a5 1c        	lda	$1c                     ; 0x201c <_ZN12_GLOBAL__N_112print_stringEPKcP6Status+0xf4>
    1a25: 18           	clc
    1a26: 69 50        	adc	#$50
    1a28: 85 1c        	sta	$1c                     ; 0x201c <_ZN12_GLOBAL__N_112print_stringEPKcP6Status+0xf4>
    1a2a: a5 1d        	lda	$1d                     ; 0x201d <_ZN12_GLOBAL__N_112print_stringEPKcP6Status+0xf5>
    1a2c: 69 00        	adc	#$0
    1a2e: 85 1d        	sta	$1d                     ; 0x201d <_ZN12_GLOBAL__N_112print_stringEPKcP6Status+0xf5>
    1a30: e6 14        	inc	$14                     ; 0x2014 <_ZN12_GLOBAL__N_112print_stringEPKcP6Status+0xec>
    1a32: d0 02        	bne	$1a36 <textPrint+0x83>
    1a34: e6 15        	inc	$15                     ; 0x2015 <_ZN12_GLOBAL__N_112print_stringEPKcP6Status+0xed>
    1a36: a5 12        	lda	$12                     ; 0x2012 <_ZN12_GLOBAL__N_112print_stringEPKcP6Status+0xea>
    1a38: 18           	clc
    1a39: 65 14        	adc	$14                     ; 0x2014 <_ZN12_GLOBAL__N_112print_stringEPKcP6Status+0xec>
    1a3b: 85 1e        	sta	$1e                     ; 0x201e <_ZN12_GLOBAL__N_112print_stringEPKcP6Status+0xf6>
    1a3d: a5 13        	lda	$13                     ; 0x2013 <_ZN12_GLOBAL__N_112print_stringEPKcP6Status+0xeb>
    1a3f: 65 15        	adc	$15                     ; 0x2015 <_ZN12_GLOBAL__N_112print_stringEPKcP6Status+0xed>
    1a41: 85 1f        	sta	$1f                     ; 0x201f <_ZN12_GLOBAL__N_112print_stringEPKcP6Status+0xf7>
    1a43: b2 1e        	lda	($1e)                   ; 0x201e <_ZN12_GLOBAL__N_112print_stringEPKcP6Status+0xf6>
    1a45: c9 0a        	cmp	#$a
    1a47: f0 31        	beq	$1a7a <textPrint+0xc7>
    1a49: c9 0d        	cmp	#$d
    1a4b: f0 2d        	beq	$1a7a <textPrint+0xc7>
    1a4d: aa           	tax
    1a4e: d0 03        	bne	$1a53 <textPrint+0xa0>
    1a50: 4c 6a 1b     	jmp	$1b6a <textPrint+0x1b7>
    1a53: a2 03        	ldx	#$3
    1a55: 86 01        	stx	$1                      ; 0x2001 <_ZN12_GLOBAL__N_112print_stringEPKcP6Status+0xd9>
    1a57: a5 30        	lda	$30                     ; 0x2030 <_ZN12_GLOBAL__N_112print_stringEPKcP6Status+0x108>
    1a59: 29 01        	and	#$1
    1a5b: a2 60        	ldx	#$60
    1a5d: a8           	tay
    1a5e: d0 02        	bne	$1a62 <textPrint+0xaf>
    1a60: a2 f0        	ldx	#$f0
    1a62: a4 31        	ldy	$31                     ; 0x2031 <_ZN12_GLOBAL__N_112print_stringEPKcP6Status+0x109>
    1a64: 8a           	txa
    1a65: 91 1c        	sta	($1c),y                 ; 0x201c <_ZN12_GLOBAL__N_112print_stringEPKcP6Status+0xf4>
    1a67: a2 02        	ldx	#$2
    1a69: 86 01        	stx	$1                      ; 0x2001 <_ZN12_GLOBAL__N_112print_stringEPKcP6Status+0xd9>
    1a6b: b2 1e        	lda	($1e)                   ; 0x201e <_ZN12_GLOBAL__N_112print_stringEPKcP6Status+0xf6>
    1a6d: a4 31        	ldy	$31                     ; 0x2031 <_ZN12_GLOBAL__N_112print_stringEPKcP6Status+0x109>
    1a6f: 91 1c        	sta	($1c),y                 ; 0x201c <_ZN12_GLOBAL__N_112print_stringEPKcP6Status+0xf4>
    1a71: a6 31        	ldx	$31                     ; 0x2031 <_ZN12_GLOBAL__N_112print_stringEPKcP6Status+0x109>
    1a73: e8           	inx
    1a74: e6 31        	inc	$31                     ; 0x2031 <_ZN12_GLOBAL__N_112print_stringEPKcP6Status+0x109>
    1a76: e0 50        	cpx	#$50
    1a78: d0 b6        	bne	$1a30 <textPrint+0x7d>
    1a7a: 64 31        	stz	$31                     ; 0x2031 <_ZN12_GLOBAL__N_112print_stringEPKcP6Status+0x109>
    1a7c: a6 32        	ldx	$32                     ; 0x2032 <_ZN12_GLOBAL__N_112print_stringEPKcP6Status+0x10a>
    1a7e: e8           	inx
    1a7f: e6 32        	inc	$32                     ; 0x2032 <_ZN12_GLOBAL__N_112print_stringEPKcP6Status+0x10a>
    1a81: e0 1e        	cpx	#$1e
    1a83: f0 03        	beq	$1a88 <textPrint+0xd5>
    1a85: 4c 23 1a     	jmp	$1a23 <textPrint+0x70>
    1a88: a2 03        	ldx	#$3
    1a8a: 86 01        	stx	$1                      ; 0x2001 <_ZN12_GLOBAL__N_112print_stringEPKcP6Status+0xd9>
    1a8c: a2 01        	ldx	#$1
    1a8e: 86 1c        	stx	$1c                     ; 0x201c <_ZN12_GLOBAL__N_112print_stringEPKcP6Status+0xf4>
    1a90: a2 09        	ldx	#$9
    1a92: a9 10        	lda	#$10
    1a94: a0 00        	ldy	#$0
    1a96: 84 1e        	sty	$1e                     ; 0x201e <_ZN12_GLOBAL__N_112print_stringEPKcP6Status+0xf6>
    1a98: a0 c0        	ldy	#$c0
    1a9a: 84 1f        	sty	$1f                     ; 0x201f <_ZN12_GLOBAL__N_112print_stringEPKcP6Status+0xf7>
    1a9c: 85 1d        	sta	$1d                     ; 0x201d <_ZN12_GLOBAL__N_112print_stringEPKcP6Status+0xf5>
    1a9e: a0 50        	ldy	#$50
    1aa0: b1 1e        	lda	($1e),y                 ; 0x201e <_ZN12_GLOBAL__N_112print_stringEPKcP6Status+0xf6>
    1aa2: 92 1e        	sta	($1e)                   ; 0x201e <_ZN12_GLOBAL__N_112print_stringEPKcP6Status+0xf6>
    1aa4: a9 ff        	lda	#$ff
    1aa6: c6 1d        	dec	$1d                     ; 0x201d <_ZN12_GLOBAL__N_112print_stringEPKcP6Status+0xf5>
    1aa8: c5 1d        	cmp	$1d                     ; 0x201d <_ZN12_GLOBAL__N_112print_stringEPKcP6Status+0xf5>
    1aaa: d0 01        	bne	$1aad <textPrint+0xfa>
    1aac: ca           	dex
    1aad: e6 1e        	inc	$1e                     ; 0x201e <_ZN12_GLOBAL__N_112print_stringEPKcP6Status+0xf6>
    1aaf: d0 02        	bne	$1ab3 <textPrint+0x100>
    1ab1: e6 1f        	inc	$1f                     ; 0x201f <_ZN12_GLOBAL__N_112print_stringEPKcP6Status+0xf7>
    1ab3: 8a           	txa
    1ab4: d0 ea        	bne	$1aa0 <textPrint+0xed>
    1ab6: a5 1d        	lda	$1d                     ; 0x201d <_ZN12_GLOBAL__N_112print_stringEPKcP6Status+0xf5>
    1ab8: d0 e6        	bne	$1aa0 <textPrint+0xed>
    1aba: a2 02        	ldx	#$2
    1abc: 86 01        	stx	$1                      ; 0x2001 <_ZN12_GLOBAL__N_112print_stringEPKcP6Status+0xd9>
    1abe: a2 00        	ldx	#$0
    1ac0: a5 1c        	lda	$1c                     ; 0x201c <_ZN12_GLOBAL__N_112print_stringEPKcP6Status+0xf4>
    1ac2: d0 ca        	bne	$1a8e <textPrint+0xdb>
    1ac4: a2 03        	ldx	#$3
    1ac6: 86 01        	stx	$1                      ; 0x2001 <_ZN12_GLOBAL__N_112print_stringEPKcP6Status+0xd9>
    1ac8: a5 30        	lda	$30                     ; 0x2030 <_ZN12_GLOBAL__N_112print_stringEPKcP6Status+0x108>
    1aca: 29 01        	and	#$1
    1acc: aa           	tax
    1acd: a9 60        	lda	#$60
    1acf: e0 00        	cpx	#$0
    1ad1: d0 02        	bne	$1ad5 <textPrint+0x122>
    1ad3: a9 f0        	lda	#$f0
    1ad5: a2 50        	ldx	#$50
    1ad7: a0 11        	ldy	#$11
    1ad9: 84 1c        	sty	$1c                     ; 0x201c <_ZN12_GLOBAL__N_112print_stringEPKcP6Status+0xf4>
    1adb: a0 c9        	ldy	#$c9
    1add: 84 1d        	sty	$1d                     ; 0x201d <_ZN12_GLOBAL__N_112print_stringEPKcP6Status+0xf5>
    1adf: a0 10        	ldy	#$10
    1ae1: 84 1e        	sty	$1e                     ; 0x201e <_ZN12_GLOBAL__N_112print_stringEPKcP6Status+0xf6>
    1ae3: a0 c9        	ldy	#$c9
    1ae5: 84 1f        	sty	$1f                     ; 0x201f <_ZN12_GLOBAL__N_112print_stringEPKcP6Status+0xf7>
    1ae7: a4 1c        	ldy	$1c                     ; 0x201c <_ZN12_GLOBAL__N_112print_stringEPKcP6Status+0xf4>
    1ae9: 84 22        	sty	$22                     ; 0x2022 <_ZN12_GLOBAL__N_112print_stringEPKcP6Status+0xfa>
    1aeb: a4 1d        	ldy	$1d                     ; 0x201d <_ZN12_GLOBAL__N_112print_stringEPKcP6Status+0xf5>
    1aed: 84 23        	sty	$23                     ; 0x2023 <_ZN12_GLOBAL__N_112print_stringEPKcP6Status+0xfb>
    1aef: 92 1e        	sta	($1e)                   ; 0x201e <_ZN12_GLOBAL__N_112print_stringEPKcP6Status+0xf6>
    1af1: e6 1c        	inc	$1c                     ; 0x201c <_ZN12_GLOBAL__N_112print_stringEPKcP6Status+0xf4>
    1af3: d0 02        	bne	$1af7 <textPrint+0x144>
    1af5: e6 1d        	inc	$1d                     ; 0x201d <_ZN12_GLOBAL__N_112print_stringEPKcP6Status+0xf5>
    1af7: ca           	dex
    1af8: a4 22        	ldy	$22                     ; 0x2022 <_ZN12_GLOBAL__N_112print_stringEPKcP6Status+0xfa>
    1afa: 84 1e        	sty	$1e                     ; 0x201e <_ZN12_GLOBAL__N_112print_stringEPKcP6Status+0xf6>
    1afc: a4 23        	ldy	$23                     ; 0x2023 <_ZN12_GLOBAL__N_112print_stringEPKcP6Status+0xfb>
    1afe: 84 1f        	sty	$1f                     ; 0x201f <_ZN12_GLOBAL__N_112print_stringEPKcP6Status+0xf7>
    1b00: e0 00        	cpx	#$0
    1b02: d0 e3        	bne	$1ae7 <textPrint+0x134>
    1b04: a2 02        	ldx	#$2
    1b06: 86 01        	stx	$1                      ; 0x2001 <_ZN12_GLOBAL__N_112print_stringEPKcP6Status+0xd9>
    1b08: a2 50        	ldx	#$50
    1b0a: a0 11        	ldy	#$11
    1b0c: 84 1c        	sty	$1c                     ; 0x201c <_ZN12_GLOBAL__N_112print_stringEPKcP6Status+0xf4>
    1b0e: a0 c9        	ldy	#$c9
    1b10: 84 1d        	sty	$1d                     ; 0x201d <_ZN12_GLOBAL__N_112print_stringEPKcP6Status+0xf5>
    1b12: a0 10        	ldy	#$10
    1b14: 84 1e        	sty	$1e                     ; 0x201e <_ZN12_GLOBAL__N_112print_stringEPKcP6Status+0xf6>
    1b16: a0 c9        	ldy	#$c9
    1b18: 84 1f        	sty	$1f                     ; 0x201f <_ZN12_GLOBAL__N_112print_stringEPKcP6Status+0xf7>
    1b1a: a9 20        	lda	#$20
    1b1c: a4 1c        	ldy	$1c                     ; 0x201c <_ZN12_GLOBAL__N_112print_stringEPKcP6Status+0xf4>
    1b1e: 84 22        	sty	$22                     ; 0x2022 <_ZN12_GLOBAL__N_112print_stringEPKcP6Status+0xfa>
    1b20: a4 1d        	ldy	$1d                     ; 0x201d <_ZN12_GLOBAL__N_112print_stringEPKcP6Status+0xf5>
    1b22: 84 23        	sty	$23                     ; 0x2023 <_ZN12_GLOBAL__N_112print_stringEPKcP6Status+0xfb>
    1b24: 92 1e        	sta	($1e)                   ; 0x201e <_ZN12_GLOBAL__N_112print_stringEPKcP6Status+0xf6>
    1b26: e6 1c        	inc	$1c                     ; 0x201c <_ZN12_GLOBAL__N_112print_stringEPKcP6Status+0xf4>
    1b28: d0 02        	bne	$1b2c <textPrint+0x179>
    1b2a: e6 1d        	inc	$1d                     ; 0x201d <_ZN12_GLOBAL__N_112print_stringEPKcP6Status+0xf5>
    1b2c: ca           	dex
    1b2d: a4 22        	ldy	$22                     ; 0x2022 <_ZN12_GLOBAL__N_112print_stringEPKcP6Status+0xfa>
    1b2f: 84 1e        	sty	$1e                     ; 0x201e <_ZN12_GLOBAL__N_112print_stringEPKcP6Status+0xf6>
    1b31: a4 23        	ldy	$23                     ; 0x2023 <_ZN12_GLOBAL__N_112print_stringEPKcP6Status+0xfb>
    1b33: 84 1f        	sty	$1f                     ; 0x201f <_ZN12_GLOBAL__N_112print_stringEPKcP6Status+0xf7>
    1b35: e0 00        	cpx	#$0
    1b37: d0 e3        	bne	$1b1c <textPrint+0x169>
    1b39: c6 32        	dec	$32                     ; 0x2032 <_ZN12_GLOBAL__N_112print_stringEPKcP6Status+0x10a>
    1b3b: 9c 08 de     	stz	$de08                   ; 0xde08 <__heap_start+0x8022>
    1b3e: a2 c0        	ldx	#$c0
    1b40: 8e 09 de     	stx	$de09                   ; 0xde09 <__heap_start+0x8023>
    1b43: 9c 0a de     	stz	$de0a                   ; 0xde0a <__heap_start+0x8024>
    1b46: 9c 0b de     	stz	$de0b                   ; 0xde0b <__heap_start+0x8025>
    1b49: a2 1d        	ldx	#$1d
    1b4b: 8e 0c de     	stx	$de0c                   ; 0xde0c <__heap_start+0x8026>
    1b4e: 9c 0d de     	stz	$de0d                   ; 0xde0d <__heap_start+0x8027>
    1b51: 9c 0e de     	stz	$de0e                   ; 0xde0e <__heap_start+0x8028>
    1b54: 9c 0f de     	stz	$de0f                   ; 0xde0f <__heap_start+0x8029>
    1b57: ae 18 de     	ldx	$de18                   ; 0xde18 <__heap_start+0x8032>
    1b5a: ac 19 de     	ldy	$de19                   ; 0xde19 <__heap_start+0x8033>
    1b5d: ad 1a de     	lda	$de1a                   ; 0xde1a <__heap_start+0x8034>
    1b60: ad 1b de     	lda	$de1b                   ; 0xde1b <__heap_start+0x8035>
    1b63: 86 1c        	stx	$1c                     ; 0x201c <_ZN12_GLOBAL__N_112print_stringEPKcP6Status+0xf4>
    1b65: 84 1d        	sty	$1d                     ; 0x201d <_ZN12_GLOBAL__N_112print_stringEPKcP6Status+0xf5>
    1b67: 4c 30 1a     	jmp	$1a30 <textPrint+0x7d>
    1b6a: a6 94        	ldx	$94                     ; 0x2094 <printf+0x5f>
    1b6c: 86 01        	stx	$1                      ; 0x2001 <_ZN12_GLOBAL__N_112print_stringEPKcP6Status+0xd9>
    1b6e: a6 31        	ldx	$31                     ; 0x2031 <_ZN12_GLOBAL__N_112print_stringEPKcP6Status+0x109>
    1b70: a4 32        	ldy	$32                     ; 0x2032 <_ZN12_GLOBAL__N_112print_stringEPKcP6Status+0x10a>
    1b72: 8e 14 d0     	stx	$d014                   ; 0xd014 <__heap_start+0x722e>
    1b75: 9c 15 d0     	stz	$d015                   ; 0xd015 <__heap_start+0x722f>
    1b78: 84 32        	sty	$32                     ; 0x2032 <_ZN12_GLOBAL__N_112print_stringEPKcP6Status+0x10a>
    1b7a: 8c 16 d0     	sty	$d016                   ; 0xd016 <__heap_start+0x7230>
    1b7d: 9c 17 d0     	stz	$d017                   ; 0xd017 <__heap_start+0x7231>
    1b80: 60           	rts

00001b81 <fileClose>:
    1b81: b2 12        	lda	($12)                   ; 0x2012 <_ZN12_GLOBAL__N_112print_stringEPKcP6Status+0xea>
    1b83: 85 f3        	sta	$f3                     ; 0x20f3 <printf+0xbe>
    1b85: a2 3f        	ldx	#$3f
    1b87: a0 00        	ldy	#$0
    1b89: 86 14        	stx	$14                     ; 0x2014 <_ZN12_GLOBAL__N_112print_stringEPKcP6Status+0xec>
    1b8b: 84 15        	sty	$15                     ; 0x2015 <_ZN12_GLOBAL__N_112print_stringEPKcP6Status+0xed>
    1b8d: a2 35        	ldx	#$35
    1b8f: 86 3d        	stx	$3d                     ; 0x203d <printf+0x8>
    1b91: a2 00        	ldx	#$0
    1b93: 86 3e        	stx	$3e                     ; 0x203e <printf+0x9>
    1b95: 20 68 ff     	jsr	$ff68 <__heap_start+0xa182>
    1b98: 92 14        	sta	($14)                   ; 0x2014 <_ZN12_GLOBAL__N_112print_stringEPKcP6Status+0xec>
    1b9a: a9 00        	lda	#$0
    1b9c: 6a           	ror
    1b9d: 85 3d        	sta	$3d                     ; 0x203d <printf+0x8>
    1b9f: 20 d3 2d     	jsr	$2dd3 <free>
    1ba2: a2 40        	ldx	#$40
    1ba4: a0 00        	ldy	#$0
    1ba6: 86 12        	stx	$12                     ; 0x2012 <_ZN12_GLOBAL__N_112print_stringEPKcP6Status+0xea>
    1ba8: 84 13        	sty	$13                     ; 0x2013 <_ZN12_GLOBAL__N_112print_stringEPKcP6Status+0xeb>
    1baa: 64 36        	stz	$36                     ; 0x2036 <printf+0x1>
    1bac: 20 00 ff     	jsr	$ff00 <__heap_start+0xa11a>
    1baf: 92 12        	sta	($12)                   ; 0x2012 <_ZN12_GLOBAL__N_112print_stringEPKcP6Status+0xea>
    1bb1: a9 00        	lda	#$0
    1bb3: 6a           	ror
    1bb4: 85 3d        	sta	$3d                     ; 0x203d <printf+0x8>
    1bb6: a6 36        	ldx	$36                     ; 0x2036 <printf+0x1>
    1bb8: e0 38        	cpx	#$38
    1bba: f0 04        	beq	$1bc0 <fileClose+0x3f>
    1bbc: e0 32        	cpx	#$32
    1bbe: d0 ea        	bne	$1baa <fileClose+0x29>
    1bc0: 60           	rts

00001bc1 <setTextLUT1>:
    1bc1: a2 d8        	ldx	#$d8
    1bc3: 64 14        	stz	$14                     ; 0x2014 <_ZN12_GLOBAL__N_112print_stringEPKcP6Status+0xec>
    1bc5: 64 12        	stz	$12                     ; 0x2012 <_ZN12_GLOBAL__N_112print_stringEPKcP6Status+0xea>
    1bc7: a4 12        	ldy	$12                     ; 0x2012 <_ZN12_GLOBAL__N_112print_stringEPKcP6Status+0xea>
    1bc9: 86 13        	stx	$13                     ; 0x2013 <_ZN12_GLOBAL__N_112print_stringEPKcP6Status+0xeb>
    1bcb: a9 00        	lda	#$0
    1bcd: 92 12        	sta	($12)                   ; 0x2012 <_ZN12_GLOBAL__N_112print_stringEPKcP6Status+0xea>
    1bcf: a5 12        	lda	$12                     ; 0x2012 <_ZN12_GLOBAL__N_112print_stringEPKcP6Status+0xea>
    1bd1: 09 01        	ora	#$1
    1bd3: 85 12        	sta	$12                     ; 0x2012 <_ZN12_GLOBAL__N_112print_stringEPKcP6Status+0xea>
    1bd5: a9 ff        	lda	#$ff
    1bd7: 92 12        	sta	($12)                   ; 0x2012 <_ZN12_GLOBAL__N_112print_stringEPKcP6Status+0xea>
    1bd9: 98           	tya
    1bda: 09 02        	ora	#$2
    1bdc: 85 12        	sta	$12                     ; 0x2012 <_ZN12_GLOBAL__N_112print_stringEPKcP6Status+0xea>
    1bde: a5 14        	lda	$14                     ; 0x2014 <_ZN12_GLOBAL__N_112print_stringEPKcP6Status+0xec>
    1be0: 92 12        	sta	($12)                   ; 0x2012 <_ZN12_GLOBAL__N_112print_stringEPKcP6Status+0xea>
    1be2: 85 13        	sta	$13                     ; 0x2013 <_ZN12_GLOBAL__N_112print_stringEPKcP6Status+0xeb>
    1be4: 18           	clc
    1be5: 98           	tya
    1be6: 69 04        	adc	#$4
    1be8: 85 12        	sta	$12                     ; 0x2012 <_ZN12_GLOBAL__N_112print_stringEPKcP6Status+0xea>
    1bea: 8a           	txa
    1beb: 69 00        	adc	#$0
    1bed: aa           	tax
    1bee: 18           	clc
    1bef: a5 13        	lda	$13                     ; 0x2013 <_ZN12_GLOBAL__N_112print_stringEPKcP6Status+0xeb>
    1bf1: 69 20        	adc	#$20
    1bf3: 85 14        	sta	$14                     ; 0x2014 <_ZN12_GLOBAL__N_112print_stringEPKcP6Status+0xec>
    1bf5: e0 d8        	cpx	#$d8
    1bf7: d0 ce        	bne	$1bc7 <setTextLUT1+0x6>
    1bf9: a4 12        	ldy	$12                     ; 0x2012 <_ZN12_GLOBAL__N_112print_stringEPKcP6Status+0xea>
    1bfb: c0 20        	cpy	#$20
    1bfd: d0 c8        	bne	$1bc7 <setTextLUT1+0x6>
    1bff: a9 d8        	lda	#$d8
    1c01: a2 20        	ldx	#$20
    1c03: a0 ff        	ldy	#$ff
    1c05: 84 3d        	sty	$3d                     ; 0x203d <printf+0x8>
    1c07: da           	phx
    1c08: 7a           	ply
    1c09: 86 12        	stx	$12                     ; 0x2012 <_ZN12_GLOBAL__N_112print_stringEPKcP6Status+0xea>
    1c0b: aa           	tax
    1c0c: 85 13        	sta	$13                     ; 0x2013 <_ZN12_GLOBAL__N_112print_stringEPKcP6Status+0xeb>
    1c0e: a9 00        	lda	#$0
    1c10: 92 12        	sta	($12)                   ; 0x2012 <_ZN12_GLOBAL__N_112print_stringEPKcP6Status+0xea>
    1c12: 98           	tya
    1c13: 09 01        	ora	#$1
    1c15: 85 12        	sta	$12                     ; 0x2012 <_ZN12_GLOBAL__N_112print_stringEPKcP6Status+0xea>
    1c17: 86 13        	stx	$13                     ; 0x2013 <_ZN12_GLOBAL__N_112print_stringEPKcP6Status+0xeb>
    1c19: a5 3d        	lda	$3d                     ; 0x203d <printf+0x8>
    1c1b: 92 12        	sta	($12)                   ; 0x2012 <_ZN12_GLOBAL__N_112print_stringEPKcP6Status+0xea>
    1c1d: 85 14        	sta	$14                     ; 0x2014 <_ZN12_GLOBAL__N_112print_stringEPKcP6Status+0xec>
    1c1f: 98           	tya
    1c20: 09 02        	ora	#$2
    1c22: 85 12        	sta	$12                     ; 0x2012 <_ZN12_GLOBAL__N_112print_stringEPKcP6Status+0xea>
    1c24: 86 15        	stx	$15                     ; 0x2015 <_ZN12_GLOBAL__N_112print_stringEPKcP6Status+0xed>
    1c26: a9 ff        	lda	#$ff
    1c28: 92 12        	sta	($12)                   ; 0x2012 <_ZN12_GLOBAL__N_112print_stringEPKcP6Status+0xea>
    1c2a: 18           	clc
    1c2b: 98           	tya
    1c2c: 69 04        	adc	#$4
    1c2e: aa           	tax
    1c2f: a5 15        	lda	$15                     ; 0x2015 <_ZN12_GLOBAL__N_112print_stringEPKcP6Status+0xed>
    1c31: 69 00        	adc	#$0
    1c33: a8           	tay
    1c34: 18           	clc
    1c35: a5 14        	lda	$14                     ; 0x2014 <_ZN12_GLOBAL__N_112print_stringEPKcP6Status+0xec>
    1c37: 69 e0        	adc	#$e0
    1c39: 85 3d        	sta	$3d                     ; 0x203d <printf+0x8>
    1c3b: 98           	tya
    1c3c: c0 d8        	cpy	#$d8
    1c3e: d0 c7        	bne	$1c07 <setTextLUT1+0x46>
    1c40: e0 40        	cpx	#$40
    1c42: d0 c3        	bne	$1c07 <setTextLUT1+0x46>
    1c44: 60           	rts

00001c45 <setTextLUT2>:
    1c45: a2 d8        	ldx	#$d8
    1c47: 64 14        	stz	$14                     ; 0x2014 <_ZN12_GLOBAL__N_112print_stringEPKcP6Status+0xec>
    1c49: 64 12        	stz	$12                     ; 0x2012 <_ZN12_GLOBAL__N_112print_stringEPKcP6Status+0xea>
    1c4b: a4 12        	ldy	$12                     ; 0x2012 <_ZN12_GLOBAL__N_112print_stringEPKcP6Status+0xea>
    1c4d: 86 13        	stx	$13                     ; 0x2013 <_ZN12_GLOBAL__N_112print_stringEPKcP6Status+0xeb>
    1c4f: a9 ff        	lda	#$ff
    1c51: 92 12        	sta	($12)                   ; 0x2012 <_ZN12_GLOBAL__N_112print_stringEPKcP6Status+0xea>
    1c53: a5 12        	lda	$12                     ; 0x2012 <_ZN12_GLOBAL__N_112print_stringEPKcP6Status+0xea>
    1c55: 09 01        	ora	#$1
    1c57: 85 12        	sta	$12                     ; 0x2012 <_ZN12_GLOBAL__N_112print_stringEPKcP6Status+0xea>
    1c59: a5 14        	lda	$14                     ; 0x2014 <_ZN12_GLOBAL__N_112print_stringEPKcP6Status+0xec>
    1c5b: 92 12        	sta	($12)                   ; 0x2012 <_ZN12_GLOBAL__N_112print_stringEPKcP6Status+0xea>
    1c5d: 98           	tya
    1c5e: 09 02        	ora	#$2
    1c60: 85 12        	sta	$12                     ; 0x2012 <_ZN12_GLOBAL__N_112print_stringEPKcP6Status+0xea>
    1c62: a9 00        	lda	#$0
    1c64: 92 12        	sta	($12)                   ; 0x2012 <_ZN12_GLOBAL__N_112print_stringEPKcP6Status+0xea>
    1c66: 18           	clc
    1c67: 98           	tya
    1c68: 69 04        	adc	#$4
    1c6a: 85 12        	sta	$12                     ; 0x2012 <_ZN12_GLOBAL__N_112print_stringEPKcP6Status+0xea>
    1c6c: 8a           	txa
    1c6d: 69 00        	adc	#$0
    1c6f: aa           	tax
    1c70: 18           	clc
    1c71: a5 14        	lda	$14                     ; 0x2014 <_ZN12_GLOBAL__N_112print_stringEPKcP6Status+0xec>
    1c73: 69 20        	adc	#$20
    1c75: 85 14        	sta	$14                     ; 0x2014 <_ZN12_GLOBAL__N_112print_stringEPKcP6Status+0xec>
    1c77: e0 d8        	cpx	#$d8
    1c79: d0 d0        	bne	$1c4b <setTextLUT2+0x6>
    1c7b: a4 12        	ldy	$12                     ; 0x2012 <_ZN12_GLOBAL__N_112print_stringEPKcP6Status+0xea>
    1c7d: c0 20        	cpy	#$20
    1c7f: d0 ca        	bne	$1c4b <setTextLUT2+0x6>
    1c81: a2 d8        	ldx	#$d8
    1c83: 86 3d        	stx	$3d                     ; 0x203d <printf+0x8>
    1c85: a2 20        	ldx	#$20
    1c87: a9 ff        	lda	#$ff
    1c89: 86 14        	stx	$14                     ; 0x2014 <_ZN12_GLOBAL__N_112print_stringEPKcP6Status+0xec>
    1c8b: 86 12        	stx	$12                     ; 0x2012 <_ZN12_GLOBAL__N_112print_stringEPKcP6Status+0xea>
    1c8d: a6 3d        	ldx	$3d                     ; 0x203d <printf+0x8>
    1c8f: 86 13        	stx	$13                     ; 0x2013 <_ZN12_GLOBAL__N_112print_stringEPKcP6Status+0xeb>
    1c91: 92 12        	sta	($12)                   ; 0x2012 <_ZN12_GLOBAL__N_112print_stringEPKcP6Status+0xea>
    1c93: a8           	tay
    1c94: a5 14        	lda	$14                     ; 0x2014 <_ZN12_GLOBAL__N_112print_stringEPKcP6Status+0xec>
    1c96: 09 01        	ora	#$1
    1c98: 85 12        	sta	$12                     ; 0x2012 <_ZN12_GLOBAL__N_112print_stringEPKcP6Status+0xea>
    1c9a: a9 ff        	lda	#$ff
    1c9c: 92 12        	sta	($12)                   ; 0x2012 <_ZN12_GLOBAL__N_112print_stringEPKcP6Status+0xea>
    1c9e: a5 14        	lda	$14                     ; 0x2014 <_ZN12_GLOBAL__N_112print_stringEPKcP6Status+0xec>
    1ca0: 09 02        	ora	#$2
    1ca2: 85 12        	sta	$12                     ; 0x2012 <_ZN12_GLOBAL__N_112print_stringEPKcP6Status+0xea>
    1ca4: 86 15        	stx	$15                     ; 0x2015 <_ZN12_GLOBAL__N_112print_stringEPKcP6Status+0xed>
    1ca6: a9 00        	lda	#$0
    1ca8: 92 12        	sta	($12)                   ; 0x2012 <_ZN12_GLOBAL__N_112print_stringEPKcP6Status+0xea>
    1caa: 18           	clc
    1cab: a5 14        	lda	$14                     ; 0x2014 <_ZN12_GLOBAL__N_112print_stringEPKcP6Status+0xec>
    1cad: 69 04        	adc	#$4
    1caf: aa           	tax
    1cb0: a5 15        	lda	$15                     ; 0x2015 <_ZN12_GLOBAL__N_112print_stringEPKcP6Status+0xed>
    1cb2: 69 00        	adc	#$0
    1cb4: 85 12        	sta	$12                     ; 0x2012 <_ZN12_GLOBAL__N_112print_stringEPKcP6Status+0xea>
    1cb6: 18           	clc
    1cb7: 98           	tya
    1cb8: 69 e0        	adc	#$e0
    1cba: a4 12        	ldy	$12                     ; 0x2012 <_ZN12_GLOBAL__N_112print_stringEPKcP6Status+0xea>
    1cbc: 84 3d        	sty	$3d                     ; 0x203d <printf+0x8>
    1cbe: c0 d8        	cpy	#$d8
    1cc0: d0 c7        	bne	$1c89 <setTextLUT2+0x44>
    1cc2: e0 40        	cpx	#$40
    1cc4: d0 c3        	bne	$1c89 <setTextLUT2+0x44>
    1cc6: 60           	rts

00001cc7 <__putchar>:
    1cc7: 85 33        	sta	$33                     ; 0x2033 <_ZN12_GLOBAL__N_112print_stringEPKcP6Status+0x10b>
    1cc9: a2 33        	ldx	#$33
    1ccb: 86 12        	stx	$12                     ; 0x2012 <_ZN12_GLOBAL__N_112print_stringEPKcP6Status+0xea>
    1ccd: a2 00        	ldx	#$0
    1ccf: 86 13        	stx	$13                     ; 0x2013 <_ZN12_GLOBAL__N_112print_stringEPKcP6Status+0xeb>
    1cd1: 4c b3 19     	jmp	$19b3 <textPrint>

00001cd4 <initVS1053Plugin>:
    1cd4: 85 14        	sta	$14                     ; 0x2014 <_ZN12_GLOBAL__N_112print_stringEPKcP6Status+0xec>
    1cd6: 86 15        	stx	$15                     ; 0x2015 <_ZN12_GLOBAL__N_112print_stringEPKcP6Status+0xed>
    1cd8: 64 18        	stz	$18                     ; 0x2018 <_ZN12_GLOBAL__N_112print_stringEPKcP6Status+0xf0>
    1cda: a0 01        	ldy	#$1
    1cdc: a2 00        	ldx	#$0
    1cde: a5 18        	lda	$18                     ; 0x2018 <_ZN12_GLOBAL__N_112print_stringEPKcP6Status+0xf0>
    1ce0: 85 16        	sta	$16                     ; 0x2016 <_ZN12_GLOBAL__N_112print_stringEPKcP6Status+0xee>
    1ce2: 06 16        	asl	$16                     ; 0x2016 <_ZN12_GLOBAL__N_112print_stringEPKcP6Status+0xee>
    1ce4: 8a           	txa
    1ce5: 2a           	rol
    1ce6: 85 17        	sta	$17                     ; 0x2017 <_ZN12_GLOBAL__N_112print_stringEPKcP6Status+0xef>
    1ce8: 18           	clc
    1ce9: a5 16        	lda	$16                     ; 0x2016 <_ZN12_GLOBAL__N_112print_stringEPKcP6Status+0xee>
    1ceb: 65 12        	adc	$12                     ; 0x2012 <_ZN12_GLOBAL__N_112print_stringEPKcP6Status+0xea>
    1ced: 85 16        	sta	$16                     ; 0x2016 <_ZN12_GLOBAL__N_112print_stringEPKcP6Status+0xee>
    1cef: a5 17        	lda	$17                     ; 0x2017 <_ZN12_GLOBAL__N_112print_stringEPKcP6Status+0xef>
    1cf1: 65 13        	adc	$13                     ; 0x2013 <_ZN12_GLOBAL__N_112print_stringEPKcP6Status+0xeb>
    1cf3: 85 19        	sta	$19                     ; 0x2019 <_ZN12_GLOBAL__N_112print_stringEPKcP6Status+0xf1>
    1cf5: a5 16        	lda	$16                     ; 0x2016 <_ZN12_GLOBAL__N_112print_stringEPKcP6Status+0xee>
    1cf7: 85 1b        	sta	$1b                     ; 0x201b <_ZN12_GLOBAL__N_112print_stringEPKcP6Status+0xf3>
    1cf9: a5 19        	lda	$19                     ; 0x2019 <_ZN12_GLOBAL__N_112print_stringEPKcP6Status+0xf1>
    1cfb: 85 17        	sta	$17                     ; 0x2017 <_ZN12_GLOBAL__N_112print_stringEPKcP6Status+0xef>
    1cfd: b2 16        	lda	($16)                   ; 0x2016 <_ZN12_GLOBAL__N_112print_stringEPKcP6Status+0xee>
    1cff: 85 1a        	sta	$1a                     ; 0x201a <_ZN12_GLOBAL__N_112print_stringEPKcP6Status+0xf2>
    1d01: a5 18        	lda	$18                     ; 0x2018 <_ZN12_GLOBAL__N_112print_stringEPKcP6Status+0xf0>
    1d03: 85 1f        	sta	$1f                     ; 0x201f <_ZN12_GLOBAL__N_112print_stringEPKcP6Status+0xf7>
    1d05: a5 18        	lda	$18                     ; 0x2018 <_ZN12_GLOBAL__N_112print_stringEPKcP6Status+0xf0>
    1d07: 18           	clc
    1d08: 69 02        	adc	#$2
    1d0a: 85 1e        	sta	$1e                     ; 0x201e <_ZN12_GLOBAL__N_112print_stringEPKcP6Status+0xf6>
    1d0c: 86 1d        	stx	$1d                     ; 0x201d <_ZN12_GLOBAL__N_112print_stringEPKcP6Status+0xf5>
    1d0e: 8a           	txa
    1d0f: 69 00        	adc	#$0
    1d11: 85 1c        	sta	$1c                     ; 0x201c <_ZN12_GLOBAL__N_112print_stringEPKcP6Status+0xf4>
    1d13: 18           	clc
    1d14: a5 1b        	lda	$1b                     ; 0x201b <_ZN12_GLOBAL__N_112print_stringEPKcP6Status+0xf3>
    1d16: 69 02        	adc	#$2
    1d18: 85 18        	sta	$18                     ; 0x2018 <_ZN12_GLOBAL__N_112print_stringEPKcP6Status+0xf0>
    1d1a: a5 19        	lda	$19                     ; 0x2019 <_ZN12_GLOBAL__N_112print_stringEPKcP6Status+0xf1>
    1d1c: 69 00        	adc	#$0
    1d1e: 85 19        	sta	$19                     ; 0x2019 <_ZN12_GLOBAL__N_112print_stringEPKcP6Status+0xf1>
    1d20: b1 16        	lda	($16),y                 ; 0x2016 <_ZN12_GLOBAL__N_112print_stringEPKcP6Status+0xee>
    1d22: 85 1b        	sta	$1b                     ; 0x201b <_ZN12_GLOBAL__N_112print_stringEPKcP6Status+0xf3>
    1d24: a0 02        	ldy	#$2
    1d26: b1 16        	lda	($16),y                 ; 0x2016 <_ZN12_GLOBAL__N_112print_stringEPKcP6Status+0xee>
    1d28: aa           	tax
    1d29: 88           	dey
    1d2a: b1 18        	lda	($18),y                 ; 0x2018 <_ZN12_GLOBAL__N_112print_stringEPKcP6Status+0xf0>
    1d2c: 85 16        	sta	$16                     ; 0x2016 <_ZN12_GLOBAL__N_112print_stringEPKcP6Status+0xee>
    1d2e: 10 03        	bpl	$1d33 <initVS1053Plugin+0x5f>
    1d30: 4c bb 1d     	jmp	$1dbb <initVS1053Plugin+0xe7>
    1d33: a5 1c        	lda	$1c                     ; 0x201c <_ZN12_GLOBAL__N_112print_stringEPKcP6Status+0xf4>
    1d35: 86 1c        	stx	$1c                     ; 0x201c <_ZN12_GLOBAL__N_112print_stringEPKcP6Status+0xf4>
    1d37: 5a           	phy
    1d38: a4 16        	ldy	$16                     ; 0x2016 <_ZN12_GLOBAL__N_112print_stringEPKcP6Status+0xee>
    1d3a: 84 1d        	sty	$1d                     ; 0x201d <_ZN12_GLOBAL__N_112print_stringEPKcP6Status+0xf5>
    1d3c: 7a           	ply
    1d3d: e6 16        	inc	$16                     ; 0x2016 <_ZN12_GLOBAL__N_112print_stringEPKcP6Status+0xee>
    1d3f: c6 16        	dec	$16                     ; 0x2016 <_ZN12_GLOBAL__N_112print_stringEPKcP6Status+0xee>
    1d41: d0 07        	bne	$1d4a <initVS1053Plugin+0x76>
    1d43: e0 00        	cpx	#$0
    1d45: d0 03        	bne	$1d4a <initVS1053Plugin+0x76>
    1d47: 4c 3d 1e     	jmp	$1e3d <initVS1053Plugin+0x169>
    1d4a: a6 1e        	ldx	$1e                     ; 0x201e <_ZN12_GLOBAL__N_112print_stringEPKcP6Status+0xf6>
    1d4c: 86 18        	stx	$18                     ; 0x2018 <_ZN12_GLOBAL__N_112print_stringEPKcP6Status+0xf0>
    1d4e: a6 1e        	ldx	$1e                     ; 0x201e <_ZN12_GLOBAL__N_112print_stringEPKcP6Status+0xf6>
    1d50: 86 16        	stx	$16                     ; 0x2016 <_ZN12_GLOBAL__N_112print_stringEPKcP6Status+0xee>
    1d52: 06 16        	asl	$16                     ; 0x2016 <_ZN12_GLOBAL__N_112print_stringEPKcP6Status+0xee>
    1d54: 85 19        	sta	$19                     ; 0x2019 <_ZN12_GLOBAL__N_112print_stringEPKcP6Status+0xf1>
    1d56: 2a           	rol
    1d57: aa           	tax
    1d58: 18           	clc
    1d59: a5 16        	lda	$16                     ; 0x2016 <_ZN12_GLOBAL__N_112print_stringEPKcP6Status+0xee>
    1d5b: 65 12        	adc	$12                     ; 0x2012 <_ZN12_GLOBAL__N_112print_stringEPKcP6Status+0xea>
    1d5d: 85 16        	sta	$16                     ; 0x2016 <_ZN12_GLOBAL__N_112print_stringEPKcP6Status+0xee>
    1d5f: 8a           	txa
    1d60: 65 13        	adc	$13                     ; 0x2013 <_ZN12_GLOBAL__N_112print_stringEPKcP6Status+0xeb>
    1d62: 85 17        	sta	$17                     ; 0x2017 <_ZN12_GLOBAL__N_112print_stringEPKcP6Status+0xef>
    1d64: b2 16        	lda	($16)                   ; 0x2016 <_ZN12_GLOBAL__N_112print_stringEPKcP6Status+0xee>
    1d66: 85 1e        	sta	$1e                     ; 0x201e <_ZN12_GLOBAL__N_112print_stringEPKcP6Status+0xf6>
    1d68: b1 16        	lda	($16),y                 ; 0x2016 <_ZN12_GLOBAL__N_112print_stringEPKcP6Status+0xee>
    1d6a: a6 1a        	ldx	$1a                     ; 0x201a <_ZN12_GLOBAL__N_112print_stringEPKcP6Status+0xf2>
    1d6c: 8e 01 d7     	stx	$d701                   ; 0xd701 <__heap_start+0x791b>
    1d6f: a6 1b        	ldx	$1b                     ; 0x201b <_ZN12_GLOBAL__N_112print_stringEPKcP6Status+0xf3>
    1d71: 8e 02 d7     	stx	$d702                   ; 0xd702 <__heap_start+0x791c>
    1d74: a6 1e        	ldx	$1e                     ; 0x201e <_ZN12_GLOBAL__N_112print_stringEPKcP6Status+0xf6>
    1d76: 8e 02 d7     	stx	$d702                   ; 0xd702 <__heap_start+0x791c>
    1d79: 8d 03 d7     	sta	$d703                   ; 0xd703 <__heap_start+0x791d>
    1d7c: 8c 00 d7     	sty	$d700                   ; 0xd700 <__heap_start+0x791a>
    1d7f: 9c 00 d7     	stz	$d700                   ; 0xd700 <__heap_start+0x791a>
    1d82: ae 00 d7     	ldx	$d700                   ; 0xd700 <__heap_start+0x791a>
    1d85: 30 fb        	bmi	$1d82 <initVS1053Plugin+0xae>
    1d87: a6 1c        	ldx	$1c                     ; 0x201c <_ZN12_GLOBAL__N_112print_stringEPKcP6Status+0xf4>
    1d89: 86 16        	stx	$16                     ; 0x2016 <_ZN12_GLOBAL__N_112print_stringEPKcP6Status+0xee>
    1d8b: a6 1d        	ldx	$1d                     ; 0x201d <_ZN12_GLOBAL__N_112print_stringEPKcP6Status+0xf5>
    1d8d: 86 17        	stx	$17                     ; 0x2017 <_ZN12_GLOBAL__N_112print_stringEPKcP6Status+0xef>
    1d8f: a2 ff        	ldx	#$ff
    1d91: c6 16        	dec	$16                     ; 0x2016 <_ZN12_GLOBAL__N_112print_stringEPKcP6Status+0xee>
    1d93: e4 16        	cpx	$16                     ; 0x2016 <_ZN12_GLOBAL__N_112print_stringEPKcP6Status+0xee>
    1d95: d0 02        	bne	$1d99 <initVS1053Plugin+0xc5>
    1d97: c6 17        	dec	$17                     ; 0x2017 <_ZN12_GLOBAL__N_112print_stringEPKcP6Status+0xef>
    1d99: a6 18        	ldx	$18                     ; 0x2018 <_ZN12_GLOBAL__N_112print_stringEPKcP6Status+0xf0>
    1d9b: 86 1e        	stx	$1e                     ; 0x201e <_ZN12_GLOBAL__N_112print_stringEPKcP6Status+0xf6>
    1d9d: a5 19        	lda	$19                     ; 0x2019 <_ZN12_GLOBAL__N_112print_stringEPKcP6Status+0xf1>
    1d9f: e6 1e        	inc	$1e                     ; 0x201e <_ZN12_GLOBAL__N_112print_stringEPKcP6Status+0xf6>
    1da1: d0 01        	bne	$1da4 <initVS1053Plugin+0xd0>
    1da3: 1a           	inc
    1da4: a6 16        	ldx	$16                     ; 0x2016 <_ZN12_GLOBAL__N_112print_stringEPKcP6Status+0xee>
    1da6: 86 1c        	stx	$1c                     ; 0x201c <_ZN12_GLOBAL__N_112print_stringEPKcP6Status+0xf4>
    1da8: a6 17        	ldx	$17                     ; 0x2017 <_ZN12_GLOBAL__N_112print_stringEPKcP6Status+0xef>
    1daa: 86 1d        	stx	$1d                     ; 0x201d <_ZN12_GLOBAL__N_112print_stringEPKcP6Status+0xf5>
    1dac: f0 03        	beq	$1db1 <initVS1053Plugin+0xdd>
    1dae: 4c 4a 1d     	jmp	$1d4a <initVS1053Plugin+0x76>
    1db1: a6 16        	ldx	$16                     ; 0x2016 <_ZN12_GLOBAL__N_112print_stringEPKcP6Status+0xee>
    1db3: f0 03        	beq	$1db8 <initVS1053Plugin+0xe4>
    1db5: 4c 4a 1d     	jmp	$1d4a <initVS1053Plugin+0x76>
    1db8: 4c 3d 1e     	jmp	$1e3d <initVS1053Plugin+0x169>
    1dbb: 29 7f        	and	#$7f
    1dbd: 85 17        	sta	$17                     ; 0x2017 <_ZN12_GLOBAL__N_112print_stringEPKcP6Status+0xef>
    1dbf: 18           	clc
    1dc0: 86 16        	stx	$16                     ; 0x2016 <_ZN12_GLOBAL__N_112print_stringEPKcP6Status+0xee>
    1dc2: a5 1f        	lda	$1f                     ; 0x201f <_ZN12_GLOBAL__N_112print_stringEPKcP6Status+0xf7>
    1dc4: 69 03        	adc	#$3
    1dc6: aa           	tax
    1dc7: a5 1d        	lda	$1d                     ; 0x201d <_ZN12_GLOBAL__N_112print_stringEPKcP6Status+0xf5>
    1dc9: 69 00        	adc	#$0
    1dcb: 85 1d        	sta	$1d                     ; 0x201d <_ZN12_GLOBAL__N_112print_stringEPKcP6Status+0xf5>
    1dcd: a5 16        	lda	$16                     ; 0x2016 <_ZN12_GLOBAL__N_112print_stringEPKcP6Status+0xee>
    1dcf: e6 17        	inc	$17                     ; 0x2017 <_ZN12_GLOBAL__N_112print_stringEPKcP6Status+0xef>
    1dd1: c6 17        	dec	$17                     ; 0x2017 <_ZN12_GLOBAL__N_112print_stringEPKcP6Status+0xef>
    1dd3: d0 07        	bne	$1ddc <initVS1053Plugin+0x108>
    1dd5: c9 00        	cmp	#$0
    1dd7: d0 03        	bne	$1ddc <initVS1053Plugin+0x108>
    1dd9: 4c 39 1e     	jmp	$1e39 <initVS1053Plugin+0x165>
    1ddc: 5a           	phy
    1ddd: a4 17        	ldy	$17                     ; 0x2017 <_ZN12_GLOBAL__N_112print_stringEPKcP6Status+0xef>
    1ddf: 84 18        	sty	$18                     ; 0x2018 <_ZN12_GLOBAL__N_112print_stringEPKcP6Status+0xf0>
    1de1: 7a           	ply
    1de2: 86 19        	stx	$19                     ; 0x2019 <_ZN12_GLOBAL__N_112print_stringEPKcP6Status+0xf1>
    1de4: a6 1e        	ldx	$1e                     ; 0x201e <_ZN12_GLOBAL__N_112print_stringEPKcP6Status+0xf6>
    1de6: 86 16        	stx	$16                     ; 0x2016 <_ZN12_GLOBAL__N_112print_stringEPKcP6Status+0xee>
    1de8: 06 16        	asl	$16                     ; 0x2016 <_ZN12_GLOBAL__N_112print_stringEPKcP6Status+0xee>
    1dea: aa           	tax
    1deb: 26 1c        	rol	$1c                     ; 0x201c <_ZN12_GLOBAL__N_112print_stringEPKcP6Status+0xf4>
    1ded: 18           	clc
    1dee: a5 16        	lda	$16                     ; 0x2016 <_ZN12_GLOBAL__N_112print_stringEPKcP6Status+0xee>
    1df0: 65 12        	adc	$12                     ; 0x2012 <_ZN12_GLOBAL__N_112print_stringEPKcP6Status+0xea>
    1df2: 85 16        	sta	$16                     ; 0x2016 <_ZN12_GLOBAL__N_112print_stringEPKcP6Status+0xee>
    1df4: a5 1c        	lda	$1c                     ; 0x201c <_ZN12_GLOBAL__N_112print_stringEPKcP6Status+0xf4>
    1df6: 65 13        	adc	$13                     ; 0x2013 <_ZN12_GLOBAL__N_112print_stringEPKcP6Status+0xeb>
    1df8: 85 17        	sta	$17                     ; 0x2017 <_ZN12_GLOBAL__N_112print_stringEPKcP6Status+0xef>
    1dfa: 86 1e        	stx	$1e                     ; 0x201e <_ZN12_GLOBAL__N_112print_stringEPKcP6Status+0xf6>
    1dfc: b2 16        	lda	($16)                   ; 0x2016 <_ZN12_GLOBAL__N_112print_stringEPKcP6Status+0xee>
    1dfe: 85 1c        	sta	$1c                     ; 0x201c <_ZN12_GLOBAL__N_112print_stringEPKcP6Status+0xf4>
    1e00: b1 16        	lda	($16),y                 ; 0x2016 <_ZN12_GLOBAL__N_112print_stringEPKcP6Status+0xee>
    1e02: a6 1a        	ldx	$1a                     ; 0x201a <_ZN12_GLOBAL__N_112print_stringEPKcP6Status+0xf2>
    1e04: 8e 01 d7     	stx	$d701                   ; 0xd701 <__heap_start+0x791b>
    1e07: a6 1b        	ldx	$1b                     ; 0x201b <_ZN12_GLOBAL__N_112print_stringEPKcP6Status+0xf3>
    1e09: 8e 02 d7     	stx	$d702                   ; 0xd702 <__heap_start+0x791c>
    1e0c: a6 1c        	ldx	$1c                     ; 0x201c <_ZN12_GLOBAL__N_112print_stringEPKcP6Status+0xf4>
    1e0e: 8e 02 d7     	stx	$d702                   ; 0xd702 <__heap_start+0x791c>
    1e11: 8d 03 d7     	sta	$d703                   ; 0xd703 <__heap_start+0x791d>
    1e14: 8c 00 d7     	sty	$d700                   ; 0xd700 <__heap_start+0x791a>
    1e17: 9c 00 d7     	stz	$d700                   ; 0xd700 <__heap_start+0x791a>
    1e1a: ae 00 d7     	ldx	$d700                   ; 0xd700 <__heap_start+0x791a>
    1e1d: 30 fb        	bmi	$1e1a <initVS1053Plugin+0x146>
    1e1f: a6 18        	ldx	$18                     ; 0x2018 <_ZN12_GLOBAL__N_112print_stringEPKcP6Status+0xf0>
    1e21: 86 16        	stx	$16                     ; 0x2016 <_ZN12_GLOBAL__N_112print_stringEPKcP6Status+0xee>
    1e23: a2 ff        	ldx	#$ff
    1e25: c6 1e        	dec	$1e                     ; 0x201e <_ZN12_GLOBAL__N_112print_stringEPKcP6Status+0xf6>
    1e27: e4 1e        	cpx	$1e                     ; 0x201e <_ZN12_GLOBAL__N_112print_stringEPKcP6Status+0xf6>
    1e29: d0 02        	bne	$1e2d <initVS1053Plugin+0x159>
    1e2b: c6 16        	dec	$16                     ; 0x2016 <_ZN12_GLOBAL__N_112print_stringEPKcP6Status+0xee>
    1e2d: a6 16        	ldx	$16                     ; 0x2016 <_ZN12_GLOBAL__N_112print_stringEPKcP6Status+0xee>
    1e2f: 86 18        	stx	$18                     ; 0x2018 <_ZN12_GLOBAL__N_112print_stringEPKcP6Status+0xf0>
    1e31: d0 cf        	bne	$1e02 <initVS1053Plugin+0x12e>
    1e33: a6 1e        	ldx	$1e                     ; 0x201e <_ZN12_GLOBAL__N_112print_stringEPKcP6Status+0xf6>
    1e35: d0 cb        	bne	$1e02 <initVS1053Plugin+0x12e>
    1e37: a6 19        	ldx	$19                     ; 0x2019 <_ZN12_GLOBAL__N_112print_stringEPKcP6Status+0xf1>
    1e39: 86 1e        	stx	$1e                     ; 0x201e <_ZN12_GLOBAL__N_112print_stringEPKcP6Status+0xf6>
    1e3b: a5 1d        	lda	$1d                     ; 0x201d <_ZN12_GLOBAL__N_112print_stringEPKcP6Status+0xf5>
    1e3d: a6 1e        	ldx	$1e                     ; 0x201e <_ZN12_GLOBAL__N_112print_stringEPKcP6Status+0xf6>
    1e3f: c5 15        	cmp	$15                     ; 0x2015 <_ZN12_GLOBAL__N_112print_stringEPKcP6Status+0xed>
    1e41: d0 04        	bne	$1e47 <initVS1053Plugin+0x173>
    1e43: e4 14        	cpx	$14                     ; 0x2014 <_ZN12_GLOBAL__N_112print_stringEPKcP6Status+0xec>
    1e45: 80 02        	bra	$1e49 <initVS1053Plugin+0x175>
    1e47: c5 15        	cmp	$15                     ; 0x2015 <_ZN12_GLOBAL__N_112print_stringEPKcP6Status+0xed>
    1e49: 86 18        	stx	$18                     ; 0x2018 <_ZN12_GLOBAL__N_112print_stringEPKcP6Status+0xf0>
    1e4b: aa           	tax
    1e4c: b0 03        	bcs	$1e51 <initVS1053Plugin+0x17d>
    1e4e: 4c de 1c     	jmp	$1cde <initVS1053Plugin+0xa>
    1e51: 60           	rts

00001e52 <exit>:
    1e52: 20 14 03     	jsr	$314 <_fini>
    1e55: 80 fe        	bra	$1e55 <exit+0x3>

00001e57 <_ZN12_GLOBAL__N_13putEcP6Status>:
    1e57: 85 18        	sta	$18                     ; 0x2018 <_ZN12_GLOBAL__N_112print_stringEPKcP6Status+0xf0>
    1e59: a6 13        	ldx	$13                     ; 0x2013 <_ZN12_GLOBAL__N_112print_stringEPKcP6Status+0xeb>
    1e5b: 18           	clc
    1e5c: a5 12        	lda	$12                     ; 0x2012 <_ZN12_GLOBAL__N_112print_stringEPKcP6Status+0xea>
    1e5e: 69 05        	adc	#$5
    1e60: a8           	tay
    1e61: a5 13        	lda	$13                     ; 0x2013 <_ZN12_GLOBAL__N_112print_stringEPKcP6Status+0xeb>
    1e63: 86 15        	stx	$15                     ; 0x2015 <_ZN12_GLOBAL__N_112print_stringEPKcP6Status+0xed>
    1e65: 69 00        	adc	#$0
    1e67: 18           	clc
    1e68: 84 16        	sty	$16                     ; 0x2016 <_ZN12_GLOBAL__N_112print_stringEPKcP6Status+0xee>
    1e6a: a0 05        	ldy	#$5
    1e6c: 85 17        	sta	$17                     ; 0x2017 <_ZN12_GLOBAL__N_112print_stringEPKcP6Status+0xef>
    1e6e: b1 12        	lda	($12),y                 ; 0x2012 <_ZN12_GLOBAL__N_112print_stringEPKcP6Status+0xea>
    1e70: aa           	tax
    1e71: a5 12        	lda	$12                     ; 0x2012 <_ZN12_GLOBAL__N_112print_stringEPKcP6Status+0xea>
    1e73: 69 03        	adc	#$3
    1e75: 85 14        	sta	$14                     ; 0x2014 <_ZN12_GLOBAL__N_112print_stringEPKcP6Status+0xec>
    1e77: a5 15        	lda	$15                     ; 0x2015 <_ZN12_GLOBAL__N_112print_stringEPKcP6Status+0xed>
    1e79: 69 00        	adc	#$0
    1e7b: 85 15        	sta	$15                     ; 0x2015 <_ZN12_GLOBAL__N_112print_stringEPKcP6Status+0xed>
    1e7d: a0 01        	ldy	#$1
    1e7f: b1 16        	lda	($16),y                 ; 0x2016 <_ZN12_GLOBAL__N_112print_stringEPKcP6Status+0xee>
    1e81: d1 14        	cmp	($14),y                 ; 0x2014 <_ZN12_GLOBAL__N_112print_stringEPKcP6Status+0xec>
    1e83: d0 11        	bne	$1e96 <_ZN12_GLOBAL__N_13putEcP6Status+0x3f>
    1e85: a0 03        	ldy	#$3
    1e87: 85 17        	sta	$17                     ; 0x2017 <_ZN12_GLOBAL__N_112print_stringEPKcP6Status+0xef>
    1e89: b1 12        	lda	($12),y                 ; 0x2012 <_ZN12_GLOBAL__N_112print_stringEPKcP6Status+0xea>
    1e8b: 85 14        	sta	$14                     ; 0x2014 <_ZN12_GLOBAL__N_112print_stringEPKcP6Status+0xec>
    1e8d: 86 16        	stx	$16                     ; 0x2016 <_ZN12_GLOBAL__N_112print_stringEPKcP6Status+0xee>
    1e8f: e4 14        	cpx	$14                     ; 0x2014 <_ZN12_GLOBAL__N_112print_stringEPKcP6Status+0xec>
    1e91: 90 0e        	bcc	$1ea1 <_ZN12_GLOBAL__N_13putEcP6Status+0x4a>
    1e93: 4c 00 1f     	jmp	$1f00 <_ZN12_GLOBAL__N_13putEcP6Status+0xa9>
    1e96: 86 16        	stx	$16                     ; 0x2016 <_ZN12_GLOBAL__N_112print_stringEPKcP6Status+0xee>
    1e98: d1 14        	cmp	($14),y                 ; 0x2014 <_ZN12_GLOBAL__N_112print_stringEPKcP6Status+0xec>
    1e9a: 85 17        	sta	$17                     ; 0x2017 <_ZN12_GLOBAL__N_112print_stringEPKcP6Status+0xef>
    1e9c: 90 03        	bcc	$1ea1 <_ZN12_GLOBAL__N_13putEcP6Status+0x4a>
    1e9e: 4c 00 1f     	jmp	$1f00 <_ZN12_GLOBAL__N_13putEcP6Status+0xa9>
    1ea1: a5 12        	lda	$12                     ; 0x2012 <_ZN12_GLOBAL__N_112print_stringEPKcP6Status+0xea>
    1ea3: 18           	clc
    1ea4: 69 0f        	adc	#$f
    1ea6: 85 14        	sta	$14                     ; 0x2014 <_ZN12_GLOBAL__N_112print_stringEPKcP6Status+0xec>
    1ea8: a5 13        	lda	$13                     ; 0x2013 <_ZN12_GLOBAL__N_112print_stringEPKcP6Status+0xeb>
    1eaa: 69 00        	adc	#$0
    1eac: 85 15        	sta	$15                     ; 0x2015 <_ZN12_GLOBAL__N_112print_stringEPKcP6Status+0xed>
    1eae: a0 01        	ldy	#$1
    1eb0: b1 14        	lda	($14),y                 ; 0x2014 <_ZN12_GLOBAL__N_112print_stringEPKcP6Status+0xec>
    1eb2: a2 00        	ldx	#$0
    1eb4: 86 14        	stx	$14                     ; 0x2014 <_ZN12_GLOBAL__N_112print_stringEPKcP6Status+0xec>
    1eb6: a2 00        	ldx	#$0
    1eb8: 86 15        	stx	$15                     ; 0x2015 <_ZN12_GLOBAL__N_112print_stringEPKcP6Status+0xed>
    1eba: c5 15        	cmp	$15                     ; 0x2015 <_ZN12_GLOBAL__N_112print_stringEPKcP6Status+0xed>
    1ebc: d0 2d        	bne	$1eeb <_ZN12_GLOBAL__N_13putEcP6Status+0x94>
    1ebe: a0 0f        	ldy	#$f
    1ec0: b1 12        	lda	($12),y                 ; 0x2012 <_ZN12_GLOBAL__N_112print_stringEPKcP6Status+0xea>
    1ec2: c5 14        	cmp	$14                     ; 0x2014 <_ZN12_GLOBAL__N_112print_stringEPKcP6Status+0xec>
    1ec4: d0 25        	bne	$1eeb <_ZN12_GLOBAL__N_13putEcP6Status+0x94>
    1ec6: a5 12        	lda	$12                     ; 0x2012 <_ZN12_GLOBAL__N_112print_stringEPKcP6Status+0xea>
    1ec8: 18           	clc
    1ec9: 69 09        	adc	#$9
    1ecb: 85 14        	sta	$14                     ; 0x2014 <_ZN12_GLOBAL__N_112print_stringEPKcP6Status+0xec>
    1ecd: a5 13        	lda	$13                     ; 0x2013 <_ZN12_GLOBAL__N_112print_stringEPKcP6Status+0xeb>
    1ecf: 69 00        	adc	#$0
    1ed1: a0 09        	ldy	#$9
    1ed3: 85 15        	sta	$15                     ; 0x2015 <_ZN12_GLOBAL__N_112print_stringEPKcP6Status+0xed>
    1ed5: 18           	clc
    1ed6: a5 16        	lda	$16                     ; 0x2016 <_ZN12_GLOBAL__N_112print_stringEPKcP6Status+0xee>
    1ed8: 71 12        	adc	($12),y                 ; 0x2012 <_ZN12_GLOBAL__N_112print_stringEPKcP6Status+0xea>
    1eda: aa           	tax
    1edb: a0 01        	ldy	#$1
    1edd: a5 17        	lda	$17                     ; 0x2017 <_ZN12_GLOBAL__N_112print_stringEPKcP6Status+0xef>
    1edf: 71 14        	adc	($14),y                 ; 0x2014 <_ZN12_GLOBAL__N_112print_stringEPKcP6Status+0xec>
    1ee1: 86 14        	stx	$14                     ; 0x2014 <_ZN12_GLOBAL__N_112print_stringEPKcP6Status+0xec>
    1ee3: 85 15        	sta	$15                     ; 0x2015 <_ZN12_GLOBAL__N_112print_stringEPKcP6Status+0xed>
    1ee5: a5 18        	lda	$18                     ; 0x2018 <_ZN12_GLOBAL__N_112print_stringEPKcP6Status+0xf0>
    1ee7: 92 14        	sta	($14)                   ; 0x2014 <_ZN12_GLOBAL__N_112print_stringEPKcP6Status+0xec>
    1ee9: 80 15        	bra	$1f00 <_ZN12_GLOBAL__N_13putEcP6Status+0xa9>
    1eeb: a6 12        	ldx	$12                     ; 0x2012 <_ZN12_GLOBAL__N_112print_stringEPKcP6Status+0xea>
    1eed: 86 92        	stx	$92                     ; 0x2092 <printf+0x5d>
    1eef: a6 13        	ldx	$13                     ; 0x2013 <_ZN12_GLOBAL__N_112print_stringEPKcP6Status+0xeb>
    1ef1: 86 93        	stx	$93                     ; 0x2093 <printf+0x5e>
    1ef3: a5 18        	lda	$18                     ; 0x2018 <_ZN12_GLOBAL__N_112print_stringEPKcP6Status+0xf0>
    1ef5: 20 c7 1c     	jsr	$1cc7 <__putchar>
    1ef8: a6 92        	ldx	$92                     ; 0x2092 <printf+0x5d>
    1efa: 86 12        	stx	$12                     ; 0x2012 <_ZN12_GLOBAL__N_112print_stringEPKcP6Status+0xea>
    1efc: a6 93        	ldx	$93                     ; 0x2093 <printf+0x5e>
    1efe: 86 13        	stx	$13                     ; 0x2013 <_ZN12_GLOBAL__N_112print_stringEPKcP6Status+0xeb>
    1f00: a0 05        	ldy	#$5
    1f02: a5 12        	lda	$12                     ; 0x2012 <_ZN12_GLOBAL__N_112print_stringEPKcP6Status+0xea>
    1f04: 18           	clc
    1f05: 69 05        	adc	#$5
    1f07: 85 14        	sta	$14                     ; 0x2014 <_ZN12_GLOBAL__N_112print_stringEPKcP6Status+0xec>
    1f09: a5 13        	lda	$13                     ; 0x2013 <_ZN12_GLOBAL__N_112print_stringEPKcP6Status+0xeb>
    1f0b: 69 00        	adc	#$0
    1f0d: 85 15        	sta	$15                     ; 0x2015 <_ZN12_GLOBAL__N_112print_stringEPKcP6Status+0xed>
    1f0f: b1 12        	lda	($12),y                 ; 0x2012 <_ZN12_GLOBAL__N_112print_stringEPKcP6Status+0xea>
    1f11: aa           	tax
    1f12: a0 01        	ldy	#$1
    1f14: b1 14        	lda	($14),y                 ; 0x2014 <_ZN12_GLOBAL__N_112print_stringEPKcP6Status+0xec>
    1f16: e8           	inx
    1f17: d0 01        	bne	$1f1a <_ZN12_GLOBAL__N_13putEcP6Status+0xc3>
    1f19: 1a           	inc
    1f1a: 85 16        	sta	$16                     ; 0x2016 <_ZN12_GLOBAL__N_112print_stringEPKcP6Status+0xee>
    1f1c: 8a           	txa
    1f1d: a0 05        	ldy	#$5
    1f1f: 91 12        	sta	($12),y                 ; 0x2012 <_ZN12_GLOBAL__N_112print_stringEPKcP6Status+0xea>
    1f21: a0 01        	ldy	#$1
    1f23: a5 16        	lda	$16                     ; 0x2016 <_ZN12_GLOBAL__N_112print_stringEPKcP6Status+0xee>
    1f25: 91 14        	sta	($14),y                 ; 0x2014 <_ZN12_GLOBAL__N_112print_stringEPKcP6Status+0xec>
    1f27: 60           	rts

00001f28 <_ZN12_GLOBAL__N_112print_stringEPKcP6Status>:
    1f28: a6 12        	ldx	$12                     ; 0x2012 <_ZN12_GLOBAL__N_112print_stringEPKcP6Status+0xea>
    1f2a: 86 8a        	stx	$8a                     ; 0x208a <printf+0x55>
    1f2c: a6 13        	ldx	$13                     ; 0x2013 <_ZN12_GLOBAL__N_112print_stringEPKcP6Status+0xeb>
    1f2e: 86 8b        	stx	$8b                     ; 0x208b <printf+0x56>
    1f30: a6 14        	ldx	$14                     ; 0x2014 <_ZN12_GLOBAL__N_112print_stringEPKcP6Status+0xec>
    1f32: 86 8c        	stx	$8c                     ; 0x208c <printf+0x57>
    1f34: a6 15        	ldx	$15                     ; 0x2015 <_ZN12_GLOBAL__N_112print_stringEPKcP6Status+0xed>
    1f36: 86 8d        	stx	$8d                     ; 0x208d <printf+0x58>
    1f38: a5 8c        	lda	$8c                     ; 0x208c <printf+0x57>
    1f3a: 18           	clc
    1f3b: 69 0d        	adc	#$d
    1f3d: 85 12        	sta	$12                     ; 0x2012 <_ZN12_GLOBAL__N_112print_stringEPKcP6Status+0xea>
    1f3f: a5 8d        	lda	$8d                     ; 0x208d <printf+0x58>
    1f41: 69 00        	adc	#$0
    1f43: 85 13        	sta	$13                     ; 0x2013 <_ZN12_GLOBAL__N_112print_stringEPKcP6Status+0xeb>
    1f45: a0 01        	ldy	#$1
    1f47: b1 12        	lda	($12),y                 ; 0x2012 <_ZN12_GLOBAL__N_112print_stringEPKcP6Status+0xea>
    1f49: 30 16        	bmi	$1f61 <_ZN12_GLOBAL__N_112print_stringEPKcP6Status+0x39>
    1f4b: a0 0d        	ldy	#$d
    1f4d: 85 12        	sta	$12                     ; 0x2012 <_ZN12_GLOBAL__N_112print_stringEPKcP6Status+0xea>
    1f4f: b1 8c        	lda	($8c),y                 ; 0x208c <printf+0x57>
    1f51: a6 12        	ldx	$12                     ; 0x2012 <_ZN12_GLOBAL__N_112print_stringEPKcP6Status+0xea>
    1f53: 86 91        	stx	$91                     ; 0x2091 <printf+0x5c>
    1f55: d0 0f        	bne	$1f66 <_ZN12_GLOBAL__N_112print_stringEPKcP6Status+0x3e>
    1f57: aa           	tax
    1f58: d0 0c        	bne	$1f66 <_ZN12_GLOBAL__N_112print_stringEPKcP6Status+0x3e>
    1f5a: 64 8e        	stz	$8e                     ; 0x208e <printf+0x59>
    1f5c: a2 00        	ldx	#$0
    1f5e: 4c 30 20     	jmp	$2030 <_ZN12_GLOBAL__N_112print_stringEPKcP6Status+0x108>
    1f61: a9 ff        	lda	#$ff
    1f63: aa           	tax
    1f64: 86 91        	stx	$91                     ; 0x2091 <printf+0x5c>
    1f66: 85 8e        	sta	$8e                     ; 0x208e <printf+0x59>
    1f68: 64 12        	stz	$12                     ; 0x2012 <_ZN12_GLOBAL__N_112print_stringEPKcP6Status+0xea>
    1f6a: a4 8a        	ldy	$8a                     ; 0x208a <printf+0x55>
    1f6c: a6 8b        	ldx	$8b                     ; 0x208b <printf+0x56>
    1f6e: 86 16        	stx	$16                     ; 0x2016 <_ZN12_GLOBAL__N_112print_stringEPKcP6Status+0xee>
    1f70: 64 13        	stz	$13                     ; 0x2013 <_ZN12_GLOBAL__N_112print_stringEPKcP6Status+0xeb>
    1f72: 98           	tya
    1f73: 18           	clc
    1f74: 65 12        	adc	$12                     ; 0x2012 <_ZN12_GLOBAL__N_112print_stringEPKcP6Status+0xea>
    1f76: 85 14        	sta	$14                     ; 0x2014 <_ZN12_GLOBAL__N_112print_stringEPKcP6Status+0xec>
    1f78: a5 8b        	lda	$8b                     ; 0x208b <printf+0x56>
    1f7a: 65 13        	adc	$13                     ; 0x2013 <_ZN12_GLOBAL__N_112print_stringEPKcP6Status+0xeb>
    1f7c: 85 15        	sta	$15                     ; 0x2015 <_ZN12_GLOBAL__N_112print_stringEPKcP6Status+0xed>
    1f7e: b2 14        	lda	($14)                   ; 0x2014 <_ZN12_GLOBAL__N_112print_stringEPKcP6Status+0xec>
    1f80: d0 03        	bne	$1f85 <_ZN12_GLOBAL__N_112print_stringEPKcP6Status+0x5d>
    1f82: 4c 2a 20     	jmp	$202a <_ZN12_GLOBAL__N_112print_stringEPKcP6Status+0x102>
    1f85: e6 12        	inc	$12                     ; 0x2012 <_ZN12_GLOBAL__N_112print_stringEPKcP6Status+0xea>
    1f87: d0 02        	bne	$1f8b <_ZN12_GLOBAL__N_112print_stringEPKcP6Status+0x63>
    1f89: e6 13        	inc	$13                     ; 0x2013 <_ZN12_GLOBAL__N_112print_stringEPKcP6Status+0xeb>
    1f8b: a6 91        	ldx	$91                     ; 0x2091 <printf+0x5c>
    1f8d: e4 13        	cpx	$13                     ; 0x2013 <_ZN12_GLOBAL__N_112print_stringEPKcP6Status+0xeb>
    1f8f: d0 e1        	bne	$1f72 <_ZN12_GLOBAL__N_112print_stringEPKcP6Status+0x4a>
    1f91: a6 8e        	ldx	$8e                     ; 0x208e <printf+0x59>
    1f93: e4 12        	cpx	$12                     ; 0x2012 <_ZN12_GLOBAL__N_112print_stringEPKcP6Status+0xea>
    1f95: d0 db        	bne	$1f72 <_ZN12_GLOBAL__N_112print_stringEPKcP6Status+0x4a>
    1f97: a0 01        	ldy	#$1
    1f99: 98           	tya
    1f9a: 31 8c        	and	($8c),y                 ; 0x208c <printf+0x57>
    1f9c: 29 01        	and	#$1
    1f9e: f0 03        	beq	$1fa3 <_ZN12_GLOBAL__N_112print_stringEPKcP6Status+0x7b>
    1fa0: 4c fb 1f     	jmp	$1ffb <_ZN12_GLOBAL__N_112print_stringEPKcP6Status+0xd3>
    1fa3: a0 0b        	ldy	#$b
    1fa5: a5 8c        	lda	$8c                     ; 0x208c <printf+0x57>
    1fa7: 18           	clc
    1fa8: 69 0b        	adc	#$b
    1faa: 85 14        	sta	$14                     ; 0x2014 <_ZN12_GLOBAL__N_112print_stringEPKcP6Status+0xec>
    1fac: a5 8d        	lda	$8d                     ; 0x208d <printf+0x58>
    1fae: 69 00        	adc	#$0
    1fb0: 85 15        	sta	$15                     ; 0x2015 <_ZN12_GLOBAL__N_112print_stringEPKcP6Status+0xed>
    1fb2: b1 8c        	lda	($8c),y                 ; 0x208c <printf+0x57>
    1fb4: 85 12        	sta	$12                     ; 0x2012 <_ZN12_GLOBAL__N_112print_stringEPKcP6Status+0xea>
    1fb6: a0 01        	ldy	#$1
    1fb8: b1 14        	lda	($14),y                 ; 0x2014 <_ZN12_GLOBAL__N_112print_stringEPKcP6Status+0xec>
    1fba: 85 13        	sta	$13                     ; 0x2013 <_ZN12_GLOBAL__N_112print_stringEPKcP6Status+0xeb>
    1fbc: a6 91        	ldx	$91                     ; 0x2091 <printf+0x5c>
    1fbe: e4 13        	cpx	$13                     ; 0x2013 <_ZN12_GLOBAL__N_112print_stringEPKcP6Status+0xeb>
    1fc0: d0 08        	bne	$1fca <_ZN12_GLOBAL__N_112print_stringEPKcP6Status+0xa2>
    1fc2: a6 8e        	ldx	$8e                     ; 0x208e <printf+0x59>
    1fc4: e4 12        	cpx	$12                     ; 0x2012 <_ZN12_GLOBAL__N_112print_stringEPKcP6Status+0xea>
    1fc6: 90 06        	bcc	$1fce <_ZN12_GLOBAL__N_112print_stringEPKcP6Status+0xa6>
    1fc8: 80 31        	bra	$1ffb <_ZN12_GLOBAL__N_112print_stringEPKcP6Status+0xd3>
    1fca: e4 13        	cpx	$13                     ; 0x2013 <_ZN12_GLOBAL__N_112print_stringEPKcP6Status+0xeb>
    1fcc: b0 2d        	bcs	$1ffb <_ZN12_GLOBAL__N_112print_stringEPKcP6Status+0xd3>
    1fce: 38           	sec
    1fcf: a5 8e        	lda	$8e                     ; 0x208e <printf+0x59>
    1fd1: e5 12        	sbc	$12                     ; 0x2012 <_ZN12_GLOBAL__N_112print_stringEPKcP6Status+0xea>
    1fd3: a8           	tay
    1fd4: a5 91        	lda	$91                     ; 0x2091 <printf+0x5c>
    1fd6: e5 13        	sbc	$13                     ; 0x2013 <_ZN12_GLOBAL__N_112print_stringEPKcP6Status+0xeb>
    1fd8: 85 90        	sta	$90                     ; 0x2090 <printf+0x5b>
    1fda: a6 8c        	ldx	$8c                     ; 0x208c <printf+0x57>
    1fdc: 86 12        	stx	$12                     ; 0x2012 <_ZN12_GLOBAL__N_112print_stringEPKcP6Status+0xea>
    1fde: a6 8d        	ldx	$8d                     ; 0x208d <printf+0x58>
    1fe0: 86 13        	stx	$13                     ; 0x2013 <_ZN12_GLOBAL__N_112print_stringEPKcP6Status+0xeb>
    1fe2: 84 8f        	sty	$8f                     ; 0x208f <printf+0x5a>
    1fe4: a9 20        	lda	#$20
    1fe6: 20 57 1e     	jsr	$1e57 <_ZN12_GLOBAL__N_13putEcP6Status>
    1fe9: a6 90        	ldx	$90                     ; 0x2090 <printf+0x5b>
    1feb: e6 8f        	inc	$8f                     ; 0x208f <printf+0x5a>
    1fed: d0 01        	bne	$1ff0 <_ZN12_GLOBAL__N_112print_stringEPKcP6Status+0xc8>
    1fef: e8           	inx
    1ff0: 86 90        	stx	$90                     ; 0x2090 <printf+0x5b>
    1ff2: a4 8f        	ldy	$8f                     ; 0x208f <printf+0x5a>
    1ff4: 8a           	txa
    1ff5: d0 e3        	bne	$1fda <_ZN12_GLOBAL__N_112print_stringEPKcP6Status+0xb2>
    1ff7: a5 8f        	lda	$8f                     ; 0x208f <printf+0x5a>
    1ff9: d0 df        	bne	$1fda <_ZN12_GLOBAL__N_112print_stringEPKcP6Status+0xb2>
    1ffb: a4 91        	ldy	$91                     ; 0x2091 <printf+0x5c>
    1ffd: d0 04        	bne	$2003 <_ZN12_GLOBAL__N_112print_stringEPKcP6Status+0xdb>
    1fff: a5 8e        	lda	$8e                     ; 0x208e <printf+0x59>
    2001: f0 26        	beq	$2029 <_ZN12_GLOBAL__N_112print_stringEPKcP6Status+0x101>
    2003: a2 ff        	ldx	#$ff
    2005: c6 8e        	dec	$8e                     ; 0x208e <printf+0x59>
    2007: e4 8e        	cpx	$8e                     ; 0x208e <printf+0x59>
    2009: d0 01        	bne	$200c <_ZN12_GLOBAL__N_112print_stringEPKcP6Status+0xe4>
    200b: 88           	dey
    200c: 84 8f        	sty	$8f                     ; 0x208f <printf+0x5a>
    200e: b2 8a        	lda	($8a)                   ; 0x208a <printf+0x55>
    2010: e6 8a        	inc	$8a                     ; 0x208a <printf+0x55>
    2012: d0 02        	bne	$2016 <_ZN12_GLOBAL__N_112print_stringEPKcP6Status+0xee>
    2014: e6 8b        	inc	$8b                     ; 0x208b <printf+0x56>
    2016: a6 8c        	ldx	$8c                     ; 0x208c <printf+0x57>
    2018: 86 12        	stx	$12                     ; 0x2012 <_ZN12_GLOBAL__N_112print_stringEPKcP6Status+0xea>
    201a: a6 8d        	ldx	$8d                     ; 0x208d <printf+0x58>
    201c: 86 13        	stx	$13                     ; 0x2013 <_ZN12_GLOBAL__N_112print_stringEPKcP6Status+0xeb>
    201e: 20 57 1e     	jsr	$1e57 <_ZN12_GLOBAL__N_13putEcP6Status>
    2021: a4 8f        	ldy	$8f                     ; 0x208f <printf+0x5a>
    2023: d0 de        	bne	$2003 <_ZN12_GLOBAL__N_112print_stringEPKcP6Status+0xdb>
    2025: a5 8e        	lda	$8e                     ; 0x208e <printf+0x59>
    2027: d0 da        	bne	$2003 <_ZN12_GLOBAL__N_112print_stringEPKcP6Status+0xdb>
    2029: 60           	rts
    202a: a6 12        	ldx	$12                     ; 0x2012 <_ZN12_GLOBAL__N_112print_stringEPKcP6Status+0xea>
    202c: 86 8e        	stx	$8e                     ; 0x208e <printf+0x59>
    202e: a6 13        	ldx	$13                     ; 0x2013 <_ZN12_GLOBAL__N_112print_stringEPKcP6Status+0xeb>
    2030: 86 91        	stx	$91                     ; 0x2091 <printf+0x5c>
    2032: 4c 97 1f     	jmp	$1f97 <_ZN12_GLOBAL__N_112print_stringEPKcP6Status+0x6f>

00002035 <printf>:
    2035: a6 12        	ldx	$12                     ; 0x2012 <_ZN12_GLOBAL__N_112print_stringEPKcP6Status+0xea>
    2037: 86 3f        	stx	$3f                     ; 0x203f <printf+0xa>
    2039: a6 13        	ldx	$13                     ; 0x2013 <_ZN12_GLOBAL__N_112print_stringEPKcP6Status+0xeb>
    203b: 86 40        	stx	$40                     ; 0x2040 <printf+0xb>
    203d: 18           	clc
    203e: a6 10        	ldx	$10                     ; 0x2010 <_ZN12_GLOBAL__N_112print_stringEPKcP6Status+0xe8>
    2040: a4 11        	ldy	$11                     ; 0x2011 <_ZN12_GLOBAL__N_112print_stringEPKcP6Status+0xe9>
    2042: 86 80        	stx	$80                     ; 0x2080 <printf+0x4b>
    2044: 84 81        	sty	$81                     ; 0x2081 <printf+0x4c>
    2046: a6 80        	ldx	$80                     ; 0x2080 <printf+0x4b>
    2048: a4 81        	ldy	$81                     ; 0x2081 <printf+0x4c>
    204a: 86 6b        	stx	$6b                     ; 0x206b <printf+0x36>
    204c: 84 6c        	sty	$6c                     ; 0x206c <printf+0x37>
    204e: a2 ff        	ldx	#$ff
    2050: 86 70        	stx	$70                     ; 0x2070 <printf+0x3b>
    2052: 86 71        	stx	$71                     ; 0x2071 <printf+0x3c>
    2054: 64 72        	stz	$72                     ; 0x2072 <printf+0x3d>
    2056: 64 73        	stz	$73                     ; 0x2073 <printf+0x3e>
    2058: e8           	inx
    2059: 86 41        	stx	$41                     ; 0x2041 <printf+0xc>
    205b: a2 00        	ldx	#$0
    205d: 86 42        	stx	$42                     ; 0x2042 <printf+0xd>
    205f: a6 41        	ldx	$41                     ; 0x2041 <printf+0xc>
    2061: a4 42        	ldy	$42                     ; 0x2042 <printf+0xd>
    2063: 86 76        	stx	$76                     ; 0x2076 <printf+0x41>
    2065: 84 77        	sty	$77                     ; 0x2077 <printf+0x42>
    2067: a2 02        	ldx	#$2
    2069: 86 7c        	stx	$7c                     ; 0x207c <printf+0x47>
    206b: 64 7d        	stz	$7d                     ; 0x207d <printf+0x48>
    206d: a6 6b        	ldx	$6b                     ; 0x206b <printf+0x36>
    206f: a4 6c        	ldy	$6c                     ; 0x206c <printf+0x37>
    2071: 86 7e        	stx	$7e                     ; 0x207e <printf+0x49>
    2073: 84 7f        	sty	$7f                     ; 0x207f <printf+0x4a>
    2075: a2 62        	ldx	#$62
    2077: a0 00        	ldy	#$0
    2079: 86 12        	stx	$12                     ; 0x2012 <_ZN12_GLOBAL__N_112print_stringEPKcP6Status+0xea>
    207b: 84 13        	sty	$13                     ; 0x2013 <_ZN12_GLOBAL__N_112print_stringEPKcP6Status+0xeb>
    207d: a0 01        	ldy	#$1
    207f: a9 49        	lda	#$49
    2081: 18           	clc
    2082: 69 02        	adc	#$2
    2084: 85 88        	sta	$88                     ; 0x2088 <printf+0x53>
    2086: a9 00        	lda	#$0
    2088: 69 00        	adc	#$0
    208a: 85 89        	sta	$89                     ; 0x2089 <printf+0x54>
    208c: e6 12        	inc	$12                     ; 0x2012 <_ZN12_GLOBAL__N_112print_stringEPKcP6Status+0xea>
    208e: d0 02        	bne	$2092 <printf+0x5d>
    2090: e6 13        	inc	$13                     ; 0x2013 <_ZN12_GLOBAL__N_112print_stringEPKcP6Status+0xeb>
    2092: a6 12        	ldx	$12                     ; 0x2012 <_ZN12_GLOBAL__N_112print_stringEPKcP6Status+0xea>
    2094: 86 85        	stx	$85                     ; 0x2085 <printf+0x50>
    2096: a6 13        	ldx	$13                     ; 0x2013 <_ZN12_GLOBAL__N_112print_stringEPKcP6Status+0xeb>
    2098: 86 86        	stx	$86                     ; 0x2086 <printf+0x51>
    209a: a6 3f        	ldx	$3f                     ; 0x203f <printf+0xa>
    209c: 86 43        	stx	$43                     ; 0x2043 <printf+0xe>
    209e: a6 40        	ldx	$40                     ; 0x2040 <printf+0xb>
    20a0: 86 44        	stx	$44                     ; 0x2044 <printf+0xf>
    20a2: b2 3f        	lda	($3f)                   ; 0x203f <printf+0xa>
    20a4: c9 25        	cmp	#$25
    20a6: f0 21        	beq	$20c9 <printf+0x94>
    20a8: aa           	tax
    20a9: d0 03        	bne	$20ae <printf+0x79>
    20ab: 4c e4 2b     	jmp	$2be4 <printf+0xbaf>
    20ae: 20 c7 1c     	jsr	$1cc7 <__putchar>
    20b1: a0 01        	ldy	#$1
    20b3: e6 43        	inc	$43                     ; 0x2043 <printf+0xe>
    20b5: d0 02        	bne	$20b9 <printf+0x84>
    20b7: e6 44        	inc	$44                     ; 0x2044 <printf+0xf>
    20b9: e6 72        	inc	$72                     ; 0x2072 <printf+0x3d>
    20bb: d0 02        	bne	$20bf <printf+0x8a>
    20bd: e6 73        	inc	$73                     ; 0x2073 <printf+0x3e>
    20bf: a6 43        	ldx	$43                     ; 0x2043 <printf+0xe>
    20c1: 86 3f        	stx	$3f                     ; 0x203f <printf+0xa>
    20c3: a6 44        	ldx	$44                     ; 0x2044 <printf+0xf>
    20c5: 86 40        	stx	$40                     ; 0x2040 <printf+0xb>
    20c7: 80 d1        	bra	$209a <printf+0x65>
    20c9: a6 3f        	ldx	$3f                     ; 0x203f <printf+0xa>
    20cb: 86 12        	stx	$12                     ; 0x2012 <_ZN12_GLOBAL__N_112print_stringEPKcP6Status+0xea>
    20cd: a6 40        	ldx	$40                     ; 0x2040 <printf+0xb>
    20cf: 86 13        	stx	$13                     ; 0x2013 <_ZN12_GLOBAL__N_112print_stringEPKcP6Status+0xeb>
    20d1: e6 12        	inc	$12                     ; 0x2012 <_ZN12_GLOBAL__N_112print_stringEPKcP6Status+0xea>
    20d3: d0 02        	bne	$20d7 <printf+0xa2>
    20d5: e6 13        	inc	$13                     ; 0x2013 <_ZN12_GLOBAL__N_112print_stringEPKcP6Status+0xeb>
    20d7: b1 43        	lda	($43),y                 ; 0x2043 <printf+0xe>
    20d9: c9 25        	cmp	#$25
    20db: d0 16        	bne	$20f3 <printf+0xbe>
    20dd: a4 72        	ldy	$72                     ; 0x2072 <printf+0x3d>
    20df: a5 73        	lda	$73                     ; 0x2073 <printf+0x3e>
    20e1: c5 71        	cmp	$71                     ; 0x2071 <printf+0x3c>
    20e3: f0 03        	beq	$20e8 <printf+0xb3>
    20e5: 4c f9 21     	jmp	$21f9 <printf+0x1c4>
    20e8: a6 70        	ldx	$70                     ; 0x2070 <printf+0x3b>
    20ea: 86 12        	stx	$12                     ; 0x2012 <_ZN12_GLOBAL__N_112print_stringEPKcP6Status+0xea>
    20ec: 84 13        	sty	$13                     ; 0x2013 <_ZN12_GLOBAL__N_112print_stringEPKcP6Status+0xeb>
    20ee: c4 12        	cpy	$12                     ; 0x2012 <_ZN12_GLOBAL__N_112print_stringEPKcP6Status+0xea>
    20f0: 4c fd 21     	jmp	$21fd <printf+0x1c8>
    20f3: 64 6e        	stz	$6e                     ; 0x206e <printf+0x39>
    20f5: 64 6f        	stz	$6f                     ; 0x206f <printf+0x3a>
    20f7: 64 6d        	stz	$6d                     ; 0x206d <printf+0x38>
    20f9: 64 78        	stz	$78                     ; 0x2078 <printf+0x43>
    20fb: 64 79        	stz	$79                     ; 0x2079 <printf+0x44>
    20fd: a2 ff        	ldx	#$ff
    20ff: 86 7a        	stx	$7a                     ; 0x207a <printf+0x45>
    2101: 86 7b        	stx	$7b                     ; 0x207b <printf+0x46>
    2103: 64 3e        	stz	$3e                     ; 0x203e <printf+0x9>
    2105: 80 33        	bra	$213a <printf+0x105>
    2107: a2 02        	ldx	#$2
    2109: 80 15        	bra	$2120 <printf+0xeb>
    210b: e0 20        	cpx	#$20
    210d: f0 15        	beq	$2124 <printf+0xef>
    210f: 86 15        	stx	$15                     ; 0x2015 <_ZN12_GLOBAL__N_112print_stringEPKcP6Status+0xed>
    2111: e0 23        	cpx	#$23
    2113: f0 03        	beq	$2118 <printf+0xe3>
    2115: 4c 97 21     	jmp	$2197 <printf+0x162>
    2118: a5 3e        	lda	$3e                     ; 0x203e <printf+0x9>
    211a: a2 04        	ldx	#$4
    211c: 80 02        	bra	$2120 <printf+0xeb>
    211e: a2 10        	ldx	#$10
    2120: 86 14        	stx	$14                     ; 0x2014 <_ZN12_GLOBAL__N_112print_stringEPKcP6Status+0xec>
    2122: 80 06        	bra	$212a <printf+0xf5>
    2124: a2 08        	ldx	#$8
    2126: 86 14        	stx	$14                     ; 0x2014 <_ZN12_GLOBAL__N_112print_stringEPKcP6Status+0xec>
    2128: a5 3e        	lda	$3e                     ; 0x203e <printf+0x9>
    212a: 05 14        	ora	$14                     ; 0x2014 <_ZN12_GLOBAL__N_112print_stringEPKcP6Status+0xec>
    212c: 85 3e        	sta	$3e                     ; 0x203e <printf+0x9>
    212e: 85 6e        	sta	$6e                     ; 0x206e <printf+0x39>
    2130: a2 00        	ldx	#$0
    2132: 86 6f        	stx	$6f                     ; 0x206f <printf+0x3a>
    2134: e6 12        	inc	$12                     ; 0x2012 <_ZN12_GLOBAL__N_112print_stringEPKcP6Status+0xea>
    2136: d0 02        	bne	$213a <printf+0x105>
    2138: e6 13        	inc	$13                     ; 0x2013 <_ZN12_GLOBAL__N_112print_stringEPKcP6Status+0xeb>
    213a: b2 12        	lda	($12)                   ; 0x2012 <_ZN12_GLOBAL__N_112print_stringEPKcP6Status+0xea>
    213c: aa           	tax
    213d: 38           	sec
    213e: e9 2a        	sbc	#$2a
    2140: c9 07        	cmp	#$7
    2142: b0 c7        	bcs	$210b <printf+0xd6>
    2144: 86 15        	stx	$15                     ; 0x2015 <_ZN12_GLOBAL__N_112print_stringEPKcP6Status+0xed>
    2146: 0a           	asl
    2147: aa           	tax
    2148: a0 01        	ldy	#$1
    214a: 84 14        	sty	$14                     ; 0x2014 <_ZN12_GLOBAL__N_112print_stringEPKcP6Status+0xec>
    214c: a5 3e        	lda	$3e                     ; 0x203e <printf+0x9>
    214e: 7c eb 2f     	jmp	($2feb,x)               ; 0x2feb <__set_v+0x1>
    2151: a5 7e        	lda	$7e                     ; 0x207e <printf+0x49>
    2153: a6 7f        	ldx	$7f                     ; 0x207f <printf+0x4a>
    2155: 85 16        	sta	$16                     ; 0x2016 <_ZN12_GLOBAL__N_112print_stringEPKcP6Status+0xee>
    2157: 86 17        	stx	$17                     ; 0x2017 <_ZN12_GLOBAL__N_112print_stringEPKcP6Status+0xef>
    2159: 18           	clc
    215a: 69 02        	adc	#$2
    215c: a8           	tay
    215d: 8a           	txa
    215e: 69 00        	adc	#$0
    2160: 84 7e        	sty	$7e                     ; 0x207e <printf+0x49>
    2162: 85 7f        	sta	$7f                     ; 0x207f <printf+0x4a>
    2164: b2 16        	lda	($16)                   ; 0x2016 <_ZN12_GLOBAL__N_112print_stringEPKcP6Status+0xee>
    2166: 85 15        	sta	$15                     ; 0x2015 <_ZN12_GLOBAL__N_112print_stringEPKcP6Status+0xed>
    2168: a0 01        	ldy	#$1
    216a: b1 16        	lda	($16),y                 ; 0x2016 <_ZN12_GLOBAL__N_112print_stringEPKcP6Status+0xee>
    216c: 85 14        	sta	$14                     ; 0x2014 <_ZN12_GLOBAL__N_112print_stringEPKcP6Status+0xec>
    216e: 10 15        	bpl	$2185 <printf+0x150>
    2170: a5 3e        	lda	$3e                     ; 0x203e <printf+0x9>
    2172: 09 01        	ora	#$1
    2174: 85 3e        	sta	$3e                     ; 0x203e <printf+0x9>
    2176: 85 6e        	sta	$6e                     ; 0x206e <printf+0x39>
    2178: a2 00        	ldx	#$0
    217a: 86 6f        	stx	$6f                     ; 0x206f <printf+0x3a>
    217c: 8a           	txa
    217d: 38           	sec
    217e: e5 15        	sbc	$15                     ; 0x2015 <_ZN12_GLOBAL__N_112print_stringEPKcP6Status+0xed>
    2180: 85 15        	sta	$15                     ; 0x2015 <_ZN12_GLOBAL__N_112print_stringEPKcP6Status+0xed>
    2182: 8a           	txa
    2183: e5 14        	sbc	$14                     ; 0x2014 <_ZN12_GLOBAL__N_112print_stringEPKcP6Status+0xec>
    2185: a6 15        	ldx	$15                     ; 0x2015 <_ZN12_GLOBAL__N_112print_stringEPKcP6Status+0xed>
    2187: 86 78        	stx	$78                     ; 0x2078 <printf+0x43>
    2189: 85 79        	sta	$79                     ; 0x2079 <printf+0x44>
    218b: e6 12        	inc	$12                     ; 0x2012 <_ZN12_GLOBAL__N_112print_stringEPKcP6Status+0xea>
    218d: f0 03        	beq	$2192 <printf+0x15d>
    218f: 4c 4b 22     	jmp	$224b <printf+0x216>
    2192: e6 13        	inc	$13                     ; 0x2013 <_ZN12_GLOBAL__N_112print_stringEPKcP6Status+0xeb>
    2194: 4c 4b 22     	jmp	$224b <printf+0x216>
    2197: a5 15        	lda	$15                     ; 0x2015 <_ZN12_GLOBAL__N_112print_stringEPKcP6Status+0xed>
    2199: 18           	clc
    219a: 69 d0        	adc	#$d0
    219c: c9 0a        	cmp	#$a
    219e: 90 03        	bcc	$21a3 <printf+0x16e>
    21a0: 4c 3d 22     	jmp	$223d <printf+0x208>
    21a3: a6 15        	ldx	$15                     ; 0x2015 <_ZN12_GLOBAL__N_112print_stringEPKcP6Status+0xed>
    21a5: 86 14        	stx	$14                     ; 0x2014 <_ZN12_GLOBAL__N_112print_stringEPKcP6Status+0xec>
    21a7: 64 16        	stz	$16                     ; 0x2016 <_ZN12_GLOBAL__N_112print_stringEPKcP6Status+0xee>
    21a9: 64 15        	stz	$15                     ; 0x2015 <_ZN12_GLOBAL__N_112print_stringEPKcP6Status+0xed>
    21ab: 64 17        	stz	$17                     ; 0x2017 <_ZN12_GLOBAL__N_112print_stringEPKcP6Status+0xef>
    21ad: a0 01        	ldy	#$1
    21af: 06 16        	asl	$16                     ; 0x2016 <_ZN12_GLOBAL__N_112print_stringEPKcP6Status+0xee>
    21b1: 26 17        	rol	$17                     ; 0x2017 <_ZN12_GLOBAL__N_112print_stringEPKcP6Status+0xef>
    21b3: a5 16        	lda	$16                     ; 0x2016 <_ZN12_GLOBAL__N_112print_stringEPKcP6Status+0xee>
    21b5: 0a           	asl
    21b6: aa           	tax
    21b7: a5 17        	lda	$17                     ; 0x2017 <_ZN12_GLOBAL__N_112print_stringEPKcP6Status+0xef>
    21b9: 2a           	rol
    21ba: 86 18        	stx	$18                     ; 0x2018 <_ZN12_GLOBAL__N_112print_stringEPKcP6Status+0xf0>
    21bc: 06 18        	asl	$18                     ; 0x2018 <_ZN12_GLOBAL__N_112print_stringEPKcP6Status+0xf0>
    21be: 2a           	rol
    21bf: aa           	tax
    21c0: a5 18        	lda	$18                     ; 0x2018 <_ZN12_GLOBAL__N_112print_stringEPKcP6Status+0xf0>
    21c2: 18           	clc
    21c3: 65 16        	adc	$16                     ; 0x2016 <_ZN12_GLOBAL__N_112print_stringEPKcP6Status+0xee>
    21c5: 85 16        	sta	$16                     ; 0x2016 <_ZN12_GLOBAL__N_112print_stringEPKcP6Status+0xee>
    21c7: 8a           	txa
    21c8: 65 17        	adc	$17                     ; 0x2017 <_ZN12_GLOBAL__N_112print_stringEPKcP6Status+0xef>
    21ca: 85 17        	sta	$17                     ; 0x2017 <_ZN12_GLOBAL__N_112print_stringEPKcP6Status+0xef>
    21cc: a5 16        	lda	$16                     ; 0x2016 <_ZN12_GLOBAL__N_112print_stringEPKcP6Status+0xee>
    21ce: 18           	clc
    21cf: 65 14        	adc	$14                     ; 0x2014 <_ZN12_GLOBAL__N_112print_stringEPKcP6Status+0xec>
    21d1: 85 14        	sta	$14                     ; 0x2014 <_ZN12_GLOBAL__N_112print_stringEPKcP6Status+0xec>
    21d3: a5 17        	lda	$17                     ; 0x2017 <_ZN12_GLOBAL__N_112print_stringEPKcP6Status+0xef>
    21d5: 65 15        	adc	$15                     ; 0x2015 <_ZN12_GLOBAL__N_112print_stringEPKcP6Status+0xed>
    21d7: aa           	tax
    21d8: 18           	clc
    21d9: a5 14        	lda	$14                     ; 0x2014 <_ZN12_GLOBAL__N_112print_stringEPKcP6Status+0xec>
    21db: 69 d0        	adc	#$d0
    21dd: 85 16        	sta	$16                     ; 0x2016 <_ZN12_GLOBAL__N_112print_stringEPKcP6Status+0xee>
    21df: 8a           	txa
    21e0: 69 ff        	adc	#$ff
    21e2: 85 17        	sta	$17                     ; 0x2017 <_ZN12_GLOBAL__N_112print_stringEPKcP6Status+0xef>
    21e4: b1 12        	lda	($12),y                 ; 0x2012 <_ZN12_GLOBAL__N_112print_stringEPKcP6Status+0xea>
    21e6: 85 14        	sta	$14                     ; 0x2014 <_ZN12_GLOBAL__N_112print_stringEPKcP6Status+0xec>
    21e8: 18           	clc
    21e9: 69 d0        	adc	#$d0
    21eb: e6 12        	inc	$12                     ; 0x2012 <_ZN12_GLOBAL__N_112print_stringEPKcP6Status+0xea>
    21ed: d0 02        	bne	$21f1 <printf+0x1bc>
    21ef: e6 13        	inc	$13                     ; 0x2013 <_ZN12_GLOBAL__N_112print_stringEPKcP6Status+0xeb>
    21f1: c9 0a        	cmp	#$a
    21f3: 64 15        	stz	$15                     ; 0x2015 <_ZN12_GLOBAL__N_112print_stringEPKcP6Status+0xed>
    21f5: 90 b8        	bcc	$21af <printf+0x17a>
    21f7: 80 4a        	bra	$2243 <printf+0x20e>
    21f9: 84 13        	sty	$13                     ; 0x2013 <_ZN12_GLOBAL__N_112print_stringEPKcP6Status+0xeb>
    21fb: c5 71        	cmp	$71                     ; 0x2071 <printf+0x3c>
    21fd: a0 01        	ldy	#$1
    21ff: b0 26        	bcs	$2227 <printf+0x1f2>
    2201: a6 7d        	ldx	$7d                     ; 0x207d <printf+0x48>
    2203: e4 42        	cpx	$42                     ; 0x2042 <printf+0xd>
    2205: d0 19        	bne	$2220 <printf+0x1eb>
    2207: a6 7c        	ldx	$7c                     ; 0x207c <printf+0x47>
    2209: e4 41        	cpx	$41                     ; 0x2041 <printf+0xc>
    220b: d0 13        	bne	$2220 <printf+0x1eb>
    220d: 18           	clc
    220e: aa           	tax
    220f: a5 13        	lda	$13                     ; 0x2013 <_ZN12_GLOBAL__N_112print_stringEPKcP6Status+0xeb>
    2211: 65 76        	adc	$76                     ; 0x2076 <printf+0x41>
    2213: 85 12        	sta	$12                     ; 0x2012 <_ZN12_GLOBAL__N_112print_stringEPKcP6Status+0xea>
    2215: 8a           	txa
    2216: 65 77        	adc	$77                     ; 0x2077 <printf+0x42>
    2218: 85 13        	sta	$13                     ; 0x2013 <_ZN12_GLOBAL__N_112print_stringEPKcP6Status+0xeb>
    221a: a9 25        	lda	#$25
    221c: 92 12        	sta	($12)                   ; 0x2012 <_ZN12_GLOBAL__N_112print_stringEPKcP6Status+0xea>
    221e: 80 07        	bra	$2227 <printf+0x1f2>
    2220: a9 25        	lda	#$25
    2222: 20 c7 1c     	jsr	$1cc7 <__putchar>
    2225: a0 01        	ldy	#$1
    2227: e6 72        	inc	$72                     ; 0x2072 <printf+0x3d>
    2229: d0 02        	bne	$222d <printf+0x1f8>
    222b: e6 73        	inc	$73                     ; 0x2073 <printf+0x3e>
    222d: a5 43        	lda	$43                     ; 0x2043 <printf+0xe>
    222f: 18           	clc
    2230: 69 02        	adc	#$2
    2232: 85 3f        	sta	$3f                     ; 0x203f <printf+0xa>
    2234: a5 44        	lda	$44                     ; 0x2044 <printf+0xf>
    2236: 69 00        	adc	#$0
    2238: 85 40        	sta	$40                     ; 0x2040 <printf+0xb>
    223a: 4c 9a 20     	jmp	$209a <printf+0x65>
    223d: 64 16        	stz	$16                     ; 0x2016 <_ZN12_GLOBAL__N_112print_stringEPKcP6Status+0xee>
    223f: 64 17        	stz	$17                     ; 0x2017 <_ZN12_GLOBAL__N_112print_stringEPKcP6Status+0xef>
    2241: a0 01        	ldy	#$1
    2243: a6 16        	ldx	$16                     ; 0x2016 <_ZN12_GLOBAL__N_112print_stringEPKcP6Status+0xee>
    2245: 86 78        	stx	$78                     ; 0x2078 <printf+0x43>
    2247: a5 17        	lda	$17                     ; 0x2017 <_ZN12_GLOBAL__N_112print_stringEPKcP6Status+0xef>
    2249: 85 79        	sta	$79                     ; 0x2079 <printf+0x44>
    224b: 86 47        	stx	$47                     ; 0x2047 <printf+0x12>
    224d: 85 45        	sta	$45                     ; 0x2045 <printf+0x10>
    224f: b2 12        	lda	($12)                   ; 0x2012 <_ZN12_GLOBAL__N_112print_stringEPKcP6Status+0xea>
    2251: a2 ff        	ldx	#$ff
    2253: c9 2e        	cmp	#$2e
    2255: d0 39        	bne	$2290 <printf+0x25b>
    2257: b1 12        	lda	($12),y                 ; 0x2012 <_ZN12_GLOBAL__N_112print_stringEPKcP6Status+0xea>
    2259: c9 2a        	cmp	#$2a
    225b: d0 38        	bne	$2295 <printf+0x260>
    225d: a5 7e        	lda	$7e                     ; 0x207e <printf+0x49>
    225f: a6 7f        	ldx	$7f                     ; 0x207f <printf+0x4a>
    2261: 85 14        	sta	$14                     ; 0x2014 <_ZN12_GLOBAL__N_112print_stringEPKcP6Status+0xec>
    2263: 86 15        	stx	$15                     ; 0x2015 <_ZN12_GLOBAL__N_112print_stringEPKcP6Status+0xed>
    2265: 18           	clc
    2266: 69 02        	adc	#$2
    2268: 85 16        	sta	$16                     ; 0x2016 <_ZN12_GLOBAL__N_112print_stringEPKcP6Status+0xee>
    226a: 8a           	txa
    226b: 69 00        	adc	#$0
    226d: a6 16        	ldx	$16                     ; 0x2016 <_ZN12_GLOBAL__N_112print_stringEPKcP6Status+0xee>
    226f: 86 7e        	stx	$7e                     ; 0x207e <printf+0x49>
    2271: 85 7f        	sta	$7f                     ; 0x207f <printf+0x4a>
    2273: a5 12        	lda	$12                     ; 0x2012 <_ZN12_GLOBAL__N_112print_stringEPKcP6Status+0xea>
    2275: 18           	clc
    2276: 69 02        	adc	#$2
    2278: 85 12        	sta	$12                     ; 0x2012 <_ZN12_GLOBAL__N_112print_stringEPKcP6Status+0xea>
    227a: a5 13        	lda	$13                     ; 0x2013 <_ZN12_GLOBAL__N_112print_stringEPKcP6Status+0xeb>
    227c: 69 00        	adc	#$0
    227e: 85 13        	sta	$13                     ; 0x2013 <_ZN12_GLOBAL__N_112print_stringEPKcP6Status+0xeb>
    2280: b2 14        	lda	($14)                   ; 0x2014 <_ZN12_GLOBAL__N_112print_stringEPKcP6Status+0xec>
    2282: aa           	tax
    2283: b1 14        	lda	($14),y                 ; 0x2014 <_ZN12_GLOBAL__N_112print_stringEPKcP6Status+0xec>
    2285: 86 18        	stx	$18                     ; 0x2018 <_ZN12_GLOBAL__N_112print_stringEPKcP6Status+0xf0>
    2287: 86 7a        	stx	$7a                     ; 0x207a <printf+0x45>
    2289: 85 19        	sta	$19                     ; 0x2019 <_ZN12_GLOBAL__N_112print_stringEPKcP6Status+0xf1>
    228b: 85 7b        	sta	$7b                     ; 0x207b <printf+0x46>
    228d: 4c 40 23     	jmp	$2340 <printf+0x30b>
    2290: 86 18        	stx	$18                     ; 0x2018 <_ZN12_GLOBAL__N_112print_stringEPKcP6Status+0xf0>
    2292: 4c 50 23     	jmp	$2350 <printf+0x31b>
    2295: 85 17        	sta	$17                     ; 0x2017 <_ZN12_GLOBAL__N_112print_stringEPKcP6Status+0xef>
    2297: 18           	clc
    2298: 69 d0        	adc	#$d0
    229a: c9 0a        	cmp	#$a
    229c: 90 03        	bcc	$22a1 <printf+0x26c>
    229e: 4c 32 23     	jmp	$2332 <printf+0x2fd>
    22a1: 64 16        	stz	$16                     ; 0x2016 <_ZN12_GLOBAL__N_112print_stringEPKcP6Status+0xee>
    22a3: a2 01        	ldx	#$1
    22a5: 64 18        	stz	$18                     ; 0x2018 <_ZN12_GLOBAL__N_112print_stringEPKcP6Status+0xf0>
    22a7: 64 19        	stz	$19                     ; 0x2019 <_ZN12_GLOBAL__N_112print_stringEPKcP6Status+0xf1>
    22a9: a0 01        	ldy	#$1
    22ab: 64 1a        	stz	$1a                     ; 0x201a <_ZN12_GLOBAL__N_112print_stringEPKcP6Status+0xf2>
    22ad: 5a           	phy
    22ae: a4 1a        	ldy	$1a                     ; 0x201a <_ZN12_GLOBAL__N_112print_stringEPKcP6Status+0xf2>
    22b0: 84 14        	sty	$14                     ; 0x2014 <_ZN12_GLOBAL__N_112print_stringEPKcP6Status+0xec>
    22b2: 86 15        	stx	$15                     ; 0x2015 <_ZN12_GLOBAL__N_112print_stringEPKcP6Status+0xed>
    22b4: 06 18        	asl	$18                     ; 0x2018 <_ZN12_GLOBAL__N_112print_stringEPKcP6Status+0xf0>
    22b6: 26 19        	rol	$19                     ; 0x2019 <_ZN12_GLOBAL__N_112print_stringEPKcP6Status+0xf1>
    22b8: a5 18        	lda	$18                     ; 0x2018 <_ZN12_GLOBAL__N_112print_stringEPKcP6Status+0xf0>
    22ba: 0a           	asl
    22bb: 85 1d        	sta	$1d                     ; 0x201d <_ZN12_GLOBAL__N_112print_stringEPKcP6Status+0xf5>
    22bd: a5 19        	lda	$19                     ; 0x2019 <_ZN12_GLOBAL__N_112print_stringEPKcP6Status+0xf1>
    22bf: 2a           	rol
    22c0: 06 1d        	asl	$1d                     ; 0x201d <_ZN12_GLOBAL__N_112print_stringEPKcP6Status+0xf5>
    22c2: 2a           	rol
    22c3: 85 1e        	sta	$1e                     ; 0x201e <_ZN12_GLOBAL__N_112print_stringEPKcP6Status+0xf6>
    22c5: a5 1d        	lda	$1d                     ; 0x201d <_ZN12_GLOBAL__N_112print_stringEPKcP6Status+0xf5>
    22c7: 18           	clc
    22c8: 65 18        	adc	$18                     ; 0x2018 <_ZN12_GLOBAL__N_112print_stringEPKcP6Status+0xf0>
    22ca: 85 18        	sta	$18                     ; 0x2018 <_ZN12_GLOBAL__N_112print_stringEPKcP6Status+0xf0>
    22cc: a5 1e        	lda	$1e                     ; 0x201e <_ZN12_GLOBAL__N_112print_stringEPKcP6Status+0xf6>
    22ce: 65 19        	adc	$19                     ; 0x2019 <_ZN12_GLOBAL__N_112print_stringEPKcP6Status+0xf1>
    22d0: 85 19        	sta	$19                     ; 0x2019 <_ZN12_GLOBAL__N_112print_stringEPKcP6Status+0xf1>
    22d2: a5 18        	lda	$18                     ; 0x2018 <_ZN12_GLOBAL__N_112print_stringEPKcP6Status+0xf0>
    22d4: 18           	clc
    22d5: 65 17        	adc	$17                     ; 0x2017 <_ZN12_GLOBAL__N_112print_stringEPKcP6Status+0xef>
    22d7: 85 17        	sta	$17                     ; 0x2017 <_ZN12_GLOBAL__N_112print_stringEPKcP6Status+0xef>
    22d9: a5 19        	lda	$19                     ; 0x2019 <_ZN12_GLOBAL__N_112print_stringEPKcP6Status+0xf1>
    22db: 65 16        	adc	$16                     ; 0x2016 <_ZN12_GLOBAL__N_112print_stringEPKcP6Status+0xee>
    22dd: 85 16        	sta	$16                     ; 0x2016 <_ZN12_GLOBAL__N_112print_stringEPKcP6Status+0xee>
    22df: 18           	clc
    22e0: a5 17        	lda	$17                     ; 0x2017 <_ZN12_GLOBAL__N_112print_stringEPKcP6Status+0xef>
    22e2: 69 d0        	adc	#$d0
    22e4: 85 18        	sta	$18                     ; 0x2018 <_ZN12_GLOBAL__N_112print_stringEPKcP6Status+0xf0>
    22e6: a5 16        	lda	$16                     ; 0x2016 <_ZN12_GLOBAL__N_112print_stringEPKcP6Status+0xee>
    22e8: 69 ff        	adc	#$ff
    22ea: 85 19        	sta	$19                     ; 0x2019 <_ZN12_GLOBAL__N_112print_stringEPKcP6Status+0xf1>
    22ec: e8           	inx
    22ed: d0 02        	bne	$22f1 <printf+0x2bc>
    22ef: e6 1a        	inc	$1a                     ; 0x201a <_ZN12_GLOBAL__N_112print_stringEPKcP6Status+0xf2>
    22f1: a5 12        	lda	$12                     ; 0x2012 <_ZN12_GLOBAL__N_112print_stringEPKcP6Status+0xea>
    22f3: 18           	clc
    22f4: 65 15        	adc	$15                     ; 0x2015 <_ZN12_GLOBAL__N_112print_stringEPKcP6Status+0xed>
    22f6: 85 1d        	sta	$1d                     ; 0x201d <_ZN12_GLOBAL__N_112print_stringEPKcP6Status+0xf5>
    22f8: a5 13        	lda	$13                     ; 0x2013 <_ZN12_GLOBAL__N_112print_stringEPKcP6Status+0xeb>
    22fa: 65 14        	adc	$14                     ; 0x2014 <_ZN12_GLOBAL__N_112print_stringEPKcP6Status+0xec>
    22fc: a4 1d        	ldy	$1d                     ; 0x201d <_ZN12_GLOBAL__N_112print_stringEPKcP6Status+0xf5>
    22fe: 84 16        	sty	$16                     ; 0x2016 <_ZN12_GLOBAL__N_112print_stringEPKcP6Status+0xee>
    2300: 7a           	ply
    2301: 85 17        	sta	$17                     ; 0x2017 <_ZN12_GLOBAL__N_112print_stringEPKcP6Status+0xef>
    2303: b1 16        	lda	($16),y                 ; 0x2016 <_ZN12_GLOBAL__N_112print_stringEPKcP6Status+0xee>
    2305: 85 17        	sta	$17                     ; 0x2017 <_ZN12_GLOBAL__N_112print_stringEPKcP6Status+0xef>
    2307: 18           	clc
    2308: 69 d0        	adc	#$d0
    230a: c9 0a        	cmp	#$a
    230c: 64 16        	stz	$16                     ; 0x2016 <_ZN12_GLOBAL__N_112print_stringEPKcP6Status+0xee>
    230e: b0 03        	bcs	$2313 <printf+0x2de>
    2310: 4c ad 22     	jmp	$22ad <printf+0x278>
    2313: a5 12        	lda	$12                     ; 0x2012 <_ZN12_GLOBAL__N_112print_stringEPKcP6Status+0xea>
    2315: 18           	clc
    2316: 65 15        	adc	$15                     ; 0x2015 <_ZN12_GLOBAL__N_112print_stringEPKcP6Status+0xed>
    2318: 85 12        	sta	$12                     ; 0x2012 <_ZN12_GLOBAL__N_112print_stringEPKcP6Status+0xea>
    231a: a5 13        	lda	$13                     ; 0x2013 <_ZN12_GLOBAL__N_112print_stringEPKcP6Status+0xeb>
    231c: 65 14        	adc	$14                     ; 0x2014 <_ZN12_GLOBAL__N_112print_stringEPKcP6Status+0xec>
    231e: 85 13        	sta	$13                     ; 0x2013 <_ZN12_GLOBAL__N_112print_stringEPKcP6Status+0xeb>
    2320: e6 12        	inc	$12                     ; 0x2012 <_ZN12_GLOBAL__N_112print_stringEPKcP6Status+0xea>
    2322: d0 02        	bne	$2326 <printf+0x2f1>
    2324: e6 13        	inc	$13                     ; 0x2013 <_ZN12_GLOBAL__N_112print_stringEPKcP6Status+0xeb>
    2326: a6 18        	ldx	$18                     ; 0x2018 <_ZN12_GLOBAL__N_112print_stringEPKcP6Status+0xf0>
    2328: 86 7a        	stx	$7a                     ; 0x207a <printf+0x45>
    232a: a6 19        	ldx	$19                     ; 0x2019 <_ZN12_GLOBAL__N_112print_stringEPKcP6Status+0xf1>
    232c: 86 7b        	stx	$7b                     ; 0x207b <printf+0x46>
    232e: a0 01        	ldy	#$1
    2330: 80 0e        	bra	$2340 <printf+0x30b>
    2332: e6 12        	inc	$12                     ; 0x2012 <_ZN12_GLOBAL__N_112print_stringEPKcP6Status+0xea>
    2334: d0 02        	bne	$2338 <printf+0x303>
    2336: e6 13        	inc	$13                     ; 0x2013 <_ZN12_GLOBAL__N_112print_stringEPKcP6Status+0xeb>
    2338: 64 18        	stz	$18                     ; 0x2018 <_ZN12_GLOBAL__N_112print_stringEPKcP6Status+0xf0>
    233a: 64 7a        	stz	$7a                     ; 0x207a <printf+0x45>
    233c: 64 7b        	stz	$7b                     ; 0x207b <printf+0x46>
    233e: 64 19        	stz	$19                     ; 0x2019 <_ZN12_GLOBAL__N_112print_stringEPKcP6Status+0xf1>
    2340: a5 3e        	lda	$3e                     ; 0x203e <printf+0x9>
    2342: 29 ef        	and	#$ef
    2344: 85 3e        	sta	$3e                     ; 0x203e <printf+0x9>
    2346: 85 6e        	sta	$6e                     ; 0x206e <printf+0x39>
    2348: a2 00        	ldx	#$0
    234a: 86 6f        	stx	$6f                     ; 0x206f <printf+0x3a>
    234c: b2 12        	lda	($12)                   ; 0x2012 <_ZN12_GLOBAL__N_112print_stringEPKcP6Status+0xea>
    234e: a6 19        	ldx	$19                     ; 0x2019 <_ZN12_GLOBAL__N_112print_stringEPKcP6Status+0xf1>
    2350: 86 15        	stx	$15                     ; 0x2015 <_ZN12_GLOBAL__N_112print_stringEPKcP6Status+0xed>
    2352: a6 12        	ldx	$12                     ; 0x2012 <_ZN12_GLOBAL__N_112print_stringEPKcP6Status+0xea>
    2354: 86 3f        	stx	$3f                     ; 0x203f <printf+0xa>
    2356: a6 13        	ldx	$13                     ; 0x2013 <_ZN12_GLOBAL__N_112print_stringEPKcP6Status+0xeb>
    2358: 86 40        	stx	$40                     ; 0x2040 <printf+0xb>
    235a: e6 3f        	inc	$3f                     ; 0x203f <printf+0xa>
    235c: d0 02        	bne	$2360 <printf+0x32b>
    235e: e6 40        	inc	$40                     ; 0x2040 <printf+0xb>
    2360: 85 14        	sta	$14                     ; 0x2014 <_ZN12_GLOBAL__N_112print_stringEPKcP6Status+0xec>
    2362: 38           	sec
    2363: e9 6c        	sbc	#$6c
    2365: 50 02        	bvc	$2369 <printf+0x334>
    2367: 49 80        	eor	#$80
    2369: aa           	tax
    236a: 10 1d        	bpl	$2389 <printf+0x354>
    236c: a5 14        	lda	$14                     ; 0x2014 <_ZN12_GLOBAL__N_112print_stringEPKcP6Status+0xec>
    236e: c9 4c        	cmp	#$4c
    2370: f0 27        	beq	$2399 <printf+0x364>
    2372: c9 68        	cmp	#$68
    2374: d0 03        	bne	$2379 <printf+0x344>
    2376: 4c 00 24     	jmp	$2400 <printf+0x3cb>
    2379: a2 08        	ldx	#$8
    237b: c9 6a        	cmp	#$6a
    237d: d0 2e        	bne	$23ad <printf+0x378>
    237f: a5 3f        	lda	$3f                     ; 0x203f <printf+0xa>
    2381: 85 12        	sta	$12                     ; 0x2012 <_ZN12_GLOBAL__N_112print_stringEPKcP6Status+0xea>
    2383: a5 40        	lda	$40                     ; 0x2040 <printf+0xb>
    2385: 85 13        	sta	$13                     ; 0x2013 <_ZN12_GLOBAL__N_112print_stringEPKcP6Status+0xeb>
    2387: 80 43        	bra	$23cc <printf+0x397>
    2389: a6 14        	ldx	$14                     ; 0x2014 <_ZN12_GLOBAL__N_112print_stringEPKcP6Status+0xec>
    238b: e0 6c        	cpx	#$6c
    238d: f0 23        	beq	$23b2 <printf+0x37d>
    238f: e0 74        	cpx	#$74
    2391: f0 12        	beq	$23a5 <printf+0x370>
    2393: e0 7a        	cpx	#$7a
    2395: f0 0e        	beq	$23a5 <printf+0x370>
    2397: 80 14        	bra	$23ad <printf+0x378>
    2399: a5 3e        	lda	$3e                     ; 0x203e <printf+0x9>
    239b: 09 40        	ora	#$40
    239d: 85 3e        	sta	$3e                     ; 0x203e <printf+0x9>
    239f: 85 6e        	sta	$6e                     ; 0x206e <printf+0x39>
    23a1: a2 00        	ldx	#$0
    23a3: 86 6f        	stx	$6f                     ; 0x206f <printf+0x3a>
    23a5: a6 3f        	ldx	$3f                     ; 0x203f <printf+0xa>
    23a7: 86 12        	stx	$12                     ; 0x2012 <_ZN12_GLOBAL__N_112print_stringEPKcP6Status+0xea>
    23a9: a6 40        	ldx	$40                     ; 0x2040 <printf+0xb>
    23ab: 86 13        	stx	$13                     ; 0x2013 <_ZN12_GLOBAL__N_112print_stringEPKcP6Status+0xeb>
    23ad: a2 02        	ldx	#$2
    23af: 8a           	txa
    23b0: 80 1c        	bra	$23ce <printf+0x399>
    23b2: b1 12        	lda	($12),y                 ; 0x2012 <_ZN12_GLOBAL__N_112print_stringEPKcP6Status+0xea>
    23b4: a2 04        	ldx	#$4
    23b6: c9 6c        	cmp	#$6c
    23b8: f0 03        	beq	$23bd <printf+0x388>
    23ba: 4c ff 26     	jmp	$26ff <printf+0x6ca>
    23bd: a5 12        	lda	$12                     ; 0x2012 <_ZN12_GLOBAL__N_112print_stringEPKcP6Status+0xea>
    23bf: 18           	clc
    23c0: 69 02        	adc	#$2
    23c2: 85 12        	sta	$12                     ; 0x2012 <_ZN12_GLOBAL__N_112print_stringEPKcP6Status+0xea>
    23c4: a5 13        	lda	$13                     ; 0x2013 <_ZN12_GLOBAL__N_112print_stringEPKcP6Status+0xeb>
    23c6: 69 00        	adc	#$0
    23c8: 85 13        	sta	$13                     ; 0x2013 <_ZN12_GLOBAL__N_112print_stringEPKcP6Status+0xeb>
    23ca: a2 08        	ldx	#$8
    23cc: a9 08        	lda	#$8
    23ce: 85 84        	sta	$84                     ; 0x2084 <printf+0x4f>
    23d0: b2 12        	lda	($12)                   ; 0x2012 <_ZN12_GLOBAL__N_112print_stringEPKcP6Status+0xea>
    23d2: 5a           	phy
    23d3: a4 12        	ldy	$12                     ; 0x2012 <_ZN12_GLOBAL__N_112print_stringEPKcP6Status+0xea>
    23d5: 84 3f        	sty	$3f                     ; 0x203f <printf+0xa>
    23d7: a4 13        	ldy	$13                     ; 0x2013 <_ZN12_GLOBAL__N_112print_stringEPKcP6Status+0xeb>
    23d9: 84 40        	sty	$40                     ; 0x2040 <printf+0xb>
    23db: 7a           	ply
    23dc: 86 41        	stx	$41                     ; 0x2041 <printf+0xc>
    23de: aa           	tax
    23df: 38           	sec
    23e0: e9 63        	sbc	#$63
    23e2: c9 16        	cmp	#$16
    23e4: b0 39        	bcs	$241f <printf+0x3ea>
    23e6: 0a           	asl
    23e7: aa           	tax
    23e8: 7c f9 2f     	jmp	($2ff9,x)               ; 0x2ff9 <__set_v+0xf>
    23eb: a6 15        	ldx	$15                     ; 0x2015 <_ZN12_GLOBAL__N_112print_stringEPKcP6Status+0xed>
    23ed: 86 82        	stx	$82                     ; 0x2082 <printf+0x4d>
    23ef: a6 18        	ldx	$18                     ; 0x2018 <_ZN12_GLOBAL__N_112print_stringEPKcP6Status+0xf0>
    23f1: 86 87        	stx	$87                     ; 0x2087 <printf+0x52>
    23f3: a0 0a        	ldy	#$a
    23f5: a2 0a        	ldx	#$a
    23f7: 86 83        	stx	$83                     ; 0x2083 <printf+0x4e>
    23f9: 84 6d        	sty	$6d                     ; 0x206d <printf+0x38>
    23fb: 64 48        	stz	$48                     ; 0x2048 <printf+0x13>
    23fd: 4c 1f 25     	jmp	$251f <printf+0x4ea>
    2400: b1 12        	lda	($12),y                 ; 0x2012 <_ZN12_GLOBAL__N_112print_stringEPKcP6Status+0xea>
    2402: a2 02        	ldx	#$2
    2404: c9 68        	cmp	#$68
    2406: f0 03        	beq	$240b <printf+0x3d6>
    2408: 4c 05 27     	jmp	$2705 <printf+0x6d0>
    240b: a5 12        	lda	$12                     ; 0x2012 <_ZN12_GLOBAL__N_112print_stringEPKcP6Status+0xea>
    240d: 18           	clc
    240e: 69 02        	adc	#$2
    2410: 85 12        	sta	$12                     ; 0x2012 <_ZN12_GLOBAL__N_112print_stringEPKcP6Status+0xea>
    2412: a5 13        	lda	$13                     ; 0x2013 <_ZN12_GLOBAL__N_112print_stringEPKcP6Status+0xeb>
    2414: 69 00        	adc	#$0
    2416: 85 13        	sta	$13                     ; 0x2013 <_ZN12_GLOBAL__N_112print_stringEPKcP6Status+0xeb>
    2418: a2 01        	ldx	#$1
    241a: 86 84        	stx	$84                     ; 0x2084 <printf+0x4f>
    241c: e8           	inx
    241d: 80 b1        	bra	$23d0 <printf+0x39b>
    241f: e0 58        	cpx	#$58
    2421: f0 03        	beq	$2426 <printf+0x3f1>
    2423: 4c a0 2b     	jmp	$2ba0 <printf+0xb6b>
    2426: a6 15        	ldx	$15                     ; 0x2015 <_ZN12_GLOBAL__N_112print_stringEPKcP6Status+0xed>
    2428: 86 82        	stx	$82                     ; 0x2082 <printf+0x4d>
    242a: a6 18        	ldx	$18                     ; 0x2018 <_ZN12_GLOBAL__N_112print_stringEPKcP6Status+0xf0>
    242c: 86 87        	stx	$87                     ; 0x2087 <printf+0x52>
    242e: a2 10        	ldx	#$10
    2430: 86 6d        	stx	$6d                     ; 0x206d <printf+0x38>
    2432: a9 00        	lda	#$0
    2434: 09 01        	ora	#$1
    2436: a6 3e        	ldx	$3e                     ; 0x203e <printf+0x9>
    2438: 80 29        	bra	$2463 <printf+0x42e>
    243a: a6 15        	ldx	$15                     ; 0x2015 <_ZN12_GLOBAL__N_112print_stringEPKcP6Status+0xed>
    243c: 86 82        	stx	$82                     ; 0x2082 <printf+0x4d>
    243e: a6 18        	ldx	$18                     ; 0x2018 <_ZN12_GLOBAL__N_112print_stringEPKcP6Status+0xf0>
    2440: 86 87        	stx	$87                     ; 0x2087 <printf+0x52>
    2442: a2 10        	ldx	#$10
    2444: 86 6d        	stx	$6d                     ; 0x206d <printf+0x38>
    2446: a5 3e        	lda	$3e                     ; 0x203e <printf+0x9>
    2448: 09 84        	ora	#$84
    244a: 80 10        	bra	$245c <printf+0x427>
    244c: a6 15        	ldx	$15                     ; 0x2015 <_ZN12_GLOBAL__N_112print_stringEPKcP6Status+0xed>
    244e: 86 82        	stx	$82                     ; 0x2082 <printf+0x4d>
    2450: a6 18        	ldx	$18                     ; 0x2018 <_ZN12_GLOBAL__N_112print_stringEPKcP6Status+0xf0>
    2452: 86 87        	stx	$87                     ; 0x2087 <printf+0x52>
    2454: a2 10        	ldx	#$10
    2456: 86 6d        	stx	$6d                     ; 0x206d <printf+0x38>
    2458: a5 3e        	lda	$3e                     ; 0x203e <printf+0x9>
    245a: 09 80        	ora	#$80
    245c: aa           	tax
    245d: a9 00        	lda	#$0
    245f: 09 01        	ora	#$1
    2461: 86 3e        	stx	$3e                     ; 0x203e <printf+0x9>
    2463: 86 6e        	stx	$6e                     ; 0x206e <printf+0x39>
    2465: 85 48        	sta	$48                     ; 0x2048 <printf+0x13>
    2467: 85 6f        	sta	$6f                     ; 0x206f <printf+0x3a>
    2469: a2 10        	ldx	#$10
    246b: 86 83        	stx	$83                     ; 0x2083 <printf+0x4e>
    246d: 4c 1f 25     	jmp	$251f <printf+0x4ea>
    2470: a5 7e        	lda	$7e                     ; 0x207e <printf+0x49>
    2472: a6 7f        	ldx	$7f                     ; 0x207f <printf+0x4a>
    2474: 85 12        	sta	$12                     ; 0x2012 <_ZN12_GLOBAL__N_112print_stringEPKcP6Status+0xea>
    2476: 86 13        	stx	$13                     ; 0x2013 <_ZN12_GLOBAL__N_112print_stringEPKcP6Status+0xeb>
    2478: 18           	clc
    2479: 69 02        	adc	#$2
    247b: 85 14        	sta	$14                     ; 0x2014 <_ZN12_GLOBAL__N_112print_stringEPKcP6Status+0xec>
    247d: 8a           	txa
    247e: 69 00        	adc	#$0
    2480: a6 14        	ldx	$14                     ; 0x2014 <_ZN12_GLOBAL__N_112print_stringEPKcP6Status+0xec>
    2482: 86 7e        	stx	$7e                     ; 0x207e <printf+0x49>
    2484: 85 7f        	sta	$7f                     ; 0x207f <printf+0x4a>
    2486: b2 12        	lda	($12)                   ; 0x2012 <_ZN12_GLOBAL__N_112print_stringEPKcP6Status+0xea>
    2488: aa           	tax
    2489: b1 12        	lda	($12),y                 ; 0x2012 <_ZN12_GLOBAL__N_112print_stringEPKcP6Status+0xea>
    248b: 86 12        	stx	$12                     ; 0x2012 <_ZN12_GLOBAL__N_112print_stringEPKcP6Status+0xea>
    248d: 85 13        	sta	$13                     ; 0x2013 <_ZN12_GLOBAL__N_112print_stringEPKcP6Status+0xeb>
    248f: a5 72        	lda	$72                     ; 0x2072 <printf+0x3d>
    2491: a6 73        	ldx	$73                     ; 0x2073 <printf+0x3e>
    2493: 92 12        	sta	($12)                   ; 0x2012 <_ZN12_GLOBAL__N_112print_stringEPKcP6Status+0xea>
    2495: 8a           	txa
    2496: 91 12        	sta	($12),y                 ; 0x2012 <_ZN12_GLOBAL__N_112print_stringEPKcP6Status+0xea>
    2498: 4c f8 24     	jmp	$24f8 <printf+0x4c3>
    249b: a5 7e        	lda	$7e                     ; 0x207e <printf+0x49>
    249d: a6 7f        	ldx	$7f                     ; 0x207f <printf+0x4a>
    249f: 85 12        	sta	$12                     ; 0x2012 <_ZN12_GLOBAL__N_112print_stringEPKcP6Status+0xea>
    24a1: 86 13        	stx	$13                     ; 0x2013 <_ZN12_GLOBAL__N_112print_stringEPKcP6Status+0xeb>
    24a3: 18           	clc
    24a4: 69 02        	adc	#$2
    24a6: 85 14        	sta	$14                     ; 0x2014 <_ZN12_GLOBAL__N_112print_stringEPKcP6Status+0xec>
    24a8: 8a           	txa
    24a9: 69 00        	adc	#$0
    24ab: a6 14        	ldx	$14                     ; 0x2014 <_ZN12_GLOBAL__N_112print_stringEPKcP6Status+0xec>
    24ad: 86 7e        	stx	$7e                     ; 0x207e <printf+0x49>
    24af: 85 7f        	sta	$7f                     ; 0x207f <printf+0x4a>
    24b1: b2 12        	lda	($12)                   ; 0x2012 <_ZN12_GLOBAL__N_112print_stringEPKcP6Status+0xea>
    24b3: aa           	tax
    24b4: b1 12        	lda	($12),y                 ; 0x2012 <_ZN12_GLOBAL__N_112print_stringEPKcP6Status+0xea>
    24b6: 86 12        	stx	$12                     ; 0x2012 <_ZN12_GLOBAL__N_112print_stringEPKcP6Status+0xea>
    24b8: 85 13        	sta	$13                     ; 0x2013 <_ZN12_GLOBAL__N_112print_stringEPKcP6Status+0xeb>
    24ba: 80 2f        	bra	$24eb <printf+0x4b6>
    24bc: a6 15        	ldx	$15                     ; 0x2015 <_ZN12_GLOBAL__N_112print_stringEPKcP6Status+0xed>
    24be: 86 82        	stx	$82                     ; 0x2082 <printf+0x4d>
    24c0: a6 18        	ldx	$18                     ; 0x2018 <_ZN12_GLOBAL__N_112print_stringEPKcP6Status+0xf0>
    24c2: 86 87        	stx	$87                     ; 0x2087 <printf+0x52>
    24c4: a0 08        	ldy	#$8
    24c6: a2 08        	ldx	#$8
    24c8: 80 45        	bra	$250f <printf+0x4da>
    24ca: a5 7e        	lda	$7e                     ; 0x207e <printf+0x49>
    24cc: a6 7f        	ldx	$7f                     ; 0x207f <printf+0x4a>
    24ce: 85 12        	sta	$12                     ; 0x2012 <_ZN12_GLOBAL__N_112print_stringEPKcP6Status+0xea>
    24d0: 86 13        	stx	$13                     ; 0x2013 <_ZN12_GLOBAL__N_112print_stringEPKcP6Status+0xeb>
    24d2: 18           	clc
    24d3: 69 02        	adc	#$2
    24d5: a8           	tay
    24d6: 8a           	txa
    24d7: 69 00        	adc	#$0
    24d9: 84 7e        	sty	$7e                     ; 0x207e <printf+0x49>
    24db: 85 7f        	sta	$7f                     ; 0x207f <printf+0x4a>
    24dd: b2 12        	lda	($12)                   ; 0x2012 <_ZN12_GLOBAL__N_112print_stringEPKcP6Status+0xea>
    24df: 85 60        	sta	$60                     ; 0x2060 <printf+0x2b>
    24e1: 64 61        	stz	$61                     ; 0x2061 <printf+0x2c>
    24e3: a2 60        	ldx	#$60
    24e5: 86 12        	stx	$12                     ; 0x2012 <_ZN12_GLOBAL__N_112print_stringEPKcP6Status+0xea>
    24e7: a2 00        	ldx	#$0
    24e9: 86 13        	stx	$13                     ; 0x2013 <_ZN12_GLOBAL__N_112print_stringEPKcP6Status+0xeb>
    24eb: a2 6d        	ldx	#$6d
    24ed: 86 14        	stx	$14                     ; 0x2014 <_ZN12_GLOBAL__N_112print_stringEPKcP6Status+0xec>
    24ef: a2 00        	ldx	#$0
    24f1: 86 15        	stx	$15                     ; 0x2015 <_ZN12_GLOBAL__N_112print_stringEPKcP6Status+0xed>
    24f3: 20 28 1f     	jsr	$1f28 <_ZN12_GLOBAL__N_112print_stringEPKcP6Status>
    24f6: a0 01        	ldy	#$1
    24f8: a2 00        	ldx	#$0
    24fa: 86 41        	stx	$41                     ; 0x2041 <printf+0xc>
    24fc: a2 00        	ldx	#$0
    24fe: 86 42        	stx	$42                     ; 0x2042 <printf+0xd>
    2500: 4c 88 2b     	jmp	$2b88 <printf+0xb53>
    2503: a6 15        	ldx	$15                     ; 0x2015 <_ZN12_GLOBAL__N_112print_stringEPKcP6Status+0xed>
    2505: 86 82        	stx	$82                     ; 0x2082 <printf+0x4d>
    2507: a6 18        	ldx	$18                     ; 0x2018 <_ZN12_GLOBAL__N_112print_stringEPKcP6Status+0xf0>
    2509: 86 87        	stx	$87                     ; 0x2087 <printf+0x52>
    250b: a0 0a        	ldy	#$a
    250d: a2 0a        	ldx	#$a
    250f: 86 83        	stx	$83                     ; 0x2083 <printf+0x4e>
    2511: 84 6d        	sty	$6d                     ; 0x206d <printf+0x38>
    2513: a9 00        	lda	#$0
    2515: 09 01        	ora	#$1
    2517: a6 3e        	ldx	$3e                     ; 0x203e <printf+0x9>
    2519: 86 6e        	stx	$6e                     ; 0x206e <printf+0x39>
    251b: 85 48        	sta	$48                     ; 0x2048 <printf+0x13>
    251d: 85 6f        	sta	$6f                     ; 0x206f <printf+0x3a>
    251f: a5 84        	lda	$84                     ; 0x2084 <printf+0x4f>
    2521: 85 62        	sta	$62                     ; 0x2062 <printf+0x2d>
    2523: a4 7e        	ldy	$7e                     ; 0x207e <printf+0x49>
    2525: a6 7f        	ldx	$7f                     ; 0x207f <printf+0x4a>
    2527: 86 46        	stx	$46                     ; 0x2046 <printf+0x11>
    2529: 84 14        	sty	$14                     ; 0x2014 <_ZN12_GLOBAL__N_112print_stringEPKcP6Status+0xec>
    252b: 84 3d        	sty	$3d                     ; 0x203d <printf+0x8>
    252d: 86 15        	stx	$15                     ; 0x2015 <_ZN12_GLOBAL__N_112print_stringEPKcP6Status+0xed>
    252f: a6 85        	ldx	$85                     ; 0x2085 <printf+0x50>
    2531: 86 12        	stx	$12                     ; 0x2012 <_ZN12_GLOBAL__N_112print_stringEPKcP6Status+0xea>
    2533: a6 86        	ldx	$86                     ; 0x2086 <printf+0x51>
    2535: 86 13        	stx	$13                     ; 0x2013 <_ZN12_GLOBAL__N_112print_stringEPKcP6Status+0xeb>
    2537: a2 00        	ldx	#$0
    2539: 85 42        	sta	$42                     ; 0x2042 <printf+0xd>
    253b: 20 65 2f     	jsr	$2f65 <memcpy>
    253e: 18           	clc
    253f: a5 3d        	lda	$3d                     ; 0x203d <printf+0x8>
    2541: 65 41        	adc	$41                     ; 0x2041 <printf+0xc>
    2543: aa           	tax
    2544: a5 46        	lda	$46                     ; 0x2046 <printf+0x11>
    2546: 69 00        	adc	#$0
    2548: 86 7e        	stx	$7e                     ; 0x207e <printf+0x49>
    254a: 85 7f        	sta	$7f                     ; 0x207f <printf+0x4a>
    254c: a5 48        	lda	$48                     ; 0x2048 <printf+0x13>
    254e: 29 01        	and	#$1
    2550: b8           	clv
    2551: f0 03        	beq	$2556 <printf+0x521>
    2553: 4c aa 25     	jmp	$25aa <printf+0x575>
    2556: a6 42        	ldx	$42                     ; 0x2042 <printf+0xd>
    2558: b5 62        	lda	$62,x                   ; 0x2062 <printf+0x2d>
    255a: aa           	tax
    255b: a0 01        	ldy	#$1
    255d: a5 45        	lda	$45                     ; 0x2045 <printf+0x10>
    255f: 85 1a        	sta	$1a                     ; 0x201a <_ZN12_GLOBAL__N_112print_stringEPKcP6Status+0xf2>
    2561: a5 87        	lda	$87                     ; 0x2087 <printf+0x52>
    2563: 85 45        	sta	$45                     ; 0x2045 <printf+0x10>
    2565: a9 00        	lda	#$0
    2567: 85 41        	sta	$41                     ; 0x2041 <printf+0xc>
    2569: a9 00        	lda	#$0
    256b: 85 42        	sta	$42                     ; 0x2042 <printf+0xd>
    256d: a5 82        	lda	$82                     ; 0x2082 <printf+0x4d>
    256f: 85 46        	sta	$46                     ; 0x2046 <printf+0x11>
    2571: 8a           	txa
    2572: 10 4c        	bpl	$25c0 <printf+0x58b>
    2574: a2 00        	ldx	#$0
    2576: 64 12        	stz	$12                     ; 0x2012 <_ZN12_GLOBAL__N_112print_stringEPKcP6Status+0xea>
    2578: a9 00        	lda	#$0
    257a: 38           	sec
    257b: f5 63        	sbc	$63,x                   ; 0x2063 <printf+0x2e>
    257d: a0 00        	ldy	#$0
    257f: b0 02        	bcs	$2583 <printf+0x54e>
    2581: a0 01        	ldy	#$1
    2583: 38           	sec
    2584: e5 12        	sbc	$12                     ; 0x2012 <_ZN12_GLOBAL__N_112print_stringEPKcP6Status+0xea>
    2586: 85 13        	sta	$13                     ; 0x2013 <_ZN12_GLOBAL__N_112print_stringEPKcP6Status+0xeb>
    2588: 64 12        	stz	$12                     ; 0x2012 <_ZN12_GLOBAL__N_112print_stringEPKcP6Status+0xea>
    258a: b0 04        	bcs	$2590 <printf+0x55b>
    258c: a9 01        	lda	#$1
    258e: 85 12        	sta	$12                     ; 0x2012 <_ZN12_GLOBAL__N_112print_stringEPKcP6Status+0xea>
    2590: 98           	tya
    2591: 05 12        	ora	$12                     ; 0x2012 <_ZN12_GLOBAL__N_112print_stringEPKcP6Status+0xea>
    2593: 85 12        	sta	$12                     ; 0x2012 <_ZN12_GLOBAL__N_112print_stringEPKcP6Status+0xea>
    2595: a5 13        	lda	$13                     ; 0x2013 <_ZN12_GLOBAL__N_112print_stringEPKcP6Status+0xeb>
    2597: 9d 63 00     	sta	$63,x                   ; 0x63 <__rc31+0x34>
    259a: e8           	inx
    259b: 86 13        	stx	$13                     ; 0x2013 <_ZN12_GLOBAL__N_112print_stringEPKcP6Status+0xeb>
    259d: a4 84        	ldy	$84                     ; 0x2084 <printf+0x4f>
    259f: c4 13        	cpy	$13                     ; 0x2013 <_ZN12_GLOBAL__N_112print_stringEPKcP6Status+0xeb>
    25a1: d0 d5        	bne	$2578 <printf+0x543>
    25a3: 2c ea 2f     	bit	$2fea                   ; 0x2fea <__set_v>
    25a6: a0 01        	ldy	#$1
    25a8: 80 16        	bra	$25c0 <printf+0x58b>
    25aa: a0 01        	ldy	#$1
    25ac: a6 45        	ldx	$45                     ; 0x2045 <printf+0x10>
    25ae: 86 1a        	stx	$1a                     ; 0x201a <_ZN12_GLOBAL__N_112print_stringEPKcP6Status+0xf2>
    25b0: a6 87        	ldx	$87                     ; 0x2087 <printf+0x52>
    25b2: 86 45        	stx	$45                     ; 0x2045 <printf+0x10>
    25b4: a2 00        	ldx	#$0
    25b6: 86 41        	stx	$41                     ; 0x2041 <printf+0xc>
    25b8: a2 00        	ldx	#$0
    25ba: 86 42        	stx	$42                     ; 0x2042 <printf+0xd>
    25bc: a6 82        	ldx	$82                     ; 0x2082 <printf+0x4d>
    25be: 86 46        	stx	$46                     ; 0x2046 <printf+0x11>
    25c0: a2 01        	ldx	#$1
    25c2: 70 02        	bvs	$25c6 <printf+0x591>
    25c4: a2 00        	ldx	#$0
    25c6: 86 16        	stx	$16                     ; 0x2016 <_ZN12_GLOBAL__N_112print_stringEPKcP6Status+0xee>
    25c8: a5 84        	lda	$84                     ; 0x2084 <printf+0x4f>
    25ca: 0a           	asl
    25cb: 0a           	asl
    25cc: 0a           	asl
    25cd: 85 12        	sta	$12                     ; 0x2012 <_ZN12_GLOBAL__N_112print_stringEPKcP6Status+0xea>
    25cf: a2 00        	ldx	#$0
    25d1: 8a           	txa
    25d2: 4c 86 26     	jmp	$2686 <printf+0x651>
    25d5: da           	phx
    25d6: 7a           	ply
    25d7: c8           	iny
    25d8: 9d 4b 00     	sta	$4b,x                   ; 0x4b <__rc31+0x1c>
    25db: 5a           	phy
    25dc: fa           	plx
    25dd: c4 3d        	cpy	$3d                     ; 0x203d <printf+0x8>
    25df: f0 30        	beq	$2611 <printf+0x5dc>
    25e1: b5 4b        	lda	$4b,x                   ; 0x204b <printf+0x16>
    25e3: 0a           	asl
    25e4: a4 82        	ldy	$82                     ; 0x2082 <printf+0x4d>
    25e6: f0 02        	beq	$25ea <printf+0x5b5>
    25e8: 09 01        	ora	#$1
    25ea: a4 83        	ldy	$83                     ; 0x2083 <printf+0x4e>
    25ec: 84 14        	sty	$14                     ; 0x2014 <_ZN12_GLOBAL__N_112print_stringEPKcP6Status+0xec>
    25ee: c5 14        	cmp	$14                     ; 0x2014 <_ZN12_GLOBAL__N_112print_stringEPKcP6Status+0xec>
    25f0: a0 01        	ldy	#$1
    25f2: b0 02        	bcs	$25f6 <printf+0x5c1>
    25f4: a0 00        	ldy	#$0
    25f6: 84 82        	sty	$82                     ; 0x2082 <printf+0x4d>
    25f8: 90 db        	bcc	$25d5 <printf+0x5a0>
    25fa: 38           	sec
    25fb: e5 14        	sbc	$14                     ; 0x2014 <_ZN12_GLOBAL__N_112print_stringEPKcP6Status+0xec>
    25fd: 9d 4b 00     	sta	$4b,x                   ; 0x4b <__rc31+0x1c>
    2600: e8           	inx
    2601: e4 3d        	cpx	$3d                     ; 0x203d <printf+0x8>
    2603: d0 dc        	bne	$25e1 <printf+0x5ac>
    2605: a4 3d        	ldy	$3d                     ; 0x203d <printf+0x8>
    2607: a6 3d        	ldx	$3d                     ; 0x203d <printf+0x8>
    2609: e8           	inx
    260a: a9 01        	lda	#$1
    260c: 99 4b 00     	sta	$4b,y                   ; 0x4b <__rc31+0x1c>
    260f: 86 3d        	stx	$3d                     ; 0x203d <printf+0x8>
    2611: a6 84        	ldx	$84                     ; 0x2084 <printf+0x4f>
    2613: b5 62        	lda	$62,x                   ; 0x2062 <printf+0x2d>
    2615: aa           	tax
    2616: 30 0f        	bmi	$2627 <printf+0x5f2>
    2618: a0 01        	ldy	#$1
    261a: 80 42        	bra	$265e <printf+0x629>
    261c: a6 84        	ldx	$84                     ; 0x2084 <printf+0x4f>
    261e: b5 62        	lda	$62,x                   ; 0x2062 <printf+0x2d>
    2620: aa           	tax
    2621: 64 3d        	stz	$3d                     ; 0x203d <printf+0x8>
    2623: 10 39        	bpl	$265e <printf+0x629>
    2625: 80 2a        	bra	$2651 <printf+0x61c>
    2627: a5 3d        	lda	$3d                     ; 0x203d <printf+0x8>
    2629: f0 24        	beq	$264f <printf+0x61a>
    262b: a2 00        	ldx	#$0
    262d: a4 83        	ldy	$83                     ; 0x2083 <printf+0x4e>
    262f: 84 14        	sty	$14                     ; 0x2014 <_ZN12_GLOBAL__N_112print_stringEPKcP6Status+0xec>
    2631: b5 4b        	lda	$4b,x                   ; 0x204b <printf+0x16>
    2633: 1a           	inc
    2634: f6 4b        	inc	$4b,x                   ; 0x204b <printf+0x16>
    2636: c5 14        	cmp	$14                     ; 0x2014 <_ZN12_GLOBAL__N_112print_stringEPKcP6Status+0xec>
    2638: 90 de        	bcc	$2618 <printf+0x5e3>
    263a: a4 14        	ldy	$14                     ; 0x2014 <_ZN12_GLOBAL__N_112print_stringEPKcP6Status+0xec>
    263c: 84 13        	sty	$13                     ; 0x2013 <_ZN12_GLOBAL__N_112print_stringEPKcP6Status+0xeb>
    263e: 38           	sec
    263f: e5 13        	sbc	$13                     ; 0x2013 <_ZN12_GLOBAL__N_112print_stringEPKcP6Status+0xeb>
    2641: 9d 4b 00     	sta	$4b,x                   ; 0x4b <__rc31+0x1c>
    2644: e8           	inx
    2645: 86 13        	stx	$13                     ; 0x2013 <_ZN12_GLOBAL__N_112print_stringEPKcP6Status+0xeb>
    2647: a4 3d        	ldy	$3d                     ; 0x203d <printf+0x8>
    2649: c4 13        	cpy	$13                     ; 0x2013 <_ZN12_GLOBAL__N_112print_stringEPKcP6Status+0xeb>
    264b: d0 e4        	bne	$2631 <printf+0x5fc>
    264d: 80 02        	bra	$2651 <printf+0x61c>
    264f: 64 3d        	stz	$3d                     ; 0x203d <printf+0x8>
    2651: a4 3d        	ldy	$3d                     ; 0x203d <printf+0x8>
    2653: a6 3d        	ldx	$3d                     ; 0x203d <printf+0x8>
    2655: e8           	inx
    2656: a9 01        	lda	#$1
    2658: 99 4b 00     	sta	$4b,y                   ; 0x4b <__rc31+0x1c>
    265b: a8           	tay
    265c: 86 3d        	stx	$3d                     ; 0x203d <printf+0x8>
    265e: a2 01        	ldx	#$1
    2660: 64 13        	stz	$13                     ; 0x2013 <_ZN12_GLOBAL__N_112print_stringEPKcP6Status+0xeb>
    2662: a5 84        	lda	$84                     ; 0x2084 <printf+0x4f>
    2664: 85 14        	sta	$14                     ; 0x2014 <_ZN12_GLOBAL__N_112print_stringEPKcP6Status+0xec>
    2666: b5 62        	lda	$62,x                   ; 0x2062 <printf+0x2d>
    2668: 0a           	asl
    2669: 64 15        	stz	$15                     ; 0x2015 <_ZN12_GLOBAL__N_112print_stringEPKcP6Status+0xed>
    266b: 26 15        	rol	$15                     ; 0x2015 <_ZN12_GLOBAL__N_112print_stringEPKcP6Status+0xed>
    266d: 05 13        	ora	$13                     ; 0x2013 <_ZN12_GLOBAL__N_112print_stringEPKcP6Status+0xeb>
    266f: 9d 62 00     	sta	$62,x                   ; 0x62 <__rc31+0x33>
    2672: e8           	inx
    2673: c6 14        	dec	$14                     ; 0x2014 <_ZN12_GLOBAL__N_112print_stringEPKcP6Status+0xec>
    2675: a5 15        	lda	$15                     ; 0x2015 <_ZN12_GLOBAL__N_112print_stringEPKcP6Status+0xed>
    2677: 85 13        	sta	$13                     ; 0x2013 <_ZN12_GLOBAL__N_112print_stringEPKcP6Status+0xeb>
    2679: a5 14        	lda	$14                     ; 0x2014 <_ZN12_GLOBAL__N_112print_stringEPKcP6Status+0xec>
    267b: d0 e9        	bne	$2666 <printf+0x631>
    267d: a5 17        	lda	$17                     ; 0x2017 <_ZN12_GLOBAL__N_112print_stringEPKcP6Status+0xef>
    267f: 1a           	inc
    2680: c5 12        	cmp	$12                     ; 0x2012 <_ZN12_GLOBAL__N_112print_stringEPKcP6Status+0xea>
    2682: a6 3d        	ldx	$3d                     ; 0x203d <printf+0x8>
    2684: b0 13        	bcs	$2699 <printf+0x664>
    2686: 85 17        	sta	$17                     ; 0x2017 <_ZN12_GLOBAL__N_112print_stringEPKcP6Status+0xef>
    2688: 8a           	txa
    2689: d0 03        	bne	$268e <printf+0x659>
    268b: 4c 1c 26     	jmp	$261c <printf+0x5e7>
    268e: 86 3d        	stx	$3d                     ; 0x203d <printf+0x8>
    2690: a2 00        	ldx	#$0
    2692: 86 82        	stx	$82                     ; 0x2082 <printf+0x4d>
    2694: a2 00        	ldx	#$0
    2696: 4c e1 25     	jmp	$25e1 <printf+0x5ac>
    2699: a5 3e        	lda	$3e                     ; 0x203e <printf+0x9>
    269b: e6 46        	inc	$46                     ; 0x2046 <printf+0x11>
    269d: c6 46        	dec	$46                     ; 0x2046 <printf+0x11>
    269f: 10 08        	bpl	$26a9 <printf+0x674>
    26a1: a2 01        	ldx	#$1
    26a3: 64 46        	stz	$46                     ; 0x2046 <printf+0x11>
    26a5: 86 45        	stx	$45                     ; 0x2045 <printf+0x10>
    26a7: a6 3d        	ldx	$3d                     ; 0x203d <printf+0x8>
    26a9: 29 04        	and	#$4
    26ab: f0 2b        	beq	$26d8 <printf+0x6a3>
    26ad: a5 83        	lda	$83                     ; 0x2083 <printf+0x4e>
    26af: c9 10        	cmp	#$10
    26b1: f0 14        	beq	$26c7 <printf+0x692>
    26b3: c9 08        	cmp	#$8
    26b5: d0 21        	bne	$26d8 <printf+0x6a3>
    26b7: a2 00        	ldx	#$0
    26b9: e4 46        	cpx	$46                     ; 0x2046 <printf+0x11>
    26bb: f0 03        	beq	$26c0 <printf+0x68b>
    26bd: 4c ad 2b     	jmp	$2bad <printf+0xb78>
    26c0: a6 3d        	ldx	$3d                     ; 0x203d <printf+0x8>
    26c2: e4 45        	cpx	$45                     ; 0x2045 <printf+0x10>
    26c4: 4c af 2b     	jmp	$2baf <printf+0xb7a>
    26c7: 8a           	txa
    26c8: f0 0e        	beq	$26d8 <printf+0x6a3>
    26ca: a5 3e        	lda	$3e                     ; 0x203e <printf+0x9>
    26cc: 29 80        	and	#$80
    26ce: d0 03        	bne	$26d3 <printf+0x69e>
    26d0: 4c c8 2b     	jmp	$2bc8 <printf+0xb93>
    26d3: a2 78        	ldx	#$78
    26d5: 4c ca 2b     	jmp	$2bca <printf+0xb95>
    26d8: a6 3e        	ldx	$3e                     ; 0x203e <printf+0x9>
    26da: a9 2d        	lda	#$2d
    26dc: 85 84        	sta	$84                     ; 0x2084 <printf+0x4f>
    26de: a5 16        	lda	$16                     ; 0x2016 <_ZN12_GLOBAL__N_112print_stringEPKcP6Status+0xee>
    26e0: d0 32        	bne	$2714 <printf+0x6df>
    26e2: 86 12        	stx	$12                     ; 0x2012 <_ZN12_GLOBAL__N_112print_stringEPKcP6Status+0xea>
    26e4: 8a           	txa
    26e5: 29 02        	and	#$2
    26e7: a2 2b        	ldx	#$2b
    26e9: 86 84        	stx	$84                     ; 0x2084 <printf+0x4f>
    26eb: aa           	tax
    26ec: d0 26        	bne	$2714 <printf+0x6df>
    26ee: a5 12        	lda	$12                     ; 0x2012 <_ZN12_GLOBAL__N_112print_stringEPKcP6Status+0xea>
    26f0: 29 08        	and	#$8
    26f2: d0 1c        	bne	$2710 <printf+0x6db>
    26f4: a2 01        	ldx	#$1
    26f6: 86 83        	stx	$83                     ; 0x2083 <printf+0x4e>
    26f8: a9 00        	lda	#$0
    26fa: aa           	tax
    26fb: 86 82        	stx	$82                     ; 0x2082 <printf+0x4d>
    26fd: 80 1c        	bra	$271b <printf+0x6e6>
    26ff: 85 12        	sta	$12                     ; 0x2012 <_ZN12_GLOBAL__N_112print_stringEPKcP6Status+0xea>
    2701: a9 04        	lda	#$4
    2703: 80 04        	bra	$2709 <printf+0x6d4>
    2705: 85 12        	sta	$12                     ; 0x2012 <_ZN12_GLOBAL__N_112print_stringEPKcP6Status+0xea>
    2707: a9 02        	lda	#$2
    2709: 85 84        	sta	$84                     ; 0x2084 <printf+0x4f>
    270b: a5 12        	lda	$12                     ; 0x2012 <_ZN12_GLOBAL__N_112print_stringEPKcP6Status+0xea>
    270d: 4c dc 23     	jmp	$23dc <printf+0x3a7>
    2710: a2 20        	ldx	#$20
    2712: 86 84        	stx	$84                     ; 0x2084 <printf+0x4f>
    2714: a2 00        	ldx	#$0
    2716: 86 83        	stx	$83                     ; 0x2083 <printf+0x4e>
    2718: 86 82        	stx	$82                     ; 0x2082 <printf+0x4d>
    271a: 98           	tya
    271b: a6 46        	ldx	$46                     ; 0x2046 <printf+0x11>
    271d: d0 35        	bne	$2754 <printf+0x71f>
    271f: a6 45        	ldx	$45                     ; 0x2045 <printf+0x10>
    2721: a4 3d        	ldy	$3d                     ; 0x203d <printf+0x8>
    2723: 84 12        	sty	$12                     ; 0x2012 <_ZN12_GLOBAL__N_112print_stringEPKcP6Status+0xea>
    2725: e4 12        	cpx	$12                     ; 0x2012 <_ZN12_GLOBAL__N_112print_stringEPKcP6Status+0xea>
    2727: a6 45        	ldx	$45                     ; 0x2045 <printf+0x10>
    2729: 86 12        	stx	$12                     ; 0x2012 <_ZN12_GLOBAL__N_112print_stringEPKcP6Status+0xea>
    272b: a6 46        	ldx	$46                     ; 0x2046 <printf+0x11>
    272d: 86 13        	stx	$13                     ; 0x2013 <_ZN12_GLOBAL__N_112print_stringEPKcP6Status+0xeb>
    272f: b0 04        	bcs	$2735 <printf+0x700>
    2731: 84 12        	sty	$12                     ; 0x2012 <_ZN12_GLOBAL__N_112print_stringEPKcP6Status+0xea>
    2733: 64 13        	stz	$13                     ; 0x2013 <_ZN12_GLOBAL__N_112print_stringEPKcP6Status+0xeb>
    2735: 85 18        	sta	$18                     ; 0x2018 <_ZN12_GLOBAL__N_112print_stringEPKcP6Status+0xf0>
    2737: 18           	clc
    2738: 65 12        	adc	$12                     ; 0x2012 <_ZN12_GLOBAL__N_112print_stringEPKcP6Status+0xea>
    273a: 85 16        	sta	$16                     ; 0x2016 <_ZN12_GLOBAL__N_112print_stringEPKcP6Status+0xee>
    273c: 85 14        	sta	$14                     ; 0x2014 <_ZN12_GLOBAL__N_112print_stringEPKcP6Status+0xec>
    273e: a5 13        	lda	$13                     ; 0x2013 <_ZN12_GLOBAL__N_112print_stringEPKcP6Status+0xeb>
    2740: 69 00        	adc	#$0
    2742: 85 15        	sta	$15                     ; 0x2015 <_ZN12_GLOBAL__N_112print_stringEPKcP6Status+0xed>
    2744: c5 1a        	cmp	$1a                     ; 0x201a <_ZN12_GLOBAL__N_112print_stringEPKcP6Status+0xf2>
    2746: d0 1e        	bne	$2766 <printf+0x731>
    2748: a6 1a        	ldx	$1a                     ; 0x201a <_ZN12_GLOBAL__N_112print_stringEPKcP6Status+0xf2>
    274a: 86 17        	stx	$17                     ; 0x2017 <_ZN12_GLOBAL__N_112print_stringEPKcP6Status+0xef>
    274c: a6 47        	ldx	$47                     ; 0x2047 <printf+0x12>
    274e: a5 16        	lda	$16                     ; 0x2016 <_ZN12_GLOBAL__N_112print_stringEPKcP6Status+0xee>
    2750: c5 47        	cmp	$47                     ; 0x2047 <printf+0x12>
    2752: 80 1c        	bra	$2770 <printf+0x73b>
    2754: a6 46        	ldx	$46                     ; 0x2046 <printf+0x11>
    2756: e0 00        	cpx	#$0
    2758: a6 45        	ldx	$45                     ; 0x2045 <printf+0x10>
    275a: 86 12        	stx	$12                     ; 0x2012 <_ZN12_GLOBAL__N_112print_stringEPKcP6Status+0xea>
    275c: a6 46        	ldx	$46                     ; 0x2046 <printf+0x11>
    275e: 86 13        	stx	$13                     ; 0x2013 <_ZN12_GLOBAL__N_112print_stringEPKcP6Status+0xeb>
    2760: a4 3d        	ldy	$3d                     ; 0x203d <printf+0x8>
    2762: 90 cd        	bcc	$2731 <printf+0x6fc>
    2764: 80 cf        	bra	$2735 <printf+0x700>
    2766: a6 47        	ldx	$47                     ; 0x2047 <printf+0x12>
    2768: 5a           	phy
    2769: a4 1a        	ldy	$1a                     ; 0x201a <_ZN12_GLOBAL__N_112print_stringEPKcP6Status+0xf2>
    276b: 84 17        	sty	$17                     ; 0x2017 <_ZN12_GLOBAL__N_112print_stringEPKcP6Status+0xef>
    276d: 7a           	ply
    276e: c5 1a        	cmp	$1a                     ; 0x201a <_ZN12_GLOBAL__N_112print_stringEPKcP6Status+0xf2>
    2770: 64 48        	stz	$48                     ; 0x2048 <printf+0x13>
    2772: 64 47        	stz	$47                     ; 0x2047 <printf+0x12>
    2774: 90 03        	bcc	$2779 <printf+0x744>
    2776: 4c 0c 28     	jmp	$280c <printf+0x7d7>
    2779: a5 3e        	lda	$3e                     ; 0x203e <printf+0x9>
    277b: 29 11        	and	#$11
    277d: 86 16        	stx	$16                     ; 0x2016 <_ZN12_GLOBAL__N_112print_stringEPKcP6Status+0xee>
    277f: f0 0f        	beq	$2790 <printf+0x75b>
    2781: 8a           	txa
    2782: 38           	sec
    2783: e5 14        	sbc	$14                     ; 0x2014 <_ZN12_GLOBAL__N_112print_stringEPKcP6Status+0xec>
    2785: 85 48        	sta	$48                     ; 0x2048 <printf+0x13>
    2787: a5 1a        	lda	$1a                     ; 0x201a <_ZN12_GLOBAL__N_112print_stringEPKcP6Status+0xf2>
    2789: e5 15        	sbc	$15                     ; 0x2015 <_ZN12_GLOBAL__N_112print_stringEPKcP6Status+0xed>
    278b: 85 47        	sta	$47                     ; 0x2047 <printf+0x12>
    278d: 4c 0c 28     	jmp	$280c <printf+0x7d7>
    2790: a6 72        	ldx	$72                     ; 0x2072 <printf+0x3d>
    2792: 86 14        	stx	$14                     ; 0x2014 <_ZN12_GLOBAL__N_112print_stringEPKcP6Status+0xec>
    2794: 38           	sec
    2795: a5 18        	lda	$18                     ; 0x2018 <_ZN12_GLOBAL__N_112print_stringEPKcP6Status+0xf0>
    2797: e5 16        	sbc	$16                     ; 0x2016 <_ZN12_GLOBAL__N_112print_stringEPKcP6Status+0xee>
    2799: aa           	tax
    279a: a9 00        	lda	#$0
    279c: e5 17        	sbc	$17                     ; 0x2017 <_ZN12_GLOBAL__N_112print_stringEPKcP6Status+0xef>
    279e: a8           	tay
    279f: 18           	clc
    27a0: 8a           	txa
    27a1: 65 12        	adc	$12                     ; 0x2012 <_ZN12_GLOBAL__N_112print_stringEPKcP6Status+0xea>
    27a3: 85 3e        	sta	$3e                     ; 0x203e <printf+0x9>
    27a5: 98           	tya
    27a6: 65 13        	adc	$13                     ; 0x2013 <_ZN12_GLOBAL__N_112print_stringEPKcP6Status+0xeb>
    27a8: a4 73        	ldy	$73                     ; 0x2073 <printf+0x3e>
    27aa: 80 47        	bra	$27f3 <printf+0x7be>
    27ac: c4 71        	cpy	$71                     ; 0x2071 <printf+0x3c>
    27ae: b0 25        	bcs	$27d5 <printf+0x7a0>
    27b0: a6 7d        	ldx	$7d                     ; 0x207d <printf+0x48>
    27b2: e4 42        	cpx	$42                     ; 0x2042 <printf+0xd>
    27b4: d0 18        	bne	$27ce <printf+0x799>
    27b6: a6 7c        	ldx	$7c                     ; 0x207c <printf+0x47>
    27b8: e4 41        	cpx	$41                     ; 0x2041 <printf+0xc>
    27ba: d0 12        	bne	$27ce <printf+0x799>
    27bc: 18           	clc
    27bd: a5 14        	lda	$14                     ; 0x2014 <_ZN12_GLOBAL__N_112print_stringEPKcP6Status+0xec>
    27bf: 65 76        	adc	$76                     ; 0x2076 <printf+0x41>
    27c1: 85 12        	sta	$12                     ; 0x2012 <_ZN12_GLOBAL__N_112print_stringEPKcP6Status+0xea>
    27c3: 98           	tya
    27c4: 65 77        	adc	$77                     ; 0x2077 <printf+0x42>
    27c6: 85 13        	sta	$13                     ; 0x2013 <_ZN12_GLOBAL__N_112print_stringEPKcP6Status+0xeb>
    27c8: a9 20        	lda	#$20
    27ca: 92 12        	sta	($12)                   ; 0x2012 <_ZN12_GLOBAL__N_112print_stringEPKcP6Status+0xea>
    27cc: 80 05        	bra	$27d3 <printf+0x79e>
    27ce: a9 20        	lda	#$20
    27d0: 20 c7 1c     	jsr	$1cc7 <__putchar>
    27d3: a5 47        	lda	$47                     ; 0x2047 <printf+0x12>
    27d5: a6 72        	ldx	$72                     ; 0x2072 <printf+0x3d>
    27d7: a4 73        	ldy	$73                     ; 0x2073 <printf+0x3e>
    27d9: e8           	inx
    27da: d0 01        	bne	$27dd <printf+0x7a8>
    27dc: c8           	iny
    27dd: 86 14        	stx	$14                     ; 0x2014 <_ZN12_GLOBAL__N_112print_stringEPKcP6Status+0xec>
    27df: 86 72        	stx	$72                     ; 0x2072 <printf+0x3d>
    27e1: 84 73        	sty	$73                     ; 0x2073 <printf+0x3e>
    27e3: a6 3e        	ldx	$3e                     ; 0x203e <printf+0x9>
    27e5: e8           	inx
    27e6: d0 01        	bne	$27e9 <printf+0x7b4>
    27e8: 1a           	inc
    27e9: 86 3e        	stx	$3e                     ; 0x203e <printf+0x9>
    27eb: c9 00        	cmp	#$0
    27ed: d0 04        	bne	$27f3 <printf+0x7be>
    27ef: e0 00        	cpx	#$0
    27f1: f0 13        	beq	$2806 <printf+0x7d1>
    27f3: 85 47        	sta	$47                     ; 0x2047 <printf+0x12>
    27f5: c4 71        	cpy	$71                     ; 0x2071 <printf+0x3c>
    27f7: d0 b3        	bne	$27ac <printf+0x777>
    27f9: a6 70        	ldx	$70                     ; 0x2070 <printf+0x3b>
    27fb: 86 12        	stx	$12                     ; 0x2012 <_ZN12_GLOBAL__N_112print_stringEPKcP6Status+0xea>
    27fd: a6 14        	ldx	$14                     ; 0x2014 <_ZN12_GLOBAL__N_112print_stringEPKcP6Status+0xec>
    27ff: e4 12        	cpx	$12                     ; 0x2012 <_ZN12_GLOBAL__N_112print_stringEPKcP6Status+0xea>
    2801: b0 d2        	bcs	$27d5 <printf+0x7a0>
    2803: 4c b0 27     	jmp	$27b0 <printf+0x77b>
    2806: 64 48        	stz	$48                     ; 0x2048 <printf+0x13>
    2808: 64 47        	stz	$47                     ; 0x2047 <printf+0x12>
    280a: a4 3d        	ldy	$3d                     ; 0x203d <printf+0x8>
    280c: a6 83        	ldx	$83                     ; 0x2083 <printf+0x4e>
    280e: d0 4d        	bne	$285d <printf+0x828>
    2810: a6 72        	ldx	$72                     ; 0x2072 <printf+0x3d>
    2812: a5 73        	lda	$73                     ; 0x2073 <printf+0x3e>
    2814: c5 71        	cmp	$71                     ; 0x2071 <printf+0x3c>
    2816: d0 10        	bne	$2828 <printf+0x7f3>
    2818: 86 13        	stx	$13                     ; 0x2013 <_ZN12_GLOBAL__N_112print_stringEPKcP6Status+0xeb>
    281a: a6 70        	ldx	$70                     ; 0x2070 <printf+0x3b>
    281c: 86 12        	stx	$12                     ; 0x2012 <_ZN12_GLOBAL__N_112print_stringEPKcP6Status+0xea>
    281e: a4 3d        	ldy	$3d                     ; 0x203d <printf+0x8>
    2820: a6 13        	ldx	$13                     ; 0x2013 <_ZN12_GLOBAL__N_112print_stringEPKcP6Status+0xeb>
    2822: e4 12        	cpx	$12                     ; 0x2012 <_ZN12_GLOBAL__N_112print_stringEPKcP6Status+0xea>
    2824: 90 08        	bcc	$282e <printf+0x7f9>
    2826: 80 2f        	bra	$2857 <printf+0x822>
    2828: 86 13        	stx	$13                     ; 0x2013 <_ZN12_GLOBAL__N_112print_stringEPKcP6Status+0xeb>
    282a: c5 71        	cmp	$71                     ; 0x2071 <printf+0x3c>
    282c: b0 29        	bcs	$2857 <printf+0x822>
    282e: a6 7d        	ldx	$7d                     ; 0x207d <printf+0x48>
    2830: e4 42        	cpx	$42                     ; 0x2042 <printf+0xd>
    2832: d0 1c        	bne	$2850 <printf+0x81b>
    2834: a6 7c        	ldx	$7c                     ; 0x207c <printf+0x47>
    2836: e4 41        	cpx	$41                     ; 0x2041 <printf+0xc>
    2838: d0 16        	bne	$2850 <printf+0x81b>
    283a: 18           	clc
    283b: 85 12        	sta	$12                     ; 0x2012 <_ZN12_GLOBAL__N_112print_stringEPKcP6Status+0xea>
    283d: a5 13        	lda	$13                     ; 0x2013 <_ZN12_GLOBAL__N_112print_stringEPKcP6Status+0xeb>
    283f: 65 76        	adc	$76                     ; 0x2076 <printf+0x41>
    2841: aa           	tax
    2842: a5 12        	lda	$12                     ; 0x2012 <_ZN12_GLOBAL__N_112print_stringEPKcP6Status+0xea>
    2844: 65 77        	adc	$77                     ; 0x2077 <printf+0x42>
    2846: 86 12        	stx	$12                     ; 0x2012 <_ZN12_GLOBAL__N_112print_stringEPKcP6Status+0xea>
    2848: 85 13        	sta	$13                     ; 0x2013 <_ZN12_GLOBAL__N_112print_stringEPKcP6Status+0xeb>
    284a: a5 84        	lda	$84                     ; 0x2084 <printf+0x4f>
    284c: 92 12        	sta	($12)                   ; 0x2012 <_ZN12_GLOBAL__N_112print_stringEPKcP6Status+0xea>
    284e: 80 05        	bra	$2855 <printf+0x820>
    2850: a5 84        	lda	$84                     ; 0x2084 <printf+0x4f>
    2852: 20 c7 1c     	jsr	$1cc7 <__putchar>
    2855: a4 3d        	ldy	$3d                     ; 0x203d <printf+0x8>
    2857: e6 72        	inc	$72                     ; 0x2072 <printf+0x3d>
    2859: d0 02        	bne	$285d <printf+0x828>
    285b: e6 73        	inc	$73                     ; 0x2073 <printf+0x3e>
    285d: a6 82        	ldx	$82                     ; 0x2082 <printf+0x4d>
    285f: f0 4d        	beq	$28ae <printf+0x879>
    2861: a6 72        	ldx	$72                     ; 0x2072 <printf+0x3d>
    2863: a5 73        	lda	$73                     ; 0x2073 <printf+0x3e>
    2865: c5 71        	cmp	$71                     ; 0x2071 <printf+0x3c>
    2867: d0 10        	bne	$2879 <printf+0x844>
    2869: 86 13        	stx	$13                     ; 0x2013 <_ZN12_GLOBAL__N_112print_stringEPKcP6Status+0xeb>
    286b: a6 70        	ldx	$70                     ; 0x2070 <printf+0x3b>
    286d: 86 12        	stx	$12                     ; 0x2012 <_ZN12_GLOBAL__N_112print_stringEPKcP6Status+0xea>
    286f: a4 3d        	ldy	$3d                     ; 0x203d <printf+0x8>
    2871: a6 13        	ldx	$13                     ; 0x2013 <_ZN12_GLOBAL__N_112print_stringEPKcP6Status+0xeb>
    2873: e4 12        	cpx	$12                     ; 0x2012 <_ZN12_GLOBAL__N_112print_stringEPKcP6Status+0xea>
    2875: 90 08        	bcc	$287f <printf+0x84a>
    2877: 80 2f        	bra	$28a8 <printf+0x873>
    2879: 86 13        	stx	$13                     ; 0x2013 <_ZN12_GLOBAL__N_112print_stringEPKcP6Status+0xeb>
    287b: c5 71        	cmp	$71                     ; 0x2071 <printf+0x3c>
    287d: b0 29        	bcs	$28a8 <printf+0x873>
    287f: a6 7d        	ldx	$7d                     ; 0x207d <printf+0x48>
    2881: e4 42        	cpx	$42                     ; 0x2042 <printf+0xd>
    2883: d0 1c        	bne	$28a1 <printf+0x86c>
    2885: a6 7c        	ldx	$7c                     ; 0x207c <printf+0x47>
    2887: e4 41        	cpx	$41                     ; 0x2041 <printf+0xc>
    2889: d0 16        	bne	$28a1 <printf+0x86c>
    288b: 18           	clc
    288c: 85 12        	sta	$12                     ; 0x2012 <_ZN12_GLOBAL__N_112print_stringEPKcP6Status+0xea>
    288e: a5 13        	lda	$13                     ; 0x2013 <_ZN12_GLOBAL__N_112print_stringEPKcP6Status+0xeb>
    2890: 65 76        	adc	$76                     ; 0x2076 <printf+0x41>
    2892: aa           	tax
    2893: a5 12        	lda	$12                     ; 0x2012 <_ZN12_GLOBAL__N_112print_stringEPKcP6Status+0xea>
    2895: 65 77        	adc	$77                     ; 0x2077 <printf+0x42>
    2897: 86 12        	stx	$12                     ; 0x2012 <_ZN12_GLOBAL__N_112print_stringEPKcP6Status+0xea>
    2899: 85 13        	sta	$13                     ; 0x2013 <_ZN12_GLOBAL__N_112print_stringEPKcP6Status+0xeb>
    289b: a5 87        	lda	$87                     ; 0x2087 <printf+0x52>
    289d: 92 12        	sta	($12)                   ; 0x2012 <_ZN12_GLOBAL__N_112print_stringEPKcP6Status+0xea>
    289f: 80 05        	bra	$28a6 <printf+0x871>
    28a1: a5 87        	lda	$87                     ; 0x2087 <printf+0x52>
    28a3: 20 c7 1c     	jsr	$1cc7 <__putchar>
    28a6: a4 3d        	ldy	$3d                     ; 0x203d <printf+0x8>
    28a8: e6 72        	inc	$72                     ; 0x2072 <printf+0x3d>
    28aa: d0 02        	bne	$28ae <printf+0x879>
    28ac: e6 73        	inc	$73                     ; 0x2073 <printf+0x3e>
    28ae: a9 10        	lda	#$10
    28b0: 25 6e        	and	$6e                     ; 0x206e <printf+0x39>
    28b2: d0 03        	bne	$28b7 <printf+0x882>
    28b4: 4c 3f 29     	jmp	$293f <printf+0x90a>
    28b7: a5 6e        	lda	$6e                     ; 0x206e <printf+0x39>
    28b9: 29 01        	and	#$1
    28bb: 29 01        	and	#$1
    28bd: f0 03        	beq	$28c2 <printf+0x88d>
    28bf: 4c 3f 29     	jmp	$293f <printf+0x90a>
    28c2: a6 48        	ldx	$48                     ; 0x2048 <printf+0x13>
    28c4: a5 47        	lda	$47                     ; 0x2047 <printf+0x12>
    28c6: d0 06        	bne	$28ce <printf+0x899>
    28c8: 8a           	txa
    28c9: d0 03        	bne	$28ce <printf+0x899>
    28cb: 4c dd 2b     	jmp	$2bdd <printf+0xba8>
    28ce: a6 72        	ldx	$72                     ; 0x2072 <printf+0x3d>
    28d0: 86 13        	stx	$13                     ; 0x2013 <_ZN12_GLOBAL__N_112print_stringEPKcP6Status+0xeb>
    28d2: a5 73        	lda	$73                     ; 0x2073 <printf+0x3e>
    28d4: 80 4f        	bra	$2925 <printf+0x8f0>
    28d6: c5 71        	cmp	$71                     ; 0x2071 <printf+0x3c>
    28d8: b0 24        	bcs	$28fe <printf+0x8c9>
    28da: a6 7d        	ldx	$7d                     ; 0x207d <printf+0x48>
    28dc: e4 42        	cpx	$42                     ; 0x2042 <printf+0xd>
    28de: d0 19        	bne	$28f9 <printf+0x8c4>
    28e0: a6 7c        	ldx	$7c                     ; 0x207c <printf+0x47>
    28e2: e4 41        	cpx	$41                     ; 0x2041 <printf+0xc>
    28e4: d0 13        	bne	$28f9 <printf+0x8c4>
    28e6: 18           	clc
    28e7: aa           	tax
    28e8: a5 13        	lda	$13                     ; 0x2013 <_ZN12_GLOBAL__N_112print_stringEPKcP6Status+0xeb>
    28ea: 65 76        	adc	$76                     ; 0x2076 <printf+0x41>
    28ec: 85 12        	sta	$12                     ; 0x2012 <_ZN12_GLOBAL__N_112print_stringEPKcP6Status+0xea>
    28ee: 8a           	txa
    28ef: 65 77        	adc	$77                     ; 0x2077 <printf+0x42>
    28f1: 85 13        	sta	$13                     ; 0x2013 <_ZN12_GLOBAL__N_112print_stringEPKcP6Status+0xeb>
    28f3: a9 30        	lda	#$30
    28f5: 92 12        	sta	($12)                   ; 0x2012 <_ZN12_GLOBAL__N_112print_stringEPKcP6Status+0xea>
    28f7: 80 05        	bra	$28fe <printf+0x8c9>
    28f9: a9 30        	lda	#$30
    28fb: 20 c7 1c     	jsr	$1cc7 <__putchar>
    28fe: a6 72        	ldx	$72                     ; 0x2072 <printf+0x3d>
    2900: a5 73        	lda	$73                     ; 0x2073 <printf+0x3e>
    2902: e8           	inx
    2903: d0 01        	bne	$2906 <printf+0x8d1>
    2905: 1a           	inc
    2906: 86 13        	stx	$13                     ; 0x2013 <_ZN12_GLOBAL__N_112print_stringEPKcP6Status+0xeb>
    2908: 86 72        	stx	$72                     ; 0x2072 <printf+0x3d>
    290a: 85 73        	sta	$73                     ; 0x2073 <printf+0x3e>
    290c: a4 48        	ldy	$48                     ; 0x2048 <printf+0x13>
    290e: a6 47        	ldx	$47                     ; 0x2047 <printf+0x12>
    2910: 86 12        	stx	$12                     ; 0x2012 <_ZN12_GLOBAL__N_112print_stringEPKcP6Status+0xea>
    2912: 88           	dey
    2913: c0 ff        	cpy	#$ff
    2915: d0 02        	bne	$2919 <printf+0x8e4>
    2917: c6 12        	dec	$12                     ; 0x2012 <_ZN12_GLOBAL__N_112print_stringEPKcP6Status+0xea>
    2919: 84 48        	sty	$48                     ; 0x2048 <printf+0x13>
    291b: a6 12        	ldx	$12                     ; 0x2012 <_ZN12_GLOBAL__N_112print_stringEPKcP6Status+0xea>
    291d: 86 47        	stx	$47                     ; 0x2047 <printf+0x12>
    291f: d0 04        	bne	$2925 <printf+0x8f0>
    2921: c0 00        	cpy	#$0
    2923: f0 14        	beq	$2939 <printf+0x904>
    2925: c5 71        	cmp	$71                     ; 0x2071 <printf+0x3c>
    2927: f0 03        	beq	$292c <printf+0x8f7>
    2929: 4c d6 28     	jmp	$28d6 <printf+0x8a1>
    292c: a6 70        	ldx	$70                     ; 0x2070 <printf+0x3b>
    292e: 86 12        	stx	$12                     ; 0x2012 <_ZN12_GLOBAL__N_112print_stringEPKcP6Status+0xea>
    2930: a6 13        	ldx	$13                     ; 0x2013 <_ZN12_GLOBAL__N_112print_stringEPKcP6Status+0xeb>
    2932: e4 12        	cpx	$12                     ; 0x2012 <_ZN12_GLOBAL__N_112print_stringEPKcP6Status+0xea>
    2934: b0 c8        	bcs	$28fe <printf+0x8c9>
    2936: 4c da 28     	jmp	$28da <printf+0x8a5>
    2939: 64 48        	stz	$48                     ; 0x2048 <printf+0x13>
    293b: 64 47        	stz	$47                     ; 0x2047 <printf+0x12>
    293d: a4 3d        	ldy	$3d                     ; 0x203d <printf+0x8>
    293f: a2 00        	ldx	#$0
    2941: e4 46        	cpx	$46                     ; 0x2046 <printf+0x11>
    2943: d0 07        	bne	$294c <printf+0x917>
    2945: c4 45        	cpy	$45                     ; 0x2045 <printf+0x10>
    2947: 90 0a        	bcc	$2953 <printf+0x91e>
    2949: 4c c1 29     	jmp	$29c1 <printf+0x98c>
    294c: e4 46        	cpx	$46                     ; 0x2046 <printf+0x11>
    294e: 90 03        	bcc	$2953 <printf+0x91e>
    2950: 4c c1 29     	jmp	$29c1 <printf+0x98c>
    2953: a6 72        	ldx	$72                     ; 0x2072 <printf+0x3d>
    2955: 86 13        	stx	$13                     ; 0x2013 <_ZN12_GLOBAL__N_112print_stringEPKcP6Status+0xeb>
    2957: a5 73        	lda	$73                     ; 0x2073 <printf+0x3e>
    2959: a2 ff        	ldx	#$ff
    295b: c6 45        	dec	$45                     ; 0x2045 <printf+0x10>
    295d: e4 45        	cpx	$45                     ; 0x2045 <printf+0x10>
    295f: d0 02        	bne	$2963 <printf+0x92e>
    2961: c6 46        	dec	$46                     ; 0x2046 <printf+0x11>
    2963: c5 71        	cmp	$71                     ; 0x2071 <printf+0x3c>
    2965: d0 0c        	bne	$2973 <printf+0x93e>
    2967: a6 70        	ldx	$70                     ; 0x2070 <printf+0x3b>
    2969: 86 12        	stx	$12                     ; 0x2012 <_ZN12_GLOBAL__N_112print_stringEPKcP6Status+0xea>
    296b: a6 13        	ldx	$13                     ; 0x2013 <_ZN12_GLOBAL__N_112print_stringEPKcP6Status+0xeb>
    296d: e4 12        	cpx	$12                     ; 0x2012 <_ZN12_GLOBAL__N_112print_stringEPKcP6Status+0xea>
    296f: 90 06        	bcc	$2977 <printf+0x942>
    2971: 80 28        	bra	$299b <printf+0x966>
    2973: c5 71        	cmp	$71                     ; 0x2071 <printf+0x3c>
    2975: b0 24        	bcs	$299b <printf+0x966>
    2977: a6 7d        	ldx	$7d                     ; 0x207d <printf+0x48>
    2979: e4 42        	cpx	$42                     ; 0x2042 <printf+0xd>
    297b: d0 19        	bne	$2996 <printf+0x961>
    297d: a6 7c        	ldx	$7c                     ; 0x207c <printf+0x47>
    297f: e4 41        	cpx	$41                     ; 0x2041 <printf+0xc>
    2981: d0 13        	bne	$2996 <printf+0x961>
    2983: 18           	clc
    2984: aa           	tax
    2985: a5 13        	lda	$13                     ; 0x2013 <_ZN12_GLOBAL__N_112print_stringEPKcP6Status+0xeb>
    2987: 65 76        	adc	$76                     ; 0x2076 <printf+0x41>
    2989: 85 12        	sta	$12                     ; 0x2012 <_ZN12_GLOBAL__N_112print_stringEPKcP6Status+0xea>
    298b: 8a           	txa
    298c: 65 77        	adc	$77                     ; 0x2077 <printf+0x42>
    298e: 85 13        	sta	$13                     ; 0x2013 <_ZN12_GLOBAL__N_112print_stringEPKcP6Status+0xeb>
    2990: a9 30        	lda	#$30
    2992: 92 12        	sta	($12)                   ; 0x2012 <_ZN12_GLOBAL__N_112print_stringEPKcP6Status+0xea>
    2994: 80 05        	bra	$299b <printf+0x966>
    2996: a9 30        	lda	#$30
    2998: 20 c7 1c     	jsr	$1cc7 <__putchar>
    299b: a6 72        	ldx	$72                     ; 0x2072 <printf+0x3d>
    299d: a5 73        	lda	$73                     ; 0x2073 <printf+0x3e>
    299f: e8           	inx
    29a0: d0 01        	bne	$29a3 <printf+0x96e>
    29a2: 1a           	inc
    29a3: 86 13        	stx	$13                     ; 0x2013 <_ZN12_GLOBAL__N_112print_stringEPKcP6Status+0xeb>
    29a5: 86 72        	stx	$72                     ; 0x2072 <printf+0x3d>
    29a7: 85 73        	sta	$73                     ; 0x2073 <printf+0x3e>
    29a9: a2 00        	ldx	#$0
    29ab: e4 46        	cpx	$46                     ; 0x2046 <printf+0x11>
    29ad: d0 09        	bne	$29b8 <printf+0x983>
    29af: a4 3d        	ldy	$3d                     ; 0x203d <printf+0x8>
    29b1: c4 45        	cpy	$45                     ; 0x2045 <printf+0x10>
    29b3: b0 0c        	bcs	$29c1 <printf+0x98c>
    29b5: 4c 59 29     	jmp	$2959 <printf+0x924>
    29b8: e4 46        	cpx	$46                     ; 0x2046 <printf+0x11>
    29ba: a4 3d        	ldy	$3d                     ; 0x203d <printf+0x8>
    29bc: b0 03        	bcs	$29c1 <printf+0x98c>
    29be: 4c 59 29     	jmp	$2959 <printf+0x924>
    29c1: 98           	tya
    29c2: d0 03        	bne	$29c7 <printf+0x992>
    29c4: 4c b6 2a     	jmp	$2ab6 <printf+0xa81>
    29c7: 88           	dey
    29c8: d0 03        	bne	$29cd <printf+0x998>
    29ca: 4c 55 2a     	jmp	$2a55 <printf+0xa20>
    29cd: 84 45        	sty	$45                     ; 0x2045 <printf+0x10>
    29cf: a6 88        	ldx	$88                     ; 0x2088 <printf+0x53>
    29d1: 8a           	txa
    29d2: 18           	clc
    29d3: 65 45        	adc	$45                     ; 0x2045 <printf+0x10>
    29d5: 85 3d        	sta	$3d                     ; 0x203d <printf+0x8>
    29d7: a5 89        	lda	$89                     ; 0x2089 <printf+0x54>
    29d9: 69 00        	adc	#$0
    29db: 85 3e        	sta	$3e                     ; 0x203e <printf+0x9>
    29dd: 4c 47 2a     	jmp	$2a47 <printf+0xa12>
    29e0: a8           	tay
    29e1: a9 80        	lda	#$80
    29e3: 25 6e        	and	$6e                     ; 0x206e <printf+0x39>
    29e5: f0 04        	beq	$29eb <printf+0x9b6>
    29e7: a2 61        	ldx	#$61
    29e9: 80 02        	bra	$29ed <printf+0x9b8>
    29eb: a2 41        	ldx	#$41
    29ed: 86 12        	stx	$12                     ; 0x2012 <_ZN12_GLOBAL__N_112print_stringEPKcP6Status+0xea>
    29ef: 18           	clc
    29f0: 98           	tya
    29f1: 65 12        	adc	$12                     ; 0x2012 <_ZN12_GLOBAL__N_112print_stringEPKcP6Status+0xea>
    29f3: 18           	clc
    29f4: 69 f6        	adc	#$f6
    29f6: a4 72        	ldy	$72                     ; 0x2072 <printf+0x3d>
    29f8: a6 73        	ldx	$73                     ; 0x2073 <printf+0x3e>
    29fa: e4 71        	cpx	$71                     ; 0x2071 <printf+0x3c>
    29fc: d0 0c        	bne	$2a0a <printf+0x9d5>
    29fe: 86 14        	stx	$14                     ; 0x2014 <_ZN12_GLOBAL__N_112print_stringEPKcP6Status+0xec>
    2a00: a6 70        	ldx	$70                     ; 0x2070 <printf+0x3b>
    2a02: 86 12        	stx	$12                     ; 0x2012 <_ZN12_GLOBAL__N_112print_stringEPKcP6Status+0xea>
    2a04: c4 12        	cpy	$12                     ; 0x2012 <_ZN12_GLOBAL__N_112print_stringEPKcP6Status+0xea>
    2a06: 90 08        	bcc	$2a10 <printf+0x9db>
    2a08: 80 27        	bra	$2a31 <printf+0x9fc>
    2a0a: 86 14        	stx	$14                     ; 0x2014 <_ZN12_GLOBAL__N_112print_stringEPKcP6Status+0xec>
    2a0c: e4 71        	cpx	$71                     ; 0x2071 <printf+0x3c>
    2a0e: b0 21        	bcs	$2a31 <printf+0x9fc>
    2a10: a6 7d        	ldx	$7d                     ; 0x207d <printf+0x48>
    2a12: e4 42        	cpx	$42                     ; 0x2042 <printf+0xd>
    2a14: d0 18        	bne	$2a2e <printf+0x9f9>
    2a16: a6 7c        	ldx	$7c                     ; 0x207c <printf+0x47>
    2a18: e4 41        	cpx	$41                     ; 0x2041 <printf+0xc>
    2a1a: d0 12        	bne	$2a2e <printf+0x9f9>
    2a1c: 18           	clc
    2a1d: aa           	tax
    2a1e: 98           	tya
    2a1f: 65 76        	adc	$76                     ; 0x2076 <printf+0x41>
    2a21: 85 12        	sta	$12                     ; 0x2012 <_ZN12_GLOBAL__N_112print_stringEPKcP6Status+0xea>
    2a23: a5 14        	lda	$14                     ; 0x2014 <_ZN12_GLOBAL__N_112print_stringEPKcP6Status+0xec>
    2a25: 65 77        	adc	$77                     ; 0x2077 <printf+0x42>
    2a27: 85 13        	sta	$13                     ; 0x2013 <_ZN12_GLOBAL__N_112print_stringEPKcP6Status+0xeb>
    2a29: 8a           	txa
    2a2a: 92 12        	sta	($12)                   ; 0x2012 <_ZN12_GLOBAL__N_112print_stringEPKcP6Status+0xea>
    2a2c: 80 03        	bra	$2a31 <printf+0x9fc>
    2a2e: 20 c7 1c     	jsr	$1cc7 <__putchar>
    2a31: e6 72        	inc	$72                     ; 0x2072 <printf+0x3d>
    2a33: d0 02        	bne	$2a37 <printf+0xa02>
    2a35: e6 73        	inc	$73                     ; 0x2073 <printf+0x3e>
    2a37: c6 45        	dec	$45                     ; 0x2045 <printf+0x10>
    2a39: a2 ff        	ldx	#$ff
    2a3b: c6 3d        	dec	$3d                     ; 0x203d <printf+0x8>
    2a3d: e4 3d        	cpx	$3d                     ; 0x203d <printf+0x8>
    2a3f: d0 02        	bne	$2a43 <printf+0xa0e>
    2a41: c6 3e        	dec	$3e                     ; 0x203e <printf+0x9>
    2a43: a5 45        	lda	$45                     ; 0x2045 <printf+0x10>
    2a45: f0 0e        	beq	$2a55 <printf+0xa20>
    2a47: b2 3d        	lda	($3d)                   ; 0x203d <printf+0x8>
    2a49: c9 0a        	cmp	#$a
    2a4b: 90 03        	bcc	$2a50 <printf+0xa1b>
    2a4d: 4c e0 29     	jmp	$29e0 <printf+0x9ab>
    2a50: 09 30        	ora	#$30
    2a52: 4c f6 29     	jmp	$29f6 <printf+0x9c1>
    2a55: a5 4b        	lda	$4b                     ; 0x204b <printf+0x16>
    2a57: c9 0a        	cmp	#$a
    2a59: b0 04        	bcs	$2a5f <printf+0xa2a>
    2a5b: 09 30        	ora	#$30
    2a5d: 80 16        	bra	$2a75 <printf+0xa40>
    2a5f: a8           	tay
    2a60: a9 80        	lda	#$80
    2a62: 25 6e        	and	$6e                     ; 0x206e <printf+0x39>
    2a64: f0 04        	beq	$2a6a <printf+0xa35>
    2a66: a2 61        	ldx	#$61
    2a68: 80 02        	bra	$2a6c <printf+0xa37>
    2a6a: a2 41        	ldx	#$41
    2a6c: 86 12        	stx	$12                     ; 0x2012 <_ZN12_GLOBAL__N_112print_stringEPKcP6Status+0xea>
    2a6e: 18           	clc
    2a6f: 98           	tya
    2a70: 65 12        	adc	$12                     ; 0x2012 <_ZN12_GLOBAL__N_112print_stringEPKcP6Status+0xea>
    2a72: 18           	clc
    2a73: 69 f6        	adc	#$f6
    2a75: a4 72        	ldy	$72                     ; 0x2072 <printf+0x3d>
    2a77: a6 73        	ldx	$73                     ; 0x2073 <printf+0x3e>
    2a79: e4 71        	cpx	$71                     ; 0x2071 <printf+0x3c>
    2a7b: d0 0c        	bne	$2a89 <printf+0xa54>
    2a7d: 86 14        	stx	$14                     ; 0x2014 <_ZN12_GLOBAL__N_112print_stringEPKcP6Status+0xec>
    2a7f: a6 70        	ldx	$70                     ; 0x2070 <printf+0x3b>
    2a81: 86 12        	stx	$12                     ; 0x2012 <_ZN12_GLOBAL__N_112print_stringEPKcP6Status+0xea>
    2a83: c4 12        	cpy	$12                     ; 0x2012 <_ZN12_GLOBAL__N_112print_stringEPKcP6Status+0xea>
    2a85: 90 08        	bcc	$2a8f <printf+0xa5a>
    2a87: 80 27        	bra	$2ab0 <printf+0xa7b>
    2a89: 86 14        	stx	$14                     ; 0x2014 <_ZN12_GLOBAL__N_112print_stringEPKcP6Status+0xec>
    2a8b: e4 71        	cpx	$71                     ; 0x2071 <printf+0x3c>
    2a8d: b0 21        	bcs	$2ab0 <printf+0xa7b>
    2a8f: a6 7d        	ldx	$7d                     ; 0x207d <printf+0x48>
    2a91: e4 42        	cpx	$42                     ; 0x2042 <printf+0xd>
    2a93: d0 18        	bne	$2aad <printf+0xa78>
    2a95: a6 7c        	ldx	$7c                     ; 0x207c <printf+0x47>
    2a97: e4 41        	cpx	$41                     ; 0x2041 <printf+0xc>
    2a99: d0 12        	bne	$2aad <printf+0xa78>
    2a9b: 18           	clc
    2a9c: aa           	tax
    2a9d: 98           	tya
    2a9e: 65 76        	adc	$76                     ; 0x2076 <printf+0x41>
    2aa0: 85 12        	sta	$12                     ; 0x2012 <_ZN12_GLOBAL__N_112print_stringEPKcP6Status+0xea>
    2aa2: a5 14        	lda	$14                     ; 0x2014 <_ZN12_GLOBAL__N_112print_stringEPKcP6Status+0xec>
    2aa4: 65 77        	adc	$77                     ; 0x2077 <printf+0x42>
    2aa6: 85 13        	sta	$13                     ; 0x2013 <_ZN12_GLOBAL__N_112print_stringEPKcP6Status+0xeb>
    2aa8: 8a           	txa
    2aa9: 92 12        	sta	($12)                   ; 0x2012 <_ZN12_GLOBAL__N_112print_stringEPKcP6Status+0xea>
    2aab: 80 03        	bra	$2ab0 <printf+0xa7b>
    2aad: 20 c7 1c     	jsr	$1cc7 <__putchar>
    2ab0: e6 72        	inc	$72                     ; 0x2072 <printf+0x3d>
    2ab2: d0 02        	bne	$2ab6 <printf+0xa81>
    2ab4: e6 73        	inc	$73                     ; 0x2073 <printf+0x3e>
    2ab6: a9 01        	lda	#$1
    2ab8: 25 6e        	and	$6e                     ; 0x206e <printf+0x39>
    2aba: 29 01        	and	#$1
    2abc: d0 1e        	bne	$2adc <printf+0xaa7>
    2abe: a6 72        	ldx	$72                     ; 0x2072 <printf+0x3d>
    2ac0: 86 14        	stx	$14                     ; 0x2014 <_ZN12_GLOBAL__N_112print_stringEPKcP6Status+0xec>
    2ac2: a5 73        	lda	$73                     ; 0x2073 <printf+0x3e>
    2ac4: a4 70        	ldy	$70                     ; 0x2070 <printf+0x3b>
    2ac6: a6 71        	ldx	$71                     ; 0x2071 <printf+0x3c>
    2ac8: 86 12        	stx	$12                     ; 0x2012 <_ZN12_GLOBAL__N_112print_stringEPKcP6Status+0xea>
    2aca: 86 13        	stx	$13                     ; 0x2013 <_ZN12_GLOBAL__N_112print_stringEPKcP6Status+0xeb>
    2acc: c5 12        	cmp	$12                     ; 0x2012 <_ZN12_GLOBAL__N_112print_stringEPKcP6Status+0xea>
    2ace: f0 03        	beq	$2ad3 <printf+0xa9e>
    2ad0: 4c 5f 2b     	jmp	$2b5f <printf+0xb2a>
    2ad3: 84 12        	sty	$12                     ; 0x2012 <_ZN12_GLOBAL__N_112print_stringEPKcP6Status+0xea>
    2ad5: a6 14        	ldx	$14                     ; 0x2014 <_ZN12_GLOBAL__N_112print_stringEPKcP6Status+0xec>
    2ad7: e4 12        	cpx	$12                     ; 0x2012 <_ZN12_GLOBAL__N_112print_stringEPKcP6Status+0xea>
    2ad9: 4c 63 2b     	jmp	$2b63 <printf+0xb2e>
    2adc: a6 72        	ldx	$72                     ; 0x2072 <printf+0x3d>
    2ade: 86 14        	stx	$14                     ; 0x2014 <_ZN12_GLOBAL__N_112print_stringEPKcP6Status+0xec>
    2ae0: a5 73        	lda	$73                     ; 0x2073 <printf+0x3e>
    2ae2: a6 48        	ldx	$48                     ; 0x2048 <printf+0x13>
    2ae4: a4 47        	ldy	$47                     ; 0x2047 <printf+0x12>
    2ae6: f0 03        	beq	$2aeb <printf+0xab6>
    2ae8: 4c 4b 2b     	jmp	$2b4b <printf+0xb16>
    2aeb: e0 00        	cpx	#$0
    2aed: f0 d5        	beq	$2ac4 <printf+0xa8f>
    2aef: 4c 4b 2b     	jmp	$2b4b <printf+0xb16>
    2af2: c5 71        	cmp	$71                     ; 0x2071 <printf+0x3c>
    2af4: b0 24        	bcs	$2b1a <printf+0xae5>
    2af6: a6 7d        	ldx	$7d                     ; 0x207d <printf+0x48>
    2af8: e4 42        	cpx	$42                     ; 0x2042 <printf+0xd>
    2afa: d0 19        	bne	$2b15 <printf+0xae0>
    2afc: a6 7c        	ldx	$7c                     ; 0x207c <printf+0x47>
    2afe: e4 41        	cpx	$41                     ; 0x2041 <printf+0xc>
    2b00: d0 13        	bne	$2b15 <printf+0xae0>
    2b02: 18           	clc
    2b03: aa           	tax
    2b04: a5 14        	lda	$14                     ; 0x2014 <_ZN12_GLOBAL__N_112print_stringEPKcP6Status+0xec>
    2b06: 65 76        	adc	$76                     ; 0x2076 <printf+0x41>
    2b08: 85 12        	sta	$12                     ; 0x2012 <_ZN12_GLOBAL__N_112print_stringEPKcP6Status+0xea>
    2b0a: 8a           	txa
    2b0b: 65 77        	adc	$77                     ; 0x2077 <printf+0x42>
    2b0d: 85 13        	sta	$13                     ; 0x2013 <_ZN12_GLOBAL__N_112print_stringEPKcP6Status+0xeb>
    2b0f: a9 20        	lda	#$20
    2b11: 92 12        	sta	($12)                   ; 0x2012 <_ZN12_GLOBAL__N_112print_stringEPKcP6Status+0xea>
    2b13: 80 05        	bra	$2b1a <printf+0xae5>
    2b15: a9 20        	lda	#$20
    2b17: 20 c7 1c     	jsr	$1cc7 <__putchar>
    2b1a: a6 72        	ldx	$72                     ; 0x2072 <printf+0x3d>
    2b1c: a5 73        	lda	$73                     ; 0x2073 <printf+0x3e>
    2b1e: e8           	inx
    2b1f: d0 01        	bne	$2b22 <printf+0xaed>
    2b21: 1a           	inc
    2b22: 86 14        	stx	$14                     ; 0x2014 <_ZN12_GLOBAL__N_112print_stringEPKcP6Status+0xec>
    2b24: 86 72        	stx	$72                     ; 0x2072 <printf+0x3d>
    2b26: 85 73        	sta	$73                     ; 0x2073 <printf+0x3e>
    2b28: a6 48        	ldx	$48                     ; 0x2048 <printf+0x13>
    2b2a: 86 12        	stx	$12                     ; 0x2012 <_ZN12_GLOBAL__N_112print_stringEPKcP6Status+0xea>
    2b2c: a6 47        	ldx	$47                     ; 0x2047 <printf+0x12>
    2b2e: 86 13        	stx	$13                     ; 0x2013 <_ZN12_GLOBAL__N_112print_stringEPKcP6Status+0xeb>
    2b30: a2 ff        	ldx	#$ff
    2b32: c6 12        	dec	$12                     ; 0x2012 <_ZN12_GLOBAL__N_112print_stringEPKcP6Status+0xea>
    2b34: e4 12        	cpx	$12                     ; 0x2012 <_ZN12_GLOBAL__N_112print_stringEPKcP6Status+0xea>
    2b36: d0 02        	bne	$2b3a <printf+0xb05>
    2b38: c6 13        	dec	$13                     ; 0x2013 <_ZN12_GLOBAL__N_112print_stringEPKcP6Status+0xeb>
    2b3a: a6 12        	ldx	$12                     ; 0x2012 <_ZN12_GLOBAL__N_112print_stringEPKcP6Status+0xea>
    2b3c: 86 48        	stx	$48                     ; 0x2048 <printf+0x13>
    2b3e: a6 13        	ldx	$13                     ; 0x2013 <_ZN12_GLOBAL__N_112print_stringEPKcP6Status+0xeb>
    2b40: 86 47        	stx	$47                     ; 0x2047 <printf+0x12>
    2b42: d0 07        	bne	$2b4b <printf+0xb16>
    2b44: a6 12        	ldx	$12                     ; 0x2012 <_ZN12_GLOBAL__N_112print_stringEPKcP6Status+0xea>
    2b46: d0 03        	bne	$2b4b <printf+0xb16>
    2b48: 4c c4 2a     	jmp	$2ac4 <printf+0xa8f>
    2b4b: c5 71        	cmp	$71                     ; 0x2071 <printf+0x3c>
    2b4d: f0 03        	beq	$2b52 <printf+0xb1d>
    2b4f: 4c f2 2a     	jmp	$2af2 <printf+0xabd>
    2b52: a6 70        	ldx	$70                     ; 0x2070 <printf+0x3b>
    2b54: 86 12        	stx	$12                     ; 0x2012 <_ZN12_GLOBAL__N_112print_stringEPKcP6Status+0xea>
    2b56: a6 14        	ldx	$14                     ; 0x2014 <_ZN12_GLOBAL__N_112print_stringEPKcP6Status+0xec>
    2b58: e4 12        	cpx	$12                     ; 0x2012 <_ZN12_GLOBAL__N_112print_stringEPKcP6Status+0xea>
    2b5a: b0 be        	bcs	$2b1a <printf+0xae5>
    2b5c: 4c f6 2a     	jmp	$2af6 <printf+0xac1>
    2b5f: 86 12        	stx	$12                     ; 0x2012 <_ZN12_GLOBAL__N_112print_stringEPKcP6Status+0xea>
    2b61: c5 12        	cmp	$12                     ; 0x2012 <_ZN12_GLOBAL__N_112print_stringEPKcP6Status+0xea>
    2b63: 98           	tya
    2b64: a0 01        	ldy	#$1
    2b66: 90 20        	bcc	$2b88 <printf+0xb53>
    2b68: a6 13        	ldx	$13                     ; 0x2013 <_ZN12_GLOBAL__N_112print_stringEPKcP6Status+0xeb>
    2b6a: d0 03        	bne	$2b6f <printf+0xb3a>
    2b6c: aa           	tax
    2b6d: f0 19        	beq	$2b88 <printf+0xb53>
    2b6f: 18           	clc
    2b70: 65 76        	adc	$76                     ; 0x2076 <printf+0x41>
    2b72: 85 12        	sta	$12                     ; 0x2012 <_ZN12_GLOBAL__N_112print_stringEPKcP6Status+0xea>
    2b74: a5 13        	lda	$13                     ; 0x2013 <_ZN12_GLOBAL__N_112print_stringEPKcP6Status+0xeb>
    2b76: 65 77        	adc	$77                     ; 0x2077 <printf+0x42>
    2b78: 85 13        	sta	$13                     ; 0x2013 <_ZN12_GLOBAL__N_112print_stringEPKcP6Status+0xeb>
    2b7a: a2 ff        	ldx	#$ff
    2b7c: c6 12        	dec	$12                     ; 0x2012 <_ZN12_GLOBAL__N_112print_stringEPKcP6Status+0xea>
    2b7e: e4 12        	cpx	$12                     ; 0x2012 <_ZN12_GLOBAL__N_112print_stringEPKcP6Status+0xea>
    2b80: d0 02        	bne	$2b84 <printf+0xb4f>
    2b82: c6 13        	dec	$13                     ; 0x2013 <_ZN12_GLOBAL__N_112print_stringEPKcP6Status+0xeb>
    2b84: a9 00        	lda	#$0
    2b86: 92 12        	sta	($12)                   ; 0x2012 <_ZN12_GLOBAL__N_112print_stringEPKcP6Status+0xea>
    2b88: e6 3f        	inc	$3f                     ; 0x203f <printf+0xa>
    2b8a: d0 02        	bne	$2b8e <printf+0xb59>
    2b8c: e6 40        	inc	$40                     ; 0x2040 <printf+0xb>
    2b8e: a6 40        	ldx	$40                     ; 0x2040 <printf+0xb>
    2b90: e4 44        	cpx	$44                     ; 0x2044 <printf+0xf>
    2b92: f0 03        	beq	$2b97 <printf+0xb62>
    2b94: 4c 9a 20     	jmp	$209a <printf+0x65>
    2b97: a6 3f        	ldx	$3f                     ; 0x203f <printf+0xa>
    2b99: e4 43        	cpx	$43                     ; 0x2043 <printf+0xe>
    2b9b: f0 03        	beq	$2ba0 <printf+0xb6b>
    2b9d: 4c 9a 20     	jmp	$209a <printf+0x65>
    2ba0: b2 43        	lda	($43)                   ; 0x2043 <printf+0xe>
    2ba2: a2 00        	ldx	#$0
    2ba4: 86 41        	stx	$41                     ; 0x2041 <printf+0xc>
    2ba6: a2 00        	ldx	#$0
    2ba8: 86 42        	stx	$42                     ; 0x2042 <printf+0xd>
    2baa: 4c ae 20     	jmp	$20ae <printf+0x79>
    2bad: e4 46        	cpx	$46                     ; 0x2046 <printf+0x11>
    2baf: a6 3e        	ldx	$3e                     ; 0x203e <printf+0x9>
    2bb1: b0 03        	bcs	$2bb6 <printf+0xb81>
    2bb3: 4c da 26     	jmp	$26da <printf+0x6a5>
    2bb6: a5 3d        	lda	$3d                     ; 0x203d <printf+0x8>
    2bb8: 85 45        	sta	$45                     ; 0x2045 <printf+0x10>
    2bba: 64 46        	stz	$46                     ; 0x2046 <printf+0x11>
    2bbc: e6 45        	inc	$45                     ; 0x2045 <printf+0x10>
    2bbe: f0 03        	beq	$2bc3 <printf+0xb8e>
    2bc0: 4c da 26     	jmp	$26da <printf+0x6a5>
    2bc3: e6 46        	inc	$46                     ; 0x2046 <printf+0x11>
    2bc5: 4c da 26     	jmp	$26da <printf+0x6a5>
    2bc8: a2 58        	ldx	#$58
    2bca: 86 87        	stx	$87                     ; 0x2087 <printf+0x52>
    2bcc: a2 01        	ldx	#$1
    2bce: 86 82        	stx	$82                     ; 0x2082 <printf+0x4d>
    2bd0: a2 30        	ldx	#$30
    2bd2: 86 84        	stx	$84                     ; 0x2084 <printf+0x4f>
    2bd4: a9 02        	lda	#$2
    2bd6: a2 00        	ldx	#$0
    2bd8: 86 83        	stx	$83                     ; 0x2083 <printf+0x4e>
    2bda: 4c 1b 27     	jmp	$271b <printf+0x6e6>
    2bdd: 64 48        	stz	$48                     ; 0x2048 <printf+0x13>
    2bdf: 64 47        	stz	$47                     ; 0x2047 <printf+0x12>
    2be1: 4c 3f 29     	jmp	$293f <printf+0x90a>
    2be4: 60           	rts

00002be5 <puts>:
    2be5: a9 49        	lda	#$49
    2be7: a2 01        	ldx	#$1
    2be9: 86 3d        	stx	$3d                     ; 0x203d <printf+0x8>
    2beb: 20 c7 1c     	jsr	$1cc7 <__putchar>
    2bee: a6 3d        	ldx	$3d                     ; 0x203d <printf+0x8>
    2bf0: bd 97 30     	lda	$3097,x                 ; 0x3097 <textColors+0x72>
    2bf3: e8           	inx
    2bf4: e0 35        	cpx	#$35
    2bf6: d0 f1        	bne	$2be9 <puts+0x4>
    2bf8: a9 0a        	lda	#$a
    2bfa: 4c c7 1c     	jmp	$1cc7 <__putchar>

00002bfd <malloc>:
    2bfd: a8           	tay
    2bfe: 8a           	txa
    2bff: a2 00        	ldx	#$0
    2c01: 86 12        	stx	$12                     ; 0x2012 <_ZN12_GLOBAL__N_112print_stringEPKcP6Status+0xea>
    2c03: a2 00        	ldx	#$0
    2c05: 86 13        	stx	$13                     ; 0x2013 <_ZN12_GLOBAL__N_112print_stringEPKcP6Status+0xeb>
    2c07: aa           	tax
    2c08: d0 07        	bne	$2c11 <malloc+0x14>
    2c0a: c0 00        	cpy	#$0
    2c0c: d0 03        	bne	$2c11 <malloc+0x14>
    2c0e: 4c 03 2d     	jmp	$2d03 <malloc+0x106>
    2c11: 84 16        	sty	$16                     ; 0x2016 <_ZN12_GLOBAL__N_112print_stringEPKcP6Status+0xee>
    2c13: aa           	tax
    2c14: d0 0e        	bne	$2c24 <malloc+0x27>
    2c16: a6 16        	ldx	$16                     ; 0x2016 <_ZN12_GLOBAL__N_112print_stringEPKcP6Status+0xee>
    2c18: e0 07        	cpx	#$7
    2c1a: b0 0c        	bcs	$2c28 <malloc+0x2b>
    2c1c: a2 08        	ldx	#$8
    2c1e: 86 3e        	stx	$3e                     ; 0x203e <printf+0x9>
    2c20: a9 00        	lda	#$0
    2c22: 80 2f        	bra	$2c53 <malloc+0x56>
    2c24: c9 00        	cmp	#$0
    2c26: 90 f4        	bcc	$2c1c <malloc+0x1f>
    2c28: a8           	tay
    2c29: a5 16        	lda	$16                     ; 0x2016 <_ZN12_GLOBAL__N_112print_stringEPKcP6Status+0xee>
    2c2b: 29 01        	and	#$1
    2c2d: a2 02        	ldx	#$2
    2c2f: 64 14        	stz	$14                     ; 0x2014 <_ZN12_GLOBAL__N_112print_stringEPKcP6Status+0xec>
    2c31: c9 00        	cmp	#$0
    2c33: f0 02        	beq	$2c37 <malloc+0x3a>
    2c35: a2 03        	ldx	#$3
    2c37: 86 15        	stx	$15                     ; 0x2015 <_ZN12_GLOBAL__N_112print_stringEPKcP6Status+0xed>
    2c39: 18           	clc
    2c3a: a5 16        	lda	$16                     ; 0x2016 <_ZN12_GLOBAL__N_112print_stringEPKcP6Status+0xee>
    2c3c: 65 15        	adc	$15                     ; 0x2015 <_ZN12_GLOBAL__N_112print_stringEPKcP6Status+0xed>
    2c3e: aa           	tax
    2c3f: 98           	tya
    2c40: 65 14        	adc	$14                     ; 0x2014 <_ZN12_GLOBAL__N_112print_stringEPKcP6Status+0xec>
    2c42: 90 03        	bcc	$2c47 <malloc+0x4a>
    2c44: 4c 03 2d     	jmp	$2d03 <malloc+0x106>
    2c47: 86 3e        	stx	$3e                     ; 0x203e <printf+0x9>
    2c49: a8           	tay
    2c4a: d0 07        	bne	$2c53 <malloc+0x56>
    2c4c: e0 00        	cpx	#$0
    2c4e: d0 03        	bne	$2c53 <malloc+0x56>
    2c50: 4c 03 2d     	jmp	$2d03 <malloc+0x106>
    2c53: 85 3d        	sta	$3d                     ; 0x203d <printf+0x8>
    2c55: ad df 5d     	lda	$5ddf                   ; 0x5ddf <_ZN12_GLOBAL__N_111initializedE>
    2c58: 29 01        	and	#$1
    2c5a: d0 2d        	bne	$2c89 <malloc+0x8c>
    2c5c: a9 00        	lda	#$0
    2c5e: a2 10        	ldx	#$10
    2c60: a0 e6        	ldy	#$e6
    2c62: 84 12        	sty	$12                     ; 0x2012 <_ZN12_GLOBAL__N_112print_stringEPKcP6Status+0xea>
    2c64: a0 5d        	ldy	#$5d
    2c66: 84 13        	sty	$13                     ; 0x2013 <_ZN12_GLOBAL__N_112print_stringEPKcP6Status+0xeb>
    2c68: 20 16 03     	jsr	$316 <_ZN12_GLOBAL__N_19FreeChunk6insertEPvj>
    2c6b: a2 00        	ldx	#$0
    2c6d: 86 12        	stx	$12                     ; 0x2012 <_ZN12_GLOBAL__N_112print_stringEPKcP6Status+0xea>
    2c6f: a2 00        	ldx	#$0
    2c71: 86 13        	stx	$13                     ; 0x2013 <_ZN12_GLOBAL__N_112print_stringEPKcP6Status+0xeb>
    2c73: ae e7 5d     	ldx	$5de7                   ; 0x5de7 <__heap_start+0x1>
    2c76: a9 fe        	lda	#$fe
    2c78: 2d e6 5d     	and	$5de6                   ; 0x5de6 <__heap_start>
    2c7b: 8d e6 5d     	sta	$5de6                   ; 0x5de6 <__heap_start>
    2c7e: 8e e7 5d     	stx	$5de7                   ; 0x5de7 <__heap_start+0x1>
    2c81: a2 01        	ldx	#$1
    2c83: 8e e0 5d     	stx	$5de0                   ; 0x5de0 <_ZN12_GLOBAL__N_19last_freeE>
    2c86: 8e df 5d     	stx	$5ddf                   ; 0x5ddf <_ZN12_GLOBAL__N_111initializedE>
    2c89: ae e3 5d     	ldx	$5de3                   ; 0x5de3 <_ZN12_GLOBAL__N_19free_listE>
    2c8c: 86 16        	stx	$16                     ; 0x2016 <_ZN12_GLOBAL__N_112print_stringEPKcP6Status+0xee>
    2c8e: ac e4 5d     	ldy	$5de4                   ; 0x5de4 <_ZN12_GLOBAL__N_19free_listE+0x1>
    2c91: 84 17        	sty	$17                     ; 0x2017 <_ZN12_GLOBAL__N_112print_stringEPKcP6Status+0xef>
    2c93: a9 00        	lda	#$0
    2c95: 85 14        	sta	$14                     ; 0x2014 <_ZN12_GLOBAL__N_112print_stringEPKcP6Status+0xec>
    2c97: a9 00        	lda	#$0
    2c99: 85 15        	sta	$15                     ; 0x2015 <_ZN12_GLOBAL__N_112print_stringEPKcP6Status+0xed>
    2c9b: c4 15        	cpy	$15                     ; 0x2015 <_ZN12_GLOBAL__N_112print_stringEPKcP6Status+0xed>
    2c9d: d0 07        	bne	$2ca6 <malloc+0xa9>
    2c9f: e4 14        	cpx	$14                     ; 0x2014 <_ZN12_GLOBAL__N_112print_stringEPKcP6Status+0xec>
    2ca1: d0 03        	bne	$2ca6 <malloc+0xa9>
    2ca3: 4c 03 2d     	jmp	$2d03 <malloc+0x106>
    2ca6: a2 00        	ldx	#$0
    2ca8: a0 10        	ldy	#$10
    2caa: 86 14        	stx	$14                     ; 0x2014 <_ZN12_GLOBAL__N_112print_stringEPKcP6Status+0xec>
    2cac: 84 15        	sty	$15                     ; 0x2015 <_ZN12_GLOBAL__N_112print_stringEPKcP6Status+0xed>
    2cae: 18           	clc
    2caf: a9 e6        	lda	#$e6
    2cb1: 65 14        	adc	$14                     ; 0x2014 <_ZN12_GLOBAL__N_112print_stringEPKcP6Status+0xec>
    2cb3: 85 18        	sta	$18                     ; 0x2018 <_ZN12_GLOBAL__N_112print_stringEPKcP6Status+0xf0>
    2cb5: a9 5d        	lda	#$5d
    2cb7: 65 15        	adc	$15                     ; 0x2015 <_ZN12_GLOBAL__N_112print_stringEPKcP6Status+0xed>
    2cb9: 85 41        	sta	$41                     ; 0x2041 <printf+0xc>
    2cbb: a0 01        	ldy	#$1
    2cbd: a6 3d        	ldx	$3d                     ; 0x203d <printf+0x8>
    2cbf: 86 19        	stx	$19                     ; 0x2019 <_ZN12_GLOBAL__N_112print_stringEPKcP6Status+0xf1>
    2cc1: a6 16        	ldx	$16                     ; 0x2016 <_ZN12_GLOBAL__N_112print_stringEPKcP6Status+0xee>
    2cc3: 86 14        	stx	$14                     ; 0x2014 <_ZN12_GLOBAL__N_112print_stringEPKcP6Status+0xec>
    2cc5: a6 17        	ldx	$17                     ; 0x2017 <_ZN12_GLOBAL__N_112print_stringEPKcP6Status+0xef>
    2cc7: 86 15        	stx	$15                     ; 0x2015 <_ZN12_GLOBAL__N_112print_stringEPKcP6Status+0xed>
    2cc9: b1 14        	lda	($14),y                 ; 0x2014 <_ZN12_GLOBAL__N_112print_stringEPKcP6Status+0xec>
    2ccb: c5 19        	cmp	$19                     ; 0x2019 <_ZN12_GLOBAL__N_112print_stringEPKcP6Status+0xf1>
    2ccd: d0 0e        	bne	$2cdd <malloc+0xe0>
    2ccf: b2 14        	lda	($14)                   ; 0x2014 <_ZN12_GLOBAL__N_112print_stringEPKcP6Status+0xec>
    2cd1: 29 fe        	and	#$fe
    2cd3: a6 3e        	ldx	$3e                     ; 0x203e <printf+0x9>
    2cd5: 86 1a        	stx	$1a                     ; 0x201a <_ZN12_GLOBAL__N_112print_stringEPKcP6Status+0xf2>
    2cd7: c5 1a        	cmp	$1a                     ; 0x201a <_ZN12_GLOBAL__N_112print_stringEPKcP6Status+0xf2>
    2cd9: b0 29        	bcs	$2d04 <malloc+0x107>
    2cdb: 80 04        	bra	$2ce1 <malloc+0xe4>
    2cdd: c5 19        	cmp	$19                     ; 0x2019 <_ZN12_GLOBAL__N_112print_stringEPKcP6Status+0xf1>
    2cdf: b0 23        	bcs	$2d04 <malloc+0x107>
    2ce1: a5 14        	lda	$14                     ; 0x2014 <_ZN12_GLOBAL__N_112print_stringEPKcP6Status+0xec>
    2ce3: 18           	clc
    2ce4: 69 02        	adc	#$2
    2ce6: 85 1a        	sta	$1a                     ; 0x201a <_ZN12_GLOBAL__N_112print_stringEPKcP6Status+0xf2>
    2ce8: a5 15        	lda	$15                     ; 0x2015 <_ZN12_GLOBAL__N_112print_stringEPKcP6Status+0xed>
    2cea: 69 00        	adc	#$0
    2cec: 85 1b        	sta	$1b                     ; 0x201b <_ZN12_GLOBAL__N_112print_stringEPKcP6Status+0xf3>
    2cee: a0 02        	ldy	#$2
    2cf0: b1 14        	lda	($14),y                 ; 0x2014 <_ZN12_GLOBAL__N_112print_stringEPKcP6Status+0xec>
    2cf2: 85 14        	sta	$14                     ; 0x2014 <_ZN12_GLOBAL__N_112print_stringEPKcP6Status+0xec>
    2cf4: 88           	dey
    2cf5: b1 1a        	lda	($1a),y                 ; 0x201a <_ZN12_GLOBAL__N_112print_stringEPKcP6Status+0xf2>
    2cf7: 85 15        	sta	$15                     ; 0x2015 <_ZN12_GLOBAL__N_112print_stringEPKcP6Status+0xed>
    2cf9: c5 17        	cmp	$17                     ; 0x2017 <_ZN12_GLOBAL__N_112print_stringEPKcP6Status+0xef>
    2cfb: d0 cc        	bne	$2cc9 <malloc+0xcc>
    2cfd: a5 14        	lda	$14                     ; 0x2014 <_ZN12_GLOBAL__N_112print_stringEPKcP6Status+0xec>
    2cff: c5 16        	cmp	$16                     ; 0x2016 <_ZN12_GLOBAL__N_112print_stringEPKcP6Status+0xee>
    2d01: d0 c6        	bne	$2cc9 <malloc+0xcc>
    2d03: 60           	rts
    2d04: a6 18        	ldx	$18                     ; 0x2018 <_ZN12_GLOBAL__N_112print_stringEPKcP6Status+0xf0>
    2d06: 86 42        	stx	$42                     ; 0x2042 <printf+0xd>
    2d08: a6 14        	ldx	$14                     ; 0x2014 <_ZN12_GLOBAL__N_112print_stringEPKcP6Status+0xec>
    2d0a: 86 12        	stx	$12                     ; 0x2012 <_ZN12_GLOBAL__N_112print_stringEPKcP6Status+0xea>
    2d0c: a6 15        	ldx	$15                     ; 0x2015 <_ZN12_GLOBAL__N_112print_stringEPKcP6Status+0xed>
    2d0e: 86 13        	stx	$13                     ; 0x2013 <_ZN12_GLOBAL__N_112print_stringEPKcP6Status+0xeb>
    2d10: a6 14        	ldx	$14                     ; 0x2014 <_ZN12_GLOBAL__N_112print_stringEPKcP6Status+0xec>
    2d12: 86 3f        	stx	$3f                     ; 0x203f <printf+0xa>
    2d14: a6 15        	ldx	$15                     ; 0x2015 <_ZN12_GLOBAL__N_112print_stringEPKcP6Status+0xed>
    2d16: 86 40        	stx	$40                     ; 0x2040 <printf+0xb>
    2d18: 20 50 04     	jsr	$450 <_ZN12_GLOBAL__N_19FreeChunk6removeEv>
    2d1b: a6 3f        	ldx	$3f                     ; 0x203f <printf+0xa>
    2d1d: 86 12        	stx	$12                     ; 0x2012 <_ZN12_GLOBAL__N_112print_stringEPKcP6Status+0xea>
    2d1f: a6 40        	ldx	$40                     ; 0x2040 <printf+0xb>
    2d21: 86 13        	stx	$13                     ; 0x2013 <_ZN12_GLOBAL__N_112print_stringEPKcP6Status+0xeb>
    2d23: a0 01        	ldy	#$1
    2d25: b1 12        	lda	($12),y                 ; 0x2012 <_ZN12_GLOBAL__N_112print_stringEPKcP6Status+0xea>
    2d27: 85 15        	sta	$15                     ; 0x2015 <_ZN12_GLOBAL__N_112print_stringEPKcP6Status+0xed>
    2d29: a9 fe        	lda	#$fe
    2d2b: 32 12        	and	($12)                   ; 0x2012 <_ZN12_GLOBAL__N_112print_stringEPKcP6Status+0xea>
    2d2d: 38           	sec
    2d2e: a6 3e        	ldx	$3e                     ; 0x203e <printf+0x9>
    2d30: 86 14        	stx	$14                     ; 0x2014 <_ZN12_GLOBAL__N_112print_stringEPKcP6Status+0xec>
    2d32: 85 17        	sta	$17                     ; 0x2017 <_ZN12_GLOBAL__N_112print_stringEPKcP6Status+0xef>
    2d34: e5 14        	sbc	$14                     ; 0x2014 <_ZN12_GLOBAL__N_112print_stringEPKcP6Status+0xec>
    2d36: a8           	tay
    2d37: a6 3d        	ldx	$3d                     ; 0x203d <printf+0x8>
    2d39: 86 14        	stx	$14                     ; 0x2014 <_ZN12_GLOBAL__N_112print_stringEPKcP6Status+0xec>
    2d3b: a5 15        	lda	$15                     ; 0x2015 <_ZN12_GLOBAL__N_112print_stringEPKcP6Status+0xed>
    2d3d: 85 16        	sta	$16                     ; 0x2016 <_ZN12_GLOBAL__N_112print_stringEPKcP6Status+0xee>
    2d3f: e5 14        	sbc	$14                     ; 0x2014 <_ZN12_GLOBAL__N_112print_stringEPKcP6Status+0xec>
    2d41: d0 06        	bne	$2d49 <malloc+0x14c>
    2d43: 85 18        	sta	$18                     ; 0x2018 <_ZN12_GLOBAL__N_112print_stringEPKcP6Status+0xf0>
    2d45: c0 08        	cpy	#$8
    2d47: 80 04        	bra	$2d4d <malloc+0x150>
    2d49: 85 18        	sta	$18                     ; 0x2018 <_ZN12_GLOBAL__N_112print_stringEPKcP6Status+0xf0>
    2d4b: c9 00        	cmp	#$0
    2d4d: a6 42        	ldx	$42                     ; 0x2042 <printf+0xd>
    2d4f: 86 14        	stx	$14                     ; 0x2014 <_ZN12_GLOBAL__N_112print_stringEPKcP6Status+0xec>
    2d51: a6 41        	ldx	$41                     ; 0x2041 <printf+0xc>
    2d53: 86 15        	stx	$15                     ; 0x2015 <_ZN12_GLOBAL__N_112print_stringEPKcP6Status+0xed>
    2d55: a5 17        	lda	$17                     ; 0x2017 <_ZN12_GLOBAL__N_112print_stringEPKcP6Status+0xef>
    2d57: 90 43        	bcc	$2d9c <malloc+0x19f>
    2d59: 18           	clc
    2d5a: a6 3e        	ldx	$3e                     ; 0x203e <printf+0x9>
    2d5c: 86 3e        	stx	$3e                     ; 0x203e <printf+0x9>
    2d5e: 8a           	txa
    2d5f: 65 12        	adc	$12                     ; 0x2012 <_ZN12_GLOBAL__N_112print_stringEPKcP6Status+0xea>
    2d61: 85 12        	sta	$12                     ; 0x2012 <_ZN12_GLOBAL__N_112print_stringEPKcP6Status+0xea>
    2d63: a6 3d        	ldx	$3d                     ; 0x203d <printf+0x8>
    2d65: 86 3d        	stx	$3d                     ; 0x203d <printf+0x8>
    2d67: a5 3d        	lda	$3d                     ; 0x203d <printf+0x8>
    2d69: 65 13        	adc	$13                     ; 0x2013 <_ZN12_GLOBAL__N_112print_stringEPKcP6Status+0xeb>
    2d6b: 85 13        	sta	$13                     ; 0x2013 <_ZN12_GLOBAL__N_112print_stringEPKcP6Status+0xeb>
    2d6d: a6 18        	ldx	$18                     ; 0x2018 <_ZN12_GLOBAL__N_112print_stringEPKcP6Status+0xf0>
    2d6f: 98           	tya
    2d70: 20 16 03     	jsr	$316 <_ZN12_GLOBAL__N_19FreeChunk6insertEPvj>
    2d73: a6 3f        	ldx	$3f                     ; 0x203f <printf+0xa>
    2d75: 86 12        	stx	$12                     ; 0x2012 <_ZN12_GLOBAL__N_112print_stringEPKcP6Status+0xea>
    2d77: a6 40        	ldx	$40                     ; 0x2040 <printf+0xb>
    2d79: 86 13        	stx	$13                     ; 0x2013 <_ZN12_GLOBAL__N_112print_stringEPKcP6Status+0xeb>
    2d7b: a5 3e        	lda	$3e                     ; 0x203e <printf+0x9>
    2d7d: 29 fe        	and	#$fe
    2d7f: 85 14        	sta	$14                     ; 0x2014 <_ZN12_GLOBAL__N_112print_stringEPKcP6Status+0xec>
    2d81: a0 01        	ldy	#$1
    2d83: 98           	tya
    2d84: 32 12        	and	($12)                   ; 0x2012 <_ZN12_GLOBAL__N_112print_stringEPKcP6Status+0xea>
    2d86: 05 14        	ora	$14                     ; 0x2014 <_ZN12_GLOBAL__N_112print_stringEPKcP6Status+0xec>
    2d88: 92 12        	sta	($12)                   ; 0x2012 <_ZN12_GLOBAL__N_112print_stringEPKcP6Status+0xea>
    2d8a: a5 3d        	lda	$3d                     ; 0x203d <printf+0x8>
    2d8c: 91 12        	sta	($12),y                 ; 0x2012 <_ZN12_GLOBAL__N_112print_stringEPKcP6Status+0xea>
    2d8e: a5 14        	lda	$14                     ; 0x2014 <_ZN12_GLOBAL__N_112print_stringEPKcP6Status+0xec>
    2d90: a6 3d        	ldx	$3d                     ; 0x203d <printf+0x8>
    2d92: 86 16        	stx	$16                     ; 0x2016 <_ZN12_GLOBAL__N_112print_stringEPKcP6Status+0xee>
    2d94: a6 42        	ldx	$42                     ; 0x2042 <printf+0xd>
    2d96: 86 14        	stx	$14                     ; 0x2014 <_ZN12_GLOBAL__N_112print_stringEPKcP6Status+0xec>
    2d98: a6 41        	ldx	$41                     ; 0x2041 <printf+0xc>
    2d9a: 86 15        	stx	$15                     ; 0x2015 <_ZN12_GLOBAL__N_112print_stringEPKcP6Status+0xed>
    2d9c: 18           	clc
    2d9d: 65 12        	adc	$12                     ; 0x2012 <_ZN12_GLOBAL__N_112print_stringEPKcP6Status+0xea>
    2d9f: a8           	tay
    2da0: a5 16        	lda	$16                     ; 0x2016 <_ZN12_GLOBAL__N_112print_stringEPKcP6Status+0xee>
    2da2: 65 13        	adc	$13                     ; 0x2013 <_ZN12_GLOBAL__N_112print_stringEPKcP6Status+0xeb>
    2da4: c5 15        	cmp	$15                     ; 0x2015 <_ZN12_GLOBAL__N_112print_stringEPKcP6Status+0xed>
    2da6: d0 09        	bne	$2db1 <malloc+0x1b4>
    2da8: c4 14        	cpy	$14                     ; 0x2014 <_ZN12_GLOBAL__N_112print_stringEPKcP6Status+0xec>
    2daa: d0 05        	bne	$2db1 <malloc+0x1b4>
    2dac: 9c e0 5d     	stz	$5de0                   ; 0x5de0 <_ZN12_GLOBAL__N_19last_freeE>
    2daf: 80 14        	bra	$2dc5 <malloc+0x1c8>
    2db1: 84 14        	sty	$14                     ; 0x2014 <_ZN12_GLOBAL__N_112print_stringEPKcP6Status+0xec>
    2db3: 85 15        	sta	$15                     ; 0x2015 <_ZN12_GLOBAL__N_112print_stringEPKcP6Status+0xed>
    2db5: a0 01        	ldy	#$1
    2db7: b1 14        	lda	($14),y                 ; 0x2014 <_ZN12_GLOBAL__N_112print_stringEPKcP6Status+0xec>
    2db9: 85 16        	sta	$16                     ; 0x2016 <_ZN12_GLOBAL__N_112print_stringEPKcP6Status+0xee>
    2dbb: a9 fe        	lda	#$fe
    2dbd: 32 14        	and	($14)                   ; 0x2014 <_ZN12_GLOBAL__N_112print_stringEPKcP6Status+0xec>
    2dbf: 92 14        	sta	($14)                   ; 0x2014 <_ZN12_GLOBAL__N_112print_stringEPKcP6Status+0xec>
    2dc1: a5 16        	lda	$16                     ; 0x2016 <_ZN12_GLOBAL__N_112print_stringEPKcP6Status+0xee>
    2dc3: 91 14        	sta	($14),y                 ; 0x2014 <_ZN12_GLOBAL__N_112print_stringEPKcP6Status+0xec>
    2dc5: a5 12        	lda	$12                     ; 0x2012 <_ZN12_GLOBAL__N_112print_stringEPKcP6Status+0xea>
    2dc7: 18           	clc
    2dc8: 69 02        	adc	#$2
    2dca: 85 12        	sta	$12                     ; 0x2012 <_ZN12_GLOBAL__N_112print_stringEPKcP6Status+0xea>
    2dcc: a5 13        	lda	$13                     ; 0x2013 <_ZN12_GLOBAL__N_112print_stringEPKcP6Status+0xeb>
    2dce: 69 00        	adc	#$0
    2dd0: 85 13        	sta	$13                     ; 0x2013 <_ZN12_GLOBAL__N_112print_stringEPKcP6Status+0xeb>
    2dd2: 60           	rts

00002dd3 <free>:
    2dd3: a6 12        	ldx	$12                     ; 0x2012 <_ZN12_GLOBAL__N_112print_stringEPKcP6Status+0xea>
    2dd5: 86 14        	stx	$14                     ; 0x2014 <_ZN12_GLOBAL__N_112print_stringEPKcP6Status+0xec>
    2dd7: a6 13        	ldx	$13                     ; 0x2013 <_ZN12_GLOBAL__N_112print_stringEPKcP6Status+0xeb>
    2dd9: 86 15        	stx	$15                     ; 0x2015 <_ZN12_GLOBAL__N_112print_stringEPKcP6Status+0xed>
    2ddb: a2 00        	ldx	#$0
    2ddd: 86 12        	stx	$12                     ; 0x2012 <_ZN12_GLOBAL__N_112print_stringEPKcP6Status+0xea>
    2ddf: a2 00        	ldx	#$0
    2de1: 86 13        	stx	$13                     ; 0x2013 <_ZN12_GLOBAL__N_112print_stringEPKcP6Status+0xeb>
    2de3: a6 15        	ldx	$15                     ; 0x2015 <_ZN12_GLOBAL__N_112print_stringEPKcP6Status+0xed>
    2de5: e4 13        	cpx	$13                     ; 0x2013 <_ZN12_GLOBAL__N_112print_stringEPKcP6Status+0xeb>
    2de7: d0 09        	bne	$2df2 <free+0x1f>
    2de9: a6 14        	ldx	$14                     ; 0x2014 <_ZN12_GLOBAL__N_112print_stringEPKcP6Status+0xec>
    2deb: e4 12        	cpx	$12                     ; 0x2012 <_ZN12_GLOBAL__N_112print_stringEPKcP6Status+0xea>
    2ded: d0 03        	bne	$2df2 <free+0x1f>
    2def: 4c 56 2f     	jmp	$2f56 <free+0x183>
    2df2: a2 00        	ldx	#$0
    2df4: a0 10        	ldy	#$10
    2df6: a9 e6        	lda	#$e6
    2df8: 86 12        	stx	$12                     ; 0x2012 <_ZN12_GLOBAL__N_112print_stringEPKcP6Status+0xea>
    2dfa: 84 13        	sty	$13                     ; 0x2013 <_ZN12_GLOBAL__N_112print_stringEPKcP6Status+0xeb>
    2dfc: 18           	clc
    2dfd: 65 12        	adc	$12                     ; 0x2012 <_ZN12_GLOBAL__N_112print_stringEPKcP6Status+0xea>
    2dff: 85 18        	sta	$18                     ; 0x2018 <_ZN12_GLOBAL__N_112print_stringEPKcP6Status+0xf0>
    2e01: a9 5d        	lda	#$5d
    2e03: 65 13        	adc	$13                     ; 0x2013 <_ZN12_GLOBAL__N_112print_stringEPKcP6Status+0xeb>
    2e05: 85 19        	sta	$19                     ; 0x2019 <_ZN12_GLOBAL__N_112print_stringEPKcP6Status+0xf1>
    2e07: a5 14        	lda	$14                     ; 0x2014 <_ZN12_GLOBAL__N_112print_stringEPKcP6Status+0xec>
    2e09: 18           	clc
    2e0a: 69 fe        	adc	#$fe
    2e0c: 85 12        	sta	$12                     ; 0x2012 <_ZN12_GLOBAL__N_112print_stringEPKcP6Status+0xea>
    2e0e: a5 15        	lda	$15                     ; 0x2015 <_ZN12_GLOBAL__N_112print_stringEPKcP6Status+0xed>
    2e10: 69 ff        	adc	#$ff
    2e12: a6 12        	ldx	$12                     ; 0x2012 <_ZN12_GLOBAL__N_112print_stringEPKcP6Status+0xea>
    2e14: 86 41        	stx	$41                     ; 0x2041 <printf+0xc>
    2e16: aa           	tax
    2e17: 85 42        	sta	$42                     ; 0x2042 <printf+0xd>
    2e19: b2 41        	lda	($41)                   ; 0x2041 <printf+0xc>
    2e1b: 85 1a        	sta	$1a                     ; 0x201a <_ZN12_GLOBAL__N_112print_stringEPKcP6Status+0xf2>
    2e1d: a0 01        	ldy	#$1
    2e1f: b1 41        	lda	($41),y                 ; 0x2041 <printf+0xc>
    2e21: 85 16        	sta	$16                     ; 0x2016 <_ZN12_GLOBAL__N_112print_stringEPKcP6Status+0xee>
    2e23: a9 fe        	lda	#$fe
    2e25: 32 41        	and	($41)                   ; 0x2041 <printf+0xc>
    2e27: 85 17        	sta	$17                     ; 0x2017 <_ZN12_GLOBAL__N_112print_stringEPKcP6Status+0xef>
    2e29: a4 12        	ldy	$12                     ; 0x2012 <_ZN12_GLOBAL__N_112print_stringEPKcP6Status+0xea>
    2e2b: 84 1b        	sty	$1b                     ; 0x201b <_ZN12_GLOBAL__N_112print_stringEPKcP6Status+0xf3>
    2e2d: a5 12        	lda	$12                     ; 0x2012 <_ZN12_GLOBAL__N_112print_stringEPKcP6Status+0xea>
    2e2f: 18           	clc
    2e30: 65 17        	adc	$17                     ; 0x2017 <_ZN12_GLOBAL__N_112print_stringEPKcP6Status+0xef>
    2e32: 85 12        	sta	$12                     ; 0x2012 <_ZN12_GLOBAL__N_112print_stringEPKcP6Status+0xea>
    2e34: 8a           	txa
    2e35: 86 1c        	stx	$1c                     ; 0x201c <_ZN12_GLOBAL__N_112print_stringEPKcP6Status+0xf4>
    2e37: 65 16        	adc	$16                     ; 0x2016 <_ZN12_GLOBAL__N_112print_stringEPKcP6Status+0xee>
    2e39: c5 19        	cmp	$19                     ; 0x2019 <_ZN12_GLOBAL__N_112print_stringEPKcP6Status+0xf1>
    2e3b: d0 10        	bne	$2e4d <free+0x7a>
    2e3d: a6 12        	ldx	$12                     ; 0x2012 <_ZN12_GLOBAL__N_112print_stringEPKcP6Status+0xea>
    2e3f: e4 18        	cpx	$18                     ; 0x2018 <_ZN12_GLOBAL__N_112print_stringEPKcP6Status+0xf0>
    2e41: d0 0a        	bne	$2e4d <free+0x7a>
    2e43: a2 00        	ldx	#$0
    2e45: 86 12        	stx	$12                     ; 0x2012 <_ZN12_GLOBAL__N_112print_stringEPKcP6Status+0xea>
    2e47: a2 00        	ldx	#$0
    2e49: 86 13        	stx	$13                     ; 0x2013 <_ZN12_GLOBAL__N_112print_stringEPKcP6Status+0xeb>
    2e4b: 80 02        	bra	$2e4f <free+0x7c>
    2e4d: 85 13        	sta	$13                     ; 0x2013 <_ZN12_GLOBAL__N_112print_stringEPKcP6Status+0xeb>
    2e4f: a5 1a        	lda	$1a                     ; 0x201a <_ZN12_GLOBAL__N_112print_stringEPKcP6Status+0xf2>
    2e51: 29 01        	and	#$1
    2e53: d0 03        	bne	$2e58 <free+0x85>
    2e55: 4c d3 2e     	jmp	$2ed3 <free+0x100>
    2e58: a5 14        	lda	$14                     ; 0x2014 <_ZN12_GLOBAL__N_112print_stringEPKcP6Status+0xec>
    2e5a: 18           	clc
    2e5b: 69 fc        	adc	#$fc
    2e5d: 85 14        	sta	$14                     ; 0x2014 <_ZN12_GLOBAL__N_112print_stringEPKcP6Status+0xec>
    2e5f: a5 15        	lda	$15                     ; 0x2015 <_ZN12_GLOBAL__N_112print_stringEPKcP6Status+0xed>
    2e61: 69 ff        	adc	#$ff
    2e63: 85 15        	sta	$15                     ; 0x2015 <_ZN12_GLOBAL__N_112print_stringEPKcP6Status+0xed>
    2e65: a0 01        	ldy	#$1
    2e67: 38           	sec
    2e68: a9 00        	lda	#$0
    2e6a: f2 14        	sbc	($14)                   ; 0x2014 <_ZN12_GLOBAL__N_112print_stringEPKcP6Status+0xec>
    2e6c: 85 1a        	sta	$1a                     ; 0x201a <_ZN12_GLOBAL__N_112print_stringEPKcP6Status+0xf2>
    2e6e: a9 00        	lda	#$0
    2e70: f1 14        	sbc	($14),y                 ; 0x2014 <_ZN12_GLOBAL__N_112print_stringEPKcP6Status+0xec>
    2e72: 85 14        	sta	$14                     ; 0x2014 <_ZN12_GLOBAL__N_112print_stringEPKcP6Status+0xec>
    2e74: a5 1b        	lda	$1b                     ; 0x201b <_ZN12_GLOBAL__N_112print_stringEPKcP6Status+0xf3>
    2e76: 18           	clc
    2e77: 65 1a        	adc	$1a                     ; 0x201a <_ZN12_GLOBAL__N_112print_stringEPKcP6Status+0xf2>
    2e79: 85 41        	sta	$41                     ; 0x2041 <printf+0xc>
    2e7b: a5 1c        	lda	$1c                     ; 0x201c <_ZN12_GLOBAL__N_112print_stringEPKcP6Status+0xf4>
    2e7d: 65 14        	adc	$14                     ; 0x2014 <_ZN12_GLOBAL__N_112print_stringEPKcP6Status+0xec>
    2e7f: 85 42        	sta	$42                     ; 0x2042 <printf+0xd>
    2e81: b1 41        	lda	($41),y                 ; 0x2041 <printf+0xc>
    2e83: 85 49        	sta	$49                     ; 0x2049 <printf+0x14>
    2e85: a9 fe        	lda	#$fe
    2e87: 32 41        	and	($41)                   ; 0x2041 <printf+0xc>
    2e89: 85 4a        	sta	$4a                     ; 0x204a <printf+0x15>
    2e8b: a6 12        	ldx	$12                     ; 0x2012 <_ZN12_GLOBAL__N_112print_stringEPKcP6Status+0xea>
    2e8d: 86 43        	stx	$43                     ; 0x2043 <printf+0xe>
    2e8f: a6 13        	ldx	$13                     ; 0x2013 <_ZN12_GLOBAL__N_112print_stringEPKcP6Status+0xeb>
    2e91: 86 44        	stx	$44                     ; 0x2044 <printf+0xf>
    2e93: a6 41        	ldx	$41                     ; 0x2041 <printf+0xc>
    2e95: 86 12        	stx	$12                     ; 0x2012 <_ZN12_GLOBAL__N_112print_stringEPKcP6Status+0xea>
    2e97: a6 42        	ldx	$42                     ; 0x2042 <printf+0xd>
    2e99: 86 13        	stx	$13                     ; 0x2013 <_ZN12_GLOBAL__N_112print_stringEPKcP6Status+0xeb>
    2e9b: a6 16        	ldx	$16                     ; 0x2016 <_ZN12_GLOBAL__N_112print_stringEPKcP6Status+0xee>
    2e9d: 86 45        	stx	$45                     ; 0x2045 <printf+0x10>
    2e9f: a6 17        	ldx	$17                     ; 0x2017 <_ZN12_GLOBAL__N_112print_stringEPKcP6Status+0xef>
    2ea1: 86 46        	stx	$46                     ; 0x2046 <printf+0x11>
    2ea3: a6 18        	ldx	$18                     ; 0x2018 <_ZN12_GLOBAL__N_112print_stringEPKcP6Status+0xf0>
    2ea5: 86 47        	stx	$47                     ; 0x2047 <printf+0x12>
    2ea7: a6 19        	ldx	$19                     ; 0x2019 <_ZN12_GLOBAL__N_112print_stringEPKcP6Status+0xf1>
    2ea9: 86 48        	stx	$48                     ; 0x2048 <printf+0x13>
    2eab: 20 50 04     	jsr	$450 <_ZN12_GLOBAL__N_19FreeChunk6removeEv>
    2eae: a6 48        	ldx	$48                     ; 0x2048 <printf+0x13>
    2eb0: 86 19        	stx	$19                     ; 0x2019 <_ZN12_GLOBAL__N_112print_stringEPKcP6Status+0xf1>
    2eb2: a6 47        	ldx	$47                     ; 0x2047 <printf+0x12>
    2eb4: 86 18        	stx	$18                     ; 0x2018 <_ZN12_GLOBAL__N_112print_stringEPKcP6Status+0xf0>
    2eb6: a6 43        	ldx	$43                     ; 0x2043 <printf+0xe>
    2eb8: 86 12        	stx	$12                     ; 0x2012 <_ZN12_GLOBAL__N_112print_stringEPKcP6Status+0xea>
    2eba: a6 44        	ldx	$44                     ; 0x2044 <printf+0xf>
    2ebc: 86 13        	stx	$13                     ; 0x2013 <_ZN12_GLOBAL__N_112print_stringEPKcP6Status+0xeb>
    2ebe: 18           	clc
    2ebf: a5 4a        	lda	$4a                     ; 0x204a <printf+0x15>
    2ec1: a6 46        	ldx	$46                     ; 0x2046 <printf+0x11>
    2ec3: 86 14        	stx	$14                     ; 0x2014 <_ZN12_GLOBAL__N_112print_stringEPKcP6Status+0xec>
    2ec5: 65 14        	adc	$14                     ; 0x2014 <_ZN12_GLOBAL__N_112print_stringEPKcP6Status+0xec>
    2ec7: 85 17        	sta	$17                     ; 0x2017 <_ZN12_GLOBAL__N_112print_stringEPKcP6Status+0xef>
    2ec9: a5 49        	lda	$49                     ; 0x2049 <printf+0x14>
    2ecb: a6 45        	ldx	$45                     ; 0x2045 <printf+0x10>
    2ecd: 86 14        	stx	$14                     ; 0x2014 <_ZN12_GLOBAL__N_112print_stringEPKcP6Status+0xec>
    2ecf: 65 14        	adc	$14                     ; 0x2014 <_ZN12_GLOBAL__N_112print_stringEPKcP6Status+0xec>
    2ed1: 85 16        	sta	$16                     ; 0x2016 <_ZN12_GLOBAL__N_112print_stringEPKcP6Status+0xee>
    2ed3: a2 00        	ldx	#$0
    2ed5: 86 14        	stx	$14                     ; 0x2014 <_ZN12_GLOBAL__N_112print_stringEPKcP6Status+0xec>
    2ed7: a2 00        	ldx	#$0
    2ed9: 86 15        	stx	$15                     ; 0x2015 <_ZN12_GLOBAL__N_112print_stringEPKcP6Status+0xed>
    2edb: a6 13        	ldx	$13                     ; 0x2013 <_ZN12_GLOBAL__N_112print_stringEPKcP6Status+0xeb>
    2edd: e4 15        	cpx	$15                     ; 0x2015 <_ZN12_GLOBAL__N_112print_stringEPKcP6Status+0xed>
    2edf: d0 0e        	bne	$2eef <free+0x11c>
    2ee1: a6 12        	ldx	$12                     ; 0x2012 <_ZN12_GLOBAL__N_112print_stringEPKcP6Status+0xea>
    2ee3: e4 14        	cpx	$14                     ; 0x2014 <_ZN12_GLOBAL__N_112print_stringEPKcP6Status+0xec>
    2ee5: d0 08        	bne	$2eef <free+0x11c>
    2ee7: a2 01        	ldx	#$1
    2ee9: 8e e0 5d     	stx	$5de0                   ; 0x5de0 <_ZN12_GLOBAL__N_19last_freeE>
    2eec: 4c 47 2f     	jmp	$2f47 <free+0x174>
    2eef: a0 01        	ldy	#$1
    2ef1: b1 12        	lda	($12),y                 ; 0x2012 <_ZN12_GLOBAL__N_112print_stringEPKcP6Status+0xea>
    2ef3: a8           	tay
    2ef4: a9 fe        	lda	#$fe
    2ef6: 32 12        	and	($12)                   ; 0x2012 <_ZN12_GLOBAL__N_112print_stringEPKcP6Status+0xea>
    2ef8: 18           	clc
    2ef9: 85 47        	sta	$47                     ; 0x2047 <printf+0x12>
    2efb: 65 12        	adc	$12                     ; 0x2012 <_ZN12_GLOBAL__N_112print_stringEPKcP6Status+0xea>
    2efd: 85 14        	sta	$14                     ; 0x2014 <_ZN12_GLOBAL__N_112print_stringEPKcP6Status+0xec>
    2eff: 98           	tya
    2f00: 85 43        	sta	$43                     ; 0x2043 <printf+0xe>
    2f02: 65 13        	adc	$13                     ; 0x2013 <_ZN12_GLOBAL__N_112print_stringEPKcP6Status+0xeb>
    2f04: c5 19        	cmp	$19                     ; 0x2019 <_ZN12_GLOBAL__N_112print_stringEPKcP6Status+0xf1>
    2f06: d0 0f        	bne	$2f17 <free+0x144>
    2f08: a6 14        	ldx	$14                     ; 0x2014 <_ZN12_GLOBAL__N_112print_stringEPKcP6Status+0xec>
    2f0a: e4 18        	cpx	$18                     ; 0x2018 <_ZN12_GLOBAL__N_112print_stringEPKcP6Status+0xf0>
    2f0c: d0 09        	bne	$2f17 <free+0x144>
    2f0e: a9 01        	lda	#$1
    2f10: 64 14        	stz	$14                     ; 0x2014 <_ZN12_GLOBAL__N_112print_stringEPKcP6Status+0xec>
    2f12: 2d e0 5d     	and	$5de0                   ; 0x5de0 <_ZN12_GLOBAL__N_19last_freeE>
    2f15: 80 08        	bra	$2f1f <free+0x14c>
    2f17: 85 15        	sta	$15                     ; 0x2015 <_ZN12_GLOBAL__N_112print_stringEPKcP6Status+0xed>
    2f19: a9 01        	lda	#$1
    2f1b: 32 14        	and	($14)                   ; 0x2014 <_ZN12_GLOBAL__N_112print_stringEPKcP6Status+0xec>
    2f1d: 64 14        	stz	$14                     ; 0x2014 <_ZN12_GLOBAL__N_112print_stringEPKcP6Status+0xec>
    2f1f: a6 14        	ldx	$14                     ; 0x2014 <_ZN12_GLOBAL__N_112print_stringEPKcP6Status+0xec>
    2f21: d0 03        	bne	$2f26 <free+0x153>
    2f23: aa           	tax
    2f24: f0 31        	beq	$2f57 <free+0x184>
    2f26: a6 16        	ldx	$16                     ; 0x2016 <_ZN12_GLOBAL__N_112print_stringEPKcP6Status+0xee>
    2f28: 86 45        	stx	$45                     ; 0x2045 <printf+0x10>
    2f2a: a6 17        	ldx	$17                     ; 0x2017 <_ZN12_GLOBAL__N_112print_stringEPKcP6Status+0xef>
    2f2c: 86 46        	stx	$46                     ; 0x2046 <printf+0x11>
    2f2e: 20 50 04     	jsr	$450 <_ZN12_GLOBAL__N_19FreeChunk6removeEv>
    2f31: 18           	clc
    2f32: a6 47        	ldx	$47                     ; 0x2047 <printf+0x12>
    2f34: 8a           	txa
    2f35: a6 46        	ldx	$46                     ; 0x2046 <printf+0x11>
    2f37: 86 12        	stx	$12                     ; 0x2012 <_ZN12_GLOBAL__N_112print_stringEPKcP6Status+0xea>
    2f39: 65 12        	adc	$12                     ; 0x2012 <_ZN12_GLOBAL__N_112print_stringEPKcP6Status+0xea>
    2f3b: 85 17        	sta	$17                     ; 0x2017 <_ZN12_GLOBAL__N_112print_stringEPKcP6Status+0xef>
    2f3d: a5 43        	lda	$43                     ; 0x2043 <printf+0xe>
    2f3f: a6 45        	ldx	$45                     ; 0x2045 <printf+0x10>
    2f41: 86 12        	stx	$12                     ; 0x2012 <_ZN12_GLOBAL__N_112print_stringEPKcP6Status+0xea>
    2f43: 65 12        	adc	$12                     ; 0x2012 <_ZN12_GLOBAL__N_112print_stringEPKcP6Status+0xea>
    2f45: 85 16        	sta	$16                     ; 0x2016 <_ZN12_GLOBAL__N_112print_stringEPKcP6Status+0xee>
    2f47: a6 41        	ldx	$41                     ; 0x2041 <printf+0xc>
    2f49: 86 12        	stx	$12                     ; 0x2012 <_ZN12_GLOBAL__N_112print_stringEPKcP6Status+0xea>
    2f4b: a6 42        	ldx	$42                     ; 0x2042 <printf+0xd>
    2f4d: 86 13        	stx	$13                     ; 0x2013 <_ZN12_GLOBAL__N_112print_stringEPKcP6Status+0xeb>
    2f4f: a6 16        	ldx	$16                     ; 0x2016 <_ZN12_GLOBAL__N_112print_stringEPKcP6Status+0xee>
    2f51: a5 17        	lda	$17                     ; 0x2017 <_ZN12_GLOBAL__N_112print_stringEPKcP6Status+0xef>
    2f53: 20 16 03     	jsr	$316 <_ZN12_GLOBAL__N_19FreeChunk6insertEPvj>
    2f56: 60           	rts
    2f57: b2 12        	lda	($12)                   ; 0x2012 <_ZN12_GLOBAL__N_112print_stringEPKcP6Status+0xea>
    2f59: 09 01        	ora	#$1
    2f5b: 92 12        	sta	($12)                   ; 0x2012 <_ZN12_GLOBAL__N_112print_stringEPKcP6Status+0xea>
    2f5d: a0 01        	ldy	#$1
    2f5f: a5 43        	lda	$43                     ; 0x2043 <printf+0xe>
    2f61: 91 12        	sta	($12),y                 ; 0x2012 <_ZN12_GLOBAL__N_112print_stringEPKcP6Status+0xea>
    2f63: 80 e2        	bra	$2f47 <free+0x174>

00002f65 <memcpy>:
    2f65: a8           	tay
    2f66: 8a           	txa
    2f67: d0 03        	bne	$2f6c <memcpy+0x7>
    2f69: 98           	tya
    2f6a: f0 24        	beq	$2f90 <memcpy+0x2b>
    2f6c: a5 12        	lda	$12                     ; 0x2012 <_ZN12_GLOBAL__N_112print_stringEPKcP6Status+0xea>
    2f6e: 85 16        	sta	$16                     ; 0x2016 <_ZN12_GLOBAL__N_112print_stringEPKcP6Status+0xee>
    2f70: a5 13        	lda	$13                     ; 0x2013 <_ZN12_GLOBAL__N_112print_stringEPKcP6Status+0xeb>
    2f72: 85 17        	sta	$17                     ; 0x2017 <_ZN12_GLOBAL__N_112print_stringEPKcP6Status+0xef>
    2f74: b2 14        	lda	($14)                   ; 0x2014 <_ZN12_GLOBAL__N_112print_stringEPKcP6Status+0xec>
    2f76: 92 16        	sta	($16)                   ; 0x2016 <_ZN12_GLOBAL__N_112print_stringEPKcP6Status+0xee>
    2f78: e6 16        	inc	$16                     ; 0x2016 <_ZN12_GLOBAL__N_112print_stringEPKcP6Status+0xee>
    2f7a: d0 02        	bne	$2f7e <memcpy+0x19>
    2f7c: e6 17        	inc	$17                     ; 0x2017 <_ZN12_GLOBAL__N_112print_stringEPKcP6Status+0xef>
    2f7e: e6 14        	inc	$14                     ; 0x2014 <_ZN12_GLOBAL__N_112print_stringEPKcP6Status+0xec>
    2f80: d0 02        	bne	$2f84 <memcpy+0x1f>
    2f82: e6 15        	inc	$15                     ; 0x2015 <_ZN12_GLOBAL__N_112print_stringEPKcP6Status+0xed>
    2f84: 88           	dey
    2f85: c0 ff        	cpy	#$ff
    2f87: d0 01        	bne	$2f8a <memcpy+0x25>
    2f89: ca           	dex
    2f8a: 8a           	txa
    2f8b: d0 e7        	bne	$2f74 <memcpy+0xf>
    2f8d: 98           	tya
    2f8e: d0 e4        	bne	$2f74 <memcpy+0xf>
    2f90: 60           	rts

00002f91 <__memset>:
    2f91: a4 14        	ldy	$14                     ; 0x2014 <_ZN12_GLOBAL__N_112print_stringEPKcP6Status+0xec>
    2f93: d0 04        	bne	$2f99 <__memset+0x8>
    2f95: e0 00        	cpx	#$0
    2f97: f0 17        	beq	$2fb0 <__memset+0x1f>
    2f99: 92 12        	sta	($12)                   ; 0x2012 <_ZN12_GLOBAL__N_112print_stringEPKcP6Status+0xea>
    2f9b: e6 12        	inc	$12                     ; 0x2012 <_ZN12_GLOBAL__N_112print_stringEPKcP6Status+0xea>
    2f9d: d0 02        	bne	$2fa1 <__memset+0x10>
    2f9f: e6 13        	inc	$13                     ; 0x2013 <_ZN12_GLOBAL__N_112print_stringEPKcP6Status+0xeb>
    2fa1: ca           	dex
    2fa2: e0 ff        	cpx	#$ff
    2fa4: d0 02        	bne	$2fa8 <__memset+0x17>
    2fa6: c6 14        	dec	$14                     ; 0x2014 <_ZN12_GLOBAL__N_112print_stringEPKcP6Status+0xec>
    2fa8: a4 14        	ldy	$14                     ; 0x2014 <_ZN12_GLOBAL__N_112print_stringEPKcP6Status+0xec>
    2faa: d0 ed        	bne	$2f99 <__memset+0x8>
    2fac: e0 00        	cpx	#$0
    2fae: d0 e9        	bne	$2f99 <__memset+0x8>
    2fb0: 60           	rts

00002fb1 <strlen>:
    2fb1: b2 12        	lda	($12)                   ; 0x2012 <_ZN12_GLOBAL__N_112print_stringEPKcP6Status+0xea>
    2fb3: f0 2e        	beq	$2fe3 <strlen+0x32>
    2fb5: 64 15        	stz	$15                     ; 0x2015 <_ZN12_GLOBAL__N_112print_stringEPKcP6Status+0xed>
    2fb7: a0 01        	ldy	#$1
    2fb9: a9 00        	lda	#$0
    2fbb: 64 14        	stz	$14                     ; 0x2014 <_ZN12_GLOBAL__N_112print_stringEPKcP6Status+0xec>
    2fbd: aa           	tax
    2fbe: e6 14        	inc	$14                     ; 0x2014 <_ZN12_GLOBAL__N_112print_stringEPKcP6Status+0xec>
    2fc0: d0 01        	bne	$2fc3 <strlen+0x12>
    2fc2: e8           	inx
    2fc3: 18           	clc
    2fc4: 85 17        	sta	$17                     ; 0x2017 <_ZN12_GLOBAL__N_112print_stringEPKcP6Status+0xef>
    2fc6: a5 15        	lda	$15                     ; 0x2015 <_ZN12_GLOBAL__N_112print_stringEPKcP6Status+0xed>
    2fc8: 65 12        	adc	$12                     ; 0x2012 <_ZN12_GLOBAL__N_112print_stringEPKcP6Status+0xea>
    2fca: 85 16        	sta	$16                     ; 0x2016 <_ZN12_GLOBAL__N_112print_stringEPKcP6Status+0xee>
    2fcc: a5 17        	lda	$17                     ; 0x2017 <_ZN12_GLOBAL__N_112print_stringEPKcP6Status+0xef>
    2fce: 65 13        	adc	$13                     ; 0x2013 <_ZN12_GLOBAL__N_112print_stringEPKcP6Status+0xeb>
    2fd0: 85 17        	sta	$17                     ; 0x2017 <_ZN12_GLOBAL__N_112print_stringEPKcP6Status+0xef>
    2fd2: b1 16        	lda	($16),y                 ; 0x2016 <_ZN12_GLOBAL__N_112print_stringEPKcP6Status+0xee>
    2fd4: 85 16        	sta	$16                     ; 0x2016 <_ZN12_GLOBAL__N_112print_stringEPKcP6Status+0xee>
    2fd6: a5 14        	lda	$14                     ; 0x2014 <_ZN12_GLOBAL__N_112print_stringEPKcP6Status+0xec>
    2fd8: 85 15        	sta	$15                     ; 0x2015 <_ZN12_GLOBAL__N_112print_stringEPKcP6Status+0xed>
    2fda: 8a           	txa
    2fdb: e6 16        	inc	$16                     ; 0x2016 <_ZN12_GLOBAL__N_112print_stringEPKcP6Status+0xee>
    2fdd: c6 16        	dec	$16                     ; 0x2016 <_ZN12_GLOBAL__N_112print_stringEPKcP6Status+0xee>
    2fdf: d0 dd        	bne	$2fbe <strlen+0xd>
    2fe1: 80 04        	bra	$2fe7 <strlen+0x36>
    2fe3: 64 14        	stz	$14                     ; 0x2014 <_ZN12_GLOBAL__N_112print_stringEPKcP6Status+0xec>
    2fe5: a2 00        	ldx	#$0
    2fe7: a5 14        	lda	$14                     ; 0x2014 <_ZN12_GLOBAL__N_112print_stringEPKcP6Status+0xec>
    2fe9: 60           	rts
