
mp3wSA.elf:	file format elf32-mos

SYMBOL TABLE:
00000000 l    df *ABS*	00000000 zero-bss.c
00000000 l    df *ABS*	00000000 zero-zp-bss.c
00000000 l    df *ABS*	00000000 ld-temp.o
00000475 l     F .text	00000380 f256Init
00000037 l     O .zp.bss	00000007 kernelEventData
000025b6 l     O .rodata	00000030 textColors
00000030 l     O .zp.bss	00000001 _col
00000031 l     O .zp.bss	00000001 _row
00000036 l     O .zp.bss	00000001 kernelError
000007fb l     F .text	000007ed f256main
0000157c l     F .text	00000bb0 printf
00002717 l     O .rodata	0000076c saplugin
0000242f l     F .text	00000005 strlen
00000034 l     O .zp.bss	00000002 theMP3file
00000fe8 l     F .text	00000131 fileRead
000012d1 l     F .text	000000bb textPrintUInt
00001119 l     F .text	000001b8 textPrint
0000212c l     F .text	000002b7 malloc
00002434 l     F .text	00000147 __umodsi3
0000138c l     F .text	0000000d __putchar
00000032 l     O .zp.bss	00000002 __putchar.s
0000139e l     F .text	000000d1 _ZN12_GLOBAL__N_13putEcP6Status
0000146f l     F .text	0000010d _ZN12_GLOBAL__N_112print_stringEPKcP6Status
00002e83 l     O .bss	00000001 _ZN12_GLOBAL__N_111initializedE
00000316 l     F .text	00000139 _ZN12_GLOBAL__N_19FreeChunk6insertEPvj
00002e86 l     O .bss	00000002 _ZN12_GLOBAL__N_19free_listE
00002e84 l     O .bss	00000002 _ZN12_GLOBAL__N_19free_sizeE
000007f5 g     F .text	00000006 main
00000311 g       .text	00000000 __after_main
00000300 g       .text	00000000 __do_init_stack
00000308 g       .text	00000000 __do_zero_bss
0000044f g     F .text	00000013 __zero_bss
0000030b g       .text	00000000 __do_zero_zp_bss
00000462 g     F .text	00000013 __zero_zp_bss
00001399 g     F .text	00000005 exit
00000314 g       .text	00000000 _fini
0000257b g       .rodata	00000000 __set_v
0000240f  w    F .text	00000020 __memset
00001000  w      *ABS*	00000000 __heap_default_limit
00004e88 g       .noinit	00000000 __heap_start
000023e3  w    F .text	0000002c memcpy
00000010 g       *ABS*	00000000 __rc0
00000012 g       *ABS*	00000000 __rc2
00000014 g       *ABS*	00000000 __rc4
00000016 g       *ABS*	00000000 __rc6
00000018 g       *ABS*	00000000 __rc8
0000001a g       *ABS*	00000000 __rc10
0000001c g       *ABS*	00000000 __rc12
0000001e g       *ABS*	00000000 __rc14
00000020 g       *ABS*	00000000 __rc16
00000022 g       *ABS*	00000000 __rc18
00000024 g       *ABS*	00000000 __rc20
00000026 g       *ABS*	00000000 __rc22
00000028 g       *ABS*	00000000 __rc24
0000002a g       *ABS*	00000000 __rc26
0000002c g       *ABS*	00000000 __rc28
0000002e g       *ABS*	00000000 __rc30
0000002f g       *ABS*	00000000 __rc31
00000300 g       *ABS*	00000000 __f256_start
0000a000 g       *ABS*	00000000 __stack
0000a000 g       *ABS*	00000000 __SLOT_ADDR
0800a000 g       *ABS*	00000000 __block8_lma
00002000 g       *ABS*	00000000 __BLOCK_SIZE
0900a000 g       *ABS*	00000000 __block9_lma
0a00a000 g       *ABS*	00000000 __block10_lma
0b00a000 g       *ABS*	00000000 __block11_lma
0c00a000 g       *ABS*	00000000 __block12_lma
0d00a000 g       *ABS*	00000000 __block13_lma
0e00a000 g       *ABS*	00000000 __block14_lma
0f00a000 g       *ABS*	00000000 __block15_lma
1000a000 g       *ABS*	00000000 __block16_lma
1100a000 g       *ABS*	00000000 __block17_lma
1200a000 g       *ABS*	00000000 __block18_lma
1300a000 g       *ABS*	00000000 __block19_lma
1400a000 g       *ABS*	00000000 __block20_lma
1500a000 g       *ABS*	00000000 __block21_lma
1600a000 g       *ABS*	00000000 __block22_lma
1700a000 g       *ABS*	00000000 __block23_lma
00002e83 g       .bss	00000000 __bss_start
00000300 g       .text	00000000 _start
0000002d g       *ABS*	00000000 __rc29
0000002b g       *ABS*	00000000 __rc27
00000029 g       *ABS*	00000000 __rc25
00000027 g       *ABS*	00000000 __rc23
00000025 g       *ABS*	00000000 __rc21
00000023 g       *ABS*	00000000 __rc19
00000021 g       *ABS*	00000000 __rc17
0000001f g       *ABS*	00000000 __rc15
0000001d g       *ABS*	00000000 __rc13
0000001b g       *ABS*	00000000 __rc11
00000019 g       *ABS*	00000000 __rc9
00000017 g       *ABS*	00000000 __rc7
00000015 g       *ABS*	00000000 __rc5
00000013 g       *ABS*	00000000 __rc3
00000011 g       *ABS*	00000000 __rc1
00000030 g       .zp.data	00000000 __zp_data_start
00000300 g       *ABS*	00000000 __zp_data_load_start
00000000 g       *ABS*	00000000 __zp_data_size
00000030 g       .zp.bss	00000000 __zp_bss_start
0000000e g       *ABS*	00000000 __zp_bss_size
00000300 g       .text	00000000 _init
0000257b g       .text	00000000 __init_array_start
0000257b g       .text	00000000 __init_array_end
0000257b g       .text	00000000 __fini_array_start
0000257b g       .text	00000000 __fini_array_end
00002e83 g       .data	00000000 __data_start
00002e83 g       .data	00000000 __data_end
00002e83 g       *ABS*	00000000 __data_load_start
00000000 g       *ABS*	00000000 __data_size
00002e88 g       .bss	00000000 __bss_end
00000005 g       *ABS*	00000000 __bss_size
00004e88 g       .noinit	00000000 end_block8
00004e88 g       .noinit	00000000 end_block9
00004e88 g       .noinit	00000000 end_block10
00004e88 g       .noinit	00000000 end_block11
00004e88 g       .noinit	00000000 end_block12
00004e88 g       .noinit	00000000 end_block13
00004e88 g       .noinit	00000000 end_block14
00004e88 g       .noinit	00000000 end_block15
00004e88 g       .noinit	00000000 end_block16
00004e88 g       .noinit	00000000 end_block17
00004e88 g       .noinit	00000000 end_block18
00004e88 g       .noinit	00000000 end_block19
00004e88 g       .noinit	00000000 end_block20
00004e88 g       .noinit	00000000 end_block21
00004e88 g       .noinit	00000000 end_block22
00004e88 g       .noinit	00000000 end_block23

Disassembly of section .text:

00000300 <_start>:
     300: a9 00        	lda	#$0
     302: 85 10        	sta	$10                     ; 0x2010 <printf+0xa94>
     304: a9 a0        	lda	#$a0
     306: 85 11        	sta	$11                     ; 0x2011 <printf+0xa95>

00000308 <__do_zero_bss>:
     308: 20 4f 04     	jsr	$44f <__zero_bss>

0000030b <__do_zero_zp_bss>:
     30b: 20 62 04     	jsr	$462 <__zero_zp_bss>
     30e: 20 f5 07     	jsr	$7f5 <main>

00000311 <__after_main>:
     311: 4c 99 13     	jmp	$1399 <exit>

00000314 <_fini>:
     314: 60           	rts
     315: 00           	brk

00000316 <_ZN12_GLOBAL__N_19FreeChunk6insertEPvj>:
     316: 85 16        	sta	$16                     ; 0x2016 <printf+0xa9a>
     318: 29 fe        	and	#$fe
     31a: 85 14        	sta	$14                     ; 0x2014 <printf+0xa98>
     31c: a0 01        	ldy	#$1
     31e: 98           	tya
     31f: 32 12        	and	($12)                   ; 0x2012 <printf+0xa96>
     321: 05 14        	ora	$14                     ; 0x2014 <printf+0xa98>
     323: 92 12        	sta	($12)                   ; 0x2012 <printf+0xa96>
     325: a5 12        	lda	$12                     ; 0x2012 <printf+0xa96>
     327: 18           	clc
     328: 65 14        	adc	$14                     ; 0x2014 <printf+0xa98>
     32a: 85 15        	sta	$15                     ; 0x2015 <printf+0xa99>
     32c: 8a           	txa
     32d: 65 13        	adc	$13                     ; 0x2013 <printf+0xa97>
     32f: 85 14        	sta	$14                     ; 0x2014 <printf+0xa98>
     331: 18           	clc
     332: a5 15        	lda	$15                     ; 0x2015 <printf+0xa99>
     334: 69 fe        	adc	#$fe
     336: 85 17        	sta	$17                     ; 0x2017 <printf+0xa9b>
     338: a5 14        	lda	$14                     ; 0x2014 <printf+0xa98>
     33a: 69 ff        	adc	#$ff
     33c: 85 15        	sta	$15                     ; 0x2015 <printf+0xa99>
     33e: a5 17        	lda	$17                     ; 0x2017 <printf+0xa9b>
     340: 85 14        	sta	$14                     ; 0x2014 <printf+0xa98>
     342: 8a           	txa
     343: 91 12        	sta	($12),y                 ; 0x2012 <printf+0xa96>
     345: a5 16        	lda	$16                     ; 0x2016 <printf+0xa9a>
     347: 92 14        	sta	($14)                   ; 0x2014 <printf+0xa98>
     349: 8a           	txa
     34a: 91 14        	sta	($14),y                 ; 0x2014 <printf+0xa98>
     34c: b1 12        	lda	($12),y                 ; 0x2012 <printf+0xa96>
     34e: 85 14        	sta	$14                     ; 0x2014 <printf+0xa98>
     350: a9 fe        	lda	#$fe
     352: 32 12        	and	($12)                   ; 0x2012 <printf+0xa96>
     354: 18           	clc
     355: 6d 84 2e     	adc	$2e84                   ; 0x2e84 <_ZN12_GLOBAL__N_19free_sizeE>
     358: aa           	tax
     359: a5 14        	lda	$14                     ; 0x2014 <printf+0xa98>
     35b: 6d 85 2e     	adc	$2e85                   ; 0x2e85 <_ZN12_GLOBAL__N_19free_sizeE+0x1>
     35e: a8           	tay
     35f: 18           	clc
     360: 8a           	txa
     361: 69 fe        	adc	#$fe
     363: aa           	tax
     364: 98           	tya
     365: 69 ff        	adc	#$ff
     367: 8e 84 2e     	stx	$2e84                   ; 0x2e84 <_ZN12_GLOBAL__N_19free_sizeE>
     36a: 8d 85 2e     	sta	$2e85                   ; 0x2e85 <_ZN12_GLOBAL__N_19free_sizeE+0x1>
     36d: ae 86 2e     	ldx	$2e86                   ; 0x2e86 <_ZN12_GLOBAL__N_19free_listE>
     370: 86 16        	stx	$16                     ; 0x2016 <printf+0xa9a>
     372: ac 87 2e     	ldy	$2e87                   ; 0x2e87 <_ZN12_GLOBAL__N_19free_listE+0x1>
     375: a2 00        	ldx	#$0
     377: 86 14        	stx	$14                     ; 0x2014 <printf+0xa98>
     379: a2 00        	ldx	#$0
     37b: 86 15        	stx	$15                     ; 0x2015 <printf+0xa99>
     37d: 84 18        	sty	$18                     ; 0x2018 <printf+0xa9c>
     37f: c4 15        	cpy	$15                     ; 0x2015 <printf+0xa99>
     381: d0 31        	bne	$3b4 <_ZN12_GLOBAL__N_19FreeChunk6insertEPvj+0x9e>
     383: a6 16        	ldx	$16                     ; 0x2016 <printf+0xa9a>
     385: e4 14        	cpx	$14                     ; 0x2014 <printf+0xa98>
     387: d0 2b        	bne	$3b4 <_ZN12_GLOBAL__N_19FreeChunk6insertEPvj+0x9e>
     389: a0 02        	ldy	#$2
     38b: 18           	clc
     38c: a5 12        	lda	$12                     ; 0x2012 <printf+0xa96>
     38e: 69 02        	adc	#$2
     390: 85 14        	sta	$14                     ; 0x2014 <printf+0xa98>
     392: a5 12        	lda	$12                     ; 0x2012 <printf+0xa96>
     394: 91 12        	sta	($12),y                 ; 0x2012 <printf+0xa96>
     396: a5 13        	lda	$13                     ; 0x2013 <printf+0xa97>
     398: 69 00        	adc	#$0
     39a: 85 15        	sta	$15                     ; 0x2015 <printf+0xa99>
     39c: 88           	dey
     39d: a5 13        	lda	$13                     ; 0x2013 <printf+0xa97>
     39f: 91 14        	sta	($14),y                 ; 0x2014 <printf+0xa98>
     3a1: a2 86        	ldx	#$86
     3a3: 86 16        	stx	$16                     ; 0x2016 <printf+0xa9a>
     3a5: a2 2e        	ldx	#$2e
     3a7: 86 17        	stx	$17                     ; 0x2017 <printf+0xa9b>
     3a9: a6 12        	ldx	$12                     ; 0x2012 <printf+0xa96>
     3ab: 86 14        	stx	$14                     ; 0x2014 <printf+0xa98>
     3ad: a6 13        	ldx	$13                     ; 0x2013 <printf+0xa97>
     3af: 86 15        	stx	$15                     ; 0x2015 <printf+0xa99>
     3b1: 4c 2d 04     	jmp	$42d <_ZN12_GLOBAL__N_19FreeChunk6insertEPvj+0x117>
     3b4: a5 12        	lda	$12                     ; 0x2012 <printf+0xa96>
     3b6: 18           	clc
     3b7: 69 02        	adc	#$2
     3b9: 85 14        	sta	$14                     ; 0x2014 <printf+0xa98>
     3bb: a4 13        	ldy	$13                     ; 0x2013 <printf+0xa97>
     3bd: a6 16        	ldx	$16                     ; 0x2016 <printf+0xa9a>
     3bf: 86 19        	stx	$19                     ; 0x2019 <printf+0xa9d>
     3c1: a5 13        	lda	$13                     ; 0x2013 <printf+0xa97>
     3c3: 84 1a        	sty	$1a                     ; 0x201a <printf+0xa9e>
     3c5: 69 00        	adc	#$0
     3c7: a6 14        	ldx	$14                     ; 0x2014 <printf+0xa98>
     3c9: 86 16        	stx	$16                     ; 0x2016 <printf+0xa9a>
     3cb: 85 17        	sta	$17                     ; 0x2017 <printf+0xa9b>
     3cd: a6 19        	ldx	$19                     ; 0x2019 <printf+0xa9d>
     3cf: 86 14        	stx	$14                     ; 0x2014 <printf+0xa98>
     3d1: a4 18        	ldy	$18                     ; 0x2018 <printf+0xa9c>
     3d3: 84 15        	sty	$15                     ; 0x2015 <printf+0xa99>
     3d5: 84 1b        	sty	$1b                     ; 0x201b <printf+0xa9f>
     3d7: a0 02        	ldy	#$2
     3d9: a5 19        	lda	$19                     ; 0x2019 <printf+0xa9d>
     3db: 91 12        	sta	($12),y                 ; 0x2012 <printf+0xa96>
     3dd: 88           	dey
     3de: a5 1b        	lda	$1b                     ; 0x201b <printf+0xa9f>
     3e0: 91 16        	sta	($16),y                 ; 0x2016 <printf+0xa9a>
     3e2: 18           	clc
     3e3: a5 19        	lda	$19                     ; 0x2019 <printf+0xa9d>
     3e5: 69 04        	adc	#$4
     3e7: 85 18        	sta	$18                     ; 0x2018 <printf+0xa9c>
     3e9: a5 1b        	lda	$1b                     ; 0x201b <printf+0xa9f>
     3eb: 69 00        	adc	#$0
     3ed: 85 19        	sta	$19                     ; 0x2019 <printf+0xa9d>
     3ef: a0 04        	ldy	#$4
     3f1: b1 14        	lda	($14),y                 ; 0x2014 <printf+0xa98>
     3f3: 85 14        	sta	$14                     ; 0x2014 <printf+0xa98>
     3f5: 85 1b        	sta	$1b                     ; 0x201b <printf+0xa9f>
     3f7: a0 01        	ldy	#$1
     3f9: b1 18        	lda	($18),y                 ; 0x2018 <printf+0xa9c>
     3fb: 85 15        	sta	$15                     ; 0x2015 <printf+0xa99>
     3fd: a8           	tay
     3fe: 18           	clc
     3ff: a5 1b        	lda	$1b                     ; 0x201b <printf+0xa9f>
     401: 69 02        	adc	#$2
     403: 85 18        	sta	$18                     ; 0x2018 <printf+0xa9c>
     405: 98           	tya
     406: 69 00        	adc	#$0
     408: 85 19        	sta	$19                     ; 0x2019 <printf+0xa9d>
     40a: a5 12        	lda	$12                     ; 0x2012 <printf+0xa96>
     40c: a0 02        	ldy	#$2
     40e: 91 14        	sta	($14),y                 ; 0x2014 <printf+0xa98>
     410: a5 1a        	lda	$1a                     ; 0x201a <printf+0xa9e>
     412: 88           	dey
     413: 91 18        	sta	($18),y                 ; 0x2018 <printf+0xa9c>
     415: c8           	iny
     416: b1 12        	lda	($12),y                 ; 0x2012 <printf+0xa96>
     418: 85 18        	sta	$18                     ; 0x2018 <printf+0xa9c>
     41a: 88           	dey
     41b: b1 16        	lda	($16),y                 ; 0x2016 <printf+0xa9a>
     41d: 85 16        	sta	$16                     ; 0x2016 <printf+0xa9a>
     41f: 18           	clc
     420: a5 18        	lda	$18                     ; 0x2018 <printf+0xa9c>
     422: 69 04        	adc	#$4
     424: aa           	tax
     425: a5 16        	lda	$16                     ; 0x2016 <printf+0xa9a>
     427: 69 00        	adc	#$0
     429: 86 16        	stx	$16                     ; 0x2016 <printf+0xa9a>
     42b: 85 17        	sta	$17                     ; 0x2017 <printf+0xa9b>
     42d: 18           	clc
     42e: a5 12        	lda	$12                     ; 0x2012 <printf+0xa96>
     430: 69 04        	adc	#$4
     432: 85 18        	sta	$18                     ; 0x2018 <printf+0xa9c>
     434: a5 13        	lda	$13                     ; 0x2013 <printf+0xa97>
     436: 69 00        	adc	#$0
     438: a0 04        	ldy	#$4
     43a: 85 19        	sta	$19                     ; 0x2019 <printf+0xa9d>
     43c: a5 14        	lda	$14                     ; 0x2014 <printf+0xa98>
     43e: 91 12        	sta	($12),y                 ; 0x2012 <printf+0xa96>
     440: a5 15        	lda	$15                     ; 0x2015 <printf+0xa99>
     442: a0 01        	ldy	#$1
     444: 91 18        	sta	($18),y                 ; 0x2018 <printf+0xa9c>
     446: a5 13        	lda	$13                     ; 0x2013 <printf+0xa97>
     448: 91 16        	sta	($16),y                 ; 0x2016 <printf+0xa9a>
     44a: a5 12        	lda	$12                     ; 0x2012 <printf+0xa96>
     44c: 92 16        	sta	($16)                   ; 0x2016 <printf+0xa9a>
     44e: 60           	rts

0000044f <__zero_bss>:
     44f: a2 05        	ldx	#$5
     451: a0 00        	ldy	#$0
     453: a9 83        	lda	#$83
     455: 85 12        	sta	$12                     ; 0x2012 <printf+0xa96>
     457: a9 2e        	lda	#$2e
     459: 85 13        	sta	$13                     ; 0x2013 <printf+0xa97>
     45b: a9 00        	lda	#$0
     45d: 84 14        	sty	$14                     ; 0x2014 <printf+0xa98>
     45f: 4c 0f 24     	jmp	$240f <__memset>

00000462 <__zero_zp_bss>:
     462: a2 0e        	ldx	#$e
     464: a0 00        	ldy	#$0
     466: a9 30        	lda	#$30
     468: 85 12        	sta	$12                     ; 0x2012 <printf+0xa96>
     46a: a9 00        	lda	#$0
     46c: 85 13        	sta	$13                     ; 0x2013 <printf+0xa97>
     46e: a9 00        	lda	#$0
     470: 84 14        	sty	$14                     ; 0x2014 <printf+0xa98>
     472: 4c 0f 24     	jmp	$240f <__memset>

00000475 <f256Init>:
     475: 64 14        	stz	$14                     ; 0x2014 <printf+0xa98>
     477: a2 00        	ldx	#$0
     479: 86 12        	stx	$12                     ; 0x2012 <printf+0xa96>
     47b: a2 c0        	ldx	#$c0
     47d: 86 13        	stx	$13                     ; 0x2013 <printf+0xa97>
     47f: 64 01        	stz	$1                      ; 0x2001 <printf+0xa85>
     481: a2 3f        	ldx	#$3f
     483: 8e 00 d0     	stx	$d000                   ; 0xd000 <end_block9+0x8178>
     486: a2 b3        	ldx	#$b3
     488: 86 00        	stx	$0                      ; 0x2000 <printf+0xa84>
     48a: 64 08        	stz	$8                      ; 0x2008 <printf+0xa8c>
     48c: a2 01        	ldx	#$1
     48e: 86 09        	stx	$9                      ; 0x2009 <printf+0xa8d>
     490: e8           	inx
     491: 86 0a        	stx	$a                      ; 0x200a <printf+0xa8e>
     493: e8           	inx
     494: 86 0b        	stx	$b                      ; 0x200b <printf+0xa8f>
     496: e8           	inx
     497: 86 0c        	stx	$c                      ; 0x200c <printf+0xa90>
     499: e8           	inx
     49a: 86 0d        	stx	$d                      ; 0x200d <printf+0xa91>
     49c: a2 37        	ldx	#$37
     49e: a0 00        	ldy	#$0
     4a0: 86 f0        	stx	$f0                     ; 0x20f0 <printf+0xb74>
     4a2: 84 f1        	sty	$f1                     ; 0x20f1 <printf+0xb75>
     4a4: a2 00        	ldx	#$0
     4a6: 86 18        	stx	$18                     ; 0x2018 <printf+0xa9c>
     4a8: ca           	dex
     4a9: 86 19        	stx	$19                     ; 0x2019 <printf+0xa9d>
     4ab: 8a           	txa
     4ac: 0a           	asl
     4ad: 0a           	asl
     4ae: 18           	clc
     4af: 69 d4        	adc	#$d4
     4b1: 85 1a        	sta	$1a                     ; 0x201a <printf+0xa9e>
     4b3: a0 00        	ldy	#$0
     4b5: 64 17        	stz	$17                     ; 0x2017 <printf+0xa9b>
     4b7: 64 16        	stz	$16                     ; 0x2016 <printf+0xa9a>
     4b9: a6 19        	ldx	$19                     ; 0x2019 <printf+0xa9d>
     4bb: e0 03        	cpx	#$3
     4bd: a6 01        	ldx	$1                      ; 0x2001 <printf+0xa85>
     4bf: 86 1c        	stx	$1c                     ; 0x201c <printf+0xaa0>
     4c1: a2 d0        	ldx	#$d0
     4c3: 84 1b        	sty	$1b                     ; 0x201b <printf+0xa9f>
     4c5: b0 02        	bcs	$4c9 <f256Init+0x54>
     4c7: a6 1a        	ldx	$1a                     ; 0x201a <printf+0xa9e>
     4c9: 86 15        	stx	$15                     ; 0x2015 <printf+0xa99>
     4cb: a5 17        	lda	$17                     ; 0x2017 <printf+0xa9b>
     4cd: 18           	clc
     4ce: 65 14        	adc	$14                     ; 0x2014 <printf+0xa98>
     4d0: a8           	tay
     4d1: a6 17        	ldx	$17                     ; 0x2017 <printf+0xa9b>
     4d3: a5 16        	lda	$16                     ; 0x2016 <printf+0xa9a>
     4d5: 85 1d        	sta	$1d                     ; 0x201d <printf+0xaa1>
     4d7: a5 16        	lda	$16                     ; 0x2016 <printf+0xa9a>
     4d9: 65 15        	adc	$15                     ; 0x2015 <printf+0xa99>
     4db: 84 16        	sty	$16                     ; 0x2016 <printf+0xa9a>
     4dd: a0 01        	ldy	#$1
     4df: 84 01        	sty	$1                      ; 0x2001 <printf+0xa85>
     4e1: 85 17        	sta	$17                     ; 0x2017 <printf+0xa9b>
     4e3: a5 1b        	lda	$1b                     ; 0x201b <printf+0xa9f>
     4e5: 92 16        	sta	($16)                   ; 0x2016 <printf+0xa9a>
     4e7: 91 16        	sta	($16),y                 ; 0x2016 <printf+0xa9a>
     4e9: c8           	iny
     4ea: 91 16        	sta	($16),y                 ; 0x2016 <printf+0xa9a>
     4ec: 85 15        	sta	$15                     ; 0x2015 <printf+0xa99>
     4ee: c8           	iny
     4ef: a9 ff        	lda	#$ff
     4f1: 91 16        	sta	($16),y                 ; 0x2016 <printf+0xa9a>
     4f3: 8a           	txa
     4f4: a6 1c        	ldx	$1c                     ; 0x201c <printf+0xaa0>
     4f6: 86 01        	stx	$1                      ; 0x2001 <printf+0xa85>
     4f8: 18           	clc
     4f9: 69 04        	adc	#$4
     4fb: 85 17        	sta	$17                     ; 0x2017 <printf+0xa9b>
     4fd: a5 1d        	lda	$1d                     ; 0x201d <printf+0xaa1>
     4ff: 69 00        	adc	#$0
     501: e6 15        	inc	$15                     ; 0x2015 <printf+0xa99>
     503: a4 15        	ldy	$15                     ; 0x2015 <printf+0xa99>
     505: 85 16        	sta	$16                     ; 0x2016 <printf+0xa9a>
     507: c9 04        	cmp	#$4
     509: f0 03        	beq	$50e <f256Init+0x99>
     50b: 4c b9 04     	jmp	$4b9 <f256Init+0x44>
     50e: a5 17        	lda	$17                     ; 0x2017 <printf+0xa9b>
     510: f0 03        	beq	$515 <f256Init+0xa0>
     512: 4c b9 04     	jmp	$4b9 <f256Init+0x44>
     515: a6 18        	ldx	$18                     ; 0x2018 <printf+0xa9c>
     517: e8           	inx
     518: e0 04        	cpx	#$4
     51a: f0 03        	beq	$51f <f256Init+0xaa>
     51c: 4c a6 04     	jmp	$4a6 <f256Init+0x31>
     51f: ad 02 d0     	lda	$d002                   ; 0xd002 <end_block9+0x817a>
     522: 29 f0        	and	#$f0
     524: 8d 02 d0     	sta	$d002                   ; 0xd002 <end_block9+0x817a>
     527: ad 02 d0     	lda	$d002                   ; 0xd002 <end_block9+0x817a>
     52a: 29 0f        	and	#$f
     52c: 09 10        	ora	#$10
     52e: 8d 02 d0     	sta	$d002                   ; 0xd002 <end_block9+0x817a>
     531: a2 02        	ldx	#$2
     533: 8e 03 d0     	stx	$d003                   ; 0xd003 <end_block9+0x817b>
     536: ad 01 d0     	lda	$d001                   ; 0xd001 <end_block9+0x8179>
     539: 29 f9        	and	#$f9
     53b: 09 04        	ora	#$4
     53d: 8d 01 d0     	sta	$d001                   ; 0xd001 <end_block9+0x8179>
     540: 64 14        	stz	$14                     ; 0x2014 <printf+0xa98>
     542: 9c 10 d0     	stz	$d010                   ; 0xd010 <end_block9+0x8188>
     545: a2 00        	ldx	#$0
     547: 64 15        	stz	$15                     ; 0x2015 <printf+0xa99>
     549: 86 18        	stx	$18                     ; 0x2018 <printf+0xa9c>
     54b: a4 18        	ldy	$18                     ; 0x2018 <printf+0xa9c>
     54d: be b6 25     	ldx	$25b6,y                 ; 0x25b6 <textColors>
     550: 86 19        	stx	$19                     ; 0x2019 <printf+0xa9d>
     552: be b7 25     	ldx	$25b7,y                 ; 0x25b7 <textColors+0x1>
     555: 86 1a        	stx	$1a                     ; 0x201a <printf+0xa9e>
     557: be b8 25     	ldx	$25b8,y                 ; 0x25b8 <textColors+0x2>
     55a: 86 1b        	stx	$1b                     ; 0x201b <printf+0xa9f>
     55c: a6 15        	ldx	$15                     ; 0x2015 <printf+0xa99>
     55e: 8e 00 de     	stx	$de00                   ; 0xde00 <end_block9+0x8f78>
     561: 86 17        	stx	$17                     ; 0x2017 <printf+0xa9b>
     563: 9c 01 de     	stz	$de01                   ; 0xde01 <end_block9+0x8f79>
     566: a2 04        	ldx	#$4
     568: 8e 02 de     	stx	$de02                   ; 0xde02 <end_block9+0x8f7a>
     56b: 9c 03 de     	stz	$de03                   ; 0xde03 <end_block9+0x8f7b>
     56e: ad 10 de     	lda	$de10                   ; 0xde10 <end_block9+0x8f88>
     571: ac 11 de     	ldy	$de11                   ; 0xde11 <end_block9+0x8f89>
     574: 84 15        	sty	$15                     ; 0x2015 <printf+0xa99>
     576: ac 12 de     	ldy	$de12                   ; 0xde12 <end_block9+0x8f8a>
     579: ac 13 de     	ldy	$de13                   ; 0xde13 <end_block9+0x8f8b>
     57c: 18           	clc
     57d: 65 14        	adc	$14                     ; 0x2014 <printf+0xa98>
     57f: 85 16        	sta	$16                     ; 0x2016 <printf+0xa9a>
     581: a6 17        	ldx	$17                     ; 0x2017 <printf+0xa9b>
     583: a9 d8        	lda	#$d8
     585: 65 15        	adc	$15                     ; 0x2015 <printf+0xa99>
     587: 85 17        	sta	$17                     ; 0x2017 <printf+0xa9b>
     589: a5 1b        	lda	$1b                     ; 0x201b <printf+0xa9f>
     58b: 92 16        	sta	($16)                   ; 0x2016 <printf+0xa9a>
     58d: a0 01        	ldy	#$1
     58f: a5 1a        	lda	$1a                     ; 0x201a <printf+0xa9e>
     591: 91 16        	sta	($16),y                 ; 0x2016 <printf+0xa9a>
     593: c8           	iny
     594: a5 19        	lda	$19                     ; 0x2019 <printf+0xa9d>
     596: 91 16        	sta	($16),y                 ; 0x2016 <printf+0xa9a>
     598: c8           	iny
     599: a9 ff        	lda	#$ff
     59b: 91 16        	sta	($16),y                 ; 0x2016 <printf+0xa9a>
     59d: 8e 00 de     	stx	$de00                   ; 0xde00 <end_block9+0x8f78>
     5a0: 9c 01 de     	stz	$de01                   ; 0xde01 <end_block9+0x8f79>
     5a3: c8           	iny
     5a4: 8c 02 de     	sty	$de02                   ; 0xde02 <end_block9+0x8f7a>
     5a7: 9c 03 de     	stz	$de03                   ; 0xde03 <end_block9+0x8f7b>
     5aa: ad 10 de     	lda	$de10                   ; 0xde10 <end_block9+0x8f88>
     5ad: 85 15        	sta	$15                     ; 0x2015 <printf+0xa99>
     5af: ad 11 de     	lda	$de11                   ; 0xde11 <end_block9+0x8f89>
     5b2: 85 16        	sta	$16                     ; 0x2016 <printf+0xa9a>
     5b4: a9 40        	lda	#$40
     5b6: 18           	clc
     5b7: 65 15        	adc	$15                     ; 0x2015 <printf+0xa99>
     5b9: a8           	tay
     5ba: a9 d8        	lda	#$d8
     5bc: 65 16        	adc	$16                     ; 0x2016 <printf+0xa9a>
     5be: 85 17        	sta	$17                     ; 0x2017 <printf+0xa9b>
     5c0: 84 16        	sty	$16                     ; 0x2016 <printf+0xa9a>
     5c2: ad 12 de     	lda	$de12                   ; 0xde12 <end_block9+0x8f8a>
     5c5: ad 13 de     	lda	$de13                   ; 0xde13 <end_block9+0x8f8b>
     5c8: a5 1b        	lda	$1b                     ; 0x201b <printf+0xa9f>
     5ca: 92 16        	sta	($16)                   ; 0x2016 <printf+0xa9a>
     5cc: a5 1a        	lda	$1a                     ; 0x201a <printf+0xa9e>
     5ce: a0 01        	ldy	#$1
     5d0: 91 16        	sta	($16),y                 ; 0x2016 <printf+0xa9a>
     5d2: a5 19        	lda	$19                     ; 0x2019 <printf+0xa9d>
     5d4: c8           	iny
     5d5: 91 16        	sta	($16),y                 ; 0x2016 <printf+0xa9a>
     5d7: c8           	iny
     5d8: a9 ff        	lda	#$ff
     5da: 91 16        	sta	($16),y                 ; 0x2016 <printf+0xa9a>
     5dc: e8           	inx
     5dd: 86 15        	stx	$15                     ; 0x2015 <printf+0xa99>
     5df: 18           	clc
     5e0: a5 18        	lda	$18                     ; 0x2018 <printf+0xa9c>
     5e2: 69 03        	adc	#$3
     5e4: aa           	tax
     5e5: c9 30        	cmp	#$30
     5e7: f0 03        	beq	$5ec <f256Init+0x177>
     5e9: 4c 49 05     	jmp	$549 <f256Init+0xd4>
     5ec: a6 01        	ldx	$1                      ; 0x2001 <printf+0xa85>
     5ee: 86 18        	stx	$18                     ; 0x2018 <printf+0xa9c>
     5f0: a2 50        	ldx	#$50
     5f2: 8e 00 de     	stx	$de00                   ; 0xde00 <end_block9+0x8f78>
     5f5: 9c 01 de     	stz	$de01                   ; 0xde01 <end_block9+0x8f79>
     5f8: a2 1e        	ldx	#$1e
     5fa: 8e 02 de     	stx	$de02                   ; 0xde02 <end_block9+0x8f7a>
     5fd: 9c 03 de     	stz	$de03                   ; 0xde03 <end_block9+0x8f7b>
     600: ae 10 de     	ldx	$de10                   ; 0xde10 <end_block9+0x8f88>
     603: ac 11 de     	ldy	$de11                   ; 0xde11 <end_block9+0x8f89>
     606: ad 12 de     	lda	$de12                   ; 0xde12 <end_block9+0x8f8a>
     609: ad 13 de     	lda	$de13                   ; 0xde13 <end_block9+0x8f8b>
     60c: a9 02        	lda	#$2
     60e: 85 01        	sta	$1                      ; 0x2001 <printf+0xa85>
     610: e0 01        	cpx	#$1
     612: 98           	tya
     613: e9 00        	sbc	#$0
     615: 50 02        	bvc	$619 <f256Init+0x1a4>
     617: 49 80        	eor	#$80
     619: c9 00        	cmp	#$0
     61b: 30 48        	bmi	$665 <f256Init+0x1f0>
     61d: a9 20        	lda	#$20
     61f: 86 19        	stx	$19                     ; 0x2019 <printf+0xa9d>
     621: 86 14        	stx	$14                     ; 0x2014 <printf+0xa98>
     623: 84 15        	sty	$15                     ; 0x2015 <printf+0xa99>
     625: a2 00        	ldx	#$0
     627: 86 16        	stx	$16                     ; 0x2016 <printf+0xa9a>
     629: a2 c0        	ldx	#$c0
     62b: 86 17        	stx	$17                     ; 0x2017 <printf+0xa9b>
     62d: 92 16        	sta	($16)                   ; 0x2016 <printf+0xa9a>
     62f: e6 16        	inc	$16                     ; 0x2016 <printf+0xa9a>
     631: d0 02        	bne	$635 <f256Init+0x1c0>
     633: e6 17        	inc	$17                     ; 0x2017 <printf+0xa9b>
     635: a2 ff        	ldx	#$ff
     637: c6 14        	dec	$14                     ; 0x2014 <printf+0xa98>
     639: e4 14        	cpx	$14                     ; 0x2014 <printf+0xa98>
     63b: d0 02        	bne	$63f <f256Init+0x1ca>
     63d: c6 15        	dec	$15                     ; 0x2015 <printf+0xa99>
     63f: a6 15        	ldx	$15                     ; 0x2015 <printf+0xa99>
     641: d0 ea        	bne	$62d <f256Init+0x1b8>
     643: a6 14        	ldx	$14                     ; 0x2014 <printf+0xa98>
     645: d0 e6        	bne	$62d <f256Init+0x1b8>
     647: a2 03        	ldx	#$3
     649: 86 01        	stx	$1                      ; 0x2001 <printf+0xa85>
     64b: a6 19        	ldx	$19                     ; 0x2019 <printf+0xa9d>
     64d: a9 f0        	lda	#$f0
     64f: 92 12        	sta	($12)                   ; 0x2012 <printf+0xa96>
     651: e6 12        	inc	$12                     ; 0x2012 <printf+0xa96>
     653: d0 02        	bne	$657 <f256Init+0x1e2>
     655: e6 13        	inc	$13                     ; 0x2013 <printf+0xa97>
     657: ca           	dex
     658: e0 ff        	cpx	#$ff
     65a: d0 01        	bne	$65d <f256Init+0x1e8>
     65c: 88           	dey
     65d: 98           	tya
     65e: d0 ed        	bne	$64d <f256Init+0x1d8>
     660: 8a           	txa
     661: d0 ea        	bne	$64d <f256Init+0x1d8>
     663: 80 04        	bra	$669 <f256Init+0x1f4>
     665: a2 03        	ldx	#$3
     667: 86 01        	stx	$1                      ; 0x2001 <printf+0xa85>
     669: a6 18        	ldx	$18                     ; 0x2018 <printf+0xa9c>
     66b: 86 01        	stx	$1                      ; 0x2001 <printf+0xa85>
     66d: 64 30        	stz	$30                     ; 0x2030 <printf+0xab4>
     66f: 9c 14 d0     	stz	$d014                   ; 0xd014 <end_block9+0x818c>
     672: 9c 15 d0     	stz	$d015                   ; 0xd015 <end_block9+0x818d>
     675: 64 31        	stz	$31                     ; 0x2031 <printf+0xab5>
     677: 9c 16 d0     	stz	$d016                   ; 0xd016 <end_block9+0x818e>
     67a: 9c 17 d0     	stz	$d017                   ; 0xd017 <end_block9+0x818f>
     67d: a2 40        	ldx	#$40
     67f: 8e 00 de     	stx	$de00                   ; 0xde00 <end_block9+0x8f78>
     682: a2 01        	ldx	#$1
     684: 8e 01 de     	stx	$de01                   ; 0xde01 <end_block9+0x8f79>
     687: a2 f0        	ldx	#$f0
     689: 8e 02 de     	stx	$de02                   ; 0xde02 <end_block9+0x8f7a>
     68c: 9c 03 de     	stz	$de03                   ; 0xde03 <end_block9+0x8f7b>
     68f: ae 10 de     	ldx	$de10                   ; 0xde10 <end_block9+0x8f88>
     692: 86 17        	stx	$17                     ; 0x2017 <printf+0xa9b>
     694: ae 11 de     	ldx	$de11                   ; 0xde11 <end_block9+0x8f89>
     697: 86 12        	stx	$12                     ; 0x2012 <printf+0xa96>
     699: ae 12 de     	ldx	$de12                   ; 0xde12 <end_block9+0x8f8a>
     69c: 86 13        	stx	$13                     ; 0x2013 <printf+0xa97>
     69e: ae 13 de     	ldx	$de13                   ; 0xde13 <end_block9+0x8f8b>
     6a1: 86 14        	stx	$14                     ; 0x2014 <printf+0xa98>
     6a3: a4 12        	ldy	$12                     ; 0x2012 <printf+0xa96>
     6a5: 84 15        	sty	$15                     ; 0x2015 <printf+0xa99>
     6a7: 06 15        	asl	$15                     ; 0x2015 <printf+0xa99>
     6a9: a5 13        	lda	$13                     ; 0x2013 <printf+0xa97>
     6ab: 2a           	rol
     6ac: 86 16        	stx	$16                     ; 0x2016 <printf+0xa9a>
     6ae: 26 16        	rol	$16                     ; 0x2016 <printf+0xa9a>
     6b0: 06 15        	asl	$15                     ; 0x2015 <printf+0xa99>
     6b2: 2a           	rol
     6b3: 26 16        	rol	$16                     ; 0x2016 <printf+0xa9a>
     6b5: 06 15        	asl	$15                     ; 0x2015 <printf+0xa99>
     6b7: 2a           	rol
     6b8: 26 16        	rol	$16                     ; 0x2016 <printf+0xa9a>
     6ba: 85 15        	sta	$15                     ; 0x2015 <printf+0xa99>
     6bc: 8d 00 de     	sta	$de00                   ; 0xde00 <end_block9+0x8f78>
     6bf: a5 16        	lda	$16                     ; 0x2016 <printf+0xa9a>
     6c1: 8d 01 de     	sta	$de01                   ; 0xde01 <end_block9+0x8f79>
     6c4: 9c 02 de     	stz	$de02                   ; 0xde02 <end_block9+0x8f7a>
     6c7: a2 20        	ldx	#$20
     6c9: 8e 03 de     	stx	$de03                   ; 0xde03 <end_block9+0x8f7b>
     6cc: ae 10 de     	ldx	$de10                   ; 0xde10 <end_block9+0x8f88>
     6cf: 86 16        	stx	$16                     ; 0x2016 <printf+0xa9a>
     6d1: ae 11 de     	ldx	$de11                   ; 0xde11 <end_block9+0x8f89>
     6d4: 86 18        	stx	$18                     ; 0x2018 <printf+0xa9c>
     6d6: ac 12 de     	ldy	$de12                   ; 0xde12 <end_block9+0x8f8a>
     6d9: ae 13 de     	ldx	$de13                   ; 0xde13 <end_block9+0x8f8b>
     6dc: e4 14        	cpx	$14                     ; 0x2014 <printf+0xa98>
     6de: d0 14        	bne	$6f4 <f256Init+0x27f>
     6e0: c4 13        	cpy	$13                     ; 0x2013 <printf+0xa97>
     6e2: d0 10        	bne	$6f4 <f256Init+0x27f>
     6e4: a6 18        	ldx	$18                     ; 0x2018 <printf+0xa9c>
     6e6: e4 12        	cpx	$12                     ; 0x2012 <printf+0xa96>
     6e8: d0 0a        	bne	$6f4 <f256Init+0x27f>
     6ea: a6 16        	ldx	$16                     ; 0x2016 <printf+0xa9a>
     6ec: e4 17        	cpx	$17                     ; 0x2017 <printf+0xa9b>
     6ee: d0 04        	bne	$6f4 <f256Init+0x27f>
     6f0: a6 15        	ldx	$15                     ; 0x2015 <printf+0xa99>
     6f2: 80 06        	bra	$6fa <f256Init+0x285>
     6f4: a6 15        	ldx	$15                     ; 0x2015 <printf+0xa99>
     6f6: e8           	inx
     6f7: d0 01        	bne	$6fa <f256Init+0x285>
     6f9: 1a           	inc
     6fa: 8e 00 de     	stx	$de00                   ; 0xde00 <end_block9+0x8f78>
     6fd: 8d 01 de     	sta	$de01                   ; 0xde01 <end_block9+0x8f79>
     700: 9c 02 de     	stz	$de02                   ; 0xde02 <end_block9+0x8f7a>
     703: a2 20        	ldx	#$20
     705: 8e 03 de     	stx	$de03                   ; 0xde03 <end_block9+0x8f7b>
     708: ae 10 de     	ldx	$de10                   ; 0xde10 <end_block9+0x8f88>
     70b: 86 12        	stx	$12                     ; 0x2012 <printf+0xa96>
     70d: ae 11 de     	ldx	$de11                   ; 0xde11 <end_block9+0x8f89>
     710: 86 13        	stx	$13                     ; 0x2013 <printf+0xa97>
     712: ae 12 de     	ldx	$de12                   ; 0xde12 <end_block9+0x8f8a>
     715: 86 14        	stx	$14                     ; 0x2014 <printf+0xa98>
     717: a9 00        	lda	#$0
     719: 38           	sec
     71a: e5 12        	sbc	$12                     ; 0x2012 <printf+0xa96>
     71c: a8           	tay
     71d: a9 00        	lda	#$0
     71f: e5 13        	sbc	$13                     ; 0x2013 <printf+0xa97>
     721: 85 15        	sta	$15                     ; 0x2015 <printf+0xa99>
     723: a9 08        	lda	#$8
     725: e5 14        	sbc	$14                     ; 0x2014 <printf+0xa98>
     727: aa           	tax
     728: 98           	tya
     729: 84 17        	sty	$17                     ; 0x2017 <printf+0xa9b>
     72b: 38           	sec
     72c: e5 12        	sbc	$12                     ; 0x2012 <printf+0xa96>
     72e: 85 16        	sta	$16                     ; 0x2016 <printf+0xa9a>
     730: a5 15        	lda	$15                     ; 0x2015 <printf+0xa99>
     732: e5 13        	sbc	$13                     ; 0x2013 <printf+0xa97>
     734: 85 18        	sta	$18                     ; 0x2018 <printf+0xa9c>
     736: 8a           	txa
     737: 86 19        	stx	$19                     ; 0x2019 <printf+0xa9d>
     739: e5 14        	sbc	$14                     ; 0x2014 <printf+0xa98>
     73b: a8           	tay
     73c: 38           	sec
     73d: a5 16        	lda	$16                     ; 0x2016 <printf+0xa9a>
     73f: e5 12        	sbc	$12                     ; 0x2012 <printf+0xa96>
     741: 85 12        	sta	$12                     ; 0x2012 <printf+0xa96>
     743: a5 18        	lda	$18                     ; 0x2018 <printf+0xa9c>
     745: e5 13        	sbc	$13                     ; 0x2013 <printf+0xa97>
     747: 85 13        	sta	$13                     ; 0x2013 <printf+0xa97>
     749: 98           	tya
     74a: e5 14        	sbc	$14                     ; 0x2014 <printf+0xa98>
     74c: ae 13 de     	ldx	$de13                   ; 0xde13 <end_block9+0x8f8b>
     74f: a6 17        	ldx	$17                     ; 0x2017 <printf+0xa9b>
     751: 8e 01 d1     	stx	$d101                   ; 0xd101 <end_block9+0x8279>
     754: a6 15        	ldx	$15                     ; 0x2015 <printf+0xa99>
     756: 8e 02 d1     	stx	$d102                   ; 0xd102 <end_block9+0x827a>
     759: a6 19        	ldx	$19                     ; 0x2019 <printf+0xa9d>
     75b: 8e 03 d1     	stx	$d103                   ; 0xd103 <end_block9+0x827b>
     75e: a6 16        	ldx	$16                     ; 0x2016 <printf+0xa9a>
     760: 8e 09 d1     	stx	$d109                   ; 0xd109 <end_block9+0x8281>
     763: a6 18        	ldx	$18                     ; 0x2018 <printf+0xa9c>
     765: 8e 0a d1     	stx	$d10a                   ; 0xd10a <end_block9+0x8282>
     768: 8c 0b d1     	sty	$d10b                   ; 0xd10b <end_block9+0x8283>
     76b: a6 12        	ldx	$12                     ; 0x2012 <printf+0xa96>
     76d: 8e 11 d1     	stx	$d111                   ; 0xd111 <end_block9+0x8289>
     770: a6 13        	ldx	$13                     ; 0x2013 <printf+0xa97>
     772: 8e 12 d1     	stx	$d112                   ; 0xd112 <end_block9+0x828a>
     775: 8d 13 d1     	sta	$d113                   ; 0xd113 <end_block9+0x828b>
     778: 9c 00 d1     	stz	$d100                   ; 0xd100 <end_block9+0x8278>
     77b: 9c 08 d1     	stz	$d108                   ; 0xd108 <end_block9+0x8280>
     77e: 9c 10 d1     	stz	$d110                   ; 0xd110 <end_block9+0x8288>
     781: a2 10        	ldx	#$10
     783: 8e 00 d2     	stx	$d200                   ; 0xd200 <end_block9+0x8378>
     786: 8e 0c d2     	stx	$d20c                   ; 0xd20c <end_block9+0x8384>
     789: 8e 18 d2     	stx	$d218                   ; 0xd218 <end_block9+0x8390>
     78c: a0 d9        	ldy	#$d9
     78e: a2 40        	ldx	#$40
     790: 64 12        	stz	$12                     ; 0x2012 <printf+0xa96>
     792: 84 13        	sty	$13                     ; 0x2013 <printf+0xa97>
     794: a9 00        	lda	#$0
     796: 92 12        	sta	($12)                   ; 0x2012 <printf+0xa96>
     798: ca           	dex
     799: 18           	clc
     79a: a5 12        	lda	$12                     ; 0x2012 <printf+0xa96>
     79c: 69 08        	adc	#$8
     79e: 85 12        	sta	$12                     ; 0x2012 <printf+0xa96>
     7a0: 98           	tya
     7a1: 69 00        	adc	#$0
     7a3: a8           	tay
     7a4: 8a           	txa
     7a5: d0 eb        	bne	$792 <f256Init+0x31d>
     7a7: a2 3e        	ldx	#$3e
     7a9: a0 00        	ldy	#$0
     7ab: 86 fb        	stx	$fb                     ; 0x20fb <printf+0xb7f>
     7ad: 84 fc        	sty	$fc                     ; 0x20fc <printf+0xb80>
     7af: a2 08        	ldx	#$8
     7b1: 86 fd        	stx	$fd                     ; 0x20fd <printf+0xb81>
     7b3: a2 46        	ldx	#$46
     7b5: a0 00        	ldy	#$0
     7b7: 86 12        	stx	$12                     ; 0x2012 <printf+0xa96>
     7b9: 84 13        	sty	$13                     ; 0x2013 <printf+0xa97>
     7bb: a2 36        	ldx	#$36
     7bd: 86 14        	stx	$14                     ; 0x2014 <printf+0xa98>
     7bf: a2 00        	ldx	#$0
     7c1: 86 15        	stx	$15                     ; 0x2015 <printf+0xa99>
     7c3: 20 dc ff     	jsr	$ffdc <end_block9+0xb154>
     7c6: 92 12        	sta	($12)                   ; 0x2012 <printf+0xa96>
     7c8: a9 00        	lda	#$0
     7ca: 6a           	ror
     7cb: 85 14        	sta	$14                     ; 0x2014 <printf+0xa98>
     7cd: a6 44        	ldx	$44                     ; 0x2044 <printf+0xac8>
     7cf: a4 45        	ldy	$45                     ; 0x2045 <printf+0xac9>
     7d1: 8e 00 de     	stx	$de00                   ; 0xde00 <end_block9+0x8f78>
     7d4: 9c 01 de     	stz	$de01                   ; 0xde01 <end_block9+0x8f79>
     7d7: 8c 02 de     	sty	$de02                   ; 0xde02 <end_block9+0x8f7a>
     7da: 9c 03 de     	stz	$de03                   ; 0xde03 <end_block9+0x8f7b>
     7dd: ae 10 de     	ldx	$de10                   ; 0xde10 <end_block9+0x8f88>
     7e0: ac 11 de     	ldy	$de11                   ; 0xde11 <end_block9+0x8f89>
     7e3: ad 12 de     	lda	$de12                   ; 0xde12 <end_block9+0x8f8a>
     7e6: ad 13 de     	lda	$de13                   ; 0xde13 <end_block9+0x8f8b>
     7e9: 8e a4 d6     	stx	$d6a4                   ; 0xd6a4 <end_block9+0x881c>
     7ec: 8c a5 d6     	sty	$d6a5                   ; 0xd6a5 <end_block9+0x881d>
     7ef: a2 03        	ldx	#$3
     7f1: 8e a6 d6     	stx	$d6a6                   ; 0xd6a6 <end_block9+0x881e>
     7f4: 60           	rts

000007f5 <main>:
     7f5: 20 75 04     	jsr	$475 <f256Init>
     7f8: 20 fb 07     	jsr	$7fb <f256main>

000007fb <f256main>:
     7fb: 18           	clc
     7fc: a5 10        	lda	$10                     ; 0x2010 <printf+0xa94>
     7fe: 69 fe        	adc	#$fe
     800: 85 10        	sta	$10                     ; 0x2010 <printf+0xa94>
     802: a5 11        	lda	$11                     ; 0x2011 <printf+0xa95>
     804: 69 ff        	adc	#$ff
     806: 85 11        	sta	$11                     ; 0x2011 <printf+0xa95>
     808: a2 3f        	ldx	#$3f
     80a: a0 00        	ldy	#$0
     80c: 86 12        	stx	$12                     ; 0x2012 <printf+0xa96>
     80e: 84 13        	sty	$13                     ; 0x2013 <printf+0xa97>
     810: a2 1c        	ldx	#$1c
     812: 64 14        	stz	$14                     ; 0x2014 <printf+0xa98>
     814: a9 00        	lda	#$0
     816: 20 0f 24     	jsr	$240f <__memset>
     819: 64 01        	stz	$1                      ; 0x2001 <printf+0xa85>
     81b: a2 2f        	ldx	#$2f
     81d: 8e 00 d0     	stx	$d000                   ; 0xd000 <end_block9+0x8178>
     820: a2 04        	ldx	#$4
     822: 8e 01 d0     	stx	$d001                   ; 0xd001 <end_block9+0x8179>
     825: a2 01        	ldx	#$1
     827: 8e 02 d0     	stx	$d002                   ; 0xd002 <end_block9+0x817a>
     82a: e8           	inx
     82b: 8e 03 d0     	stx	$d003                   ; 0xd003 <end_block9+0x817b>
     82e: 9c 0d d0     	stz	$d00d                   ; 0xd00d <end_block9+0x8185>
     831: 9c 0e d0     	stz	$d00e                   ; 0xd00e <end_block9+0x8186>
     834: 9c 0f d0     	stz	$d00f                   ; 0xd00f <end_block9+0x8187>
     837: ad 00 d1     	lda	$d100                   ; 0xd100 <end_block9+0x8278>
     83a: 29 f9        	and	#$f9
     83c: 8d 00 d1     	sta	$d100                   ; 0xd100 <end_block9+0x8278>
     83f: 9c 00 d1     	stz	$d100                   ; 0xd100 <end_block9+0x8278>
     842: 9c 08 d1     	stz	$d108                   ; 0xd108 <end_block9+0x8280>
     845: 9c 10 d1     	stz	$d110                   ; 0xd110 <end_block9+0x8288>
     848: a2 d8        	ldx	#$d8
     84a: 64 14        	stz	$14                     ; 0x2014 <printf+0xa98>
     84c: 64 12        	stz	$12                     ; 0x2012 <printf+0xa96>
     84e: a4 12        	ldy	$12                     ; 0x2012 <printf+0xa96>
     850: 86 13        	stx	$13                     ; 0x2013 <printf+0xa97>
     852: a9 00        	lda	#$0
     854: 92 12        	sta	($12)                   ; 0x2012 <printf+0xa96>
     856: a5 12        	lda	$12                     ; 0x2012 <printf+0xa96>
     858: 09 01        	ora	#$1
     85a: 85 12        	sta	$12                     ; 0x2012 <printf+0xa96>
     85c: a9 ff        	lda	#$ff
     85e: 92 12        	sta	($12)                   ; 0x2012 <printf+0xa96>
     860: 98           	tya
     861: 09 02        	ora	#$2
     863: 85 12        	sta	$12                     ; 0x2012 <printf+0xa96>
     865: a5 14        	lda	$14                     ; 0x2014 <printf+0xa98>
     867: 92 12        	sta	($12)                   ; 0x2012 <printf+0xa96>
     869: 85 13        	sta	$13                     ; 0x2013 <printf+0xa97>
     86b: 18           	clc
     86c: 98           	tya
     86d: 69 04        	adc	#$4
     86f: 85 12        	sta	$12                     ; 0x2012 <printf+0xa96>
     871: 8a           	txa
     872: 69 00        	adc	#$0
     874: aa           	tax
     875: 18           	clc
     876: a5 13        	lda	$13                     ; 0x2013 <printf+0xa97>
     878: 69 20        	adc	#$20
     87a: 85 14        	sta	$14                     ; 0x2014 <printf+0xa98>
     87c: e0 d8        	cpx	#$d8
     87e: d0 ce        	bne	$84e <f256main+0x53>
     880: a4 12        	ldy	$12                     ; 0x2012 <printf+0xa96>
     882: c0 20        	cpy	#$20
     884: d0 c8        	bne	$84e <f256main+0x53>
     886: a9 d8        	lda	#$d8
     888: a2 20        	ldx	#$20
     88a: a0 ff        	ldy	#$ff
     88c: 84 5b        	sty	$5b                     ; 0x205b <printf+0xadf>
     88e: da           	phx
     88f: 7a           	ply
     890: 86 12        	stx	$12                     ; 0x2012 <printf+0xa96>
     892: aa           	tax
     893: 85 13        	sta	$13                     ; 0x2013 <printf+0xa97>
     895: a9 00        	lda	#$0
     897: 92 12        	sta	($12)                   ; 0x2012 <printf+0xa96>
     899: 98           	tya
     89a: 09 01        	ora	#$1
     89c: 85 12        	sta	$12                     ; 0x2012 <printf+0xa96>
     89e: 86 13        	stx	$13                     ; 0x2013 <printf+0xa97>
     8a0: a5 5b        	lda	$5b                     ; 0x205b <printf+0xadf>
     8a2: 92 12        	sta	($12)                   ; 0x2012 <printf+0xa96>
     8a4: 85 14        	sta	$14                     ; 0x2014 <printf+0xa98>
     8a6: 98           	tya
     8a7: 09 02        	ora	#$2
     8a9: 85 12        	sta	$12                     ; 0x2012 <printf+0xa96>
     8ab: 86 15        	stx	$15                     ; 0x2015 <printf+0xa99>
     8ad: a9 ff        	lda	#$ff
     8af: 92 12        	sta	($12)                   ; 0x2012 <printf+0xa96>
     8b1: 18           	clc
     8b2: 98           	tya
     8b3: 69 04        	adc	#$4
     8b5: aa           	tax
     8b6: a5 15        	lda	$15                     ; 0x2015 <printf+0xa99>
     8b8: 69 00        	adc	#$0
     8ba: a8           	tay
     8bb: 18           	clc
     8bc: a5 14        	lda	$14                     ; 0x2014 <printf+0xa98>
     8be: 69 e0        	adc	#$e0
     8c0: 85 5b        	sta	$5b                     ; 0x205b <printf+0xadf>
     8c2: 98           	tya
     8c3: c0 d8        	cpy	#$d8
     8c5: d0 c7        	bne	$88e <f256main+0x93>
     8c7: e0 40        	cpx	#$40
     8c9: d0 c3        	bne	$88e <f256main+0x93>
     8cb: a2 03        	ldx	#$3
     8cd: 86 01        	stx	$1                      ; 0x2001 <printf+0xa85>
     8cf: a9 c9        	lda	#$c9
     8d1: a2 10        	ldx	#$10
     8d3: 86 5b        	stx	$5b                     ; 0x205b <printf+0xadf>
     8d5: a2 00        	ldx	#$0
     8d7: 64 12        	stz	$12                     ; 0x2012 <printf+0xa96>
     8d9: 85 15        	sta	$15                     ; 0x2015 <printf+0xa99>
     8db: 86 17        	stx	$17                     ; 0x2017 <printf+0xa9b>
     8dd: 8a           	txa
     8de: 0a           	asl
     8df: 0a           	asl
     8e0: 0a           	asl
     8e1: 0a           	asl
     8e2: 18           	clc
     8e3: 69 10        	adc	#$10
     8e5: a2 50        	ldx	#$50
     8e7: a4 5b        	ldy	$5b                     ; 0x205b <printf+0xadf>
     8e9: 84 14        	sty	$14                     ; 0x2014 <printf+0xa98>
     8eb: 48           	pha
     8ec: a5 15        	lda	$15                     ; 0x2015 <printf+0xa99>
     8ee: 85 13        	sta	$13                     ; 0x2013 <printf+0xa97>
     8f0: 68           	pla
     8f1: 92 14        	sta	($14)                   ; 0x2014 <printf+0xa98>
     8f3: ca           	dex
     8f4: e6 14        	inc	$14                     ; 0x2014 <printf+0xa98>
     8f6: d0 02        	bne	$8fa <f256main+0xff>
     8f8: e6 15        	inc	$15                     ; 0x2015 <printf+0xa99>
     8fa: e0 00        	cpx	#$0
     8fc: d0 f3        	bne	$8f1 <f256main+0xf6>
     8fe: a6 17        	ldx	$17                     ; 0x2017 <printf+0xa9b>
     900: e8           	inx
     901: d0 02        	bne	$905 <f256main+0x10a>
     903: e6 12        	inc	$12                     ; 0x2012 <printf+0xa96>
     905: 18           	clc
     906: 98           	tya
     907: 69 b0        	adc	#$b0
     909: 85 5b        	sta	$5b                     ; 0x205b <printf+0xadf>
     90b: a5 13        	lda	$13                     ; 0x2013 <printf+0xa97>
     90d: 69 ff        	adc	#$ff
     90f: a4 12        	ldy	$12                     ; 0x2012 <printf+0xa96>
     911: d0 c6        	bne	$8d9 <f256main+0xde>
     913: e0 10        	cpx	#$10
     915: d0 c2        	bne	$8d9 <f256main+0xde>
     917: 64 01        	stz	$1                      ; 0x2001 <printf+0xa85>
     919: a2 1f        	ldx	#$1f
     91b: 8e 20 d6     	stx	$d620                   ; 0xd620 <end_block9+0x8798>
     91e: a2 2a        	ldx	#$2a
     920: 8e 21 d6     	stx	$d621                   ; 0xd621 <end_block9+0x8799>
     923: a2 01        	ldx	#$1
     925: 8e 22 d6     	stx	$d622                   ; 0xd622 <end_block9+0x879a>
     928: ad 22 d6     	lda	$d622                   ; 0xd622 <end_block9+0x879a>
     92b: 29 01        	and	#$1
     92d: 29 01        	and	#$1
     92f: d0 f7        	bne	$928 <f256main+0x12d>
     931: a2 03        	ldx	#$3
     933: 8e 01 d7     	stx	$d701                   ; 0xd701 <end_block9+0x8879>
     936: 8e 00 d7     	stx	$d700                   ; 0xd700 <end_block9+0x8878>
     939: 9c 00 d7     	stz	$d700                   ; 0xd700 <end_block9+0x8878>
     93c: ae 00 d7     	ldx	$d700                   ; 0xd700 <end_block9+0x8878>
     93f: 30 fb        	bmi	$93c <f256main+0x141>
     941: ad 02 d7     	lda	$d702                   ; 0xd702 <end_block9+0x887a>
     944: ae 03 d7     	ldx	$d703                   ; 0xd703 <end_block9+0x887b>
     947: 92 10        	sta	($10)                   ; 0x2010 <printf+0xa94>
     949: a0 01        	ldy	#$1
     94b: 8a           	txa
     94c: 91 10        	sta	($10),y                 ; 0x2010 <printf+0xa94>
     94e: a2 22        	ldx	#$22
     950: 86 12        	stx	$12                     ; 0x2012 <printf+0xa96>
     952: a2 26        	ldx	#$26
     954: 86 13        	stx	$13                     ; 0x2013 <printf+0xa97>
     956: 20 7c 15     	jsr	$157c <printf>
     959: a2 03        	ldx	#$3
     95b: 8e 01 d7     	stx	$d701                   ; 0xd701 <end_block9+0x8879>
     95e: 9c 02 d7     	stz	$d702                   ; 0xd702 <end_block9+0x887a>
     961: a2 c0        	ldx	#$c0
     963: 8e 03 d7     	stx	$d703                   ; 0xd703 <end_block9+0x887b>
     966: a2 01        	ldx	#$1
     968: 8e 00 d7     	stx	$d700                   ; 0xd700 <end_block9+0x8878>
     96b: 9c 00 d7     	stz	$d700                   ; 0xd700 <end_block9+0x8878>
     96e: ae 00 d7     	ldx	$d700                   ; 0xd700 <end_block9+0x8878>
     971: 30 fb        	bmi	$96e <f256main+0x173>
     973: a2 03        	ldx	#$3
     975: 8e 01 d7     	stx	$d701                   ; 0xd701 <end_block9+0x8879>
     978: 8e 00 d7     	stx	$d700                   ; 0xd700 <end_block9+0x8878>
     97b: 9c 00 d7     	stz	$d700                   ; 0xd700 <end_block9+0x8878>
     97e: ae 00 d7     	ldx	$d700                   ; 0xd700 <end_block9+0x8878>
     981: 30 fb        	bmi	$97e <f256main+0x183>
     983: ad 02 d7     	lda	$d702                   ; 0xd702 <end_block9+0x887a>
     986: ae 03 d7     	ldx	$d703                   ; 0xd703 <end_block9+0x887b>
     989: 92 10        	sta	($10)                   ; 0x2010 <printf+0xa94>
     98b: a0 01        	ldy	#$1
     98d: 8a           	txa
     98e: 91 10        	sta	($10),y                 ; 0x2010 <printf+0xa94>
     990: a2 35        	ldx	#$35
     992: 86 12        	stx	$12                     ; 0x2012 <printf+0xa96>
     994: a2 26        	ldx	#$26
     996: 86 13        	stx	$13                     ; 0x2013 <printf+0xa97>
     998: 20 7c 15     	jsr	$157c <printf>
     99b: 64 12        	stz	$12                     ; 0x2012 <printf+0xa96>
     99d: a2 00        	ldx	#$0
     99f: a4 12        	ldy	$12                     ; 0x2012 <printf+0xa96>
     9a1: a5 12        	lda	$12                     ; 0x2012 <printf+0xa96>
     9a3: 0a           	asl
     9a4: 85 12        	sta	$12                     ; 0x2012 <printf+0xa96>
     9a6: 8a           	txa
     9a7: 2a           	rol
     9a8: 85 13        	sta	$13                     ; 0x2013 <printf+0xa97>
     9aa: a9 17        	lda	#$17
     9ac: 18           	clc
     9ad: 65 12        	adc	$12                     ; 0x2012 <printf+0xa96>
     9af: 85 12        	sta	$12                     ; 0x2012 <printf+0xa96>
     9b1: a9 27        	lda	#$27
     9b3: 65 13        	adc	$13                     ; 0x2013 <printf+0xa97>
     9b5: 85 14        	sta	$14                     ; 0x2014 <printf+0xa98>
     9b7: a5 12        	lda	$12                     ; 0x2012 <printf+0xa96>
     9b9: 85 15        	sta	$15                     ; 0x2015 <printf+0xa99>
     9bb: a5 14        	lda	$14                     ; 0x2014 <printf+0xa98>
     9bd: 85 13        	sta	$13                     ; 0x2013 <printf+0xa97>
     9bf: b2 12        	lda	($12)                   ; 0x2012 <printf+0xa96>
     9c1: 85 16        	sta	$16                     ; 0x2016 <printf+0xa9a>
     9c3: 84 19        	sty	$19                     ; 0x2019 <printf+0xa9d>
     9c5: 98           	tya
     9c6: 18           	clc
     9c7: 69 02        	adc	#$2
     9c9: 85 17        	sta	$17                     ; 0x2017 <printf+0xa9b>
     9cb: 86 18        	stx	$18                     ; 0x2018 <printf+0xa9c>
     9cd: 8a           	txa
     9ce: 69 00        	adc	#$0
     9d0: aa           	tax
     9d1: 18           	clc
     9d2: a5 15        	lda	$15                     ; 0x2015 <printf+0xa99>
     9d4: 69 02        	adc	#$2
     9d6: a8           	tay
     9d7: a5 14        	lda	$14                     ; 0x2014 <printf+0xa98>
     9d9: 69 00        	adc	#$0
     9db: 84 14        	sty	$14                     ; 0x2014 <printf+0xa98>
     9dd: 85 15        	sta	$15                     ; 0x2015 <printf+0xa99>
     9df: a0 02        	ldy	#$2
     9e1: b1 12        	lda	($12),y                 ; 0x2012 <printf+0xa96>
     9e3: 85 12        	sta	$12                     ; 0x2012 <printf+0xa96>
     9e5: 88           	dey
     9e6: b1 14        	lda	($14),y                 ; 0x2014 <printf+0xa98>
     9e8: 10 03        	bpl	$9ed <f256main+0x1f2>
     9ea: 4c 68 0a     	jmp	$a68 <f256main+0x26d>
     9ed: a8           	tay
     9ee: 85 15        	sta	$15                     ; 0x2015 <printf+0xa99>
     9f0: a5 12        	lda	$12                     ; 0x2012 <printf+0xa96>
     9f2: c0 00        	cpy	#$0
     9f4: d0 06        	bne	$9fc <f256main+0x201>
     9f6: a8           	tay
     9f7: d0 03        	bne	$9fc <f256main+0x201>
     9f9: 4c e4 0a     	jmp	$ae4 <f256main+0x2e9>
     9fc: a4 12        	ldy	$12                     ; 0x2012 <printf+0xa96>
     9fe: 84 14        	sty	$14                     ; 0x2014 <printf+0xa98>
     a00: a4 17        	ldy	$17                     ; 0x2017 <printf+0xa9b>
     a02: 84 18        	sty	$18                     ; 0x2018 <printf+0xa9c>
     a04: a5 17        	lda	$17                     ; 0x2017 <printf+0xa9b>
     a06: 0a           	asl
     a07: 85 12        	sta	$12                     ; 0x2012 <printf+0xa96>
     a09: 86 17        	stx	$17                     ; 0x2017 <printf+0xa9b>
     a0b: 8a           	txa
     a0c: 2a           	rol
     a0d: 85 13        	sta	$13                     ; 0x2013 <printf+0xa97>
     a0f: a9 17        	lda	#$17
     a11: 18           	clc
     a12: 65 12        	adc	$12                     ; 0x2012 <printf+0xa96>
     a14: 85 12        	sta	$12                     ; 0x2012 <printf+0xa96>
     a16: a9 27        	lda	#$27
     a18: 65 13        	adc	$13                     ; 0x2013 <printf+0xa97>
     a1a: 85 13        	sta	$13                     ; 0x2013 <printf+0xa97>
     a1c: b2 12        	lda	($12)                   ; 0x2012 <printf+0xa96>
     a1e: 85 19        	sta	$19                     ; 0x2019 <printf+0xa9d>
     a20: a0 01        	ldy	#$1
     a22: b1 12        	lda	($12),y                 ; 0x2012 <printf+0xa96>
     a24: a6 16        	ldx	$16                     ; 0x2016 <printf+0xa9a>
     a26: 8e 01 d7     	stx	$d701                   ; 0xd701 <end_block9+0x8879>
     a29: a6 19        	ldx	$19                     ; 0x2019 <printf+0xa9d>
     a2b: 8e 02 d7     	stx	$d702                   ; 0xd702 <end_block9+0x887a>
     a2e: 8d 03 d7     	sta	$d703                   ; 0xd703 <end_block9+0x887b>
     a31: 8c 00 d7     	sty	$d700                   ; 0xd700 <end_block9+0x8878>
     a34: 9c 00 d7     	stz	$d700                   ; 0xd700 <end_block9+0x8878>
     a37: ae 00 d7     	ldx	$d700                   ; 0xd700 <end_block9+0x8878>
     a3a: 30 fb        	bmi	$a37 <f256main+0x23c>
     a3c: a4 15        	ldy	$15                     ; 0x2015 <printf+0xa99>
     a3e: a2 ff        	ldx	#$ff
     a40: c6 14        	dec	$14                     ; 0x2014 <printf+0xa98>
     a42: e4 14        	cpx	$14                     ; 0x2014 <printf+0xa98>
     a44: d0 01        	bne	$a47 <f256main+0x24c>
     a46: 88           	dey
     a47: a6 17        	ldx	$17                     ; 0x2017 <printf+0xa9b>
     a49: a5 18        	lda	$18                     ; 0x2018 <printf+0xa9c>
     a4b: 85 17        	sta	$17                     ; 0x2017 <printf+0xa9b>
     a4d: e6 17        	inc	$17                     ; 0x2017 <printf+0xa9b>
     a4f: d0 01        	bne	$a52 <f256main+0x257>
     a51: e8           	inx
     a52: 84 15        	sty	$15                     ; 0x2015 <printf+0xa99>
     a54: a5 14        	lda	$14                     ; 0x2014 <printf+0xa98>
     a56: 85 12        	sta	$12                     ; 0x2012 <printf+0xa96>
     a58: 98           	tya
     a59: f0 03        	beq	$a5e <f256main+0x263>
     a5b: 4c fc 09     	jmp	$9fc <f256main+0x201>
     a5e: a5 14        	lda	$14                     ; 0x2014 <printf+0xa98>
     a60: f0 03        	beq	$a65 <f256main+0x26a>
     a62: 4c fc 09     	jmp	$9fc <f256main+0x201>
     a65: 4c e4 0a     	jmp	$ae4 <f256main+0x2e9>
     a68: 29 7f        	and	#$7f
     a6a: 85 13        	sta	$13                     ; 0x2013 <printf+0xa97>
     a6c: 18           	clc
     a6d: a4 12        	ldy	$12                     ; 0x2012 <printf+0xa96>
     a6f: a5 19        	lda	$19                     ; 0x2019 <printf+0xa9d>
     a71: 69 03        	adc	#$3
     a73: 85 15        	sta	$15                     ; 0x2015 <printf+0xa99>
     a75: a5 18        	lda	$18                     ; 0x2018 <printf+0xa9c>
     a77: 69 00        	adc	#$0
     a79: e6 13        	inc	$13                     ; 0x2013 <printf+0xa97>
     a7b: c6 13        	dec	$13                     ; 0x2013 <printf+0xa97>
     a7d: d0 07        	bne	$a86 <f256main+0x28b>
     a7f: c0 00        	cpy	#$0
     a81: d0 03        	bne	$a86 <f256main+0x28b>
     a83: 4c e0 0f     	jmp	$fe0 <f256main+0x7e5>
     a86: 5a           	phy
     a87: a4 13        	ldy	$13                     ; 0x2013 <printf+0xa97>
     a89: 84 14        	sty	$14                     ; 0x2014 <printf+0xa98>
     a8b: 7a           	ply
     a8c: 85 18        	sta	$18                     ; 0x2018 <printf+0xa9c>
     a8e: a5 17        	lda	$17                     ; 0x2017 <printf+0xa9b>
     a90: 85 12        	sta	$12                     ; 0x2012 <printf+0xa96>
     a92: 06 12        	asl	$12                     ; 0x2012 <printf+0xa96>
     a94: 86 13        	stx	$13                     ; 0x2013 <printf+0xa97>
     a96: 26 13        	rol	$13                     ; 0x2013 <printf+0xa97>
     a98: 18           	clc
     a99: a9 17        	lda	#$17
     a9b: 65 12        	adc	$12                     ; 0x2012 <printf+0xa96>
     a9d: 85 12        	sta	$12                     ; 0x2012 <printf+0xa96>
     a9f: a9 27        	lda	#$27
     aa1: 65 13        	adc	$13                     ; 0x2013 <printf+0xa97>
     aa3: 85 13        	sta	$13                     ; 0x2013 <printf+0xa97>
     aa5: 84 19        	sty	$19                     ; 0x2019 <printf+0xa9d>
     aa7: b2 12        	lda	($12)                   ; 0x2012 <printf+0xa96>
     aa9: 85 17        	sta	$17                     ; 0x2017 <printf+0xa9b>
     aab: a0 01        	ldy	#$1
     aad: b1 12        	lda	($12),y                 ; 0x2012 <printf+0xa96>
     aaf: a6 16        	ldx	$16                     ; 0x2016 <printf+0xa9a>
     ab1: 8e 01 d7     	stx	$d701                   ; 0xd701 <end_block9+0x8879>
     ab4: a6 17        	ldx	$17                     ; 0x2017 <printf+0xa9b>
     ab6: 8e 02 d7     	stx	$d702                   ; 0xd702 <end_block9+0x887a>
     ab9: 8d 03 d7     	sta	$d703                   ; 0xd703 <end_block9+0x887b>
     abc: a2 01        	ldx	#$1
     abe: 8e 00 d7     	stx	$d700                   ; 0xd700 <end_block9+0x8878>
     ac1: 9c 00 d7     	stz	$d700                   ; 0xd700 <end_block9+0x8878>
     ac4: ae 00 d7     	ldx	$d700                   ; 0xd700 <end_block9+0x8878>
     ac7: 30 fb        	bmi	$ac4 <f256main+0x2c9>
     ac9: a4 14        	ldy	$14                     ; 0x2014 <printf+0xa98>
     acb: a2 ff        	ldx	#$ff
     acd: c6 19        	dec	$19                     ; 0x2019 <printf+0xa9d>
     acf: e4 19        	cpx	$19                     ; 0x2019 <printf+0xa9d>
     ad1: d0 01        	bne	$ad4 <f256main+0x2d9>
     ad3: 88           	dey
     ad4: 84 14        	sty	$14                     ; 0x2014 <printf+0xa98>
     ad6: c0 00        	cpy	#$0
     ad8: d0 d5        	bne	$aaf <f256main+0x2b4>
     ada: a6 19        	ldx	$19                     ; 0x2019 <printf+0xa9d>
     adc: d0 d1        	bne	$aaf <f256main+0x2b4>
     ade: a6 15        	ldx	$15                     ; 0x2015 <printf+0xa99>
     ae0: 86 17        	stx	$17                     ; 0x2017 <printf+0xa9b>
     ae2: a6 18        	ldx	$18                     ; 0x2018 <printf+0xa9c>
     ae4: a4 17        	ldy	$17                     ; 0x2017 <printf+0xa9b>
     ae6: e0 03        	cpx	#$3
     ae8: d0 04        	bne	$aee <f256main+0x2f3>
     aea: c0 b6        	cpy	#$b6
     aec: 80 02        	bra	$af0 <f256main+0x2f5>
     aee: e0 03        	cpx	#$3
     af0: 84 12        	sty	$12                     ; 0x2012 <printf+0xa96>
     af2: b0 03        	bcs	$af7 <f256main+0x2fc>
     af4: 4c 9f 09     	jmp	$99f <f256main+0x1a4>
     af7: a9 f0        	lda	#$f0
     af9: 92 10        	sta	($10)                   ; 0x2010 <printf+0xa94>
     afb: a0 01        	ldy	#$1
     afd: a9 26        	lda	#$26
     aff: 91 10        	sta	($10),y                 ; 0x2010 <printf+0xa94>
     b01: a2 de        	ldx	#$de
     b03: 86 12        	stx	$12                     ; 0x2012 <printf+0xa96>
     b05: a2 26        	ldx	#$26
     b07: 86 13        	stx	$13                     ; 0x2013 <printf+0xa97>
     b09: 20 7c 15     	jsr	$157c <printf>
     b0c: 20 2f 24     	jsr	$242f <strlen>
     b0f: 85 15        	sta	$15                     ; 0x2015 <printf+0xa99>
     b11: a2 a6        	ldx	#$a6
     b13: 86 12        	stx	$12                     ; 0x2012 <printf+0xa96>
     b15: a2 26        	ldx	#$26
     b17: 86 13        	stx	$13                     ; 0x2013 <printf+0xa97>
     b19: a2 00        	ldx	#$0
     b1b: 80 0a        	bra	$b27 <f256main+0x32c>
     b1d: a0 02        	ldy	#$2
     b1f: e6 12        	inc	$12                     ; 0x2012 <printf+0xa96>
     b21: d0 02        	bne	$b25 <f256main+0x32a>
     b23: e6 13        	inc	$13                     ; 0x2013 <printf+0xa97>
     b25: 5a           	phy
     b26: fa           	plx
     b27: b2 12        	lda	($12)                   ; 0x2012 <printf+0xa96>
     b29: c9 61        	cmp	#$61
     b2b: f0 f0        	beq	$b1d <f256main+0x322>
     b2d: 85 14        	sta	$14                     ; 0x2014 <printf+0xa98>
     b2f: a0 01        	ldy	#$1
     b31: c9 77        	cmp	#$77
     b33: f0 ea        	beq	$b1f <f256main+0x324>
     b35: a5 14        	lda	$14                     ; 0x2014 <printf+0xa98>
     b37: f0 04        	beq	$b3d <f256main+0x342>
     b39: da           	phx
     b3a: 7a           	ply
     b3b: 80 e2        	bra	$b1f <f256main+0x324>
     b3d: a0 f0        	ldy	#$f0
     b3f: a9 26        	lda	#$26
     b41: 84 fb        	sty	$fb                     ; 0x20fb <printf+0xb7f>
     b43: 85 fc        	sta	$fc                     ; 0x20fc <printf+0xb80>
     b45: a5 15        	lda	$15                     ; 0x2015 <printf+0xa99>
     b47: 85 fd        	sta	$fd                     ; 0x20fd <printf+0xb81>
     b49: 64 f3        	stz	$f3                     ; 0x20f3 <printf+0xb77>
     b4b: 86 f5        	stx	$f5                     ; 0x20f5 <printf+0xb79>
     b4d: a2 88        	ldx	#$88
     b4f: a0 2e        	ldy	#$2e
     b51: 86 12        	stx	$12                     ; 0x2012 <printf+0xa96>
     b53: 84 13        	sty	$13                     ; 0x2013 <printf+0xa97>
     b55: a2 36        	ldx	#$36
     b57: 86 14        	stx	$14                     ; 0x2014 <printf+0xa98>
     b59: a2 00        	ldx	#$0
     b5b: 86 15        	stx	$15                     ; 0x2015 <printf+0xa99>
     b5d: 20 5c ff     	jsr	$ff5c <end_block9+0xb0d4>
     b60: 92 12        	sta	($12)                   ; 0x2012 <printf+0xa96>
     b62: a9 00        	lda	#$0
     b64: 6a           	ror
     b65: 85 14        	sta	$14                     ; 0x2014 <printf+0xa98>
     b67: a6 36        	ldx	$36                     ; 0x2036 <printf+0xaba>
     b69: d0 03        	bne	$b6e <f256main+0x373>
     b6b: 4c 9d 0f     	jmp	$f9d <f256main+0x7a2>
     b6e: a2 00        	ldx	#$0
     b70: 86 12        	stx	$12                     ; 0x2012 <printf+0xa96>
     b72: a2 00        	ldx	#$0
     b74: 86 13        	stx	$13                     ; 0x2013 <printf+0xa97>
     b76: a6 12        	ldx	$12                     ; 0x2012 <printf+0xa96>
     b78: a4 13        	ldy	$13                     ; 0x2013 <printf+0xa97>
     b7a: 86 34        	stx	$34                     ; 0x2034 <printf+0xab8>
     b7c: 84 35        	sty	$35                     ; 0x2035 <printf+0xab9>
     b7e: a9 f0        	lda	#$f0
     b80: 92 10        	sta	($10)                   ; 0x2010 <printf+0xa94>
     b82: a0 01        	ldy	#$1
     b84: a9 26        	lda	#$26
     b86: 91 10        	sta	($10),y                 ; 0x2010 <printf+0xa94>
     b88: a2 fb        	ldx	#$fb
     b8a: 86 12        	stx	$12                     ; 0x2012 <printf+0xa96>
     b8c: a2 26        	ldx	#$26
     b8e: 86 13        	stx	$13                     ; 0x2013 <printf+0xa97>
     b90: 20 7c 15     	jsr	$157c <printf>
     b93: a6 34        	ldx	$34                     ; 0x2034 <printf+0xab8>
     b95: a4 35        	ldy	$35                     ; 0x2035 <printf+0xab9>
     b97: 86 24        	stx	$24                     ; 0x2024 <printf+0xaa8>
     b99: 84 25        	sty	$25                     ; 0x2025 <printf+0xaa9>
     b9b: a2 88        	ldx	#$88
     b9d: a0 2e        	ldy	#$2e
     b9f: 86 26        	stx	$26                     ; 0x2026 <printf+0xaaa>
     ba1: 84 27        	sty	$27                     ; 0x2027 <printf+0xaab>
     ba3: a2 40        	ldx	#$40
     ba5: a4 26        	ldy	$26                     ; 0x2026 <printf+0xaaa>
     ba7: 84 12        	sty	$12                     ; 0x2012 <printf+0xa96>
     ba9: a4 27        	ldy	$27                     ; 0x2027 <printf+0xaab>
     bab: 84 13        	sty	$13                     ; 0x2013 <printf+0xa97>
     bad: a4 24        	ldy	$24                     ; 0x2024 <printf+0xaa8>
     baf: 84 14        	sty	$14                     ; 0x2014 <printf+0xa98>
     bb1: a4 25        	ldy	$25                     ; 0x2025 <printf+0xaa9>
     bb3: 84 15        	sty	$15                     ; 0x2015 <printf+0xa99>
     bb5: 86 28        	stx	$28                     ; 0x2028 <printf+0xaac>
     bb7: a2 00        	ldx	#$0
     bb9: a9 80        	lda	#$80
     bbb: 20 e8 0f     	jsr	$fe8 <fileRead>
     bbe: a6 28        	ldx	$28                     ; 0x2028 <printf+0xaac>
     bc0: ca           	dex
     bc1: a5 26        	lda	$26                     ; 0x2026 <printf+0xaaa>
     bc3: 18           	clc
     bc4: 69 80        	adc	#$80
     bc6: 85 26        	sta	$26                     ; 0x2026 <printf+0xaaa>
     bc8: a5 27        	lda	$27                     ; 0x2027 <printf+0xaab>
     bca: 69 00        	adc	#$0
     bcc: 85 27        	sta	$27                     ; 0x2027 <printf+0xaab>
     bce: 8a           	txa
     bcf: d0 d4        	bne	$ba5 <f256main+0x3aa>
     bd1: a2 a9        	ldx	#$a9
     bd3: 86 12        	stx	$12                     ; 0x2012 <printf+0xa96>
     bd5: a2 26        	ldx	#$26
     bd7: 86 13        	stx	$13                     ; 0x2013 <printf+0xa97>
     bd9: 20 7c 15     	jsr	$157c <printf>
     bdc: a2 07        	ldx	#$7
     bde: 8e 01 d7     	stx	$d701                   ; 0xd701 <end_block9+0x8879>
     be1: a2 02        	ldx	#$2
     be3: 8e 02 d7     	stx	$d702                   ; 0xd702 <end_block9+0x887a>
     be6: a2 18        	ldx	#$18
     be8: 8e 03 d7     	stx	$d703                   ; 0xd703 <end_block9+0x887b>
     beb: a2 01        	ldx	#$1
     bed: 8e 00 d7     	stx	$d700                   ; 0xd700 <end_block9+0x8878>
     bf0: 9c 00 d7     	stz	$d700                   ; 0xd700 <end_block9+0x8878>
     bf3: ae 00 d7     	ldx	$d700                   ; 0xd700 <end_block9+0x8878>
     bf6: 30 fb        	bmi	$bf3 <f256main+0x3f8>
     bf8: a2 06        	ldx	#$6
     bfa: 8e 01 d7     	stx	$d701                   ; 0xd701 <end_block9+0x8879>
     bfd: a2 03        	ldx	#$3
     bff: 8e 00 d7     	stx	$d700                   ; 0xd700 <end_block9+0x8878>
     c02: 9c 00 d7     	stz	$d700                   ; 0xd700 <end_block9+0x8878>
     c05: ae 00 d7     	ldx	$d700                   ; 0xd700 <end_block9+0x8878>
     c08: 30 fb        	bmi	$c05 <f256main+0x40a>
     c0a: ad 02 d7     	lda	$d702                   ; 0xd702 <end_block9+0x887a>
     c0d: ae 03 d7     	ldx	$d703                   ; 0xd703 <end_block9+0x887b>
     c10: 92 10        	sta	($10)                   ; 0x2010 <printf+0xa94>
     c12: a0 01        	ldy	#$1
     c14: 8a           	txa
     c15: 91 10        	sta	($10),y                 ; 0x2010 <printf+0xa94>
     c17: a2 48        	ldx	#$48
     c19: 86 12        	stx	$12                     ; 0x2012 <printf+0xa96>
     c1b: a2 26        	ldx	#$26
     c1d: 86 13        	stx	$13                     ; 0x2013 <printf+0xa97>
     c1f: 20 7c 15     	jsr	$157c <printf>
     c22: a2 3e        	ldx	#$3e
     c24: a0 00        	ldy	#$0
     c26: 86 12        	stx	$12                     ; 0x2012 <printf+0xa96>
     c28: 84 13        	sty	$13                     ; 0x2013 <printf+0xa97>
     c2a: a2 36        	ldx	#$36
     c2c: 86 14        	stx	$14                     ; 0x2014 <printf+0xa98>
     c2e: a2 00        	ldx	#$0
     c30: 86 15        	stx	$15                     ; 0x2015 <printf+0xa99>
     c32: 64 37        	stz	$37                     ; 0x2037 <printf+0xabb>
     c34: 20 00 ff     	jsr	$ff00 <end_block9+0xb078>
     c37: 92 12        	sta	($12)                   ; 0x2012 <printf+0xa96>
     c39: a9 00        	lda	#$0
     c3b: 6a           	ror
     c3c: 85 14        	sta	$14                     ; 0x2014 <printf+0xa98>
     c3e: a6 37        	ldx	$37                     ; 0x2037 <printf+0xabb>
     c40: e0 08        	cpx	#$8
     c42: d0 ee        	bne	$c32 <f256main+0x437>
     c44: a6 3b        	ldx	$3b                     ; 0x203b <printf+0xabf>
     c46: e0 20        	cpx	#$20
     c48: f0 04        	beq	$c4e <f256main+0x453>
     c4a: e0 94        	cpx	#$94
     c4c: d0 e4        	bne	$c32 <f256main+0x437>
     c4e: a2 e6        	ldx	#$e6
     c50: 86 12        	stx	$12                     ; 0x2012 <printf+0xa96>
     c52: a2 25        	ldx	#$25
     c54: 86 13        	stx	$13                     ; 0x2013 <printf+0xa97>
     c56: 20 7c 15     	jsr	$157c <printf>
     c59: a2 88        	ldx	#$88
     c5b: a0 2e        	ldy	#$2e
     c5d: 86 12        	stx	$12                     ; 0x2012 <printf+0xa96>
     c5f: 84 13        	sty	$13                     ; 0x2013 <printf+0xa97>
     c61: a0 08        	ldy	#$8
     c63: a2 00        	ldx	#$0
     c65: b2 12        	lda	($12)                   ; 0x2012 <printf+0xa96>
     c67: 8d 07 d7     	sta	$d707                   ; 0xd707 <end_block9+0x887f>
     c6a: ca           	dex
     c6b: e0 ff        	cpx	#$ff
     c6d: d0 01        	bne	$c70 <f256main+0x475>
     c6f: 88           	dey
     c70: e6 12        	inc	$12                     ; 0x2012 <printf+0xa96>
     c72: d0 02        	bne	$c76 <f256main+0x47b>
     c74: e6 13        	inc	$13                     ; 0x2013 <printf+0xa97>
     c76: 98           	tya
     c77: d0 ec        	bne	$c65 <f256main+0x46a>
     c79: 8a           	txa
     c7a: d0 e9        	bne	$c65 <f256main+0x46a>
     c7c: a9 88        	lda	#$88
     c7e: 18           	clc
     c7f: 69 00        	adc	#$0
     c81: 85 12        	sta	$12                     ; 0x2012 <printf+0xa96>
     c83: a9 2e        	lda	#$2e
     c85: 69 08        	adc	#$8
     c87: 85 13        	sta	$13                     ; 0x2013 <printf+0xa97>
     c89: a0 08        	ldy	#$8
     c8b: a2 00        	ldx	#$0
     c8d: b2 12        	lda	($12)                   ; 0x2012 <printf+0xa96>
     c8f: 8d 07 d7     	sta	$d707                   ; 0xd707 <end_block9+0x887f>
     c92: ca           	dex
     c93: e0 ff        	cpx	#$ff
     c95: d0 01        	bne	$c98 <f256main+0x49d>
     c97: 88           	dey
     c98: e6 12        	inc	$12                     ; 0x2012 <printf+0xa96>
     c9a: d0 02        	bne	$c9e <f256main+0x4a3>
     c9c: e6 13        	inc	$13                     ; 0x2013 <printf+0xa97>
     c9e: 98           	tya
     c9f: d0 ec        	bne	$c8d <f256main+0x492>
     ca1: 8a           	txa
     ca2: d0 e9        	bne	$c8d <f256main+0x492>
     ca4: a2 5d        	ldx	#$5d
     ca6: 86 12        	stx	$12                     ; 0x2012 <printf+0xa96>
     ca8: a2 26        	ldx	#$26
     caa: 86 13        	stx	$13                     ; 0x2013 <printf+0xa97>
     cac: 20 7c 15     	jsr	$157c <printf>
     caf: a2 8e        	ldx	#$8e
     cb1: 86 12        	stx	$12                     ; 0x2012 <printf+0xa96>
     cb3: a2 26        	ldx	#$26
     cb5: 86 13        	stx	$13                     ; 0x2013 <printf+0xa97>
     cb7: 20 7c 15     	jsr	$157c <printf>
     cba: a2 10        	ldx	#$10
     cbc: 86 5e        	stx	$5e                     ; 0x205e <printf+0xae2>
     cbe: a9 07        	lda	#$7
     cc0: 64 26        	stz	$26                     ; 0x2026 <printf+0xaaa>
     cc2: 64 27        	stz	$27                     ; 0x2027 <printf+0xaab>
     cc4: 64 28        	stz	$28                     ; 0x2028 <printf+0xaac>
     cc6: 4c 9c 0e     	jmp	$e9c <f256main+0x6a1>
     cc9: e0 00        	cpx	#$0
     ccb: 90 03        	bcc	$cd0 <f256main+0x4d5>
     ccd: 4c 58 0d     	jmp	$d58 <f256main+0x55d>
     cd0: a4 13        	ldy	$13                     ; 0x2013 <printf+0xa97>
     cd2: 06 13        	asl	$13                     ; 0x2013 <printf+0xa97>
     cd4: 26 12        	rol	$12                     ; 0x2012 <printf+0xa96>
     cd6: 06 13        	asl	$13                     ; 0x2013 <printf+0xa97>
     cd8: 26 12        	rol	$12                     ; 0x2012 <printf+0xa96>
     cda: 06 13        	asl	$13                     ; 0x2013 <printf+0xa97>
     cdc: 26 12        	rol	$12                     ; 0x2012 <printf+0xa96>
     cde: 06 13        	asl	$13                     ; 0x2013 <printf+0xa97>
     ce0: 26 12        	rol	$12                     ; 0x2012 <printf+0xa96>
     ce2: a5 13        	lda	$13                     ; 0x2013 <printf+0xa97>
     ce4: 0a           	asl
     ce5: aa           	tax
     ce6: a5 12        	lda	$12                     ; 0x2012 <printf+0xa96>
     ce8: 2a           	rol
     ce9: 86 15        	stx	$15                     ; 0x2015 <printf+0xa99>
     ceb: 06 15        	asl	$15                     ; 0x2015 <printf+0xa99>
     ced: 2a           	rol
     cee: aa           	tax
     cef: 18           	clc
     cf0: a5 15        	lda	$15                     ; 0x2015 <printf+0xa99>
     cf2: 65 13        	adc	$13                     ; 0x2013 <printf+0xa97>
     cf4: 85 13        	sta	$13                     ; 0x2013 <printf+0xa97>
     cf6: 8a           	txa
     cf7: 65 12        	adc	$12                     ; 0x2012 <printf+0xa96>
     cf9: 85 12        	sta	$12                     ; 0x2012 <printf+0xa96>
     cfb: 38           	sec
     cfc: a6 5b        	ldx	$5b                     ; 0x205b <printf+0xadf>
     cfe: 8a           	txa
     cff: e5 13        	sbc	$13                     ; 0x2013 <printf+0xa97>
     d01: 85 16        	sta	$16                     ; 0x2016 <printf+0xa9a>
     d03: a6 5c        	ldx	$5c                     ; 0x205c <printf+0xae0>
     d05: 8a           	txa
     d06: e5 12        	sbc	$12                     ; 0x2012 <printf+0xa96>
     d08: 85 17        	sta	$17                     ; 0x2017 <printf+0xa9b>
     d0a: a5 1b        	lda	$1b                     ; 0x201b <printf+0xa9f>
     d0c: 38           	sec
     d0d: e5 13        	sbc	$13                     ; 0x2013 <printf+0xa97>
     d0f: 85 13        	sta	$13                     ; 0x2013 <printf+0xa97>
     d11: a5 1d        	lda	$1d                     ; 0x201d <printf+0xaa1>
     d13: e5 12        	sbc	$12                     ; 0x2012 <printf+0xa96>
     d15: 85 18        	sta	$18                     ; 0x2018 <printf+0xa9c>
     d17: a2 ff        	ldx	#$ff
     d19: 98           	tya
     d1a: 09 f0        	ora	#$f0
     d1c: 85 15        	sta	$15                     ; 0x2015 <printf+0xa99>
     d1e: a4 13        	ldy	$13                     ; 0x2013 <printf+0xa97>
     d20: 84 19        	sty	$19                     ; 0x2019 <printf+0xa9d>
     d22: a4 13        	ldy	$13                     ; 0x2013 <printf+0xa97>
     d24: 84 12        	sty	$12                     ; 0x2012 <printf+0xa96>
     d26: a4 18        	ldy	$18                     ; 0x2018 <printf+0xa9c>
     d28: 84 13        	sty	$13                     ; 0x2013 <printf+0xa97>
     d2a: a9 20        	lda	#$20
     d2c: 92 12        	sta	($12)                   ; 0x2012 <printf+0xa96>
     d2e: 92 16        	sta	($16)                   ; 0x2016 <printf+0xa9a>
     d30: a4 15        	ldy	$15                     ; 0x2015 <printf+0xa99>
     d32: c8           	iny
     d33: d0 01        	bne	$d36 <f256main+0x53b>
     d35: e8           	inx
     d36: 18           	clc
     d37: a5 16        	lda	$16                     ; 0x2016 <printf+0xa9a>
     d39: 69 b0        	adc	#$b0
     d3b: 85 16        	sta	$16                     ; 0x2016 <printf+0xa9a>
     d3d: a5 17        	lda	$17                     ; 0x2017 <printf+0xa9b>
     d3f: 69 ff        	adc	#$ff
     d41: 85 17        	sta	$17                     ; 0x2017 <printf+0xa9b>
     d43: 18           	clc
     d44: a5 19        	lda	$19                     ; 0x2019 <printf+0xa9d>
     d46: 69 b0        	adc	#$b0
     d48: 85 13        	sta	$13                     ; 0x2013 <printf+0xa97>
     d4a: a5 18        	lda	$18                     ; 0x2018 <printf+0xa9c>
     d4c: 69 ff        	adc	#$ff
     d4e: 85 18        	sta	$18                     ; 0x2018 <printf+0xa9c>
     d50: 84 15        	sty	$15                     ; 0x2015 <printf+0xa99>
     d52: 8a           	txa
     d53: d0 c9        	bne	$d1e <f256main+0x523>
     d55: 98           	tya
     d56: d0 c6        	bne	$d1e <f256main+0x523>
     d58: a6 1e        	ldx	$1e                     ; 0x201e <printf+0xaa2>
     d5a: e8           	inx
     d5b: d0 02        	bne	$d5f <f256main+0x564>
     d5d: e6 14        	inc	$14                     ; 0x2014 <printf+0xa98>
     d5f: 18           	clc
     d60: a5 1c        	lda	$1c                     ; 0x201c <printf+0xaa0>
     d62: 69 02        	adc	#$2
     d64: 85 12        	sta	$12                     ; 0x2012 <printf+0xa96>
     d66: 18           	clc
     d67: a5 1b        	lda	$1b                     ; 0x201b <printf+0xa9f>
     d69: 69 02        	adc	#$2
     d6b: a8           	tay
     d6c: a5 1d        	lda	$1d                     ; 0x201d <printf+0xaa1>
     d6e: 69 00        	adc	#$0
     d70: 85 5d        	sta	$5d                     ; 0x205d <printf+0xae1>
     d72: 18           	clc
     d73: a5 5b        	lda	$5b                     ; 0x205b <printf+0xadf>
     d75: 69 02        	adc	#$2
     d77: 85 5b        	sta	$5b                     ; 0x205b <printf+0xadf>
     d79: a5 5c        	lda	$5c                     ; 0x205c <printf+0xae0>
     d7b: 69 00        	adc	#$0
     d7d: 85 5c        	sta	$5c                     ; 0x205c <printf+0xae0>
     d7f: 98           	tya
     d80: a4 14        	ldy	$14                     ; 0x2014 <printf+0xa98>
     d82: f0 03        	beq	$d87 <f256main+0x58c>
     d84: 4c 11 0f     	jmp	$f11 <f256main+0x716>
     d87: e0 0e        	cpx	#$e
     d89: f0 03        	beq	$d8e <f256main+0x593>
     d8b: 4c 11 0f     	jmp	$f11 <f256main+0x716>
     d8e: a6 1a        	ldx	$1a                     ; 0x201a <printf+0xa9e>
     d90: 86 01        	stx	$1                      ; 0x2001 <printf+0xa85>
     d92: ae 04 d7     	ldx	$d704                   ; 0xd704 <end_block9+0x887c>
     d95: 86 12        	stx	$12                     ; 0x2012 <printf+0xa96>
     d97: ad 05 d7     	lda	$d705                   ; 0xd705 <end_block9+0x887d>
     d9a: 29 0f        	and	#$f
     d9c: 85 13        	sta	$13                     ; 0x2013 <printf+0xa97>
     d9e: 38           	sec
     d9f: a9 00        	lda	#$0
     da1: e5 12        	sbc	$12                     ; 0x2012 <printf+0xa96>
     da3: 85 12        	sta	$12                     ; 0x2012 <printf+0xa96>
     da5: a9 08        	lda	#$8
     da7: e5 13        	sbc	$13                     ; 0x2013 <printf+0xa97>
     da9: 06 12        	asl	$12                     ; 0x2012 <printf+0xa96>
     dab: 2a           	rol
     dac: 64 25        	stz	$25                     ; 0x2025 <printf+0xaa9>
     dae: 26 25        	rol	$25                     ; 0x2025 <printf+0xaa9>
     db0: 06 12        	asl	$12                     ; 0x2012 <printf+0xa96>
     db2: 2a           	rol
     db3: 85 24        	sta	$24                     ; 0x2024 <printf+0xaa8>
     db5: 26 25        	rol	$25                     ; 0x2025 <printf+0xaa9>
     db7: 64 30        	stz	$30                     ; 0x2030 <printf+0xab4>
     db9: 9c 14 d0     	stz	$d014                   ; 0xd014 <end_block9+0x818c>
     dbc: 9c 15 d0     	stz	$d015                   ; 0xd015 <end_block9+0x818d>
     dbf: a2 07        	ldx	#$7
     dc1: 86 31        	stx	$31                     ; 0x2031 <printf+0xab5>
     dc3: 8e 16 d0     	stx	$d016                   ; 0xd016 <end_block9+0x818e>
     dc6: 9c 17 d0     	stz	$d017                   ; 0xd017 <end_block9+0x818f>
     dc9: 38           	sec
     dca: a9 20        	lda	#$20
     dcc: e5 24        	sbc	$24                     ; 0x2024 <printf+0xaa8>
     dce: a8           	tay
     dcf: a9 00        	lda	#$0
     dd1: e5 25        	sbc	$25                     ; 0x2025 <printf+0xaa9>
     dd3: 64 12        	stz	$12                     ; 0x2012 <printf+0xa96>
     dd5: 64 13        	stz	$13                     ; 0x2013 <printf+0xa97>
     dd7: aa           	tax
     dd8: 98           	tya
     dd9: 20 d1 12     	jsr	$12d1 <textPrintUInt>
     ddc: a2 20        	ldx	#$20
     dde: 86 12        	stx	$12                     ; 0x2012 <printf+0xa96>
     de0: a2 26        	ldx	#$26
     de2: 86 13        	stx	$13                     ; 0x2013 <printf+0xa97>
     de4: 20 19 11     	jsr	$1119 <textPrint>
     de7: a9 07        	lda	#$7
     de9: a6 25        	ldx	$25                     ; 0x2025 <printf+0xaa9>
     deb: d0 07        	bne	$df4 <f256main+0x5f9>
     ded: a6 24        	ldx	$24                     ; 0x2024 <printf+0xaa8>
     def: d0 03        	bne	$df4 <f256main+0x5f9>
     df1: 4c 9c 0e     	jmp	$e9c <f256main+0x6a1>
     df4: a2 00        	ldx	#$0
     df6: a0 00        	ldy	#$0
     df8: 84 2a        	sty	$2a                     ; 0x202a <printf+0xaae>
     dfa: 86 29        	stx	$29                     ; 0x2029 <printf+0xaad>
     dfc: a9 88        	lda	#$88
     dfe: 18           	clc
     dff: 65 26        	adc	$26                     ; 0x2026 <printf+0xaaa>
     e01: a8           	tay
     e02: a6 5e        	ldx	$5e                     ; 0x205e <printf+0xae2>
     e04: 86 12        	stx	$12                     ; 0x2012 <printf+0xa96>
     e06: a9 2e        	lda	#$2e
     e08: 65 12        	adc	$12                     ; 0x2012 <printf+0xa96>
     e0a: 84 12        	sty	$12                     ; 0x2012 <printf+0xa96>
     e0c: 85 13        	sta	$13                     ; 0x2013 <printf+0xa97>
     e0e: a0 00        	ldy	#$0
     e10: b1 12        	lda	($12),y                 ; 0x2012 <printf+0xa96>
     e12: 8d 07 d7     	sta	$d707                   ; 0xd707 <end_block9+0x887f>
     e15: c8           	iny
     e16: c0 40        	cpy	#$40
     e18: d0 f6        	bne	$e10 <f256main+0x615>
     e1a: 18           	clc
     e1b: a5 26        	lda	$26                     ; 0x2026 <printf+0xaaa>
     e1d: 69 40        	adc	#$40
     e1f: aa           	tax
     e20: a5 5e        	lda	$5e                     ; 0x205e <printf+0xae2>
     e22: 69 00        	adc	#$0
     e24: 85 5e        	sta	$5e                     ; 0x205e <printf+0xae2>
     e26: c9 20        	cmp	#$20
     e28: d0 0f        	bne	$e39 <f256main+0x63e>
     e2a: 86 26        	stx	$26                     ; 0x2026 <printf+0xaaa>
     e2c: a4 27        	ldy	$27                     ; 0x2027 <printf+0xaab>
     e2e: 8a           	txa
     e2f: d0 0c        	bne	$e3d <f256main+0x642>
     e31: 64 26        	stz	$26                     ; 0x2026 <printf+0xaaa>
     e33: a2 00        	ldx	#$0
     e35: 86 5e        	stx	$5e                     ; 0x205e <printf+0xae2>
     e37: 80 04        	bra	$e3d <f256main+0x642>
     e39: 86 26        	stx	$26                     ; 0x2026 <printf+0xaaa>
     e3b: a4 27        	ldy	$27                     ; 0x2027 <printf+0xaab>
     e3d: 84 12        	sty	$12                     ; 0x2012 <printf+0xa96>
     e3f: a9 88        	lda	#$88
     e41: 18           	clc
     e42: 65 12        	adc	$12                     ; 0x2012 <printf+0xa96>
     e44: aa           	tax
     e45: a9 2e        	lda	#$2e
     e47: 65 28        	adc	$28                     ; 0x2028 <printf+0xaac>
     e49: 86 12        	stx	$12                     ; 0x2012 <printf+0xa96>
     e4b: 85 13        	sta	$13                     ; 0x2013 <printf+0xa97>
     e4d: a6 34        	ldx	$34                     ; 0x2034 <printf+0xab8>
     e4f: 86 14        	stx	$14                     ; 0x2014 <printf+0xa98>
     e51: a6 35        	ldx	$35                     ; 0x2035 <printf+0xab9>
     e53: 86 15        	stx	$15                     ; 0x2015 <printf+0xa99>
     e55: a2 00        	ldx	#$0
     e57: a9 40        	lda	#$40
     e59: 20 e8 0f     	jsr	$fe8 <fileRead>
     e5c: 18           	clc
     e5d: a5 27        	lda	$27                     ; 0x2027 <printf+0xaab>
     e5f: 69 40        	adc	#$40
     e61: aa           	tax
     e62: a5 28        	lda	$28                     ; 0x2028 <printf+0xaac>
     e64: 69 00        	adc	#$0
     e66: 85 28        	sta	$28                     ; 0x2028 <printf+0xaac>
     e68: c9 20        	cmp	#$20
     e6a: d0 16        	bne	$e82 <f256main+0x687>
     e6c: a9 07        	lda	#$7
     e6e: 86 12        	stx	$12                     ; 0x2012 <printf+0xa96>
     e70: 86 27        	stx	$27                     ; 0x2027 <printf+0xaab>
     e72: a6 29        	ldx	$29                     ; 0x2029 <printf+0xaad>
     e74: a4 2a        	ldy	$2a                     ; 0x202a <printf+0xaae>
     e76: e6 12        	inc	$12                     ; 0x2012 <printf+0xa96>
     e78: c6 12        	dec	$12                     ; 0x2012 <printf+0xa96>
     e7a: d0 0e        	bne	$e8a <f256main+0x68f>
     e7c: 64 27        	stz	$27                     ; 0x2027 <printf+0xaab>
     e7e: 64 28        	stz	$28                     ; 0x2028 <printf+0xaac>
     e80: 80 08        	bra	$e8a <f256main+0x68f>
     e82: 86 27        	stx	$27                     ; 0x2027 <printf+0xaab>
     e84: a9 07        	lda	#$7
     e86: a6 29        	ldx	$29                     ; 0x2029 <printf+0xaad>
     e88: a4 2a        	ldy	$2a                     ; 0x202a <printf+0xaae>
     e8a: e8           	inx
     e8b: d0 01        	bne	$e8e <f256main+0x693>
     e8d: c8           	iny
     e8e: c4 25        	cpy	$25                     ; 0x2025 <printf+0xaa9>
     e90: f0 03        	beq	$e95 <f256main+0x69a>
     e92: 4c f8 0d     	jmp	$df8 <f256main+0x5fd>
     e95: e4 24        	cpx	$24                     ; 0x2024 <printf+0xaa8>
     e97: f0 03        	beq	$e9c <f256main+0x6a1>
     e99: 4c f8 0d     	jmp	$df8 <f256main+0x5fd>
     e9c: 8d 01 d7     	sta	$d701                   ; 0xd701 <end_block9+0x8879>
     e9f: a2 04        	ldx	#$4
     ea1: 8e 02 d7     	stx	$d702                   ; 0xd702 <end_block9+0x887a>
     ea4: a2 18        	ldx	#$18
     ea6: 8e 03 d7     	stx	$d703                   ; 0xd703 <end_block9+0x887b>
     ea9: a2 01        	ldx	#$1
     eab: 8e 00 d7     	stx	$d700                   ; 0xd700 <end_block9+0x8878>
     eae: 9c 00 d7     	stz	$d700                   ; 0xd700 <end_block9+0x8878>
     eb1: ae 00 d7     	ldx	$d700                   ; 0xd700 <end_block9+0x8878>
     eb4: 30 fb        	bmi	$eb1 <f256main+0x6b6>
     eb6: 64 13        	stz	$13                     ; 0x2013 <printf+0xa97>
     eb8: a2 00        	ldx	#$0
     eba: 64 12        	stz	$12                     ; 0x2012 <printf+0xa96>
     ebc: 86 14        	stx	$14                     ; 0x2014 <printf+0xa98>
     ebe: a2 06        	ldx	#$6
     ec0: 8e 01 d7     	stx	$d701                   ; 0xd701 <end_block9+0x8879>
     ec3: a2 03        	ldx	#$3
     ec5: 8e 00 d7     	stx	$d700                   ; 0xd700 <end_block9+0x8878>
     ec8: 9c 00 d7     	stz	$d700                   ; 0xd700 <end_block9+0x8878>
     ecb: ad 00 d7     	lda	$d700                   ; 0xd700 <end_block9+0x8878>
     ece: 30 fb        	bmi	$ecb <f256main+0x6d0>
     ed0: ad 02 d7     	lda	$d702                   ; 0xd702 <end_block9+0x887a>
     ed3: ac 03 d7     	ldy	$d703                   ; 0xd703 <end_block9+0x887b>
     ed6: 29 3f        	and	#$3f
     ed8: a4 13        	ldy	$13                     ; 0x2013 <printf+0xa97>
     eda: 99 3f 00     	sta	$3f,y                   ; 0x3f <__rc31+0x10>
     edd: a5 13        	lda	$13                     ; 0x2013 <printf+0xa97>
     edf: a6 13        	ldx	$13                     ; 0x2013 <printf+0xa97>
     ee1: 74 40        	stz	$40,x                   ; 0x2040 <printf+0xac4>
     ee3: a6 14        	ldx	$14                     ; 0x2014 <printf+0xa98>
     ee5: e8           	inx
     ee6: d0 02        	bne	$eea <f256main+0x6ef>
     ee8: e6 12        	inc	$12                     ; 0x2012 <printf+0xa96>
     eea: 18           	clc
     eeb: 69 02        	adc	#$2
     eed: 85 13        	sta	$13                     ; 0x2013 <printf+0xa97>
     eef: a5 12        	lda	$12                     ; 0x2012 <printf+0xa96>
     ef1: d0 c9        	bne	$ebc <f256main+0x6c1>
     ef3: e0 0e        	cpx	#$e
     ef5: d0 c5        	bne	$ebc <f256main+0x6c1>
     ef7: a6 01        	ldx	$1                      ; 0x2001 <printf+0xa85>
     ef9: 86 1a        	stx	$1a                     ; 0x201a <printf+0xa9e>
     efb: a2 02        	ldx	#$2
     efd: 86 01        	stx	$1                      ; 0x2001 <printf+0xa85>
     eff: a2 2b        	ldx	#$2b
     f01: 86 5b        	stx	$5b                     ; 0x205b <printf+0xadf>
     f03: a2 c9        	ldx	#$c9
     f05: 86 5c        	stx	$5c                     ; 0x205c <printf+0xae0>
     f07: a9 2a        	lda	#$2a
     f09: 64 12        	stz	$12                     ; 0x2012 <printf+0xa96>
     f0b: 86 5d        	stx	$5d                     ; 0x205d <printf+0xae1>
     f0d: 64 14        	stz	$14                     ; 0x2014 <printf+0xa98>
     f0f: a2 00        	ldx	#$0
     f11: 86 1e        	stx	$1e                     ; 0x201e <printf+0xaa2>
     f13: a6 12        	ldx	$12                     ; 0x2012 <printf+0xa96>
     f15: 86 1c        	stx	$1c                     ; 0x201c <printf+0xaa0>
     f17: b4 3f        	ldy	$3f,x                   ; 0x203f <printf+0xac3>
     f19: 48           	pha
     f1a: b5 40        	lda	$40,x                   ; 0x2040 <printf+0xac4>
     f1c: aa           	tax
     f1d: 68           	pla
     f1e: 86 12        	stx	$12                     ; 0x2012 <printf+0xa96>
     f20: 46 12        	lsr	$12                     ; 0x2012 <printf+0xa96>
     f22: 84 13        	sty	$13                     ; 0x2013 <printf+0xa97>
     f24: 66 13        	ror	$13                     ; 0x2013 <printf+0xa97>
     f26: 46 12        	lsr	$12                     ; 0x2012 <printf+0xa96>
     f28: 66 13        	ror	$13                     ; 0x2013 <printf+0xa97>
     f2a: 85 1b        	sta	$1b                     ; 0x201b <printf+0xa9f>
     f2c: 85 17        	sta	$17                     ; 0x2017 <printf+0xa9b>
     f2e: a5 5d        	lda	$5d                     ; 0x205d <printf+0xae1>
     f30: 85 1d        	sta	$1d                     ; 0x201d <printf+0xaa1>
     f32: 5a           	phy
     f33: a4 13        	ldy	$13                     ; 0x2013 <printf+0xa97>
     f35: 84 15        	sty	$15                     ; 0x2015 <printf+0xa99>
     f37: a4 12        	ldy	$12                     ; 0x2012 <printf+0xa96>
     f39: 84 16        	sty	$16                     ; 0x2016 <printf+0xa9a>
     f3b: 7a           	ply
     f3c: e6 12        	inc	$12                     ; 0x2012 <printf+0xa96>
     f3e: c6 12        	dec	$12                     ; 0x2012 <printf+0xa96>
     f40: d0 06        	bne	$f48 <f256main+0x74d>
     f42: e6 13        	inc	$13                     ; 0x2013 <printf+0xa97>
     f44: c6 13        	dec	$13                     ; 0x2013 <printf+0xa97>
     f46: f0 45        	beq	$f8d <f256main+0x792>
     f48: 5a           	phy
     f49: a4 17        	ldy	$17                     ; 0x2017 <printf+0xa9b>
     f4b: 84 1f        	sty	$1f                     ; 0x201f <printf+0xaa3>
     f4d: a4 17        	ldy	$17                     ; 0x2017 <printf+0xa9b>
     f4f: 84 18        	sty	$18                     ; 0x2018 <printf+0xa9c>
     f51: 7a           	ply
     f52: 85 17        	sta	$17                     ; 0x2017 <printf+0xa9b>
     f54: 85 19        	sta	$19                     ; 0x2019 <printf+0xa9d>
     f56: a9 15        	lda	#$15
     f58: 92 18        	sta	($18)                   ; 0x2018 <printf+0xa9c>
     f5a: a5 1f        	lda	$1f                     ; 0x201f <printf+0xaa3>
     f5c: 09 01        	ora	#$1
     f5e: 85 18        	sta	$18                     ; 0x2018 <printf+0xa9c>
     f60: a5 17        	lda	$17                     ; 0x2017 <printf+0xa9b>
     f62: 85 19        	sta	$19                     ; 0x2019 <printf+0xa9d>
     f64: a9 15        	lda	#$15
     f66: 92 18        	sta	($18)                   ; 0x2018 <printf+0xa9c>
     f68: a9 ff        	lda	#$ff
     f6a: c6 15        	dec	$15                     ; 0x2015 <printf+0xa99>
     f6c: c5 15        	cmp	$15                     ; 0x2015 <printf+0xa99>
     f6e: d0 02        	bne	$f72 <f256main+0x777>
     f70: c6 16        	dec	$16                     ; 0x2016 <printf+0xa9a>
     f72: a5 17        	lda	$17                     ; 0x2017 <printf+0xa9b>
     f74: 85 18        	sta	$18                     ; 0x2018 <printf+0xa9c>
     f76: 18           	clc
     f77: a5 1f        	lda	$1f                     ; 0x201f <printf+0xaa3>
     f79: 69 b0        	adc	#$b0
     f7b: 85 17        	sta	$17                     ; 0x2017 <printf+0xa9b>
     f7d: a5 18        	lda	$18                     ; 0x2018 <printf+0xa9c>
     f7f: 69 ff        	adc	#$ff
     f81: e6 16        	inc	$16                     ; 0x2016 <printf+0xa9a>
     f83: c6 16        	dec	$16                     ; 0x2016 <printf+0xa9a>
     f85: d0 c1        	bne	$f48 <f256main+0x74d>
     f87: e6 15        	inc	$15                     ; 0x2015 <printf+0xa99>
     f89: c6 15        	dec	$15                     ; 0x2015 <printf+0xa99>
     f8b: d0 bb        	bne	$f48 <f256main+0x74d>
     f8d: 8a           	txa
     f8e: f0 03        	beq	$f93 <f256main+0x798>
     f90: 4c c9 0c     	jmp	$cc9 <f256main+0x4ce>
     f93: c0 40        	cpy	#$40
     f95: b0 03        	bcs	$f9a <f256main+0x79f>
     f97: 4c d0 0c     	jmp	$cd0 <f256main+0x4d5>
     f9a: 4c 58 0d     	jmp	$d58 <f256main+0x55d>
     f9d: ae 88 2e     	ldx	$2e88                   ; 0x2e88 <__data_load_start+0x5>
     fa0: 86 26        	stx	$26                     ; 0x2026 <printf+0xaaa>
     fa2: 64 37        	stz	$37                     ; 0x2037 <printf+0xabb>
     fa4: 20 00 ff     	jsr	$ff00 <end_block9+0xb078>
     fa7: 92 12        	sta	($12)                   ; 0x2012 <printf+0xa96>
     fa9: a9 00        	lda	#$0
     fab: 6a           	ror
     fac: 85 14        	sta	$14                     ; 0x2014 <printf+0xa98>
     fae: a6 37        	ldx	$37                     ; 0x2037 <printf+0xabb>
     fb0: e0 28        	cpx	#$28
     fb2: d0 03        	bne	$fb7 <f256main+0x7bc>
     fb4: 4c 6e 0b     	jmp	$b6e <f256main+0x373>
     fb7: e0 38        	cpx	#$38
     fb9: d0 03        	bne	$fbe <f256main+0x7c3>
     fbb: 4c 6e 0b     	jmp	$b6e <f256main+0x373>
     fbe: e0 2a        	cpx	#$2a
     fc0: d0 e0        	bne	$fa2 <f256main+0x7a7>
     fc2: a9 01        	lda	#$1
     fc4: a2 00        	ldx	#$0
     fc6: 20 2c 21     	jsr	$212c <malloc>
     fc9: a6 12        	ldx	$12                     ; 0x2012 <printf+0xa96>
     fcb: 86 24        	stx	$24                     ; 0x2024 <printf+0xaa8>
     fcd: a6 13        	ldx	$13                     ; 0x2013 <printf+0xa97>
     fcf: 86 25        	stx	$25                     ; 0x2025 <printf+0xaa9>
     fd1: a5 26        	lda	$26                     ; 0x2026 <printf+0xaaa>
     fd3: 92 12        	sta	($12)                   ; 0x2012 <printf+0xa96>
     fd5: a6 24        	ldx	$24                     ; 0x2024 <printf+0xaa8>
     fd7: a4 25        	ldy	$25                     ; 0x2025 <printf+0xaa9>
     fd9: 86 34        	stx	$34                     ; 0x2034 <printf+0xab8>
     fdb: 84 35        	sty	$35                     ; 0x2035 <printf+0xab9>
     fdd: 4c 9b 0b     	jmp	$b9b <f256main+0x3a0>
     fe0: a6 15        	ldx	$15                     ; 0x2015 <printf+0xa99>
     fe2: 86 17        	stx	$17                     ; 0x2017 <printf+0xa9b>
     fe4: aa           	tax
     fe5: 4c e4 0a     	jmp	$ae4 <f256main+0x2e9>

00000fe8 <fileRead>:
     fe8: 85 16        	sta	$16                     ; 0x2016 <printf+0xa9a>
     fea: 86 17        	stx	$17                     ; 0x2017 <printf+0xa9b>
     fec: 64 18        	stz	$18                     ; 0x2018 <printf+0xa9c>
     fee: a6 12        	ldx	$12                     ; 0x2012 <printf+0xa96>
     ff0: 86 1a        	stx	$1a                     ; 0x201a <printf+0xa9e>
     ff2: a6 13        	ldx	$13                     ; 0x2013 <printf+0xa97>
     ff4: 86 1b        	stx	$1b                     ; 0x201b <printf+0xa9f>
     ff6: a2 5f        	ldx	#$5f
     ff8: a0 00        	ldy	#$0
     ffa: a9 36        	lda	#$36
     ffc: 85 12        	sta	$12                     ; 0x2012 <printf+0xa96>
     ffe: a9 00        	lda	#$0
    1000: 85 13        	sta	$13                     ; 0x2013 <printf+0xa97>
    1002: 64 19        	stz	$19                     ; 0x2019 <printf+0xa9d>
    1004: b2 14        	lda	($14)                   ; 0x2014 <printf+0xa98>
    1006: 85 1d        	sta	$1d                     ; 0x201d <printf+0xaa1>
    1008: a5 1a        	lda	$1a                     ; 0x201a <printf+0xa9e>
    100a: 85 1e        	sta	$1e                     ; 0x201e <printf+0xaa2>
    100c: a5 1a        	lda	$1a                     ; 0x201a <printf+0xa9e>
    100e: 18           	clc
    100f: 65 18        	adc	$18                     ; 0x2018 <printf+0xa9c>
    1011: 85 1c        	sta	$1c                     ; 0x201c <printf+0xaa0>
    1013: a5 1b        	lda	$1b                     ; 0x201b <printf+0xa9f>
    1015: 85 1f        	sta	$1f                     ; 0x201f <printf+0xaa3>
    1017: a5 1b        	lda	$1b                     ; 0x201b <printf+0xa9f>
    1019: 65 19        	adc	$19                     ; 0x2019 <printf+0xa9d>
    101b: e6 1d        	inc	$1d                     ; 0x201d <printf+0xaa1>
    101d: c6 1d        	dec	$1d                     ; 0x201d <printf+0xaa1>
    101f: d0 03        	bne	$1024 <fileRead+0x3c>
    1021: 4c a1 10     	jmp	$10a1 <fileRead+0xb9>
    1024: 5a           	phy
    1025: a4 1d        	ldy	$1d                     ; 0x201d <printf+0xaa1>
    1027: 84 1a        	sty	$1a                     ; 0x201a <printf+0xa9e>
    1029: 7a           	ply
    102a: 85 1d        	sta	$1d                     ; 0x201d <printf+0xaa1>
    102c: a5 16        	lda	$16                     ; 0x2016 <printf+0xa9a>
    102e: 38           	sec
    102f: e5 18        	sbc	$18                     ; 0x2018 <printf+0xa9c>
    1031: 85 1b        	sta	$1b                     ; 0x201b <printf+0xa9f>
    1033: a5 1a        	lda	$1a                     ; 0x201a <printf+0xa9e>
    1035: 85 f3        	sta	$f3                     ; 0x20f3 <printf+0xb77>
    1037: a5 1b        	lda	$1b                     ; 0x201b <printf+0xa9f>
    1039: 85 f4        	sta	$f4                     ; 0x20f4 <printf+0xb78>
    103b: a9 61        	lda	#$61
    103d: 85 1a        	sta	$1a                     ; 0x201a <printf+0xa9e>
    103f: a9 00        	lda	#$0
    1041: 85 1b        	sta	$1b                     ; 0x201b <printf+0xa9f>
    1043: 20 60 ff     	jsr	$ff60 <end_block9+0xb0d8>
    1046: 92 1a        	sta	($1a)                   ; 0x201a <printf+0xa9e>
    1048: a9 00        	lda	#$0
    104a: 6a           	ror
    104b: 85 12        	sta	$12                     ; 0x2012 <printf+0xa96>
    104d: a5 36        	lda	$36                     ; 0x2036 <printf+0xaba>
    104f: f0 03        	beq	$1054 <fileRead+0x6c>
    1051: 4c 11 11     	jmp	$1111 <fileRead+0x129>
    1054: 64 37        	stz	$37                     ; 0x2037 <printf+0xabb>
    1056: a9 62        	lda	#$62
    1058: 85 1a        	sta	$1a                     ; 0x201a <printf+0xa9e>
    105a: a9 00        	lda	#$0
    105c: 85 1b        	sta	$1b                     ; 0x201b <printf+0xa9f>
    105e: 20 00 ff     	jsr	$ff00 <end_block9+0xb078>
    1061: 92 1a        	sta	($1a)                   ; 0x201a <printf+0xa9e>
    1063: a9 00        	lda	#$0
    1065: 6a           	ror
    1066: 85 12        	sta	$12                     ; 0x2012 <printf+0xa96>
    1068: a5 37        	lda	$37                     ; 0x2037 <printf+0xabb>
    106a: c9 38        	cmp	#$38
    106c: d0 03        	bne	$1071 <fileRead+0x89>
    106e: 4c 11 11     	jmp	$1111 <fileRead+0x129>
    1071: c9 30        	cmp	#$30
    1073: d0 03        	bne	$1078 <fileRead+0x90>
    1075: 4c 11 11     	jmp	$1111 <fileRead+0x129>
    1078: c9 2c        	cmp	#$2c
    107a: d0 d8        	bne	$1054 <fileRead+0x6c>
    107c: a5 1c        	lda	$1c                     ; 0x201c <printf+0xaa0>
    107e: 85 fb        	sta	$fb                     ; 0x20fb <printf+0xb7f>
    1080: a5 1d        	lda	$1d                     ; 0x201d <printf+0xaa1>
    1082: 85 fc        	sta	$fc                     ; 0x20fc <printf+0xb80>
    1084: a5 3d        	lda	$3d                     ; 0x203d <printf+0xac1>
    1086: 85 fd        	sta	$fd                     ; 0x20fd <printf+0xb81>
    1088: a9 63        	lda	#$63
    108a: 85 1a        	sta	$1a                     ; 0x201a <printf+0xa9e>
    108c: a9 00        	lda	#$0
    108e: 85 1b        	sta	$1b                     ; 0x201b <printf+0xa9f>
    1090: 20 04 ff     	jsr	$ff04 <end_block9+0xb07c>
    1093: 92 1a        	sta	($1a)                   ; 0x201a <printf+0xa9e>
    1095: a9 00        	lda	#$0
    1097: 6a           	ror
    1098: 85 12        	sta	$12                     ; 0x2012 <printf+0xa96>
    109a: a5 3d        	lda	$3d                     ; 0x203d <printf+0xac1>
    109c: d0 45        	bne	$10e3 <fileRead+0xfb>
    109e: 4c 12 11     	jmp	$1112 <fileRead+0x12a>
    10a1: 5a           	phy
    10a2: a4 1c        	ldy	$1c                     ; 0x201c <printf+0xaa0>
    10a4: 84 1a        	sty	$1a                     ; 0x201a <printf+0xa9e>
    10a6: 7a           	ply
    10a7: 85 1b        	sta	$1b                     ; 0x201b <printf+0xa9f>
    10a9: 80 0a        	bra	$10b5 <fileRead+0xcd>
    10ab: a5 37        	lda	$37                     ; 0x2037 <printf+0xabb>
    10ad: c9 08        	cmp	#$8
    10af: d0 04        	bne	$10b5 <fileRead+0xcd>
    10b1: a5 3d        	lda	$3d                     ; 0x203d <printf+0xac1>
    10b3: f0 28        	beq	$10dd <fileRead+0xf5>
    10b5: 64 37        	stz	$37                     ; 0x2037 <printf+0xabb>
    10b7: 86 1c        	stx	$1c                     ; 0x201c <printf+0xaa0>
    10b9: 84 1d        	sty	$1d                     ; 0x201d <printf+0xaa1>
    10bb: 20 00 ff     	jsr	$ff00 <end_block9+0xb078>
    10be: 92 1c        	sta	($1c)                   ; 0x201c <printf+0xaa0>
    10c0: a9 00        	lda	#$0
    10c2: 6a           	ror
    10c3: 85 12        	sta	$12                     ; 0x2012 <printf+0xa96>
    10c5: a5 36        	lda	$36                     ; 0x2036 <printf+0xaba>
    10c7: f0 e2        	beq	$10ab <fileRead+0xc3>
    10c9: a9 60        	lda	#$60
    10cb: 85 1c        	sta	$1c                     ; 0x201c <printf+0xaa0>
    10cd: a9 00        	lda	#$0
    10cf: 85 1d        	sta	$1d                     ; 0x201d <printf+0xaa1>
    10d1: 20 0c ff     	jsr	$ff0c <end_block9+0xb084>
    10d4: 92 1c        	sta	($1c)                   ; 0x201c <printf+0xaa0>
    10d6: a9 00        	lda	#$0
    10d8: 6a           	ror
    10d9: 85 12        	sta	$12                     ; 0x2012 <printf+0xa96>
    10db: 80 d8        	bra	$10b5 <fileRead+0xcd>
    10dd: a5 3c        	lda	$3c                     ; 0x203c <printf+0xac0>
    10df: 92 1a        	sta	($1a)                   ; 0x201a <printf+0xa9e>
    10e1: a9 01        	lda	#$1
    10e3: 85 64        	sta	$64                     ; 0x2064 <printf+0xae8>
    10e5: a9 00        	lda	#$0
    10e7: 85 65        	sta	$65                     ; 0x2065 <printf+0xae9>
    10e9: 18           	clc
    10ea: a5 64        	lda	$64                     ; 0x2064 <printf+0xae8>
    10ec: 65 18        	adc	$18                     ; 0x2018 <printf+0xa9c>
    10ee: 85 18        	sta	$18                     ; 0x2018 <printf+0xa9c>
    10f0: a5 65        	lda	$65                     ; 0x2065 <printf+0xae9>
    10f2: 65 19        	adc	$19                     ; 0x2019 <printf+0xa9d>
    10f4: c5 17        	cmp	$17                     ; 0x2017 <printf+0xa9b>
    10f6: d0 08        	bne	$1100 <fileRead+0x118>
    10f8: 85 19        	sta	$19                     ; 0x2019 <printf+0xa9d>
    10fa: a5 18        	lda	$18                     ; 0x2018 <printf+0xa9c>
    10fc: c5 16        	cmp	$16                     ; 0x2016 <printf+0xa9a>
    10fe: 80 04        	bra	$1104 <fileRead+0x11c>
    1100: c5 17        	cmp	$17                     ; 0x2017 <printf+0xa9b>
    1102: 85 19        	sta	$19                     ; 0x2019 <printf+0xa9d>
    1104: a5 1e        	lda	$1e                     ; 0x201e <printf+0xaa2>
    1106: 85 1a        	sta	$1a                     ; 0x201a <printf+0xa9e>
    1108: a5 1f        	lda	$1f                     ; 0x201f <printf+0xaa3>
    110a: 85 1b        	sta	$1b                     ; 0x201b <printf+0xa9f>
    110c: b0 03        	bcs	$1111 <fileRead+0x129>
    110e: 4c 04 10     	jmp	$1004 <fileRead+0x1c>
    1111: 60           	rts
    1112: a9 00        	lda	#$0
    1114: 85 64        	sta	$64                     ; 0x2064 <printf+0xae8>
    1116: 1a           	inc
    1117: 80 ce        	bra	$10e7 <fileRead+0xff>

00001119 <textPrint>:
    1119: a6 01        	ldx	$1                      ; 0x2001 <printf+0xa85>
    111b: 86 b6        	stx	$b6                     ; 0x20b6 <printf+0xb3a>
    111d: a6 31        	ldx	$31                     ; 0x2031 <printf+0xab5>
    111f: a0 50        	ldy	#$50
    1121: 8c 00 de     	sty	$de00                   ; 0xde00 <end_block9+0x8f78>
    1124: 9c 01 de     	stz	$de01                   ; 0xde01 <end_block9+0x8f79>
    1127: 8e 02 de     	stx	$de02                   ; 0xde02 <end_block9+0x8f7a>
    112a: 9c 03 de     	stz	$de03                   ; 0xde03 <end_block9+0x8f7b>
    112d: ae 10 de     	ldx	$de10                   ; 0xde10 <end_block9+0x8f88>
    1130: ac 11 de     	ldy	$de11                   ; 0xde11 <end_block9+0x8f89>
    1133: 84 15        	sty	$15                     ; 0x2015 <printf+0xa99>
    1135: ad 12 de     	lda	$de12                   ; 0xde12 <end_block9+0x8f8a>
    1138: ac 13 de     	ldy	$de13                   ; 0xde13 <end_block9+0x8f8b>
    113b: 84 1c        	sty	$1c                     ; 0x201c <printf+0xaa0>
    113d: 9c 08 de     	stz	$de08                   ; 0xde08 <end_block9+0x8f80>
    1140: a0 c0        	ldy	#$c0
    1142: 8c 09 de     	sty	$de09                   ; 0xde09 <end_block9+0x8f81>
    1145: 9c 0a de     	stz	$de0a                   ; 0xde0a <end_block9+0x8f82>
    1148: 9c 0b de     	stz	$de0b                   ; 0xde0b <end_block9+0x8f83>
    114b: 8e 0c de     	stx	$de0c                   ; 0xde0c <end_block9+0x8f84>
    114e: 64 14        	stz	$14                     ; 0x2014 <printf+0xa98>
    1150: a2 00        	ldx	#$0
    1152: 86 16        	stx	$16                     ; 0x2016 <printf+0xa9a>
    1154: a2 c0        	ldx	#$c0
    1156: 86 17        	stx	$17                     ; 0x2017 <printf+0xa9b>
    1158: a2 11        	ldx	#$11
    115a: 86 18        	stx	$18                     ; 0x2018 <printf+0xa9c>
    115c: a2 c9        	ldx	#$c9
    115e: 86 19        	stx	$19                     ; 0x2019 <printf+0xa9d>
    1160: a2 10        	ldx	#$10
    1162: 86 1a        	stx	$1a                     ; 0x201a <printf+0xa9e>
    1164: a2 c9        	ldx	#$c9
    1166: 86 1b        	stx	$1b                     ; 0x201b <printf+0xa9f>
    1168: a6 15        	ldx	$15                     ; 0x2015 <printf+0xa99>
    116a: 8e 0d de     	stx	$de0d                   ; 0xde0d <end_block9+0x8f85>
    116d: 8d 0e de     	sta	$de0e                   ; 0xde0e <end_block9+0x8f86>
    1170: a6 1c        	ldx	$1c                     ; 0x201c <printf+0xaa0>
    1172: 8e 0f de     	stx	$de0f                   ; 0xde0f <end_block9+0x8f87>
    1175: ac 18 de     	ldy	$de18                   ; 0xde18 <end_block9+0x8f90>
    1178: ad 19 de     	lda	$de19                   ; 0xde19 <end_block9+0x8f91>
    117b: ae 1a de     	ldx	$de1a                   ; 0xde1a <end_block9+0x8f92>
    117e: ae 1b de     	ldx	$de1b                   ; 0xde1b <end_block9+0x8f93>
    1181: 84 1c        	sty	$1c                     ; 0x201c <printf+0xaa0>
    1183: 85 1d        	sta	$1d                     ; 0x201d <printf+0xaa1>
    1185: 64 15        	stz	$15                     ; 0x2015 <printf+0xa99>
    1187: 80 13        	bra	$119c <textPrint+0x83>
    1189: a5 1c        	lda	$1c                     ; 0x201c <printf+0xaa0>
    118b: 18           	clc
    118c: 69 50        	adc	#$50
    118e: 85 1c        	sta	$1c                     ; 0x201c <printf+0xaa0>
    1190: a5 1d        	lda	$1d                     ; 0x201d <printf+0xaa1>
    1192: 69 00        	adc	#$0
    1194: 85 1d        	sta	$1d                     ; 0x201d <printf+0xaa1>
    1196: e6 14        	inc	$14                     ; 0x2014 <printf+0xa98>
    1198: d0 02        	bne	$119c <textPrint+0x83>
    119a: e6 15        	inc	$15                     ; 0x2015 <printf+0xa99>
    119c: a5 12        	lda	$12                     ; 0x2012 <printf+0xa96>
    119e: 18           	clc
    119f: 65 14        	adc	$14                     ; 0x2014 <printf+0xa98>
    11a1: 85 1e        	sta	$1e                     ; 0x201e <printf+0xaa2>
    11a3: a5 13        	lda	$13                     ; 0x2013 <printf+0xa97>
    11a5: 65 15        	adc	$15                     ; 0x2015 <printf+0xa99>
    11a7: 85 1f        	sta	$1f                     ; 0x201f <printf+0xaa3>
    11a9: b2 1e        	lda	($1e)                   ; 0x201e <printf+0xaa2>
    11ab: c9 0a        	cmp	#$a
    11ad: f0 26        	beq	$11d5 <textPrint+0xbc>
    11af: c9 0d        	cmp	#$d
    11b1: f0 22        	beq	$11d5 <textPrint+0xbc>
    11b3: aa           	tax
    11b4: d0 03        	bne	$11b9 <textPrint+0xa0>
    11b6: 4c ba 12     	jmp	$12ba <textPrint+0x1a1>
    11b9: a2 03        	ldx	#$3
    11bb: 86 01        	stx	$1                      ; 0x2001 <printf+0xa85>
    11bd: a4 30        	ldy	$30                     ; 0x2030 <printf+0xab4>
    11bf: a9 f0        	lda	#$f0
    11c1: 91 1c        	sta	($1c),y                 ; 0x201c <printf+0xaa0>
    11c3: ca           	dex
    11c4: 86 01        	stx	$1                      ; 0x2001 <printf+0xa85>
    11c6: b2 1e        	lda	($1e)                   ; 0x201e <printf+0xaa2>
    11c8: a4 30        	ldy	$30                     ; 0x2030 <printf+0xab4>
    11ca: 91 1c        	sta	($1c),y                 ; 0x201c <printf+0xaa0>
    11cc: a6 30        	ldx	$30                     ; 0x2030 <printf+0xab4>
    11ce: e8           	inx
    11cf: e6 30        	inc	$30                     ; 0x2030 <printf+0xab4>
    11d1: e0 50        	cpx	#$50
    11d3: d0 c1        	bne	$1196 <textPrint+0x7d>
    11d5: 64 30        	stz	$30                     ; 0x2030 <printf+0xab4>
    11d7: a6 31        	ldx	$31                     ; 0x2031 <printf+0xab5>
    11d9: e8           	inx
    11da: e6 31        	inc	$31                     ; 0x2031 <printf+0xab5>
    11dc: e0 1e        	cpx	#$1e
    11de: f0 03        	beq	$11e3 <textPrint+0xca>
    11e0: 4c 89 11     	jmp	$1189 <textPrint+0x70>
    11e3: a2 03        	ldx	#$3
    11e5: 86 01        	stx	$1                      ; 0x2001 <printf+0xa85>
    11e7: a2 01        	ldx	#$1
    11e9: 86 1c        	stx	$1c                     ; 0x201c <printf+0xaa0>
    11eb: a2 09        	ldx	#$9
    11ed: a0 10        	ldy	#$10
    11ef: a9 00        	lda	#$0
    11f1: 85 1e        	sta	$1e                     ; 0x201e <printf+0xaa2>
    11f3: a9 c0        	lda	#$c0
    11f5: 85 1f        	sta	$1f                     ; 0x201f <printf+0xaa3>
    11f7: 84 1d        	sty	$1d                     ; 0x201d <printf+0xaa1>
    11f9: a0 50        	ldy	#$50
    11fb: b1 1e        	lda	($1e),y                 ; 0x201e <printf+0xaa2>
    11fd: 92 1e        	sta	($1e)                   ; 0x201e <printf+0xaa2>
    11ff: a9 ff        	lda	#$ff
    1201: c6 1d        	dec	$1d                     ; 0x201d <printf+0xaa1>
    1203: c5 1d        	cmp	$1d                     ; 0x201d <printf+0xaa1>
    1205: d0 01        	bne	$1208 <textPrint+0xef>
    1207: ca           	dex
    1208: e6 1e        	inc	$1e                     ; 0x201e <printf+0xaa2>
    120a: d0 02        	bne	$120e <textPrint+0xf5>
    120c: e6 1f        	inc	$1f                     ; 0x201f <printf+0xaa3>
    120e: 8a           	txa
    120f: d0 ea        	bne	$11fb <textPrint+0xe2>
    1211: a5 1d        	lda	$1d                     ; 0x201d <printf+0xaa1>
    1213: d0 e6        	bne	$11fb <textPrint+0xe2>
    1215: a2 02        	ldx	#$2
    1217: 86 01        	stx	$1                      ; 0x2001 <printf+0xa85>
    1219: a2 00        	ldx	#$0
    121b: a5 1c        	lda	$1c                     ; 0x201c <printf+0xaa0>
    121d: d0 ca        	bne	$11e9 <textPrint+0xd0>
    121f: a2 03        	ldx	#$3
    1221: 86 01        	stx	$1                      ; 0x2001 <printf+0xa85>
    1223: a2 50        	ldx	#$50
    1225: a0 11        	ldy	#$11
    1227: 84 1c        	sty	$1c                     ; 0x201c <printf+0xaa0>
    1229: a0 c9        	ldy	#$c9
    122b: 84 1d        	sty	$1d                     ; 0x201d <printf+0xaa1>
    122d: a0 10        	ldy	#$10
    122f: 84 1e        	sty	$1e                     ; 0x201e <printf+0xaa2>
    1231: a0 c9        	ldy	#$c9
    1233: 84 1f        	sty	$1f                     ; 0x201f <printf+0xaa3>
    1235: a9 f0        	lda	#$f0
    1237: a4 1c        	ldy	$1c                     ; 0x201c <printf+0xaa0>
    1239: 84 22        	sty	$22                     ; 0x2022 <printf+0xaa6>
    123b: a4 1d        	ldy	$1d                     ; 0x201d <printf+0xaa1>
    123d: 84 23        	sty	$23                     ; 0x2023 <printf+0xaa7>
    123f: 92 1e        	sta	($1e)                   ; 0x201e <printf+0xaa2>
    1241: e6 1c        	inc	$1c                     ; 0x201c <printf+0xaa0>
    1243: d0 02        	bne	$1247 <textPrint+0x12e>
    1245: e6 1d        	inc	$1d                     ; 0x201d <printf+0xaa1>
    1247: ca           	dex
    1248: a4 22        	ldy	$22                     ; 0x2022 <printf+0xaa6>
    124a: 84 1e        	sty	$1e                     ; 0x201e <printf+0xaa2>
    124c: a4 23        	ldy	$23                     ; 0x2023 <printf+0xaa7>
    124e: 84 1f        	sty	$1f                     ; 0x201f <printf+0xaa3>
    1250: e0 00        	cpx	#$0
    1252: d0 e3        	bne	$1237 <textPrint+0x11e>
    1254: a2 02        	ldx	#$2
    1256: 86 01        	stx	$1                      ; 0x2001 <printf+0xa85>
    1258: a2 50        	ldx	#$50
    125a: a0 11        	ldy	#$11
    125c: 84 1c        	sty	$1c                     ; 0x201c <printf+0xaa0>
    125e: a0 c9        	ldy	#$c9
    1260: 84 1d        	sty	$1d                     ; 0x201d <printf+0xaa1>
    1262: a0 10        	ldy	#$10
    1264: 84 1e        	sty	$1e                     ; 0x201e <printf+0xaa2>
    1266: a0 c9        	ldy	#$c9
    1268: 84 1f        	sty	$1f                     ; 0x201f <printf+0xaa3>
    126a: a9 20        	lda	#$20
    126c: a4 1c        	ldy	$1c                     ; 0x201c <printf+0xaa0>
    126e: 84 22        	sty	$22                     ; 0x2022 <printf+0xaa6>
    1270: a4 1d        	ldy	$1d                     ; 0x201d <printf+0xaa1>
    1272: 84 23        	sty	$23                     ; 0x2023 <printf+0xaa7>
    1274: 92 1e        	sta	($1e)                   ; 0x201e <printf+0xaa2>
    1276: e6 1c        	inc	$1c                     ; 0x201c <printf+0xaa0>
    1278: d0 02        	bne	$127c <textPrint+0x163>
    127a: e6 1d        	inc	$1d                     ; 0x201d <printf+0xaa1>
    127c: ca           	dex
    127d: a4 22        	ldy	$22                     ; 0x2022 <printf+0xaa6>
    127f: 84 1e        	sty	$1e                     ; 0x201e <printf+0xaa2>
    1281: a4 23        	ldy	$23                     ; 0x2023 <printf+0xaa7>
    1283: 84 1f        	sty	$1f                     ; 0x201f <printf+0xaa3>
    1285: e0 00        	cpx	#$0
    1287: d0 e3        	bne	$126c <textPrint+0x153>
    1289: c6 31        	dec	$31                     ; 0x2031 <printf+0xab5>
    128b: 9c 08 de     	stz	$de08                   ; 0xde08 <end_block9+0x8f80>
    128e: a2 c0        	ldx	#$c0
    1290: 8e 09 de     	stx	$de09                   ; 0xde09 <end_block9+0x8f81>
    1293: 9c 0a de     	stz	$de0a                   ; 0xde0a <end_block9+0x8f82>
    1296: 9c 0b de     	stz	$de0b                   ; 0xde0b <end_block9+0x8f83>
    1299: a2 1d        	ldx	#$1d
    129b: 8e 0c de     	stx	$de0c                   ; 0xde0c <end_block9+0x8f84>
    129e: 9c 0d de     	stz	$de0d                   ; 0xde0d <end_block9+0x8f85>
    12a1: 9c 0e de     	stz	$de0e                   ; 0xde0e <end_block9+0x8f86>
    12a4: 9c 0f de     	stz	$de0f                   ; 0xde0f <end_block9+0x8f87>
    12a7: ae 18 de     	ldx	$de18                   ; 0xde18 <end_block9+0x8f90>
    12aa: ac 19 de     	ldy	$de19                   ; 0xde19 <end_block9+0x8f91>
    12ad: ad 1a de     	lda	$de1a                   ; 0xde1a <end_block9+0x8f92>
    12b0: ad 1b de     	lda	$de1b                   ; 0xde1b <end_block9+0x8f93>
    12b3: 86 1c        	stx	$1c                     ; 0x201c <printf+0xaa0>
    12b5: 84 1d        	sty	$1d                     ; 0x201d <printf+0xaa1>
    12b7: 4c 96 11     	jmp	$1196 <textPrint+0x7d>
    12ba: a6 b6        	ldx	$b6                     ; 0x20b6 <printf+0xb3a>
    12bc: 86 01        	stx	$1                      ; 0x2001 <printf+0xa85>
    12be: a6 30        	ldx	$30                     ; 0x2030 <printf+0xab4>
    12c0: a4 31        	ldy	$31                     ; 0x2031 <printf+0xab5>
    12c2: 8e 14 d0     	stx	$d014                   ; 0xd014 <end_block9+0x818c>
    12c5: 9c 15 d0     	stz	$d015                   ; 0xd015 <end_block9+0x818d>
    12c8: 84 31        	sty	$31                     ; 0x2031 <printf+0xab5>
    12ca: 8c 16 d0     	sty	$d016                   ; 0xd016 <end_block9+0x818e>
    12cd: 9c 17 d0     	stz	$d017                   ; 0xd017 <end_block9+0x818f>
    12d0: 60           	rts

000012d1 <textPrintUInt>:
    12d1: 48           	pha
    12d2: 18           	clc
    12d3: a5 10        	lda	$10                     ; 0x2010 <printf+0xa94>
    12d5: 69 fe        	adc	#$fe
    12d7: 85 10        	sta	$10                     ; 0x2010 <printf+0xa94>
    12d9: a5 11        	lda	$11                     ; 0x2011 <printf+0xa95>
    12db: 69 ff        	adc	#$ff
    12dd: 85 11        	sta	$11                     ; 0x2011 <printf+0xa95>
    12df: 68           	pla
    12e0: a4 24        	ldy	$24                     ; 0x2024 <printf+0xaa8>
    12e2: 5a           	phy
    12e3: a4 25        	ldy	$25                     ; 0x2025 <printf+0xaa9>
    12e5: 5a           	phy
    12e6: a4 26        	ldy	$26                     ; 0x2026 <printf+0xaaa>
    12e8: 5a           	phy
    12e9: a4 27        	ldy	$27                     ; 0x2027 <printf+0xaab>
    12eb: 5a           	phy
    12ec: 86 25        	stx	$25                     ; 0x2025 <printf+0xaa9>
    12ee: a4 12        	ldy	$12                     ; 0x2012 <printf+0xa96>
    12f0: a6 13        	ldx	$13                     ; 0x2013 <printf+0xa97>
    12f2: d0 18        	bne	$130c <textPrintUInt+0x3b>
    12f4: 86 27        	stx	$27                     ; 0x2027 <printf+0xaab>
    12f6: c0 00        	cpy	#$0
    12f8: f0 03        	beq	$12fd <textPrintUInt+0x2c>
    12fa: 4c 7c 13     	jmp	$137c <textPrintUInt+0xab>
    12fd: a6 25        	ldx	$25                     ; 0x2025 <printf+0xaa9>
    12ff: f0 03        	beq	$1304 <textPrintUInt+0x33>
    1301: 4c 85 13     	jmp	$1385 <textPrintUInt+0xb4>
    1304: 84 26        	sty	$26                     ; 0x2026 <printf+0xaaa>
    1306: c9 0a        	cmp	#$a
    1308: b0 0a        	bcs	$1314 <textPrintUInt+0x43>
    130a: 80 29        	bra	$1335 <textPrintUInt+0x64>
    130c: 84 26        	sty	$26                     ; 0x2026 <printf+0xaaa>
    130e: 86 27        	stx	$27                     ; 0x2027 <printf+0xaab>
    1310: e0 00        	cpx	#$0
    1312: 90 21        	bcc	$1335 <textPrintUInt+0x64>
    1314: 8d 06 de     	sta	$de06                   ; 0xde06 <end_block9+0x8f7e>
    1317: a4 25        	ldy	$25                     ; 0x2025 <printf+0xaa9>
    1319: 8c 07 de     	sty	$de07                   ; 0xde07 <end_block9+0x8f7f>
    131c: a2 0a        	ldx	#$a
    131e: 8e 04 de     	stx	$de04                   ; 0xde04 <end_block9+0x8f7c>
    1321: 9c 05 de     	stz	$de05                   ; 0xde05 <end_block9+0x8f7d>
    1324: 85 24        	sta	$24                     ; 0x2024 <printf+0xaa8>
    1326: ad 14 de     	lda	$de14                   ; 0xde14 <end_block9+0x8f8c>
    1329: ae 15 de     	ldx	$de15                   ; 0xde15 <end_block9+0x8f8d>
    132c: 64 12        	stz	$12                     ; 0x2012 <printf+0xa96>
    132e: 64 13        	stz	$13                     ; 0x2013 <printf+0xa97>
    1330: 20 d1 12     	jsr	$12d1 <textPrintUInt>
    1333: a5 24        	lda	$24                     ; 0x2024 <printf+0xaa8>
    1335: a2 0a        	ldx	#$a
    1337: a4 26        	ldy	$26                     ; 0x2026 <printf+0xaaa>
    1339: 84 12        	sty	$12                     ; 0x2012 <printf+0xa96>
    133b: a4 27        	ldy	$27                     ; 0x2027 <printf+0xaab>
    133d: 84 13        	sty	$13                     ; 0x2013 <printf+0xa97>
    133f: 86 14        	stx	$14                     ; 0x2014 <printf+0xa98>
    1341: 64 15        	stz	$15                     ; 0x2015 <printf+0xa99>
    1343: 64 16        	stz	$16                     ; 0x2016 <printf+0xa9a>
    1345: 64 17        	stz	$17                     ; 0x2017 <printf+0xa9b>
    1347: a6 25        	ldx	$25                     ; 0x2025 <printf+0xaa9>
    1349: 20 34 24     	jsr	$2434 <__umodsi3>
    134c: 09 30        	ora	#$30
    134e: 18           	clc
    134f: a6 10        	ldx	$10                     ; 0x2010 <printf+0xa94>
    1351: 86 12        	stx	$12                     ; 0x2012 <printf+0xa96>
    1353: a6 11        	ldx	$11                     ; 0x2011 <printf+0xa95>
    1355: 86 13        	stx	$13                     ; 0x2013 <printf+0xa97>
    1357: 92 12        	sta	($12)                   ; 0x2012 <printf+0xa96>
    1359: a0 01        	ldy	#$1
    135b: a9 00        	lda	#$0
    135d: 91 12        	sta	($12),y                 ; 0x2012 <printf+0xa96>
    135f: 20 19 11     	jsr	$1119 <textPrint>
    1362: fa           	plx
    1363: 86 27        	stx	$27                     ; 0x2027 <printf+0xaab>
    1365: fa           	plx
    1366: 86 26        	stx	$26                     ; 0x2026 <printf+0xaaa>
    1368: fa           	plx
    1369: 86 25        	stx	$25                     ; 0x2025 <printf+0xaa9>
    136b: fa           	plx
    136c: 86 24        	stx	$24                     ; 0x2024 <printf+0xaa8>
    136e: 18           	clc
    136f: a5 10        	lda	$10                     ; 0x2010 <printf+0xa94>
    1371: 69 02        	adc	#$2
    1373: 85 10        	sta	$10                     ; 0x2010 <printf+0xa94>
    1375: a5 11        	lda	$11                     ; 0x2011 <printf+0xa95>
    1377: 69 00        	adc	#$0
    1379: 85 11        	sta	$11                     ; 0x2011 <printf+0xa95>
    137b: 60           	rts
    137c: 84 26        	sty	$26                     ; 0x2026 <printf+0xaaa>
    137e: c0 00        	cpy	#$0
    1380: 90 b3        	bcc	$1335 <textPrintUInt+0x64>
    1382: 4c 14 13     	jmp	$1314 <textPrintUInt+0x43>
    1385: 84 26        	sty	$26                     ; 0x2026 <printf+0xaaa>
    1387: a6 25        	ldx	$25                     ; 0x2025 <printf+0xaa9>
    1389: 4c 10 13     	jmp	$1310 <textPrintUInt+0x3f>

0000138c <__putchar>:
    138c: 85 32        	sta	$32                     ; 0x2032 <printf+0xab6>
    138e: a2 32        	ldx	#$32
    1390: 86 12        	stx	$12                     ; 0x2012 <printf+0xa96>
    1392: a2 00        	ldx	#$0
    1394: 86 13        	stx	$13                     ; 0x2013 <printf+0xa97>
    1396: 4c 19 11     	jmp	$1119 <textPrint>

00001399 <exit>:
    1399: 20 14 03     	jsr	$314 <_fini>
    139c: 80 fe        	bra	$139c <exit+0x3>

0000139e <_ZN12_GLOBAL__N_13putEcP6Status>:
    139e: 85 18        	sta	$18                     ; 0x2018 <printf+0xa9c>
    13a0: a6 13        	ldx	$13                     ; 0x2013 <printf+0xa97>
    13a2: 18           	clc
    13a3: a5 12        	lda	$12                     ; 0x2012 <printf+0xa96>
    13a5: 69 05        	adc	#$5
    13a7: a8           	tay
    13a8: a5 13        	lda	$13                     ; 0x2013 <printf+0xa97>
    13aa: 86 15        	stx	$15                     ; 0x2015 <printf+0xa99>
    13ac: 69 00        	adc	#$0
    13ae: 18           	clc
    13af: 84 16        	sty	$16                     ; 0x2016 <printf+0xa9a>
    13b1: a0 05        	ldy	#$5
    13b3: 85 17        	sta	$17                     ; 0x2017 <printf+0xa9b>
    13b5: b1 12        	lda	($12),y                 ; 0x2012 <printf+0xa96>
    13b7: aa           	tax
    13b8: a5 12        	lda	$12                     ; 0x2012 <printf+0xa96>
    13ba: 69 03        	adc	#$3
    13bc: 85 14        	sta	$14                     ; 0x2014 <printf+0xa98>
    13be: a5 15        	lda	$15                     ; 0x2015 <printf+0xa99>
    13c0: 69 00        	adc	#$0
    13c2: 85 15        	sta	$15                     ; 0x2015 <printf+0xa99>
    13c4: a0 01        	ldy	#$1
    13c6: b1 16        	lda	($16),y                 ; 0x2016 <printf+0xa9a>
    13c8: d1 14        	cmp	($14),y                 ; 0x2014 <printf+0xa98>
    13ca: d0 11        	bne	$13dd <_ZN12_GLOBAL__N_13putEcP6Status+0x3f>
    13cc: a0 03        	ldy	#$3
    13ce: 85 17        	sta	$17                     ; 0x2017 <printf+0xa9b>
    13d0: b1 12        	lda	($12),y                 ; 0x2012 <printf+0xa96>
    13d2: 85 14        	sta	$14                     ; 0x2014 <printf+0xa98>
    13d4: 86 16        	stx	$16                     ; 0x2016 <printf+0xa9a>
    13d6: e4 14        	cpx	$14                     ; 0x2014 <printf+0xa98>
    13d8: 90 0e        	bcc	$13e8 <_ZN12_GLOBAL__N_13putEcP6Status+0x4a>
    13da: 4c 47 14     	jmp	$1447 <_ZN12_GLOBAL__N_13putEcP6Status+0xa9>
    13dd: 86 16        	stx	$16                     ; 0x2016 <printf+0xa9a>
    13df: d1 14        	cmp	($14),y                 ; 0x2014 <printf+0xa98>
    13e1: 85 17        	sta	$17                     ; 0x2017 <printf+0xa9b>
    13e3: 90 03        	bcc	$13e8 <_ZN12_GLOBAL__N_13putEcP6Status+0x4a>
    13e5: 4c 47 14     	jmp	$1447 <_ZN12_GLOBAL__N_13putEcP6Status+0xa9>
    13e8: a5 12        	lda	$12                     ; 0x2012 <printf+0xa96>
    13ea: 18           	clc
    13eb: 69 0f        	adc	#$f
    13ed: 85 14        	sta	$14                     ; 0x2014 <printf+0xa98>
    13ef: a5 13        	lda	$13                     ; 0x2013 <printf+0xa97>
    13f1: 69 00        	adc	#$0
    13f3: 85 15        	sta	$15                     ; 0x2015 <printf+0xa99>
    13f5: a0 01        	ldy	#$1
    13f7: b1 14        	lda	($14),y                 ; 0x2014 <printf+0xa98>
    13f9: a2 00        	ldx	#$0
    13fb: 86 14        	stx	$14                     ; 0x2014 <printf+0xa98>
    13fd: a2 00        	ldx	#$0
    13ff: 86 15        	stx	$15                     ; 0x2015 <printf+0xa99>
    1401: c5 15        	cmp	$15                     ; 0x2015 <printf+0xa99>
    1403: d0 2d        	bne	$1432 <_ZN12_GLOBAL__N_13putEcP6Status+0x94>
    1405: a0 0f        	ldy	#$f
    1407: b1 12        	lda	($12),y                 ; 0x2012 <printf+0xa96>
    1409: c5 14        	cmp	$14                     ; 0x2014 <printf+0xa98>
    140b: d0 25        	bne	$1432 <_ZN12_GLOBAL__N_13putEcP6Status+0x94>
    140d: a5 12        	lda	$12                     ; 0x2012 <printf+0xa96>
    140f: 18           	clc
    1410: 69 09        	adc	#$9
    1412: 85 14        	sta	$14                     ; 0x2014 <printf+0xa98>
    1414: a5 13        	lda	$13                     ; 0x2013 <printf+0xa97>
    1416: 69 00        	adc	#$0
    1418: a0 09        	ldy	#$9
    141a: 85 15        	sta	$15                     ; 0x2015 <printf+0xa99>
    141c: 18           	clc
    141d: a5 16        	lda	$16                     ; 0x2016 <printf+0xa9a>
    141f: 71 12        	adc	($12),y                 ; 0x2012 <printf+0xa96>
    1421: aa           	tax
    1422: a0 01        	ldy	#$1
    1424: a5 17        	lda	$17                     ; 0x2017 <printf+0xa9b>
    1426: 71 14        	adc	($14),y                 ; 0x2014 <printf+0xa98>
    1428: 86 14        	stx	$14                     ; 0x2014 <printf+0xa98>
    142a: 85 15        	sta	$15                     ; 0x2015 <printf+0xa99>
    142c: a5 18        	lda	$18                     ; 0x2018 <printf+0xa9c>
    142e: 92 14        	sta	($14)                   ; 0x2014 <printf+0xa98>
    1430: 80 15        	bra	$1447 <_ZN12_GLOBAL__N_13putEcP6Status+0xa9>
    1432: a6 12        	ldx	$12                     ; 0x2012 <printf+0xa96>
    1434: 86 b4        	stx	$b4                     ; 0x20b4 <printf+0xb38>
    1436: a6 13        	ldx	$13                     ; 0x2013 <printf+0xa97>
    1438: 86 b5        	stx	$b5                     ; 0x20b5 <printf+0xb39>
    143a: a5 18        	lda	$18                     ; 0x2018 <printf+0xa9c>
    143c: 20 8c 13     	jsr	$138c <__putchar>
    143f: a6 b4        	ldx	$b4                     ; 0x20b4 <printf+0xb38>
    1441: 86 12        	stx	$12                     ; 0x2012 <printf+0xa96>
    1443: a6 b5        	ldx	$b5                     ; 0x20b5 <printf+0xb39>
    1445: 86 13        	stx	$13                     ; 0x2013 <printf+0xa97>
    1447: a0 05        	ldy	#$5
    1449: a5 12        	lda	$12                     ; 0x2012 <printf+0xa96>
    144b: 18           	clc
    144c: 69 05        	adc	#$5
    144e: 85 14        	sta	$14                     ; 0x2014 <printf+0xa98>
    1450: a5 13        	lda	$13                     ; 0x2013 <printf+0xa97>
    1452: 69 00        	adc	#$0
    1454: 85 15        	sta	$15                     ; 0x2015 <printf+0xa99>
    1456: b1 12        	lda	($12),y                 ; 0x2012 <printf+0xa96>
    1458: aa           	tax
    1459: a0 01        	ldy	#$1
    145b: b1 14        	lda	($14),y                 ; 0x2014 <printf+0xa98>
    145d: e8           	inx
    145e: d0 01        	bne	$1461 <_ZN12_GLOBAL__N_13putEcP6Status+0xc3>
    1460: 1a           	inc
    1461: 85 16        	sta	$16                     ; 0x2016 <printf+0xa9a>
    1463: 8a           	txa
    1464: a0 05        	ldy	#$5
    1466: 91 12        	sta	($12),y                 ; 0x2012 <printf+0xa96>
    1468: a0 01        	ldy	#$1
    146a: a5 16        	lda	$16                     ; 0x2016 <printf+0xa9a>
    146c: 91 14        	sta	($14),y                 ; 0x2014 <printf+0xa98>
    146e: 60           	rts

0000146f <_ZN12_GLOBAL__N_112print_stringEPKcP6Status>:
    146f: a6 12        	ldx	$12                     ; 0x2012 <printf+0xa96>
    1471: 86 ac        	stx	$ac                     ; 0x20ac <printf+0xb30>
    1473: a6 13        	ldx	$13                     ; 0x2013 <printf+0xa97>
    1475: 86 ad        	stx	$ad                     ; 0x20ad <printf+0xb31>
    1477: a6 14        	ldx	$14                     ; 0x2014 <printf+0xa98>
    1479: 86 ae        	stx	$ae                     ; 0x20ae <printf+0xb32>
    147b: a6 15        	ldx	$15                     ; 0x2015 <printf+0xa99>
    147d: 86 af        	stx	$af                     ; 0x20af <printf+0xb33>
    147f: a5 ae        	lda	$ae                     ; 0x20ae <printf+0xb32>
    1481: 18           	clc
    1482: 69 0d        	adc	#$d
    1484: 85 12        	sta	$12                     ; 0x2012 <printf+0xa96>
    1486: a5 af        	lda	$af                     ; 0x20af <printf+0xb33>
    1488: 69 00        	adc	#$0
    148a: 85 13        	sta	$13                     ; 0x2013 <printf+0xa97>
    148c: a0 01        	ldy	#$1
    148e: b1 12        	lda	($12),y                 ; 0x2012 <printf+0xa96>
    1490: 30 16        	bmi	$14a8 <_ZN12_GLOBAL__N_112print_stringEPKcP6Status+0x39>
    1492: a0 0d        	ldy	#$d
    1494: 85 12        	sta	$12                     ; 0x2012 <printf+0xa96>
    1496: b1 ae        	lda	($ae),y                 ; 0x20ae <printf+0xb32>
    1498: a6 12        	ldx	$12                     ; 0x2012 <printf+0xa96>
    149a: 86 b3        	stx	$b3                     ; 0x20b3 <printf+0xb37>
    149c: d0 0f        	bne	$14ad <_ZN12_GLOBAL__N_112print_stringEPKcP6Status+0x3e>
    149e: aa           	tax
    149f: d0 0c        	bne	$14ad <_ZN12_GLOBAL__N_112print_stringEPKcP6Status+0x3e>
    14a1: 64 b0        	stz	$b0                     ; 0x20b0 <printf+0xb34>
    14a3: a2 00        	ldx	#$0
    14a5: 4c 77 15     	jmp	$1577 <_ZN12_GLOBAL__N_112print_stringEPKcP6Status+0x108>
    14a8: a9 ff        	lda	#$ff
    14aa: aa           	tax
    14ab: 86 b3        	stx	$b3                     ; 0x20b3 <printf+0xb37>
    14ad: 85 b0        	sta	$b0                     ; 0x20b0 <printf+0xb34>
    14af: 64 12        	stz	$12                     ; 0x2012 <printf+0xa96>
    14b1: a4 ac        	ldy	$ac                     ; 0x20ac <printf+0xb30>
    14b3: a6 ad        	ldx	$ad                     ; 0x20ad <printf+0xb31>
    14b5: 86 16        	stx	$16                     ; 0x2016 <printf+0xa9a>
    14b7: 64 13        	stz	$13                     ; 0x2013 <printf+0xa97>
    14b9: 98           	tya
    14ba: 18           	clc
    14bb: 65 12        	adc	$12                     ; 0x2012 <printf+0xa96>
    14bd: 85 14        	sta	$14                     ; 0x2014 <printf+0xa98>
    14bf: a5 ad        	lda	$ad                     ; 0x20ad <printf+0xb31>
    14c1: 65 13        	adc	$13                     ; 0x2013 <printf+0xa97>
    14c3: 85 15        	sta	$15                     ; 0x2015 <printf+0xa99>
    14c5: b2 14        	lda	($14)                   ; 0x2014 <printf+0xa98>
    14c7: d0 03        	bne	$14cc <_ZN12_GLOBAL__N_112print_stringEPKcP6Status+0x5d>
    14c9: 4c 71 15     	jmp	$1571 <_ZN12_GLOBAL__N_112print_stringEPKcP6Status+0x102>
    14cc: e6 12        	inc	$12                     ; 0x2012 <printf+0xa96>
    14ce: d0 02        	bne	$14d2 <_ZN12_GLOBAL__N_112print_stringEPKcP6Status+0x63>
    14d0: e6 13        	inc	$13                     ; 0x2013 <printf+0xa97>
    14d2: a6 b3        	ldx	$b3                     ; 0x20b3 <printf+0xb37>
    14d4: e4 13        	cpx	$13                     ; 0x2013 <printf+0xa97>
    14d6: d0 e1        	bne	$14b9 <_ZN12_GLOBAL__N_112print_stringEPKcP6Status+0x4a>
    14d8: a6 b0        	ldx	$b0                     ; 0x20b0 <printf+0xb34>
    14da: e4 12        	cpx	$12                     ; 0x2012 <printf+0xa96>
    14dc: d0 db        	bne	$14b9 <_ZN12_GLOBAL__N_112print_stringEPKcP6Status+0x4a>
    14de: a0 01        	ldy	#$1
    14e0: 98           	tya
    14e1: 31 ae        	and	($ae),y                 ; 0x20ae <printf+0xb32>
    14e3: 29 01        	and	#$1
    14e5: f0 03        	beq	$14ea <_ZN12_GLOBAL__N_112print_stringEPKcP6Status+0x7b>
    14e7: 4c 42 15     	jmp	$1542 <_ZN12_GLOBAL__N_112print_stringEPKcP6Status+0xd3>
    14ea: a0 0b        	ldy	#$b
    14ec: a5 ae        	lda	$ae                     ; 0x20ae <printf+0xb32>
    14ee: 18           	clc
    14ef: 69 0b        	adc	#$b
    14f1: 85 14        	sta	$14                     ; 0x2014 <printf+0xa98>
    14f3: a5 af        	lda	$af                     ; 0x20af <printf+0xb33>
    14f5: 69 00        	adc	#$0
    14f7: 85 15        	sta	$15                     ; 0x2015 <printf+0xa99>
    14f9: b1 ae        	lda	($ae),y                 ; 0x20ae <printf+0xb32>
    14fb: 85 12        	sta	$12                     ; 0x2012 <printf+0xa96>
    14fd: a0 01        	ldy	#$1
    14ff: b1 14        	lda	($14),y                 ; 0x2014 <printf+0xa98>
    1501: 85 13        	sta	$13                     ; 0x2013 <printf+0xa97>
    1503: a6 b3        	ldx	$b3                     ; 0x20b3 <printf+0xb37>
    1505: e4 13        	cpx	$13                     ; 0x2013 <printf+0xa97>
    1507: d0 08        	bne	$1511 <_ZN12_GLOBAL__N_112print_stringEPKcP6Status+0xa2>
    1509: a6 b0        	ldx	$b0                     ; 0x20b0 <printf+0xb34>
    150b: e4 12        	cpx	$12                     ; 0x2012 <printf+0xa96>
    150d: 90 06        	bcc	$1515 <_ZN12_GLOBAL__N_112print_stringEPKcP6Status+0xa6>
    150f: 80 31        	bra	$1542 <_ZN12_GLOBAL__N_112print_stringEPKcP6Status+0xd3>
    1511: e4 13        	cpx	$13                     ; 0x2013 <printf+0xa97>
    1513: b0 2d        	bcs	$1542 <_ZN12_GLOBAL__N_112print_stringEPKcP6Status+0xd3>
    1515: 38           	sec
    1516: a5 b0        	lda	$b0                     ; 0x20b0 <printf+0xb34>
    1518: e5 12        	sbc	$12                     ; 0x2012 <printf+0xa96>
    151a: a8           	tay
    151b: a5 b3        	lda	$b3                     ; 0x20b3 <printf+0xb37>
    151d: e5 13        	sbc	$13                     ; 0x2013 <printf+0xa97>
    151f: 85 b2        	sta	$b2                     ; 0x20b2 <printf+0xb36>
    1521: a6 ae        	ldx	$ae                     ; 0x20ae <printf+0xb32>
    1523: 86 12        	stx	$12                     ; 0x2012 <printf+0xa96>
    1525: a6 af        	ldx	$af                     ; 0x20af <printf+0xb33>
    1527: 86 13        	stx	$13                     ; 0x2013 <printf+0xa97>
    1529: 84 b1        	sty	$b1                     ; 0x20b1 <printf+0xb35>
    152b: a9 20        	lda	#$20
    152d: 20 9e 13     	jsr	$139e <_ZN12_GLOBAL__N_13putEcP6Status>
    1530: a6 b2        	ldx	$b2                     ; 0x20b2 <printf+0xb36>
    1532: e6 b1        	inc	$b1                     ; 0x20b1 <printf+0xb35>
    1534: d0 01        	bne	$1537 <_ZN12_GLOBAL__N_112print_stringEPKcP6Status+0xc8>
    1536: e8           	inx
    1537: 86 b2        	stx	$b2                     ; 0x20b2 <printf+0xb36>
    1539: a4 b1        	ldy	$b1                     ; 0x20b1 <printf+0xb35>
    153b: 8a           	txa
    153c: d0 e3        	bne	$1521 <_ZN12_GLOBAL__N_112print_stringEPKcP6Status+0xb2>
    153e: a5 b1        	lda	$b1                     ; 0x20b1 <printf+0xb35>
    1540: d0 df        	bne	$1521 <_ZN12_GLOBAL__N_112print_stringEPKcP6Status+0xb2>
    1542: a4 b3        	ldy	$b3                     ; 0x20b3 <printf+0xb37>
    1544: d0 04        	bne	$154a <_ZN12_GLOBAL__N_112print_stringEPKcP6Status+0xdb>
    1546: a5 b0        	lda	$b0                     ; 0x20b0 <printf+0xb34>
    1548: f0 26        	beq	$1570 <_ZN12_GLOBAL__N_112print_stringEPKcP6Status+0x101>
    154a: a2 ff        	ldx	#$ff
    154c: c6 b0        	dec	$b0                     ; 0x20b0 <printf+0xb34>
    154e: e4 b0        	cpx	$b0                     ; 0x20b0 <printf+0xb34>
    1550: d0 01        	bne	$1553 <_ZN12_GLOBAL__N_112print_stringEPKcP6Status+0xe4>
    1552: 88           	dey
    1553: 84 b1        	sty	$b1                     ; 0x20b1 <printf+0xb35>
    1555: b2 ac        	lda	($ac)                   ; 0x20ac <printf+0xb30>
    1557: e6 ac        	inc	$ac                     ; 0x20ac <printf+0xb30>
    1559: d0 02        	bne	$155d <_ZN12_GLOBAL__N_112print_stringEPKcP6Status+0xee>
    155b: e6 ad        	inc	$ad                     ; 0x20ad <printf+0xb31>
    155d: a6 ae        	ldx	$ae                     ; 0x20ae <printf+0xb32>
    155f: 86 12        	stx	$12                     ; 0x2012 <printf+0xa96>
    1561: a6 af        	ldx	$af                     ; 0x20af <printf+0xb33>
    1563: 86 13        	stx	$13                     ; 0x2013 <printf+0xa97>
    1565: 20 9e 13     	jsr	$139e <_ZN12_GLOBAL__N_13putEcP6Status>
    1568: a4 b1        	ldy	$b1                     ; 0x20b1 <printf+0xb35>
    156a: d0 de        	bne	$154a <_ZN12_GLOBAL__N_112print_stringEPKcP6Status+0xdb>
    156c: a5 b0        	lda	$b0                     ; 0x20b0 <printf+0xb34>
    156e: d0 da        	bne	$154a <_ZN12_GLOBAL__N_112print_stringEPKcP6Status+0xdb>
    1570: 60           	rts
    1571: a6 12        	ldx	$12                     ; 0x2012 <printf+0xa96>
    1573: 86 b0        	stx	$b0                     ; 0x20b0 <printf+0xb34>
    1575: a6 13        	ldx	$13                     ; 0x2013 <printf+0xa97>
    1577: 86 b3        	stx	$b3                     ; 0x20b3 <printf+0xb37>
    1579: 4c de 14     	jmp	$14de <_ZN12_GLOBAL__N_112print_stringEPKcP6Status+0x6f>

0000157c <printf>:
    157c: a6 12        	ldx	$12                     ; 0x2012 <printf+0xa96>
    157e: 86 61        	stx	$61                     ; 0x2061 <printf+0xae5>
    1580: a6 13        	ldx	$13                     ; 0x2013 <printf+0xa97>
    1582: 86 62        	stx	$62                     ; 0x2062 <printf+0xae6>
    1584: 18           	clc
    1585: a6 10        	ldx	$10                     ; 0x2010 <printf+0xa94>
    1587: a4 11        	ldy	$11                     ; 0x2011 <printf+0xa95>
    1589: 86 a2        	stx	$a2                     ; 0x20a2 <printf+0xb26>
    158b: 84 a3        	sty	$a3                     ; 0x20a3 <printf+0xb27>
    158d: a6 a2        	ldx	$a2                     ; 0x20a2 <printf+0xb26>
    158f: a4 a3        	ldy	$a3                     ; 0x20a3 <printf+0xb27>
    1591: 86 8d        	stx	$8d                     ; 0x208d <printf+0xb11>
    1593: 84 8e        	sty	$8e                     ; 0x208e <printf+0xb12>
    1595: a2 ff        	ldx	#$ff
    1597: 86 92        	stx	$92                     ; 0x2092 <printf+0xb16>
    1599: 86 93        	stx	$93                     ; 0x2093 <printf+0xb17>
    159b: 64 94        	stz	$94                     ; 0x2094 <printf+0xb18>
    159d: 64 95        	stz	$95                     ; 0x2095 <printf+0xb19>
    159f: e8           	inx
    15a0: 86 63        	stx	$63                     ; 0x2063 <printf+0xae7>
    15a2: a2 00        	ldx	#$0
    15a4: 86 64        	stx	$64                     ; 0x2064 <printf+0xae8>
    15a6: a6 63        	ldx	$63                     ; 0x2063 <printf+0xae7>
    15a8: a4 64        	ldy	$64                     ; 0x2064 <printf+0xae8>
    15aa: 86 98        	stx	$98                     ; 0x2098 <printf+0xb1c>
    15ac: 84 99        	sty	$99                     ; 0x2099 <printf+0xb1d>
    15ae: a2 02        	ldx	#$2
    15b0: 86 9e        	stx	$9e                     ; 0x209e <printf+0xb22>
    15b2: 64 9f        	stz	$9f                     ; 0x209f <printf+0xb23>
    15b4: a6 8d        	ldx	$8d                     ; 0x208d <printf+0xb11>
    15b6: a4 8e        	ldy	$8e                     ; 0x208e <printf+0xb12>
    15b8: 86 a0        	stx	$a0                     ; 0x20a0 <printf+0xb24>
    15ba: 84 a1        	sty	$a1                     ; 0x20a1 <printf+0xb25>
    15bc: a2 84        	ldx	#$84
    15be: a0 00        	ldy	#$0
    15c0: 86 12        	stx	$12                     ; 0x2012 <printf+0xa96>
    15c2: 84 13        	sty	$13                     ; 0x2013 <printf+0xa97>
    15c4: a0 01        	ldy	#$1
    15c6: a9 6b        	lda	#$6b
    15c8: 18           	clc
    15c9: 69 02        	adc	#$2
    15cb: 85 aa        	sta	$aa                     ; 0x20aa <printf+0xb2e>
    15cd: a9 00        	lda	#$0
    15cf: 69 00        	adc	#$0
    15d1: 85 ab        	sta	$ab                     ; 0x20ab <printf+0xb2f>
    15d3: e6 12        	inc	$12                     ; 0x2012 <printf+0xa96>
    15d5: d0 02        	bne	$15d9 <printf+0x5d>
    15d7: e6 13        	inc	$13                     ; 0x2013 <printf+0xa97>
    15d9: a6 12        	ldx	$12                     ; 0x2012 <printf+0xa96>
    15db: 86 a7        	stx	$a7                     ; 0x20a7 <printf+0xb2b>
    15dd: a6 13        	ldx	$13                     ; 0x2013 <printf+0xa97>
    15df: 86 a8        	stx	$a8                     ; 0x20a8 <printf+0xb2c>
    15e1: a6 61        	ldx	$61                     ; 0x2061 <printf+0xae5>
    15e3: 86 65        	stx	$65                     ; 0x2065 <printf+0xae9>
    15e5: a6 62        	ldx	$62                     ; 0x2062 <printf+0xae6>
    15e7: 86 66        	stx	$66                     ; 0x2066 <printf+0xaea>
    15e9: b2 61        	lda	($61)                   ; 0x2061 <printf+0xae5>
    15eb: c9 25        	cmp	#$25
    15ed: f0 21        	beq	$1610 <printf+0x94>
    15ef: aa           	tax
    15f0: d0 03        	bne	$15f5 <printf+0x79>
    15f2: 4c 2b 21     	jmp	$212b <printf+0xbaf>
    15f5: 20 8c 13     	jsr	$138c <__putchar>
    15f8: a0 01        	ldy	#$1
    15fa: e6 65        	inc	$65                     ; 0x2065 <printf+0xae9>
    15fc: d0 02        	bne	$1600 <printf+0x84>
    15fe: e6 66        	inc	$66                     ; 0x2066 <printf+0xaea>
    1600: e6 94        	inc	$94                     ; 0x2094 <printf+0xb18>
    1602: d0 02        	bne	$1606 <printf+0x8a>
    1604: e6 95        	inc	$95                     ; 0x2095 <printf+0xb19>
    1606: a6 65        	ldx	$65                     ; 0x2065 <printf+0xae9>
    1608: 86 61        	stx	$61                     ; 0x2061 <printf+0xae5>
    160a: a6 66        	ldx	$66                     ; 0x2066 <printf+0xaea>
    160c: 86 62        	stx	$62                     ; 0x2062 <printf+0xae6>
    160e: 80 d1        	bra	$15e1 <printf+0x65>
    1610: a6 61        	ldx	$61                     ; 0x2061 <printf+0xae5>
    1612: 86 12        	stx	$12                     ; 0x2012 <printf+0xa96>
    1614: a6 62        	ldx	$62                     ; 0x2062 <printf+0xae6>
    1616: 86 13        	stx	$13                     ; 0x2013 <printf+0xa97>
    1618: e6 12        	inc	$12                     ; 0x2012 <printf+0xa96>
    161a: d0 02        	bne	$161e <printf+0xa2>
    161c: e6 13        	inc	$13                     ; 0x2013 <printf+0xa97>
    161e: b1 65        	lda	($65),y                 ; 0x2065 <printf+0xae9>
    1620: c9 25        	cmp	#$25
    1622: d0 16        	bne	$163a <printf+0xbe>
    1624: a4 94        	ldy	$94                     ; 0x2094 <printf+0xb18>
    1626: a5 95        	lda	$95                     ; 0x2095 <printf+0xb19>
    1628: c5 93        	cmp	$93                     ; 0x2093 <printf+0xb17>
    162a: f0 03        	beq	$162f <printf+0xb3>
    162c: 4c 40 17     	jmp	$1740 <printf+0x1c4>
    162f: a6 92        	ldx	$92                     ; 0x2092 <printf+0xb16>
    1631: 86 12        	stx	$12                     ; 0x2012 <printf+0xa96>
    1633: 84 13        	sty	$13                     ; 0x2013 <printf+0xa97>
    1635: c4 12        	cpy	$12                     ; 0x2012 <printf+0xa96>
    1637: 4c 44 17     	jmp	$1744 <printf+0x1c8>
    163a: 64 90        	stz	$90                     ; 0x2090 <printf+0xb14>
    163c: 64 91        	stz	$91                     ; 0x2091 <printf+0xb15>
    163e: 64 8f        	stz	$8f                     ; 0x208f <printf+0xb13>
    1640: 64 9a        	stz	$9a                     ; 0x209a <printf+0xb1e>
    1642: 64 9b        	stz	$9b                     ; 0x209b <printf+0xb1f>
    1644: a2 ff        	ldx	#$ff
    1646: 86 9c        	stx	$9c                     ; 0x209c <printf+0xb20>
    1648: 86 9d        	stx	$9d                     ; 0x209d <printf+0xb21>
    164a: 64 60        	stz	$60                     ; 0x2060 <printf+0xae4>
    164c: 80 33        	bra	$1681 <printf+0x105>
    164e: a2 02        	ldx	#$2
    1650: 80 15        	bra	$1667 <printf+0xeb>
    1652: e0 20        	cpx	#$20
    1654: f0 15        	beq	$166b <printf+0xef>
    1656: 86 15        	stx	$15                     ; 0x2015 <printf+0xa99>
    1658: e0 23        	cpx	#$23
    165a: f0 03        	beq	$165f <printf+0xe3>
    165c: 4c de 16     	jmp	$16de <printf+0x162>
    165f: a5 60        	lda	$60                     ; 0x2060 <printf+0xae4>
    1661: a2 04        	ldx	#$4
    1663: 80 02        	bra	$1667 <printf+0xeb>
    1665: a2 10        	ldx	#$10
    1667: 86 14        	stx	$14                     ; 0x2014 <printf+0xa98>
    1669: 80 06        	bra	$1671 <printf+0xf5>
    166b: a2 08        	ldx	#$8
    166d: 86 14        	stx	$14                     ; 0x2014 <printf+0xa98>
    166f: a5 60        	lda	$60                     ; 0x2060 <printf+0xae4>
    1671: 05 14        	ora	$14                     ; 0x2014 <printf+0xa98>
    1673: 85 60        	sta	$60                     ; 0x2060 <printf+0xae4>
    1675: 85 90        	sta	$90                     ; 0x2090 <printf+0xb14>
    1677: a2 00        	ldx	#$0
    1679: 86 91        	stx	$91                     ; 0x2091 <printf+0xb15>
    167b: e6 12        	inc	$12                     ; 0x2012 <printf+0xa96>
    167d: d0 02        	bne	$1681 <printf+0x105>
    167f: e6 13        	inc	$13                     ; 0x2013 <printf+0xa97>
    1681: b2 12        	lda	($12)                   ; 0x2012 <printf+0xa96>
    1683: aa           	tax
    1684: 38           	sec
    1685: e9 2a        	sbc	#$2a
    1687: c9 07        	cmp	#$7
    1689: b0 c7        	bcs	$1652 <printf+0xd6>
    168b: 86 15        	stx	$15                     ; 0x2015 <printf+0xa99>
    168d: 0a           	asl
    168e: aa           	tax
    168f: a0 01        	ldy	#$1
    1691: 84 14        	sty	$14                     ; 0x2014 <printf+0xa98>
    1693: a5 60        	lda	$60                     ; 0x2060 <printf+0xae4>
    1695: 7c 7c 25     	jmp	($257c,x)               ; 0x257c <__set_v+0x1>
    1698: a5 a0        	lda	$a0                     ; 0x20a0 <printf+0xb24>
    169a: a6 a1        	ldx	$a1                     ; 0x20a1 <printf+0xb25>
    169c: 85 16        	sta	$16                     ; 0x2016 <printf+0xa9a>
    169e: 86 17        	stx	$17                     ; 0x2017 <printf+0xa9b>
    16a0: 18           	clc
    16a1: 69 02        	adc	#$2
    16a3: a8           	tay
    16a4: 8a           	txa
    16a5: 69 00        	adc	#$0
    16a7: 84 a0        	sty	$a0                     ; 0x20a0 <printf+0xb24>
    16a9: 85 a1        	sta	$a1                     ; 0x20a1 <printf+0xb25>
    16ab: b2 16        	lda	($16)                   ; 0x2016 <printf+0xa9a>
    16ad: 85 15        	sta	$15                     ; 0x2015 <printf+0xa99>
    16af: a0 01        	ldy	#$1
    16b1: b1 16        	lda	($16),y                 ; 0x2016 <printf+0xa9a>
    16b3: 85 14        	sta	$14                     ; 0x2014 <printf+0xa98>
    16b5: 10 15        	bpl	$16cc <printf+0x150>
    16b7: a5 60        	lda	$60                     ; 0x2060 <printf+0xae4>
    16b9: 09 01        	ora	#$1
    16bb: 85 60        	sta	$60                     ; 0x2060 <printf+0xae4>
    16bd: 85 90        	sta	$90                     ; 0x2090 <printf+0xb14>
    16bf: a2 00        	ldx	#$0
    16c1: 86 91        	stx	$91                     ; 0x2091 <printf+0xb15>
    16c3: 8a           	txa
    16c4: 38           	sec
    16c5: e5 15        	sbc	$15                     ; 0x2015 <printf+0xa99>
    16c7: 85 15        	sta	$15                     ; 0x2015 <printf+0xa99>
    16c9: 8a           	txa
    16ca: e5 14        	sbc	$14                     ; 0x2014 <printf+0xa98>
    16cc: a6 15        	ldx	$15                     ; 0x2015 <printf+0xa99>
    16ce: 86 9a        	stx	$9a                     ; 0x209a <printf+0xb1e>
    16d0: 85 9b        	sta	$9b                     ; 0x209b <printf+0xb1f>
    16d2: e6 12        	inc	$12                     ; 0x2012 <printf+0xa96>
    16d4: f0 03        	beq	$16d9 <printf+0x15d>
    16d6: 4c 92 17     	jmp	$1792 <printf+0x216>
    16d9: e6 13        	inc	$13                     ; 0x2013 <printf+0xa97>
    16db: 4c 92 17     	jmp	$1792 <printf+0x216>
    16de: a5 15        	lda	$15                     ; 0x2015 <printf+0xa99>
    16e0: 18           	clc
    16e1: 69 d0        	adc	#$d0
    16e3: c9 0a        	cmp	#$a
    16e5: 90 03        	bcc	$16ea <printf+0x16e>
    16e7: 4c 84 17     	jmp	$1784 <printf+0x208>
    16ea: a6 15        	ldx	$15                     ; 0x2015 <printf+0xa99>
    16ec: 86 14        	stx	$14                     ; 0x2014 <printf+0xa98>
    16ee: 64 16        	stz	$16                     ; 0x2016 <printf+0xa9a>
    16f0: 64 15        	stz	$15                     ; 0x2015 <printf+0xa99>
    16f2: 64 17        	stz	$17                     ; 0x2017 <printf+0xa9b>
    16f4: a0 01        	ldy	#$1
    16f6: 06 16        	asl	$16                     ; 0x2016 <printf+0xa9a>
    16f8: 26 17        	rol	$17                     ; 0x2017 <printf+0xa9b>
    16fa: a5 16        	lda	$16                     ; 0x2016 <printf+0xa9a>
    16fc: 0a           	asl
    16fd: aa           	tax
    16fe: a5 17        	lda	$17                     ; 0x2017 <printf+0xa9b>
    1700: 2a           	rol
    1701: 86 18        	stx	$18                     ; 0x2018 <printf+0xa9c>
    1703: 06 18        	asl	$18                     ; 0x2018 <printf+0xa9c>
    1705: 2a           	rol
    1706: aa           	tax
    1707: a5 18        	lda	$18                     ; 0x2018 <printf+0xa9c>
    1709: 18           	clc
    170a: 65 16        	adc	$16                     ; 0x2016 <printf+0xa9a>
    170c: 85 16        	sta	$16                     ; 0x2016 <printf+0xa9a>
    170e: 8a           	txa
    170f: 65 17        	adc	$17                     ; 0x2017 <printf+0xa9b>
    1711: 85 17        	sta	$17                     ; 0x2017 <printf+0xa9b>
    1713: a5 16        	lda	$16                     ; 0x2016 <printf+0xa9a>
    1715: 18           	clc
    1716: 65 14        	adc	$14                     ; 0x2014 <printf+0xa98>
    1718: 85 14        	sta	$14                     ; 0x2014 <printf+0xa98>
    171a: a5 17        	lda	$17                     ; 0x2017 <printf+0xa9b>
    171c: 65 15        	adc	$15                     ; 0x2015 <printf+0xa99>
    171e: aa           	tax
    171f: 18           	clc
    1720: a5 14        	lda	$14                     ; 0x2014 <printf+0xa98>
    1722: 69 d0        	adc	#$d0
    1724: 85 16        	sta	$16                     ; 0x2016 <printf+0xa9a>
    1726: 8a           	txa
    1727: 69 ff        	adc	#$ff
    1729: 85 17        	sta	$17                     ; 0x2017 <printf+0xa9b>
    172b: b1 12        	lda	($12),y                 ; 0x2012 <printf+0xa96>
    172d: 85 14        	sta	$14                     ; 0x2014 <printf+0xa98>
    172f: 18           	clc
    1730: 69 d0        	adc	#$d0
    1732: e6 12        	inc	$12                     ; 0x2012 <printf+0xa96>
    1734: d0 02        	bne	$1738 <printf+0x1bc>
    1736: e6 13        	inc	$13                     ; 0x2013 <printf+0xa97>
    1738: c9 0a        	cmp	#$a
    173a: 64 15        	stz	$15                     ; 0x2015 <printf+0xa99>
    173c: 90 b8        	bcc	$16f6 <printf+0x17a>
    173e: 80 4a        	bra	$178a <printf+0x20e>
    1740: 84 13        	sty	$13                     ; 0x2013 <printf+0xa97>
    1742: c5 93        	cmp	$93                     ; 0x2093 <printf+0xb17>
    1744: a0 01        	ldy	#$1
    1746: b0 26        	bcs	$176e <printf+0x1f2>
    1748: a6 9f        	ldx	$9f                     ; 0x209f <printf+0xb23>
    174a: e4 64        	cpx	$64                     ; 0x2064 <printf+0xae8>
    174c: d0 19        	bne	$1767 <printf+0x1eb>
    174e: a6 9e        	ldx	$9e                     ; 0x209e <printf+0xb22>
    1750: e4 63        	cpx	$63                     ; 0x2063 <printf+0xae7>
    1752: d0 13        	bne	$1767 <printf+0x1eb>
    1754: 18           	clc
    1755: aa           	tax
    1756: a5 13        	lda	$13                     ; 0x2013 <printf+0xa97>
    1758: 65 98        	adc	$98                     ; 0x2098 <printf+0xb1c>
    175a: 85 12        	sta	$12                     ; 0x2012 <printf+0xa96>
    175c: 8a           	txa
    175d: 65 99        	adc	$99                     ; 0x2099 <printf+0xb1d>
    175f: 85 13        	sta	$13                     ; 0x2013 <printf+0xa97>
    1761: a9 25        	lda	#$25
    1763: 92 12        	sta	($12)                   ; 0x2012 <printf+0xa96>
    1765: 80 07        	bra	$176e <printf+0x1f2>
    1767: a9 25        	lda	#$25
    1769: 20 8c 13     	jsr	$138c <__putchar>
    176c: a0 01        	ldy	#$1
    176e: e6 94        	inc	$94                     ; 0x2094 <printf+0xb18>
    1770: d0 02        	bne	$1774 <printf+0x1f8>
    1772: e6 95        	inc	$95                     ; 0x2095 <printf+0xb19>
    1774: a5 65        	lda	$65                     ; 0x2065 <printf+0xae9>
    1776: 18           	clc
    1777: 69 02        	adc	#$2
    1779: 85 61        	sta	$61                     ; 0x2061 <printf+0xae5>
    177b: a5 66        	lda	$66                     ; 0x2066 <printf+0xaea>
    177d: 69 00        	adc	#$0
    177f: 85 62        	sta	$62                     ; 0x2062 <printf+0xae6>
    1781: 4c e1 15     	jmp	$15e1 <printf+0x65>
    1784: 64 16        	stz	$16                     ; 0x2016 <printf+0xa9a>
    1786: 64 17        	stz	$17                     ; 0x2017 <printf+0xa9b>
    1788: a0 01        	ldy	#$1
    178a: a6 16        	ldx	$16                     ; 0x2016 <printf+0xa9a>
    178c: 86 9a        	stx	$9a                     ; 0x209a <printf+0xb1e>
    178e: a5 17        	lda	$17                     ; 0x2017 <printf+0xa9b>
    1790: 85 9b        	sta	$9b                     ; 0x209b <printf+0xb1f>
    1792: 86 69        	stx	$69                     ; 0x2069 <printf+0xaed>
    1794: 85 67        	sta	$67                     ; 0x2067 <printf+0xaeb>
    1796: b2 12        	lda	($12)                   ; 0x2012 <printf+0xa96>
    1798: a2 ff        	ldx	#$ff
    179a: c9 2e        	cmp	#$2e
    179c: d0 39        	bne	$17d7 <printf+0x25b>
    179e: b1 12        	lda	($12),y                 ; 0x2012 <printf+0xa96>
    17a0: c9 2a        	cmp	#$2a
    17a2: d0 38        	bne	$17dc <printf+0x260>
    17a4: a5 a0        	lda	$a0                     ; 0x20a0 <printf+0xb24>
    17a6: a6 a1        	ldx	$a1                     ; 0x20a1 <printf+0xb25>
    17a8: 85 14        	sta	$14                     ; 0x2014 <printf+0xa98>
    17aa: 86 15        	stx	$15                     ; 0x2015 <printf+0xa99>
    17ac: 18           	clc
    17ad: 69 02        	adc	#$2
    17af: 85 16        	sta	$16                     ; 0x2016 <printf+0xa9a>
    17b1: 8a           	txa
    17b2: 69 00        	adc	#$0
    17b4: a6 16        	ldx	$16                     ; 0x2016 <printf+0xa9a>
    17b6: 86 a0        	stx	$a0                     ; 0x20a0 <printf+0xb24>
    17b8: 85 a1        	sta	$a1                     ; 0x20a1 <printf+0xb25>
    17ba: a5 12        	lda	$12                     ; 0x2012 <printf+0xa96>
    17bc: 18           	clc
    17bd: 69 02        	adc	#$2
    17bf: 85 12        	sta	$12                     ; 0x2012 <printf+0xa96>
    17c1: a5 13        	lda	$13                     ; 0x2013 <printf+0xa97>
    17c3: 69 00        	adc	#$0
    17c5: 85 13        	sta	$13                     ; 0x2013 <printf+0xa97>
    17c7: b2 14        	lda	($14)                   ; 0x2014 <printf+0xa98>
    17c9: aa           	tax
    17ca: b1 14        	lda	($14),y                 ; 0x2014 <printf+0xa98>
    17cc: 86 18        	stx	$18                     ; 0x2018 <printf+0xa9c>
    17ce: 86 9c        	stx	$9c                     ; 0x209c <printf+0xb20>
    17d0: 85 19        	sta	$19                     ; 0x2019 <printf+0xa9d>
    17d2: 85 9d        	sta	$9d                     ; 0x209d <printf+0xb21>
    17d4: 4c 87 18     	jmp	$1887 <printf+0x30b>
    17d7: 86 18        	stx	$18                     ; 0x2018 <printf+0xa9c>
    17d9: 4c 97 18     	jmp	$1897 <printf+0x31b>
    17dc: 85 17        	sta	$17                     ; 0x2017 <printf+0xa9b>
    17de: 18           	clc
    17df: 69 d0        	adc	#$d0
    17e1: c9 0a        	cmp	#$a
    17e3: 90 03        	bcc	$17e8 <printf+0x26c>
    17e5: 4c 79 18     	jmp	$1879 <printf+0x2fd>
    17e8: 64 16        	stz	$16                     ; 0x2016 <printf+0xa9a>
    17ea: a2 01        	ldx	#$1
    17ec: 64 18        	stz	$18                     ; 0x2018 <printf+0xa9c>
    17ee: 64 19        	stz	$19                     ; 0x2019 <printf+0xa9d>
    17f0: a0 01        	ldy	#$1
    17f2: 64 1a        	stz	$1a                     ; 0x201a <printf+0xa9e>
    17f4: 5a           	phy
    17f5: a4 1a        	ldy	$1a                     ; 0x201a <printf+0xa9e>
    17f7: 84 14        	sty	$14                     ; 0x2014 <printf+0xa98>
    17f9: 86 15        	stx	$15                     ; 0x2015 <printf+0xa99>
    17fb: 06 18        	asl	$18                     ; 0x2018 <printf+0xa9c>
    17fd: 26 19        	rol	$19                     ; 0x2019 <printf+0xa9d>
    17ff: a5 18        	lda	$18                     ; 0x2018 <printf+0xa9c>
    1801: 0a           	asl
    1802: 85 1d        	sta	$1d                     ; 0x201d <printf+0xaa1>
    1804: a5 19        	lda	$19                     ; 0x2019 <printf+0xa9d>
    1806: 2a           	rol
    1807: 06 1d        	asl	$1d                     ; 0x201d <printf+0xaa1>
    1809: 2a           	rol
    180a: 85 1e        	sta	$1e                     ; 0x201e <printf+0xaa2>
    180c: a5 1d        	lda	$1d                     ; 0x201d <printf+0xaa1>
    180e: 18           	clc
    180f: 65 18        	adc	$18                     ; 0x2018 <printf+0xa9c>
    1811: 85 18        	sta	$18                     ; 0x2018 <printf+0xa9c>
    1813: a5 1e        	lda	$1e                     ; 0x201e <printf+0xaa2>
    1815: 65 19        	adc	$19                     ; 0x2019 <printf+0xa9d>
    1817: 85 19        	sta	$19                     ; 0x2019 <printf+0xa9d>
    1819: a5 18        	lda	$18                     ; 0x2018 <printf+0xa9c>
    181b: 18           	clc
    181c: 65 17        	adc	$17                     ; 0x2017 <printf+0xa9b>
    181e: 85 17        	sta	$17                     ; 0x2017 <printf+0xa9b>
    1820: a5 19        	lda	$19                     ; 0x2019 <printf+0xa9d>
    1822: 65 16        	adc	$16                     ; 0x2016 <printf+0xa9a>
    1824: 85 16        	sta	$16                     ; 0x2016 <printf+0xa9a>
    1826: 18           	clc
    1827: a5 17        	lda	$17                     ; 0x2017 <printf+0xa9b>
    1829: 69 d0        	adc	#$d0
    182b: 85 18        	sta	$18                     ; 0x2018 <printf+0xa9c>
    182d: a5 16        	lda	$16                     ; 0x2016 <printf+0xa9a>
    182f: 69 ff        	adc	#$ff
    1831: 85 19        	sta	$19                     ; 0x2019 <printf+0xa9d>
    1833: e8           	inx
    1834: d0 02        	bne	$1838 <printf+0x2bc>
    1836: e6 1a        	inc	$1a                     ; 0x201a <printf+0xa9e>
    1838: a5 12        	lda	$12                     ; 0x2012 <printf+0xa96>
    183a: 18           	clc
    183b: 65 15        	adc	$15                     ; 0x2015 <printf+0xa99>
    183d: 85 1d        	sta	$1d                     ; 0x201d <printf+0xaa1>
    183f: a5 13        	lda	$13                     ; 0x2013 <printf+0xa97>
    1841: 65 14        	adc	$14                     ; 0x2014 <printf+0xa98>
    1843: a4 1d        	ldy	$1d                     ; 0x201d <printf+0xaa1>
    1845: 84 16        	sty	$16                     ; 0x2016 <printf+0xa9a>
    1847: 7a           	ply
    1848: 85 17        	sta	$17                     ; 0x2017 <printf+0xa9b>
    184a: b1 16        	lda	($16),y                 ; 0x2016 <printf+0xa9a>
    184c: 85 17        	sta	$17                     ; 0x2017 <printf+0xa9b>
    184e: 18           	clc
    184f: 69 d0        	adc	#$d0
    1851: c9 0a        	cmp	#$a
    1853: 64 16        	stz	$16                     ; 0x2016 <printf+0xa9a>
    1855: b0 03        	bcs	$185a <printf+0x2de>
    1857: 4c f4 17     	jmp	$17f4 <printf+0x278>
    185a: a5 12        	lda	$12                     ; 0x2012 <printf+0xa96>
    185c: 18           	clc
    185d: 65 15        	adc	$15                     ; 0x2015 <printf+0xa99>
    185f: 85 12        	sta	$12                     ; 0x2012 <printf+0xa96>
    1861: a5 13        	lda	$13                     ; 0x2013 <printf+0xa97>
    1863: 65 14        	adc	$14                     ; 0x2014 <printf+0xa98>
    1865: 85 13        	sta	$13                     ; 0x2013 <printf+0xa97>
    1867: e6 12        	inc	$12                     ; 0x2012 <printf+0xa96>
    1869: d0 02        	bne	$186d <printf+0x2f1>
    186b: e6 13        	inc	$13                     ; 0x2013 <printf+0xa97>
    186d: a6 18        	ldx	$18                     ; 0x2018 <printf+0xa9c>
    186f: 86 9c        	stx	$9c                     ; 0x209c <printf+0xb20>
    1871: a6 19        	ldx	$19                     ; 0x2019 <printf+0xa9d>
    1873: 86 9d        	stx	$9d                     ; 0x209d <printf+0xb21>
    1875: a0 01        	ldy	#$1
    1877: 80 0e        	bra	$1887 <printf+0x30b>
    1879: e6 12        	inc	$12                     ; 0x2012 <printf+0xa96>
    187b: d0 02        	bne	$187f <printf+0x303>
    187d: e6 13        	inc	$13                     ; 0x2013 <printf+0xa97>
    187f: 64 18        	stz	$18                     ; 0x2018 <printf+0xa9c>
    1881: 64 9c        	stz	$9c                     ; 0x209c <printf+0xb20>
    1883: 64 9d        	stz	$9d                     ; 0x209d <printf+0xb21>
    1885: 64 19        	stz	$19                     ; 0x2019 <printf+0xa9d>
    1887: a5 60        	lda	$60                     ; 0x2060 <printf+0xae4>
    1889: 29 ef        	and	#$ef
    188b: 85 60        	sta	$60                     ; 0x2060 <printf+0xae4>
    188d: 85 90        	sta	$90                     ; 0x2090 <printf+0xb14>
    188f: a2 00        	ldx	#$0
    1891: 86 91        	stx	$91                     ; 0x2091 <printf+0xb15>
    1893: b2 12        	lda	($12)                   ; 0x2012 <printf+0xa96>
    1895: a6 19        	ldx	$19                     ; 0x2019 <printf+0xa9d>
    1897: 86 15        	stx	$15                     ; 0x2015 <printf+0xa99>
    1899: a6 12        	ldx	$12                     ; 0x2012 <printf+0xa96>
    189b: 86 61        	stx	$61                     ; 0x2061 <printf+0xae5>
    189d: a6 13        	ldx	$13                     ; 0x2013 <printf+0xa97>
    189f: 86 62        	stx	$62                     ; 0x2062 <printf+0xae6>
    18a1: e6 61        	inc	$61                     ; 0x2061 <printf+0xae5>
    18a3: d0 02        	bne	$18a7 <printf+0x32b>
    18a5: e6 62        	inc	$62                     ; 0x2062 <printf+0xae6>
    18a7: 85 14        	sta	$14                     ; 0x2014 <printf+0xa98>
    18a9: 38           	sec
    18aa: e9 6c        	sbc	#$6c
    18ac: 50 02        	bvc	$18b0 <printf+0x334>
    18ae: 49 80        	eor	#$80
    18b0: aa           	tax
    18b1: 10 1d        	bpl	$18d0 <printf+0x354>
    18b3: a5 14        	lda	$14                     ; 0x2014 <printf+0xa98>
    18b5: c9 4c        	cmp	#$4c
    18b7: f0 27        	beq	$18e0 <printf+0x364>
    18b9: c9 68        	cmp	#$68
    18bb: d0 03        	bne	$18c0 <printf+0x344>
    18bd: 4c 47 19     	jmp	$1947 <printf+0x3cb>
    18c0: a2 08        	ldx	#$8
    18c2: c9 6a        	cmp	#$6a
    18c4: d0 2e        	bne	$18f4 <printf+0x378>
    18c6: a5 61        	lda	$61                     ; 0x2061 <printf+0xae5>
    18c8: 85 12        	sta	$12                     ; 0x2012 <printf+0xa96>
    18ca: a5 62        	lda	$62                     ; 0x2062 <printf+0xae6>
    18cc: 85 13        	sta	$13                     ; 0x2013 <printf+0xa97>
    18ce: 80 43        	bra	$1913 <printf+0x397>
    18d0: a6 14        	ldx	$14                     ; 0x2014 <printf+0xa98>
    18d2: e0 6c        	cpx	#$6c
    18d4: f0 23        	beq	$18f9 <printf+0x37d>
    18d6: e0 74        	cpx	#$74
    18d8: f0 12        	beq	$18ec <printf+0x370>
    18da: e0 7a        	cpx	#$7a
    18dc: f0 0e        	beq	$18ec <printf+0x370>
    18de: 80 14        	bra	$18f4 <printf+0x378>
    18e0: a5 60        	lda	$60                     ; 0x2060 <printf+0xae4>
    18e2: 09 40        	ora	#$40
    18e4: 85 60        	sta	$60                     ; 0x2060 <printf+0xae4>
    18e6: 85 90        	sta	$90                     ; 0x2090 <printf+0xb14>
    18e8: a2 00        	ldx	#$0
    18ea: 86 91        	stx	$91                     ; 0x2091 <printf+0xb15>
    18ec: a6 61        	ldx	$61                     ; 0x2061 <printf+0xae5>
    18ee: 86 12        	stx	$12                     ; 0x2012 <printf+0xa96>
    18f0: a6 62        	ldx	$62                     ; 0x2062 <printf+0xae6>
    18f2: 86 13        	stx	$13                     ; 0x2013 <printf+0xa97>
    18f4: a2 02        	ldx	#$2
    18f6: 8a           	txa
    18f7: 80 1c        	bra	$1915 <printf+0x399>
    18f9: b1 12        	lda	($12),y                 ; 0x2012 <printf+0xa96>
    18fb: a2 04        	ldx	#$4
    18fd: c9 6c        	cmp	#$6c
    18ff: f0 03        	beq	$1904 <printf+0x388>
    1901: 4c 46 1c     	jmp	$1c46 <printf+0x6ca>
    1904: a5 12        	lda	$12                     ; 0x2012 <printf+0xa96>
    1906: 18           	clc
    1907: 69 02        	adc	#$2
    1909: 85 12        	sta	$12                     ; 0x2012 <printf+0xa96>
    190b: a5 13        	lda	$13                     ; 0x2013 <printf+0xa97>
    190d: 69 00        	adc	#$0
    190f: 85 13        	sta	$13                     ; 0x2013 <printf+0xa97>
    1911: a2 08        	ldx	#$8
    1913: a9 08        	lda	#$8
    1915: 85 a6        	sta	$a6                     ; 0x20a6 <printf+0xb2a>
    1917: b2 12        	lda	($12)                   ; 0x2012 <printf+0xa96>
    1919: 5a           	phy
    191a: a4 12        	ldy	$12                     ; 0x2012 <printf+0xa96>
    191c: 84 61        	sty	$61                     ; 0x2061 <printf+0xae5>
    191e: a4 13        	ldy	$13                     ; 0x2013 <printf+0xa97>
    1920: 84 62        	sty	$62                     ; 0x2062 <printf+0xae6>
    1922: 7a           	ply
    1923: 86 63        	stx	$63                     ; 0x2063 <printf+0xae7>
    1925: aa           	tax
    1926: 38           	sec
    1927: e9 63        	sbc	#$63
    1929: c9 16        	cmp	#$16
    192b: b0 39        	bcs	$1966 <printf+0x3ea>
    192d: 0a           	asl
    192e: aa           	tax
    192f: 7c 8a 25     	jmp	($258a,x)               ; 0x258a <__set_v+0xf>
    1932: a6 15        	ldx	$15                     ; 0x2015 <printf+0xa99>
    1934: 86 a4        	stx	$a4                     ; 0x20a4 <printf+0xb28>
    1936: a6 18        	ldx	$18                     ; 0x2018 <printf+0xa9c>
    1938: 86 a9        	stx	$a9                     ; 0x20a9 <printf+0xb2d>
    193a: a0 0a        	ldy	#$a
    193c: a2 0a        	ldx	#$a
    193e: 86 a5        	stx	$a5                     ; 0x20a5 <printf+0xb29>
    1940: 84 8f        	sty	$8f                     ; 0x208f <printf+0xb13>
    1942: 64 6a        	stz	$6a                     ; 0x206a <printf+0xaee>
    1944: 4c 66 1a     	jmp	$1a66 <printf+0x4ea>
    1947: b1 12        	lda	($12),y                 ; 0x2012 <printf+0xa96>
    1949: a2 02        	ldx	#$2
    194b: c9 68        	cmp	#$68
    194d: f0 03        	beq	$1952 <printf+0x3d6>
    194f: 4c 4c 1c     	jmp	$1c4c <printf+0x6d0>
    1952: a5 12        	lda	$12                     ; 0x2012 <printf+0xa96>
    1954: 18           	clc
    1955: 69 02        	adc	#$2
    1957: 85 12        	sta	$12                     ; 0x2012 <printf+0xa96>
    1959: a5 13        	lda	$13                     ; 0x2013 <printf+0xa97>
    195b: 69 00        	adc	#$0
    195d: 85 13        	sta	$13                     ; 0x2013 <printf+0xa97>
    195f: a2 01        	ldx	#$1
    1961: 86 a6        	stx	$a6                     ; 0x20a6 <printf+0xb2a>
    1963: e8           	inx
    1964: 80 b1        	bra	$1917 <printf+0x39b>
    1966: e0 58        	cpx	#$58
    1968: f0 03        	beq	$196d <printf+0x3f1>
    196a: 4c e7 20     	jmp	$20e7 <printf+0xb6b>
    196d: a6 15        	ldx	$15                     ; 0x2015 <printf+0xa99>
    196f: 86 a4        	stx	$a4                     ; 0x20a4 <printf+0xb28>
    1971: a6 18        	ldx	$18                     ; 0x2018 <printf+0xa9c>
    1973: 86 a9        	stx	$a9                     ; 0x20a9 <printf+0xb2d>
    1975: a2 10        	ldx	#$10
    1977: 86 8f        	stx	$8f                     ; 0x208f <printf+0xb13>
    1979: a9 00        	lda	#$0
    197b: 09 01        	ora	#$1
    197d: a6 60        	ldx	$60                     ; 0x2060 <printf+0xae4>
    197f: 80 29        	bra	$19aa <printf+0x42e>
    1981: a6 15        	ldx	$15                     ; 0x2015 <printf+0xa99>
    1983: 86 a4        	stx	$a4                     ; 0x20a4 <printf+0xb28>
    1985: a6 18        	ldx	$18                     ; 0x2018 <printf+0xa9c>
    1987: 86 a9        	stx	$a9                     ; 0x20a9 <printf+0xb2d>
    1989: a2 10        	ldx	#$10
    198b: 86 8f        	stx	$8f                     ; 0x208f <printf+0xb13>
    198d: a5 60        	lda	$60                     ; 0x2060 <printf+0xae4>
    198f: 09 84        	ora	#$84
    1991: 80 10        	bra	$19a3 <printf+0x427>
    1993: a6 15        	ldx	$15                     ; 0x2015 <printf+0xa99>
    1995: 86 a4        	stx	$a4                     ; 0x20a4 <printf+0xb28>
    1997: a6 18        	ldx	$18                     ; 0x2018 <printf+0xa9c>
    1999: 86 a9        	stx	$a9                     ; 0x20a9 <printf+0xb2d>
    199b: a2 10        	ldx	#$10
    199d: 86 8f        	stx	$8f                     ; 0x208f <printf+0xb13>
    199f: a5 60        	lda	$60                     ; 0x2060 <printf+0xae4>
    19a1: 09 80        	ora	#$80
    19a3: aa           	tax
    19a4: a9 00        	lda	#$0
    19a6: 09 01        	ora	#$1
    19a8: 86 60        	stx	$60                     ; 0x2060 <printf+0xae4>
    19aa: 86 90        	stx	$90                     ; 0x2090 <printf+0xb14>
    19ac: 85 6a        	sta	$6a                     ; 0x206a <printf+0xaee>
    19ae: 85 91        	sta	$91                     ; 0x2091 <printf+0xb15>
    19b0: a2 10        	ldx	#$10
    19b2: 86 a5        	stx	$a5                     ; 0x20a5 <printf+0xb29>
    19b4: 4c 66 1a     	jmp	$1a66 <printf+0x4ea>
    19b7: a5 a0        	lda	$a0                     ; 0x20a0 <printf+0xb24>
    19b9: a6 a1        	ldx	$a1                     ; 0x20a1 <printf+0xb25>
    19bb: 85 12        	sta	$12                     ; 0x2012 <printf+0xa96>
    19bd: 86 13        	stx	$13                     ; 0x2013 <printf+0xa97>
    19bf: 18           	clc
    19c0: 69 02        	adc	#$2
    19c2: 85 14        	sta	$14                     ; 0x2014 <printf+0xa98>
    19c4: 8a           	txa
    19c5: 69 00        	adc	#$0
    19c7: a6 14        	ldx	$14                     ; 0x2014 <printf+0xa98>
    19c9: 86 a0        	stx	$a0                     ; 0x20a0 <printf+0xb24>
    19cb: 85 a1        	sta	$a1                     ; 0x20a1 <printf+0xb25>
    19cd: b2 12        	lda	($12)                   ; 0x2012 <printf+0xa96>
    19cf: aa           	tax
    19d0: b1 12        	lda	($12),y                 ; 0x2012 <printf+0xa96>
    19d2: 86 12        	stx	$12                     ; 0x2012 <printf+0xa96>
    19d4: 85 13        	sta	$13                     ; 0x2013 <printf+0xa97>
    19d6: a5 94        	lda	$94                     ; 0x2094 <printf+0xb18>
    19d8: a6 95        	ldx	$95                     ; 0x2095 <printf+0xb19>
    19da: 92 12        	sta	($12)                   ; 0x2012 <printf+0xa96>
    19dc: 8a           	txa
    19dd: 91 12        	sta	($12),y                 ; 0x2012 <printf+0xa96>
    19df: 4c 3f 1a     	jmp	$1a3f <printf+0x4c3>
    19e2: a5 a0        	lda	$a0                     ; 0x20a0 <printf+0xb24>
    19e4: a6 a1        	ldx	$a1                     ; 0x20a1 <printf+0xb25>
    19e6: 85 12        	sta	$12                     ; 0x2012 <printf+0xa96>
    19e8: 86 13        	stx	$13                     ; 0x2013 <printf+0xa97>
    19ea: 18           	clc
    19eb: 69 02        	adc	#$2
    19ed: 85 14        	sta	$14                     ; 0x2014 <printf+0xa98>
    19ef: 8a           	txa
    19f0: 69 00        	adc	#$0
    19f2: a6 14        	ldx	$14                     ; 0x2014 <printf+0xa98>
    19f4: 86 a0        	stx	$a0                     ; 0x20a0 <printf+0xb24>
    19f6: 85 a1        	sta	$a1                     ; 0x20a1 <printf+0xb25>
    19f8: b2 12        	lda	($12)                   ; 0x2012 <printf+0xa96>
    19fa: aa           	tax
    19fb: b1 12        	lda	($12),y                 ; 0x2012 <printf+0xa96>
    19fd: 86 12        	stx	$12                     ; 0x2012 <printf+0xa96>
    19ff: 85 13        	sta	$13                     ; 0x2013 <printf+0xa97>
    1a01: 80 2f        	bra	$1a32 <printf+0x4b6>
    1a03: a6 15        	ldx	$15                     ; 0x2015 <printf+0xa99>
    1a05: 86 a4        	stx	$a4                     ; 0x20a4 <printf+0xb28>
    1a07: a6 18        	ldx	$18                     ; 0x2018 <printf+0xa9c>
    1a09: 86 a9        	stx	$a9                     ; 0x20a9 <printf+0xb2d>
    1a0b: a0 08        	ldy	#$8
    1a0d: a2 08        	ldx	#$8
    1a0f: 80 45        	bra	$1a56 <printf+0x4da>
    1a11: a5 a0        	lda	$a0                     ; 0x20a0 <printf+0xb24>
    1a13: a6 a1        	ldx	$a1                     ; 0x20a1 <printf+0xb25>
    1a15: 85 12        	sta	$12                     ; 0x2012 <printf+0xa96>
    1a17: 86 13        	stx	$13                     ; 0x2013 <printf+0xa97>
    1a19: 18           	clc
    1a1a: 69 02        	adc	#$2
    1a1c: a8           	tay
    1a1d: 8a           	txa
    1a1e: 69 00        	adc	#$0
    1a20: 84 a0        	sty	$a0                     ; 0x20a0 <printf+0xb24>
    1a22: 85 a1        	sta	$a1                     ; 0x20a1 <printf+0xb25>
    1a24: b2 12        	lda	($12)                   ; 0x2012 <printf+0xa96>
    1a26: 85 82        	sta	$82                     ; 0x2082 <printf+0xb06>
    1a28: 64 83        	stz	$83                     ; 0x2083 <printf+0xb07>
    1a2a: a2 82        	ldx	#$82
    1a2c: 86 12        	stx	$12                     ; 0x2012 <printf+0xa96>
    1a2e: a2 00        	ldx	#$0
    1a30: 86 13        	stx	$13                     ; 0x2013 <printf+0xa97>
    1a32: a2 8f        	ldx	#$8f
    1a34: 86 14        	stx	$14                     ; 0x2014 <printf+0xa98>
    1a36: a2 00        	ldx	#$0
    1a38: 86 15        	stx	$15                     ; 0x2015 <printf+0xa99>
    1a3a: 20 6f 14     	jsr	$146f <_ZN12_GLOBAL__N_112print_stringEPKcP6Status>
    1a3d: a0 01        	ldy	#$1
    1a3f: a2 00        	ldx	#$0
    1a41: 86 63        	stx	$63                     ; 0x2063 <printf+0xae7>
    1a43: a2 00        	ldx	#$0
    1a45: 86 64        	stx	$64                     ; 0x2064 <printf+0xae8>
    1a47: 4c cf 20     	jmp	$20cf <printf+0xb53>
    1a4a: a6 15        	ldx	$15                     ; 0x2015 <printf+0xa99>
    1a4c: 86 a4        	stx	$a4                     ; 0x20a4 <printf+0xb28>
    1a4e: a6 18        	ldx	$18                     ; 0x2018 <printf+0xa9c>
    1a50: 86 a9        	stx	$a9                     ; 0x20a9 <printf+0xb2d>
    1a52: a0 0a        	ldy	#$a
    1a54: a2 0a        	ldx	#$a
    1a56: 86 a5        	stx	$a5                     ; 0x20a5 <printf+0xb29>
    1a58: 84 8f        	sty	$8f                     ; 0x208f <printf+0xb13>
    1a5a: a9 00        	lda	#$0
    1a5c: 09 01        	ora	#$1
    1a5e: a6 60        	ldx	$60                     ; 0x2060 <printf+0xae4>
    1a60: 86 90        	stx	$90                     ; 0x2090 <printf+0xb14>
    1a62: 85 6a        	sta	$6a                     ; 0x206a <printf+0xaee>
    1a64: 85 91        	sta	$91                     ; 0x2091 <printf+0xb15>
    1a66: a5 a6        	lda	$a6                     ; 0x20a6 <printf+0xb2a>
    1a68: 85 84        	sta	$84                     ; 0x2084 <printf+0xb08>
    1a6a: a4 a0        	ldy	$a0                     ; 0x20a0 <printf+0xb24>
    1a6c: a6 a1        	ldx	$a1                     ; 0x20a1 <printf+0xb25>
    1a6e: 86 68        	stx	$68                     ; 0x2068 <printf+0xaec>
    1a70: 84 14        	sty	$14                     ; 0x2014 <printf+0xa98>
    1a72: 84 5f        	sty	$5f                     ; 0x205f <printf+0xae3>
    1a74: 86 15        	stx	$15                     ; 0x2015 <printf+0xa99>
    1a76: a6 a7        	ldx	$a7                     ; 0x20a7 <printf+0xb2b>
    1a78: 86 12        	stx	$12                     ; 0x2012 <printf+0xa96>
    1a7a: a6 a8        	ldx	$a8                     ; 0x20a8 <printf+0xb2c>
    1a7c: 86 13        	stx	$13                     ; 0x2013 <printf+0xa97>
    1a7e: a2 00        	ldx	#$0
    1a80: 85 64        	sta	$64                     ; 0x2064 <printf+0xae8>
    1a82: 20 e3 23     	jsr	$23e3 <memcpy>
    1a85: 18           	clc
    1a86: a5 5f        	lda	$5f                     ; 0x205f <printf+0xae3>
    1a88: 65 63        	adc	$63                     ; 0x2063 <printf+0xae7>
    1a8a: aa           	tax
    1a8b: a5 68        	lda	$68                     ; 0x2068 <printf+0xaec>
    1a8d: 69 00        	adc	#$0
    1a8f: 86 a0        	stx	$a0                     ; 0x20a0 <printf+0xb24>
    1a91: 85 a1        	sta	$a1                     ; 0x20a1 <printf+0xb25>
    1a93: a5 6a        	lda	$6a                     ; 0x206a <printf+0xaee>
    1a95: 29 01        	and	#$1
    1a97: b8           	clv
    1a98: f0 03        	beq	$1a9d <printf+0x521>
    1a9a: 4c f1 1a     	jmp	$1af1 <printf+0x575>
    1a9d: a6 64        	ldx	$64                     ; 0x2064 <printf+0xae8>
    1a9f: b5 84        	lda	$84,x                   ; 0x2084 <printf+0xb08>
    1aa1: aa           	tax
    1aa2: a0 01        	ldy	#$1
    1aa4: a5 67        	lda	$67                     ; 0x2067 <printf+0xaeb>
    1aa6: 85 1a        	sta	$1a                     ; 0x201a <printf+0xa9e>
    1aa8: a5 a9        	lda	$a9                     ; 0x20a9 <printf+0xb2d>
    1aaa: 85 67        	sta	$67                     ; 0x2067 <printf+0xaeb>
    1aac: a9 00        	lda	#$0
    1aae: 85 63        	sta	$63                     ; 0x2063 <printf+0xae7>
    1ab0: a9 00        	lda	#$0
    1ab2: 85 64        	sta	$64                     ; 0x2064 <printf+0xae8>
    1ab4: a5 a4        	lda	$a4                     ; 0x20a4 <printf+0xb28>
    1ab6: 85 68        	sta	$68                     ; 0x2068 <printf+0xaec>
    1ab8: 8a           	txa
    1ab9: 10 4c        	bpl	$1b07 <printf+0x58b>
    1abb: a2 00        	ldx	#$0
    1abd: 64 12        	stz	$12                     ; 0x2012 <printf+0xa96>
    1abf: a9 00        	lda	#$0
    1ac1: 38           	sec
    1ac2: f5 85        	sbc	$85,x                   ; 0x2085 <printf+0xb09>
    1ac4: a0 00        	ldy	#$0
    1ac6: b0 02        	bcs	$1aca <printf+0x54e>
    1ac8: a0 01        	ldy	#$1
    1aca: 38           	sec
    1acb: e5 12        	sbc	$12                     ; 0x2012 <printf+0xa96>
    1acd: 85 13        	sta	$13                     ; 0x2013 <printf+0xa97>
    1acf: 64 12        	stz	$12                     ; 0x2012 <printf+0xa96>
    1ad1: b0 04        	bcs	$1ad7 <printf+0x55b>
    1ad3: a9 01        	lda	#$1
    1ad5: 85 12        	sta	$12                     ; 0x2012 <printf+0xa96>
    1ad7: 98           	tya
    1ad8: 05 12        	ora	$12                     ; 0x2012 <printf+0xa96>
    1ada: 85 12        	sta	$12                     ; 0x2012 <printf+0xa96>
    1adc: a5 13        	lda	$13                     ; 0x2013 <printf+0xa97>
    1ade: 9d 85 00     	sta	$85,x                   ; 0x85 <__rc31+0x56>
    1ae1: e8           	inx
    1ae2: 86 13        	stx	$13                     ; 0x2013 <printf+0xa97>
    1ae4: a4 a6        	ldy	$a6                     ; 0x20a6 <printf+0xb2a>
    1ae6: c4 13        	cpy	$13                     ; 0x2013 <printf+0xa97>
    1ae8: d0 d5        	bne	$1abf <printf+0x543>
    1aea: 2c 7b 25     	bit	$257b                   ; 0x257b <__set_v>
    1aed: a0 01        	ldy	#$1
    1aef: 80 16        	bra	$1b07 <printf+0x58b>
    1af1: a0 01        	ldy	#$1
    1af3: a6 67        	ldx	$67                     ; 0x2067 <printf+0xaeb>
    1af5: 86 1a        	stx	$1a                     ; 0x201a <printf+0xa9e>
    1af7: a6 a9        	ldx	$a9                     ; 0x20a9 <printf+0xb2d>
    1af9: 86 67        	stx	$67                     ; 0x2067 <printf+0xaeb>
    1afb: a2 00        	ldx	#$0
    1afd: 86 63        	stx	$63                     ; 0x2063 <printf+0xae7>
    1aff: a2 00        	ldx	#$0
    1b01: 86 64        	stx	$64                     ; 0x2064 <printf+0xae8>
    1b03: a6 a4        	ldx	$a4                     ; 0x20a4 <printf+0xb28>
    1b05: 86 68        	stx	$68                     ; 0x2068 <printf+0xaec>
    1b07: a2 01        	ldx	#$1
    1b09: 70 02        	bvs	$1b0d <printf+0x591>
    1b0b: a2 00        	ldx	#$0
    1b0d: 86 16        	stx	$16                     ; 0x2016 <printf+0xa9a>
    1b0f: a5 a6        	lda	$a6                     ; 0x20a6 <printf+0xb2a>
    1b11: 0a           	asl
    1b12: 0a           	asl
    1b13: 0a           	asl
    1b14: 85 12        	sta	$12                     ; 0x2012 <printf+0xa96>
    1b16: a2 00        	ldx	#$0
    1b18: 8a           	txa
    1b19: 4c cd 1b     	jmp	$1bcd <printf+0x651>
    1b1c: da           	phx
    1b1d: 7a           	ply
    1b1e: c8           	iny
    1b1f: 9d 6d 00     	sta	$6d,x                   ; 0x6d <__rc31+0x3e>
    1b22: 5a           	phy
    1b23: fa           	plx
    1b24: c4 5f        	cpy	$5f                     ; 0x205f <printf+0xae3>
    1b26: f0 30        	beq	$1b58 <printf+0x5dc>
    1b28: b5 6d        	lda	$6d,x                   ; 0x206d <printf+0xaf1>
    1b2a: 0a           	asl
    1b2b: a4 a4        	ldy	$a4                     ; 0x20a4 <printf+0xb28>
    1b2d: f0 02        	beq	$1b31 <printf+0x5b5>
    1b2f: 09 01        	ora	#$1
    1b31: a4 a5        	ldy	$a5                     ; 0x20a5 <printf+0xb29>
    1b33: 84 14        	sty	$14                     ; 0x2014 <printf+0xa98>
    1b35: c5 14        	cmp	$14                     ; 0x2014 <printf+0xa98>
    1b37: a0 01        	ldy	#$1
    1b39: b0 02        	bcs	$1b3d <printf+0x5c1>
    1b3b: a0 00        	ldy	#$0
    1b3d: 84 a4        	sty	$a4                     ; 0x20a4 <printf+0xb28>
    1b3f: 90 db        	bcc	$1b1c <printf+0x5a0>
    1b41: 38           	sec
    1b42: e5 14        	sbc	$14                     ; 0x2014 <printf+0xa98>
    1b44: 9d 6d 00     	sta	$6d,x                   ; 0x6d <__rc31+0x3e>
    1b47: e8           	inx
    1b48: e4 5f        	cpx	$5f                     ; 0x205f <printf+0xae3>
    1b4a: d0 dc        	bne	$1b28 <printf+0x5ac>
    1b4c: a4 5f        	ldy	$5f                     ; 0x205f <printf+0xae3>
    1b4e: a6 5f        	ldx	$5f                     ; 0x205f <printf+0xae3>
    1b50: e8           	inx
    1b51: a9 01        	lda	#$1
    1b53: 99 6d 00     	sta	$6d,y                   ; 0x6d <__rc31+0x3e>
    1b56: 86 5f        	stx	$5f                     ; 0x205f <printf+0xae3>
    1b58: a6 a6        	ldx	$a6                     ; 0x20a6 <printf+0xb2a>
    1b5a: b5 84        	lda	$84,x                   ; 0x2084 <printf+0xb08>
    1b5c: aa           	tax
    1b5d: 30 0f        	bmi	$1b6e <printf+0x5f2>
    1b5f: a0 01        	ldy	#$1
    1b61: 80 42        	bra	$1ba5 <printf+0x629>
    1b63: a6 a6        	ldx	$a6                     ; 0x20a6 <printf+0xb2a>
    1b65: b5 84        	lda	$84,x                   ; 0x2084 <printf+0xb08>
    1b67: aa           	tax
    1b68: 64 5f        	stz	$5f                     ; 0x205f <printf+0xae3>
    1b6a: 10 39        	bpl	$1ba5 <printf+0x629>
    1b6c: 80 2a        	bra	$1b98 <printf+0x61c>
    1b6e: a5 5f        	lda	$5f                     ; 0x205f <printf+0xae3>
    1b70: f0 24        	beq	$1b96 <printf+0x61a>
    1b72: a2 00        	ldx	#$0
    1b74: a4 a5        	ldy	$a5                     ; 0x20a5 <printf+0xb29>
    1b76: 84 14        	sty	$14                     ; 0x2014 <printf+0xa98>
    1b78: b5 6d        	lda	$6d,x                   ; 0x206d <printf+0xaf1>
    1b7a: 1a           	inc
    1b7b: f6 6d        	inc	$6d,x                   ; 0x206d <printf+0xaf1>
    1b7d: c5 14        	cmp	$14                     ; 0x2014 <printf+0xa98>
    1b7f: 90 de        	bcc	$1b5f <printf+0x5e3>
    1b81: a4 14        	ldy	$14                     ; 0x2014 <printf+0xa98>
    1b83: 84 13        	sty	$13                     ; 0x2013 <printf+0xa97>
    1b85: 38           	sec
    1b86: e5 13        	sbc	$13                     ; 0x2013 <printf+0xa97>
    1b88: 9d 6d 00     	sta	$6d,x                   ; 0x6d <__rc31+0x3e>
    1b8b: e8           	inx
    1b8c: 86 13        	stx	$13                     ; 0x2013 <printf+0xa97>
    1b8e: a4 5f        	ldy	$5f                     ; 0x205f <printf+0xae3>
    1b90: c4 13        	cpy	$13                     ; 0x2013 <printf+0xa97>
    1b92: d0 e4        	bne	$1b78 <printf+0x5fc>
    1b94: 80 02        	bra	$1b98 <printf+0x61c>
    1b96: 64 5f        	stz	$5f                     ; 0x205f <printf+0xae3>
    1b98: a4 5f        	ldy	$5f                     ; 0x205f <printf+0xae3>
    1b9a: a6 5f        	ldx	$5f                     ; 0x205f <printf+0xae3>
    1b9c: e8           	inx
    1b9d: a9 01        	lda	#$1
    1b9f: 99 6d 00     	sta	$6d,y                   ; 0x6d <__rc31+0x3e>
    1ba2: a8           	tay
    1ba3: 86 5f        	stx	$5f                     ; 0x205f <printf+0xae3>
    1ba5: a2 01        	ldx	#$1
    1ba7: 64 13        	stz	$13                     ; 0x2013 <printf+0xa97>
    1ba9: a5 a6        	lda	$a6                     ; 0x20a6 <printf+0xb2a>
    1bab: 85 14        	sta	$14                     ; 0x2014 <printf+0xa98>
    1bad: b5 84        	lda	$84,x                   ; 0x2084 <printf+0xb08>
    1baf: 0a           	asl
    1bb0: 64 15        	stz	$15                     ; 0x2015 <printf+0xa99>
    1bb2: 26 15        	rol	$15                     ; 0x2015 <printf+0xa99>
    1bb4: 05 13        	ora	$13                     ; 0x2013 <printf+0xa97>
    1bb6: 9d 84 00     	sta	$84,x                   ; 0x84 <__rc31+0x55>
    1bb9: e8           	inx
    1bba: c6 14        	dec	$14                     ; 0x2014 <printf+0xa98>
    1bbc: a5 15        	lda	$15                     ; 0x2015 <printf+0xa99>
    1bbe: 85 13        	sta	$13                     ; 0x2013 <printf+0xa97>
    1bc0: a5 14        	lda	$14                     ; 0x2014 <printf+0xa98>
    1bc2: d0 e9        	bne	$1bad <printf+0x631>
    1bc4: a5 17        	lda	$17                     ; 0x2017 <printf+0xa9b>
    1bc6: 1a           	inc
    1bc7: c5 12        	cmp	$12                     ; 0x2012 <printf+0xa96>
    1bc9: a6 5f        	ldx	$5f                     ; 0x205f <printf+0xae3>
    1bcb: b0 13        	bcs	$1be0 <printf+0x664>
    1bcd: 85 17        	sta	$17                     ; 0x2017 <printf+0xa9b>
    1bcf: 8a           	txa
    1bd0: d0 03        	bne	$1bd5 <printf+0x659>
    1bd2: 4c 63 1b     	jmp	$1b63 <printf+0x5e7>
    1bd5: 86 5f        	stx	$5f                     ; 0x205f <printf+0xae3>
    1bd7: a2 00        	ldx	#$0
    1bd9: 86 a4        	stx	$a4                     ; 0x20a4 <printf+0xb28>
    1bdb: a2 00        	ldx	#$0
    1bdd: 4c 28 1b     	jmp	$1b28 <printf+0x5ac>
    1be0: a5 60        	lda	$60                     ; 0x2060 <printf+0xae4>
    1be2: e6 68        	inc	$68                     ; 0x2068 <printf+0xaec>
    1be4: c6 68        	dec	$68                     ; 0x2068 <printf+0xaec>
    1be6: 10 08        	bpl	$1bf0 <printf+0x674>
    1be8: a2 01        	ldx	#$1
    1bea: 64 68        	stz	$68                     ; 0x2068 <printf+0xaec>
    1bec: 86 67        	stx	$67                     ; 0x2067 <printf+0xaeb>
    1bee: a6 5f        	ldx	$5f                     ; 0x205f <printf+0xae3>
    1bf0: 29 04        	and	#$4
    1bf2: f0 2b        	beq	$1c1f <printf+0x6a3>
    1bf4: a5 a5        	lda	$a5                     ; 0x20a5 <printf+0xb29>
    1bf6: c9 10        	cmp	#$10
    1bf8: f0 14        	beq	$1c0e <printf+0x692>
    1bfa: c9 08        	cmp	#$8
    1bfc: d0 21        	bne	$1c1f <printf+0x6a3>
    1bfe: a2 00        	ldx	#$0
    1c00: e4 68        	cpx	$68                     ; 0x2068 <printf+0xaec>
    1c02: f0 03        	beq	$1c07 <printf+0x68b>
    1c04: 4c f4 20     	jmp	$20f4 <printf+0xb78>
    1c07: a6 5f        	ldx	$5f                     ; 0x205f <printf+0xae3>
    1c09: e4 67        	cpx	$67                     ; 0x2067 <printf+0xaeb>
    1c0b: 4c f6 20     	jmp	$20f6 <printf+0xb7a>
    1c0e: 8a           	txa
    1c0f: f0 0e        	beq	$1c1f <printf+0x6a3>
    1c11: a5 60        	lda	$60                     ; 0x2060 <printf+0xae4>
    1c13: 29 80        	and	#$80
    1c15: d0 03        	bne	$1c1a <printf+0x69e>
    1c17: 4c 0f 21     	jmp	$210f <printf+0xb93>
    1c1a: a2 78        	ldx	#$78
    1c1c: 4c 11 21     	jmp	$2111 <printf+0xb95>
    1c1f: a6 60        	ldx	$60                     ; 0x2060 <printf+0xae4>
    1c21: a9 2d        	lda	#$2d
    1c23: 85 a6        	sta	$a6                     ; 0x20a6 <printf+0xb2a>
    1c25: a5 16        	lda	$16                     ; 0x2016 <printf+0xa9a>
    1c27: d0 32        	bne	$1c5b <printf+0x6df>
    1c29: 86 12        	stx	$12                     ; 0x2012 <printf+0xa96>
    1c2b: 8a           	txa
    1c2c: 29 02        	and	#$2
    1c2e: a2 2b        	ldx	#$2b
    1c30: 86 a6        	stx	$a6                     ; 0x20a6 <printf+0xb2a>
    1c32: aa           	tax
    1c33: d0 26        	bne	$1c5b <printf+0x6df>
    1c35: a5 12        	lda	$12                     ; 0x2012 <printf+0xa96>
    1c37: 29 08        	and	#$8
    1c39: d0 1c        	bne	$1c57 <printf+0x6db>
    1c3b: a2 01        	ldx	#$1
    1c3d: 86 a5        	stx	$a5                     ; 0x20a5 <printf+0xb29>
    1c3f: a9 00        	lda	#$0
    1c41: aa           	tax
    1c42: 86 a4        	stx	$a4                     ; 0x20a4 <printf+0xb28>
    1c44: 80 1c        	bra	$1c62 <printf+0x6e6>
    1c46: 85 12        	sta	$12                     ; 0x2012 <printf+0xa96>
    1c48: a9 04        	lda	#$4
    1c4a: 80 04        	bra	$1c50 <printf+0x6d4>
    1c4c: 85 12        	sta	$12                     ; 0x2012 <printf+0xa96>
    1c4e: a9 02        	lda	#$2
    1c50: 85 a6        	sta	$a6                     ; 0x20a6 <printf+0xb2a>
    1c52: a5 12        	lda	$12                     ; 0x2012 <printf+0xa96>
    1c54: 4c 23 19     	jmp	$1923 <printf+0x3a7>
    1c57: a2 20        	ldx	#$20
    1c59: 86 a6        	stx	$a6                     ; 0x20a6 <printf+0xb2a>
    1c5b: a2 00        	ldx	#$0
    1c5d: 86 a5        	stx	$a5                     ; 0x20a5 <printf+0xb29>
    1c5f: 86 a4        	stx	$a4                     ; 0x20a4 <printf+0xb28>
    1c61: 98           	tya
    1c62: a6 68        	ldx	$68                     ; 0x2068 <printf+0xaec>
    1c64: d0 35        	bne	$1c9b <printf+0x71f>
    1c66: a6 67        	ldx	$67                     ; 0x2067 <printf+0xaeb>
    1c68: a4 5f        	ldy	$5f                     ; 0x205f <printf+0xae3>
    1c6a: 84 12        	sty	$12                     ; 0x2012 <printf+0xa96>
    1c6c: e4 12        	cpx	$12                     ; 0x2012 <printf+0xa96>
    1c6e: a6 67        	ldx	$67                     ; 0x2067 <printf+0xaeb>
    1c70: 86 12        	stx	$12                     ; 0x2012 <printf+0xa96>
    1c72: a6 68        	ldx	$68                     ; 0x2068 <printf+0xaec>
    1c74: 86 13        	stx	$13                     ; 0x2013 <printf+0xa97>
    1c76: b0 04        	bcs	$1c7c <printf+0x700>
    1c78: 84 12        	sty	$12                     ; 0x2012 <printf+0xa96>
    1c7a: 64 13        	stz	$13                     ; 0x2013 <printf+0xa97>
    1c7c: 85 18        	sta	$18                     ; 0x2018 <printf+0xa9c>
    1c7e: 18           	clc
    1c7f: 65 12        	adc	$12                     ; 0x2012 <printf+0xa96>
    1c81: 85 16        	sta	$16                     ; 0x2016 <printf+0xa9a>
    1c83: 85 14        	sta	$14                     ; 0x2014 <printf+0xa98>
    1c85: a5 13        	lda	$13                     ; 0x2013 <printf+0xa97>
    1c87: 69 00        	adc	#$0
    1c89: 85 15        	sta	$15                     ; 0x2015 <printf+0xa99>
    1c8b: c5 1a        	cmp	$1a                     ; 0x201a <printf+0xa9e>
    1c8d: d0 1e        	bne	$1cad <printf+0x731>
    1c8f: a6 1a        	ldx	$1a                     ; 0x201a <printf+0xa9e>
    1c91: 86 17        	stx	$17                     ; 0x2017 <printf+0xa9b>
    1c93: a6 69        	ldx	$69                     ; 0x2069 <printf+0xaed>
    1c95: a5 16        	lda	$16                     ; 0x2016 <printf+0xa9a>
    1c97: c5 69        	cmp	$69                     ; 0x2069 <printf+0xaed>
    1c99: 80 1c        	bra	$1cb7 <printf+0x73b>
    1c9b: a6 68        	ldx	$68                     ; 0x2068 <printf+0xaec>
    1c9d: e0 00        	cpx	#$0
    1c9f: a6 67        	ldx	$67                     ; 0x2067 <printf+0xaeb>
    1ca1: 86 12        	stx	$12                     ; 0x2012 <printf+0xa96>
    1ca3: a6 68        	ldx	$68                     ; 0x2068 <printf+0xaec>
    1ca5: 86 13        	stx	$13                     ; 0x2013 <printf+0xa97>
    1ca7: a4 5f        	ldy	$5f                     ; 0x205f <printf+0xae3>
    1ca9: 90 cd        	bcc	$1c78 <printf+0x6fc>
    1cab: 80 cf        	bra	$1c7c <printf+0x700>
    1cad: a6 69        	ldx	$69                     ; 0x2069 <printf+0xaed>
    1caf: 5a           	phy
    1cb0: a4 1a        	ldy	$1a                     ; 0x201a <printf+0xa9e>
    1cb2: 84 17        	sty	$17                     ; 0x2017 <printf+0xa9b>
    1cb4: 7a           	ply
    1cb5: c5 1a        	cmp	$1a                     ; 0x201a <printf+0xa9e>
    1cb7: 64 6a        	stz	$6a                     ; 0x206a <printf+0xaee>
    1cb9: 64 69        	stz	$69                     ; 0x2069 <printf+0xaed>
    1cbb: 90 03        	bcc	$1cc0 <printf+0x744>
    1cbd: 4c 53 1d     	jmp	$1d53 <printf+0x7d7>
    1cc0: a5 60        	lda	$60                     ; 0x2060 <printf+0xae4>
    1cc2: 29 11        	and	#$11
    1cc4: 86 16        	stx	$16                     ; 0x2016 <printf+0xa9a>
    1cc6: f0 0f        	beq	$1cd7 <printf+0x75b>
    1cc8: 8a           	txa
    1cc9: 38           	sec
    1cca: e5 14        	sbc	$14                     ; 0x2014 <printf+0xa98>
    1ccc: 85 6a        	sta	$6a                     ; 0x206a <printf+0xaee>
    1cce: a5 1a        	lda	$1a                     ; 0x201a <printf+0xa9e>
    1cd0: e5 15        	sbc	$15                     ; 0x2015 <printf+0xa99>
    1cd2: 85 69        	sta	$69                     ; 0x2069 <printf+0xaed>
    1cd4: 4c 53 1d     	jmp	$1d53 <printf+0x7d7>
    1cd7: a6 94        	ldx	$94                     ; 0x2094 <printf+0xb18>
    1cd9: 86 14        	stx	$14                     ; 0x2014 <printf+0xa98>
    1cdb: 38           	sec
    1cdc: a5 18        	lda	$18                     ; 0x2018 <printf+0xa9c>
    1cde: e5 16        	sbc	$16                     ; 0x2016 <printf+0xa9a>
    1ce0: aa           	tax
    1ce1: a9 00        	lda	#$0
    1ce3: e5 17        	sbc	$17                     ; 0x2017 <printf+0xa9b>
    1ce5: a8           	tay
    1ce6: 18           	clc
    1ce7: 8a           	txa
    1ce8: 65 12        	adc	$12                     ; 0x2012 <printf+0xa96>
    1cea: 85 60        	sta	$60                     ; 0x2060 <printf+0xae4>
    1cec: 98           	tya
    1ced: 65 13        	adc	$13                     ; 0x2013 <printf+0xa97>
    1cef: a4 95        	ldy	$95                     ; 0x2095 <printf+0xb19>
    1cf1: 80 47        	bra	$1d3a <printf+0x7be>
    1cf3: c4 93        	cpy	$93                     ; 0x2093 <printf+0xb17>
    1cf5: b0 25        	bcs	$1d1c <printf+0x7a0>
    1cf7: a6 9f        	ldx	$9f                     ; 0x209f <printf+0xb23>
    1cf9: e4 64        	cpx	$64                     ; 0x2064 <printf+0xae8>
    1cfb: d0 18        	bne	$1d15 <printf+0x799>
    1cfd: a6 9e        	ldx	$9e                     ; 0x209e <printf+0xb22>
    1cff: e4 63        	cpx	$63                     ; 0x2063 <printf+0xae7>
    1d01: d0 12        	bne	$1d15 <printf+0x799>
    1d03: 18           	clc
    1d04: a5 14        	lda	$14                     ; 0x2014 <printf+0xa98>
    1d06: 65 98        	adc	$98                     ; 0x2098 <printf+0xb1c>
    1d08: 85 12        	sta	$12                     ; 0x2012 <printf+0xa96>
    1d0a: 98           	tya
    1d0b: 65 99        	adc	$99                     ; 0x2099 <printf+0xb1d>
    1d0d: 85 13        	sta	$13                     ; 0x2013 <printf+0xa97>
    1d0f: a9 20        	lda	#$20
    1d11: 92 12        	sta	($12)                   ; 0x2012 <printf+0xa96>
    1d13: 80 05        	bra	$1d1a <printf+0x79e>
    1d15: a9 20        	lda	#$20
    1d17: 20 8c 13     	jsr	$138c <__putchar>
    1d1a: a5 69        	lda	$69                     ; 0x2069 <printf+0xaed>
    1d1c: a6 94        	ldx	$94                     ; 0x2094 <printf+0xb18>
    1d1e: a4 95        	ldy	$95                     ; 0x2095 <printf+0xb19>
    1d20: e8           	inx
    1d21: d0 01        	bne	$1d24 <printf+0x7a8>
    1d23: c8           	iny
    1d24: 86 14        	stx	$14                     ; 0x2014 <printf+0xa98>
    1d26: 86 94        	stx	$94                     ; 0x2094 <printf+0xb18>
    1d28: 84 95        	sty	$95                     ; 0x2095 <printf+0xb19>
    1d2a: a6 60        	ldx	$60                     ; 0x2060 <printf+0xae4>
    1d2c: e8           	inx
    1d2d: d0 01        	bne	$1d30 <printf+0x7b4>
    1d2f: 1a           	inc
    1d30: 86 60        	stx	$60                     ; 0x2060 <printf+0xae4>
    1d32: c9 00        	cmp	#$0
    1d34: d0 04        	bne	$1d3a <printf+0x7be>
    1d36: e0 00        	cpx	#$0
    1d38: f0 13        	beq	$1d4d <printf+0x7d1>
    1d3a: 85 69        	sta	$69                     ; 0x2069 <printf+0xaed>
    1d3c: c4 93        	cpy	$93                     ; 0x2093 <printf+0xb17>
    1d3e: d0 b3        	bne	$1cf3 <printf+0x777>
    1d40: a6 92        	ldx	$92                     ; 0x2092 <printf+0xb16>
    1d42: 86 12        	stx	$12                     ; 0x2012 <printf+0xa96>
    1d44: a6 14        	ldx	$14                     ; 0x2014 <printf+0xa98>
    1d46: e4 12        	cpx	$12                     ; 0x2012 <printf+0xa96>
    1d48: b0 d2        	bcs	$1d1c <printf+0x7a0>
    1d4a: 4c f7 1c     	jmp	$1cf7 <printf+0x77b>
    1d4d: 64 6a        	stz	$6a                     ; 0x206a <printf+0xaee>
    1d4f: 64 69        	stz	$69                     ; 0x2069 <printf+0xaed>
    1d51: a4 5f        	ldy	$5f                     ; 0x205f <printf+0xae3>
    1d53: a6 a5        	ldx	$a5                     ; 0x20a5 <printf+0xb29>
    1d55: d0 4d        	bne	$1da4 <printf+0x828>
    1d57: a6 94        	ldx	$94                     ; 0x2094 <printf+0xb18>
    1d59: a5 95        	lda	$95                     ; 0x2095 <printf+0xb19>
    1d5b: c5 93        	cmp	$93                     ; 0x2093 <printf+0xb17>
    1d5d: d0 10        	bne	$1d6f <printf+0x7f3>
    1d5f: 86 13        	stx	$13                     ; 0x2013 <printf+0xa97>
    1d61: a6 92        	ldx	$92                     ; 0x2092 <printf+0xb16>
    1d63: 86 12        	stx	$12                     ; 0x2012 <printf+0xa96>
    1d65: a4 5f        	ldy	$5f                     ; 0x205f <printf+0xae3>
    1d67: a6 13        	ldx	$13                     ; 0x2013 <printf+0xa97>
    1d69: e4 12        	cpx	$12                     ; 0x2012 <printf+0xa96>
    1d6b: 90 08        	bcc	$1d75 <printf+0x7f9>
    1d6d: 80 2f        	bra	$1d9e <printf+0x822>
    1d6f: 86 13        	stx	$13                     ; 0x2013 <printf+0xa97>
    1d71: c5 93        	cmp	$93                     ; 0x2093 <printf+0xb17>
    1d73: b0 29        	bcs	$1d9e <printf+0x822>
    1d75: a6 9f        	ldx	$9f                     ; 0x209f <printf+0xb23>
    1d77: e4 64        	cpx	$64                     ; 0x2064 <printf+0xae8>
    1d79: d0 1c        	bne	$1d97 <printf+0x81b>
    1d7b: a6 9e        	ldx	$9e                     ; 0x209e <printf+0xb22>
    1d7d: e4 63        	cpx	$63                     ; 0x2063 <printf+0xae7>
    1d7f: d0 16        	bne	$1d97 <printf+0x81b>
    1d81: 18           	clc
    1d82: 85 12        	sta	$12                     ; 0x2012 <printf+0xa96>
    1d84: a5 13        	lda	$13                     ; 0x2013 <printf+0xa97>
    1d86: 65 98        	adc	$98                     ; 0x2098 <printf+0xb1c>
    1d88: aa           	tax
    1d89: a5 12        	lda	$12                     ; 0x2012 <printf+0xa96>
    1d8b: 65 99        	adc	$99                     ; 0x2099 <printf+0xb1d>
    1d8d: 86 12        	stx	$12                     ; 0x2012 <printf+0xa96>
    1d8f: 85 13        	sta	$13                     ; 0x2013 <printf+0xa97>
    1d91: a5 a6        	lda	$a6                     ; 0x20a6 <printf+0xb2a>
    1d93: 92 12        	sta	($12)                   ; 0x2012 <printf+0xa96>
    1d95: 80 05        	bra	$1d9c <printf+0x820>
    1d97: a5 a6        	lda	$a6                     ; 0x20a6 <printf+0xb2a>
    1d99: 20 8c 13     	jsr	$138c <__putchar>
    1d9c: a4 5f        	ldy	$5f                     ; 0x205f <printf+0xae3>
    1d9e: e6 94        	inc	$94                     ; 0x2094 <printf+0xb18>
    1da0: d0 02        	bne	$1da4 <printf+0x828>
    1da2: e6 95        	inc	$95                     ; 0x2095 <printf+0xb19>
    1da4: a6 a4        	ldx	$a4                     ; 0x20a4 <printf+0xb28>
    1da6: f0 4d        	beq	$1df5 <printf+0x879>
    1da8: a6 94        	ldx	$94                     ; 0x2094 <printf+0xb18>
    1daa: a5 95        	lda	$95                     ; 0x2095 <printf+0xb19>
    1dac: c5 93        	cmp	$93                     ; 0x2093 <printf+0xb17>
    1dae: d0 10        	bne	$1dc0 <printf+0x844>
    1db0: 86 13        	stx	$13                     ; 0x2013 <printf+0xa97>
    1db2: a6 92        	ldx	$92                     ; 0x2092 <printf+0xb16>
    1db4: 86 12        	stx	$12                     ; 0x2012 <printf+0xa96>
    1db6: a4 5f        	ldy	$5f                     ; 0x205f <printf+0xae3>
    1db8: a6 13        	ldx	$13                     ; 0x2013 <printf+0xa97>
    1dba: e4 12        	cpx	$12                     ; 0x2012 <printf+0xa96>
    1dbc: 90 08        	bcc	$1dc6 <printf+0x84a>
    1dbe: 80 2f        	bra	$1def <printf+0x873>
    1dc0: 86 13        	stx	$13                     ; 0x2013 <printf+0xa97>
    1dc2: c5 93        	cmp	$93                     ; 0x2093 <printf+0xb17>
    1dc4: b0 29        	bcs	$1def <printf+0x873>
    1dc6: a6 9f        	ldx	$9f                     ; 0x209f <printf+0xb23>
    1dc8: e4 64        	cpx	$64                     ; 0x2064 <printf+0xae8>
    1dca: d0 1c        	bne	$1de8 <printf+0x86c>
    1dcc: a6 9e        	ldx	$9e                     ; 0x209e <printf+0xb22>
    1dce: e4 63        	cpx	$63                     ; 0x2063 <printf+0xae7>
    1dd0: d0 16        	bne	$1de8 <printf+0x86c>
    1dd2: 18           	clc
    1dd3: 85 12        	sta	$12                     ; 0x2012 <printf+0xa96>
    1dd5: a5 13        	lda	$13                     ; 0x2013 <printf+0xa97>
    1dd7: 65 98        	adc	$98                     ; 0x2098 <printf+0xb1c>
    1dd9: aa           	tax
    1dda: a5 12        	lda	$12                     ; 0x2012 <printf+0xa96>
    1ddc: 65 99        	adc	$99                     ; 0x2099 <printf+0xb1d>
    1dde: 86 12        	stx	$12                     ; 0x2012 <printf+0xa96>
    1de0: 85 13        	sta	$13                     ; 0x2013 <printf+0xa97>
    1de2: a5 a9        	lda	$a9                     ; 0x20a9 <printf+0xb2d>
    1de4: 92 12        	sta	($12)                   ; 0x2012 <printf+0xa96>
    1de6: 80 05        	bra	$1ded <printf+0x871>
    1de8: a5 a9        	lda	$a9                     ; 0x20a9 <printf+0xb2d>
    1dea: 20 8c 13     	jsr	$138c <__putchar>
    1ded: a4 5f        	ldy	$5f                     ; 0x205f <printf+0xae3>
    1def: e6 94        	inc	$94                     ; 0x2094 <printf+0xb18>
    1df1: d0 02        	bne	$1df5 <printf+0x879>
    1df3: e6 95        	inc	$95                     ; 0x2095 <printf+0xb19>
    1df5: a9 10        	lda	#$10
    1df7: 25 90        	and	$90                     ; 0x2090 <printf+0xb14>
    1df9: d0 03        	bne	$1dfe <printf+0x882>
    1dfb: 4c 86 1e     	jmp	$1e86 <printf+0x90a>
    1dfe: a5 90        	lda	$90                     ; 0x2090 <printf+0xb14>
    1e00: 29 01        	and	#$1
    1e02: 29 01        	and	#$1
    1e04: f0 03        	beq	$1e09 <printf+0x88d>
    1e06: 4c 86 1e     	jmp	$1e86 <printf+0x90a>
    1e09: a6 6a        	ldx	$6a                     ; 0x206a <printf+0xaee>
    1e0b: a5 69        	lda	$69                     ; 0x2069 <printf+0xaed>
    1e0d: d0 06        	bne	$1e15 <printf+0x899>
    1e0f: 8a           	txa
    1e10: d0 03        	bne	$1e15 <printf+0x899>
    1e12: 4c 24 21     	jmp	$2124 <printf+0xba8>
    1e15: a6 94        	ldx	$94                     ; 0x2094 <printf+0xb18>
    1e17: 86 13        	stx	$13                     ; 0x2013 <printf+0xa97>
    1e19: a5 95        	lda	$95                     ; 0x2095 <printf+0xb19>
    1e1b: 80 4f        	bra	$1e6c <printf+0x8f0>
    1e1d: c5 93        	cmp	$93                     ; 0x2093 <printf+0xb17>
    1e1f: b0 24        	bcs	$1e45 <printf+0x8c9>
    1e21: a6 9f        	ldx	$9f                     ; 0x209f <printf+0xb23>
    1e23: e4 64        	cpx	$64                     ; 0x2064 <printf+0xae8>
    1e25: d0 19        	bne	$1e40 <printf+0x8c4>
    1e27: a6 9e        	ldx	$9e                     ; 0x209e <printf+0xb22>
    1e29: e4 63        	cpx	$63                     ; 0x2063 <printf+0xae7>
    1e2b: d0 13        	bne	$1e40 <printf+0x8c4>
    1e2d: 18           	clc
    1e2e: aa           	tax
    1e2f: a5 13        	lda	$13                     ; 0x2013 <printf+0xa97>
    1e31: 65 98        	adc	$98                     ; 0x2098 <printf+0xb1c>
    1e33: 85 12        	sta	$12                     ; 0x2012 <printf+0xa96>
    1e35: 8a           	txa
    1e36: 65 99        	adc	$99                     ; 0x2099 <printf+0xb1d>
    1e38: 85 13        	sta	$13                     ; 0x2013 <printf+0xa97>
    1e3a: a9 30        	lda	#$30
    1e3c: 92 12        	sta	($12)                   ; 0x2012 <printf+0xa96>
    1e3e: 80 05        	bra	$1e45 <printf+0x8c9>
    1e40: a9 30        	lda	#$30
    1e42: 20 8c 13     	jsr	$138c <__putchar>
    1e45: a6 94        	ldx	$94                     ; 0x2094 <printf+0xb18>
    1e47: a5 95        	lda	$95                     ; 0x2095 <printf+0xb19>
    1e49: e8           	inx
    1e4a: d0 01        	bne	$1e4d <printf+0x8d1>
    1e4c: 1a           	inc
    1e4d: 86 13        	stx	$13                     ; 0x2013 <printf+0xa97>
    1e4f: 86 94        	stx	$94                     ; 0x2094 <printf+0xb18>
    1e51: 85 95        	sta	$95                     ; 0x2095 <printf+0xb19>
    1e53: a4 6a        	ldy	$6a                     ; 0x206a <printf+0xaee>
    1e55: a6 69        	ldx	$69                     ; 0x2069 <printf+0xaed>
    1e57: 86 12        	stx	$12                     ; 0x2012 <printf+0xa96>
    1e59: 88           	dey
    1e5a: c0 ff        	cpy	#$ff
    1e5c: d0 02        	bne	$1e60 <printf+0x8e4>
    1e5e: c6 12        	dec	$12                     ; 0x2012 <printf+0xa96>
    1e60: 84 6a        	sty	$6a                     ; 0x206a <printf+0xaee>
    1e62: a6 12        	ldx	$12                     ; 0x2012 <printf+0xa96>
    1e64: 86 69        	stx	$69                     ; 0x2069 <printf+0xaed>
    1e66: d0 04        	bne	$1e6c <printf+0x8f0>
    1e68: c0 00        	cpy	#$0
    1e6a: f0 14        	beq	$1e80 <printf+0x904>
    1e6c: c5 93        	cmp	$93                     ; 0x2093 <printf+0xb17>
    1e6e: f0 03        	beq	$1e73 <printf+0x8f7>
    1e70: 4c 1d 1e     	jmp	$1e1d <printf+0x8a1>
    1e73: a6 92        	ldx	$92                     ; 0x2092 <printf+0xb16>
    1e75: 86 12        	stx	$12                     ; 0x2012 <printf+0xa96>
    1e77: a6 13        	ldx	$13                     ; 0x2013 <printf+0xa97>
    1e79: e4 12        	cpx	$12                     ; 0x2012 <printf+0xa96>
    1e7b: b0 c8        	bcs	$1e45 <printf+0x8c9>
    1e7d: 4c 21 1e     	jmp	$1e21 <printf+0x8a5>
    1e80: 64 6a        	stz	$6a                     ; 0x206a <printf+0xaee>
    1e82: 64 69        	stz	$69                     ; 0x2069 <printf+0xaed>
    1e84: a4 5f        	ldy	$5f                     ; 0x205f <printf+0xae3>
    1e86: a2 00        	ldx	#$0
    1e88: e4 68        	cpx	$68                     ; 0x2068 <printf+0xaec>
    1e8a: d0 07        	bne	$1e93 <printf+0x917>
    1e8c: c4 67        	cpy	$67                     ; 0x2067 <printf+0xaeb>
    1e8e: 90 0a        	bcc	$1e9a <printf+0x91e>
    1e90: 4c 08 1f     	jmp	$1f08 <printf+0x98c>
    1e93: e4 68        	cpx	$68                     ; 0x2068 <printf+0xaec>
    1e95: 90 03        	bcc	$1e9a <printf+0x91e>
    1e97: 4c 08 1f     	jmp	$1f08 <printf+0x98c>
    1e9a: a6 94        	ldx	$94                     ; 0x2094 <printf+0xb18>
    1e9c: 86 13        	stx	$13                     ; 0x2013 <printf+0xa97>
    1e9e: a5 95        	lda	$95                     ; 0x2095 <printf+0xb19>
    1ea0: a2 ff        	ldx	#$ff
    1ea2: c6 67        	dec	$67                     ; 0x2067 <printf+0xaeb>
    1ea4: e4 67        	cpx	$67                     ; 0x2067 <printf+0xaeb>
    1ea6: d0 02        	bne	$1eaa <printf+0x92e>
    1ea8: c6 68        	dec	$68                     ; 0x2068 <printf+0xaec>
    1eaa: c5 93        	cmp	$93                     ; 0x2093 <printf+0xb17>
    1eac: d0 0c        	bne	$1eba <printf+0x93e>
    1eae: a6 92        	ldx	$92                     ; 0x2092 <printf+0xb16>
    1eb0: 86 12        	stx	$12                     ; 0x2012 <printf+0xa96>
    1eb2: a6 13        	ldx	$13                     ; 0x2013 <printf+0xa97>
    1eb4: e4 12        	cpx	$12                     ; 0x2012 <printf+0xa96>
    1eb6: 90 06        	bcc	$1ebe <printf+0x942>
    1eb8: 80 28        	bra	$1ee2 <printf+0x966>
    1eba: c5 93        	cmp	$93                     ; 0x2093 <printf+0xb17>
    1ebc: b0 24        	bcs	$1ee2 <printf+0x966>
    1ebe: a6 9f        	ldx	$9f                     ; 0x209f <printf+0xb23>
    1ec0: e4 64        	cpx	$64                     ; 0x2064 <printf+0xae8>
    1ec2: d0 19        	bne	$1edd <printf+0x961>
    1ec4: a6 9e        	ldx	$9e                     ; 0x209e <printf+0xb22>
    1ec6: e4 63        	cpx	$63                     ; 0x2063 <printf+0xae7>
    1ec8: d0 13        	bne	$1edd <printf+0x961>
    1eca: 18           	clc
    1ecb: aa           	tax
    1ecc: a5 13        	lda	$13                     ; 0x2013 <printf+0xa97>
    1ece: 65 98        	adc	$98                     ; 0x2098 <printf+0xb1c>
    1ed0: 85 12        	sta	$12                     ; 0x2012 <printf+0xa96>
    1ed2: 8a           	txa
    1ed3: 65 99        	adc	$99                     ; 0x2099 <printf+0xb1d>
    1ed5: 85 13        	sta	$13                     ; 0x2013 <printf+0xa97>
    1ed7: a9 30        	lda	#$30
    1ed9: 92 12        	sta	($12)                   ; 0x2012 <printf+0xa96>
    1edb: 80 05        	bra	$1ee2 <printf+0x966>
    1edd: a9 30        	lda	#$30
    1edf: 20 8c 13     	jsr	$138c <__putchar>
    1ee2: a6 94        	ldx	$94                     ; 0x2094 <printf+0xb18>
    1ee4: a5 95        	lda	$95                     ; 0x2095 <printf+0xb19>
    1ee6: e8           	inx
    1ee7: d0 01        	bne	$1eea <printf+0x96e>
    1ee9: 1a           	inc
    1eea: 86 13        	stx	$13                     ; 0x2013 <printf+0xa97>
    1eec: 86 94        	stx	$94                     ; 0x2094 <printf+0xb18>
    1eee: 85 95        	sta	$95                     ; 0x2095 <printf+0xb19>
    1ef0: a2 00        	ldx	#$0
    1ef2: e4 68        	cpx	$68                     ; 0x2068 <printf+0xaec>
    1ef4: d0 09        	bne	$1eff <printf+0x983>
    1ef6: a4 5f        	ldy	$5f                     ; 0x205f <printf+0xae3>
    1ef8: c4 67        	cpy	$67                     ; 0x2067 <printf+0xaeb>
    1efa: b0 0c        	bcs	$1f08 <printf+0x98c>
    1efc: 4c a0 1e     	jmp	$1ea0 <printf+0x924>
    1eff: e4 68        	cpx	$68                     ; 0x2068 <printf+0xaec>
    1f01: a4 5f        	ldy	$5f                     ; 0x205f <printf+0xae3>
    1f03: b0 03        	bcs	$1f08 <printf+0x98c>
    1f05: 4c a0 1e     	jmp	$1ea0 <printf+0x924>
    1f08: 98           	tya
    1f09: d0 03        	bne	$1f0e <printf+0x992>
    1f0b: 4c fd 1f     	jmp	$1ffd <printf+0xa81>
    1f0e: 88           	dey
    1f0f: d0 03        	bne	$1f14 <printf+0x998>
    1f11: 4c 9c 1f     	jmp	$1f9c <printf+0xa20>
    1f14: 84 67        	sty	$67                     ; 0x2067 <printf+0xaeb>
    1f16: a6 aa        	ldx	$aa                     ; 0x20aa <printf+0xb2e>
    1f18: 8a           	txa
    1f19: 18           	clc
    1f1a: 65 67        	adc	$67                     ; 0x2067 <printf+0xaeb>
    1f1c: 85 5f        	sta	$5f                     ; 0x205f <printf+0xae3>
    1f1e: a5 ab        	lda	$ab                     ; 0x20ab <printf+0xb2f>
    1f20: 69 00        	adc	#$0
    1f22: 85 60        	sta	$60                     ; 0x2060 <printf+0xae4>
    1f24: 4c 8e 1f     	jmp	$1f8e <printf+0xa12>
    1f27: a8           	tay
    1f28: a9 80        	lda	#$80
    1f2a: 25 90        	and	$90                     ; 0x2090 <printf+0xb14>
    1f2c: f0 04        	beq	$1f32 <printf+0x9b6>
    1f2e: a2 61        	ldx	#$61
    1f30: 80 02        	bra	$1f34 <printf+0x9b8>
    1f32: a2 41        	ldx	#$41
    1f34: 86 12        	stx	$12                     ; 0x2012 <printf+0xa96>
    1f36: 18           	clc
    1f37: 98           	tya
    1f38: 65 12        	adc	$12                     ; 0x2012 <printf+0xa96>
    1f3a: 18           	clc
    1f3b: 69 f6        	adc	#$f6
    1f3d: a4 94        	ldy	$94                     ; 0x2094 <printf+0xb18>
    1f3f: a6 95        	ldx	$95                     ; 0x2095 <printf+0xb19>
    1f41: e4 93        	cpx	$93                     ; 0x2093 <printf+0xb17>
    1f43: d0 0c        	bne	$1f51 <printf+0x9d5>
    1f45: 86 14        	stx	$14                     ; 0x2014 <printf+0xa98>
    1f47: a6 92        	ldx	$92                     ; 0x2092 <printf+0xb16>
    1f49: 86 12        	stx	$12                     ; 0x2012 <printf+0xa96>
    1f4b: c4 12        	cpy	$12                     ; 0x2012 <printf+0xa96>
    1f4d: 90 08        	bcc	$1f57 <printf+0x9db>
    1f4f: 80 27        	bra	$1f78 <printf+0x9fc>
    1f51: 86 14        	stx	$14                     ; 0x2014 <printf+0xa98>
    1f53: e4 93        	cpx	$93                     ; 0x2093 <printf+0xb17>
    1f55: b0 21        	bcs	$1f78 <printf+0x9fc>
    1f57: a6 9f        	ldx	$9f                     ; 0x209f <printf+0xb23>
    1f59: e4 64        	cpx	$64                     ; 0x2064 <printf+0xae8>
    1f5b: d0 18        	bne	$1f75 <printf+0x9f9>
    1f5d: a6 9e        	ldx	$9e                     ; 0x209e <printf+0xb22>
    1f5f: e4 63        	cpx	$63                     ; 0x2063 <printf+0xae7>
    1f61: d0 12        	bne	$1f75 <printf+0x9f9>
    1f63: 18           	clc
    1f64: aa           	tax
    1f65: 98           	tya
    1f66: 65 98        	adc	$98                     ; 0x2098 <printf+0xb1c>
    1f68: 85 12        	sta	$12                     ; 0x2012 <printf+0xa96>
    1f6a: a5 14        	lda	$14                     ; 0x2014 <printf+0xa98>
    1f6c: 65 99        	adc	$99                     ; 0x2099 <printf+0xb1d>
    1f6e: 85 13        	sta	$13                     ; 0x2013 <printf+0xa97>
    1f70: 8a           	txa
    1f71: 92 12        	sta	($12)                   ; 0x2012 <printf+0xa96>
    1f73: 80 03        	bra	$1f78 <printf+0x9fc>
    1f75: 20 8c 13     	jsr	$138c <__putchar>
    1f78: e6 94        	inc	$94                     ; 0x2094 <printf+0xb18>
    1f7a: d0 02        	bne	$1f7e <printf+0xa02>
    1f7c: e6 95        	inc	$95                     ; 0x2095 <printf+0xb19>
    1f7e: c6 67        	dec	$67                     ; 0x2067 <printf+0xaeb>
    1f80: a2 ff        	ldx	#$ff
    1f82: c6 5f        	dec	$5f                     ; 0x205f <printf+0xae3>
    1f84: e4 5f        	cpx	$5f                     ; 0x205f <printf+0xae3>
    1f86: d0 02        	bne	$1f8a <printf+0xa0e>
    1f88: c6 60        	dec	$60                     ; 0x2060 <printf+0xae4>
    1f8a: a5 67        	lda	$67                     ; 0x2067 <printf+0xaeb>
    1f8c: f0 0e        	beq	$1f9c <printf+0xa20>
    1f8e: b2 5f        	lda	($5f)                   ; 0x205f <printf+0xae3>
    1f90: c9 0a        	cmp	#$a
    1f92: 90 03        	bcc	$1f97 <printf+0xa1b>
    1f94: 4c 27 1f     	jmp	$1f27 <printf+0x9ab>
    1f97: 09 30        	ora	#$30
    1f99: 4c 3d 1f     	jmp	$1f3d <printf+0x9c1>
    1f9c: a5 6d        	lda	$6d                     ; 0x206d <printf+0xaf1>
    1f9e: c9 0a        	cmp	#$a
    1fa0: b0 04        	bcs	$1fa6 <printf+0xa2a>
    1fa2: 09 30        	ora	#$30
    1fa4: 80 16        	bra	$1fbc <printf+0xa40>
    1fa6: a8           	tay
    1fa7: a9 80        	lda	#$80
    1fa9: 25 90        	and	$90                     ; 0x2090 <printf+0xb14>
    1fab: f0 04        	beq	$1fb1 <printf+0xa35>
    1fad: a2 61        	ldx	#$61
    1faf: 80 02        	bra	$1fb3 <printf+0xa37>
    1fb1: a2 41        	ldx	#$41
    1fb3: 86 12        	stx	$12                     ; 0x2012 <printf+0xa96>
    1fb5: 18           	clc
    1fb6: 98           	tya
    1fb7: 65 12        	adc	$12                     ; 0x2012 <printf+0xa96>
    1fb9: 18           	clc
    1fba: 69 f6        	adc	#$f6
    1fbc: a4 94        	ldy	$94                     ; 0x2094 <printf+0xb18>
    1fbe: a6 95        	ldx	$95                     ; 0x2095 <printf+0xb19>
    1fc0: e4 93        	cpx	$93                     ; 0x2093 <printf+0xb17>
    1fc2: d0 0c        	bne	$1fd0 <printf+0xa54>
    1fc4: 86 14        	stx	$14                     ; 0x2014 <printf+0xa98>
    1fc6: a6 92        	ldx	$92                     ; 0x2092 <printf+0xb16>
    1fc8: 86 12        	stx	$12                     ; 0x2012 <printf+0xa96>
    1fca: c4 12        	cpy	$12                     ; 0x2012 <printf+0xa96>
    1fcc: 90 08        	bcc	$1fd6 <printf+0xa5a>
    1fce: 80 27        	bra	$1ff7 <printf+0xa7b>
    1fd0: 86 14        	stx	$14                     ; 0x2014 <printf+0xa98>
    1fd2: e4 93        	cpx	$93                     ; 0x2093 <printf+0xb17>
    1fd4: b0 21        	bcs	$1ff7 <printf+0xa7b>
    1fd6: a6 9f        	ldx	$9f                     ; 0x209f <printf+0xb23>
    1fd8: e4 64        	cpx	$64                     ; 0x2064 <printf+0xae8>
    1fda: d0 18        	bne	$1ff4 <printf+0xa78>
    1fdc: a6 9e        	ldx	$9e                     ; 0x209e <printf+0xb22>
    1fde: e4 63        	cpx	$63                     ; 0x2063 <printf+0xae7>
    1fe0: d0 12        	bne	$1ff4 <printf+0xa78>
    1fe2: 18           	clc
    1fe3: aa           	tax
    1fe4: 98           	tya
    1fe5: 65 98        	adc	$98                     ; 0x2098 <printf+0xb1c>
    1fe7: 85 12        	sta	$12                     ; 0x2012 <printf+0xa96>
    1fe9: a5 14        	lda	$14                     ; 0x2014 <printf+0xa98>
    1feb: 65 99        	adc	$99                     ; 0x2099 <printf+0xb1d>
    1fed: 85 13        	sta	$13                     ; 0x2013 <printf+0xa97>
    1fef: 8a           	txa
    1ff0: 92 12        	sta	($12)                   ; 0x2012 <printf+0xa96>
    1ff2: 80 03        	bra	$1ff7 <printf+0xa7b>
    1ff4: 20 8c 13     	jsr	$138c <__putchar>
    1ff7: e6 94        	inc	$94                     ; 0x2094 <printf+0xb18>
    1ff9: d0 02        	bne	$1ffd <printf+0xa81>
    1ffb: e6 95        	inc	$95                     ; 0x2095 <printf+0xb19>
    1ffd: a9 01        	lda	#$1
    1fff: 25 90        	and	$90                     ; 0x2090 <printf+0xb14>
    2001: 29 01        	and	#$1
    2003: d0 1e        	bne	$2023 <printf+0xaa7>
    2005: a6 94        	ldx	$94                     ; 0x2094 <printf+0xb18>
    2007: 86 14        	stx	$14                     ; 0x2014 <printf+0xa98>
    2009: a5 95        	lda	$95                     ; 0x2095 <printf+0xb19>
    200b: a4 92        	ldy	$92                     ; 0x2092 <printf+0xb16>
    200d: a6 93        	ldx	$93                     ; 0x2093 <printf+0xb17>
    200f: 86 12        	stx	$12                     ; 0x2012 <printf+0xa96>
    2011: 86 13        	stx	$13                     ; 0x2013 <printf+0xa97>
    2013: c5 12        	cmp	$12                     ; 0x2012 <printf+0xa96>
    2015: f0 03        	beq	$201a <printf+0xa9e>
    2017: 4c a6 20     	jmp	$20a6 <printf+0xb2a>
    201a: 84 12        	sty	$12                     ; 0x2012 <printf+0xa96>
    201c: a6 14        	ldx	$14                     ; 0x2014 <printf+0xa98>
    201e: e4 12        	cpx	$12                     ; 0x2012 <printf+0xa96>
    2020: 4c aa 20     	jmp	$20aa <printf+0xb2e>
    2023: a6 94        	ldx	$94                     ; 0x2094 <printf+0xb18>
    2025: 86 14        	stx	$14                     ; 0x2014 <printf+0xa98>
    2027: a5 95        	lda	$95                     ; 0x2095 <printf+0xb19>
    2029: a6 6a        	ldx	$6a                     ; 0x206a <printf+0xaee>
    202b: a4 69        	ldy	$69                     ; 0x2069 <printf+0xaed>
    202d: f0 03        	beq	$2032 <printf+0xab6>
    202f: 4c 92 20     	jmp	$2092 <printf+0xb16>
    2032: e0 00        	cpx	#$0
    2034: f0 d5        	beq	$200b <printf+0xa8f>
    2036: 4c 92 20     	jmp	$2092 <printf+0xb16>
    2039: c5 93        	cmp	$93                     ; 0x2093 <printf+0xb17>
    203b: b0 24        	bcs	$2061 <printf+0xae5>
    203d: a6 9f        	ldx	$9f                     ; 0x209f <printf+0xb23>
    203f: e4 64        	cpx	$64                     ; 0x2064 <printf+0xae8>
    2041: d0 19        	bne	$205c <printf+0xae0>
    2043: a6 9e        	ldx	$9e                     ; 0x209e <printf+0xb22>
    2045: e4 63        	cpx	$63                     ; 0x2063 <printf+0xae7>
    2047: d0 13        	bne	$205c <printf+0xae0>
    2049: 18           	clc
    204a: aa           	tax
    204b: a5 14        	lda	$14                     ; 0x2014 <printf+0xa98>
    204d: 65 98        	adc	$98                     ; 0x2098 <printf+0xb1c>
    204f: 85 12        	sta	$12                     ; 0x2012 <printf+0xa96>
    2051: 8a           	txa
    2052: 65 99        	adc	$99                     ; 0x2099 <printf+0xb1d>
    2054: 85 13        	sta	$13                     ; 0x2013 <printf+0xa97>
    2056: a9 20        	lda	#$20
    2058: 92 12        	sta	($12)                   ; 0x2012 <printf+0xa96>
    205a: 80 05        	bra	$2061 <printf+0xae5>
    205c: a9 20        	lda	#$20
    205e: 20 8c 13     	jsr	$138c <__putchar>
    2061: a6 94        	ldx	$94                     ; 0x2094 <printf+0xb18>
    2063: a5 95        	lda	$95                     ; 0x2095 <printf+0xb19>
    2065: e8           	inx
    2066: d0 01        	bne	$2069 <printf+0xaed>
    2068: 1a           	inc
    2069: 86 14        	stx	$14                     ; 0x2014 <printf+0xa98>
    206b: 86 94        	stx	$94                     ; 0x2094 <printf+0xb18>
    206d: 85 95        	sta	$95                     ; 0x2095 <printf+0xb19>
    206f: a6 6a        	ldx	$6a                     ; 0x206a <printf+0xaee>
    2071: 86 12        	stx	$12                     ; 0x2012 <printf+0xa96>
    2073: a6 69        	ldx	$69                     ; 0x2069 <printf+0xaed>
    2075: 86 13        	stx	$13                     ; 0x2013 <printf+0xa97>
    2077: a2 ff        	ldx	#$ff
    2079: c6 12        	dec	$12                     ; 0x2012 <printf+0xa96>
    207b: e4 12        	cpx	$12                     ; 0x2012 <printf+0xa96>
    207d: d0 02        	bne	$2081 <printf+0xb05>
    207f: c6 13        	dec	$13                     ; 0x2013 <printf+0xa97>
    2081: a6 12        	ldx	$12                     ; 0x2012 <printf+0xa96>
    2083: 86 6a        	stx	$6a                     ; 0x206a <printf+0xaee>
    2085: a6 13        	ldx	$13                     ; 0x2013 <printf+0xa97>
    2087: 86 69        	stx	$69                     ; 0x2069 <printf+0xaed>
    2089: d0 07        	bne	$2092 <printf+0xb16>
    208b: a6 12        	ldx	$12                     ; 0x2012 <printf+0xa96>
    208d: d0 03        	bne	$2092 <printf+0xb16>
    208f: 4c 0b 20     	jmp	$200b <printf+0xa8f>
    2092: c5 93        	cmp	$93                     ; 0x2093 <printf+0xb17>
    2094: f0 03        	beq	$2099 <printf+0xb1d>
    2096: 4c 39 20     	jmp	$2039 <printf+0xabd>
    2099: a6 92        	ldx	$92                     ; 0x2092 <printf+0xb16>
    209b: 86 12        	stx	$12                     ; 0x2012 <printf+0xa96>
    209d: a6 14        	ldx	$14                     ; 0x2014 <printf+0xa98>
    209f: e4 12        	cpx	$12                     ; 0x2012 <printf+0xa96>
    20a1: b0 be        	bcs	$2061 <printf+0xae5>
    20a3: 4c 3d 20     	jmp	$203d <printf+0xac1>
    20a6: 86 12        	stx	$12                     ; 0x2012 <printf+0xa96>
    20a8: c5 12        	cmp	$12                     ; 0x2012 <printf+0xa96>
    20aa: 98           	tya
    20ab: a0 01        	ldy	#$1
    20ad: 90 20        	bcc	$20cf <printf+0xb53>
    20af: a6 13        	ldx	$13                     ; 0x2013 <printf+0xa97>
    20b1: d0 03        	bne	$20b6 <printf+0xb3a>
    20b3: aa           	tax
    20b4: f0 19        	beq	$20cf <printf+0xb53>
    20b6: 18           	clc
    20b7: 65 98        	adc	$98                     ; 0x2098 <printf+0xb1c>
    20b9: 85 12        	sta	$12                     ; 0x2012 <printf+0xa96>
    20bb: a5 13        	lda	$13                     ; 0x2013 <printf+0xa97>
    20bd: 65 99        	adc	$99                     ; 0x2099 <printf+0xb1d>
    20bf: 85 13        	sta	$13                     ; 0x2013 <printf+0xa97>
    20c1: a2 ff        	ldx	#$ff
    20c3: c6 12        	dec	$12                     ; 0x2012 <printf+0xa96>
    20c5: e4 12        	cpx	$12                     ; 0x2012 <printf+0xa96>
    20c7: d0 02        	bne	$20cb <printf+0xb4f>
    20c9: c6 13        	dec	$13                     ; 0x2013 <printf+0xa97>
    20cb: a9 00        	lda	#$0
    20cd: 92 12        	sta	($12)                   ; 0x2012 <printf+0xa96>
    20cf: e6 61        	inc	$61                     ; 0x2061 <printf+0xae5>
    20d1: d0 02        	bne	$20d5 <printf+0xb59>
    20d3: e6 62        	inc	$62                     ; 0x2062 <printf+0xae6>
    20d5: a6 62        	ldx	$62                     ; 0x2062 <printf+0xae6>
    20d7: e4 66        	cpx	$66                     ; 0x2066 <printf+0xaea>
    20d9: f0 03        	beq	$20de <printf+0xb62>
    20db: 4c e1 15     	jmp	$15e1 <printf+0x65>
    20de: a6 61        	ldx	$61                     ; 0x2061 <printf+0xae5>
    20e0: e4 65        	cpx	$65                     ; 0x2065 <printf+0xae9>
    20e2: f0 03        	beq	$20e7 <printf+0xb6b>
    20e4: 4c e1 15     	jmp	$15e1 <printf+0x65>
    20e7: b2 65        	lda	($65)                   ; 0x2065 <printf+0xae9>
    20e9: a2 00        	ldx	#$0
    20eb: 86 63        	stx	$63                     ; 0x2063 <printf+0xae7>
    20ed: a2 00        	ldx	#$0
    20ef: 86 64        	stx	$64                     ; 0x2064 <printf+0xae8>
    20f1: 4c f5 15     	jmp	$15f5 <printf+0x79>
    20f4: e4 68        	cpx	$68                     ; 0x2068 <printf+0xaec>
    20f6: a6 60        	ldx	$60                     ; 0x2060 <printf+0xae4>
    20f8: b0 03        	bcs	$20fd <printf+0xb81>
    20fa: 4c 21 1c     	jmp	$1c21 <printf+0x6a5>
    20fd: a5 5f        	lda	$5f                     ; 0x205f <printf+0xae3>
    20ff: 85 67        	sta	$67                     ; 0x2067 <printf+0xaeb>
    2101: 64 68        	stz	$68                     ; 0x2068 <printf+0xaec>
    2103: e6 67        	inc	$67                     ; 0x2067 <printf+0xaeb>
    2105: f0 03        	beq	$210a <printf+0xb8e>
    2107: 4c 21 1c     	jmp	$1c21 <printf+0x6a5>
    210a: e6 68        	inc	$68                     ; 0x2068 <printf+0xaec>
    210c: 4c 21 1c     	jmp	$1c21 <printf+0x6a5>
    210f: a2 58        	ldx	#$58
    2111: 86 a9        	stx	$a9                     ; 0x20a9 <printf+0xb2d>
    2113: a2 01        	ldx	#$1
    2115: 86 a4        	stx	$a4                     ; 0x20a4 <printf+0xb28>
    2117: a2 30        	ldx	#$30
    2119: 86 a6        	stx	$a6                     ; 0x20a6 <printf+0xb2a>
    211b: a9 02        	lda	#$2
    211d: a2 00        	ldx	#$0
    211f: 86 a5        	stx	$a5                     ; 0x20a5 <printf+0xb29>
    2121: 4c 62 1c     	jmp	$1c62 <printf+0x6e6>
    2124: 64 6a        	stz	$6a                     ; 0x206a <printf+0xaee>
    2126: 64 69        	stz	$69                     ; 0x2069 <printf+0xaed>
    2128: 4c 86 1e     	jmp	$1e86 <printf+0x90a>
    212b: 60           	rts

0000212c <malloc>:
    212c: a8           	tay
    212d: 8a           	txa
    212e: a2 00        	ldx	#$0
    2130: 86 12        	stx	$12                     ; 0x2012 <printf+0xa96>
    2132: a2 00        	ldx	#$0
    2134: 86 13        	stx	$13                     ; 0x2013 <printf+0xa97>
    2136: aa           	tax
    2137: d0 07        	bne	$2140 <malloc+0x14>
    2139: c0 00        	cpy	#$0
    213b: d0 03        	bne	$2140 <malloc+0x14>
    213d: 4c 3c 22     	jmp	$223c <malloc+0x110>
    2140: 84 16        	sty	$16                     ; 0x2016 <printf+0xa9a>
    2142: aa           	tax
    2143: d0 0e        	bne	$2153 <malloc+0x27>
    2145: a6 16        	ldx	$16                     ; 0x2016 <printf+0xa9a>
    2147: e0 07        	cpx	#$7
    2149: b0 0c        	bcs	$2157 <malloc+0x2b>
    214b: a2 08        	ldx	#$8
    214d: 86 5f        	stx	$5f                     ; 0x205f <printf+0xae3>
    214f: a9 00        	lda	#$0
    2151: 80 2f        	bra	$2182 <malloc+0x56>
    2153: c9 00        	cmp	#$0
    2155: 90 f4        	bcc	$214b <malloc+0x1f>
    2157: a8           	tay
    2158: a5 16        	lda	$16                     ; 0x2016 <printf+0xa9a>
    215a: 29 01        	and	#$1
    215c: a2 02        	ldx	#$2
    215e: 64 14        	stz	$14                     ; 0x2014 <printf+0xa98>
    2160: c9 00        	cmp	#$0
    2162: f0 02        	beq	$2166 <malloc+0x3a>
    2164: a2 03        	ldx	#$3
    2166: 86 15        	stx	$15                     ; 0x2015 <printf+0xa99>
    2168: 18           	clc
    2169: a5 16        	lda	$16                     ; 0x2016 <printf+0xa9a>
    216b: 65 15        	adc	$15                     ; 0x2015 <printf+0xa99>
    216d: aa           	tax
    216e: 98           	tya
    216f: 65 14        	adc	$14                     ; 0x2014 <printf+0xa98>
    2171: 90 03        	bcc	$2176 <malloc+0x4a>
    2173: 4c 3c 22     	jmp	$223c <malloc+0x110>
    2176: 86 5f        	stx	$5f                     ; 0x205f <printf+0xae3>
    2178: a8           	tay
    2179: d0 07        	bne	$2182 <malloc+0x56>
    217b: e0 00        	cpx	#$0
    217d: d0 03        	bne	$2182 <malloc+0x56>
    217f: 4c 3c 22     	jmp	$223c <malloc+0x110>
    2182: 85 60        	sta	$60                     ; 0x2060 <printf+0xae4>
    2184: ad 83 2e     	lda	$2e83                   ; 0x2e83 <__bss_start>
    2187: 29 01        	and	#$1
    2189: d0 2a        	bne	$21b5 <malloc+0x89>
    218b: a9 00        	lda	#$0
    218d: a2 10        	ldx	#$10
    218f: a0 88        	ldy	#$88
    2191: 84 12        	sty	$12                     ; 0x2012 <printf+0xa96>
    2193: a0 4e        	ldy	#$4e
    2195: 84 13        	sty	$13                     ; 0x2013 <printf+0xa97>
    2197: 20 16 03     	jsr	$316 <_ZN12_GLOBAL__N_19FreeChunk6insertEPvj>
    219a: a2 00        	ldx	#$0
    219c: 86 12        	stx	$12                     ; 0x2012 <printf+0xa96>
    219e: a2 00        	ldx	#$0
    21a0: 86 13        	stx	$13                     ; 0x2013 <printf+0xa97>
    21a2: ae 89 4e     	ldx	$4e89                   ; 0x4e89 <end_block9+0x1>
    21a5: a9 fe        	lda	#$fe
    21a7: 2d 88 4e     	and	$4e88                   ; 0x4e88 <end_block9>
    21aa: 8d 88 4e     	sta	$4e88                   ; 0x4e88 <end_block9>
    21ad: 8e 89 4e     	stx	$4e89                   ; 0x4e89 <end_block9+0x1>
    21b0: a2 01        	ldx	#$1
    21b2: 8e 83 2e     	stx	$2e83                   ; 0x2e83 <__bss_start>
    21b5: ad 86 2e     	lda	$2e86                   ; 0x2e86 <_ZN12_GLOBAL__N_19free_listE>
    21b8: ae 87 2e     	ldx	$2e87                   ; 0x2e87 <_ZN12_GLOBAL__N_19free_listE+0x1>
    21bb: a0 00        	ldy	#$0
    21bd: 84 14        	sty	$14                     ; 0x2014 <printf+0xa98>
    21bf: a0 00        	ldy	#$0
    21c1: 84 15        	sty	$15                     ; 0x2015 <printf+0xa99>
    21c3: 86 1d        	stx	$1d                     ; 0x201d <printf+0xaa1>
    21c5: e4 15        	cpx	$15                     ; 0x2015 <printf+0xa99>
    21c7: d0 07        	bne	$21d0 <malloc+0xa4>
    21c9: c5 14        	cmp	$14                     ; 0x2014 <printf+0xa98>
    21cb: d0 03        	bne	$21d0 <malloc+0xa4>
    21cd: 4c 3c 22     	jmp	$223c <malloc+0x110>
    21d0: a0 00        	ldy	#$0
    21d2: a2 10        	ldx	#$10
    21d4: 85 18        	sta	$18                     ; 0x2018 <printf+0xa9c>
    21d6: 84 14        	sty	$14                     ; 0x2014 <printf+0xa98>
    21d8: 86 15        	stx	$15                     ; 0x2015 <printf+0xa99>
    21da: 18           	clc
    21db: a9 88        	lda	#$88
    21dd: 65 14        	adc	$14                     ; 0x2014 <printf+0xa98>
    21df: 85 14        	sta	$14                     ; 0x2014 <printf+0xa98>
    21e1: a9 4e        	lda	#$4e
    21e3: 65 15        	adc	$15                     ; 0x2015 <printf+0xa99>
    21e5: a6 14        	ldx	$14                     ; 0x2014 <printf+0xa98>
    21e7: 86 61        	stx	$61                     ; 0x2061 <printf+0xae5>
    21e9: 85 17        	sta	$17                     ; 0x2017 <printf+0xa9b>
    21eb: a6 18        	ldx	$18                     ; 0x2018 <printf+0xa9c>
    21ed: 86 1c        	stx	$1c                     ; 0x201c <printf+0xaa0>
    21ef: a6 18        	ldx	$18                     ; 0x2018 <printf+0xa9c>
    21f1: 86 14        	stx	$14                     ; 0x2014 <printf+0xa98>
    21f3: a6 1d        	ldx	$1d                     ; 0x201d <printf+0xaa1>
    21f5: 86 15        	stx	$15                     ; 0x2015 <printf+0xa99>
    21f7: a0 01        	ldy	#$1
    21f9: a6 60        	ldx	$60                     ; 0x2060 <printf+0xae4>
    21fb: 86 18        	stx	$18                     ; 0x2018 <printf+0xa9c>
    21fd: b1 14        	lda	($14),y                 ; 0x2014 <printf+0xa98>
    21ff: 85 19        	sta	$19                     ; 0x2019 <printf+0xa9d>
    2201: aa           	tax
    2202: a9 fe        	lda	#$fe
    2204: 32 14        	and	($14)                   ; 0x2014 <printf+0xa98>
    2206: 85 1a        	sta	$1a                     ; 0x201a <printf+0xa9e>
    2208: e4 18        	cpx	$18                     ; 0x2018 <printf+0xa9c>
    220a: d0 0a        	bne	$2216 <malloc+0xea>
    220c: a6 5f        	ldx	$5f                     ; 0x205f <printf+0xae3>
    220e: 86 1b        	stx	$1b                     ; 0x201b <printf+0xa9f>
    2210: c5 1b        	cmp	$1b                     ; 0x201b <printf+0xa9f>
    2212: b0 29        	bcs	$223d <malloc+0x111>
    2214: 80 04        	bra	$221a <malloc+0xee>
    2216: e4 18        	cpx	$18                     ; 0x2018 <printf+0xa9c>
    2218: b0 23        	bcs	$223d <malloc+0x111>
    221a: a5 14        	lda	$14                     ; 0x2014 <printf+0xa98>
    221c: 18           	clc
    221d: 69 02        	adc	#$2
    221f: 85 1a        	sta	$1a                     ; 0x201a <printf+0xa9e>
    2221: a5 15        	lda	$15                     ; 0x2015 <printf+0xa99>
    2223: 69 00        	adc	#$0
    2225: 85 1b        	sta	$1b                     ; 0x201b <printf+0xa9f>
    2227: a0 02        	ldy	#$2
    2229: b1 14        	lda	($14),y                 ; 0x2014 <printf+0xa98>
    222b: 85 14        	sta	$14                     ; 0x2014 <printf+0xa98>
    222d: 88           	dey
    222e: b1 1a        	lda	($1a),y                 ; 0x201a <printf+0xa9e>
    2230: 85 15        	sta	$15                     ; 0x2015 <printf+0xa99>
    2232: c5 1d        	cmp	$1d                     ; 0x201d <printf+0xaa1>
    2234: d0 c7        	bne	$21fd <malloc+0xd1>
    2236: a5 14        	lda	$14                     ; 0x2014 <printf+0xa98>
    2238: c5 1c        	cmp	$1c                     ; 0x201c <printf+0xaa0>
    223a: d0 c1        	bne	$21fd <malloc+0xd1>
    223c: 60           	rts
    223d: ad 84 2e     	lda	$2e84                   ; 0x2e84 <_ZN12_GLOBAL__N_19free_sizeE>
    2240: ae 85 2e     	ldx	$2e85                   ; 0x2e85 <_ZN12_GLOBAL__N_19free_sizeE+0x1>
    2243: 86 12        	stx	$12                     ; 0x2012 <printf+0xa96>
    2245: 38           	sec
    2246: e5 1a        	sbc	$1a                     ; 0x201a <printf+0xa9e>
    2248: aa           	tax
    2249: a5 12        	lda	$12                     ; 0x2012 <printf+0xa96>
    224b: e5 19        	sbc	$19                     ; 0x2019 <printf+0xa9d>
    224d: 85 12        	sta	$12                     ; 0x2012 <printf+0xa96>
    224f: 18           	clc
    2250: 8a           	txa
    2251: 69 02        	adc	#$2
    2253: 85 13        	sta	$13                     ; 0x2013 <printf+0xa97>
    2255: a5 12        	lda	$12                     ; 0x2012 <printf+0xa96>
    2257: 69 00        	adc	#$0
    2259: a6 13        	ldx	$13                     ; 0x2013 <printf+0xa97>
    225b: 8e 84 2e     	stx	$2e84                   ; 0x2e84 <_ZN12_GLOBAL__N_19free_sizeE>
    225e: 8d 85 2e     	sta	$2e85                   ; 0x2e85 <_ZN12_GLOBAL__N_19free_sizeE+0x1>
    2261: a0 02        	ldy	#$2
    2263: a5 14        	lda	$14                     ; 0x2014 <printf+0xa98>
    2265: 18           	clc
    2266: 69 02        	adc	#$2
    2268: 85 12        	sta	$12                     ; 0x2012 <printf+0xa96>
    226a: a5 15        	lda	$15                     ; 0x2015 <printf+0xa99>
    226c: 69 00        	adc	#$0
    226e: 85 13        	sta	$13                     ; 0x2013 <printf+0xa97>
    2270: b1 14        	lda	($14),y                 ; 0x2014 <printf+0xa98>
    2272: 85 1e        	sta	$1e                     ; 0x201e <printf+0xaa2>
    2274: 88           	dey
    2275: b1 12        	lda	($12),y                 ; 0x2012 <printf+0xa96>
    2277: 85 1f        	sta	$1f                     ; 0x201f <printf+0xaa3>
    2279: c5 15        	cmp	$15                     ; 0x2015 <printf+0xa99>
    227b: d0 15        	bne	$2292 <malloc+0x166>
    227d: a5 60        	lda	$60                     ; 0x2060 <printf+0xae4>
    227f: a6 1e        	ldx	$1e                     ; 0x201e <printf+0xaa2>
    2281: e4 14        	cpx	$14                     ; 0x2014 <printf+0xa98>
    2283: d0 0d        	bne	$2292 <malloc+0x166>
    2285: 85 1a        	sta	$1a                     ; 0x201a <printf+0xa9e>
    2287: a2 00        	ldx	#$0
    2289: 86 18        	stx	$18                     ; 0x2018 <printf+0xa9c>
    228b: a2 00        	ldx	#$0
    228d: 86 19        	stx	$19                     ; 0x2019 <printf+0xa9d>
    228f: 4c 0c 23     	jmp	$230c <malloc+0x1e0>
    2292: 18           	clc
    2293: a5 14        	lda	$14                     ; 0x2014 <printf+0xa98>
    2295: 69 04        	adc	#$4
    2297: 85 18        	sta	$18                     ; 0x2018 <printf+0xa9c>
    2299: a5 15        	lda	$15                     ; 0x2015 <printf+0xa99>
    229b: 69 00        	adc	#$0
    229d: 85 19        	sta	$19                     ; 0x2019 <printf+0xa9d>
    229f: a0 04        	ldy	#$4
    22a1: b1 14        	lda	($14),y                 ; 0x2014 <printf+0xa98>
    22a3: 85 23        	sta	$23                     ; 0x2023 <printf+0xaa7>
    22a5: 18           	clc
    22a6: 69 02        	adc	#$2
    22a8: 85 1a        	sta	$1a                     ; 0x201a <printf+0xa9e>
    22aa: a0 01        	ldy	#$1
    22ac: b1 18        	lda	($18),y                 ; 0x2018 <printf+0xa9c>
    22ae: 85 22        	sta	$22                     ; 0x2022 <printf+0xaa6>
    22b0: 69 00        	adc	#$0
    22b2: a6 1a        	ldx	$1a                     ; 0x201a <printf+0xa9e>
    22b4: 86 18        	stx	$18                     ; 0x2018 <printf+0xa9c>
    22b6: 85 19        	sta	$19                     ; 0x2019 <printf+0xa9d>
    22b8: a6 23        	ldx	$23                     ; 0x2023 <printf+0xaa7>
    22ba: 86 1a        	stx	$1a                     ; 0x201a <printf+0xa9e>
    22bc: a6 22        	ldx	$22                     ; 0x2022 <printf+0xaa6>
    22be: 86 1b        	stx	$1b                     ; 0x201b <printf+0xa9f>
    22c0: c8           	iny
    22c1: a5 1e        	lda	$1e                     ; 0x201e <printf+0xaa2>
    22c3: 91 1a        	sta	($1a),y                 ; 0x201a <printf+0xa9e>
    22c5: a5 1f        	lda	$1f                     ; 0x201f <printf+0xaa3>
    22c7: 88           	dey
    22c8: 91 18        	sta	($18),y                 ; 0x2018 <printf+0xa9c>
    22ca: 18           	clc
    22cb: a5 14        	lda	$14                     ; 0x2014 <printf+0xa98>
    22cd: 69 02        	adc	#$2
    22cf: 85 1a        	sta	$1a                     ; 0x201a <printf+0xa9e>
    22d1: a5 15        	lda	$15                     ; 0x2015 <printf+0xa99>
    22d3: 69 00        	adc	#$0
    22d5: 85 1b        	sta	$1b                     ; 0x201b <printf+0xa9f>
    22d7: c8           	iny
    22d8: b1 14        	lda	($14),y                 ; 0x2014 <printf+0xa98>
    22da: 85 18        	sta	$18                     ; 0x2018 <printf+0xa9c>
    22dc: aa           	tax
    22dd: 88           	dey
    22de: b1 1a        	lda	($1a),y                 ; 0x201a <printf+0xa9e>
    22e0: 85 19        	sta	$19                     ; 0x2019 <printf+0xa9d>
    22e2: 85 16        	sta	$16                     ; 0x2016 <printf+0xa9a>
    22e4: a0 04        	ldy	#$4
    22e6: a5 23        	lda	$23                     ; 0x2023 <printf+0xaa7>
    22e8: 91 18        	sta	($18),y                 ; 0x2018 <printf+0xa9c>
    22ea: 18           	clc
    22eb: 8a           	txa
    22ec: 69 04        	adc	#$4
    22ee: 85 1a        	sta	$1a                     ; 0x201a <printf+0xa9e>
    22f0: a5 16        	lda	$16                     ; 0x2016 <printf+0xa9a>
    22f2: 69 00        	adc	#$0
    22f4: 85 1b        	sta	$1b                     ; 0x201b <printf+0xa9f>
    22f6: a5 22        	lda	$22                     ; 0x2022 <printf+0xaa6>
    22f8: a0 01        	ldy	#$1
    22fa: 91 1a        	sta	($1a),y                 ; 0x201a <printf+0xa9e>
    22fc: a5 60        	lda	$60                     ; 0x2060 <printf+0xae4>
    22fe: 85 1a        	sta	$1a                     ; 0x201a <printf+0xa9e>
    2300: a6 1d        	ldx	$1d                     ; 0x201d <printf+0xaa1>
    2302: e4 15        	cpx	$15                     ; 0x2015 <printf+0xa99>
    2304: d0 10        	bne	$2316 <malloc+0x1ea>
    2306: a6 1c        	ldx	$1c                     ; 0x201c <printf+0xaa0>
    2308: e4 14        	cpx	$14                     ; 0x2014 <printf+0xa98>
    230a: d0 0a        	bne	$2316 <malloc+0x1ea>
    230c: a6 18        	ldx	$18                     ; 0x2018 <printf+0xa9c>
    230e: a4 19        	ldy	$19                     ; 0x2019 <printf+0xa9d>
    2310: 8e 86 2e     	stx	$2e86                   ; 0x2e86 <_ZN12_GLOBAL__N_19free_listE>
    2313: 8c 87 2e     	sty	$2e87                   ; 0x2e87 <_ZN12_GLOBAL__N_19free_listE+0x1>
    2316: a0 01        	ldy	#$1
    2318: b1 14        	lda	($14),y                 ; 0x2014 <printf+0xa98>
    231a: 85 16        	sta	$16                     ; 0x2016 <printf+0xa9a>
    231c: a9 fe        	lda	#$fe
    231e: 32 14        	and	($14)                   ; 0x2014 <printf+0xa98>
    2320: 38           	sec
    2321: a6 5f        	ldx	$5f                     ; 0x205f <printf+0xae3>
    2323: 86 18        	stx	$18                     ; 0x2018 <printf+0xa9c>
    2325: a8           	tay
    2326: e5 18        	sbc	$18                     ; 0x2018 <printf+0xa9c>
    2328: 85 19        	sta	$19                     ; 0x2019 <printf+0xa9d>
    232a: a5 16        	lda	$16                     ; 0x2016 <printf+0xa9a>
    232c: a6 16        	ldx	$16                     ; 0x2016 <printf+0xa9a>
    232e: e5 1a        	sbc	$1a                     ; 0x201a <printf+0xa9e>
    2330: f0 03        	beq	$2335 <malloc+0x209>
    2332: 4c c1 23     	jmp	$23c1 <malloc+0x295>
    2335: 85 16        	sta	$16                     ; 0x2016 <printf+0xa9a>
    2337: a5 19        	lda	$19                     ; 0x2019 <printf+0xa9d>
    2339: c9 08        	cmp	#$8
    233b: 86 18        	stx	$18                     ; 0x2018 <printf+0xa9c>
    233d: b0 03        	bcs	$2342 <malloc+0x216>
    233f: 4c a4 23     	jmp	$23a4 <malloc+0x278>
    2342: a6 17        	ldx	$17                     ; 0x2017 <printf+0xa9b>
    2344: 86 66        	stx	$66                     ; 0x2066 <printf+0xaea>
    2346: a6 61        	ldx	$61                     ; 0x2061 <printf+0xae5>
    2348: 86 61        	stx	$61                     ; 0x2061 <printf+0xae5>
    234a: a6 12        	ldx	$12                     ; 0x2012 <printf+0xa96>
    234c: 86 62        	stx	$62                     ; 0x2062 <printf+0xae6>
    234e: a6 13        	ldx	$13                     ; 0x2013 <printf+0xa97>
    2350: 86 63        	stx	$63                     ; 0x2063 <printf+0xae7>
    2352: a8           	tay
    2353: 18           	clc
    2354: a6 5f        	ldx	$5f                     ; 0x205f <printf+0xae3>
    2356: 86 5f        	stx	$5f                     ; 0x205f <printf+0xae3>
    2358: 8a           	txa
    2359: 65 14        	adc	$14                     ; 0x2014 <printf+0xa98>
    235b: 85 12        	sta	$12                     ; 0x2012 <printf+0xa96>
    235d: a5 1a        	lda	$1a                     ; 0x201a <printf+0xa9e>
    235f: a6 1a        	ldx	$1a                     ; 0x201a <printf+0xa9e>
    2361: 86 60        	stx	$60                     ; 0x2060 <printf+0xae4>
    2363: 65 15        	adc	$15                     ; 0x2015 <printf+0xa99>
    2365: 85 13        	sta	$13                     ; 0x2013 <printf+0xa97>
    2367: a6 16        	ldx	$16                     ; 0x2016 <printf+0xa9a>
    2369: 98           	tya
    236a: a4 14        	ldy	$14                     ; 0x2014 <printf+0xa98>
    236c: 84 64        	sty	$64                     ; 0x2064 <printf+0xae8>
    236e: a4 15        	ldy	$15                     ; 0x2015 <printf+0xa99>
    2370: 84 65        	sty	$65                     ; 0x2065 <printf+0xae9>
    2372: 20 16 03     	jsr	$316 <_ZN12_GLOBAL__N_19FreeChunk6insertEPvj>
    2375: a6 64        	ldx	$64                     ; 0x2064 <printf+0xae8>
    2377: 86 14        	stx	$14                     ; 0x2014 <printf+0xa98>
    2379: a6 65        	ldx	$65                     ; 0x2065 <printf+0xae9>
    237b: 86 15        	stx	$15                     ; 0x2015 <printf+0xa99>
    237d: a5 5f        	lda	$5f                     ; 0x205f <printf+0xae3>
    237f: 29 fe        	and	#$fe
    2381: 85 12        	sta	$12                     ; 0x2012 <printf+0xa96>
    2383: a0 01        	ldy	#$1
    2385: 98           	tya
    2386: 32 14        	and	($14)                   ; 0x2014 <printf+0xa98>
    2388: 05 12        	ora	$12                     ; 0x2012 <printf+0xa96>
    238a: 92 14        	sta	($14)                   ; 0x2014 <printf+0xa98>
    238c: a5 60        	lda	$60                     ; 0x2060 <printf+0xae4>
    238e: 91 14        	sta	($14),y                 ; 0x2014 <printf+0xa98>
    2390: a4 12        	ldy	$12                     ; 0x2012 <printf+0xa96>
    2392: 85 18        	sta	$18                     ; 0x2018 <printf+0xa9c>
    2394: a6 62        	ldx	$62                     ; 0x2062 <printf+0xae6>
    2396: 86 12        	stx	$12                     ; 0x2012 <printf+0xa96>
    2398: a6 63        	ldx	$63                     ; 0x2063 <printf+0xae7>
    239a: 86 13        	stx	$13                     ; 0x2013 <printf+0xa97>
    239c: a6 61        	ldx	$61                     ; 0x2061 <printf+0xae5>
    239e: 86 61        	stx	$61                     ; 0x2061 <printf+0xae5>
    23a0: a6 66        	ldx	$66                     ; 0x2066 <printf+0xaea>
    23a2: 86 17        	stx	$17                     ; 0x2017 <printf+0xa9b>
    23a4: 18           	clc
    23a5: 98           	tya
    23a6: 65 14        	adc	$14                     ; 0x2014 <printf+0xa98>
    23a8: 85 16        	sta	$16                     ; 0x2016 <printf+0xa9a>
    23aa: a5 15        	lda	$15                     ; 0x2015 <printf+0xa99>
    23ac: 65 18        	adc	$18                     ; 0x2018 <printf+0xa9c>
    23ae: 85 15        	sta	$15                     ; 0x2015 <printf+0xa99>
    23b0: c5 17        	cmp	$17                     ; 0x2017 <printf+0xa9b>
    23b2: d0 1a        	bne	$23ce <malloc+0x2a2>
    23b4: a6 61        	ldx	$61                     ; 0x2061 <printf+0xae5>
    23b6: 86 14        	stx	$14                     ; 0x2014 <printf+0xa98>
    23b8: a6 16        	ldx	$16                     ; 0x2016 <printf+0xa9a>
    23ba: e4 14        	cpx	$14                     ; 0x2014 <printf+0xa98>
    23bc: d0 12        	bne	$23d0 <malloc+0x2a4>
    23be: 4c 3c 22     	jmp	$223c <malloc+0x110>
    23c1: 85 16        	sta	$16                     ; 0x2016 <printf+0xa9a>
    23c3: c9 00        	cmp	#$0
    23c5: 86 18        	stx	$18                     ; 0x2018 <printf+0xa9c>
    23c7: a5 19        	lda	$19                     ; 0x2019 <printf+0xa9d>
    23c9: 90 d9        	bcc	$23a4 <malloc+0x278>
    23cb: 4c 42 23     	jmp	$2342 <malloc+0x216>
    23ce: a6 16        	ldx	$16                     ; 0x2016 <printf+0xa9a>
    23d0: 86 14        	stx	$14                     ; 0x2014 <printf+0xa98>
    23d2: a0 01        	ldy	#$1
    23d4: b1 14        	lda	($14),y                 ; 0x2014 <printf+0xa98>
    23d6: 85 16        	sta	$16                     ; 0x2016 <printf+0xa9a>
    23d8: a9 fe        	lda	#$fe
    23da: 32 14        	and	($14)                   ; 0x2014 <printf+0xa98>
    23dc: 92 14        	sta	($14)                   ; 0x2014 <printf+0xa98>
    23de: a5 16        	lda	$16                     ; 0x2016 <printf+0xa9a>
    23e0: 91 14        	sta	($14),y                 ; 0x2014 <printf+0xa98>
    23e2: 60           	rts

000023e3 <memcpy>:
    23e3: a8           	tay
    23e4: 8a           	txa
    23e5: d0 03        	bne	$23ea <memcpy+0x7>
    23e7: 98           	tya
    23e8: f0 24        	beq	$240e <memcpy+0x2b>
    23ea: a5 12        	lda	$12                     ; 0x2012 <printf+0xa96>
    23ec: 85 16        	sta	$16                     ; 0x2016 <printf+0xa9a>
    23ee: a5 13        	lda	$13                     ; 0x2013 <printf+0xa97>
    23f0: 85 17        	sta	$17                     ; 0x2017 <printf+0xa9b>
    23f2: b2 14        	lda	($14)                   ; 0x2014 <printf+0xa98>
    23f4: 92 16        	sta	($16)                   ; 0x2016 <printf+0xa9a>
    23f6: e6 16        	inc	$16                     ; 0x2016 <printf+0xa9a>
    23f8: d0 02        	bne	$23fc <memcpy+0x19>
    23fa: e6 17        	inc	$17                     ; 0x2017 <printf+0xa9b>
    23fc: e6 14        	inc	$14                     ; 0x2014 <printf+0xa98>
    23fe: d0 02        	bne	$2402 <memcpy+0x1f>
    2400: e6 15        	inc	$15                     ; 0x2015 <printf+0xa99>
    2402: 88           	dey
    2403: c0 ff        	cpy	#$ff
    2405: d0 01        	bne	$2408 <memcpy+0x25>
    2407: ca           	dex
    2408: 8a           	txa
    2409: d0 e7        	bne	$23f2 <memcpy+0xf>
    240b: 98           	tya
    240c: d0 e4        	bne	$23f2 <memcpy+0xf>
    240e: 60           	rts

0000240f <__memset>:
    240f: a4 14        	ldy	$14                     ; 0x2014 <printf+0xa98>
    2411: d0 04        	bne	$2417 <__memset+0x8>
    2413: e0 00        	cpx	#$0
    2415: f0 17        	beq	$242e <__memset+0x1f>
    2417: 92 12        	sta	($12)                   ; 0x2012 <printf+0xa96>
    2419: e6 12        	inc	$12                     ; 0x2012 <printf+0xa96>
    241b: d0 02        	bne	$241f <__memset+0x10>
    241d: e6 13        	inc	$13                     ; 0x2013 <printf+0xa97>
    241f: ca           	dex
    2420: e0 ff        	cpx	#$ff
    2422: d0 02        	bne	$2426 <__memset+0x17>
    2424: c6 14        	dec	$14                     ; 0x2014 <printf+0xa98>
    2426: a4 14        	ldy	$14                     ; 0x2014 <printf+0xa98>
    2428: d0 ed        	bne	$2417 <__memset+0x8>
    242a: e0 00        	cpx	#$0
    242c: d0 e9        	bne	$2417 <__memset+0x8>
    242e: 60           	rts

0000242f <strlen>:
    242f: a9 0a        	lda	#$a
    2431: a2 00        	ldx	#$0
    2433: 60           	rts

00002434 <__umodsi3>:
    2434: 85 1c        	sta	$1c                     ; 0x201c <printf+0xaa0>
    2436: 86 1a        	stx	$1a                     ; 0x201a <printf+0xa9e>
    2438: a5 13        	lda	$13                     ; 0x2013 <printf+0xa97>
    243a: a6 17        	ldx	$17                     ; 0x2017 <printf+0xa9b>
    243c: d0 0f        	bne	$244d <__umodsi3+0x19>
    243e: a6 16        	ldx	$16                     ; 0x2016 <printf+0xa9a>
    2440: d0 0b        	bne	$244d <__umodsi3+0x19>
    2442: a6 15        	ldx	$15                     ; 0x2015 <printf+0xa99>
    2444: d0 07        	bne	$244d <__umodsi3+0x19>
    2446: a6 14        	ldx	$14                     ; 0x2014 <printf+0xa98>
    2448: d0 03        	bne	$244d <__umodsi3+0x19>
    244a: 4c 74 25     	jmp	$2574 <__umodsi3+0x140>
    244d: c5 17        	cmp	$17                     ; 0x2017 <printf+0xa9b>
    244f: d0 15        	bne	$2466 <__umodsi3+0x32>
    2451: a6 12        	ldx	$12                     ; 0x2012 <printf+0xa96>
    2453: e4 16        	cpx	$16                     ; 0x2016 <printf+0xa9a>
    2455: d0 16        	bne	$246d <__umodsi3+0x39>
    2457: a6 1a        	ldx	$1a                     ; 0x201a <printf+0xa9e>
    2459: e4 15        	cpx	$15                     ; 0x2015 <printf+0xa99>
    245b: d0 17        	bne	$2474 <__umodsi3+0x40>
    245d: a6 1c        	ldx	$1c                     ; 0x201c <printf+0xaa0>
    245f: e4 14        	cpx	$14                     ; 0x2014 <printf+0xa98>
    2461: b0 1a        	bcs	$247d <__umodsi3+0x49>
    2463: 4c 74 25     	jmp	$2574 <__umodsi3+0x140>
    2466: c5 17        	cmp	$17                     ; 0x2017 <printf+0xa9b>
    2468: b0 13        	bcs	$247d <__umodsi3+0x49>
    246a: 4c 74 25     	jmp	$2574 <__umodsi3+0x140>
    246d: e4 16        	cpx	$16                     ; 0x2016 <printf+0xa9a>
    246f: b0 0c        	bcs	$247d <__umodsi3+0x49>
    2471: 4c 74 25     	jmp	$2574 <__umodsi3+0x140>
    2474: a6 1a        	ldx	$1a                     ; 0x201a <printf+0xa9e>
    2476: e4 15        	cpx	$15                     ; 0x2015 <printf+0xa99>
    2478: b0 03        	bcs	$247d <__umodsi3+0x49>
    247a: 4c 74 25     	jmp	$2574 <__umodsi3+0x140>
    247d: a6 17        	ldx	$17                     ; 0x2017 <printf+0xa9b>
    247f: 10 03        	bpl	$2484 <__umodsi3+0x50>
    2481: 4c 5d 25     	jmp	$255d <__umodsi3+0x129>
    2484: a2 00        	ldx	#$0
    2486: a4 14        	ldy	$14                     ; 0x2014 <printf+0xa98>
    2488: 84 1b        	sty	$1b                     ; 0x201b <printf+0xa9f>
    248a: a4 15        	ldy	$15                     ; 0x2015 <printf+0xa99>
    248c: 84 13        	sty	$13                     ; 0x2013 <printf+0xa97>
    248e: a4 16        	ldy	$16                     ; 0x2016 <printf+0xa9a>
    2490: 84 18        	sty	$18                     ; 0x2018 <printf+0xa9c>
    2492: a4 17        	ldy	$17                     ; 0x2017 <printf+0xa9b>
    2494: 84 19        	sty	$19                     ; 0x2019 <printf+0xa9d>
    2496: 06 1b        	asl	$1b                     ; 0x201b <printf+0xa9f>
    2498: 26 13        	rol	$13                     ; 0x2013 <printf+0xa97>
    249a: 26 18        	rol	$18                     ; 0x2018 <printf+0xa9c>
    249c: 26 19        	rol	$19                     ; 0x2019 <printf+0xa9d>
    249e: c5 19        	cmp	$19                     ; 0x2019 <printf+0xa9d>
    24a0: d0 16        	bne	$24b8 <__umodsi3+0x84>
    24a2: a4 12        	ldy	$12                     ; 0x2012 <printf+0xa96>
    24a4: c4 18        	cpy	$18                     ; 0x2018 <printf+0xa9c>
    24a6: d0 16        	bne	$24be <__umodsi3+0x8a>
    24a8: a4 1a        	ldy	$1a                     ; 0x201a <printf+0xa9e>
    24aa: c4 13        	cpy	$13                     ; 0x2013 <printf+0xa97>
    24ac: d0 16        	bne	$24c4 <__umodsi3+0x90>
    24ae: a8           	tay
    24af: a5 1c        	lda	$1c                     ; 0x201c <printf+0xaa0>
    24b1: c5 1b        	cmp	$1b                     ; 0x201b <printf+0xa9f>
    24b3: 98           	tya
    24b4: 90 29        	bcc	$24df <__umodsi3+0xab>
    24b6: 80 12        	bra	$24ca <__umodsi3+0x96>
    24b8: c5 19        	cmp	$19                     ; 0x2019 <printf+0xa9d>
    24ba: 90 23        	bcc	$24df <__umodsi3+0xab>
    24bc: 80 0c        	bra	$24ca <__umodsi3+0x96>
    24be: c4 18        	cpy	$18                     ; 0x2018 <printf+0xa9c>
    24c0: 90 1d        	bcc	$24df <__umodsi3+0xab>
    24c2: 80 06        	bra	$24ca <__umodsi3+0x96>
    24c4: a4 1a        	ldy	$1a                     ; 0x201a <printf+0xa9e>
    24c6: c4 13        	cpy	$13                     ; 0x2013 <printf+0xa97>
    24c8: 90 15        	bcc	$24df <__umodsi3+0xab>
    24ca: e8           	inx
    24cb: a4 1b        	ldy	$1b                     ; 0x201b <printf+0xa9f>
    24cd: 84 14        	sty	$14                     ; 0x2014 <printf+0xa98>
    24cf: a4 13        	ldy	$13                     ; 0x2013 <printf+0xa97>
    24d1: 84 15        	sty	$15                     ; 0x2015 <printf+0xa99>
    24d3: a4 18        	ldy	$18                     ; 0x2018 <printf+0xa9c>
    24d5: 84 16        	sty	$16                     ; 0x2016 <printf+0xa9a>
    24d7: a4 19        	ldy	$19                     ; 0x2019 <printf+0xa9d>
    24d9: 84 17        	sty	$17                     ; 0x2017 <printf+0xa9b>
    24db: 10 b9        	bpl	$2496 <__umodsi3+0x62>
    24dd: 80 10        	bra	$24ef <__umodsi3+0xbb>
    24df: a4 14        	ldy	$14                     ; 0x2014 <printf+0xa98>
    24e1: 84 1b        	sty	$1b                     ; 0x201b <printf+0xa9f>
    24e3: a4 15        	ldy	$15                     ; 0x2015 <printf+0xa99>
    24e5: 84 13        	sty	$13                     ; 0x2013 <printf+0xa97>
    24e7: a4 16        	ldy	$16                     ; 0x2016 <printf+0xa9a>
    24e9: 84 18        	sty	$18                     ; 0x2018 <printf+0xa9c>
    24eb: a4 17        	ldy	$17                     ; 0x2017 <printf+0xa9b>
    24ed: 84 19        	sty	$19                     ; 0x2019 <printf+0xa9d>
    24ef: 38           	sec
    24f0: a8           	tay
    24f1: a5 1c        	lda	$1c                     ; 0x201c <printf+0xaa0>
    24f3: e5 1b        	sbc	$1b                     ; 0x201b <printf+0xa9f>
    24f5: 85 1c        	sta	$1c                     ; 0x201c <printf+0xaa0>
    24f7: a5 1a        	lda	$1a                     ; 0x201a <printf+0xa9e>
    24f9: e5 13        	sbc	$13                     ; 0x2013 <printf+0xa97>
    24fb: 85 1a        	sta	$1a                     ; 0x201a <printf+0xa9e>
    24fd: a5 12        	lda	$12                     ; 0x2012 <printf+0xa96>
    24ff: e5 18        	sbc	$18                     ; 0x2018 <printf+0xa9c>
    2501: 85 12        	sta	$12                     ; 0x2012 <printf+0xa96>
    2503: 98           	tya
    2504: e5 19        	sbc	$19                     ; 0x2019 <printf+0xa9d>
    2506: e0 00        	cpx	#$0
    2508: d0 11        	bne	$251b <__umodsi3+0xe7>
    250a: 4c 74 25     	jmp	$2574 <__umodsi3+0x140>
    250d: c4 18        	cpy	$18                     ; 0x2018 <printf+0xa9c>
    250f: b0 30        	bcs	$2541 <__umodsi3+0x10d>
    2511: 80 45        	bra	$2558 <__umodsi3+0x124>
    2513: a4 1a        	ldy	$1a                     ; 0x201a <printf+0xa9e>
    2515: c4 13        	cpy	$13                     ; 0x2013 <printf+0xa97>
    2517: b0 28        	bcs	$2541 <__umodsi3+0x10d>
    2519: 80 3d        	bra	$2558 <__umodsi3+0x124>
    251b: 46 19        	lsr	$19                     ; 0x2019 <printf+0xa9d>
    251d: 66 18        	ror	$18                     ; 0x2018 <printf+0xa9c>
    251f: 66 13        	ror	$13                     ; 0x2013 <printf+0xa97>
    2521: 66 1b        	ror	$1b                     ; 0x201b <printf+0xa9f>
    2523: c5 19        	cmp	$19                     ; 0x2019 <printf+0xa9d>
    2525: d0 16        	bne	$253d <__umodsi3+0x109>
    2527: a4 12        	ldy	$12                     ; 0x2012 <printf+0xa96>
    2529: c4 18        	cpy	$18                     ; 0x2018 <printf+0xa9c>
    252b: d0 e0        	bne	$250d <__umodsi3+0xd9>
    252d: a4 1a        	ldy	$1a                     ; 0x201a <printf+0xa9e>
    252f: c4 13        	cpy	$13                     ; 0x2013 <printf+0xa97>
    2531: d0 e0        	bne	$2513 <__umodsi3+0xdf>
    2533: a8           	tay
    2534: a5 1c        	lda	$1c                     ; 0x201c <printf+0xaa0>
    2536: c5 1b        	cmp	$1b                     ; 0x201b <printf+0xa9f>
    2538: 98           	tya
    2539: b0 06        	bcs	$2541 <__umodsi3+0x10d>
    253b: 80 1b        	bra	$2558 <__umodsi3+0x124>
    253d: c5 19        	cmp	$19                     ; 0x2019 <printf+0xa9d>
    253f: 90 17        	bcc	$2558 <__umodsi3+0x124>
    2541: a8           	tay
    2542: 38           	sec
    2543: a5 1c        	lda	$1c                     ; 0x201c <printf+0xaa0>
    2545: e5 1b        	sbc	$1b                     ; 0x201b <printf+0xa9f>
    2547: 85 1c        	sta	$1c                     ; 0x201c <printf+0xaa0>
    2549: a5 1a        	lda	$1a                     ; 0x201a <printf+0xa9e>
    254b: e5 13        	sbc	$13                     ; 0x2013 <printf+0xa97>
    254d: 85 1a        	sta	$1a                     ; 0x201a <printf+0xa9e>
    254f: a5 12        	lda	$12                     ; 0x2012 <printf+0xa96>
    2551: e5 18        	sbc	$18                     ; 0x2018 <printf+0xa9c>
    2553: 85 12        	sta	$12                     ; 0x2012 <printf+0xa96>
    2555: 98           	tya
    2556: e5 19        	sbc	$19                     ; 0x2019 <printf+0xa9d>
    2558: ca           	dex
    2559: d0 c0        	bne	$251b <__umodsi3+0xe7>
    255b: 80 17        	bra	$2574 <__umodsi3+0x140>
    255d: 38           	sec
    255e: a8           	tay
    255f: a5 1c        	lda	$1c                     ; 0x201c <printf+0xaa0>
    2561: e5 14        	sbc	$14                     ; 0x2014 <printf+0xa98>
    2563: 85 1c        	sta	$1c                     ; 0x201c <printf+0xaa0>
    2565: a5 1a        	lda	$1a                     ; 0x201a <printf+0xa9e>
    2567: e5 15        	sbc	$15                     ; 0x2015 <printf+0xa99>
    2569: 85 1a        	sta	$1a                     ; 0x201a <printf+0xa9e>
    256b: a5 12        	lda	$12                     ; 0x2012 <printf+0xa96>
    256d: e5 16        	sbc	$16                     ; 0x2016 <printf+0xa9a>
    256f: 85 12        	sta	$12                     ; 0x2012 <printf+0xa96>
    2571: 98           	tya
    2572: e5 17        	sbc	$17                     ; 0x2017 <printf+0xa9b>
    2574: 85 13        	sta	$13                     ; 0x2013 <printf+0xa97>
    2576: a6 1a        	ldx	$1a                     ; 0x201a <printf+0xa9e>
    2578: a5 1c        	lda	$1c                     ; 0x201c <printf+0xaa0>
    257a: 60           	rts
