
mp3wSA.elf:	file format elf32-mos

SYMBOL TABLE:
00000000 l    df *ABS*	00000000 zero-bss.c
00000000 l    df *ABS*	00000000 zero-zp-bss.c
00000000 l    df *ABS*	00000000 ld-temp.o
00000036 l     O .zp.bss	00000007 kernelEventData
00000030 l     O .zp.bss	00000001 _ccolor
00003079 l     O .rodata	00000030 textColors
00000031 l     O .zp.bss	00000001 _col
00000032 l     O .zp.bss	00000001 _row
00005e57 l     O .bss	00000004 _BITMAP_BASE.0
00000035 l     O .zp.bss	00000001 kernelError
00002e1d l     F .text	000001d5 malloc
00001d3c l     F .text	00000084 setTextLUT1
00002dd8 l     F .text	00000045 puts
000021ac l     F .text	00000c2c printf
00005e5b l     O .bss	00000002 theMP3file
00003211 l     O .rodata	00002476 bigpatch
00001e42 l     F .text	0000017e initVS1053Plugin
00005687 l     O .rodata	000007d0 saplugin2
00001875 l     F .text	0000014b fileRead
000019c0 l     F .text	000001ce textPrint
00001dc0 l     F .text	00000082 setTextLUT2
00001b8e l     F .text	000001ae fileClose
00000454 l     F .text	000000df _ZN12_GLOBAL__N_19FreeChunk6removeEv
00005e5e l     O .bss	00000001 _ZN12_GLOBAL__N_19last_freeE
00000316 l     F .text	0000013d _ZN12_GLOBAL__N_19FreeChunk6insertEPvj
00001fc5 l     F .text	000000db _ZN12_GLOBAL__N_13putEcP6Status
00000033 l     O .zp.bss	00000002 __putchar.s
000020a0 l     F .text	0000010c _ZN12_GLOBAL__N_112print_stringEPKcP6Status
00005e5d l     O .bss	00000001 _ZN12_GLOBAL__N_111initializedE
00005e61 l     O .bss	00000002 _ZN12_GLOBAL__N_19free_listE
00005e5f l     O .bss	00000002 _ZN12_GLOBAL__N_19free_sizeE
00000559 g     F .text	0000131c main
00031400 g       .mlogopal	00000000 mlogopal_end
00030d00 g       .mac	00000000 mac_end
00044000 g       .mlogo	00000000 mlogo_end
00010000 g       .mac	00000000 mac_start
00031400 g       .mlogo	00000000 mlogo_start
00031000 g       .mlogopal	00000000 mlogopal_start
00000311 g       .text	00000000 __after_main
00000300 g       .text	00000000 __do_init_stack
00000308 g       .text	00000000 __do_zero_bss
00000533 g     F .text	00000013 __zero_bss
0000030b g       .text	00000000 __do_zero_zp_bss
00000546 g     F .text	00000013 __zero_zp_bss
00001fc0 g     F .text	00000005 exit
00000314 g       .text	00000000 _fini
0000303e g       .rodata	00000000 __set_v
0000301e  w    F .text	00000020 __memset
00001000  w      *ABS*	00000000 __heap_default_limit
00005e64 g       .noinit	00000000 __heap_start
00002ff2  w    F .text	0000002c memcpy
00000010 g       *ABS*	00000000 __rc0
00000012 g       *ABS*	00000000 __rc2
00000014 g       *ABS*	00000000 __rc4
00000016 g       *ABS*	00000000 __rc6
00000018 g       *ABS*	00000000 __rc8
0000001a g       *ABS*	00000000 __rc10
0000001c g       *ABS*	00000000 __rc12
0000001e g       *ABS*	00000000 __rc14
00000020 g       *ABS*	00000000 __rc16
00000022 g       *ABS*	00000000 __rc18
00000024 g       *ABS*	00000000 __rc20
00000026 g       *ABS*	00000000 __rc22
00000028 g       *ABS*	00000000 __rc24
0000002a g       *ABS*	00000000 __rc26
0000002c g       *ABS*	00000000 __rc28
0000002e g       *ABS*	00000000 __rc30
0000002f g       *ABS*	00000000 __rc31
00000300 g       *ABS*	00000000 __f256_start
0000c000 g       *ABS*	00000000 __stack
0000c000 g       *ABS*	00000000 __SLOT_ADDR
0800c000 g       *ABS*	00000000 __block8_lma
00002000 g       *ABS*	00000000 __BLOCK_SIZE
0900c000 g       *ABS*	00000000 __block9_lma
0a00c000 g       *ABS*	00000000 __block10_lma
0b00c000 g       *ABS*	00000000 __block11_lma
0c00c000 g       *ABS*	00000000 __block12_lma
0d00c000 g       *ABS*	00000000 __block13_lma
0e00c000 g       *ABS*	00000000 __block14_lma
0f00c000 g       *ABS*	00000000 __block15_lma
1000c000 g       *ABS*	00000000 __block16_lma
1100c000 g       *ABS*	00000000 __block17_lma
1200c000 g       *ABS*	00000000 __block18_lma
1300c000 g       *ABS*	00000000 __block19_lma
1400c000 g       *ABS*	00000000 __block20_lma
1500c000 g       *ABS*	00000000 __block21_lma
1600c000 g       *ABS*	00000000 __block22_lma
1700c000 g       *ABS*	00000000 __block23_lma
00010000 g       *ABS*	00000000 __mac_lma
00020d00 g       *ABS*	00000000 __mac_size
00031000 g       *ABS*	00000000 __mlogopal_lma
00000400 g       *ABS*	00000000 __mlogopal_size
00031400 g       *ABS*	00000000 __mlogo_lma
00012c00 g       *ABS*	00000000 __mlogo_size
00005e57 g       .bss	00000000 __bss_start
00030d00 g       .mac	00000000 end_mac
00031400 g       .mlogopal	00000000 end_mlogopal
00044000 g       .mlogo	00000000 end_mlogo
00000300 g       .text	00000000 _start
0000002d g       *ABS*	00000000 __rc29
0000002b g       *ABS*	00000000 __rc27
00000029 g       *ABS*	00000000 __rc25
00000027 g       *ABS*	00000000 __rc23
00000025 g       *ABS*	00000000 __rc21
00000023 g       *ABS*	00000000 __rc19
00000021 g       *ABS*	00000000 __rc17
0000001f g       *ABS*	00000000 __rc15
0000001d g       *ABS*	00000000 __rc13
0000001b g       *ABS*	00000000 __rc11
00000019 g       *ABS*	00000000 __rc9
00000017 g       *ABS*	00000000 __rc7
00000015 g       *ABS*	00000000 __rc5
00000013 g       *ABS*	00000000 __rc3
00000011 g       *ABS*	00000000 __rc1
00000030 g       .zp.data	00000000 __zp_data_start
00000300 g       *ABS*	00000000 __zp_data_load_start
00000000 g       *ABS*	00000000 __zp_data_size
00000030 g       .zp.bss	00000000 __zp_bss_start
0000000d g       *ABS*	00000000 __zp_bss_size
00000300 g       .text	00000000 _init
0000303e g       .text	00000000 __init_array_start
0000303e g       .text	00000000 __init_array_end
0000303e g       .text	00000000 __fini_array_start
0000303e g       .text	00000000 __fini_array_end
00005e57 g       .data	00000000 __data_start
00005e57 g       .data	00000000 __data_end
00005e57 g       *ABS*	00000000 __data_load_start
00000000 g       *ABS*	00000000 __data_size
00005e63 g       .bss	00000000 __bss_end
0000000c g       *ABS*	00000000 __bss_size
00005e63 g       .noinit	00000000 end_block8
00005e63 g       .noinit	00000000 end_block9
00005e63 g       .noinit	00000000 end_block10
00005e63 g       .noinit	00000000 end_block11
00005e63 g       .noinit	00000000 end_block12
00005e63 g       .noinit	00000000 end_block13
00005e63 g       .noinit	00000000 end_block14
00005e63 g       .noinit	00000000 end_block15
00005e63 g       .noinit	00000000 end_block16
00005e63 g       .noinit	00000000 end_block17
00005e63 g       .noinit	00000000 end_block18
00005e63 g       .noinit	00000000 end_block19
00005e63 g       .noinit	00000000 end_block20
00005e63 g       .noinit	00000000 end_block21
00005e63 g       .noinit	00000000 end_block22
00005e63 g       .noinit	00000000 end_block23

Disassembly of section .text:

00000300 <_start>:
     300: a9 00        	lda	#$0
     302: 85 10        	sta	$10                     ; 0x2010 <_ZN12_GLOBAL__N_13putEcP6Status+0x4b>
     304: a9 c0        	lda	#$c0
     306: 85 11        	sta	$11                     ; 0x2011 <_ZN12_GLOBAL__N_13putEcP6Status+0x4c>

00000308 <__do_zero_bss>:
     308: 20 33 05     	jsr	$533 <__zero_bss>

0000030b <__do_zero_zp_bss>:
     30b: 20 46 05     	jsr	$546 <__zero_zp_bss>
     30e: 20 59 05     	jsr	$559 <main>

00000311 <__after_main>:
     311: 4c c0 1f     	jmp	$1fc0 <exit>

00000314 <_fini>:
     314: 60           	rts
     315: 00           	brk

00000316 <_ZN12_GLOBAL__N_19FreeChunk6insertEPvj>:
     316: 85 16        	sta	$16                     ; 0x2016 <_ZN12_GLOBAL__N_13putEcP6Status+0x51>
     318: 29 fe        	and	#$fe
     31a: 85 14        	sta	$14                     ; 0x2014 <_ZN12_GLOBAL__N_13putEcP6Status+0x4f>
     31c: a0 01        	ldy	#$1
     31e: 98           	tya
     31f: 32 12        	and	($12)                   ; 0x2012 <_ZN12_GLOBAL__N_13putEcP6Status+0x4d>
     321: 05 14        	ora	$14                     ; 0x2014 <_ZN12_GLOBAL__N_13putEcP6Status+0x4f>
     323: 92 12        	sta	($12)                   ; 0x2012 <_ZN12_GLOBAL__N_13putEcP6Status+0x4d>
     325: a5 12        	lda	$12                     ; 0x2012 <_ZN12_GLOBAL__N_13putEcP6Status+0x4d>
     327: 18           	clc
     328: 65 14        	adc	$14                     ; 0x2014 <_ZN12_GLOBAL__N_13putEcP6Status+0x4f>
     32a: 85 15        	sta	$15                     ; 0x2015 <_ZN12_GLOBAL__N_13putEcP6Status+0x50>
     32c: 8a           	txa
     32d: 65 13        	adc	$13                     ; 0x2013 <_ZN12_GLOBAL__N_13putEcP6Status+0x4e>
     32f: 85 14        	sta	$14                     ; 0x2014 <_ZN12_GLOBAL__N_13putEcP6Status+0x4f>
     331: 18           	clc
     332: a5 15        	lda	$15                     ; 0x2015 <_ZN12_GLOBAL__N_13putEcP6Status+0x50>
     334: 69 fe        	adc	#$fe
     336: 85 17        	sta	$17                     ; 0x2017 <_ZN12_GLOBAL__N_13putEcP6Status+0x52>
     338: a5 14        	lda	$14                     ; 0x2014 <_ZN12_GLOBAL__N_13putEcP6Status+0x4f>
     33a: 69 ff        	adc	#$ff
     33c: 85 15        	sta	$15                     ; 0x2015 <_ZN12_GLOBAL__N_13putEcP6Status+0x50>
     33e: a5 17        	lda	$17                     ; 0x2017 <_ZN12_GLOBAL__N_13putEcP6Status+0x52>
     340: 85 14        	sta	$14                     ; 0x2014 <_ZN12_GLOBAL__N_13putEcP6Status+0x4f>
     342: 8a           	txa
     343: 91 12        	sta	($12),y                 ; 0x2012 <_ZN12_GLOBAL__N_13putEcP6Status+0x4d>
     345: a5 16        	lda	$16                     ; 0x2016 <_ZN12_GLOBAL__N_13putEcP6Status+0x51>
     347: 92 14        	sta	($14)                   ; 0x2014 <_ZN12_GLOBAL__N_13putEcP6Status+0x4f>
     349: 8a           	txa
     34a: 91 14        	sta	($14),y                 ; 0x2014 <_ZN12_GLOBAL__N_13putEcP6Status+0x4f>
     34c: b1 12        	lda	($12),y                 ; 0x2012 <_ZN12_GLOBAL__N_13putEcP6Status+0x4d>
     34e: 85 14        	sta	$14                     ; 0x2014 <_ZN12_GLOBAL__N_13putEcP6Status+0x4f>
     350: a9 fe        	lda	#$fe
     352: 32 12        	and	($12)                   ; 0x2012 <_ZN12_GLOBAL__N_13putEcP6Status+0x4d>
     354: 18           	clc
     355: 6d 5f 5e     	adc	$5e5f                   ; 0x5e5f <_ZN12_GLOBAL__N_19free_sizeE>
     358: aa           	tax
     359: a5 14        	lda	$14                     ; 0x2014 <_ZN12_GLOBAL__N_13putEcP6Status+0x4f>
     35b: 6d 60 5e     	adc	$5e60                   ; 0x5e60 <_ZN12_GLOBAL__N_19free_sizeE+0x1>
     35e: a8           	tay
     35f: 18           	clc
     360: 8a           	txa
     361: 69 fe        	adc	#$fe
     363: aa           	tax
     364: 98           	tya
     365: 69 ff        	adc	#$ff
     367: 8e 5f 5e     	stx	$5e5f                   ; 0x5e5f <_ZN12_GLOBAL__N_19free_sizeE>
     36a: 8d 60 5e     	sta	$5e60                   ; 0x5e60 <_ZN12_GLOBAL__N_19free_sizeE+0x1>
     36d: ae 61 5e     	ldx	$5e61                   ; 0x5e61 <_ZN12_GLOBAL__N_19free_listE>
     370: 86 16        	stx	$16                     ; 0x2016 <_ZN12_GLOBAL__N_13putEcP6Status+0x51>
     372: ac 62 5e     	ldy	$5e62                   ; 0x5e62 <_ZN12_GLOBAL__N_19free_listE+0x1>
     375: a2 00        	ldx	#$0
     377: 86 14        	stx	$14                     ; 0x2014 <_ZN12_GLOBAL__N_13putEcP6Status+0x4f>
     379: a2 00        	ldx	#$0
     37b: 86 15        	stx	$15                     ; 0x2015 <_ZN12_GLOBAL__N_13putEcP6Status+0x50>
     37d: c4 15        	cpy	$15                     ; 0x2015 <_ZN12_GLOBAL__N_13putEcP6Status+0x50>
     37f: d0 3e        	bne	$3bf <_ZN12_GLOBAL__N_19FreeChunk6insertEPvj+0xa9>
     381: a6 16        	ldx	$16                     ; 0x2016 <_ZN12_GLOBAL__N_13putEcP6Status+0x51>
     383: e4 14        	cpx	$14                     ; 0x2014 <_ZN12_GLOBAL__N_13putEcP6Status+0x4f>
     385: d0 38        	bne	$3bf <_ZN12_GLOBAL__N_19FreeChunk6insertEPvj+0xa9>
     387: a0 04        	ldy	#$4
     389: a5 12        	lda	$12                     ; 0x2012 <_ZN12_GLOBAL__N_13putEcP6Status+0x4d>
     38b: 18           	clc
     38c: 69 04        	adc	#$4
     38e: 85 14        	sta	$14                     ; 0x2014 <_ZN12_GLOBAL__N_13putEcP6Status+0x4f>
     390: a5 13        	lda	$13                     ; 0x2013 <_ZN12_GLOBAL__N_13putEcP6Status+0x4e>
     392: 69 00        	adc	#$0
     394: 18           	clc
     395: 85 15        	sta	$15                     ; 0x2015 <_ZN12_GLOBAL__N_13putEcP6Status+0x50>
     397: a5 12        	lda	$12                     ; 0x2012 <_ZN12_GLOBAL__N_13putEcP6Status+0x4d>
     399: 91 12        	sta	($12),y                 ; 0x2012 <_ZN12_GLOBAL__N_13putEcP6Status+0x4d>
     39b: a0 02        	ldy	#$2
     39d: 85 17        	sta	$17                     ; 0x2017 <_ZN12_GLOBAL__N_13putEcP6Status+0x52>
     39f: 69 02        	adc	#$2
     3a1: 85 16        	sta	$16                     ; 0x2016 <_ZN12_GLOBAL__N_13putEcP6Status+0x51>
     3a3: a5 17        	lda	$17                     ; 0x2017 <_ZN12_GLOBAL__N_13putEcP6Status+0x52>
     3a5: 91 12        	sta	($12),y                 ; 0x2012 <_ZN12_GLOBAL__N_13putEcP6Status+0x4d>
     3a7: a5 13        	lda	$13                     ; 0x2013 <_ZN12_GLOBAL__N_13putEcP6Status+0x4e>
     3a9: 69 00        	adc	#$0
     3ab: 85 17        	sta	$17                     ; 0x2017 <_ZN12_GLOBAL__N_13putEcP6Status+0x52>
     3ad: 88           	dey
     3ae: a5 13        	lda	$13                     ; 0x2013 <_ZN12_GLOBAL__N_13putEcP6Status+0x4e>
     3b0: 91 14        	sta	($14),y                 ; 0x2014 <_ZN12_GLOBAL__N_13putEcP6Status+0x4f>
     3b2: 91 16        	sta	($16),y                 ; 0x2016 <_ZN12_GLOBAL__N_13putEcP6Status+0x51>
     3b4: a6 12        	ldx	$12                     ; 0x2012 <_ZN12_GLOBAL__N_13putEcP6Status+0x4d>
     3b6: 8e 61 5e     	stx	$5e61                   ; 0x5e61 <_ZN12_GLOBAL__N_19free_listE>
     3b9: a6 13        	ldx	$13                     ; 0x2013 <_ZN12_GLOBAL__N_13putEcP6Status+0x4e>
     3bb: 8e 62 5e     	stx	$5e62                   ; 0x5e62 <_ZN12_GLOBAL__N_19free_listE+0x1>
     3be: 60           	rts
     3bf: a6 12        	ldx	$12                     ; 0x2012 <_ZN12_GLOBAL__N_13putEcP6Status+0x4d>
     3c1: a5 12        	lda	$12                     ; 0x2012 <_ZN12_GLOBAL__N_13putEcP6Status+0x4d>
     3c3: 18           	clc
     3c4: 69 02        	adc	#$2
     3c6: 85 14        	sta	$14                     ; 0x2014 <_ZN12_GLOBAL__N_13putEcP6Status+0x4f>
     3c8: 84 18        	sty	$18                     ; 0x2018 <_ZN12_GLOBAL__N_13putEcP6Status+0x53>
     3ca: a5 13        	lda	$13                     ; 0x2013 <_ZN12_GLOBAL__N_13putEcP6Status+0x4e>
     3cc: 69 00        	adc	#$0
     3ce: 85 15        	sta	$15                     ; 0x2015 <_ZN12_GLOBAL__N_13putEcP6Status+0x50>
     3d0: a5 16        	lda	$16                     ; 0x2016 <_ZN12_GLOBAL__N_13putEcP6Status+0x51>
     3d2: 84 17        	sty	$17                     ; 0x2017 <_ZN12_GLOBAL__N_13putEcP6Status+0x52>
     3d4: a0 02        	ldy	#$2
     3d6: 91 12        	sta	($12),y                 ; 0x2012 <_ZN12_GLOBAL__N_13putEcP6Status+0x4d>
     3d8: 85 19        	sta	$19                     ; 0x2019 <_ZN12_GLOBAL__N_13putEcP6Status+0x54>
     3da: 88           	dey
     3db: a5 18        	lda	$18                     ; 0x2018 <_ZN12_GLOBAL__N_13putEcP6Status+0x53>
     3dd: 91 14        	sta	($14),y                 ; 0x2014 <_ZN12_GLOBAL__N_13putEcP6Status+0x4f>
     3df: 18           	clc
     3e0: a5 19        	lda	$19                     ; 0x2019 <_ZN12_GLOBAL__N_13putEcP6Status+0x54>
     3e2: 69 04        	adc	#$4
     3e4: a8           	tay
     3e5: a5 18        	lda	$18                     ; 0x2018 <_ZN12_GLOBAL__N_13putEcP6Status+0x53>
     3e7: 69 00        	adc	#$0
     3e9: 85 19        	sta	$19                     ; 0x2019 <_ZN12_GLOBAL__N_13putEcP6Status+0x54>
     3eb: 84 18        	sty	$18                     ; 0x2018 <_ZN12_GLOBAL__N_13putEcP6Status+0x53>
     3ed: 8a           	txa
     3ee: 18           	clc
     3ef: 69 04        	adc	#$4
     3f1: 85 1a        	sta	$1a                     ; 0x201a <_ZN12_GLOBAL__N_13putEcP6Status+0x55>
     3f3: a5 13        	lda	$13                     ; 0x2013 <_ZN12_GLOBAL__N_13putEcP6Status+0x4e>
     3f5: 69 00        	adc	#$0
     3f7: 85 1b        	sta	$1b                     ; 0x201b <_ZN12_GLOBAL__N_13putEcP6Status+0x56>
     3f9: a0 04        	ldy	#$4
     3fb: b1 16        	lda	($16),y                 ; 0x2016 <_ZN12_GLOBAL__N_13putEcP6Status+0x51>
     3fd: 85 16        	sta	$16                     ; 0x2016 <_ZN12_GLOBAL__N_13putEcP6Status+0x51>
     3ff: 85 1d        	sta	$1d                     ; 0x201d <_ZN12_GLOBAL__N_13putEcP6Status+0x58>
     401: a0 01        	ldy	#$1
     403: b1 18        	lda	($18),y                 ; 0x2018 <_ZN12_GLOBAL__N_13putEcP6Status+0x53>
     405: 85 17        	sta	$17                     ; 0x2017 <_ZN12_GLOBAL__N_13putEcP6Status+0x52>
     407: 85 19        	sta	$19                     ; 0x2019 <_ZN12_GLOBAL__N_13putEcP6Status+0x54>
     409: a0 04        	ldy	#$4
     40b: a5 1d        	lda	$1d                     ; 0x201d <_ZN12_GLOBAL__N_13putEcP6Status+0x58>
     40d: 91 12        	sta	($12),y                 ; 0x2012 <_ZN12_GLOBAL__N_13putEcP6Status+0x4d>
     40f: a5 19        	lda	$19                     ; 0x2019 <_ZN12_GLOBAL__N_13putEcP6Status+0x54>
     411: a0 01        	ldy	#$1
     413: 91 1a        	sta	($1a),y                 ; 0x201a <_ZN12_GLOBAL__N_13putEcP6Status+0x55>
     415: 18           	clc
     416: a5 1d        	lda	$1d                     ; 0x201d <_ZN12_GLOBAL__N_13putEcP6Status+0x58>
     418: 69 02        	adc	#$2
     41a: 85 18        	sta	$18                     ; 0x2018 <_ZN12_GLOBAL__N_13putEcP6Status+0x53>
     41c: a5 19        	lda	$19                     ; 0x2019 <_ZN12_GLOBAL__N_13putEcP6Status+0x54>
     41e: 69 00        	adc	#$0
     420: 85 19        	sta	$19                     ; 0x2019 <_ZN12_GLOBAL__N_13putEcP6Status+0x54>
     422: 8a           	txa
     423: c8           	iny
     424: 91 16        	sta	($16),y                 ; 0x2016 <_ZN12_GLOBAL__N_13putEcP6Status+0x51>
     426: a5 13        	lda	$13                     ; 0x2013 <_ZN12_GLOBAL__N_13putEcP6Status+0x4e>
     428: 88           	dey
     429: 91 18        	sta	($18),y                 ; 0x2018 <_ZN12_GLOBAL__N_13putEcP6Status+0x53>
     42b: c8           	iny
     42c: b1 12        	lda	($12),y                 ; 0x2012 <_ZN12_GLOBAL__N_13putEcP6Status+0x4d>
     42e: 85 16        	sta	$16                     ; 0x2016 <_ZN12_GLOBAL__N_13putEcP6Status+0x51>
     430: 85 18        	sta	$18                     ; 0x2018 <_ZN12_GLOBAL__N_13putEcP6Status+0x53>
     432: 88           	dey
     433: b1 14        	lda	($14),y                 ; 0x2014 <_ZN12_GLOBAL__N_13putEcP6Status+0x4f>
     435: 85 17        	sta	$17                     ; 0x2017 <_ZN12_GLOBAL__N_13putEcP6Status+0x52>
     437: 85 14        	sta	$14                     ; 0x2014 <_ZN12_GLOBAL__N_13putEcP6Status+0x4f>
     439: 8a           	txa
     43a: a0 04        	ldy	#$4
     43c: 91 16        	sta	($16),y                 ; 0x2016 <_ZN12_GLOBAL__N_13putEcP6Status+0x51>
     43e: 18           	clc
     43f: a5 18        	lda	$18                     ; 0x2018 <_ZN12_GLOBAL__N_13putEcP6Status+0x53>
     441: 69 04        	adc	#$4
     443: a8           	tay
     444: a5 14        	lda	$14                     ; 0x2014 <_ZN12_GLOBAL__N_13putEcP6Status+0x4f>
     446: 69 00        	adc	#$0
     448: 84 14        	sty	$14                     ; 0x2014 <_ZN12_GLOBAL__N_13putEcP6Status+0x4f>
     44a: 85 15        	sta	$15                     ; 0x2015 <_ZN12_GLOBAL__N_13putEcP6Status+0x50>
     44c: a5 13        	lda	$13                     ; 0x2013 <_ZN12_GLOBAL__N_13putEcP6Status+0x4e>
     44e: a0 01        	ldy	#$1
     450: 91 14        	sta	($14),y                 ; 0x2014 <_ZN12_GLOBAL__N_13putEcP6Status+0x4f>
     452: 60           	rts
     453: 00           	brk

00000454 <_ZN12_GLOBAL__N_19FreeChunk6removeEv>:
     454: a0 01        	ldy	#$1
     456: a9 fe        	lda	#$fe
     458: 32 12        	and	($12)                   ; 0x2012 <_ZN12_GLOBAL__N_13putEcP6Status+0x4d>
     45a: 85 14        	sta	$14                     ; 0x2014 <_ZN12_GLOBAL__N_13putEcP6Status+0x4f>
     45c: ad 5f 5e     	lda	$5e5f                   ; 0x5e5f <_ZN12_GLOBAL__N_19free_sizeE>
     45f: ae 60 5e     	ldx	$5e60                   ; 0x5e60 <_ZN12_GLOBAL__N_19free_sizeE+0x1>
     462: 86 15        	stx	$15                     ; 0x2015 <_ZN12_GLOBAL__N_13putEcP6Status+0x50>
     464: 38           	sec
     465: e5 14        	sbc	$14                     ; 0x2014 <_ZN12_GLOBAL__N_13putEcP6Status+0x4f>
     467: aa           	tax
     468: a5 15        	lda	$15                     ; 0x2015 <_ZN12_GLOBAL__N_13putEcP6Status+0x50>
     46a: f1 12        	sbc	($12),y                 ; 0x2012 <_ZN12_GLOBAL__N_13putEcP6Status+0x4d>
     46c: 85 14        	sta	$14                     ; 0x2014 <_ZN12_GLOBAL__N_13putEcP6Status+0x4f>
     46e: 18           	clc
     46f: 8a           	txa
     470: 69 02        	adc	#$2
     472: 85 15        	sta	$15                     ; 0x2015 <_ZN12_GLOBAL__N_13putEcP6Status+0x50>
     474: a5 14        	lda	$14                     ; 0x2014 <_ZN12_GLOBAL__N_13putEcP6Status+0x4f>
     476: 69 00        	adc	#$0
     478: a6 15        	ldx	$15                     ; 0x2015 <_ZN12_GLOBAL__N_13putEcP6Status+0x50>
     47a: 8e 5f 5e     	stx	$5e5f                   ; 0x5e5f <_ZN12_GLOBAL__N_19free_sizeE>
     47d: 8d 60 5e     	sta	$5e60                   ; 0x5e60 <_ZN12_GLOBAL__N_19free_sizeE+0x1>
     480: a5 12        	lda	$12                     ; 0x2012 <_ZN12_GLOBAL__N_13putEcP6Status+0x4d>
     482: 18           	clc
     483: 69 02        	adc	#$2
     485: 85 14        	sta	$14                     ; 0x2014 <_ZN12_GLOBAL__N_13putEcP6Status+0x4f>
     487: a5 13        	lda	$13                     ; 0x2013 <_ZN12_GLOBAL__N_13putEcP6Status+0x4e>
     489: 69 00        	adc	#$0
     48b: c8           	iny
     48c: 85 15        	sta	$15                     ; 0x2015 <_ZN12_GLOBAL__N_13putEcP6Status+0x50>
     48e: b1 12        	lda	($12),y                 ; 0x2012 <_ZN12_GLOBAL__N_13putEcP6Status+0x4d>
     490: aa           	tax
     491: 88           	dey
     492: b1 14        	lda	($14),y                 ; 0x2014 <_ZN12_GLOBAL__N_13putEcP6Status+0x4f>
     494: 85 19        	sta	$19                     ; 0x2019 <_ZN12_GLOBAL__N_13putEcP6Status+0x54>
     496: c5 13        	cmp	$13                     ; 0x2013 <_ZN12_GLOBAL__N_13putEcP6Status+0x4e>
     498: d0 0f        	bne	$4a9 <_ZN12_GLOBAL__N_19FreeChunk6removeEv+0x55>
     49a: e4 12        	cpx	$12                     ; 0x2012 <_ZN12_GLOBAL__N_13putEcP6Status+0x4d>
     49c: d0 0b        	bne	$4a9 <_ZN12_GLOBAL__N_19FreeChunk6removeEv+0x55>
     49e: a2 00        	ldx	#$0
     4a0: 86 14        	stx	$14                     ; 0x2014 <_ZN12_GLOBAL__N_13putEcP6Status+0x4f>
     4a2: a2 00        	ldx	#$0
     4a4: 86 15        	stx	$15                     ; 0x2015 <_ZN12_GLOBAL__N_13putEcP6Status+0x50>
     4a6: 4c 28 05     	jmp	$528 <_ZN12_GLOBAL__N_19FreeChunk6removeEv+0xd4>
     4a9: 86 18        	stx	$18                     ; 0x2018 <_ZN12_GLOBAL__N_13putEcP6Status+0x53>
     4ab: a6 12        	ldx	$12                     ; 0x2012 <_ZN12_GLOBAL__N_13putEcP6Status+0x4d>
     4ad: a5 12        	lda	$12                     ; 0x2012 <_ZN12_GLOBAL__N_13putEcP6Status+0x4d>
     4af: 86 1b        	stx	$1b                     ; 0x201b <_ZN12_GLOBAL__N_13putEcP6Status+0x56>
     4b1: 18           	clc
     4b2: 69 04        	adc	#$4
     4b4: 85 14        	sta	$14                     ; 0x2014 <_ZN12_GLOBAL__N_13putEcP6Status+0x4f>
     4b6: a5 13        	lda	$13                     ; 0x2013 <_ZN12_GLOBAL__N_13putEcP6Status+0x4e>
     4b8: 69 00        	adc	#$0
     4ba: a0 04        	ldy	#$4
     4bc: 85 15        	sta	$15                     ; 0x2015 <_ZN12_GLOBAL__N_13putEcP6Status+0x50>
     4be: b1 12        	lda	($12),y                 ; 0x2012 <_ZN12_GLOBAL__N_13putEcP6Status+0x4d>
     4c0: 85 1c        	sta	$1c                     ; 0x201c <_ZN12_GLOBAL__N_13putEcP6Status+0x57>
     4c2: 18           	clc
     4c3: 69 02        	adc	#$2
     4c5: 85 16        	sta	$16                     ; 0x2016 <_ZN12_GLOBAL__N_13putEcP6Status+0x51>
     4c7: a0 01        	ldy	#$1
     4c9: b1 14        	lda	($14),y                 ; 0x2014 <_ZN12_GLOBAL__N_13putEcP6Status+0x4f>
     4cb: aa           	tax
     4cc: 69 00        	adc	#$0
     4ce: a4 16        	ldy	$16                     ; 0x2016 <_ZN12_GLOBAL__N_13putEcP6Status+0x51>
     4d0: 84 14        	sty	$14                     ; 0x2014 <_ZN12_GLOBAL__N_13putEcP6Status+0x4f>
     4d2: 85 15        	sta	$15                     ; 0x2015 <_ZN12_GLOBAL__N_13putEcP6Status+0x50>
     4d4: a4 1c        	ldy	$1c                     ; 0x201c <_ZN12_GLOBAL__N_13putEcP6Status+0x57>
     4d6: 84 16        	sty	$16                     ; 0x2016 <_ZN12_GLOBAL__N_13putEcP6Status+0x51>
     4d8: 86 17        	stx	$17                     ; 0x2017 <_ZN12_GLOBAL__N_13putEcP6Status+0x52>
     4da: a0 02        	ldy	#$2
     4dc: a5 18        	lda	$18                     ; 0x2018 <_ZN12_GLOBAL__N_13putEcP6Status+0x53>
     4de: 91 16        	sta	($16),y                 ; 0x2016 <_ZN12_GLOBAL__N_13putEcP6Status+0x51>
     4e0: a5 19        	lda	$19                     ; 0x2019 <_ZN12_GLOBAL__N_13putEcP6Status+0x54>
     4e2: 88           	dey
     4e3: 91 14        	sta	($14),y                 ; 0x2014 <_ZN12_GLOBAL__N_13putEcP6Status+0x4f>
     4e5: 18           	clc
     4e6: a5 1b        	lda	$1b                     ; 0x201b <_ZN12_GLOBAL__N_13putEcP6Status+0x56>
     4e8: 69 02        	adc	#$2
     4ea: 85 14        	sta	$14                     ; 0x2014 <_ZN12_GLOBAL__N_13putEcP6Status+0x4f>
     4ec: a5 13        	lda	$13                     ; 0x2013 <_ZN12_GLOBAL__N_13putEcP6Status+0x4e>
     4ee: 69 00        	adc	#$0
     4f0: 85 15        	sta	$15                     ; 0x2015 <_ZN12_GLOBAL__N_13putEcP6Status+0x50>
     4f2: c8           	iny
     4f3: b1 12        	lda	($12),y                 ; 0x2012 <_ZN12_GLOBAL__N_13putEcP6Status+0x4d>
     4f5: 85 16        	sta	$16                     ; 0x2016 <_ZN12_GLOBAL__N_13putEcP6Status+0x51>
     4f7: 88           	dey
     4f8: b1 14        	lda	($14),y                 ; 0x2014 <_ZN12_GLOBAL__N_13putEcP6Status+0x4f>
     4fa: a4 16        	ldy	$16                     ; 0x2016 <_ZN12_GLOBAL__N_13putEcP6Status+0x51>
     4fc: 84 14        	sty	$14                     ; 0x2014 <_ZN12_GLOBAL__N_13putEcP6Status+0x4f>
     4fe: 85 15        	sta	$15                     ; 0x2015 <_ZN12_GLOBAL__N_13putEcP6Status+0x50>
     500: 85 17        	sta	$17                     ; 0x2017 <_ZN12_GLOBAL__N_13putEcP6Status+0x52>
     502: a0 04        	ldy	#$4
     504: a5 1c        	lda	$1c                     ; 0x201c <_ZN12_GLOBAL__N_13putEcP6Status+0x57>
     506: 91 14        	sta	($14),y                 ; 0x2014 <_ZN12_GLOBAL__N_13putEcP6Status+0x4f>
     508: 18           	clc
     509: a5 16        	lda	$16                     ; 0x2016 <_ZN12_GLOBAL__N_13putEcP6Status+0x51>
     50b: 69 04        	adc	#$4
     50d: 85 16        	sta	$16                     ; 0x2016 <_ZN12_GLOBAL__N_13putEcP6Status+0x51>
     50f: a5 17        	lda	$17                     ; 0x2017 <_ZN12_GLOBAL__N_13putEcP6Status+0x52>
     511: 69 00        	adc	#$0
     513: 85 17        	sta	$17                     ; 0x2017 <_ZN12_GLOBAL__N_13putEcP6Status+0x52>
     515: 8a           	txa
     516: a0 01        	ldy	#$1
     518: 91 16        	sta	($16),y                 ; 0x2016 <_ZN12_GLOBAL__N_13putEcP6Status+0x51>
     51a: ae 62 5e     	ldx	$5e62                   ; 0x5e62 <_ZN12_GLOBAL__N_19free_listE+0x1>
     51d: e4 13        	cpx	$13                     ; 0x2013 <_ZN12_GLOBAL__N_13putEcP6Status+0x4e>
     51f: d0 11        	bne	$532 <_ZN12_GLOBAL__N_19FreeChunk6removeEv+0xde>
     521: ae 61 5e     	ldx	$5e61                   ; 0x5e61 <_ZN12_GLOBAL__N_19free_listE>
     524: e4 12        	cpx	$12                     ; 0x2012 <_ZN12_GLOBAL__N_13putEcP6Status+0x4d>
     526: d0 0a        	bne	$532 <_ZN12_GLOBAL__N_19FreeChunk6removeEv+0xde>
     528: a6 14        	ldx	$14                     ; 0x2014 <_ZN12_GLOBAL__N_13putEcP6Status+0x4f>
     52a: a4 15        	ldy	$15                     ; 0x2015 <_ZN12_GLOBAL__N_13putEcP6Status+0x50>
     52c: 8e 61 5e     	stx	$5e61                   ; 0x5e61 <_ZN12_GLOBAL__N_19free_listE>
     52f: 8c 62 5e     	sty	$5e62                   ; 0x5e62 <_ZN12_GLOBAL__N_19free_listE+0x1>
     532: 60           	rts

00000533 <__zero_bss>:
     533: a2 0c        	ldx	#$c
     535: a0 00        	ldy	#$0
     537: a9 57        	lda	#$57
     539: 85 12        	sta	$12                     ; 0x2012 <_ZN12_GLOBAL__N_13putEcP6Status+0x4d>
     53b: a9 5e        	lda	#$5e
     53d: 85 13        	sta	$13                     ; 0x2013 <_ZN12_GLOBAL__N_13putEcP6Status+0x4e>
     53f: a9 00        	lda	#$0
     541: 84 14        	sty	$14                     ; 0x2014 <_ZN12_GLOBAL__N_13putEcP6Status+0x4f>
     543: 4c 1e 30     	jmp	$301e <__memset>

00000546 <__zero_zp_bss>:
     546: a2 0d        	ldx	#$d
     548: a0 00        	ldy	#$0
     54a: a9 30        	lda	#$30
     54c: 85 12        	sta	$12                     ; 0x2012 <_ZN12_GLOBAL__N_13putEcP6Status+0x4d>
     54e: a9 00        	lda	#$0
     550: 85 13        	sta	$13                     ; 0x2013 <_ZN12_GLOBAL__N_13putEcP6Status+0x4e>
     552: a9 00        	lda	#$0
     554: 84 14        	sty	$14                     ; 0x2014 <_ZN12_GLOBAL__N_13putEcP6Status+0x4f>
     556: 4c 1e 30     	jmp	$301e <__memset>

00000559 <main>:
     559: 18           	clc
     55a: a5 10        	lda	$10                     ; 0x2010 <_ZN12_GLOBAL__N_13putEcP6Status+0x4b>
     55c: 69 67        	adc	#$67
     55e: 85 10        	sta	$10                     ; 0x2010 <_ZN12_GLOBAL__N_13putEcP6Status+0x4b>
     560: a5 11        	lda	$11                     ; 0x2011 <_ZN12_GLOBAL__N_13putEcP6Status+0x4c>
     562: 69 df        	adc	#$df
     564: 85 11        	sta	$11                     ; 0x2011 <_ZN12_GLOBAL__N_13putEcP6Status+0x4c>
     566: a6 24        	ldx	$24                     ; 0x2024 <_ZN12_GLOBAL__N_13putEcP6Status+0x5f>
     568: da           	phx
     569: a6 25        	ldx	$25                     ; 0x2025 <_ZN12_GLOBAL__N_13putEcP6Status+0x60>
     56b: da           	phx
     56c: a6 26        	ldx	$26                     ; 0x2026 <_ZN12_GLOBAL__N_13putEcP6Status+0x61>
     56e: da           	phx
     56f: a6 27        	ldx	$27                     ; 0x2027 <_ZN12_GLOBAL__N_13putEcP6Status+0x62>
     571: da           	phx
     572: a5 28        	lda	$28                     ; 0x2028 <_ZN12_GLOBAL__N_13putEcP6Status+0x63>
     574: a0 09        	ldy	#$9
     576: 91 10        	sta	($10),y                 ; 0x2010 <_ZN12_GLOBAL__N_13putEcP6Status+0x4b>
     578: a5 29        	lda	$29                     ; 0x2029 <_ZN12_GLOBAL__N_13putEcP6Status+0x64>
     57a: 88           	dey
     57b: 91 10        	sta	($10),y                 ; 0x2010 <_ZN12_GLOBAL__N_13putEcP6Status+0x4b>
     57d: a5 2a        	lda	$2a                     ; 0x202a <_ZN12_GLOBAL__N_13putEcP6Status+0x65>
     57f: 88           	dey
     580: 91 10        	sta	($10),y                 ; 0x2010 <_ZN12_GLOBAL__N_13putEcP6Status+0x4b>
     582: a5 2b        	lda	$2b                     ; 0x202b <_ZN12_GLOBAL__N_13putEcP6Status+0x66>
     584: 88           	dey
     585: 91 10        	sta	($10),y                 ; 0x2010 <_ZN12_GLOBAL__N_13putEcP6Status+0x4b>
     587: a5 2c        	lda	$2c                     ; 0x202c <_ZN12_GLOBAL__N_13putEcP6Status+0x67>
     589: 88           	dey
     58a: 91 10        	sta	($10),y                 ; 0x2010 <_ZN12_GLOBAL__N_13putEcP6Status+0x4b>
     58c: a5 2d        	lda	$2d                     ; 0x202d <_ZN12_GLOBAL__N_13putEcP6Status+0x68>
     58e: 88           	dey
     58f: 91 10        	sta	($10),y                 ; 0x2010 <_ZN12_GLOBAL__N_13putEcP6Status+0x4b>
     591: a5 2e        	lda	$2e                     ; 0x202e <_ZN12_GLOBAL__N_13putEcP6Status+0x69>
     593: 88           	dey
     594: 91 10        	sta	($10),y                 ; 0x2010 <_ZN12_GLOBAL__N_13putEcP6Status+0x4b>
     596: a5 2f        	lda	$2f                     ; 0x202f <_ZN12_GLOBAL__N_13putEcP6Status+0x6a>
     598: 88           	dey
     599: 91 10        	sta	($10),y                 ; 0x2010 <_ZN12_GLOBAL__N_13putEcP6Status+0x4b>
     59b: 64 28        	stz	$28                     ; 0x2028 <_ZN12_GLOBAL__N_13putEcP6Status+0x63>
     59d: a2 00        	ldx	#$0
     59f: 86 12        	stx	$12                     ; 0x2012 <_ZN12_GLOBAL__N_13putEcP6Status+0x4d>
     5a1: a2 c0        	ldx	#$c0
     5a3: 86 13        	stx	$13                     ; 0x2013 <_ZN12_GLOBAL__N_13putEcP6Status+0x4e>
     5a5: 64 01        	stz	$1                      ; 0x2001 <_ZN12_GLOBAL__N_13putEcP6Status+0x3c>
     5a7: a2 3f        	ldx	#$3f
     5a9: 8e 00 d0     	stx	$d000                   ; 0xd000 <__heap_start+0x719c>
     5ac: a2 b3        	ldx	#$b3
     5ae: 86 00        	stx	$0                      ; 0x2000 <_ZN12_GLOBAL__N_13putEcP6Status+0x3b>
     5b0: 64 08        	stz	$8                      ; 0x2008 <_ZN12_GLOBAL__N_13putEcP6Status+0x43>
     5b2: a2 01        	ldx	#$1
     5b4: 86 09        	stx	$9                      ; 0x2009 <_ZN12_GLOBAL__N_13putEcP6Status+0x44>
     5b6: e8           	inx
     5b7: 86 0a        	stx	$a                      ; 0x200a <_ZN12_GLOBAL__N_13putEcP6Status+0x45>
     5b9: e8           	inx
     5ba: 86 0b        	stx	$b                      ; 0x200b <_ZN12_GLOBAL__N_13putEcP6Status+0x46>
     5bc: e8           	inx
     5bd: 86 0c        	stx	$c                      ; 0x200c <_ZN12_GLOBAL__N_13putEcP6Status+0x47>
     5bf: e8           	inx
     5c0: 86 0d        	stx	$d                      ; 0x200d <_ZN12_GLOBAL__N_13putEcP6Status+0x48>
     5c2: a2 36        	ldx	#$36
     5c4: a0 00        	ldy	#$0
     5c6: 86 f0        	stx	$f0                     ; 0x20f0 <_ZN12_GLOBAL__N_112print_stringEPKcP6Status+0x50>
     5c8: 84 f1        	sty	$f1                     ; 0x20f1 <_ZN12_GLOBAL__N_112print_stringEPKcP6Status+0x51>
     5ca: a2 00        	ldx	#$0
     5cc: 86 16        	stx	$16                     ; 0x2016 <_ZN12_GLOBAL__N_13putEcP6Status+0x51>
     5ce: ca           	dex
     5cf: 86 17        	stx	$17                     ; 0x2017 <_ZN12_GLOBAL__N_13putEcP6Status+0x52>
     5d1: 8a           	txa
     5d2: 0a           	asl
     5d3: 0a           	asl
     5d4: 18           	clc
     5d5: 69 d4        	adc	#$d4
     5d7: 85 18        	sta	$18                     ; 0x2018 <_ZN12_GLOBAL__N_13putEcP6Status+0x53>
     5d9: a0 00        	ldy	#$0
     5db: 64 1c        	stz	$1c                     ; 0x201c <_ZN12_GLOBAL__N_13putEcP6Status+0x57>
     5dd: 64 15        	stz	$15                     ; 0x2015 <_ZN12_GLOBAL__N_13putEcP6Status+0x50>
     5df: a6 17        	ldx	$17                     ; 0x2017 <_ZN12_GLOBAL__N_13putEcP6Status+0x52>
     5e1: e0 03        	cpx	#$3
     5e3: a6 01        	ldx	$1                      ; 0x2001 <_ZN12_GLOBAL__N_13putEcP6Status+0x3c>
     5e5: 86 1a        	stx	$1a                     ; 0x201a <_ZN12_GLOBAL__N_13putEcP6Status+0x55>
     5e7: a2 d0        	ldx	#$d0
     5e9: 84 19        	sty	$19                     ; 0x2019 <_ZN12_GLOBAL__N_13putEcP6Status+0x54>
     5eb: b0 02        	bcs	$5ef <main+0x96>
     5ed: a6 18        	ldx	$18                     ; 0x2018 <_ZN12_GLOBAL__N_13putEcP6Status+0x53>
     5ef: 86 14        	stx	$14                     ; 0x2014 <_ZN12_GLOBAL__N_13putEcP6Status+0x4f>
     5f1: a5 1c        	lda	$1c                     ; 0x201c <_ZN12_GLOBAL__N_13putEcP6Status+0x57>
     5f3: 18           	clc
     5f4: 65 28        	adc	$28                     ; 0x2028 <_ZN12_GLOBAL__N_13putEcP6Status+0x63>
     5f6: a8           	tay
     5f7: a6 15        	ldx	$15                     ; 0x2015 <_ZN12_GLOBAL__N_13putEcP6Status+0x50>
     5f9: 86 1b        	stx	$1b                     ; 0x201b <_ZN12_GLOBAL__N_13putEcP6Status+0x56>
     5fb: a5 15        	lda	$15                     ; 0x2015 <_ZN12_GLOBAL__N_13putEcP6Status+0x50>
     5fd: 65 14        	adc	$14                     ; 0x2014 <_ZN12_GLOBAL__N_13putEcP6Status+0x4f>
     5ff: 84 14        	sty	$14                     ; 0x2014 <_ZN12_GLOBAL__N_13putEcP6Status+0x4f>
     601: a0 01        	ldy	#$1
     603: 84 01        	sty	$1                      ; 0x2001 <_ZN12_GLOBAL__N_13putEcP6Status+0x3c>
     605: 85 15        	sta	$15                     ; 0x2015 <_ZN12_GLOBAL__N_13putEcP6Status+0x50>
     607: a5 19        	lda	$19                     ; 0x2019 <_ZN12_GLOBAL__N_13putEcP6Status+0x54>
     609: 92 14        	sta	($14)                   ; 0x2014 <_ZN12_GLOBAL__N_13putEcP6Status+0x4f>
     60b: 91 14        	sta	($14),y                 ; 0x2014 <_ZN12_GLOBAL__N_13putEcP6Status+0x4f>
     60d: c8           	iny
     60e: 91 14        	sta	($14),y                 ; 0x2014 <_ZN12_GLOBAL__N_13putEcP6Status+0x4f>
     610: c8           	iny
     611: a9 ff        	lda	#$ff
     613: 91 14        	sta	($14),y                 ; 0x2014 <_ZN12_GLOBAL__N_13putEcP6Status+0x4f>
     615: a5 1c        	lda	$1c                     ; 0x201c <_ZN12_GLOBAL__N_13putEcP6Status+0x57>
     617: a6 1a        	ldx	$1a                     ; 0x201a <_ZN12_GLOBAL__N_13putEcP6Status+0x55>
     619: 86 01        	stx	$1                      ; 0x2001 <_ZN12_GLOBAL__N_13putEcP6Status+0x3c>
     61b: 18           	clc
     61c: 69 04        	adc	#$4
     61e: 85 1c        	sta	$1c                     ; 0x201c <_ZN12_GLOBAL__N_13putEcP6Status+0x57>
     620: a5 1b        	lda	$1b                     ; 0x201b <_ZN12_GLOBAL__N_13putEcP6Status+0x56>
     622: 69 00        	adc	#$0
     624: e6 19        	inc	$19                     ; 0x2019 <_ZN12_GLOBAL__N_13putEcP6Status+0x54>
     626: a4 19        	ldy	$19                     ; 0x2019 <_ZN12_GLOBAL__N_13putEcP6Status+0x54>
     628: 85 15        	sta	$15                     ; 0x2015 <_ZN12_GLOBAL__N_13putEcP6Status+0x50>
     62a: c9 04        	cmp	#$4
     62c: d0 b1        	bne	$5df <main+0x86>
     62e: a5 1c        	lda	$1c                     ; 0x201c <_ZN12_GLOBAL__N_13putEcP6Status+0x57>
     630: f0 03        	beq	$635 <main+0xdc>
     632: 4c df 05     	jmp	$5df <main+0x86>
     635: a6 16        	ldx	$16                     ; 0x2016 <_ZN12_GLOBAL__N_13putEcP6Status+0x51>
     637: e8           	inx
     638: e0 04        	cpx	#$4
     63a: f0 03        	beq	$63f <main+0xe6>
     63c: 4c cc 05     	jmp	$5cc <main+0x73>
     63f: ad 02 d0     	lda	$d002                   ; 0xd002 <__heap_start+0x719e>
     642: 29 f0        	and	#$f0
     644: 8d 02 d0     	sta	$d002                   ; 0xd002 <__heap_start+0x719e>
     647: ad 02 d0     	lda	$d002                   ; 0xd002 <__heap_start+0x719e>
     64a: 29 0f        	and	#$f
     64c: 09 10        	ora	#$10
     64e: 8d 02 d0     	sta	$d002                   ; 0xd002 <__heap_start+0x719e>
     651: a2 02        	ldx	#$2
     653: 8e 03 d0     	stx	$d003                   ; 0xd003 <__heap_start+0x719f>
     656: 64 30        	stz	$30                     ; 0x2030 <_ZN12_GLOBAL__N_13putEcP6Status+0x6b>
     658: ad 01 d0     	lda	$d001                   ; 0xd001 <__heap_start+0x719d>
     65b: 29 f9        	and	#$f9
     65d: 09 04        	ora	#$4
     65f: 8d 01 d0     	sta	$d001                   ; 0xd001 <__heap_start+0x719d>
     662: 64 14        	stz	$14                     ; 0x2014 <_ZN12_GLOBAL__N_13putEcP6Status+0x4f>
     664: 9c 10 d0     	stz	$d010                   ; 0xd010 <__heap_start+0x71ac>
     667: a2 00        	ldx	#$0
     669: 64 15        	stz	$15                     ; 0x2015 <_ZN12_GLOBAL__N_13putEcP6Status+0x50>
     66b: 86 18        	stx	$18                     ; 0x2018 <_ZN12_GLOBAL__N_13putEcP6Status+0x53>
     66d: a4 18        	ldy	$18                     ; 0x2018 <_ZN12_GLOBAL__N_13putEcP6Status+0x53>
     66f: be 79 30     	ldx	$3079,y                 ; 0x3079 <textColors>
     672: 86 19        	stx	$19                     ; 0x2019 <_ZN12_GLOBAL__N_13putEcP6Status+0x54>
     674: be 7a 30     	ldx	$307a,y                 ; 0x307a <textColors+0x1>
     677: 86 1a        	stx	$1a                     ; 0x201a <_ZN12_GLOBAL__N_13putEcP6Status+0x55>
     679: be 7b 30     	ldx	$307b,y                 ; 0x307b <textColors+0x2>
     67c: 86 1b        	stx	$1b                     ; 0x201b <_ZN12_GLOBAL__N_13putEcP6Status+0x56>
     67e: a6 15        	ldx	$15                     ; 0x2015 <_ZN12_GLOBAL__N_13putEcP6Status+0x50>
     680: 8e 00 de     	stx	$de00                   ; 0xde00 <__heap_start+0x7f9c>
     683: 86 17        	stx	$17                     ; 0x2017 <_ZN12_GLOBAL__N_13putEcP6Status+0x52>
     685: 9c 01 de     	stz	$de01                   ; 0xde01 <__heap_start+0x7f9d>
     688: a2 04        	ldx	#$4
     68a: 8e 02 de     	stx	$de02                   ; 0xde02 <__heap_start+0x7f9e>
     68d: 9c 03 de     	stz	$de03                   ; 0xde03 <__heap_start+0x7f9f>
     690: ad 10 de     	lda	$de10                   ; 0xde10 <__heap_start+0x7fac>
     693: ac 11 de     	ldy	$de11                   ; 0xde11 <__heap_start+0x7fad>
     696: 84 15        	sty	$15                     ; 0x2015 <_ZN12_GLOBAL__N_13putEcP6Status+0x50>
     698: ac 12 de     	ldy	$de12                   ; 0xde12 <__heap_start+0x7fae>
     69b: ac 13 de     	ldy	$de13                   ; 0xde13 <__heap_start+0x7faf>
     69e: 18           	clc
     69f: 65 14        	adc	$14                     ; 0x2014 <_ZN12_GLOBAL__N_13putEcP6Status+0x4f>
     6a1: 85 16        	sta	$16                     ; 0x2016 <_ZN12_GLOBAL__N_13putEcP6Status+0x51>
     6a3: a6 17        	ldx	$17                     ; 0x2017 <_ZN12_GLOBAL__N_13putEcP6Status+0x52>
     6a5: a9 d8        	lda	#$d8
     6a7: 65 15        	adc	$15                     ; 0x2015 <_ZN12_GLOBAL__N_13putEcP6Status+0x50>
     6a9: 85 17        	sta	$17                     ; 0x2017 <_ZN12_GLOBAL__N_13putEcP6Status+0x52>
     6ab: a5 1b        	lda	$1b                     ; 0x201b <_ZN12_GLOBAL__N_13putEcP6Status+0x56>
     6ad: 92 16        	sta	($16)                   ; 0x2016 <_ZN12_GLOBAL__N_13putEcP6Status+0x51>
     6af: a0 01        	ldy	#$1
     6b1: a5 1a        	lda	$1a                     ; 0x201a <_ZN12_GLOBAL__N_13putEcP6Status+0x55>
     6b3: 91 16        	sta	($16),y                 ; 0x2016 <_ZN12_GLOBAL__N_13putEcP6Status+0x51>
     6b5: c8           	iny
     6b6: a5 19        	lda	$19                     ; 0x2019 <_ZN12_GLOBAL__N_13putEcP6Status+0x54>
     6b8: 91 16        	sta	($16),y                 ; 0x2016 <_ZN12_GLOBAL__N_13putEcP6Status+0x51>
     6ba: c8           	iny
     6bb: a9 ff        	lda	#$ff
     6bd: 91 16        	sta	($16),y                 ; 0x2016 <_ZN12_GLOBAL__N_13putEcP6Status+0x51>
     6bf: 8e 00 de     	stx	$de00                   ; 0xde00 <__heap_start+0x7f9c>
     6c2: 9c 01 de     	stz	$de01                   ; 0xde01 <__heap_start+0x7f9d>
     6c5: c8           	iny
     6c6: 8c 02 de     	sty	$de02                   ; 0xde02 <__heap_start+0x7f9e>
     6c9: 9c 03 de     	stz	$de03                   ; 0xde03 <__heap_start+0x7f9f>
     6cc: ad 10 de     	lda	$de10                   ; 0xde10 <__heap_start+0x7fac>
     6cf: 85 15        	sta	$15                     ; 0x2015 <_ZN12_GLOBAL__N_13putEcP6Status+0x50>
     6d1: ad 11 de     	lda	$de11                   ; 0xde11 <__heap_start+0x7fad>
     6d4: 85 16        	sta	$16                     ; 0x2016 <_ZN12_GLOBAL__N_13putEcP6Status+0x51>
     6d6: a9 40        	lda	#$40
     6d8: 18           	clc
     6d9: 65 15        	adc	$15                     ; 0x2015 <_ZN12_GLOBAL__N_13putEcP6Status+0x50>
     6db: a8           	tay
     6dc: a9 d8        	lda	#$d8
     6de: 65 16        	adc	$16                     ; 0x2016 <_ZN12_GLOBAL__N_13putEcP6Status+0x51>
     6e0: 85 17        	sta	$17                     ; 0x2017 <_ZN12_GLOBAL__N_13putEcP6Status+0x52>
     6e2: 84 16        	sty	$16                     ; 0x2016 <_ZN12_GLOBAL__N_13putEcP6Status+0x51>
     6e4: ad 12 de     	lda	$de12                   ; 0xde12 <__heap_start+0x7fae>
     6e7: ad 13 de     	lda	$de13                   ; 0xde13 <__heap_start+0x7faf>
     6ea: a5 1b        	lda	$1b                     ; 0x201b <_ZN12_GLOBAL__N_13putEcP6Status+0x56>
     6ec: 92 16        	sta	($16)                   ; 0x2016 <_ZN12_GLOBAL__N_13putEcP6Status+0x51>
     6ee: a5 1a        	lda	$1a                     ; 0x201a <_ZN12_GLOBAL__N_13putEcP6Status+0x55>
     6f0: a0 01        	ldy	#$1
     6f2: 91 16        	sta	($16),y                 ; 0x2016 <_ZN12_GLOBAL__N_13putEcP6Status+0x51>
     6f4: a5 19        	lda	$19                     ; 0x2019 <_ZN12_GLOBAL__N_13putEcP6Status+0x54>
     6f6: c8           	iny
     6f7: 91 16        	sta	($16),y                 ; 0x2016 <_ZN12_GLOBAL__N_13putEcP6Status+0x51>
     6f9: c8           	iny
     6fa: a9 ff        	lda	#$ff
     6fc: 91 16        	sta	($16),y                 ; 0x2016 <_ZN12_GLOBAL__N_13putEcP6Status+0x51>
     6fe: e8           	inx
     6ff: 86 15        	stx	$15                     ; 0x2015 <_ZN12_GLOBAL__N_13putEcP6Status+0x50>
     701: 18           	clc
     702: a5 18        	lda	$18                     ; 0x2018 <_ZN12_GLOBAL__N_13putEcP6Status+0x53>
     704: 69 03        	adc	#$3
     706: aa           	tax
     707: c9 30        	cmp	#$30
     709: f0 03        	beq	$70e <main+0x1b5>
     70b: 4c 6b 06     	jmp	$66b <main+0x112>
     70e: a6 01        	ldx	$1                      ; 0x2001 <_ZN12_GLOBAL__N_13putEcP6Status+0x3c>
     710: 86 18        	stx	$18                     ; 0x2018 <_ZN12_GLOBAL__N_13putEcP6Status+0x53>
     712: a2 50        	ldx	#$50
     714: 8e 00 de     	stx	$de00                   ; 0xde00 <__heap_start+0x7f9c>
     717: 9c 01 de     	stz	$de01                   ; 0xde01 <__heap_start+0x7f9d>
     71a: a2 1e        	ldx	#$1e
     71c: 8e 02 de     	stx	$de02                   ; 0xde02 <__heap_start+0x7f9e>
     71f: 9c 03 de     	stz	$de03                   ; 0xde03 <__heap_start+0x7f9f>
     722: ae 10 de     	ldx	$de10                   ; 0xde10 <__heap_start+0x7fac>
     725: ac 11 de     	ldy	$de11                   ; 0xde11 <__heap_start+0x7fad>
     728: ad 12 de     	lda	$de12                   ; 0xde12 <__heap_start+0x7fae>
     72b: ad 13 de     	lda	$de13                   ; 0xde13 <__heap_start+0x7faf>
     72e: a9 02        	lda	#$2
     730: 85 01        	sta	$1                      ; 0x2001 <_ZN12_GLOBAL__N_13putEcP6Status+0x3c>
     732: e0 01        	cpx	#$1
     734: 98           	tya
     735: e9 00        	sbc	#$0
     737: 50 02        	bvc	$73b <main+0x1e2>
     739: 49 80        	eor	#$80
     73b: c9 00        	cmp	#$0
     73d: 10 03        	bpl	$742 <main+0x1e9>
     73f: 4c 9b 07     	jmp	$79b <main+0x242>
     742: a9 20        	lda	#$20
     744: 86 19        	stx	$19                     ; 0x2019 <_ZN12_GLOBAL__N_13putEcP6Status+0x54>
     746: 86 14        	stx	$14                     ; 0x2014 <_ZN12_GLOBAL__N_13putEcP6Status+0x4f>
     748: 84 15        	sty	$15                     ; 0x2015 <_ZN12_GLOBAL__N_13putEcP6Status+0x50>
     74a: a2 00        	ldx	#$0
     74c: 86 16        	stx	$16                     ; 0x2016 <_ZN12_GLOBAL__N_13putEcP6Status+0x51>
     74e: a2 c0        	ldx	#$c0
     750: 86 17        	stx	$17                     ; 0x2017 <_ZN12_GLOBAL__N_13putEcP6Status+0x52>
     752: 92 16        	sta	($16)                   ; 0x2016 <_ZN12_GLOBAL__N_13putEcP6Status+0x51>
     754: e6 16        	inc	$16                     ; 0x2016 <_ZN12_GLOBAL__N_13putEcP6Status+0x51>
     756: d0 02        	bne	$75a <main+0x201>
     758: e6 17        	inc	$17                     ; 0x2017 <_ZN12_GLOBAL__N_13putEcP6Status+0x52>
     75a: a2 ff        	ldx	#$ff
     75c: c6 14        	dec	$14                     ; 0x2014 <_ZN12_GLOBAL__N_13putEcP6Status+0x4f>
     75e: e4 14        	cpx	$14                     ; 0x2014 <_ZN12_GLOBAL__N_13putEcP6Status+0x4f>
     760: d0 02        	bne	$764 <main+0x20b>
     762: c6 15        	dec	$15                     ; 0x2015 <_ZN12_GLOBAL__N_13putEcP6Status+0x50>
     764: a6 15        	ldx	$15                     ; 0x2015 <_ZN12_GLOBAL__N_13putEcP6Status+0x50>
     766: d0 ea        	bne	$752 <main+0x1f9>
     768: a6 14        	ldx	$14                     ; 0x2014 <_ZN12_GLOBAL__N_13putEcP6Status+0x4f>
     76a: d0 e6        	bne	$752 <main+0x1f9>
     76c: a2 03        	ldx	#$3
     76e: 86 01        	stx	$1                      ; 0x2001 <_ZN12_GLOBAL__N_13putEcP6Status+0x3c>
     770: a5 30        	lda	$30                     ; 0x2030 <_ZN12_GLOBAL__N_13putEcP6Status+0x6b>
     772: 29 01        	and	#$1
     774: aa           	tax
     775: a9 60        	lda	#$60
     777: e0 00        	cpx	#$0
     779: d0 02        	bne	$77d <main+0x224>
     77b: a9 f0        	lda	#$f0
     77d: a6 19        	ldx	$19                     ; 0x2019 <_ZN12_GLOBAL__N_13putEcP6Status+0x54>
     77f: 92 12        	sta	($12)                   ; 0x2012 <_ZN12_GLOBAL__N_13putEcP6Status+0x4d>
     781: e6 12        	inc	$12                     ; 0x2012 <_ZN12_GLOBAL__N_13putEcP6Status+0x4d>
     783: d0 02        	bne	$787 <main+0x22e>
     785: e6 13        	inc	$13                     ; 0x2013 <_ZN12_GLOBAL__N_13putEcP6Status+0x4e>
     787: 85 14        	sta	$14                     ; 0x2014 <_ZN12_GLOBAL__N_13putEcP6Status+0x4f>
     789: ca           	dex
     78a: e0 ff        	cpx	#$ff
     78c: d0 01        	bne	$78f <main+0x236>
     78e: 88           	dey
     78f: a5 14        	lda	$14                     ; 0x2014 <_ZN12_GLOBAL__N_13putEcP6Status+0x4f>
     791: c0 00        	cpy	#$0
     793: d0 ea        	bne	$77f <main+0x226>
     795: e0 00        	cpx	#$0
     797: d0 e6        	bne	$77f <main+0x226>
     799: 80 04        	bra	$79f <main+0x246>
     79b: a2 03        	ldx	#$3
     79d: 86 01        	stx	$1                      ; 0x2001 <_ZN12_GLOBAL__N_13putEcP6Status+0x3c>
     79f: a6 18        	ldx	$18                     ; 0x2018 <_ZN12_GLOBAL__N_13putEcP6Status+0x53>
     7a1: 86 01        	stx	$1                      ; 0x2001 <_ZN12_GLOBAL__N_13putEcP6Status+0x3c>
     7a3: 64 31        	stz	$31                     ; 0x2031 <_ZN12_GLOBAL__N_13putEcP6Status+0x6c>
     7a5: 9c 14 d0     	stz	$d014                   ; 0xd014 <__heap_start+0x71b0>
     7a8: 9c 15 d0     	stz	$d015                   ; 0xd015 <__heap_start+0x71b1>
     7ab: 64 32        	stz	$32                     ; 0x2032 <_ZN12_GLOBAL__N_13putEcP6Status+0x6d>
     7ad: 9c 16 d0     	stz	$d016                   ; 0xd016 <__heap_start+0x71b2>
     7b0: 9c 17 d0     	stz	$d017                   ; 0xd017 <__heap_start+0x71b3>
     7b3: a2 40        	ldx	#$40
     7b5: 8e 00 de     	stx	$de00                   ; 0xde00 <__heap_start+0x7f9c>
     7b8: a2 01        	ldx	#$1
     7ba: 8e 01 de     	stx	$de01                   ; 0xde01 <__heap_start+0x7f9d>
     7bd: a2 f0        	ldx	#$f0
     7bf: 8e 02 de     	stx	$de02                   ; 0xde02 <__heap_start+0x7f9e>
     7c2: 9c 03 de     	stz	$de03                   ; 0xde03 <__heap_start+0x7f9f>
     7c5: ae 10 de     	ldx	$de10                   ; 0xde10 <__heap_start+0x7fac>
     7c8: 86 17        	stx	$17                     ; 0x2017 <_ZN12_GLOBAL__N_13putEcP6Status+0x52>
     7ca: ae 11 de     	ldx	$de11                   ; 0xde11 <__heap_start+0x7fad>
     7cd: 86 12        	stx	$12                     ; 0x2012 <_ZN12_GLOBAL__N_13putEcP6Status+0x4d>
     7cf: ae 12 de     	ldx	$de12                   ; 0xde12 <__heap_start+0x7fae>
     7d2: 86 13        	stx	$13                     ; 0x2013 <_ZN12_GLOBAL__N_13putEcP6Status+0x4e>
     7d4: ae 13 de     	ldx	$de13                   ; 0xde13 <__heap_start+0x7faf>
     7d7: 86 14        	stx	$14                     ; 0x2014 <_ZN12_GLOBAL__N_13putEcP6Status+0x4f>
     7d9: a4 12        	ldy	$12                     ; 0x2012 <_ZN12_GLOBAL__N_13putEcP6Status+0x4d>
     7db: 84 15        	sty	$15                     ; 0x2015 <_ZN12_GLOBAL__N_13putEcP6Status+0x50>
     7dd: 06 15        	asl	$15                     ; 0x2015 <_ZN12_GLOBAL__N_13putEcP6Status+0x50>
     7df: a5 13        	lda	$13                     ; 0x2013 <_ZN12_GLOBAL__N_13putEcP6Status+0x4e>
     7e1: 2a           	rol
     7e2: 86 16        	stx	$16                     ; 0x2016 <_ZN12_GLOBAL__N_13putEcP6Status+0x51>
     7e4: 26 16        	rol	$16                     ; 0x2016 <_ZN12_GLOBAL__N_13putEcP6Status+0x51>
     7e6: 06 15        	asl	$15                     ; 0x2015 <_ZN12_GLOBAL__N_13putEcP6Status+0x50>
     7e8: 2a           	rol
     7e9: 26 16        	rol	$16                     ; 0x2016 <_ZN12_GLOBAL__N_13putEcP6Status+0x51>
     7eb: 06 15        	asl	$15                     ; 0x2015 <_ZN12_GLOBAL__N_13putEcP6Status+0x50>
     7ed: 2a           	rol
     7ee: 26 16        	rol	$16                     ; 0x2016 <_ZN12_GLOBAL__N_13putEcP6Status+0x51>
     7f0: 85 15        	sta	$15                     ; 0x2015 <_ZN12_GLOBAL__N_13putEcP6Status+0x50>
     7f2: 8d 00 de     	sta	$de00                   ; 0xde00 <__heap_start+0x7f9c>
     7f5: a5 16        	lda	$16                     ; 0x2016 <_ZN12_GLOBAL__N_13putEcP6Status+0x51>
     7f7: 8d 01 de     	sta	$de01                   ; 0xde01 <__heap_start+0x7f9d>
     7fa: 9c 02 de     	stz	$de02                   ; 0xde02 <__heap_start+0x7f9e>
     7fd: a2 20        	ldx	#$20
     7ff: 8e 03 de     	stx	$de03                   ; 0xde03 <__heap_start+0x7f9f>
     802: ae 10 de     	ldx	$de10                   ; 0xde10 <__heap_start+0x7fac>
     805: 86 16        	stx	$16                     ; 0x2016 <_ZN12_GLOBAL__N_13putEcP6Status+0x51>
     807: ae 11 de     	ldx	$de11                   ; 0xde11 <__heap_start+0x7fad>
     80a: 86 18        	stx	$18                     ; 0x2018 <_ZN12_GLOBAL__N_13putEcP6Status+0x53>
     80c: ac 12 de     	ldy	$de12                   ; 0xde12 <__heap_start+0x7fae>
     80f: ae 13 de     	ldx	$de13                   ; 0xde13 <__heap_start+0x7faf>
     812: e4 14        	cpx	$14                     ; 0x2014 <_ZN12_GLOBAL__N_13putEcP6Status+0x4f>
     814: d0 14        	bne	$82a <main+0x2d1>
     816: c4 13        	cpy	$13                     ; 0x2013 <_ZN12_GLOBAL__N_13putEcP6Status+0x4e>
     818: d0 10        	bne	$82a <main+0x2d1>
     81a: a6 18        	ldx	$18                     ; 0x2018 <_ZN12_GLOBAL__N_13putEcP6Status+0x53>
     81c: e4 12        	cpx	$12                     ; 0x2012 <_ZN12_GLOBAL__N_13putEcP6Status+0x4d>
     81e: d0 0a        	bne	$82a <main+0x2d1>
     820: a6 16        	ldx	$16                     ; 0x2016 <_ZN12_GLOBAL__N_13putEcP6Status+0x51>
     822: e4 17        	cpx	$17                     ; 0x2017 <_ZN12_GLOBAL__N_13putEcP6Status+0x52>
     824: d0 04        	bne	$82a <main+0x2d1>
     826: a6 15        	ldx	$15                     ; 0x2015 <_ZN12_GLOBAL__N_13putEcP6Status+0x50>
     828: 80 06        	bra	$830 <main+0x2d7>
     82a: a6 15        	ldx	$15                     ; 0x2015 <_ZN12_GLOBAL__N_13putEcP6Status+0x50>
     82c: e8           	inx
     82d: d0 01        	bne	$830 <main+0x2d7>
     82f: 1a           	inc
     830: 8e 00 de     	stx	$de00                   ; 0xde00 <__heap_start+0x7f9c>
     833: 8d 01 de     	sta	$de01                   ; 0xde01 <__heap_start+0x7f9d>
     836: 9c 02 de     	stz	$de02                   ; 0xde02 <__heap_start+0x7f9e>
     839: a2 20        	ldx	#$20
     83b: 8e 03 de     	stx	$de03                   ; 0xde03 <__heap_start+0x7f9f>
     83e: ae 10 de     	ldx	$de10                   ; 0xde10 <__heap_start+0x7fac>
     841: 86 12        	stx	$12                     ; 0x2012 <_ZN12_GLOBAL__N_13putEcP6Status+0x4d>
     843: ae 11 de     	ldx	$de11                   ; 0xde11 <__heap_start+0x7fad>
     846: 86 13        	stx	$13                     ; 0x2013 <_ZN12_GLOBAL__N_13putEcP6Status+0x4e>
     848: ae 12 de     	ldx	$de12                   ; 0xde12 <__heap_start+0x7fae>
     84b: 86 14        	stx	$14                     ; 0x2014 <_ZN12_GLOBAL__N_13putEcP6Status+0x4f>
     84d: ae 13 de     	ldx	$de13                   ; 0xde13 <__heap_start+0x7faf>
     850: 86 15        	stx	$15                     ; 0x2015 <_ZN12_GLOBAL__N_13putEcP6Status+0x50>
     852: 38           	sec
     853: a9 00        	lda	#$0
     855: e5 12        	sbc	$12                     ; 0x2012 <_ZN12_GLOBAL__N_13putEcP6Status+0x4d>
     857: 85 17        	sta	$17                     ; 0x2017 <_ZN12_GLOBAL__N_13putEcP6Status+0x52>
     859: a9 00        	lda	#$0
     85b: e5 13        	sbc	$13                     ; 0x2013 <_ZN12_GLOBAL__N_13putEcP6Status+0x4e>
     85d: aa           	tax
     85e: a9 08        	lda	#$8
     860: e5 14        	sbc	$14                     ; 0x2014 <_ZN12_GLOBAL__N_13putEcP6Status+0x4f>
     862: 85 16        	sta	$16                     ; 0x2016 <_ZN12_GLOBAL__N_13putEcP6Status+0x51>
     864: a9 00        	lda	#$0
     866: e5 15        	sbc	$15                     ; 0x2015 <_ZN12_GLOBAL__N_13putEcP6Status+0x50>
     868: 8e 58 5e     	stx	$5e58                   ; 0x5e58 <__bss_start+0x1>
     86b: a4 16        	ldy	$16                     ; 0x2016 <_ZN12_GLOBAL__N_13putEcP6Status+0x51>
     86d: 8c 59 5e     	sty	$5e59                   ; 0x5e59 <__bss_start+0x2>
     870: 8d 5a 5e     	sta	$5e5a                   ; 0x5e5a <__bss_start+0x3>
     873: a5 17        	lda	$17                     ; 0x2017 <_ZN12_GLOBAL__N_13putEcP6Status+0x52>
     875: 38           	sec
     876: e5 12        	sbc	$12                     ; 0x2012 <_ZN12_GLOBAL__N_13putEcP6Status+0x4d>
     878: a8           	tay
     879: 8a           	txa
     87a: e5 13        	sbc	$13                     ; 0x2013 <_ZN12_GLOBAL__N_13putEcP6Status+0x4e>
     87c: 85 18        	sta	$18                     ; 0x2018 <_ZN12_GLOBAL__N_13putEcP6Status+0x53>
     87e: a5 16        	lda	$16                     ; 0x2016 <_ZN12_GLOBAL__N_13putEcP6Status+0x51>
     880: e5 14        	sbc	$14                     ; 0x2014 <_ZN12_GLOBAL__N_13putEcP6Status+0x4f>
     882: 85 15        	sta	$15                     ; 0x2015 <_ZN12_GLOBAL__N_13putEcP6Status+0x50>
     884: 98           	tya
     885: 84 16        	sty	$16                     ; 0x2016 <_ZN12_GLOBAL__N_13putEcP6Status+0x51>
     887: 38           	sec
     888: e5 12        	sbc	$12                     ; 0x2012 <_ZN12_GLOBAL__N_13putEcP6Status+0x4d>
     88a: 85 12        	sta	$12                     ; 0x2012 <_ZN12_GLOBAL__N_13putEcP6Status+0x4d>
     88c: a5 18        	lda	$18                     ; 0x2018 <_ZN12_GLOBAL__N_13putEcP6Status+0x53>
     88e: e5 13        	sbc	$13                     ; 0x2013 <_ZN12_GLOBAL__N_13putEcP6Status+0x4e>
     890: 85 13        	sta	$13                     ; 0x2013 <_ZN12_GLOBAL__N_13putEcP6Status+0x4e>
     892: a4 15        	ldy	$15                     ; 0x2015 <_ZN12_GLOBAL__N_13putEcP6Status+0x50>
     894: a5 15        	lda	$15                     ; 0x2015 <_ZN12_GLOBAL__N_13putEcP6Status+0x50>
     896: e5 14        	sbc	$14                     ; 0x2014 <_ZN12_GLOBAL__N_13putEcP6Status+0x4f>
     898: a6 17        	ldx	$17                     ; 0x2017 <_ZN12_GLOBAL__N_13putEcP6Status+0x52>
     89a: 8e 57 5e     	stx	$5e57                   ; 0x5e57 <__bss_start>
     89d: 8e 01 d1     	stx	$d101                   ; 0xd101 <__heap_start+0x729d>
     8a0: ae 58 5e     	ldx	$5e58                   ; 0x5e58 <__bss_start+0x1>
     8a3: 8e 02 d1     	stx	$d102                   ; 0xd102 <__heap_start+0x729e>
     8a6: ae 59 5e     	ldx	$5e59                   ; 0x5e59 <__bss_start+0x2>
     8a9: 8e 03 d1     	stx	$d103                   ; 0xd103 <__heap_start+0x729f>
     8ac: a6 16        	ldx	$16                     ; 0x2016 <_ZN12_GLOBAL__N_13putEcP6Status+0x51>
     8ae: 8e 09 d1     	stx	$d109                   ; 0xd109 <__heap_start+0x72a5>
     8b1: a6 18        	ldx	$18                     ; 0x2018 <_ZN12_GLOBAL__N_13putEcP6Status+0x53>
     8b3: 8e 0a d1     	stx	$d10a                   ; 0xd10a <__heap_start+0x72a6>
     8b6: 8c 0b d1     	sty	$d10b                   ; 0xd10b <__heap_start+0x72a7>
     8b9: a6 12        	ldx	$12                     ; 0x2012 <_ZN12_GLOBAL__N_13putEcP6Status+0x4d>
     8bb: 8e 11 d1     	stx	$d111                   ; 0xd111 <__heap_start+0x72ad>
     8be: a6 13        	ldx	$13                     ; 0x2013 <_ZN12_GLOBAL__N_13putEcP6Status+0x4e>
     8c0: 8e 12 d1     	stx	$d112                   ; 0xd112 <__heap_start+0x72ae>
     8c3: 8d 13 d1     	sta	$d113                   ; 0xd113 <__heap_start+0x72af>
     8c6: 9c 00 d1     	stz	$d100                   ; 0xd100 <__heap_start+0x729c>
     8c9: 9c 08 d1     	stz	$d108                   ; 0xd108 <__heap_start+0x72a4>
     8cc: 9c 10 d1     	stz	$d110                   ; 0xd110 <__heap_start+0x72ac>
     8cf: a2 10        	ldx	#$10
     8d1: 8e 00 d2     	stx	$d200                   ; 0xd200 <__heap_start+0x739c>
     8d4: 8e 0c d2     	stx	$d20c                   ; 0xd20c <__heap_start+0x73a8>
     8d7: 8e 18 d2     	stx	$d218                   ; 0xd218 <__heap_start+0x73b4>
     8da: a0 d9        	ldy	#$d9
     8dc: a2 40        	ldx	#$40
     8de: 64 12        	stz	$12                     ; 0x2012 <_ZN12_GLOBAL__N_13putEcP6Status+0x4d>
     8e0: 84 13        	sty	$13                     ; 0x2013 <_ZN12_GLOBAL__N_13putEcP6Status+0x4e>
     8e2: a9 00        	lda	#$0
     8e4: 92 12        	sta	($12)                   ; 0x2012 <_ZN12_GLOBAL__N_13putEcP6Status+0x4d>
     8e6: ca           	dex
     8e7: 18           	clc
     8e8: a5 12        	lda	$12                     ; 0x2012 <_ZN12_GLOBAL__N_13putEcP6Status+0x4d>
     8ea: 69 08        	adc	#$8
     8ec: 85 12        	sta	$12                     ; 0x2012 <_ZN12_GLOBAL__N_13putEcP6Status+0x4d>
     8ee: 98           	tya
     8ef: 69 00        	adc	#$0
     8f1: a8           	tay
     8f2: 8a           	txa
     8f3: d0 eb        	bne	$8e0 <main+0x387>
     8f5: 18           	clc
     8f6: a5 10        	lda	$10                     ; 0x2010 <_ZN12_GLOBAL__N_13putEcP6Status+0x4b>
     8f8: 69 5d        	adc	#$5d
     8fa: 85 2c        	sta	$2c                     ; 0x202c <_ZN12_GLOBAL__N_13putEcP6Status+0x67>
     8fc: a5 11        	lda	$11                     ; 0x2011 <_ZN12_GLOBAL__N_13putEcP6Status+0x4c>
     8fe: 69 00        	adc	#$0
     900: 85 2d        	sta	$2d                     ; 0x202d <_ZN12_GLOBAL__N_13putEcP6Status+0x68>
     902: a6 2c        	ldx	$2c                     ; 0x202c <_ZN12_GLOBAL__N_13putEcP6Status+0x67>
     904: 86 fb        	stx	$fb                     ; 0x20fb <_ZN12_GLOBAL__N_112print_stringEPKcP6Status+0x5b>
     906: 85 fc        	sta	$fc                     ; 0x20fc <_ZN12_GLOBAL__N_112print_stringEPKcP6Status+0x5c>
     908: a2 08        	ldx	#$8
     90a: 86 fd        	stx	$fd                     ; 0x20fd <_ZN12_GLOBAL__N_112print_stringEPKcP6Status+0x5d>
     90c: 18           	clc
     90d: a5 10        	lda	$10                     ; 0x2010 <_ZN12_GLOBAL__N_13putEcP6Status+0x4b>
     90f: 69 1d        	adc	#$1d
     911: 85 24        	sta	$24                     ; 0x2024 <_ZN12_GLOBAL__N_13putEcP6Status+0x5f>
     913: a5 11        	lda	$11                     ; 0x2011 <_ZN12_GLOBAL__N_13putEcP6Status+0x4c>
     915: 69 00        	adc	#$0
     917: 85 25        	sta	$25                     ; 0x2025 <_ZN12_GLOBAL__N_13putEcP6Status+0x60>
     919: a2 35        	ldx	#$35
     91b: 86 12        	stx	$12                     ; 0x2012 <_ZN12_GLOBAL__N_13putEcP6Status+0x4d>
     91d: a2 00        	ldx	#$0
     91f: 86 13        	stx	$13                     ; 0x2013 <_ZN12_GLOBAL__N_13putEcP6Status+0x4e>
     921: a0 06        	ldy	#$6
     923: 20 dc ff     	jsr	$ffdc <__heap_start+0xa178>
     926: 92 24        	sta	($24)                   ; 0x2024 <_ZN12_GLOBAL__N_13putEcP6Status+0x5f>
     928: a9 00        	lda	#$0
     92a: 6a           	ror
     92b: 85 12        	sta	$12                     ; 0x2012 <_ZN12_GLOBAL__N_13putEcP6Status+0x4d>
     92d: b1 2c        	lda	($2c),y                 ; 0x202c <_ZN12_GLOBAL__N_13putEcP6Status+0x67>
     92f: 85 12        	sta	$12                     ; 0x2012 <_ZN12_GLOBAL__N_13putEcP6Status+0x4d>
     931: c8           	iny
     932: b1 2c        	lda	($2c),y                 ; 0x202c <_ZN12_GLOBAL__N_13putEcP6Status+0x67>
     934: a6 12        	ldx	$12                     ; 0x2012 <_ZN12_GLOBAL__N_13putEcP6Status+0x4d>
     936: 8e 00 de     	stx	$de00                   ; 0xde00 <__heap_start+0x7f9c>
     939: 9c 01 de     	stz	$de01                   ; 0xde01 <__heap_start+0x7f9d>
     93c: 8d 02 de     	sta	$de02                   ; 0xde02 <__heap_start+0x7f9e>
     93f: 9c 03 de     	stz	$de03                   ; 0xde03 <__heap_start+0x7f9f>
     942: ae 10 de     	ldx	$de10                   ; 0xde10 <__heap_start+0x7fac>
     945: ac 11 de     	ldy	$de11                   ; 0xde11 <__heap_start+0x7fad>
     948: ad 12 de     	lda	$de12                   ; 0xde12 <__heap_start+0x7fae>
     94b: ad 13 de     	lda	$de13                   ; 0xde13 <__heap_start+0x7faf>
     94e: 8e a4 d6     	stx	$d6a4                   ; 0xd6a4 <__heap_start+0x7840>
     951: 8c a5 d6     	sty	$d6a5                   ; 0xd6a5 <__heap_start+0x7841>
     954: a2 03        	ldx	#$3
     956: 8e a6 d6     	stx	$d6a6                   ; 0xd6a6 <__heap_start+0x7842>
     959: a6 fa        	ldx	$fa                     ; 0x20fa <_ZN12_GLOBAL__N_112print_stringEPKcP6Status+0x5a>
     95b: 86 2f        	stx	$2f                     ; 0x202f <_ZN12_GLOBAL__N_13putEcP6Status+0x6a>
     95d: a6 f8        	ldx	$f8                     ; 0x20f8 <_ZN12_GLOBAL__N_112print_stringEPKcP6Status+0x58>
     95f: a4 f9        	ldy	$f9                     ; 0x20f9 <_ZN12_GLOBAL__N_112print_stringEPKcP6Status+0x59>
     961: 86 29        	stx	$29                     ; 0x2029 <_ZN12_GLOBAL__N_13putEcP6Status+0x64>
     963: 86 2a        	stx	$2a                     ; 0x202a <_ZN12_GLOBAL__N_13putEcP6Status+0x65>
     965: 84 2e        	sty	$2e                     ; 0x202e <_ZN12_GLOBAL__N_13putEcP6Status+0x69>
     967: 84 2b        	sty	$2b                     ; 0x202b <_ZN12_GLOBAL__N_13putEcP6Status+0x66>
     969: a9 40        	lda	#$40
     96b: a2 00        	ldx	#$0
     96d: 20 1d 2e     	jsr	$2e1d <malloc>
     970: a6 12        	ldx	$12                     ; 0x2012 <_ZN12_GLOBAL__N_13putEcP6Status+0x4d>
     972: 86 26        	stx	$26                     ; 0x2026 <_ZN12_GLOBAL__N_13putEcP6Status+0x61>
     974: a6 13        	ldx	$13                     ; 0x2013 <_ZN12_GLOBAL__N_13putEcP6Status+0x4e>
     976: 86 27        	stx	$27                     ; 0x2027 <_ZN12_GLOBAL__N_13putEcP6Status+0x62>
     978: 18           	clc
     979: a5 10        	lda	$10                     ; 0x2010 <_ZN12_GLOBAL__N_13putEcP6Status+0x4b>
     97b: 69 7b        	adc	#$7b
     97d: 85 12        	sta	$12                     ; 0x2012 <_ZN12_GLOBAL__N_13putEcP6Status+0x4d>
     97f: a5 11        	lda	$11                     ; 0x2011 <_ZN12_GLOBAL__N_13putEcP6Status+0x4c>
     981: 69 20        	adc	#$20
     983: 85 13        	sta	$13                     ; 0x2013 <_ZN12_GLOBAL__N_13putEcP6Status+0x4e>
     985: 64 14        	stz	$14                     ; 0x2014 <_ZN12_GLOBAL__N_13putEcP6Status+0x4f>
     987: a2 1e        	ldx	#$1e
     989: a9 00        	lda	#$0
     98b: 20 1e 30     	jsr	$301e <__memset>
     98e: 18           	clc
     98f: a5 10        	lda	$10                     ; 0x2010 <_ZN12_GLOBAL__N_13putEcP6Status+0x4b>
     991: 69 5d        	adc	#$5d
     993: 85 12        	sta	$12                     ; 0x2012 <_ZN12_GLOBAL__N_13putEcP6Status+0x4d>
     995: a5 11        	lda	$11                     ; 0x2011 <_ZN12_GLOBAL__N_13putEcP6Status+0x4c>
     997: 69 20        	adc	#$20
     999: 85 13        	sta	$13                     ; 0x2013 <_ZN12_GLOBAL__N_13putEcP6Status+0x4e>
     99b: 64 14        	stz	$14                     ; 0x2014 <_ZN12_GLOBAL__N_13putEcP6Status+0x4f>
     99d: a2 1e        	ldx	#$1e
     99f: a9 00        	lda	#$0
     9a1: 20 1e 30     	jsr	$301e <__memset>
     9a4: a6 24        	ldx	$24                     ; 0x2024 <_ZN12_GLOBAL__N_13putEcP6Status+0x5f>
     9a6: 86 12        	stx	$12                     ; 0x2012 <_ZN12_GLOBAL__N_13putEcP6Status+0x4d>
     9a8: a6 25        	ldx	$25                     ; 0x2025 <_ZN12_GLOBAL__N_13putEcP6Status+0x60>
     9aa: 86 13        	stx	$13                     ; 0x2013 <_ZN12_GLOBAL__N_13putEcP6Status+0x4e>
     9ac: a2 40        	ldx	#$40
     9ae: 64 14        	stz	$14                     ; 0x2014 <_ZN12_GLOBAL__N_13putEcP6Status+0x4f>
     9b0: a9 00        	lda	#$0
     9b2: 20 1e 30     	jsr	$301e <__memset>
     9b5: 64 14        	stz	$14                     ; 0x2014 <_ZN12_GLOBAL__N_13putEcP6Status+0x4f>
     9b7: 64 01        	stz	$1                      ; 0x2001 <_ZN12_GLOBAL__N_13putEcP6Status+0x3c>
     9b9: a2 2f        	ldx	#$2f
     9bb: 8e 00 d0     	stx	$d000                   ; 0xd000 <__heap_start+0x719c>
     9be: a2 04        	ldx	#$4
     9c0: 8e 01 d0     	stx	$d001                   ; 0xd001 <__heap_start+0x719d>
     9c3: a2 01        	ldx	#$1
     9c5: 8e 02 d0     	stx	$d002                   ; 0xd002 <__heap_start+0x719e>
     9c8: a0 02        	ldy	#$2
     9ca: 8c 03 d0     	sty	$d003                   ; 0xd003 <__heap_start+0x719f>
     9cd: 9c 0d d0     	stz	$d00d                   ; 0xd00d <__heap_start+0x71a9>
     9d0: 9c 0e d0     	stz	$d00e                   ; 0xd00e <__heap_start+0x71aa>
     9d3: 9c 0f d0     	stz	$d00f                   ; 0xd00f <__heap_start+0x71ab>
     9d6: 86 01        	stx	$1                      ; 0x2001 <_ZN12_GLOBAL__N_13putEcP6Status+0x3c>
     9d8: a2 f0        	ldx	#$f0
     9da: a5 14        	lda	$14                     ; 0x2014 <_ZN12_GLOBAL__N_13putEcP6Status+0x4f>
     9dc: 85 12        	sta	$12                     ; 0x2012 <_ZN12_GLOBAL__N_13putEcP6Status+0x4d>
     9de: 86 13        	stx	$13                     ; 0x2013 <_ZN12_GLOBAL__N_13putEcP6Status+0x4e>
     9e0: a4 0f        	ldy	$f                      ; 0x200f <_ZN12_GLOBAL__N_13putEcP6Status+0x4a>
     9e2: 78           	sei
     9e3: a9 18        	lda	#$18
     9e5: 85 0f        	sta	$f                      ; 0x200f <_ZN12_GLOBAL__N_13putEcP6Status+0x4a>
     9e7: b2 12        	lda	($12)                   ; 0x2012 <_ZN12_GLOBAL__N_13putEcP6Status+0x4d>
     9e9: 85 15        	sta	$15                     ; 0x2015 <_ZN12_GLOBAL__N_13putEcP6Status+0x50>
     9eb: 84 0f        	sty	$f                      ; 0x200f <_ZN12_GLOBAL__N_13putEcP6Status+0x4a>
     9ed: 18           	clc
     9ee: a5 14        	lda	$14                     ; 0x2014 <_ZN12_GLOBAL__N_13putEcP6Status+0x4f>
     9f0: 69 00        	adc	#$0
     9f2: a8           	tay
     9f3: 8a           	txa
     9f4: 69 e0        	adc	#$e0
     9f6: 84 12        	sty	$12                     ; 0x2012 <_ZN12_GLOBAL__N_13putEcP6Status+0x4d>
     9f8: 58           	cli
     9f9: 85 13        	sta	$13                     ; 0x2013 <_ZN12_GLOBAL__N_13putEcP6Status+0x4e>
     9fb: a5 15        	lda	$15                     ; 0x2015 <_ZN12_GLOBAL__N_13putEcP6Status+0x50>
     9fd: 92 12        	sta	($12)                   ; 0x2012 <_ZN12_GLOBAL__N_13putEcP6Status+0x4d>
     9ff: e6 14        	inc	$14                     ; 0x2014 <_ZN12_GLOBAL__N_13putEcP6Status+0x4f>
     a01: d0 01        	bne	$a04 <main+0x4ab>
     a03: e8           	inx
     a04: e0 f3        	cpx	#$f3
     a06: d0 d2        	bne	$9da <main+0x481>
     a08: a4 14        	ldy	$14                     ; 0x2014 <_ZN12_GLOBAL__N_13putEcP6Status+0x4f>
     a0a: c0 ff        	cpy	#$ff
     a0c: d0 cc        	bne	$9da <main+0x481>
     a0e: 64 01        	stz	$1                      ; 0x2001 <_ZN12_GLOBAL__N_13putEcP6Status+0x3c>
     a10: 9c 57 5e     	stz	$5e57                   ; 0x5e57 <__bss_start>
     a13: a2 14        	ldx	#$14
     a15: 8e 58 5e     	stx	$5e58                   ; 0x5e58 <__bss_start+0x1>
     a18: a0 03        	ldy	#$3
     a1a: 8c 59 5e     	sty	$5e59                   ; 0x5e59 <__bss_start+0x2>
     a1d: 9c 5a 5e     	stz	$5e5a                   ; 0x5e5a <__bss_start+0x3>
     a20: 9c 01 d1     	stz	$d101                   ; 0xd101 <__heap_start+0x729d>
     a23: 8e 02 d1     	stx	$d102                   ; 0xd102 <__heap_start+0x729e>
     a26: 8c 03 d1     	sty	$d103                   ; 0xd103 <__heap_start+0x729f>
     a29: ad 00 d1     	lda	$d100                   ; 0xd100 <__heap_start+0x729c>
     a2c: 29 f9        	and	#$f9
     a2e: 8d 00 d1     	sta	$d100                   ; 0xd100 <__heap_start+0x729c>
     a31: a2 01        	ldx	#$1
     a33: 8e 00 d1     	stx	$d100                   ; 0xd100 <__heap_start+0x729c>
     a36: 9c 08 d1     	stz	$d108                   ; 0xd108 <__heap_start+0x72a4>
     a39: 9c 10 d1     	stz	$d110                   ; 0xd110 <__heap_start+0x72ac>
     a3c: 20 3c 1d     	jsr	$1d3c <setTextLUT1>
     a3f: a0 00        	ldy	#$0
     a41: a2 03        	ldx	#$3
     a43: 86 01        	stx	$1                      ; 0x2001 <_ZN12_GLOBAL__N_13putEcP6Status+0x3c>
     a45: a9 c9        	lda	#$c9
     a47: a2 10        	ldx	#$10
     a49: 48           	pha
     a4a: 8a           	txa
     a4b: 5a           	phy
     a4c: a0 1b        	ldy	#$1b
     a4e: 91 10        	sta	($10),y                 ; 0x2010 <_ZN12_GLOBAL__N_13putEcP6Status+0x4b>
     a50: 7a           	ply
     a51: 68           	pla
     a52: a2 00        	ldx	#$0
     a54: 84 14        	sty	$14                     ; 0x2014 <_ZN12_GLOBAL__N_13putEcP6Status+0x4f>
     a56: 85 13        	sta	$13                     ; 0x2013 <_ZN12_GLOBAL__N_13putEcP6Status+0x4e>
     a58: 98           	tya
     a59: 0a           	asl
     a5a: 0a           	asl
     a5b: 85 12        	sta	$12                     ; 0x2012 <_ZN12_GLOBAL__N_13putEcP6Status+0x4d>
     a5d: 0a           	asl
     a5e: 18           	clc
     a5f: 65 12        	adc	$12                     ; 0x2012 <_ZN12_GLOBAL__N_13putEcP6Status+0x4d>
     a61: 18           	clc
     a62: 69 0f        	adc	#$f
     a64: a0 50        	ldy	#$50
     a66: 48           	pha
     a67: 5a           	phy
     a68: a0 1b        	ldy	#$1b
     a6a: b1 10        	lda	($10),y                 ; 0x2010 <_ZN12_GLOBAL__N_13putEcP6Status+0x4b>
     a6c: 7a           	ply
     a6d: 85 12        	sta	$12                     ; 0x2012 <_ZN12_GLOBAL__N_13putEcP6Status+0x4d>
     a6f: 68           	pla
     a70: 5a           	phy
     a71: a4 12        	ldy	$12                     ; 0x2012 <_ZN12_GLOBAL__N_13putEcP6Status+0x4d>
     a73: 84 16        	sty	$16                     ; 0x2016 <_ZN12_GLOBAL__N_13putEcP6Status+0x51>
     a75: a4 13        	ldy	$13                     ; 0x2013 <_ZN12_GLOBAL__N_13putEcP6Status+0x4e>
     a77: 84 15        	sty	$15                     ; 0x2015 <_ZN12_GLOBAL__N_13putEcP6Status+0x50>
     a79: 7a           	ply
     a7a: 92 12        	sta	($12)                   ; 0x2012 <_ZN12_GLOBAL__N_13putEcP6Status+0x4d>
     a7c: 88           	dey
     a7d: e6 12        	inc	$12                     ; 0x2012 <_ZN12_GLOBAL__N_13putEcP6Status+0x4d>
     a7f: d0 02        	bne	$a83 <main+0x52a>
     a81: e6 13        	inc	$13                     ; 0x2013 <_ZN12_GLOBAL__N_13putEcP6Status+0x4e>
     a83: c0 00        	cpy	#$0
     a85: d0 f3        	bne	$a7a <main+0x521>
     a87: a4 14        	ldy	$14                     ; 0x2014 <_ZN12_GLOBAL__N_13putEcP6Status+0x4f>
     a89: c8           	iny
     a8a: d0 01        	bne	$a8d <main+0x534>
     a8c: e8           	inx
     a8d: 18           	clc
     a8e: a5 16        	lda	$16                     ; 0x2016 <_ZN12_GLOBAL__N_13putEcP6Status+0x51>
     a90: 69 b0        	adc	#$b0
     a92: 5a           	phy
     a93: a0 1b        	ldy	#$1b
     a95: 91 10        	sta	($10),y                 ; 0x2010 <_ZN12_GLOBAL__N_13putEcP6Status+0x4b>
     a97: 7a           	ply
     a98: a5 15        	lda	$15                     ; 0x2015 <_ZN12_GLOBAL__N_13putEcP6Status+0x50>
     a9a: 69 ff        	adc	#$ff
     a9c: e0 00        	cpx	#$0
     a9e: f0 03        	beq	$aa3 <main+0x54a>
     aa0: 4c 54 0a     	jmp	$a54 <main+0x4fb>
     aa3: c0 14        	cpy	#$14
     aa5: f0 03        	beq	$aaa <main+0x551>
     aa7: 4c 54 0a     	jmp	$a54 <main+0x4fb>
     aaa: 64 01        	stz	$1                      ; 0x2001 <_ZN12_GLOBAL__N_13putEcP6Status+0x3c>
     aac: ad a7 d6     	lda	$d6a7                   ; 0xd6a7 <__heap_start+0x7843>
     aaf: 29 3f        	and	#$3f
     ab1: c9 11        	cmp	#$11
     ab3: f0 07        	beq	$abc <main+0x563>
     ab5: c9 22        	cmp	#$22
     ab7: f0 03        	beq	$abc <main+0x563>
     ab9: 4c 36 0d     	jmp	$d36 <main+0x7dd>
     abc: ad a7 d6     	lda	$d6a7                   ; 0xd6a7 <__heap_start+0x7843>
     abf: 29 1f        	and	#$1f
     ac1: a0 12        	ldy	#$12
     ac3: 91 10        	sta	($10),y                 ; 0x2010 <_ZN12_GLOBAL__N_13putEcP6Status+0x4b>
     ac5: c9 11        	cmp	#$11
     ac7: f0 03        	beq	$acc <main+0x573>
     ac9: 4c 06 0c     	jmp	$c06 <main+0x6ad>
     acc: a2 2a        	ldx	#$2a
     ace: 8e 40 dd     	stx	$dd40                   ; 0xdd40 <__heap_start+0x7edc>
     ad1: 64 14        	stz	$14                     ; 0x2014 <_ZN12_GLOBAL__N_13putEcP6Status+0x4f>
     ad3: 9c 41 dd     	stz	$dd41                   ; 0xdd41 <__heap_start+0x7edd>
     ad6: 9c 41 dd     	stz	$dd41                   ; 0xdd41 <__heap_start+0x7edd>
     ad9: 9c 41 dd     	stz	$dd41                   ; 0xdd41 <__heap_start+0x7edd>
     adc: a2 ef        	ldx	#$ef
     ade: 8e 41 dd     	stx	$dd41                   ; 0xdd41 <__heap_start+0x7edd>
     ae1: a2 2b        	ldx	#$2b
     ae3: 8e 40 dd     	stx	$dd40                   ; 0xdd40 <__heap_start+0x7edc>
     ae6: 9c 41 dd     	stz	$dd41                   ; 0xdd41 <__heap_start+0x7edd>
     ae9: a2 14        	ldx	#$14
     aeb: 8e 41 dd     	stx	$dd41                   ; 0xdd41 <__heap_start+0x7edd>
     aee: a2 01        	ldx	#$1
     af0: 8e 41 dd     	stx	$dd41                   ; 0xdd41 <__heap_start+0x7edd>
     af3: a2 3f        	ldx	#$3f
     af5: 8e 41 dd     	stx	$dd41                   ; 0xdd41 <__heap_start+0x7edd>
     af8: a2 2c        	ldx	#$2c
     afa: 8e 40 dd     	stx	$dd40                   ; 0xdd40 <__heap_start+0x7edc>
     afd: 64 17        	stz	$17                     ; 0x2017 <_ZN12_GLOBAL__N_13putEcP6Status+0x52>
     aff: 64 15        	stz	$15                     ; 0x2015 <_ZN12_GLOBAL__N_13putEcP6Status+0x50>
     b01: a9 00        	lda	#$0
     b03: a8           	tay
     b04: aa           	tax
     b05: 64 13        	stz	$13                     ; 0x2013 <_ZN12_GLOBAL__N_13putEcP6Status+0x4e>
     b07: 64 12        	stz	$12                     ; 0x2012 <_ZN12_GLOBAL__N_13putEcP6Status+0x4d>
     b09: 86 18        	stx	$18                     ; 0x2018 <_ZN12_GLOBAL__N_13putEcP6Status+0x53>
     b0b: 84 16        	sty	$16                     ; 0x2016 <_ZN12_GLOBAL__N_13putEcP6Status+0x51>
     b0d: a2 f0        	ldx	#$f0
     b0f: a4 17        	ldy	$17                     ; 0x2017 <_ZN12_GLOBAL__N_13putEcP6Status+0x52>
     b11: 85 1e        	sta	$1e                     ; 0x201e <_ZN12_GLOBAL__N_13putEcP6Status+0x59>
     b13: a5 15        	lda	$15                     ; 0x2015 <_ZN12_GLOBAL__N_13putEcP6Status+0x50>
     b15: 85 1f        	sta	$1f                     ; 0x201f <_ZN12_GLOBAL__N_13putEcP6Status+0x5a>
     b17: a5 15        	lda	$15                     ; 0x2015 <_ZN12_GLOBAL__N_13putEcP6Status+0x50>
     b19: 85 17        	sta	$17                     ; 0x2017 <_ZN12_GLOBAL__N_13putEcP6Status+0x52>
     b1b: 84 22        	sty	$22                     ; 0x2022 <_ZN12_GLOBAL__N_13putEcP6Status+0x5d>
     b1d: 84 1a        	sty	$1a                     ; 0x201a <_ZN12_GLOBAL__N_13putEcP6Status+0x55>
     b1f: a4 14        	ldy	$14                     ; 0x2014 <_ZN12_GLOBAL__N_13putEcP6Status+0x4f>
     b21: 84 1b        	sty	$1b                     ; 0x201b <_ZN12_GLOBAL__N_13putEcP6Status+0x56>
     b23: 18           	clc
     b24: 84 1d        	sty	$1d                     ; 0x201d <_ZN12_GLOBAL__N_13putEcP6Status+0x58>
     b26: 98           	tya
     b27: 69 00        	adc	#$0
     b29: a5 1a        	lda	$1a                     ; 0x201a <_ZN12_GLOBAL__N_13putEcP6Status+0x55>
     b2b: 69 00        	adc	#$0
     b2d: 85 14        	sta	$14                     ; 0x2014 <_ZN12_GLOBAL__N_13putEcP6Status+0x4f>
     b2f: a5 15        	lda	$15                     ; 0x2015 <_ZN12_GLOBAL__N_13putEcP6Status+0x50>
     b31: 69 01        	adc	#$1
     b33: 06 14        	asl	$14                     ; 0x2014 <_ZN12_GLOBAL__N_13putEcP6Status+0x4f>
     b35: 2a           	rol
     b36: 06 14        	asl	$14                     ; 0x2014 <_ZN12_GLOBAL__N_13putEcP6Status+0x4f>
     b38: 2a           	rol
     b39: a4 0f        	ldy	$f                      ; 0x200f <_ZN12_GLOBAL__N_13putEcP6Status+0x4a>
     b3b: 78           	sei
     b3c: 06 14        	asl	$14                     ; 0x2014 <_ZN12_GLOBAL__N_13putEcP6Status+0x4f>
     b3e: 2a           	rol
     b3f: 85 0f        	sta	$f                      ; 0x200f <_ZN12_GLOBAL__N_13putEcP6Status+0x4a>
     b41: a5 1a        	lda	$1a                     ; 0x201a <_ZN12_GLOBAL__N_13putEcP6Status+0x55>
     b43: 09 e0        	ora	#$e0
     b45: 5a           	phy
     b46: a4 1b        	ldy	$1b                     ; 0x201b <_ZN12_GLOBAL__N_13putEcP6Status+0x56>
     b48: 84 14        	sty	$14                     ; 0x2014 <_ZN12_GLOBAL__N_13putEcP6Status+0x4f>
     b4a: 7a           	ply
     b4b: 85 15        	sta	$15                     ; 0x2015 <_ZN12_GLOBAL__N_13putEcP6Status+0x50>
     b4d: b2 14        	lda	($14)                   ; 0x2014 <_ZN12_GLOBAL__N_13putEcP6Status+0x4f>
     b4f: 84 0f        	sty	$f                      ; 0x200f <_ZN12_GLOBAL__N_13putEcP6Status+0x4a>
     b51: 58           	cli
     b52: 8d 42 dd     	sta	$dd42                   ; 0xdd42 <__heap_start+0x7ede>
     b55: 18           	clc
     b56: a5 1b        	lda	$1b                     ; 0x201b <_ZN12_GLOBAL__N_13putEcP6Status+0x56>
     b58: 69 01        	adc	#$1
     b5a: a5 1a        	lda	$1a                     ; 0x201a <_ZN12_GLOBAL__N_13putEcP6Status+0x55>
     b5c: 69 00        	adc	#$0
     b5e: 85 14        	sta	$14                     ; 0x2014 <_ZN12_GLOBAL__N_13putEcP6Status+0x4f>
     b60: a5 17        	lda	$17                     ; 0x2017 <_ZN12_GLOBAL__N_13putEcP6Status+0x52>
     b62: 69 01        	adc	#$1
     b64: 06 14        	asl	$14                     ; 0x2014 <_ZN12_GLOBAL__N_13putEcP6Status+0x4f>
     b66: 2a           	rol
     b67: 06 14        	asl	$14                     ; 0x2014 <_ZN12_GLOBAL__N_13putEcP6Status+0x4f>
     b69: 2a           	rol
     b6a: a4 1e        	ldy	$1e                     ; 0x201e <_ZN12_GLOBAL__N_13putEcP6Status+0x59>
     b6c: 84 23        	sty	$23                     ; 0x2023 <_ZN12_GLOBAL__N_13putEcP6Status+0x5e>
     b6e: 06 14        	asl	$14                     ; 0x2014 <_ZN12_GLOBAL__N_13putEcP6Status+0x4f>
     b70: 2a           	rol
     b71: a4 0f        	ldy	$f                      ; 0x200f <_ZN12_GLOBAL__N_13putEcP6Status+0x4a>
     b73: 78           	sei
     b74: 85 0f        	sta	$f                      ; 0x200f <_ZN12_GLOBAL__N_13putEcP6Status+0x4a>
     b76: a5 1b        	lda	$1b                     ; 0x201b <_ZN12_GLOBAL__N_13putEcP6Status+0x56>
     b78: 85 14        	sta	$14                     ; 0x2014 <_ZN12_GLOBAL__N_13putEcP6Status+0x4f>
     b7a: a5 1a        	lda	$1a                     ; 0x201a <_ZN12_GLOBAL__N_13putEcP6Status+0x55>
     b7c: e6 14        	inc	$14                     ; 0x2014 <_ZN12_GLOBAL__N_13putEcP6Status+0x4f>
     b7e: d0 01        	bne	$b81 <main+0x628>
     b80: 1a           	inc
     b81: 09 e0        	ora	#$e0
     b83: 85 15        	sta	$15                     ; 0x2015 <_ZN12_GLOBAL__N_13putEcP6Status+0x50>
     b85: b2 14        	lda	($14)                   ; 0x2014 <_ZN12_GLOBAL__N_13putEcP6Status+0x4f>
     b87: 84 0f        	sty	$f                      ; 0x200f <_ZN12_GLOBAL__N_13putEcP6Status+0x4a>
     b89: 58           	cli
     b8a: 8d 43 dd     	sta	$dd43                   ; 0xdd43 <__heap_start+0x7edf>
     b8d: a5 1d        	lda	$1d                     ; 0x201d <_ZN12_GLOBAL__N_13putEcP6Status+0x58>
     b8f: ca           	dex
     b90: 18           	clc
     b91: 69 02        	adc	#$2
     b93: 85 14        	sta	$14                     ; 0x2014 <_ZN12_GLOBAL__N_13putEcP6Status+0x4f>
     b95: a5 22        	lda	$22                     ; 0x2022 <_ZN12_GLOBAL__N_13putEcP6Status+0x5d>
     b97: 69 00        	adc	#$0
     b99: a8           	tay
     b9a: a5 1f        	lda	$1f                     ; 0x201f <_ZN12_GLOBAL__N_13putEcP6Status+0x5a>
     b9c: 69 00        	adc	#$0
     b9e: 85 15        	sta	$15                     ; 0x2015 <_ZN12_GLOBAL__N_13putEcP6Status+0x50>
     ba0: a5 1e        	lda	$1e                     ; 0x201e <_ZN12_GLOBAL__N_13putEcP6Status+0x59>
     ba2: 69 00        	adc	#$0
     ba4: 85 1e        	sta	$1e                     ; 0x201e <_ZN12_GLOBAL__N_13putEcP6Status+0x59>
     ba6: 8a           	txa
     ba7: f0 03        	beq	$bac <main+0x653>
     ba9: 4c 13 0b     	jmp	$b13 <main+0x5ba>
     bac: a6 17        	ldx	$17                     ; 0x2017 <_ZN12_GLOBAL__N_13putEcP6Status+0x52>
     bae: 86 19        	stx	$19                     ; 0x2019 <_ZN12_GLOBAL__N_13putEcP6Status+0x54>
     bb0: 18           	clc
     bb1: a5 1b        	lda	$1b                     ; 0x201b <_ZN12_GLOBAL__N_13putEcP6Status+0x56>
     bb3: 69 02        	adc	#$2
     bb5: 85 14        	sta	$14                     ; 0x2014 <_ZN12_GLOBAL__N_13putEcP6Status+0x4f>
     bb7: a5 1a        	lda	$1a                     ; 0x201a <_ZN12_GLOBAL__N_13putEcP6Status+0x55>
     bb9: 69 00        	adc	#$0
     bbb: 85 17        	sta	$17                     ; 0x2017 <_ZN12_GLOBAL__N_13putEcP6Status+0x52>
     bbd: a5 19        	lda	$19                     ; 0x2019 <_ZN12_GLOBAL__N_13putEcP6Status+0x54>
     bbf: 69 00        	adc	#$0
     bc1: 85 15        	sta	$15                     ; 0x2015 <_ZN12_GLOBAL__N_13putEcP6Status+0x50>
     bc3: a5 23        	lda	$23                     ; 0x2023 <_ZN12_GLOBAL__N_13putEcP6Status+0x5e>
     bc5: 69 00        	adc	#$0
     bc7: a6 18        	ldx	$18                     ; 0x2018 <_ZN12_GLOBAL__N_13putEcP6Status+0x53>
     bc9: a4 16        	ldy	$16                     ; 0x2016 <_ZN12_GLOBAL__N_13putEcP6Status+0x51>
     bcb: c8           	iny
     bcc: d0 09        	bne	$bd7 <main+0x67e>
     bce: e8           	inx
     bcf: d0 06        	bne	$bd7 <main+0x67e>
     bd1: e6 13        	inc	$13                     ; 0x2013 <_ZN12_GLOBAL__N_13putEcP6Status+0x4e>
     bd3: d0 02        	bne	$bd7 <main+0x67e>
     bd5: e6 12        	inc	$12                     ; 0x2012 <_ZN12_GLOBAL__N_13putEcP6Status+0x4d>
     bd7: e6 12        	inc	$12                     ; 0x2012 <_ZN12_GLOBAL__N_13putEcP6Status+0x4d>
     bd9: c6 12        	dec	$12                     ; 0x2012 <_ZN12_GLOBAL__N_13putEcP6Status+0x4d>
     bdb: f0 03        	beq	$be0 <main+0x687>
     bdd: 4c 09 0b     	jmp	$b09 <main+0x5b0>
     be0: e6 13        	inc	$13                     ; 0x2013 <_ZN12_GLOBAL__N_13putEcP6Status+0x4e>
     be2: c6 13        	dec	$13                     ; 0x2013 <_ZN12_GLOBAL__N_13putEcP6Status+0x4e>
     be4: f0 03        	beq	$be9 <main+0x690>
     be6: 4c 09 0b     	jmp	$b09 <main+0x5b0>
     be9: e0 01        	cpx	#$1
     beb: f0 03        	beq	$bf0 <main+0x697>
     bed: 4c 09 0b     	jmp	$b09 <main+0x5b0>
     bf0: c0 18        	cpy	#$18
     bf2: f0 03        	beq	$bf7 <main+0x69e>
     bf4: 4c 09 0b     	jmp	$b09 <main+0x5b0>
     bf7: a2 36        	ldx	#$36
     bf9: 8e 40 dd     	stx	$dd40                   ; 0xdd40 <__heap_start+0x7edc>
     bfc: a2 80        	ldx	#$80
     bfe: 8e 41 dd     	stx	$dd41                   ; 0xdd41 <__heap_start+0x7edd>
     c01: a2 2c        	ldx	#$2c
     c03: 8e 40 dd     	stx	$dd40                   ; 0xdd40 <__heap_start+0x7edc>
     c06: a6 2f        	ldx	$2f                     ; 0x202f <_ZN12_GLOBAL__N_13putEcP6Status+0x6a>
     c08: e0 04        	cpx	#$4
     c0a: b0 03        	bcs	$c0f <main+0x6b6>
     c0c: 4c eb 0c     	jmp	$ceb <main+0x792>
     c0f: a0 02        	ldy	#$2
     c11: 18           	clc
     c12: a5 29        	lda	$29                     ; 0x2029 <_ZN12_GLOBAL__N_13putEcP6Status+0x64>
     c14: 69 02        	adc	#$2
     c16: 85 12        	sta	$12                     ; 0x2012 <_ZN12_GLOBAL__N_13putEcP6Status+0x4d>
     c18: a5 2e        	lda	$2e                     ; 0x202e <_ZN12_GLOBAL__N_13putEcP6Status+0x69>
     c1a: 69 00        	adc	#$0
     c1c: a6 12        	ldx	$12                     ; 0x2012 <_ZN12_GLOBAL__N_13putEcP6Status+0x4d>
     c1e: 85 14        	sta	$14                     ; 0x2014 <_ZN12_GLOBAL__N_13putEcP6Status+0x4f>
     c20: 85 13        	sta	$13                     ; 0x2013 <_ZN12_GLOBAL__N_13putEcP6Status+0x4e>
     c22: b1 2a        	lda	($2a),y                 ; 0x202a <_ZN12_GLOBAL__N_13putEcP6Status+0x65>
     c24: 85 15        	sta	$15                     ; 0x2015 <_ZN12_GLOBAL__N_13putEcP6Status+0x50>
     c26: 88           	dey
     c27: b1 12        	lda	($12),y                 ; 0x2012 <_ZN12_GLOBAL__N_13putEcP6Status+0x4d>
     c29: a4 15        	ldy	$15                     ; 0x2015 <_ZN12_GLOBAL__N_13putEcP6Status+0x50>
     c2b: 84 12        	sty	$12                     ; 0x2012 <_ZN12_GLOBAL__N_13putEcP6Status+0x4d>
     c2d: 85 13        	sta	$13                     ; 0x2013 <_ZN12_GLOBAL__N_13putEcP6Status+0x4e>
     c2f: b2 12        	lda	($12)                   ; 0x2012 <_ZN12_GLOBAL__N_13putEcP6Status+0x4d>
     c31: 64 17        	stz	$17                     ; 0x2017 <_ZN12_GLOBAL__N_13putEcP6Status+0x52>
     c33: 64 15        	stz	$15                     ; 0x2015 <_ZN12_GLOBAL__N_13putEcP6Status+0x50>
     c35: d0 03        	bne	$c3a <main+0x6e1>
     c37: 4c 95 0c     	jmp	$c95 <main+0x73c>
     c3a: 85 16        	sta	$16                     ; 0x2016 <_ZN12_GLOBAL__N_13putEcP6Status+0x51>
     c3c: a0 00        	ldy	#$0
     c3e: 64 19        	stz	$19                     ; 0x2019 <_ZN12_GLOBAL__N_13putEcP6Status+0x54>
     c40: 84 18        	sty	$18                     ; 0x2018 <_ZN12_GLOBAL__N_13putEcP6Status+0x53>
     c42: 98           	tya
     c43: 18           	clc
     c44: 65 26        	adc	$26                     ; 0x2026 <_ZN12_GLOBAL__N_13putEcP6Status+0x61>
     c46: 85 12        	sta	$12                     ; 0x2012 <_ZN12_GLOBAL__N_13putEcP6Status+0x4d>
     c48: a5 19        	lda	$19                     ; 0x2019 <_ZN12_GLOBAL__N_13putEcP6Status+0x54>
     c4a: 65 27        	adc	$27                     ; 0x2027 <_ZN12_GLOBAL__N_13putEcP6Status+0x62>
     c4c: 85 13        	sta	$13                     ; 0x2013 <_ZN12_GLOBAL__N_13putEcP6Status+0x4e>
     c4e: a5 16        	lda	$16                     ; 0x2016 <_ZN12_GLOBAL__N_13putEcP6Status+0x51>
     c50: 92 12        	sta	($12)                   ; 0x2012 <_ZN12_GLOBAL__N_13putEcP6Status+0x4d>
     c52: a4 15        	ldy	$15                     ; 0x2015 <_ZN12_GLOBAL__N_13putEcP6Status+0x50>
     c54: 84 16        	sty	$16                     ; 0x2016 <_ZN12_GLOBAL__N_13putEcP6Status+0x51>
     c56: a4 17        	ldy	$17                     ; 0x2017 <_ZN12_GLOBAL__N_13putEcP6Status+0x52>
     c58: 84 15        	sty	$15                     ; 0x2015 <_ZN12_GLOBAL__N_13putEcP6Status+0x50>
     c5a: e6 15        	inc	$15                     ; 0x2015 <_ZN12_GLOBAL__N_13putEcP6Status+0x50>
     c5c: d0 02        	bne	$c60 <main+0x707>
     c5e: e6 16        	inc	$16                     ; 0x2016 <_ZN12_GLOBAL__N_13putEcP6Status+0x51>
     c60: 86 12        	stx	$12                     ; 0x2012 <_ZN12_GLOBAL__N_13putEcP6Status+0x4d>
     c62: a4 14        	ldy	$14                     ; 0x2014 <_ZN12_GLOBAL__N_13putEcP6Status+0x4f>
     c64: 84 13        	sty	$13                     ; 0x2013 <_ZN12_GLOBAL__N_13putEcP6Status+0x4e>
     c66: 18           	clc
     c67: a0 02        	ldy	#$2
     c69: a5 18        	lda	$18                     ; 0x2018 <_ZN12_GLOBAL__N_13putEcP6Status+0x53>
     c6b: 71 2a        	adc	($2a),y                 ; 0x202a <_ZN12_GLOBAL__N_13putEcP6Status+0x65>
     c6d: 85 17        	sta	$17                     ; 0x2017 <_ZN12_GLOBAL__N_13putEcP6Status+0x52>
     c6f: 88           	dey
     c70: a5 19        	lda	$19                     ; 0x2019 <_ZN12_GLOBAL__N_13putEcP6Status+0x54>
     c72: 71 12        	adc	($12),y                 ; 0x2012 <_ZN12_GLOBAL__N_13putEcP6Status+0x4d>
     c74: 5a           	phy
     c75: a4 17        	ldy	$17                     ; 0x2017 <_ZN12_GLOBAL__N_13putEcP6Status+0x52>
     c77: 84 12        	sty	$12                     ; 0x2012 <_ZN12_GLOBAL__N_13putEcP6Status+0x4d>
     c79: 7a           	ply
     c7a: 85 13        	sta	$13                     ; 0x2013 <_ZN12_GLOBAL__N_13putEcP6Status+0x4e>
     c7c: b1 12        	lda	($12),y                 ; 0x2012 <_ZN12_GLOBAL__N_13putEcP6Status+0x4d>
     c7e: 48           	pha
     c7f: a4 15        	ldy	$15                     ; 0x2015 <_ZN12_GLOBAL__N_13putEcP6Status+0x50>
     c81: 84 17        	sty	$17                     ; 0x2017 <_ZN12_GLOBAL__N_13putEcP6Status+0x52>
     c83: a4 15        	ldy	$15                     ; 0x2015 <_ZN12_GLOBAL__N_13putEcP6Status+0x50>
     c85: a5 16        	lda	$16                     ; 0x2016 <_ZN12_GLOBAL__N_13putEcP6Status+0x51>
     c87: 85 15        	sta	$15                     ; 0x2015 <_ZN12_GLOBAL__N_13putEcP6Status+0x50>
     c89: a5 16        	lda	$16                     ; 0x2016 <_ZN12_GLOBAL__N_13putEcP6Status+0x51>
     c8b: 85 19        	sta	$19                     ; 0x2019 <_ZN12_GLOBAL__N_13putEcP6Status+0x54>
     c8d: 68           	pla
     c8e: 85 16        	sta	$16                     ; 0x2016 <_ZN12_GLOBAL__N_13putEcP6Status+0x51>
     c90: f0 03        	beq	$c95 <main+0x73c>
     c92: 4c 40 0c     	jmp	$c40 <main+0x6e7>
     c95: 18           	clc
     c96: a5 17        	lda	$17                     ; 0x2017 <_ZN12_GLOBAL__N_13putEcP6Status+0x52>
     c98: 65 26        	adc	$26                     ; 0x2026 <_ZN12_GLOBAL__N_13putEcP6Status+0x61>
     c9a: 85 12        	sta	$12                     ; 0x2012 <_ZN12_GLOBAL__N_13putEcP6Status+0x4d>
     c9c: a5 15        	lda	$15                     ; 0x2015 <_ZN12_GLOBAL__N_13putEcP6Status+0x50>
     c9e: 65 27        	adc	$27                     ; 0x2027 <_ZN12_GLOBAL__N_13putEcP6Status+0x62>
     ca0: 85 13        	sta	$13                     ; 0x2013 <_ZN12_GLOBAL__N_13putEcP6Status+0x4e>
     ca2: a9 00        	lda	#$0
     ca4: 92 12        	sta	($12)                   ; 0x2012 <_ZN12_GLOBAL__N_13putEcP6Status+0x4d>
     ca6: b2 26        	lda	($26)                   ; 0x2026 <_ZN12_GLOBAL__N_13putEcP6Status+0x61>
     ca8: a2 00        	ldx	#$0
     caa: a4 26        	ldy	$26                     ; 0x2026 <_ZN12_GLOBAL__N_13putEcP6Status+0x61>
     cac: 84 12        	sty	$12                     ; 0x2012 <_ZN12_GLOBAL__N_13putEcP6Status+0x4d>
     cae: a4 27        	ldy	$27                     ; 0x2027 <_ZN12_GLOBAL__N_13putEcP6Status+0x62>
     cb0: 84 13        	sty	$13                     ; 0x2013 <_ZN12_GLOBAL__N_13putEcP6Status+0x4e>
     cb2: a8           	tay
     cb3: d0 03        	bne	$cb8 <main+0x75f>
     cb5: 4c b3 0d     	jmp	$db3 <main+0x85a>
     cb8: 85 14        	sta	$14                     ; 0x2014 <_ZN12_GLOBAL__N_13putEcP6Status+0x4f>
     cba: a0 00        	ldy	#$0
     cbc: a2 00        	ldx	#$0
     cbe: 86 12        	stx	$12                     ; 0x2012 <_ZN12_GLOBAL__N_13putEcP6Status+0x4d>
     cc0: 98           	tya
     cc1: c8           	iny
     cc2: d0 01        	bne	$cc5 <main+0x76c>
     cc4: e8           	inx
     cc5: 18           	clc
     cc6: 65 26        	adc	$26                     ; 0x2026 <_ZN12_GLOBAL__N_13putEcP6Status+0x61>
     cc8: 85 16        	sta	$16                     ; 0x2016 <_ZN12_GLOBAL__N_13putEcP6Status+0x51>
     cca: a5 12        	lda	$12                     ; 0x2012 <_ZN12_GLOBAL__N_13putEcP6Status+0x4d>
     ccc: 65 27        	adc	$27                     ; 0x2027 <_ZN12_GLOBAL__N_13putEcP6Status+0x62>
     cce: 84 15        	sty	$15                     ; 0x2015 <_ZN12_GLOBAL__N_13putEcP6Status+0x50>
     cd0: a4 16        	ldy	$16                     ; 0x2016 <_ZN12_GLOBAL__N_13putEcP6Status+0x51>
     cd2: 84 12        	sty	$12                     ; 0x2012 <_ZN12_GLOBAL__N_13putEcP6Status+0x4d>
     cd4: 85 13        	sta	$13                     ; 0x2013 <_ZN12_GLOBAL__N_13putEcP6Status+0x4e>
     cd6: a0 01        	ldy	#$1
     cd8: b1 12        	lda	($12),y                 ; 0x2012 <_ZN12_GLOBAL__N_13putEcP6Status+0x4d>
     cda: a4 15        	ldy	$15                     ; 0x2015 <_ZN12_GLOBAL__N_13putEcP6Status+0x50>
     cdc: c9 00        	cmp	#$0
     cde: d0 de        	bne	$cbe <main+0x765>
     ce0: 8a           	txa
     ce1: f0 03        	beq	$ce6 <main+0x78d>
     ce3: 4c 76 0d     	jmp	$d76 <main+0x81d>
     ce6: c0 02        	cpy	#$2
     ce8: 4c 78 0d     	jmp	$d78 <main+0x81f>
     ceb: a2 fc        	ldx	#$fc
     ced: 86 12        	stx	$12                     ; 0x2012 <_ZN12_GLOBAL__N_13putEcP6Status+0x4d>
     cef: a2 30        	ldx	#$30
     cf1: 86 13        	stx	$13                     ; 0x2013 <_ZN12_GLOBAL__N_13putEcP6Status+0x4e>
     cf3: 20 d8 2d     	jsr	$2dd8 <puts>
     cf6: a2 e8        	ldx	#$e8
     cf8: 86 12        	stx	$12                     ; 0x2012 <_ZN12_GLOBAL__N_13putEcP6Status+0x4d>
     cfa: a2 31        	ldx	#$31
     cfc: 86 13        	stx	$13                     ; 0x2013 <_ZN12_GLOBAL__N_13putEcP6Status+0x4e>
     cfe: 20 d8 2d     	jsr	$2dd8 <puts>
     d01: a2 b6        	ldx	#$b6
     d03: 86 12        	stx	$12                     ; 0x2012 <_ZN12_GLOBAL__N_13putEcP6Status+0x4d>
     d05: a2 31        	ldx	#$31
     d07: 86 13        	stx	$13                     ; 0x2013 <_ZN12_GLOBAL__N_13putEcP6Status+0x4e>
     d09: 20 ac 21     	jsr	$21ac <printf>
     d0c: a2 35        	ldx	#$35
     d0e: 86 12        	stx	$12                     ; 0x2012 <_ZN12_GLOBAL__N_13putEcP6Status+0x4d>
     d10: a2 00        	ldx	#$0
     d12: 86 13        	stx	$13                     ; 0x2013 <_ZN12_GLOBAL__N_13putEcP6Status+0x4e>
     d14: 64 36        	stz	$36                     ; 0x2036 <_ZN12_GLOBAL__N_13putEcP6Status+0x71>
     d16: 20 00 ff     	jsr	$ff00 <__heap_start+0xa09c>
     d19: 92 2c        	sta	($2c)                   ; 0x202c <_ZN12_GLOBAL__N_13putEcP6Status+0x67>
     d1b: a9 00        	lda	#$0
     d1d: 6a           	ror
     d1e: 85 12        	sta	$12                     ; 0x2012 <_ZN12_GLOBAL__N_13putEcP6Status+0x4d>
     d20: a6 36        	ldx	$36                     ; 0x2036 <_ZN12_GLOBAL__N_13putEcP6Status+0x71>
     d22: e0 08        	cpx	#$8
     d24: d0 ee        	bne	$d14 <main+0x7bb>
     d26: a6 3a        	ldx	$3a                     ; 0x203a <_ZN12_GLOBAL__N_13putEcP6Status+0x75>
     d28: e0 94        	cpx	#$94
     d2a: d0 03        	bne	$d2f <main+0x7d6>
     d2c: 4c 11 18     	jmp	$1811 <main+0x12b8>
     d2f: e0 20        	cpx	#$20
     d31: d0 e1        	bne	$d14 <main+0x7bb>
     d33: 4c 11 18     	jmp	$1811 <main+0x12b8>
     d36: a2 3d        	ldx	#$3d
     d38: 86 12        	stx	$12                     ; 0x2012 <_ZN12_GLOBAL__N_13putEcP6Status+0x4d>
     d3a: a2 31        	ldx	#$31
     d3c: 86 13        	stx	$13                     ; 0x2013 <_ZN12_GLOBAL__N_13putEcP6Status+0x4e>
     d3e: 20 ac 21     	jsr	$21ac <printf>
     d41: a2 c9        	ldx	#$c9
     d43: 86 12        	stx	$12                     ; 0x2012 <_ZN12_GLOBAL__N_13putEcP6Status+0x4d>
     d45: a2 30        	ldx	#$30
     d47: 86 13        	stx	$13                     ; 0x2013 <_ZN12_GLOBAL__N_13putEcP6Status+0x4e>
     d49: 20 ac 21     	jsr	$21ac <printf>
     d4c: a2 35        	ldx	#$35
     d4e: 86 12        	stx	$12                     ; 0x2012 <_ZN12_GLOBAL__N_13putEcP6Status+0x4d>
     d50: a2 00        	ldx	#$0
     d52: 86 13        	stx	$13                     ; 0x2013 <_ZN12_GLOBAL__N_13putEcP6Status+0x4e>
     d54: 64 36        	stz	$36                     ; 0x2036 <_ZN12_GLOBAL__N_13putEcP6Status+0x71>
     d56: 20 00 ff     	jsr	$ff00 <__heap_start+0xa09c>
     d59: 92 2c        	sta	($2c)                   ; 0x202c <_ZN12_GLOBAL__N_13putEcP6Status+0x67>
     d5b: a9 00        	lda	#$0
     d5d: 6a           	ror
     d5e: 85 12        	sta	$12                     ; 0x2012 <_ZN12_GLOBAL__N_13putEcP6Status+0x4d>
     d60: a6 36        	ldx	$36                     ; 0x2036 <_ZN12_GLOBAL__N_13putEcP6Status+0x71>
     d62: e0 08        	cpx	#$8
     d64: d0 ee        	bne	$d54 <main+0x7fb>
     d66: a6 3a        	ldx	$3a                     ; 0x203a <_ZN12_GLOBAL__N_13putEcP6Status+0x75>
     d68: e0 94        	cpx	#$94
     d6a: d0 03        	bne	$d6f <main+0x816>
     d6c: 4c 11 18     	jmp	$1811 <main+0x12b8>
     d6f: e0 20        	cpx	#$20
     d71: d0 e1        	bne	$d54 <main+0x7fb>
     d73: 4c 11 18     	jmp	$1811 <main+0x12b8>
     d76: e0 00        	cpx	#$0
     d78: a2 00        	ldx	#$0
     d7a: a4 26        	ldy	$26                     ; 0x2026 <_ZN12_GLOBAL__N_13putEcP6Status+0x61>
     d7c: 84 12        	sty	$12                     ; 0x2012 <_ZN12_GLOBAL__N_13putEcP6Status+0x4d>
     d7e: a4 27        	ldy	$27                     ; 0x2027 <_ZN12_GLOBAL__N_13putEcP6Status+0x62>
     d80: 84 13        	sty	$13                     ; 0x2013 <_ZN12_GLOBAL__N_13putEcP6Status+0x4e>
     d82: 90 2f        	bcc	$db3 <main+0x85a>
     d84: a0 01        	ldy	#$1
     d86: b1 26        	lda	($26),y                 ; 0x2026 <_ZN12_GLOBAL__N_13putEcP6Status+0x61>
     d88: a2 00        	ldx	#$0
     d8a: a4 26        	ldy	$26                     ; 0x2026 <_ZN12_GLOBAL__N_13putEcP6Status+0x61>
     d8c: 84 12        	sty	$12                     ; 0x2012 <_ZN12_GLOBAL__N_13putEcP6Status+0x4d>
     d8e: a4 27        	ldy	$27                     ; 0x2027 <_ZN12_GLOBAL__N_13putEcP6Status+0x62>
     d90: 84 13        	sty	$13                     ; 0x2013 <_ZN12_GLOBAL__N_13putEcP6Status+0x4e>
     d92: c9 3a        	cmp	#$3a
     d94: d0 1d        	bne	$db3 <main+0x85a>
     d96: a5 14        	lda	$14                     ; 0x2014 <_ZN12_GLOBAL__N_13putEcP6Status+0x4f>
     d98: c9 30        	cmp	#$30
     d9a: a2 00        	ldx	#$0
     d9c: 90 08        	bcc	$da6 <main+0x84d>
     d9e: c9 38        	cmp	#$38
     da0: b0 04        	bcs	$da6 <main+0x84d>
     da2: 18           	clc
     da3: 69 d0        	adc	#$d0
     da5: aa           	tax
     da6: a5 26        	lda	$26                     ; 0x2026 <_ZN12_GLOBAL__N_13putEcP6Status+0x61>
     da8: 18           	clc
     da9: 69 02        	adc	#$2
     dab: 85 12        	sta	$12                     ; 0x2012 <_ZN12_GLOBAL__N_13putEcP6Status+0x4d>
     dad: a5 27        	lda	$27                     ; 0x2027 <_ZN12_GLOBAL__N_13putEcP6Status+0x62>
     daf: 69 00        	adc	#$0
     db1: 85 13        	sta	$13                     ; 0x2013 <_ZN12_GLOBAL__N_13putEcP6Status+0x4e>
     db3: 86 18        	stx	$18                     ; 0x2018 <_ZN12_GLOBAL__N_13putEcP6Status+0x53>
     db5: a2 dd        	ldx	#$dd
     db7: 86 14        	stx	$14                     ; 0x2014 <_ZN12_GLOBAL__N_13putEcP6Status+0x4f>
     db9: a2 30        	ldx	#$30
     dbb: 86 15        	stx	$15                     ; 0x2015 <_ZN12_GLOBAL__N_13putEcP6Status+0x50>
     dbd: a2 00        	ldx	#$0
     dbf: 80 0a        	bra	$dcb <main+0x872>
     dc1: a0 02        	ldy	#$2
     dc3: e6 14        	inc	$14                     ; 0x2014 <_ZN12_GLOBAL__N_13putEcP6Status+0x4f>
     dc5: d0 02        	bne	$dc9 <main+0x870>
     dc7: e6 15        	inc	$15                     ; 0x2015 <_ZN12_GLOBAL__N_13putEcP6Status+0x50>
     dc9: 5a           	phy
     dca: fa           	plx
     dcb: b2 14        	lda	($14)                   ; 0x2014 <_ZN12_GLOBAL__N_13putEcP6Status+0x4f>
     dcd: c9 61        	cmp	#$61
     dcf: f0 f0        	beq	$dc1 <main+0x868>
     dd1: a0 01        	ldy	#$1
     dd3: c9 77        	cmp	#$77
     dd5: f0 ec        	beq	$dc3 <main+0x86a>
     dd7: a8           	tay
     dd8: f0 04        	beq	$dde <main+0x885>
     dda: da           	phx
     ddb: 7a           	ply
     ddc: 80 e5        	bra	$dc3 <main+0x86a>
     dde: a4 12        	ldy	$12                     ; 0x2012 <_ZN12_GLOBAL__N_13putEcP6Status+0x4d>
     de0: a5 13        	lda	$13                     ; 0x2013 <_ZN12_GLOBAL__N_13putEcP6Status+0x4e>
     de2: 84 fb        	sty	$fb                     ; 0x20fb <_ZN12_GLOBAL__N_112print_stringEPKcP6Status+0x5b>
     de4: 85 fc        	sta	$fc                     ; 0x20fc <_ZN12_GLOBAL__N_112print_stringEPKcP6Status+0x5c>
     de6: b2 12        	lda	($12)                   ; 0x2012 <_ZN12_GLOBAL__N_13putEcP6Status+0x4d>
     de8: f0 33        	beq	$e1d <main+0x8c4>
     dea: 64 15        	stz	$15                     ; 0x2015 <_ZN12_GLOBAL__N_13putEcP6Status+0x50>
     dec: a0 01        	ldy	#$1
     dee: a9 00        	lda	#$0
     df0: 64 14        	stz	$14                     ; 0x2014 <_ZN12_GLOBAL__N_13putEcP6Status+0x4f>
     df2: 5a           	phy
     df3: a4 15        	ldy	$15                     ; 0x2015 <_ZN12_GLOBAL__N_13putEcP6Status+0x50>
     df5: 84 16        	sty	$16                     ; 0x2016 <_ZN12_GLOBAL__N_13putEcP6Status+0x51>
     df7: 7a           	ply
     df8: e6 15        	inc	$15                     ; 0x2015 <_ZN12_GLOBAL__N_13putEcP6Status+0x50>
     dfa: d0 02        	bne	$dfe <main+0x8a5>
     dfc: e6 14        	inc	$14                     ; 0x2014 <_ZN12_GLOBAL__N_13putEcP6Status+0x4f>
     dfe: 18           	clc
     dff: 85 17        	sta	$17                     ; 0x2017 <_ZN12_GLOBAL__N_13putEcP6Status+0x52>
     e01: a5 16        	lda	$16                     ; 0x2016 <_ZN12_GLOBAL__N_13putEcP6Status+0x51>
     e03: 65 12        	adc	$12                     ; 0x2012 <_ZN12_GLOBAL__N_13putEcP6Status+0x4d>
     e05: 85 16        	sta	$16                     ; 0x2016 <_ZN12_GLOBAL__N_13putEcP6Status+0x51>
     e07: a5 17        	lda	$17                     ; 0x2017 <_ZN12_GLOBAL__N_13putEcP6Status+0x52>
     e09: 65 13        	adc	$13                     ; 0x2013 <_ZN12_GLOBAL__N_13putEcP6Status+0x4e>
     e0b: 85 17        	sta	$17                     ; 0x2017 <_ZN12_GLOBAL__N_13putEcP6Status+0x52>
     e0d: b1 16        	lda	($16),y                 ; 0x2016 <_ZN12_GLOBAL__N_13putEcP6Status+0x51>
     e0f: 85 16        	sta	$16                     ; 0x2016 <_ZN12_GLOBAL__N_13putEcP6Status+0x51>
     e11: a5 14        	lda	$14                     ; 0x2014 <_ZN12_GLOBAL__N_13putEcP6Status+0x4f>
     e13: e6 16        	inc	$16                     ; 0x2016 <_ZN12_GLOBAL__N_13putEcP6Status+0x51>
     e15: c6 16        	dec	$16                     ; 0x2016 <_ZN12_GLOBAL__N_13putEcP6Status+0x51>
     e17: d0 d9        	bne	$df2 <main+0x899>
     e19: a4 15        	ldy	$15                     ; 0x2015 <_ZN12_GLOBAL__N_13putEcP6Status+0x50>
     e1b: 80 02        	bra	$e1f <main+0x8c6>
     e1d: a0 00        	ldy	#$0
     e1f: 84 fd        	sty	$fd                     ; 0x20fd <_ZN12_GLOBAL__N_112print_stringEPKcP6Status+0x5d>
     e21: a4 18        	ldy	$18                     ; 0x2018 <_ZN12_GLOBAL__N_13putEcP6Status+0x53>
     e23: 84 f3        	sty	$f3                     ; 0x20f3 <_ZN12_GLOBAL__N_112print_stringEPKcP6Status+0x53>
     e25: 86 f5        	stx	$f5                     ; 0x20f5 <_ZN12_GLOBAL__N_112print_stringEPKcP6Status+0x55>
     e27: a2 35        	ldx	#$35
     e29: 86 2a        	stx	$2a                     ; 0x202a <_ZN12_GLOBAL__N_13putEcP6Status+0x65>
     e2b: a2 00        	ldx	#$0
     e2d: 86 2b        	stx	$2b                     ; 0x202b <_ZN12_GLOBAL__N_13putEcP6Status+0x66>
     e2f: 20 5c ff     	jsr	$ff5c <__heap_start+0xa0f8>
     e32: 92 2c        	sta	($2c)                   ; 0x202c <_ZN12_GLOBAL__N_13putEcP6Status+0x67>
     e34: a9 00        	lda	#$0
     e36: 6a           	ror
     e37: 85 2a        	sta	$2a                     ; 0x202a <_ZN12_GLOBAL__N_13putEcP6Status+0x65>
     e39: a6 35        	ldx	$35                     ; 0x2035 <_ZN12_GLOBAL__N_13putEcP6Status+0x70>
     e3b: f0 54        	beq	$e91 <main+0x938>
     e3d: a2 00        	ldx	#$0
     e3f: 86 12        	stx	$12                     ; 0x2012 <_ZN12_GLOBAL__N_13putEcP6Status+0x4d>
     e41: a2 00        	ldx	#$0
     e43: 86 13        	stx	$13                     ; 0x2013 <_ZN12_GLOBAL__N_13putEcP6Status+0x4e>
     e45: a6 12        	ldx	$12                     ; 0x2012 <_ZN12_GLOBAL__N_13putEcP6Status+0x4d>
     e47: a4 13        	ldy	$13                     ; 0x2013 <_ZN12_GLOBAL__N_13putEcP6Status+0x4e>
     e49: 8e 5b 5e     	stx	$5e5b                   ; 0x5e5b <theMP3file>
     e4c: 8c 5c 5e     	sty	$5e5c                   ; 0x5e5c <theMP3file+0x1>
     e4f: a5 26        	lda	$26                     ; 0x2026 <_ZN12_GLOBAL__N_13putEcP6Status+0x61>
     e51: 92 10        	sta	($10)                   ; 0x2010 <_ZN12_GLOBAL__N_13putEcP6Status+0x4b>
     e53: a0 01        	ldy	#$1
     e55: a5 27        	lda	$27                     ; 0x2027 <_ZN12_GLOBAL__N_13putEcP6Status+0x62>
     e57: 91 10        	sta	($10),y                 ; 0x2010 <_ZN12_GLOBAL__N_13putEcP6Status+0x4b>
     e59: a2 cb        	ldx	#$cb
     e5b: 86 12        	stx	$12                     ; 0x2012 <_ZN12_GLOBAL__N_13putEcP6Status+0x4d>
     e5d: a2 31        	ldx	#$31
     e5f: 86 13        	stx	$13                     ; 0x2013 <_ZN12_GLOBAL__N_13putEcP6Status+0x4e>
     e61: 20 ac 21     	jsr	$21ac <printf>
     e64: a2 8c        	ldx	#$8c
     e66: 86 12        	stx	$12                     ; 0x2012 <_ZN12_GLOBAL__N_13putEcP6Status+0x4d>
     e68: a2 31        	ldx	#$31
     e6a: 86 13        	stx	$13                     ; 0x2013 <_ZN12_GLOBAL__N_13putEcP6Status+0x4e>
     e6c: 20 ac 21     	jsr	$21ac <printf>
     e6f: 64 36        	stz	$36                     ; 0x2036 <_ZN12_GLOBAL__N_13putEcP6Status+0x71>
     e71: 20 00 ff     	jsr	$ff00 <__heap_start+0xa09c>
     e74: 92 2c        	sta	($2c)                   ; 0x202c <_ZN12_GLOBAL__N_13putEcP6Status+0x67>
     e76: a9 00        	lda	#$0
     e78: 6a           	ror
     e79: 85 2a        	sta	$2a                     ; 0x202a <_ZN12_GLOBAL__N_13putEcP6Status+0x65>
     e7b: a6 36        	ldx	$36                     ; 0x2036 <_ZN12_GLOBAL__N_13putEcP6Status+0x71>
     e7d: e0 08        	cpx	#$8
     e7f: d0 ee        	bne	$e6f <main+0x916>
     e81: a6 3a        	ldx	$3a                     ; 0x203a <_ZN12_GLOBAL__N_13putEcP6Status+0x75>
     e83: e0 94        	cpx	#$94
     e85: d0 03        	bne	$e8a <main+0x931>
     e87: 4c 11 18     	jmp	$1811 <main+0x12b8>
     e8a: e0 20        	cpx	#$20
     e8c: d0 e1        	bne	$e6f <main+0x916>
     e8e: 4c 11 18     	jmp	$1811 <main+0x12b8>
     e91: b2 2c        	lda	($2c)                   ; 0x202c <_ZN12_GLOBAL__N_13putEcP6Status+0x67>
     e93: 85 29        	sta	$29                     ; 0x2029 <_ZN12_GLOBAL__N_13putEcP6Status+0x64>
     e95: 64 36        	stz	$36                     ; 0x2036 <_ZN12_GLOBAL__N_13putEcP6Status+0x71>
     e97: 20 00 ff     	jsr	$ff00 <__heap_start+0xa09c>
     e9a: 92 2c        	sta	($2c)                   ; 0x202c <_ZN12_GLOBAL__N_13putEcP6Status+0x67>
     e9c: a9 00        	lda	#$0
     e9e: 6a           	ror
     e9f: 85 2a        	sta	$2a                     ; 0x202a <_ZN12_GLOBAL__N_13putEcP6Status+0x65>
     ea1: a6 36        	ldx	$36                     ; 0x2036 <_ZN12_GLOBAL__N_13putEcP6Status+0x71>
     ea3: e0 28        	cpx	#$28
     ea5: d0 03        	bne	$eaa <main+0x951>
     ea7: 4c 3d 0e     	jmp	$e3d <main+0x8e4>
     eaa: e0 2a        	cpx	#$2a
     eac: f0 07        	beq	$eb5 <main+0x95c>
     eae: e0 38        	cpx	#$38
     eb0: d0 e3        	bne	$e95 <main+0x93c>
     eb2: 4c 3d 0e     	jmp	$e3d <main+0x8e4>
     eb5: a9 01        	lda	#$1
     eb7: a2 00        	ldx	#$0
     eb9: 20 1d 2e     	jsr	$2e1d <malloc>
     ebc: a5 29        	lda	$29                     ; 0x2029 <_ZN12_GLOBAL__N_13putEcP6Status+0x64>
     ebe: 92 12        	sta	($12)                   ; 0x2012 <_ZN12_GLOBAL__N_13putEcP6Status+0x4d>
     ec0: a6 12        	ldx	$12                     ; 0x2012 <_ZN12_GLOBAL__N_13putEcP6Status+0x4d>
     ec2: a4 13        	ldy	$13                     ; 0x2013 <_ZN12_GLOBAL__N_13putEcP6Status+0x4e>
     ec4: 8e 5b 5e     	stx	$5e5b                   ; 0x5e5b <theMP3file>
     ec7: 8c 5c 5e     	sty	$5e5c                   ; 0x5e5c <theMP3file+0x1>
     eca: a2 1f        	ldx	#$1f
     ecc: 8e 20 d6     	stx	$d620                   ; 0xd620 <__heap_start+0x77bc>
     ecf: a2 2a        	ldx	#$2a
     ed1: 8e 21 d6     	stx	$d621                   ; 0xd621 <__heap_start+0x77bd>
     ed4: a2 01        	ldx	#$1
     ed6: 8e 22 d6     	stx	$d622                   ; 0xd622 <__heap_start+0x77be>
     ed9: ad 22 d6     	lda	$d622                   ; 0xd622 <__heap_start+0x77be>
     edc: 29 01        	and	#$1
     ede: d0 f9        	bne	$ed9 <main+0x980>
     ee0: 64 2e        	stz	$2e                     ; 0x202e <_ZN12_GLOBAL__N_13putEcP6Status+0x69>
     ee2: a2 03        	ldx	#$3
     ee4: 8e 01 d7     	stx	$d701                   ; 0xd701 <__heap_start+0x789d>
     ee7: 9c 02 d7     	stz	$d702                   ; 0xd702 <__heap_start+0x789e>
     eea: 9c 02 d7     	stz	$d702                   ; 0xd702 <__heap_start+0x789e>
     eed: a2 e0        	ldx	#$e0
     eef: 8e 03 d7     	stx	$d703                   ; 0xd703 <__heap_start+0x789f>
     ef2: a2 01        	ldx	#$1
     ef4: 8e 00 d7     	stx	$d700                   ; 0xd700 <__heap_start+0x789c>
     ef7: 9c 00 d7     	stz	$d700                   ; 0xd700 <__heap_start+0x789c>
     efa: ae 00 d7     	ldx	$d700                   ; 0xd700 <__heap_start+0x789c>
     efd: 30 fb        	bmi	$efa <main+0x9a1>
     eff: a9 3b        	lda	#$3b
     f01: a2 12        	ldx	#$12
     f03: a0 11        	ldy	#$11
     f05: 84 12        	sty	$12                     ; 0x2012 <_ZN12_GLOBAL__N_13putEcP6Status+0x4d>
     f07: a0 32        	ldy	#$32
     f09: 84 13        	sty	$13                     ; 0x2013 <_ZN12_GLOBAL__N_13putEcP6Status+0x4e>
     f0b: 20 42 1e     	jsr	$1e42 <initVS1053Plugin>
     f0e: a9 e8        	lda	#$e8
     f10: a2 03        	ldx	#$3
     f12: a0 87        	ldy	#$87
     f14: 84 12        	sty	$12                     ; 0x2012 <_ZN12_GLOBAL__N_13putEcP6Status+0x4d>
     f16: a0 56        	ldy	#$56
     f18: 84 13        	sty	$13                     ; 0x2013 <_ZN12_GLOBAL__N_13putEcP6Status+0x4e>
     f1a: 20 42 1e     	jsr	$1e42 <initVS1053Plugin>
     f1d: ae 5b 5e     	ldx	$5e5b                   ; 0x5e5b <theMP3file>
     f20: ac 5c 5e     	ldy	$5e5c                   ; 0x5e5c <theMP3file+0x1>
     f23: 86 28        	stx	$28                     ; 0x2028 <_ZN12_GLOBAL__N_13putEcP6Status+0x63>
     f25: 84 29        	sty	$29                     ; 0x2029 <_ZN12_GLOBAL__N_13putEcP6Status+0x64>
     f27: a2 40        	ldx	#$40
     f29: a4 2c        	ldy	$2c                     ; 0x202c <_ZN12_GLOBAL__N_13putEcP6Status+0x67>
     f2b: 84 2a        	sty	$2a                     ; 0x202a <_ZN12_GLOBAL__N_13putEcP6Status+0x65>
     f2d: a4 2d        	ldy	$2d                     ; 0x202d <_ZN12_GLOBAL__N_13putEcP6Status+0x68>
     f2f: 84 2b        	sty	$2b                     ; 0x202b <_ZN12_GLOBAL__N_13putEcP6Status+0x66>
     f31: a4 2a        	ldy	$2a                     ; 0x202a <_ZN12_GLOBAL__N_13putEcP6Status+0x65>
     f33: 84 12        	sty	$12                     ; 0x2012 <_ZN12_GLOBAL__N_13putEcP6Status+0x4d>
     f35: a4 2b        	ldy	$2b                     ; 0x202b <_ZN12_GLOBAL__N_13putEcP6Status+0x66>
     f37: 84 13        	sty	$13                     ; 0x2013 <_ZN12_GLOBAL__N_13putEcP6Status+0x4e>
     f39: a4 28        	ldy	$28                     ; 0x2028 <_ZN12_GLOBAL__N_13putEcP6Status+0x63>
     f3b: 84 14        	sty	$14                     ; 0x2014 <_ZN12_GLOBAL__N_13putEcP6Status+0x4f>
     f3d: a4 29        	ldy	$29                     ; 0x2029 <_ZN12_GLOBAL__N_13putEcP6Status+0x64>
     f3f: 84 15        	sty	$15                     ; 0x2015 <_ZN12_GLOBAL__N_13putEcP6Status+0x50>
     f41: 86 2f        	stx	$2f                     ; 0x202f <_ZN12_GLOBAL__N_13putEcP6Status+0x6a>
     f43: a2 00        	ldx	#$0
     f45: a9 80        	lda	#$80
     f47: 20 75 18     	jsr	$1875 <fileRead>
     f4a: a6 2f        	ldx	$2f                     ; 0x202f <_ZN12_GLOBAL__N_13putEcP6Status+0x6a>
     f4c: ca           	dex
     f4d: a5 2a        	lda	$2a                     ; 0x202a <_ZN12_GLOBAL__N_13putEcP6Status+0x65>
     f4f: 18           	clc
     f50: 69 80        	adc	#$80
     f52: 85 2a        	sta	$2a                     ; 0x202a <_ZN12_GLOBAL__N_13putEcP6Status+0x65>
     f54: a5 2b        	lda	$2b                     ; 0x202b <_ZN12_GLOBAL__N_13putEcP6Status+0x66>
     f56: 69 00        	adc	#$0
     f58: 85 2b        	sta	$2b                     ; 0x202b <_ZN12_GLOBAL__N_13putEcP6Status+0x66>
     f5a: 8a           	txa
     f5b: d0 d4        	bne	$f31 <main+0x9d8>
     f5d: a0 01        	ldy	#$1
     f5f: 84 30        	sty	$30                     ; 0x2030 <_ZN12_GLOBAL__N_13putEcP6Status+0x6b>
     f61: a2 42        	ldx	#$42
     f63: 86 31        	stx	$31                     ; 0x2031 <_ZN12_GLOBAL__N_13putEcP6Status+0x6c>
     f65: 8e 14 d0     	stx	$d014                   ; 0xd014 <__heap_start+0x71b0>
     f68: 64 28        	stz	$28                     ; 0x2028 <_ZN12_GLOBAL__N_13putEcP6Status+0x63>
     f6a: 9c 15 d0     	stz	$d015                   ; 0xd015 <__heap_start+0x71b1>
     f6d: 84 32        	sty	$32                     ; 0x2032 <_ZN12_GLOBAL__N_13putEcP6Status+0x6d>
     f6f: 8c 16 d0     	sty	$d016                   ; 0xd016 <__heap_start+0x71b2>
     f72: 9c 17 d0     	stz	$d017                   ; 0xd017 <__heap_start+0x71b3>
     f75: a2 a9        	ldx	#$a9
     f77: 86 12        	stx	$12                     ; 0x2012 <_ZN12_GLOBAL__N_13putEcP6Status+0x4d>
     f79: a2 31        	ldx	#$31
     f7b: 86 13        	stx	$13                     ; 0x2013 <_ZN12_GLOBAL__N_13putEcP6Status+0x4e>
     f7d: 20 c0 19     	jsr	$19c0 <textPrint>
     f80: a2 44        	ldx	#$44
     f82: 86 31        	stx	$31                     ; 0x2031 <_ZN12_GLOBAL__N_13putEcP6Status+0x6c>
     f84: 8e 14 d0     	stx	$d014                   ; 0xd014 <__heap_start+0x71b0>
     f87: 9c 15 d0     	stz	$d015                   ; 0xd015 <__heap_start+0x71b1>
     f8a: a2 02        	ldx	#$2
     f8c: 86 32        	stx	$32                     ; 0x2032 <_ZN12_GLOBAL__N_13putEcP6Status+0x6d>
     f8e: 8e 16 d0     	stx	$d016                   ; 0xd016 <__heap_start+0x71b2>
     f91: 9c 17 d0     	stz	$d017                   ; 0xd017 <__heap_start+0x71b3>
     f94: a2 32        	ldx	#$32
     f96: 86 12        	stx	$12                     ; 0x2012 <_ZN12_GLOBAL__N_13putEcP6Status+0x4d>
     f98: a2 31        	ldx	#$31
     f9a: 86 13        	stx	$13                     ; 0x2013 <_ZN12_GLOBAL__N_13putEcP6Status+0x4e>
     f9c: 20 c0 19     	jsr	$19c0 <textPrint>
     f9f: a2 47        	ldx	#$47
     fa1: 86 31        	stx	$31                     ; 0x2031 <_ZN12_GLOBAL__N_13putEcP6Status+0x6c>
     fa3: 8e 14 d0     	stx	$d014                   ; 0xd014 <__heap_start+0x71b0>
     fa6: 9c 15 d0     	stz	$d015                   ; 0xd015 <__heap_start+0x71b1>
     fa9: a2 03        	ldx	#$3
     fab: 86 32        	stx	$32                     ; 0x2032 <_ZN12_GLOBAL__N_13putEcP6Status+0x6d>
     fad: 8e 16 d0     	stx	$d016                   ; 0xd016 <__heap_start+0x71b2>
     fb0: 9c 17 d0     	stz	$d017                   ; 0xd017 <__heap_start+0x71b3>
     fb3: a2 a1        	ldx	#$a1
     fb5: 86 12        	stx	$12                     ; 0x2012 <_ZN12_GLOBAL__N_13putEcP6Status+0x4d>
     fb7: a2 31        	ldx	#$31
     fb9: 86 13        	stx	$13                     ; 0x2013 <_ZN12_GLOBAL__N_13putEcP6Status+0x4e>
     fbb: 20 c0 19     	jsr	$19c0 <textPrint>
     fbe: 64 31        	stz	$31                     ; 0x2031 <_ZN12_GLOBAL__N_13putEcP6Status+0x6c>
     fc0: 9c 14 d0     	stz	$d014                   ; 0xd014 <__heap_start+0x71b0>
     fc3: 9c 15 d0     	stz	$d015                   ; 0xd015 <__heap_start+0x71b1>
     fc6: 64 32        	stz	$32                     ; 0x2032 <_ZN12_GLOBAL__N_13putEcP6Status+0x6d>
     fc8: 9c 16 d0     	stz	$d016                   ; 0xd016 <__heap_start+0x71b2>
     fcb: 9c 17 d0     	stz	$d017                   ; 0xd017 <__heap_start+0x71b3>
     fce: a5 26        	lda	$26                     ; 0x2026 <_ZN12_GLOBAL__N_13putEcP6Status+0x61>
     fd0: 92 10        	sta	($10)                   ; 0x2010 <_ZN12_GLOBAL__N_13putEcP6Status+0x4b>
     fd2: a0 01        	ldy	#$1
     fd4: a5 27        	lda	$27                     ; 0x2027 <_ZN12_GLOBAL__N_13putEcP6Status+0x62>
     fd6: 91 10        	sta	($10),y                 ; 0x2010 <_ZN12_GLOBAL__N_13putEcP6Status+0x4b>
     fd8: a2 a9        	ldx	#$a9
     fda: 86 12        	stx	$12                     ; 0x2012 <_ZN12_GLOBAL__N_13putEcP6Status+0x4d>
     fdc: a2 30        	ldx	#$30
     fde: 86 13        	stx	$13                     ; 0x2013 <_ZN12_GLOBAL__N_13putEcP6Status+0x4e>
     fe0: 20 ac 21     	jsr	$21ac <printf>
     fe3: a2 08        	ldx	#$8
     fe5: b2 2c        	lda	($2c)                   ; 0x202c <_ZN12_GLOBAL__N_13putEcP6Status+0x67>
     fe7: 8d 07 d7     	sta	$d707                   ; 0xd707 <__heap_start+0x78a3>
     fea: a0 ff        	ldy	#$ff
     fec: c6 28        	dec	$28                     ; 0x2028 <_ZN12_GLOBAL__N_13putEcP6Status+0x63>
     fee: c4 28        	cpy	$28                     ; 0x2028 <_ZN12_GLOBAL__N_13putEcP6Status+0x63>
     ff0: d0 01        	bne	$ff3 <main+0xa9a>
     ff2: ca           	dex
     ff3: e6 2c        	inc	$2c                     ; 0x202c <_ZN12_GLOBAL__N_13putEcP6Status+0x67>
     ff5: d0 02        	bne	$ff9 <main+0xaa0>
     ff7: e6 2d        	inc	$2d                     ; 0x202d <_ZN12_GLOBAL__N_13putEcP6Status+0x68>
     ff9: 8a           	txa
     ffa: d0 e9        	bne	$fe5 <main+0xa8c>
     ffc: a5 28        	lda	$28                     ; 0x2028 <_ZN12_GLOBAL__N_13putEcP6Status+0x63>
     ffe: d0 e5        	bne	$fe5 <main+0xa8c>
    1000: 18           	clc
    1001: a5 10        	lda	$10                     ; 0x2010 <_ZN12_GLOBAL__N_13putEcP6Status+0x4b>
    1003: 69 5d        	adc	#$5d
    1005: 48           	pha
    1006: a5 11        	lda	$11                     ; 0x2011 <_ZN12_GLOBAL__N_13putEcP6Status+0x4c>
    1008: 69 00        	adc	#$0
    100a: 85 12        	sta	$12                     ; 0x2012 <_ZN12_GLOBAL__N_13putEcP6Status+0x4d>
    100c: 68           	pla
    100d: 18           	clc
    100e: 69 00        	adc	#$0
    1010: aa           	tax
    1011: a5 12        	lda	$12                     ; 0x2012 <_ZN12_GLOBAL__N_13putEcP6Status+0x4d>
    1013: 69 08        	adc	#$8
    1015: 86 12        	stx	$12                     ; 0x2012 <_ZN12_GLOBAL__N_13putEcP6Status+0x4d>
    1017: 85 13        	sta	$13                     ; 0x2013 <_ZN12_GLOBAL__N_13putEcP6Status+0x4e>
    1019: a0 08        	ldy	#$8
    101b: a2 00        	ldx	#$0
    101d: 8a           	txa
    101e: 5a           	phy
    101f: a0 10        	ldy	#$10
    1021: 91 10        	sta	($10),y                 ; 0x2010 <_ZN12_GLOBAL__N_13putEcP6Status+0x4b>
    1023: 7a           	ply
    1024: b2 12        	lda	($12)                   ; 0x2012 <_ZN12_GLOBAL__N_13putEcP6Status+0x4d>
    1026: 8d 07 d7     	sta	$d707                   ; 0xd707 <__heap_start+0x78a3>
    1029: ca           	dex
    102a: e0 ff        	cpx	#$ff
    102c: d0 01        	bne	$102f <main+0xad6>
    102e: 88           	dey
    102f: e6 12        	inc	$12                     ; 0x2012 <_ZN12_GLOBAL__N_13putEcP6Status+0x4d>
    1031: d0 02        	bne	$1035 <main+0xadc>
    1033: e6 13        	inc	$13                     ; 0x2013 <_ZN12_GLOBAL__N_13putEcP6Status+0x4e>
    1035: 98           	tya
    1036: d0 ec        	bne	$1024 <main+0xacb>
    1038: 8a           	txa
    1039: d0 e9        	bne	$1024 <main+0xacb>
    103b: 18           	clc
    103c: a5 10        	lda	$10                     ; 0x2010 <_ZN12_GLOBAL__N_13putEcP6Status+0x4b>
    103e: 69 5d        	adc	#$5d
    1040: 48           	pha
    1041: a5 11        	lda	$11                     ; 0x2011 <_ZN12_GLOBAL__N_13putEcP6Status+0x4c>
    1043: 69 20        	adc	#$20
    1045: 85 12        	sta	$12                     ; 0x2012 <_ZN12_GLOBAL__N_13putEcP6Status+0x4d>
    1047: 68           	pla
    1048: 18           	clc
    1049: 69 02        	adc	#$2
    104b: 85 2a        	sta	$2a                     ; 0x202a <_ZN12_GLOBAL__N_13putEcP6Status+0x65>
    104d: a5 12        	lda	$12                     ; 0x2012 <_ZN12_GLOBAL__N_13putEcP6Status+0x4d>
    104f: 69 00        	adc	#$0
    1051: 48           	pha
    1052: a5 2a        	lda	$2a                     ; 0x202a <_ZN12_GLOBAL__N_13putEcP6Status+0x65>
    1054: a0 14        	ldy	#$14
    1056: 91 10        	sta	($10),y                 ; 0x2010 <_ZN12_GLOBAL__N_13putEcP6Status+0x4b>
    1058: 68           	pla
    1059: 88           	dey
    105a: 91 10        	sta	($10),y                 ; 0x2010 <_ZN12_GLOBAL__N_13putEcP6Status+0x4b>
    105c: 85 2b        	sta	$2b                     ; 0x202b <_ZN12_GLOBAL__N_13putEcP6Status+0x66>
    105e: a2 10        	ldx	#$10
    1060: 8a           	txa
    1061: a0 16        	ldy	#$16
    1063: 91 10        	sta	($10),y                 ; 0x2010 <_ZN12_GLOBAL__N_13putEcP6Status+0x4b>
    1065: 64 12        	stz	$12                     ; 0x2012 <_ZN12_GLOBAL__N_13putEcP6Status+0x4d>
    1067: a9 00        	lda	#$0
    1069: a0 11        	ldy	#$11
    106b: 91 10        	sta	($10),y                 ; 0x2010 <_ZN12_GLOBAL__N_13putEcP6Status+0x4b>
    106d: a0 0b        	ldy	#$b
    106f: 91 10        	sta	($10),y                 ; 0x2010 <_ZN12_GLOBAL__N_13putEcP6Status+0x4b>
    1071: 64 2d        	stz	$2d                     ; 0x202d <_ZN12_GLOBAL__N_13putEcP6Status+0x68>
    1073: a0 15        	ldy	#$15
    1075: 91 10        	sta	($10),y                 ; 0x2010 <_ZN12_GLOBAL__N_13putEcP6Status+0x4b>
    1077: a0 0a        	ldy	#$a
    1079: 91 10        	sta	($10),y                 ; 0x2010 <_ZN12_GLOBAL__N_13putEcP6Status+0x4b>
    107b: a0 17        	ldy	#$17
    107d: 91 10        	sta	($10),y                 ; 0x2010 <_ZN12_GLOBAL__N_13putEcP6Status+0x4b>
    107f: 64 2e        	stz	$2e                     ; 0x202e <_ZN12_GLOBAL__N_13putEcP6Status+0x69>
    1081: a5 2d        	lda	$2d                     ; 0x202d <_ZN12_GLOBAL__N_13putEcP6Status+0x68>
    1083: a0 0e        	ldy	#$e
    1085: 91 10        	sta	($10),y                 ; 0x2010 <_ZN12_GLOBAL__N_13putEcP6Status+0x4b>
    1087: a5 2e        	lda	$2e                     ; 0x202e <_ZN12_GLOBAL__N_13putEcP6Status+0x69>
    1089: c8           	iny
    108a: 91 10        	sta	($10),y                 ; 0x2010 <_ZN12_GLOBAL__N_13putEcP6Status+0x4b>
    108c: 64 15        	stz	$15                     ; 0x2015 <_ZN12_GLOBAL__N_13putEcP6Status+0x50>
    108e: a2 00        	ldx	#$0
    1090: 64 14        	stz	$14                     ; 0x2014 <_ZN12_GLOBAL__N_13putEcP6Status+0x4f>
    1092: 18           	clc
    1093: 86 1a        	stx	$1a                     ; 0x201a <_ZN12_GLOBAL__N_13putEcP6Status+0x55>
    1095: 8a           	txa
    1096: 69 14        	adc	#$14
    1098: aa           	tax
    1099: a5 14        	lda	$14                     ; 0x2014 <_ZN12_GLOBAL__N_13putEcP6Status+0x4f>
    109b: 69 18        	adc	#$18
    109d: a0 07        	ldy	#$7
    109f: 8c 01 d7     	sty	$d701                   ; 0xd701 <__heap_start+0x789d>
    10a2: 9c 02 d7     	stz	$d702                   ; 0xd702 <__heap_start+0x789e>
    10a5: 8e 02 d7     	stx	$d702                   ; 0xd702 <__heap_start+0x789e>
    10a8: 8d 03 d7     	sta	$d703                   ; 0xd703 <__heap_start+0x789f>
    10ab: a0 01        	ldy	#$1
    10ad: 8c 00 d7     	sty	$d700                   ; 0xd700 <__heap_start+0x789c>
    10b0: 9c 00 d7     	stz	$d700                   ; 0xd700 <__heap_start+0x789c>
    10b3: ad 00 d7     	lda	$d700                   ; 0xd700 <__heap_start+0x789c>
    10b6: 30 fb        	bmi	$10b3 <main+0xb5a>
    10b8: a0 06        	ldy	#$6
    10ba: 8c 01 d7     	sty	$d701                   ; 0xd701 <__heap_start+0x789d>
    10bd: 9c 02 d7     	stz	$d702                   ; 0xd702 <__heap_start+0x789e>
    10c0: a0 03        	ldy	#$3
    10c2: 8c 00 d7     	sty	$d700                   ; 0xd700 <__heap_start+0x789c>
    10c5: 9c 00 d7     	stz	$d700                   ; 0xd700 <__heap_start+0x789c>
    10c8: ad 00 d7     	lda	$d700                   ; 0xd700 <__heap_start+0x789c>
    10cb: 30 fb        	bmi	$10c8 <main+0xb6f>
    10cd: ac 02 d7     	ldy	$d702                   ; 0xd702 <__heap_start+0x789e>
    10d0: 84 16        	sty	$16                     ; 0x2016 <_ZN12_GLOBAL__N_13putEcP6Status+0x51>
    10d2: ac 03 d7     	ldy	$d703                   ; 0xd703 <__heap_start+0x789f>
    10d5: 84 18        	sty	$18                     ; 0x2018 <_ZN12_GLOBAL__N_13putEcP6Status+0x53>
    10d7: 18           	clc
    10d8: a5 10        	lda	$10                     ; 0x2010 <_ZN12_GLOBAL__N_13putEcP6Status+0x4b>
    10da: 69 7b        	adc	#$7b
    10dc: 85 12        	sta	$12                     ; 0x2012 <_ZN12_GLOBAL__N_13putEcP6Status+0x4d>
    10de: a5 11        	lda	$11                     ; 0x2011 <_ZN12_GLOBAL__N_13putEcP6Status+0x4c>
    10e0: 69 20        	adc	#$20
    10e2: 85 17        	sta	$17                     ; 0x2017 <_ZN12_GLOBAL__N_13putEcP6Status+0x52>
    10e4: 85 13        	sta	$13                     ; 0x2013 <_ZN12_GLOBAL__N_13putEcP6Status+0x4e>
    10e6: a5 15        	lda	$15                     ; 0x2015 <_ZN12_GLOBAL__N_13putEcP6Status+0x50>
    10e8: 18           	clc
    10e9: 65 12        	adc	$12                     ; 0x2012 <_ZN12_GLOBAL__N_13putEcP6Status+0x4d>
    10eb: 85 19        	sta	$19                     ; 0x2019 <_ZN12_GLOBAL__N_13putEcP6Status+0x54>
    10ed: a4 15        	ldy	$15                     ; 0x2015 <_ZN12_GLOBAL__N_13putEcP6Status+0x50>
    10ef: a5 16        	lda	$16                     ; 0x2016 <_ZN12_GLOBAL__N_13putEcP6Status+0x51>
    10f1: 91 12        	sta	($12),y                 ; 0x2012 <_ZN12_GLOBAL__N_13putEcP6Status+0x4d>
    10f3: a5 17        	lda	$17                     ; 0x2017 <_ZN12_GLOBAL__N_13putEcP6Status+0x52>
    10f5: 69 00        	adc	#$0
    10f7: a6 19        	ldx	$19                     ; 0x2019 <_ZN12_GLOBAL__N_13putEcP6Status+0x54>
    10f9: 86 16        	stx	$16                     ; 0x2016 <_ZN12_GLOBAL__N_13putEcP6Status+0x51>
    10fb: 85 17        	sta	$17                     ; 0x2017 <_ZN12_GLOBAL__N_13putEcP6Status+0x52>
    10fd: a0 01        	ldy	#$1
    10ff: a5 18        	lda	$18                     ; 0x2018 <_ZN12_GLOBAL__N_13putEcP6Status+0x53>
    1101: 91 16        	sta	($16),y                 ; 0x2016 <_ZN12_GLOBAL__N_13putEcP6Status+0x51>
    1103: a6 1a        	ldx	$1a                     ; 0x201a <_ZN12_GLOBAL__N_13putEcP6Status+0x55>
    1105: e8           	inx
    1106: d0 02        	bne	$110a <main+0xbb1>
    1108: e6 14        	inc	$14                     ; 0x2014 <_ZN12_GLOBAL__N_13putEcP6Status+0x4f>
    110a: 18           	clc
    110b: a5 15        	lda	$15                     ; 0x2015 <_ZN12_GLOBAL__N_13putEcP6Status+0x50>
    110d: 69 02        	adc	#$2
    110f: 85 15        	sta	$15                     ; 0x2015 <_ZN12_GLOBAL__N_13putEcP6Status+0x50>
    1111: a5 14        	lda	$14                     ; 0x2014 <_ZN12_GLOBAL__N_13putEcP6Status+0x4f>
    1113: f0 03        	beq	$1118 <main+0xbbf>
    1115: 4c 92 10     	jmp	$1092 <main+0xb39>
    1118: e0 0f        	cpx	#$f
    111a: f0 03        	beq	$111f <main+0xbc6>
    111c: 4c 92 10     	jmp	$1092 <main+0xb39>
    111f: a0 11        	ldy	#$11
    1121: b1 10        	lda	($10),y                 ; 0x2010 <_ZN12_GLOBAL__N_13putEcP6Status+0x4b>
    1123: 29 01        	and	#$1
    1125: a0 01        	ldy	#$1
    1127: 48           	pha
    1128: 98           	tya
    1129: a0 11        	ldy	#$11
    112b: 91 10        	sta	($10),y                 ; 0x2010 <_ZN12_GLOBAL__N_13putEcP6Status+0x4b>
    112d: 68           	pla
    112e: d0 56        	bne	$1186 <main+0xc2d>
    1130: a9 1f        	lda	#$1f
    1132: a0 04        	ldy	#$4
    1134: 31 12        	and	($12),y                 ; 0x2012 <_ZN12_GLOBAL__N_13putEcP6Status+0x4d>
    1136: f0 46        	beq	$117e <main+0xc25>
    1138: 64 31        	stz	$31                     ; 0x2031 <_ZN12_GLOBAL__N_13putEcP6Status+0x6c>
    113a: 9c 14 d0     	stz	$d014                   ; 0xd014 <__heap_start+0x71b0>
    113d: 9c 15 d0     	stz	$d015                   ; 0xd015 <__heap_start+0x71b1>
    1140: 64 32        	stz	$32                     ; 0x2032 <_ZN12_GLOBAL__N_13putEcP6Status+0x6d>
    1142: 9c 16 d0     	stz	$d016                   ; 0xd016 <__heap_start+0x71b2>
    1145: 9c 17 d0     	stz	$d017                   ; 0xd017 <__heap_start+0x71b3>
    1148: a5 26        	lda	$26                     ; 0x2026 <_ZN12_GLOBAL__N_13putEcP6Status+0x61>
    114a: 92 10        	sta	($10)                   ; 0x2010 <_ZN12_GLOBAL__N_13putEcP6Status+0x4b>
    114c: a0 01        	ldy	#$1
    114e: a5 27        	lda	$27                     ; 0x2027 <_ZN12_GLOBAL__N_13putEcP6Status+0x62>
    1150: 91 10        	sta	($10),y                 ; 0x2010 <_ZN12_GLOBAL__N_13putEcP6Status+0x4b>
    1152: a2 e0        	ldx	#$e0
    1154: 86 12        	stx	$12                     ; 0x2012 <_ZN12_GLOBAL__N_13putEcP6Status+0x4d>
    1156: a2 30        	ldx	#$30
    1158: 86 13        	stx	$13                     ; 0x2013 <_ZN12_GLOBAL__N_13putEcP6Status+0x4e>
    115a: 20 ac 21     	jsr	$21ac <printf>
    115d: a2 3e        	ldx	#$3e
    115f: 86 31        	stx	$31                     ; 0x2031 <_ZN12_GLOBAL__N_13putEcP6Status+0x6c>
    1161: 8e 14 d0     	stx	$d014                   ; 0xd014 <__heap_start+0x71b0>
    1164: 9c 15 d0     	stz	$d015                   ; 0xd015 <__heap_start+0x71b1>
    1167: a2 08        	ldx	#$8
    1169: 86 32        	stx	$32                     ; 0x2032 <_ZN12_GLOBAL__N_13putEcP6Status+0x6d>
    116b: 8e 16 d0     	stx	$d016                   ; 0xd016 <__heap_start+0x71b2>
    116e: 9c 17 d0     	stz	$d017                   ; 0xd017 <__heap_start+0x71b3>
    1171: a2 b8        	ldx	#$b8
    1173: 86 12        	stx	$12                     ; 0x2012 <_ZN12_GLOBAL__N_13putEcP6Status+0x4d>
    1175: a2 30        	ldx	#$30
    1177: 86 13        	stx	$13                     ; 0x2013 <_ZN12_GLOBAL__N_13putEcP6Status+0x4e>
    1179: 20 c0 19     	jsr	$19c0 <textPrint>
    117c: 80 08        	bra	$1186 <main+0xc2d>
    117e: 64 12        	stz	$12                     ; 0x2012 <_ZN12_GLOBAL__N_13putEcP6Status+0x4d>
    1180: a9 00        	lda	#$0
    1182: a0 11        	ldy	#$11
    1184: 91 10        	sta	($10),y                 ; 0x2010 <_ZN12_GLOBAL__N_13putEcP6Status+0x4b>
    1186: 64 36        	stz	$36                     ; 0x2036 <_ZN12_GLOBAL__N_13putEcP6Status+0x71>
    1188: 18           	clc
    1189: a5 10        	lda	$10                     ; 0x2010 <_ZN12_GLOBAL__N_13putEcP6Status+0x4b>
    118b: 69 1c        	adc	#$1c
    118d: 85 16        	sta	$16                     ; 0x2016 <_ZN12_GLOBAL__N_13putEcP6Status+0x51>
    118f: a5 11        	lda	$11                     ; 0x2011 <_ZN12_GLOBAL__N_13putEcP6Status+0x4c>
    1191: 69 00        	adc	#$0
    1193: 85 17        	sta	$17                     ; 0x2017 <_ZN12_GLOBAL__N_13putEcP6Status+0x52>
    1195: a2 35        	ldx	#$35
    1197: 86 12        	stx	$12                     ; 0x2012 <_ZN12_GLOBAL__N_13putEcP6Status+0x4d>
    1199: a2 00        	ldx	#$0
    119b: 86 13        	stx	$13                     ; 0x2013 <_ZN12_GLOBAL__N_13putEcP6Status+0x4e>
    119d: a5 16        	lda	$16                     ; 0x2016 <_ZN12_GLOBAL__N_13putEcP6Status+0x51>
    119f: a0 0c        	ldy	#$c
    11a1: 91 10        	sta	($10),y                 ; 0x2010 <_ZN12_GLOBAL__N_13putEcP6Status+0x4b>
    11a3: a5 17        	lda	$17                     ; 0x2017 <_ZN12_GLOBAL__N_13putEcP6Status+0x52>
    11a5: c8           	iny
    11a6: 91 10        	sta	($10),y                 ; 0x2010 <_ZN12_GLOBAL__N_13putEcP6Status+0x4b>
    11a8: 20 00 ff     	jsr	$ff00 <__heap_start+0xa09c>
    11ab: 92 16        	sta	($16)                   ; 0x2016 <_ZN12_GLOBAL__N_13putEcP6Status+0x51>
    11ad: a9 00        	lda	#$0
    11af: 6a           	ror
    11b0: 85 12        	sta	$12                     ; 0x2012 <_ZN12_GLOBAL__N_13putEcP6Status+0x4d>
    11b2: a6 36        	ldx	$36                     ; 0x2036 <_ZN12_GLOBAL__N_13putEcP6Status+0x71>
    11b4: e0 08        	cpx	#$8
    11b6: d0 26        	bne	$11de <main+0xc85>
    11b8: a6 3a        	ldx	$3a                     ; 0x203a <_ZN12_GLOBAL__N_13putEcP6Status+0x75>
    11ba: e0 81        	cpx	#$81
    11bc: f0 07        	beq	$11c5 <main+0xc6c>
    11be: e0 92        	cpx	#$92
    11c0: d0 1c        	bne	$11de <main+0xc85>
    11c2: 4c 04 18     	jmp	$1804 <main+0x12ab>
    11c5: a0 0b        	ldy	#$b
    11c7: b1 10        	lda	($10),y                 ; 0x2010 <_ZN12_GLOBAL__N_13putEcP6Status+0x4b>
    11c9: d0 08        	bne	$11d3 <main+0xc7a>
    11cb: 20 c0 1d     	jsr	$1dc0 <setTextLUT2>
    11ce: a2 01        	ldx	#$1
    11d0: 8a           	txa
    11d1: 80 07        	bra	$11da <main+0xc81>
    11d3: 20 3c 1d     	jsr	$1d3c <setTextLUT1>
    11d6: 64 12        	stz	$12                     ; 0x2012 <_ZN12_GLOBAL__N_13putEcP6Status+0x4d>
    11d8: a9 00        	lda	#$0
    11da: a0 0b        	ldy	#$b
    11dc: 91 10        	sta	($10),y                 ; 0x2010 <_ZN12_GLOBAL__N_13putEcP6Status+0x4b>
    11de: a0 17        	ldy	#$17
    11e0: b1 10        	lda	($10),y                 ; 0x2010 <_ZN12_GLOBAL__N_13putEcP6Status+0x4b>
    11e2: f0 30        	beq	$1214 <main+0xcbb>
    11e4: a0 0a        	ldy	#$a
    11e6: b1 10        	lda	($10),y                 ; 0x2010 <_ZN12_GLOBAL__N_13putEcP6Status+0x4b>
    11e8: aa           	tax
    11e9: c9 81        	cmp	#$81
    11eb: f0 0e        	beq	$11fb <main+0xca2>
    11ed: a0 01        	ldy	#$1
    11ef: 98           	tya
    11f0: a0 17        	ldy	#$17
    11f2: 91 10        	sta	($10),y                 ; 0x2010 <_ZN12_GLOBAL__N_13putEcP6Status+0x4b>
    11f4: e0 92        	cpx	#$92
    11f6: d0 24        	bne	$121c <main+0xcc3>
    11f8: 4c 04 18     	jmp	$1804 <main+0x12ab>
    11fb: a0 0b        	ldy	#$b
    11fd: b1 10        	lda	($10),y                 ; 0x2010 <_ZN12_GLOBAL__N_13putEcP6Status+0x4b>
    11ff: d0 08        	bne	$1209 <main+0xcb0>
    1201: 20 c0 1d     	jsr	$1dc0 <setTextLUT2>
    1204: a2 01        	ldx	#$1
    1206: 8a           	txa
    1207: 80 07        	bra	$1210 <main+0xcb7>
    1209: 20 3c 1d     	jsr	$1d3c <setTextLUT1>
    120c: 64 12        	stz	$12                     ; 0x2012 <_ZN12_GLOBAL__N_13putEcP6Status+0x4d>
    120e: a9 00        	lda	#$0
    1210: a0 0b        	ldy	#$b
    1212: 91 10        	sta	($10),y                 ; 0x2010 <_ZN12_GLOBAL__N_13putEcP6Status+0x4b>
    1214: a0 10        	ldy	#$10
    1216: b1 10        	lda	($10),y                 ; 0x2010 <_ZN12_GLOBAL__N_13putEcP6Status+0x4b>
    1218: a0 17        	ldy	#$17
    121a: 91 10        	sta	($10),y                 ; 0x2010 <_ZN12_GLOBAL__N_13putEcP6Status+0x4b>
    121c: a2 25        	ldx	#$25
    121e: 8a           	txa
    121f: a0 1b        	ldy	#$1b
    1221: 91 10        	sta	($10),y                 ; 0x2010 <_ZN12_GLOBAL__N_13putEcP6Status+0x4b>
    1223: ca           	dex
    1224: 8a           	txa
    1225: 88           	dey
    1226: 91 10        	sta	($10),y                 ; 0x2010 <_ZN12_GLOBAL__N_13putEcP6Status+0x4b>
    1228: a2 c9        	ldx	#$c9
    122a: 8a           	txa
    122b: 88           	dey
    122c: 91 10        	sta	($10),y                 ; 0x2010 <_ZN12_GLOBAL__N_13putEcP6Status+0x4b>
    122e: a2 01        	ldx	#$1
    1230: a9 00        	lda	#$0
    1232: a0 c9        	ldy	#$c9
    1234: 48           	pha
    1235: 98           	tya
    1236: a0 18        	ldy	#$18
    1238: 91 10        	sta	($10),y                 ; 0x2010 <_ZN12_GLOBAL__N_13putEcP6Status+0x4b>
    123a: 68           	pla
    123b: 64 18        	stz	$18                     ; 0x2018 <_ZN12_GLOBAL__N_13putEcP6Status+0x53>
    123d: 86 1a        	stx	$1a                     ; 0x201a <_ZN12_GLOBAL__N_13putEcP6Status+0x55>
    123f: 18           	clc
    1240: 48           	pha
    1241: a5 10        	lda	$10                     ; 0x2010 <_ZN12_GLOBAL__N_13putEcP6Status+0x4b>
    1243: 69 7b        	adc	#$7b
    1245: 85 12        	sta	$12                     ; 0x2012 <_ZN12_GLOBAL__N_13putEcP6Status+0x4d>
    1247: a5 11        	lda	$11                     ; 0x2011 <_ZN12_GLOBAL__N_13putEcP6Status+0x4c>
    1249: 69 20        	adc	#$20
    124b: 85 13        	sta	$13                     ; 0x2013 <_ZN12_GLOBAL__N_13putEcP6Status+0x4e>
    124d: 68           	pla
    124e: 85 1b        	sta	$1b                     ; 0x201b <_ZN12_GLOBAL__N_13putEcP6Status+0x56>
    1250: 18           	clc
    1251: 65 12        	adc	$12                     ; 0x2012 <_ZN12_GLOBAL__N_13putEcP6Status+0x4d>
    1253: 85 12        	sta	$12                     ; 0x2012 <_ZN12_GLOBAL__N_13putEcP6Status+0x4d>
    1255: a5 13        	lda	$13                     ; 0x2013 <_ZN12_GLOBAL__N_13putEcP6Status+0x4e>
    1257: 69 00        	adc	#$0
    1259: 85 13        	sta	$13                     ; 0x2013 <_ZN12_GLOBAL__N_13putEcP6Status+0x4e>
    125b: a9 1f        	lda	#$1f
    125d: a0 02        	ldy	#$2
    125f: 31 12        	and	($12),y                 ; 0x2012 <_ZN12_GLOBAL__N_13putEcP6Status+0x4d>
    1261: 85 1c        	sta	$1c                     ; 0x201c <_ZN12_GLOBAL__N_13putEcP6Status+0x57>
    1263: 0a           	asl
    1264: 64 12        	stz	$12                     ; 0x2012 <_ZN12_GLOBAL__N_13putEcP6Status+0x4d>
    1266: 26 12        	rol	$12                     ; 0x2012 <_ZN12_GLOBAL__N_13putEcP6Status+0x4d>
    1268: 85 13        	sta	$13                     ; 0x2013 <_ZN12_GLOBAL__N_13putEcP6Status+0x4e>
    126a: 06 13        	asl	$13                     ; 0x2013 <_ZN12_GLOBAL__N_13putEcP6Status+0x4e>
    126c: 26 12        	rol	$12                     ; 0x2012 <_ZN12_GLOBAL__N_13putEcP6Status+0x4d>
    126e: 48           	pha
    126f: a0 12        	ldy	#$12
    1271: b1 10        	lda	($10),y                 ; 0x2010 <_ZN12_GLOBAL__N_13putEcP6Status+0x4b>
    1273: aa           	tax
    1274: 68           	pla
    1275: e0 11        	cpx	#$11
    1277: f0 03        	beq	$127c <main+0xd23>
    1279: 4c dd 13     	jmp	$13dd <main+0xe84>
    127c: 85 19        	sta	$19                     ; 0x2019 <_ZN12_GLOBAL__N_13putEcP6Status+0x54>
    127e: a4 1b        	ldy	$1b                     ; 0x201b <_ZN12_GLOBAL__N_13putEcP6Status+0x56>
    1280: 84 14        	sty	$14                     ; 0x2014 <_ZN12_GLOBAL__N_13putEcP6Status+0x4f>
    1282: 5a           	phy
    1283: a0 14        	ldy	#$14
    1285: b1 10        	lda	($10),y                 ; 0x2010 <_ZN12_GLOBAL__N_13putEcP6Status+0x4b>
    1287: 18           	clc
    1288: 65 14        	adc	$14                     ; 0x2014 <_ZN12_GLOBAL__N_13putEcP6Status+0x4f>
    128a: aa           	tax
    128b: 88           	dey
    128c: b1 10        	lda	($10),y                 ; 0x2010 <_ZN12_GLOBAL__N_13putEcP6Status+0x4b>
    128e: 7a           	ply
    128f: 69 00        	adc	#$0
    1291: 86 14        	stx	$14                     ; 0x2014 <_ZN12_GLOBAL__N_13putEcP6Status+0x4f>
    1293: 85 15        	sta	$15                     ; 0x2015 <_ZN12_GLOBAL__N_13putEcP6Status+0x50>
    1295: b1 2a        	lda	($2a),y                 ; 0x202a <_ZN12_GLOBAL__N_13putEcP6Status+0x65>
    1297: 85 1d        	sta	$1d                     ; 0x201d <_ZN12_GLOBAL__N_13putEcP6Status+0x58>
    1299: 85 16        	sta	$16                     ; 0x2016 <_ZN12_GLOBAL__N_13putEcP6Status+0x51>
    129b: a0 01        	ldy	#$1
    129d: b1 14        	lda	($14),y                 ; 0x2014 <_ZN12_GLOBAL__N_13putEcP6Status+0x4f>
    129f: aa           	tax
    12a0: a4 16        	ldy	$16                     ; 0x2016 <_ZN12_GLOBAL__N_13putEcP6Status+0x51>
    12a2: 84 15        	sty	$15                     ; 0x2015 <_ZN12_GLOBAL__N_13putEcP6Status+0x50>
    12a4: 06 15        	asl	$15                     ; 0x2015 <_ZN12_GLOBAL__N_13putEcP6Status+0x50>
    12a6: 2a           	rol
    12a7: a4 15        	ldy	$15                     ; 0x2015 <_ZN12_GLOBAL__N_13putEcP6Status+0x50>
    12a9: 06 15        	asl	$15                     ; 0x2015 <_ZN12_GLOBAL__N_13putEcP6Status+0x50>
    12ab: 2a           	rol
    12ac: 85 14        	sta	$14                     ; 0x2014 <_ZN12_GLOBAL__N_13putEcP6Status+0x4f>
    12ae: 8a           	txa
    12af: 86 17        	stx	$17                     ; 0x2017 <_ZN12_GLOBAL__N_13putEcP6Status+0x52>
    12b1: a2 00        	ldx	#$0
    12b3: e4 17        	cpx	$17                     ; 0x2017 <_ZN12_GLOBAL__N_13putEcP6Status+0x52>
    12b5: d0 18        	bne	$12cf <main+0xd76>
    12b7: a6 1c        	ldx	$1c                     ; 0x201c <_ZN12_GLOBAL__N_13putEcP6Status+0x57>
    12b9: e4 16        	cpx	$16                     ; 0x2016 <_ZN12_GLOBAL__N_13putEcP6Status+0x51>
    12bb: 90 18        	bcc	$12d5 <main+0xd7c>
    12bd: aa           	tax
    12be: f0 03        	beq	$12c3 <main+0xd6a>
    12c0: 4c 5a 13     	jmp	$135a <main+0xe01>
    12c3: a6 1d        	ldx	$1d                     ; 0x201d <_ZN12_GLOBAL__N_13putEcP6Status+0x58>
    12c5: e4 1c        	cpx	$1c                     ; 0x201c <_ZN12_GLOBAL__N_13putEcP6Status+0x57>
    12c7: b0 03        	bcs	$12cc <main+0xd73>
    12c9: 4c 61 13     	jmp	$1361 <main+0xe08>
    12cc: 4c dd 13     	jmp	$13dd <main+0xe84>
    12cf: 85 17        	sta	$17                     ; 0x2017 <_ZN12_GLOBAL__N_13putEcP6Status+0x52>
    12d1: e4 17        	cpx	$17                     ; 0x2017 <_ZN12_GLOBAL__N_13putEcP6Status+0x52>
    12d3: b0 e8        	bcs	$12bd <main+0xd64>
    12d5: a0 f8        	ldy	#$f8
    12d7: 18           	clc
    12d8: a5 19        	lda	$19                     ; 0x2019 <_ZN12_GLOBAL__N_13putEcP6Status+0x54>
    12da: 69 28        	adc	#$28
    12dc: 85 16        	sta	$16                     ; 0x2016 <_ZN12_GLOBAL__N_13putEcP6Status+0x51>
    12de: 85 19        	sta	$19                     ; 0x2019 <_ZN12_GLOBAL__N_13putEcP6Status+0x54>
    12e0: a5 1a        	lda	$1a                     ; 0x201a <_ZN12_GLOBAL__N_13putEcP6Status+0x55>
    12e2: 0a           	asl
    12e3: 0a           	asl
    12e4: 0a           	asl
    12e5: 85 1e        	sta	$1e                     ; 0x201e <_ZN12_GLOBAL__N_13putEcP6Status+0x59>
    12e7: 18           	clc
    12e8: 69 3c        	adc	#$3c
    12ea: 85 1f        	sta	$1f                     ; 0x201f <_ZN12_GLOBAL__N_13putEcP6Status+0x5a>
    12ec: 38           	sec
    12ed: a5 1d        	lda	$1d                     ; 0x201d <_ZN12_GLOBAL__N_13putEcP6Status+0x58>
    12ef: e5 1c        	sbc	$1c                     ; 0x201c <_ZN12_GLOBAL__N_13putEcP6Status+0x57>
    12f1: 85 17        	sta	$17                     ; 0x2017 <_ZN12_GLOBAL__N_13putEcP6Status+0x52>
    12f3: a2 2a        	ldx	#$2a
    12f5: 8e 40 dd     	stx	$dd40                   ; 0xdd40 <__heap_start+0x7edc>
    12f8: 9c 41 dd     	stz	$dd41                   ; 0xdd41 <__heap_start+0x7edd>
    12fb: a6 1f        	ldx	$1f                     ; 0x201f <_ZN12_GLOBAL__N_13putEcP6Status+0x5a>
    12fd: 8e 41 dd     	stx	$dd41                   ; 0xdd41 <__heap_start+0x7edd>
    1300: 9c 41 dd     	stz	$dd41                   ; 0xdd41 <__heap_start+0x7edd>
    1303: 18           	clc
    1304: a5 1e        	lda	$1e                     ; 0x201e <_ZN12_GLOBAL__N_13putEcP6Status+0x59>
    1306: 69 3d        	adc	#$3d
    1308: 8d 41 dd     	sta	$dd41                   ; 0xdd41 <__heap_start+0x7edd>
    130b: a2 2b        	ldx	#$2b
    130d: 8e 40 dd     	stx	$dd40                   ; 0xdd40 <__heap_start+0x7edc>
    1310: 9c 41 dd     	stz	$dd41                   ; 0xdd41 <__heap_start+0x7edd>
    1313: 18           	clc
    1314: a5 19        	lda	$19                     ; 0x2019 <_ZN12_GLOBAL__N_13putEcP6Status+0x54>
    1316: 69 14        	adc	#$14
    1318: 8d 41 dd     	sta	$dd41                   ; 0xdd41 <__heap_start+0x7edd>
    131b: 18           	clc
    131c: a5 17        	lda	$17                     ; 0x2017 <_ZN12_GLOBAL__N_13putEcP6Status+0x52>
    131e: 65 16        	adc	$16                     ; 0x2016 <_ZN12_GLOBAL__N_13putEcP6Status+0x51>
    1320: 8d 41 dd     	sta	$dd41                   ; 0xdd41 <__heap_start+0x7edd>
    1323: 29 fe        	and	#$fe
    1325: 8d 41 dd     	sta	$dd41                   ; 0xdd41 <__heap_start+0x7edd>
    1328: a5 15        	lda	$15                     ; 0x2015 <_ZN12_GLOBAL__N_13putEcP6Status+0x50>
    132a: 09 01        	ora	#$1
    132c: 38           	sec
    132d: e5 13        	sbc	$13                     ; 0x2013 <_ZN12_GLOBAL__N_13putEcP6Status+0x4e>
    132f: 85 15        	sta	$15                     ; 0x2015 <_ZN12_GLOBAL__N_13putEcP6Status+0x50>
    1331: a5 14        	lda	$14                     ; 0x2014 <_ZN12_GLOBAL__N_13putEcP6Status+0x4f>
    1333: e5 12        	sbc	$12                     ; 0x2012 <_ZN12_GLOBAL__N_13putEcP6Status+0x4d>
    1335: e8           	inx
    1336: 8e 40 dd     	stx	$dd40                   ; 0xdd40 <__heap_start+0x7edc>
    1339: 9c 42 dd     	stz	$dd42                   ; 0xdd42 <__heap_start+0x7ede>
    133c: 8c 43 dd     	sty	$dd43                   ; 0xdd43 <__heap_start+0x7edf>
    133f: a6 15        	ldx	$15                     ; 0x2015 <_ZN12_GLOBAL__N_13putEcP6Status+0x50>
    1341: 86 14        	stx	$14                     ; 0x2014 <_ZN12_GLOBAL__N_13putEcP6Status+0x4f>
    1343: a2 ff        	ldx	#$ff
    1345: c6 14        	dec	$14                     ; 0x2014 <_ZN12_GLOBAL__N_13putEcP6Status+0x4f>
    1347: e4 14        	cpx	$14                     ; 0x2014 <_ZN12_GLOBAL__N_13putEcP6Status+0x4f>
    1349: d0 01        	bne	$134c <main+0xdf3>
    134b: 3a           	dec
    134c: a6 14        	ldx	$14                     ; 0x2014 <_ZN12_GLOBAL__N_13putEcP6Status+0x4f>
    134e: 86 15        	stx	$15                     ; 0x2015 <_ZN12_GLOBAL__N_13putEcP6Status+0x50>
    1350: aa           	tax
    1351: d0 e6        	bne	$1339 <main+0xde0>
    1353: a6 14        	ldx	$14                     ; 0x2014 <_ZN12_GLOBAL__N_13putEcP6Status+0x4f>
    1355: d0 e2        	bne	$1339 <main+0xde0>
    1357: 4c dd 13     	jmp	$13dd <main+0xe84>
    135a: c9 00        	cmp	#$0
    135c: 90 03        	bcc	$1361 <main+0xe08>
    135e: 4c dd 13     	jmp	$13dd <main+0xe84>
    1361: 18           	clc
    1362: 98           	tya
    1363: 69 28        	adc	#$28
    1365: 85 17        	sta	$17                     ; 0x2017 <_ZN12_GLOBAL__N_13putEcP6Status+0x52>
    1367: a8           	tay
    1368: a5 1a        	lda	$1a                     ; 0x201a <_ZN12_GLOBAL__N_13putEcP6Status+0x55>
    136a: 0a           	asl
    136b: 0a           	asl
    136c: 0a           	asl
    136d: 85 19        	sta	$19                     ; 0x2019 <_ZN12_GLOBAL__N_13putEcP6Status+0x54>
    136f: 18           	clc
    1370: 69 3c        	adc	#$3c
    1372: 85 1d        	sta	$1d                     ; 0x201d <_ZN12_GLOBAL__N_13putEcP6Status+0x58>
    1374: 38           	sec
    1375: a5 1c        	lda	$1c                     ; 0x201c <_ZN12_GLOBAL__N_13putEcP6Status+0x57>
    1377: e5 16        	sbc	$16                     ; 0x2016 <_ZN12_GLOBAL__N_13putEcP6Status+0x51>
    1379: 85 16        	sta	$16                     ; 0x2016 <_ZN12_GLOBAL__N_13putEcP6Status+0x51>
    137b: a2 2a        	ldx	#$2a
    137d: 8e 40 dd     	stx	$dd40                   ; 0xdd40 <__heap_start+0x7edc>
    1380: 9c 41 dd     	stz	$dd41                   ; 0xdd41 <__heap_start+0x7edd>
    1383: a6 1d        	ldx	$1d                     ; 0x201d <_ZN12_GLOBAL__N_13putEcP6Status+0x58>
    1385: 8e 41 dd     	stx	$dd41                   ; 0xdd41 <__heap_start+0x7edd>
    1388: 9c 41 dd     	stz	$dd41                   ; 0xdd41 <__heap_start+0x7edd>
    138b: 18           	clc
    138c: a5 19        	lda	$19                     ; 0x2019 <_ZN12_GLOBAL__N_13putEcP6Status+0x54>
    138e: 69 3d        	adc	#$3d
    1390: 8d 41 dd     	sta	$dd41                   ; 0xdd41 <__heap_start+0x7edd>
    1393: a2 2b        	ldx	#$2b
    1395: 8e 40 dd     	stx	$dd40                   ; 0xdd40 <__heap_start+0x7edc>
    1398: 9c 41 dd     	stz	$dd41                   ; 0xdd41 <__heap_start+0x7edd>
    139b: 18           	clc
    139c: 98           	tya
    139d: 69 14        	adc	#$14
    139f: 8d 41 dd     	sta	$dd41                   ; 0xdd41 <__heap_start+0x7edd>
    13a2: 18           	clc
    13a3: a5 16        	lda	$16                     ; 0x2016 <_ZN12_GLOBAL__N_13putEcP6Status+0x51>
    13a5: 65 17        	adc	$17                     ; 0x2017 <_ZN12_GLOBAL__N_13putEcP6Status+0x52>
    13a7: 8d 41 dd     	sta	$dd41                   ; 0xdd41 <__heap_start+0x7edd>
    13aa: 29 fe        	and	#$fe
    13ac: 8d 41 dd     	sta	$dd41                   ; 0xdd41 <__heap_start+0x7edd>
    13af: a5 13        	lda	$13                     ; 0x2013 <_ZN12_GLOBAL__N_13putEcP6Status+0x4e>
    13b1: 09 01        	ora	#$1
    13b3: 38           	sec
    13b4: e5 15        	sbc	$15                     ; 0x2015 <_ZN12_GLOBAL__N_13putEcP6Status+0x50>
    13b6: a8           	tay
    13b7: a5 12        	lda	$12                     ; 0x2012 <_ZN12_GLOBAL__N_13putEcP6Status+0x4d>
    13b9: e5 14        	sbc	$14                     ; 0x2014 <_ZN12_GLOBAL__N_13putEcP6Status+0x4f>
    13bb: e8           	inx
    13bc: 8e 40 dd     	stx	$dd40                   ; 0xdd40 <__heap_start+0x7edc>
    13bf: a2 e0        	ldx	#$e0
    13c1: 8e 42 dd     	stx	$dd42                   ; 0xdd42 <__heap_start+0x7ede>
    13c4: a2 07        	ldx	#$7
    13c6: 8e 43 dd     	stx	$dd43                   ; 0xdd43 <__heap_start+0x7edf>
    13c9: 84 14        	sty	$14                     ; 0x2014 <_ZN12_GLOBAL__N_13putEcP6Status+0x4f>
    13cb: a2 ff        	ldx	#$ff
    13cd: c6 14        	dec	$14                     ; 0x2014 <_ZN12_GLOBAL__N_13putEcP6Status+0x4f>
    13cf: e4 14        	cpx	$14                     ; 0x2014 <_ZN12_GLOBAL__N_13putEcP6Status+0x4f>
    13d1: d0 01        	bne	$13d4 <main+0xe7b>
    13d3: 3a           	dec
    13d4: a4 14        	ldy	$14                     ; 0x2014 <_ZN12_GLOBAL__N_13putEcP6Status+0x4f>
    13d6: aa           	tax
    13d7: d0 e6        	bne	$13bf <main+0xe66>
    13d9: a6 14        	ldx	$14                     ; 0x2014 <_ZN12_GLOBAL__N_13putEcP6Status+0x4f>
    13db: d0 e2        	bne	$13bf <main+0xe66>
    13dd: a6 01        	ldx	$1                      ; 0x2001 <_ZN12_GLOBAL__N_13putEcP6Status+0x3c>
    13df: a0 02        	ldy	#$2
    13e1: 84 01        	sty	$1                      ; 0x2001 <_ZN12_GLOBAL__N_13putEcP6Status+0x3c>
    13e3: a4 1b        	ldy	$1b                     ; 0x201b <_ZN12_GLOBAL__N_13putEcP6Status+0x56>
    13e5: 84 14        	sty	$14                     ; 0x2014 <_ZN12_GLOBAL__N_13putEcP6Status+0x4f>
    13e7: 5a           	phy
    13e8: a0 14        	ldy	#$14
    13ea: b1 10        	lda	($10),y                 ; 0x2010 <_ZN12_GLOBAL__N_13putEcP6Status+0x4b>
    13ec: 18           	clc
    13ed: 65 14        	adc	$14                     ; 0x2014 <_ZN12_GLOBAL__N_13putEcP6Status+0x4f>
    13ef: 85 16        	sta	$16                     ; 0x2016 <_ZN12_GLOBAL__N_13putEcP6Status+0x51>
    13f1: 88           	dey
    13f2: b1 10        	lda	($10),y                 ; 0x2010 <_ZN12_GLOBAL__N_13putEcP6Status+0x4b>
    13f4: 7a           	ply
    13f5: 69 00        	adc	#$0
    13f7: 5a           	phy
    13f8: a4 16        	ldy	$16                     ; 0x2016 <_ZN12_GLOBAL__N_13putEcP6Status+0x51>
    13fa: 84 14        	sty	$14                     ; 0x2014 <_ZN12_GLOBAL__N_13putEcP6Status+0x4f>
    13fc: 7a           	ply
    13fd: 85 15        	sta	$15                     ; 0x2015 <_ZN12_GLOBAL__N_13putEcP6Status+0x50>
    13ff: b1 2a        	lda	($2a),y                 ; 0x202a <_ZN12_GLOBAL__N_13putEcP6Status+0x65>
    1401: 85 1d        	sta	$1d                     ; 0x201d <_ZN12_GLOBAL__N_13putEcP6Status+0x58>
    1403: 85 17        	sta	$17                     ; 0x2017 <_ZN12_GLOBAL__N_13putEcP6Status+0x52>
    1405: a0 01        	ldy	#$1
    1407: b1 14        	lda	($14),y                 ; 0x2014 <_ZN12_GLOBAL__N_13putEcP6Status+0x4f>
    1409: 85 16        	sta	$16                     ; 0x2016 <_ZN12_GLOBAL__N_13putEcP6Status+0x51>
    140b: d0 1b        	bne	$1428 <main+0xecf>
    140d: a4 1d        	ldy	$1d                     ; 0x201d <_ZN12_GLOBAL__N_13putEcP6Status+0x58>
    140f: c4 1c        	cpy	$1c                     ; 0x201c <_ZN12_GLOBAL__N_13putEcP6Status+0x57>
    1411: 90 19        	bcc	$142c <main+0xed3>
    1413: a0 00        	ldy	#$0
    1415: c4 16        	cpy	$16                     ; 0x2016 <_ZN12_GLOBAL__N_13putEcP6Status+0x51>
    1417: f0 03        	beq	$141c <main+0xec3>
    1419: 4c 22 15     	jmp	$1522 <main+0xfc9>
    141c: a4 1c        	ldy	$1c                     ; 0x201c <_ZN12_GLOBAL__N_13putEcP6Status+0x57>
    141e: c4 17        	cpy	$17                     ; 0x2017 <_ZN12_GLOBAL__N_13putEcP6Status+0x52>
    1420: 90 03        	bcc	$1425 <main+0xecc>
    1422: 4c d2 14     	jmp	$14d2 <main+0xf79>
    1425: 4c 29 15     	jmp	$1529 <main+0xfd0>
    1428: c9 00        	cmp	#$0
    142a: b0 e7        	bcs	$1413 <main+0xeba>
    142c: 38           	sec
    142d: a5 1c        	lda	$1c                     ; 0x201c <_ZN12_GLOBAL__N_13putEcP6Status+0x57>
    142f: e5 17        	sbc	$17                     ; 0x2017 <_ZN12_GLOBAL__N_13putEcP6Status+0x52>
    1431: a8           	tay
    1432: a9 00        	lda	#$0
    1434: e5 16        	sbc	$16                     ; 0x2016 <_ZN12_GLOBAL__N_13putEcP6Status+0x51>
    1436: 85 19        	sta	$19                     ; 0x2019 <_ZN12_GLOBAL__N_13putEcP6Status+0x54>
    1438: a5 17        	lda	$17                     ; 0x2017 <_ZN12_GLOBAL__N_13putEcP6Status+0x52>
    143a: 0a           	asl
    143b: 26 16        	rol	$16                     ; 0x2016 <_ZN12_GLOBAL__N_13putEcP6Status+0x51>
    143d: 0a           	asl
    143e: 26 16        	rol	$16                     ; 0x2016 <_ZN12_GLOBAL__N_13putEcP6Status+0x51>
    1440: 0a           	asl
    1441: 26 16        	rol	$16                     ; 0x2016 <_ZN12_GLOBAL__N_13putEcP6Status+0x51>
    1443: 0a           	asl
    1444: 85 12        	sta	$12                     ; 0x2012 <_ZN12_GLOBAL__N_13putEcP6Status+0x4d>
    1446: 26 16        	rol	$16                     ; 0x2016 <_ZN12_GLOBAL__N_13putEcP6Status+0x51>
    1448: 0a           	asl
    1449: 5a           	phy
    144a: a4 16        	ldy	$16                     ; 0x2016 <_ZN12_GLOBAL__N_13putEcP6Status+0x51>
    144c: 84 13        	sty	$13                     ; 0x2013 <_ZN12_GLOBAL__N_13putEcP6Status+0x4e>
    144e: 7a           	ply
    144f: 26 13        	rol	$13                     ; 0x2013 <_ZN12_GLOBAL__N_13putEcP6Status+0x4e>
    1451: 0a           	asl
    1452: 26 13        	rol	$13                     ; 0x2013 <_ZN12_GLOBAL__N_13putEcP6Status+0x4e>
    1454: 18           	clc
    1455: 65 12        	adc	$12                     ; 0x2012 <_ZN12_GLOBAL__N_13putEcP6Status+0x4d>
    1457: 85 12        	sta	$12                     ; 0x2012 <_ZN12_GLOBAL__N_13putEcP6Status+0x4d>
    1459: a5 13        	lda	$13                     ; 0x2013 <_ZN12_GLOBAL__N_13putEcP6Status+0x4e>
    145b: 65 16        	adc	$16                     ; 0x2016 <_ZN12_GLOBAL__N_13putEcP6Status+0x51>
    145d: 85 13        	sta	$13                     ; 0x2013 <_ZN12_GLOBAL__N_13putEcP6Status+0x4e>
    145f: 38           	sec
    1460: 5a           	phy
    1461: a0 1b        	ldy	#$1b
    1463: b1 10        	lda	($10),y                 ; 0x2010 <_ZN12_GLOBAL__N_13putEcP6Status+0x4b>
    1465: e5 12        	sbc	$12                     ; 0x2012 <_ZN12_GLOBAL__N_13putEcP6Status+0x4d>
    1467: 85 1d        	sta	$1d                     ; 0x201d <_ZN12_GLOBAL__N_13putEcP6Status+0x58>
    1469: a0 18        	ldy	#$18
    146b: b1 10        	lda	($10),y                 ; 0x2010 <_ZN12_GLOBAL__N_13putEcP6Status+0x4b>
    146d: e5 13        	sbc	$13                     ; 0x2013 <_ZN12_GLOBAL__N_13putEcP6Status+0x4e>
    146f: 85 1e        	sta	$1e                     ; 0x201e <_ZN12_GLOBAL__N_13putEcP6Status+0x59>
    1471: 38           	sec
    1472: a0 1a        	ldy	#$1a
    1474: b1 10        	lda	($10),y                 ; 0x2010 <_ZN12_GLOBAL__N_13putEcP6Status+0x4b>
    1476: e5 12        	sbc	$12                     ; 0x2012 <_ZN12_GLOBAL__N_13putEcP6Status+0x4d>
    1478: 85 1f        	sta	$1f                     ; 0x201f <_ZN12_GLOBAL__N_13putEcP6Status+0x5a>
    147a: 88           	dey
    147b: b1 10        	lda	($10),y                 ; 0x2010 <_ZN12_GLOBAL__N_13putEcP6Status+0x4b>
    147d: 7a           	ply
    147e: e5 13        	sbc	$13                     ; 0x2013 <_ZN12_GLOBAL__N_13putEcP6Status+0x4e>
    1480: 85 16        	sta	$16                     ; 0x2016 <_ZN12_GLOBAL__N_13putEcP6Status+0x51>
    1482: a5 1f        	lda	$1f                     ; 0x201f <_ZN12_GLOBAL__N_13putEcP6Status+0x5a>
    1484: 85 12        	sta	$12                     ; 0x2012 <_ZN12_GLOBAL__N_13putEcP6Status+0x4d>
    1486: a5 16        	lda	$16                     ; 0x2016 <_ZN12_GLOBAL__N_13putEcP6Status+0x51>
    1488: 85 22        	sta	$22                     ; 0x2022 <_ZN12_GLOBAL__N_13putEcP6Status+0x5d>
    148a: a5 16        	lda	$16                     ; 0x2016 <_ZN12_GLOBAL__N_13putEcP6Status+0x51>
    148c: 85 13        	sta	$13                     ; 0x2013 <_ZN12_GLOBAL__N_13putEcP6Status+0x4e>
    148e: a5 1d        	lda	$1d                     ; 0x201d <_ZN12_GLOBAL__N_13putEcP6Status+0x58>
    1490: 85 16        	sta	$16                     ; 0x2016 <_ZN12_GLOBAL__N_13putEcP6Status+0x51>
    1492: a5 1e        	lda	$1e                     ; 0x201e <_ZN12_GLOBAL__N_13putEcP6Status+0x59>
    1494: 85 17        	sta	$17                     ; 0x2017 <_ZN12_GLOBAL__N_13putEcP6Status+0x52>
    1496: a9 15        	lda	#$15
    1498: 92 12        	sta	($12)                   ; 0x2012 <_ZN12_GLOBAL__N_13putEcP6Status+0x4d>
    149a: 92 16        	sta	($16)                   ; 0x2016 <_ZN12_GLOBAL__N_13putEcP6Status+0x51>
    149c: 84 12        	sty	$12                     ; 0x2012 <_ZN12_GLOBAL__N_13putEcP6Status+0x4d>
    149e: a4 19        	ldy	$19                     ; 0x2019 <_ZN12_GLOBAL__N_13putEcP6Status+0x54>
    14a0: 84 13        	sty	$13                     ; 0x2013 <_ZN12_GLOBAL__N_13putEcP6Status+0x4e>
    14a2: a0 ff        	ldy	#$ff
    14a4: c6 12        	dec	$12                     ; 0x2012 <_ZN12_GLOBAL__N_13putEcP6Status+0x4d>
    14a6: c4 12        	cpy	$12                     ; 0x2012 <_ZN12_GLOBAL__N_13putEcP6Status+0x4d>
    14a8: d0 02        	bne	$14ac <main+0xf53>
    14aa: c6 13        	dec	$13                     ; 0x2013 <_ZN12_GLOBAL__N_13putEcP6Status+0x4e>
    14ac: 18           	clc
    14ad: a5 1d        	lda	$1d                     ; 0x201d <_ZN12_GLOBAL__N_13putEcP6Status+0x58>
    14af: 69 b0        	adc	#$b0
    14b1: 85 1d        	sta	$1d                     ; 0x201d <_ZN12_GLOBAL__N_13putEcP6Status+0x58>
    14b3: a5 1e        	lda	$1e                     ; 0x201e <_ZN12_GLOBAL__N_13putEcP6Status+0x59>
    14b5: 69 ff        	adc	#$ff
    14b7: 85 1e        	sta	$1e                     ; 0x201e <_ZN12_GLOBAL__N_13putEcP6Status+0x59>
    14b9: 18           	clc
    14ba: a5 1f        	lda	$1f                     ; 0x201f <_ZN12_GLOBAL__N_13putEcP6Status+0x5a>
    14bc: 69 b0        	adc	#$b0
    14be: 85 1f        	sta	$1f                     ; 0x201f <_ZN12_GLOBAL__N_13putEcP6Status+0x5a>
    14c0: a5 22        	lda	$22                     ; 0x2022 <_ZN12_GLOBAL__N_13putEcP6Status+0x5d>
    14c2: 69 ff        	adc	#$ff
    14c4: 85 16        	sta	$16                     ; 0x2016 <_ZN12_GLOBAL__N_13putEcP6Status+0x51>
    14c6: a4 12        	ldy	$12                     ; 0x2012 <_ZN12_GLOBAL__N_13putEcP6Status+0x4d>
    14c8: a5 13        	lda	$13                     ; 0x2013 <_ZN12_GLOBAL__N_13putEcP6Status+0x4e>
    14ca: 85 19        	sta	$19                     ; 0x2019 <_ZN12_GLOBAL__N_13putEcP6Status+0x54>
    14cc: d0 b4        	bne	$1482 <main+0xf29>
    14ce: a5 12        	lda	$12                     ; 0x2012 <_ZN12_GLOBAL__N_13putEcP6Status+0x4d>
    14d0: d0 b0        	bne	$1482 <main+0xf29>
    14d2: 86 01        	stx	$1                      ; 0x2001 <_ZN12_GLOBAL__N_13putEcP6Status+0x3c>
    14d4: a4 1b        	ldy	$1b                     ; 0x201b <_ZN12_GLOBAL__N_13putEcP6Status+0x56>
    14d6: a5 1c        	lda	$1c                     ; 0x201c <_ZN12_GLOBAL__N_13putEcP6Status+0x57>
    14d8: 91 2a        	sta	($2a),y                 ; 0x202a <_ZN12_GLOBAL__N_13putEcP6Status+0x65>
    14da: a9 00        	lda	#$0
    14dc: a0 01        	ldy	#$1
    14de: 91 14        	sta	($14),y                 ; 0x2014 <_ZN12_GLOBAL__N_13putEcP6Status+0x4f>
    14e0: a6 1a        	ldx	$1a                     ; 0x201a <_ZN12_GLOBAL__N_13putEcP6Status+0x55>
    14e2: e8           	inx
    14e3: d0 02        	bne	$14e7 <main+0xf8e>
    14e5: e6 18        	inc	$18                     ; 0x2018 <_ZN12_GLOBAL__N_13putEcP6Status+0x53>
    14e7: 18           	clc
    14e8: a5 1b        	lda	$1b                     ; 0x201b <_ZN12_GLOBAL__N_13putEcP6Status+0x56>
    14ea: 69 02        	adc	#$2
    14ec: a8           	tay
    14ed: 18           	clc
    14ee: 5a           	phy
    14ef: a0 1b        	ldy	#$1b
    14f1: b1 10        	lda	($10),y                 ; 0x2010 <_ZN12_GLOBAL__N_13putEcP6Status+0x4b>
    14f3: 69 03        	adc	#$3
    14f5: 91 10        	sta	($10),y                 ; 0x2010 <_ZN12_GLOBAL__N_13putEcP6Status+0x4b>
    14f7: a0 18        	ldy	#$18
    14f9: b1 10        	lda	($10),y                 ; 0x2010 <_ZN12_GLOBAL__N_13putEcP6Status+0x4b>
    14fb: 69 00        	adc	#$0
    14fd: 91 10        	sta	($10),y                 ; 0x2010 <_ZN12_GLOBAL__N_13putEcP6Status+0x4b>
    14ff: 18           	clc
    1500: a0 1a        	ldy	#$1a
    1502: b1 10        	lda	($10),y                 ; 0x2010 <_ZN12_GLOBAL__N_13putEcP6Status+0x4b>
    1504: 69 03        	adc	#$3
    1506: 91 10        	sta	($10),y                 ; 0x2010 <_ZN12_GLOBAL__N_13putEcP6Status+0x4b>
    1508: 88           	dey
    1509: b1 10        	lda	($10),y                 ; 0x2010 <_ZN12_GLOBAL__N_13putEcP6Status+0x4b>
    150b: 69 00        	adc	#$0
    150d: 91 10        	sta	($10),y                 ; 0x2010 <_ZN12_GLOBAL__N_13putEcP6Status+0x4b>
    150f: 7a           	ply
    1510: 98           	tya
    1511: a4 18        	ldy	$18                     ; 0x2018 <_ZN12_GLOBAL__N_13putEcP6Status+0x53>
    1513: f0 03        	beq	$1518 <main+0xfbf>
    1515: 4c 3d 12     	jmp	$123d <main+0xce4>
    1518: e0 0f        	cpx	#$f
    151a: f0 03        	beq	$151f <main+0xfc6>
    151c: 4c 3d 12     	jmp	$123d <main+0xce4>
    151f: 4c d2 15     	jmp	$15d2 <main+0x1079>
    1522: c4 16        	cpy	$16                     ; 0x2016 <_ZN12_GLOBAL__N_13putEcP6Status+0x51>
    1524: 90 03        	bcc	$1529 <main+0xfd0>
    1526: 4c d2 14     	jmp	$14d2 <main+0xf79>
    1529: a4 1c        	ldy	$1c                     ; 0x201c <_ZN12_GLOBAL__N_13putEcP6Status+0x57>
    152b: c0 18        	cpy	#$18
    152d: 90 03        	bcc	$1532 <main+0xfd9>
    152f: 4c d2 14     	jmp	$14d2 <main+0xf79>
    1532: 18           	clc
    1533: a5 1c        	lda	$1c                     ; 0x201c <_ZN12_GLOBAL__N_13putEcP6Status+0x57>
    1535: 69 e8        	adc	#$e8
    1537: a8           	tay
    1538: a9 00        	lda	#$0
    153a: 69 ff        	adc	#$ff
    153c: 85 19        	sta	$19                     ; 0x2019 <_ZN12_GLOBAL__N_13putEcP6Status+0x54>
    153e: 06 13        	asl	$13                     ; 0x2013 <_ZN12_GLOBAL__N_13putEcP6Status+0x4e>
    1540: 26 12        	rol	$12                     ; 0x2012 <_ZN12_GLOBAL__N_13putEcP6Status+0x4d>
    1542: 06 13        	asl	$13                     ; 0x2013 <_ZN12_GLOBAL__N_13putEcP6Status+0x4e>
    1544: 26 12        	rol	$12                     ; 0x2012 <_ZN12_GLOBAL__N_13putEcP6Status+0x4d>
    1546: a5 13        	lda	$13                     ; 0x2013 <_ZN12_GLOBAL__N_13putEcP6Status+0x4e>
    1548: 0a           	asl
    1549: 85 16        	sta	$16                     ; 0x2016 <_ZN12_GLOBAL__N_13putEcP6Status+0x51>
    154b: a5 12        	lda	$12                     ; 0x2012 <_ZN12_GLOBAL__N_13putEcP6Status+0x4d>
    154d: 2a           	rol
    154e: 06 16        	asl	$16                     ; 0x2016 <_ZN12_GLOBAL__N_13putEcP6Status+0x51>
    1550: 2a           	rol
    1551: 85 17        	sta	$17                     ; 0x2017 <_ZN12_GLOBAL__N_13putEcP6Status+0x52>
    1553: 18           	clc
    1554: a5 16        	lda	$16                     ; 0x2016 <_ZN12_GLOBAL__N_13putEcP6Status+0x51>
    1556: 65 13        	adc	$13                     ; 0x2013 <_ZN12_GLOBAL__N_13putEcP6Status+0x4e>
    1558: 85 13        	sta	$13                     ; 0x2013 <_ZN12_GLOBAL__N_13putEcP6Status+0x4e>
    155a: a5 17        	lda	$17                     ; 0x2017 <_ZN12_GLOBAL__N_13putEcP6Status+0x52>
    155c: 65 12        	adc	$12                     ; 0x2012 <_ZN12_GLOBAL__N_13putEcP6Status+0x4d>
    155e: 85 12        	sta	$12                     ; 0x2012 <_ZN12_GLOBAL__N_13putEcP6Status+0x4d>
    1560: 38           	sec
    1561: 5a           	phy
    1562: a0 1b        	ldy	#$1b
    1564: b1 10        	lda	($10),y                 ; 0x2010 <_ZN12_GLOBAL__N_13putEcP6Status+0x4b>
    1566: e5 13        	sbc	$13                     ; 0x2013 <_ZN12_GLOBAL__N_13putEcP6Status+0x4e>
    1568: 85 1d        	sta	$1d                     ; 0x201d <_ZN12_GLOBAL__N_13putEcP6Status+0x58>
    156a: a0 18        	ldy	#$18
    156c: b1 10        	lda	($10),y                 ; 0x2010 <_ZN12_GLOBAL__N_13putEcP6Status+0x4b>
    156e: e5 12        	sbc	$12                     ; 0x2012 <_ZN12_GLOBAL__N_13putEcP6Status+0x4d>
    1570: 85 1e        	sta	$1e                     ; 0x201e <_ZN12_GLOBAL__N_13putEcP6Status+0x59>
    1572: 38           	sec
    1573: a0 1a        	ldy	#$1a
    1575: b1 10        	lda	($10),y                 ; 0x2010 <_ZN12_GLOBAL__N_13putEcP6Status+0x4b>
    1577: e5 13        	sbc	$13                     ; 0x2013 <_ZN12_GLOBAL__N_13putEcP6Status+0x4e>
    1579: 85 1f        	sta	$1f                     ; 0x201f <_ZN12_GLOBAL__N_13putEcP6Status+0x5a>
    157b: 88           	dey
    157c: b1 10        	lda	($10),y                 ; 0x2010 <_ZN12_GLOBAL__N_13putEcP6Status+0x4b>
    157e: 7a           	ply
    157f: e5 12        	sbc	$12                     ; 0x2012 <_ZN12_GLOBAL__N_13putEcP6Status+0x4d>
    1581: 85 16        	sta	$16                     ; 0x2016 <_ZN12_GLOBAL__N_13putEcP6Status+0x51>
    1583: a5 1f        	lda	$1f                     ; 0x201f <_ZN12_GLOBAL__N_13putEcP6Status+0x5a>
    1585: 85 12        	sta	$12                     ; 0x2012 <_ZN12_GLOBAL__N_13putEcP6Status+0x4d>
    1587: a5 16        	lda	$16                     ; 0x2016 <_ZN12_GLOBAL__N_13putEcP6Status+0x51>
    1589: 85 22        	sta	$22                     ; 0x2022 <_ZN12_GLOBAL__N_13putEcP6Status+0x5d>
    158b: a5 16        	lda	$16                     ; 0x2016 <_ZN12_GLOBAL__N_13putEcP6Status+0x51>
    158d: 85 13        	sta	$13                     ; 0x2013 <_ZN12_GLOBAL__N_13putEcP6Status+0x4e>
    158f: a5 1d        	lda	$1d                     ; 0x201d <_ZN12_GLOBAL__N_13putEcP6Status+0x58>
    1591: 85 16        	sta	$16                     ; 0x2016 <_ZN12_GLOBAL__N_13putEcP6Status+0x51>
    1593: a5 1e        	lda	$1e                     ; 0x201e <_ZN12_GLOBAL__N_13putEcP6Status+0x59>
    1595: 85 17        	sta	$17                     ; 0x2017 <_ZN12_GLOBAL__N_13putEcP6Status+0x52>
    1597: a9 20        	lda	#$20
    1599: 92 12        	sta	($12)                   ; 0x2012 <_ZN12_GLOBAL__N_13putEcP6Status+0x4d>
    159b: 92 16        	sta	($16)                   ; 0x2016 <_ZN12_GLOBAL__N_13putEcP6Status+0x51>
    159d: 84 12        	sty	$12                     ; 0x2012 <_ZN12_GLOBAL__N_13putEcP6Status+0x4d>
    159f: a4 19        	ldy	$19                     ; 0x2019 <_ZN12_GLOBAL__N_13putEcP6Status+0x54>
    15a1: 84 13        	sty	$13                     ; 0x2013 <_ZN12_GLOBAL__N_13putEcP6Status+0x4e>
    15a3: e6 12        	inc	$12                     ; 0x2012 <_ZN12_GLOBAL__N_13putEcP6Status+0x4d>
    15a5: d0 02        	bne	$15a9 <main+0x1050>
    15a7: e6 13        	inc	$13                     ; 0x2013 <_ZN12_GLOBAL__N_13putEcP6Status+0x4e>
    15a9: 18           	clc
    15aa: a5 1d        	lda	$1d                     ; 0x201d <_ZN12_GLOBAL__N_13putEcP6Status+0x58>
    15ac: 69 b0        	adc	#$b0
    15ae: 85 1d        	sta	$1d                     ; 0x201d <_ZN12_GLOBAL__N_13putEcP6Status+0x58>
    15b0: a5 1e        	lda	$1e                     ; 0x201e <_ZN12_GLOBAL__N_13putEcP6Status+0x59>
    15b2: 69 ff        	adc	#$ff
    15b4: 85 1e        	sta	$1e                     ; 0x201e <_ZN12_GLOBAL__N_13putEcP6Status+0x59>
    15b6: 18           	clc
    15b7: a5 1f        	lda	$1f                     ; 0x201f <_ZN12_GLOBAL__N_13putEcP6Status+0x5a>
    15b9: 69 b0        	adc	#$b0
    15bb: 85 1f        	sta	$1f                     ; 0x201f <_ZN12_GLOBAL__N_13putEcP6Status+0x5a>
    15bd: a5 22        	lda	$22                     ; 0x2022 <_ZN12_GLOBAL__N_13putEcP6Status+0x5d>
    15bf: 69 ff        	adc	#$ff
    15c1: 85 16        	sta	$16                     ; 0x2016 <_ZN12_GLOBAL__N_13putEcP6Status+0x51>
    15c3: a4 12        	ldy	$12                     ; 0x2012 <_ZN12_GLOBAL__N_13putEcP6Status+0x4d>
    15c5: a5 13        	lda	$13                     ; 0x2013 <_ZN12_GLOBAL__N_13putEcP6Status+0x4e>
    15c7: 85 19        	sta	$19                     ; 0x2019 <_ZN12_GLOBAL__N_13putEcP6Status+0x54>
    15c9: d0 b8        	bne	$1583 <main+0x102a>
    15cb: a5 12        	lda	$12                     ; 0x2012 <_ZN12_GLOBAL__N_13putEcP6Status+0x4d>
    15cd: d0 b4        	bne	$1583 <main+0x102a>
    15cf: 4c d2 14     	jmp	$14d2 <main+0xf79>
    15d2: ae 04 d7     	ldx	$d704                   ; 0xd704 <__heap_start+0x78a0>
    15d5: 86 12        	stx	$12                     ; 0x2012 <_ZN12_GLOBAL__N_13putEcP6Status+0x4d>
    15d7: ad 05 d7     	lda	$d705                   ; 0xd705 <__heap_start+0x78a1>
    15da: 29 07        	and	#$7
    15dc: 85 13        	sta	$13                     ; 0x2013 <_ZN12_GLOBAL__N_13putEcP6Status+0x4e>
    15de: 38           	sec
    15df: a9 00        	lda	#$0
    15e1: e5 12        	sbc	$12                     ; 0x2012 <_ZN12_GLOBAL__N_13putEcP6Status+0x4d>
    15e3: 85 12        	sta	$12                     ; 0x2012 <_ZN12_GLOBAL__N_13putEcP6Status+0x4d>
    15e5: a9 08        	lda	#$8
    15e7: e5 13        	sbc	$13                     ; 0x2013 <_ZN12_GLOBAL__N_13putEcP6Status+0x4e>
    15e9: 06 12        	asl	$12                     ; 0x2012 <_ZN12_GLOBAL__N_13putEcP6Status+0x4d>
    15eb: 2a           	rol
    15ec: 64 2c        	stz	$2c                     ; 0x202c <_ZN12_GLOBAL__N_13putEcP6Status+0x67>
    15ee: 26 2c        	rol	$2c                     ; 0x202c <_ZN12_GLOBAL__N_13putEcP6Status+0x67>
    15f0: 06 12        	asl	$12                     ; 0x2012 <_ZN12_GLOBAL__N_13putEcP6Status+0x4d>
    15f2: 2a           	rol
    15f3: 85 29        	sta	$29                     ; 0x2029 <_ZN12_GLOBAL__N_13putEcP6Status+0x64>
    15f5: 26 2c        	rol	$2c                     ; 0x202c <_ZN12_GLOBAL__N_13putEcP6Status+0x67>
    15f7: d0 07        	bne	$1600 <main+0x10a7>
    15f9: a5 29        	lda	$29                     ; 0x2029 <_ZN12_GLOBAL__N_13putEcP6Status+0x64>
    15fb: d0 03        	bne	$1600 <main+0x10a7>
    15fd: 4c 74 17     	jmp	$1774 <main+0x121b>
    1600: a0 00        	ldy	#$0
    1602: a2 00        	ldx	#$0
    1604: 64 12        	stz	$12                     ; 0x2012 <_ZN12_GLOBAL__N_13putEcP6Status+0x4d>
    1606: 5a           	phy
    1607: 98           	tya
    1608: a0 1b        	ldy	#$1b
    160a: 91 10        	sta	($10),y                 ; 0x2010 <_ZN12_GLOBAL__N_13putEcP6Status+0x4b>
    160c: a0 0f        	ldy	#$f
    160e: b1 10        	lda	($10),y                 ; 0x2010 <_ZN12_GLOBAL__N_13putEcP6Status+0x4b>
    1610: 85 2e        	sta	$2e                     ; 0x202e <_ZN12_GLOBAL__N_13putEcP6Status+0x69>
    1612: 88           	dey
    1613: b1 10        	lda	($10),y                 ; 0x2010 <_ZN12_GLOBAL__N_13putEcP6Status+0x4b>
    1615: 7a           	ply
    1616: 85 2d        	sta	$2d                     ; 0x202d <_ZN12_GLOBAL__N_13putEcP6Status+0x68>
    1618: 5a           	phy
    1619: a0 1b        	ldy	#$1b
    161b: b1 10        	lda	($10),y                 ; 0x2010 <_ZN12_GLOBAL__N_13putEcP6Status+0x4b>
    161d: 7a           	ply
    161e: 29 01        	and	#$1
    1620: f0 03        	beq	$1625 <main+0x10cc>
    1622: 4c 83 17     	jmp	$1783 <main+0x122a>
    1625: 86 2f        	stx	$2f                     ; 0x202f <_ZN12_GLOBAL__N_13putEcP6Status+0x6a>
    1627: 84 28        	sty	$28                     ; 0x2028 <_ZN12_GLOBAL__N_13putEcP6Status+0x63>
    1629: a0 17        	ldy	#$17
    162b: b1 10        	lda	($10),y                 ; 0x2010 <_ZN12_GLOBAL__N_13putEcP6Status+0x4b>
    162d: 29 01        	and	#$1
    162f: a0 01        	ldy	#$1
    1631: 48           	pha
    1632: 98           	tya
    1633: a0 17        	ldy	#$17
    1635: 91 10        	sta	($10),y                 ; 0x2010 <_ZN12_GLOBAL__N_13putEcP6Status+0x4b>
    1637: 68           	pla
    1638: d0 39        	bne	$1673 <main+0x111a>
    163a: 64 12        	stz	$12                     ; 0x2012 <_ZN12_GLOBAL__N_13putEcP6Status+0x4d>
    163c: a9 00        	lda	#$0
    163e: 91 10        	sta	($10),y                 ; 0x2010 <_ZN12_GLOBAL__N_13putEcP6Status+0x4b>
    1640: 64 36        	stz	$36                     ; 0x2036 <_ZN12_GLOBAL__N_13putEcP6Status+0x71>
    1642: a2 35        	ldx	#$35
    1644: 86 12        	stx	$12                     ; 0x2012 <_ZN12_GLOBAL__N_13putEcP6Status+0x4d>
    1646: a2 00        	ldx	#$0
    1648: 86 13        	stx	$13                     ; 0x2013 <_ZN12_GLOBAL__N_13putEcP6Status+0x4e>
    164a: a0 0c        	ldy	#$c
    164c: b1 10        	lda	($10),y                 ; 0x2010 <_ZN12_GLOBAL__N_13putEcP6Status+0x4b>
    164e: 85 14        	sta	$14                     ; 0x2014 <_ZN12_GLOBAL__N_13putEcP6Status+0x4f>
    1650: c8           	iny
    1651: b1 10        	lda	($10),y                 ; 0x2010 <_ZN12_GLOBAL__N_13putEcP6Status+0x4b>
    1653: 85 15        	sta	$15                     ; 0x2015 <_ZN12_GLOBAL__N_13putEcP6Status+0x50>
    1655: 20 00 ff     	jsr	$ff00 <__heap_start+0xa09c>
    1658: 92 14        	sta	($14)                   ; 0x2014 <_ZN12_GLOBAL__N_13putEcP6Status+0x4f>
    165a: a9 00        	lda	#$0
    165c: 6a           	ror
    165d: 85 12        	sta	$12                     ; 0x2012 <_ZN12_GLOBAL__N_13putEcP6Status+0x4d>
    165f: a6 36        	ldx	$36                     ; 0x2036 <_ZN12_GLOBAL__N_13putEcP6Status+0x71>
    1661: e0 08        	cpx	#$8
    1663: d0 0e        	bne	$1673 <main+0x111a>
    1665: a6 3a        	ldx	$3a                     ; 0x203a <_ZN12_GLOBAL__N_13putEcP6Status+0x75>
    1667: 8a           	txa
    1668: a0 0a        	ldy	#$a
    166a: 91 10        	sta	($10),y                 ; 0x2010 <_ZN12_GLOBAL__N_13putEcP6Status+0x4b>
    166c: a2 01        	ldx	#$1
    166e: 8a           	txa
    166f: a0 17        	ldy	#$17
    1671: 91 10        	sta	($10),y                 ; 0x2010 <_ZN12_GLOBAL__N_13putEcP6Status+0x4b>
    1673: 18           	clc
    1674: a5 10        	lda	$10                     ; 0x2010 <_ZN12_GLOBAL__N_13putEcP6Status+0x4b>
    1676: 69 5d        	adc	#$5d
    1678: 85 12        	sta	$12                     ; 0x2012 <_ZN12_GLOBAL__N_13putEcP6Status+0x4d>
    167a: a5 11        	lda	$11                     ; 0x2011 <_ZN12_GLOBAL__N_13putEcP6Status+0x4c>
    167c: 69 00        	adc	#$0
    167e: 85 13        	sta	$13                     ; 0x2013 <_ZN12_GLOBAL__N_13putEcP6Status+0x4e>
    1680: a6 2e        	ldx	$2e                     ; 0x202e <_ZN12_GLOBAL__N_13putEcP6Status+0x69>
    1682: a5 2e        	lda	$2e                     ; 0x202e <_ZN12_GLOBAL__N_13putEcP6Status+0x69>
    1684: 18           	clc
    1685: 65 12        	adc	$12                     ; 0x2012 <_ZN12_GLOBAL__N_13putEcP6Status+0x4d>
    1687: 85 12        	sta	$12                     ; 0x2012 <_ZN12_GLOBAL__N_13putEcP6Status+0x4d>
    1689: a0 16        	ldy	#$16
    168b: b1 10        	lda	($10),y                 ; 0x2010 <_ZN12_GLOBAL__N_13putEcP6Status+0x4b>
    168d: 65 13        	adc	$13                     ; 0x2013 <_ZN12_GLOBAL__N_13putEcP6Status+0x4e>
    168f: 85 13        	sta	$13                     ; 0x2013 <_ZN12_GLOBAL__N_13putEcP6Status+0x4e>
    1691: a0 00        	ldy	#$0
    1693: b1 12        	lda	($12),y                 ; 0x2012 <_ZN12_GLOBAL__N_13putEcP6Status+0x4d>
    1695: 8d 07 d7     	sta	$d707                   ; 0xd707 <__heap_start+0x78a3>
    1698: c8           	iny
    1699: c0 40        	cpy	#$40
    169b: d0 f6        	bne	$1693 <main+0x113a>
    169d: 18           	clc
    169e: 8a           	txa
    169f: 69 40        	adc	#$40
    16a1: 85 2e        	sta	$2e                     ; 0x202e <_ZN12_GLOBAL__N_13putEcP6Status+0x69>
    16a3: a0 16        	ldy	#$16
    16a5: b1 10        	lda	($10),y                 ; 0x2010 <_ZN12_GLOBAL__N_13putEcP6Status+0x4b>
    16a7: 69 00        	adc	#$0
    16a9: 91 10        	sta	($10),y                 ; 0x2010 <_ZN12_GLOBAL__N_13putEcP6Status+0x4b>
    16ab: c9 20        	cmp	#$20
    16ad: d0 10        	bne	$16bf <main+0x1166>
    16af: a6 2d        	ldx	$2d                     ; 0x202d <_ZN12_GLOBAL__N_13putEcP6Status+0x68>
    16b1: a5 2e        	lda	$2e                     ; 0x202e <_ZN12_GLOBAL__N_13putEcP6Status+0x69>
    16b3: d0 0c        	bne	$16c1 <main+0x1168>
    16b5: 64 2e        	stz	$2e                     ; 0x202e <_ZN12_GLOBAL__N_13putEcP6Status+0x69>
    16b7: 64 12        	stz	$12                     ; 0x2012 <_ZN12_GLOBAL__N_13putEcP6Status+0x4d>
    16b9: a9 00        	lda	#$0
    16bb: 91 10        	sta	($10),y                 ; 0x2010 <_ZN12_GLOBAL__N_13putEcP6Status+0x4b>
    16bd: 80 02        	bra	$16c1 <main+0x1168>
    16bf: a6 2d        	ldx	$2d                     ; 0x202d <_ZN12_GLOBAL__N_13putEcP6Status+0x68>
    16c1: 18           	clc
    16c2: a5 10        	lda	$10                     ; 0x2010 <_ZN12_GLOBAL__N_13putEcP6Status+0x4b>
    16c4: 69 5d        	adc	#$5d
    16c6: 85 12        	sta	$12                     ; 0x2012 <_ZN12_GLOBAL__N_13putEcP6Status+0x4d>
    16c8: a5 11        	lda	$11                     ; 0x2011 <_ZN12_GLOBAL__N_13putEcP6Status+0x4c>
    16ca: 69 00        	adc	#$0
    16cc: 85 13        	sta	$13                     ; 0x2013 <_ZN12_GLOBAL__N_13putEcP6Status+0x4e>
    16ce: 18           	clc
    16cf: 8a           	txa
    16d0: 65 12        	adc	$12                     ; 0x2012 <_ZN12_GLOBAL__N_13putEcP6Status+0x4d>
    16d2: 85 12        	sta	$12                     ; 0x2012 <_ZN12_GLOBAL__N_13putEcP6Status+0x4d>
    16d4: a0 15        	ldy	#$15
    16d6: b1 10        	lda	($10),y                 ; 0x2010 <_ZN12_GLOBAL__N_13putEcP6Status+0x4b>
    16d8: 65 13        	adc	$13                     ; 0x2013 <_ZN12_GLOBAL__N_13putEcP6Status+0x4e>
    16da: 85 13        	sta	$13                     ; 0x2013 <_ZN12_GLOBAL__N_13putEcP6Status+0x4e>
    16dc: ae 5b 5e     	ldx	$5e5b                   ; 0x5e5b <theMP3file>
    16df: ac 5c 5e     	ldy	$5e5c                   ; 0x5e5c <theMP3file+0x1>
    16e2: 86 14        	stx	$14                     ; 0x2014 <_ZN12_GLOBAL__N_13putEcP6Status+0x4f>
    16e4: 84 15        	sty	$15                     ; 0x2015 <_ZN12_GLOBAL__N_13putEcP6Status+0x50>
    16e6: a2 00        	ldx	#$0
    16e8: a9 40        	lda	#$40
    16ea: 20 75 18     	jsr	$1875 <fileRead>
    16ed: a2 01        	ldx	#$1
    16ef: c9 40        	cmp	#$40
    16f1: f0 02        	beq	$16f5 <main+0x119c>
    16f3: a2 00        	ldx	#$0
    16f5: e0 00        	cpx	#$0
    16f7: f0 39        	beq	$1732 <main+0x11d9>
    16f9: 86 16        	stx	$16                     ; 0x2016 <_ZN12_GLOBAL__N_13putEcP6Status+0x51>
    16fb: 18           	clc
    16fc: a5 2d        	lda	$2d                     ; 0x202d <_ZN12_GLOBAL__N_13putEcP6Status+0x68>
    16fe: 69 40        	adc	#$40
    1700: 85 2d        	sta	$2d                     ; 0x202d <_ZN12_GLOBAL__N_13putEcP6Status+0x68>
    1702: a0 15        	ldy	#$15
    1704: b1 10        	lda	($10),y                 ; 0x2010 <_ZN12_GLOBAL__N_13putEcP6Status+0x4b>
    1706: 69 00        	adc	#$0
    1708: 91 10        	sta	($10),y                 ; 0x2010 <_ZN12_GLOBAL__N_13putEcP6Status+0x4b>
    170a: c9 20        	cmp	#$20
    170c: d0 3e        	bne	$174c <main+0x11f3>
    170e: a0 10        	ldy	#$10
    1710: b1 10        	lda	($10),y                 ; 0x2010 <_ZN12_GLOBAL__N_13putEcP6Status+0x4b>
    1712: a0 1b        	ldy	#$1b
    1714: 91 10        	sta	($10),y                 ; 0x2010 <_ZN12_GLOBAL__N_13putEcP6Status+0x4b>
    1716: a5 2f        	lda	$2f                     ; 0x202f <_ZN12_GLOBAL__N_13putEcP6Status+0x6a>
    1718: a6 2d        	ldx	$2d                     ; 0x202d <_ZN12_GLOBAL__N_13putEcP6Status+0x68>
    171a: d0 3a        	bne	$1756 <main+0x11fd>
    171c: 64 2d        	stz	$2d                     ; 0x202d <_ZN12_GLOBAL__N_13putEcP6Status+0x68>
    171e: 48           	pha
    171f: a0 10        	ldy	#$10
    1721: b1 10        	lda	($10),y                 ; 0x2010 <_ZN12_GLOBAL__N_13putEcP6Status+0x4b>
    1723: a0 1b        	ldy	#$1b
    1725: 91 10        	sta	($10),y                 ; 0x2010 <_ZN12_GLOBAL__N_13putEcP6Status+0x4b>
    1727: 64 12        	stz	$12                     ; 0x2012 <_ZN12_GLOBAL__N_13putEcP6Status+0x4d>
    1729: a9 00        	lda	#$0
    172b: a0 15        	ldy	#$15
    172d: 91 10        	sta	($10),y                 ; 0x2010 <_ZN12_GLOBAL__N_13putEcP6Status+0x4b>
    172f: 68           	pla
    1730: 80 24        	bra	$1756 <main+0x11fd>
    1732: 86 16        	stx	$16                     ; 0x2016 <_ZN12_GLOBAL__N_13putEcP6Status+0x51>
    1734: 18           	clc
    1735: 65 2d        	adc	$2d                     ; 0x202d <_ZN12_GLOBAL__N_13putEcP6Status+0x68>
    1737: 48           	pha
    1738: a0 15        	ldy	#$15
    173a: b1 10        	lda	($10),y                 ; 0x2010 <_ZN12_GLOBAL__N_13putEcP6Status+0x4b>
    173c: 85 12        	sta	$12                     ; 0x2012 <_ZN12_GLOBAL__N_13putEcP6Status+0x4d>
    173e: 68           	pla
    173f: 85 2d        	sta	$2d                     ; 0x202d <_ZN12_GLOBAL__N_13putEcP6Status+0x68>
    1741: a9 00        	lda	#$0
    1743: 65 12        	adc	$12                     ; 0x2012 <_ZN12_GLOBAL__N_13putEcP6Status+0x4d>
    1745: 91 10        	sta	($10),y                 ; 0x2010 <_ZN12_GLOBAL__N_13putEcP6Status+0x4b>
    1747: a2 01        	ldx	#$1
    1749: 8a           	txa
    174a: 80 04        	bra	$1750 <main+0x11f7>
    174c: a0 10        	ldy	#$10
    174e: b1 10        	lda	($10),y                 ; 0x2010 <_ZN12_GLOBAL__N_13putEcP6Status+0x4b>
    1750: a0 1b        	ldy	#$1b
    1752: 91 10        	sta	($10),y                 ; 0x2010 <_ZN12_GLOBAL__N_13putEcP6Status+0x4b>
    1754: a5 2f        	lda	$2f                     ; 0x202f <_ZN12_GLOBAL__N_13putEcP6Status+0x6a>
    1756: aa           	tax
    1757: e6 28        	inc	$28                     ; 0x2028 <_ZN12_GLOBAL__N_13putEcP6Status+0x63>
    1759: d0 01        	bne	$175c <main+0x1203>
    175b: e8           	inx
    175c: a4 28        	ldy	$28                     ; 0x2028 <_ZN12_GLOBAL__N_13putEcP6Status+0x63>
    175e: e4 2c        	cpx	$2c                     ; 0x202c <_ZN12_GLOBAL__N_13putEcP6Status+0x67>
    1760: f0 03        	beq	$1765 <main+0x120c>
    1762: 4c 18 16     	jmp	$1618 <main+0x10bf>
    1765: c4 29        	cpy	$29                     ; 0x2029 <_ZN12_GLOBAL__N_13putEcP6Status+0x64>
    1767: f0 03        	beq	$176c <main+0x1213>
    1769: 4c 18 16     	jmp	$1618 <main+0x10bf>
    176c: a6 16        	ldx	$16                     ; 0x2016 <_ZN12_GLOBAL__N_13putEcP6Status+0x51>
    176e: 8a           	txa
    176f: f0 12        	beq	$1783 <main+0x122a>
    1771: 4c 81 10     	jmp	$1081 <main+0xb28>
    1774: a2 01        	ldx	#$1
    1776: a0 0f        	ldy	#$f
    1778: b1 10        	lda	($10),y                 ; 0x2010 <_ZN12_GLOBAL__N_13putEcP6Status+0x4b>
    177a: 85 2e        	sta	$2e                     ; 0x202e <_ZN12_GLOBAL__N_13putEcP6Status+0x69>
    177c: 88           	dey
    177d: b1 10        	lda	($10),y                 ; 0x2010 <_ZN12_GLOBAL__N_13putEcP6Status+0x4b>
    177f: 85 2d        	sta	$2d                     ; 0x202d <_ZN12_GLOBAL__N_13putEcP6Status+0x68>
    1781: 80 eb        	bra	$176e <main+0x1215>
    1783: a2 08        	ldx	#$8
    1785: 64 15        	stz	$15                     ; 0x2015 <_ZN12_GLOBAL__N_13putEcP6Status+0x50>
    1787: 86 14        	stx	$14                     ; 0x2014 <_ZN12_GLOBAL__N_13putEcP6Status+0x4f>
    1789: ae 04 d7     	ldx	$d704                   ; 0xd704 <__heap_start+0x78a0>
    178c: 86 12        	stx	$12                     ; 0x2012 <_ZN12_GLOBAL__N_13putEcP6Status+0x4d>
    178e: ad 05 d7     	lda	$d705                   ; 0xd705 <__heap_start+0x78a1>
    1791: 29 07        	and	#$7
    1793: 85 13        	sta	$13                     ; 0x2013 <_ZN12_GLOBAL__N_13putEcP6Status+0x4e>
    1795: 38           	sec
    1796: a9 00        	lda	#$0
    1798: e5 12        	sbc	$12                     ; 0x2012 <_ZN12_GLOBAL__N_13putEcP6Status+0x4d>
    179a: a8           	tay
    179b: a9 08        	lda	#$8
    179d: e5 13        	sbc	$13                     ; 0x2013 <_ZN12_GLOBAL__N_13putEcP6Status+0x4e>
    179f: 84 17        	sty	$17                     ; 0x2017 <_ZN12_GLOBAL__N_13putEcP6Status+0x52>
    17a1: 06 17        	asl	$17                     ; 0x2017 <_ZN12_GLOBAL__N_13putEcP6Status+0x52>
    17a3: 85 16        	sta	$16                     ; 0x2016 <_ZN12_GLOBAL__N_13putEcP6Status+0x51>
    17a5: 2a           	rol
    17a6: 64 13        	stz	$13                     ; 0x2013 <_ZN12_GLOBAL__N_13putEcP6Status+0x4e>
    17a8: 26 13        	rol	$13                     ; 0x2013 <_ZN12_GLOBAL__N_13putEcP6Status+0x4e>
    17aa: 06 17        	asl	$17                     ; 0x2017 <_ZN12_GLOBAL__N_13putEcP6Status+0x52>
    17ac: 2a           	rol
    17ad: 85 12        	sta	$12                     ; 0x2012 <_ZN12_GLOBAL__N_13putEcP6Status+0x4d>
    17af: 26 13        	rol	$13                     ; 0x2013 <_ZN12_GLOBAL__N_13putEcP6Status+0x4e>
    17b1: d0 04        	bne	$17b7 <main+0x125e>
    17b3: a5 12        	lda	$12                     ; 0x2012 <_ZN12_GLOBAL__N_13putEcP6Status+0x4d>
    17b5: f0 47        	beq	$17fe <main+0x12a5>
    17b7: 84 18        	sty	$18                     ; 0x2018 <_ZN12_GLOBAL__N_13putEcP6Status+0x53>
    17b9: a0 00        	ldy	#$0
    17bb: a2 00        	ldx	#$0
    17bd: 84 17        	sty	$17                     ; 0x2017 <_ZN12_GLOBAL__N_13putEcP6Status+0x52>
    17bf: a0 00        	ldy	#$0
    17c1: b1 24        	lda	($24),y                 ; 0x2024 <_ZN12_GLOBAL__N_13putEcP6Status+0x5f>
    17c3: 8d 07 d7     	sta	$d707                   ; 0xd707 <__heap_start+0x78a3>
    17c6: c8           	iny
    17c7: c0 40        	cpy	#$40
    17c9: d0 f6        	bne	$17c1 <main+0x1268>
    17cb: a4 17        	ldy	$17                     ; 0x2017 <_ZN12_GLOBAL__N_13putEcP6Status+0x52>
    17cd: c8           	iny
    17ce: d0 01        	bne	$17d1 <main+0x1278>
    17d0: e8           	inx
    17d1: e4 13        	cpx	$13                     ; 0x2013 <_ZN12_GLOBAL__N_13putEcP6Status+0x4e>
    17d3: d0 e8        	bne	$17bd <main+0x1264>
    17d5: c4 12        	cpy	$12                     ; 0x2012 <_ZN12_GLOBAL__N_13putEcP6Status+0x4d>
    17d7: d0 e4        	bne	$17bd <main+0x1264>
    17d9: a5 18        	lda	$18                     ; 0x2018 <_ZN12_GLOBAL__N_13putEcP6Status+0x53>
    17db: 29 c0        	and	#$c0
    17dd: 85 12        	sta	$12                     ; 0x2012 <_ZN12_GLOBAL__N_13putEcP6Status+0x4d>
    17df: a5 16        	lda	$16                     ; 0x2016 <_ZN12_GLOBAL__N_13putEcP6Status+0x51>
    17e1: 29 0f        	and	#$f
    17e3: 85 13        	sta	$13                     ; 0x2013 <_ZN12_GLOBAL__N_13putEcP6Status+0x4e>
    17e5: 38           	sec
    17e6: a5 15        	lda	$15                     ; 0x2015 <_ZN12_GLOBAL__N_13putEcP6Status+0x50>
    17e8: e5 12        	sbc	$12                     ; 0x2012 <_ZN12_GLOBAL__N_13putEcP6Status+0x4d>
    17ea: a8           	tay
    17eb: a5 14        	lda	$14                     ; 0x2014 <_ZN12_GLOBAL__N_13putEcP6Status+0x4f>
    17ed: e5 13        	sbc	$13                     ; 0x2013 <_ZN12_GLOBAL__N_13putEcP6Status+0x4e>
    17ef: aa           	tax
    17f0: 84 15        	sty	$15                     ; 0x2015 <_ZN12_GLOBAL__N_13putEcP6Status+0x50>
    17f2: 8a           	txa
    17f3: f0 03        	beq	$17f8 <main+0x129f>
    17f5: 4c 87 17     	jmp	$1787 <main+0x122e>
    17f8: 98           	tya
    17f9: f0 09        	beq	$1804 <main+0x12ab>
    17fb: 4c 87 17     	jmp	$1787 <main+0x122e>
    17fe: a6 14        	ldx	$14                     ; 0x2014 <_ZN12_GLOBAL__N_13putEcP6Status+0x4f>
    1800: a4 15        	ldy	$15                     ; 0x2015 <_ZN12_GLOBAL__N_13putEcP6Status+0x50>
    1802: 80 ec        	bra	$17f0 <main+0x1297>
    1804: ae 5b 5e     	ldx	$5e5b                   ; 0x5e5b <theMP3file>
    1807: ac 5c 5e     	ldy	$5e5c                   ; 0x5e5c <theMP3file+0x1>
    180a: 86 12        	stx	$12                     ; 0x2012 <_ZN12_GLOBAL__N_13putEcP6Status+0x4d>
    180c: 84 13        	sty	$13                     ; 0x2013 <_ZN12_GLOBAL__N_13putEcP6Status+0x4e>
    180e: 20 8e 1b     	jsr	$1b8e <fileClose>
    1811: 78           	sei
    1812: a2 07        	ldx	#$7
    1814: 86 0f        	stx	$f                      ; 0x200f <_ZN12_GLOBAL__N_13putEcP6Status+0x4a>
    1816: a2 de        	ldx	#$de
    1818: 8e a2 d6     	stx	$d6a2                   ; 0xd6a2 <__heap_start+0x783e>
    181b: a2 ad        	ldx	#$ad
    181d: 8e a3 d6     	stx	$d6a3                   ; 0xd6a3 <__heap_start+0x783f>
    1820: a2 f0        	ldx	#$f0
    1822: 8e a0 d6     	stx	$d6a0                   ; 0xd6a0 <__heap_start+0x783c>
    1825: 9c a0 d6     	stz	$d6a0                   ; 0xd6a0 <__heap_start+0x783c>
    1828: 6c fc ff     	jmp	($fffc)                 ; 0xfffc <__heap_start+0xa198>
    182b: a2 00        	ldx	#$0
    182d: 8a           	txa
    182e: 85 20        	sta	$20                     ; 0x2020 <_ZN12_GLOBAL__N_13putEcP6Status+0x5b>
    1830: a0 02        	ldy	#$2
    1832: b1 10        	lda	($10),y                 ; 0x2010 <_ZN12_GLOBAL__N_13putEcP6Status+0x4b>
    1834: 85 2f        	sta	$2f                     ; 0x202f <_ZN12_GLOBAL__N_13putEcP6Status+0x6a>
    1836: c8           	iny
    1837: b1 10        	lda	($10),y                 ; 0x2010 <_ZN12_GLOBAL__N_13putEcP6Status+0x4b>
    1839: 85 2e        	sta	$2e                     ; 0x202e <_ZN12_GLOBAL__N_13putEcP6Status+0x69>
    183b: c8           	iny
    183c: b1 10        	lda	($10),y                 ; 0x2010 <_ZN12_GLOBAL__N_13putEcP6Status+0x4b>
    183e: 85 2d        	sta	$2d                     ; 0x202d <_ZN12_GLOBAL__N_13putEcP6Status+0x68>
    1840: c8           	iny
    1841: b1 10        	lda	($10),y                 ; 0x2010 <_ZN12_GLOBAL__N_13putEcP6Status+0x4b>
    1843: 85 2c        	sta	$2c                     ; 0x202c <_ZN12_GLOBAL__N_13putEcP6Status+0x67>
    1845: c8           	iny
    1846: b1 10        	lda	($10),y                 ; 0x2010 <_ZN12_GLOBAL__N_13putEcP6Status+0x4b>
    1848: 85 2b        	sta	$2b                     ; 0x202b <_ZN12_GLOBAL__N_13putEcP6Status+0x66>
    184a: c8           	iny
    184b: b1 10        	lda	($10),y                 ; 0x2010 <_ZN12_GLOBAL__N_13putEcP6Status+0x4b>
    184d: 85 2a        	sta	$2a                     ; 0x202a <_ZN12_GLOBAL__N_13putEcP6Status+0x65>
    184f: c8           	iny
    1850: b1 10        	lda	($10),y                 ; 0x2010 <_ZN12_GLOBAL__N_13putEcP6Status+0x4b>
    1852: 85 29        	sta	$29                     ; 0x2029 <_ZN12_GLOBAL__N_13putEcP6Status+0x64>
    1854: c8           	iny
    1855: b1 10        	lda	($10),y                 ; 0x2010 <_ZN12_GLOBAL__N_13putEcP6Status+0x4b>
    1857: 85 28        	sta	$28                     ; 0x2028 <_ZN12_GLOBAL__N_13putEcP6Status+0x63>
    1859: 7a           	ply
    185a: 84 27        	sty	$27                     ; 0x2027 <_ZN12_GLOBAL__N_13putEcP6Status+0x62>
    185c: 7a           	ply
    185d: 84 26        	sty	$26                     ; 0x2026 <_ZN12_GLOBAL__N_13putEcP6Status+0x61>
    185f: 7a           	ply
    1860: 84 25        	sty	$25                     ; 0x2025 <_ZN12_GLOBAL__N_13putEcP6Status+0x60>
    1862: 7a           	ply
    1863: 84 24        	sty	$24                     ; 0x2024 <_ZN12_GLOBAL__N_13putEcP6Status+0x5f>
    1865: 18           	clc
    1866: a5 10        	lda	$10                     ; 0x2010 <_ZN12_GLOBAL__N_13putEcP6Status+0x4b>
    1868: 69 99        	adc	#$99
    186a: 85 10        	sta	$10                     ; 0x2010 <_ZN12_GLOBAL__N_13putEcP6Status+0x4b>
    186c: a5 11        	lda	$11                     ; 0x2011 <_ZN12_GLOBAL__N_13putEcP6Status+0x4c>
    186e: 69 20        	adc	#$20
    1870: 85 11        	sta	$11                     ; 0x2011 <_ZN12_GLOBAL__N_13putEcP6Status+0x4c>
    1872: a5 20        	lda	$20                     ; 0x2020 <_ZN12_GLOBAL__N_13putEcP6Status+0x5b>
    1874: 60           	rts

00001875 <fileRead>:
    1875: 85 16        	sta	$16                     ; 0x2016 <_ZN12_GLOBAL__N_13putEcP6Status+0x51>
    1877: 86 17        	stx	$17                     ; 0x2017 <_ZN12_GLOBAL__N_13putEcP6Status+0x52>
    1879: 64 18        	stz	$18                     ; 0x2018 <_ZN12_GLOBAL__N_13putEcP6Status+0x53>
    187b: a6 12        	ldx	$12                     ; 0x2012 <_ZN12_GLOBAL__N_13putEcP6Status+0x4d>
    187d: 86 1a        	stx	$1a                     ; 0x201a <_ZN12_GLOBAL__N_13putEcP6Status+0x55>
    187f: a6 13        	ldx	$13                     ; 0x2013 <_ZN12_GLOBAL__N_13putEcP6Status+0x4e>
    1881: 86 1b        	stx	$1b                     ; 0x201b <_ZN12_GLOBAL__N_13putEcP6Status+0x56>
    1883: a2 3d        	ldx	#$3d
    1885: a0 00        	ldy	#$0
    1887: a9 35        	lda	#$35
    1889: 85 12        	sta	$12                     ; 0x2012 <_ZN12_GLOBAL__N_13putEcP6Status+0x4d>
    188b: a9 00        	lda	#$0
    188d: 85 13        	sta	$13                     ; 0x2013 <_ZN12_GLOBAL__N_13putEcP6Status+0x4e>
    188f: 64 19        	stz	$19                     ; 0x2019 <_ZN12_GLOBAL__N_13putEcP6Status+0x54>
    1891: b2 14        	lda	($14)                   ; 0x2014 <_ZN12_GLOBAL__N_13putEcP6Status+0x4f>
    1893: 85 1d        	sta	$1d                     ; 0x201d <_ZN12_GLOBAL__N_13putEcP6Status+0x58>
    1895: a5 1a        	lda	$1a                     ; 0x201a <_ZN12_GLOBAL__N_13putEcP6Status+0x55>
    1897: 85 1e        	sta	$1e                     ; 0x201e <_ZN12_GLOBAL__N_13putEcP6Status+0x59>
    1899: a5 1a        	lda	$1a                     ; 0x201a <_ZN12_GLOBAL__N_13putEcP6Status+0x55>
    189b: 18           	clc
    189c: 65 18        	adc	$18                     ; 0x2018 <_ZN12_GLOBAL__N_13putEcP6Status+0x53>
    189e: 85 1c        	sta	$1c                     ; 0x201c <_ZN12_GLOBAL__N_13putEcP6Status+0x57>
    18a0: a5 1b        	lda	$1b                     ; 0x201b <_ZN12_GLOBAL__N_13putEcP6Status+0x56>
    18a2: 85 1f        	sta	$1f                     ; 0x201f <_ZN12_GLOBAL__N_13putEcP6Status+0x5a>
    18a4: a5 1b        	lda	$1b                     ; 0x201b <_ZN12_GLOBAL__N_13putEcP6Status+0x56>
    18a6: 65 19        	adc	$19                     ; 0x2019 <_ZN12_GLOBAL__N_13putEcP6Status+0x54>
    18a8: e6 1d        	inc	$1d                     ; 0x201d <_ZN12_GLOBAL__N_13putEcP6Status+0x58>
    18aa: c6 1d        	dec	$1d                     ; 0x201d <_ZN12_GLOBAL__N_13putEcP6Status+0x58>
    18ac: d0 03        	bne	$18b1 <fileRead+0x3c>
    18ae: 4c 2e 19     	jmp	$192e <fileRead+0xb9>
    18b1: 5a           	phy
    18b2: a4 1d        	ldy	$1d                     ; 0x201d <_ZN12_GLOBAL__N_13putEcP6Status+0x58>
    18b4: 84 1a        	sty	$1a                     ; 0x201a <_ZN12_GLOBAL__N_13putEcP6Status+0x55>
    18b6: 7a           	ply
    18b7: 85 1d        	sta	$1d                     ; 0x201d <_ZN12_GLOBAL__N_13putEcP6Status+0x58>
    18b9: a5 16        	lda	$16                     ; 0x2016 <_ZN12_GLOBAL__N_13putEcP6Status+0x51>
    18bb: 38           	sec
    18bc: e5 18        	sbc	$18                     ; 0x2018 <_ZN12_GLOBAL__N_13putEcP6Status+0x53>
    18be: 85 1b        	sta	$1b                     ; 0x201b <_ZN12_GLOBAL__N_13putEcP6Status+0x56>
    18c0: a5 1a        	lda	$1a                     ; 0x201a <_ZN12_GLOBAL__N_13putEcP6Status+0x55>
    18c2: 85 f3        	sta	$f3                     ; 0x20f3 <_ZN12_GLOBAL__N_112print_stringEPKcP6Status+0x53>
    18c4: a5 1b        	lda	$1b                     ; 0x201b <_ZN12_GLOBAL__N_13putEcP6Status+0x56>
    18c6: 85 f4        	sta	$f4                     ; 0x20f4 <_ZN12_GLOBAL__N_112print_stringEPKcP6Status+0x54>
    18c8: a9 3f        	lda	#$3f
    18ca: 85 1a        	sta	$1a                     ; 0x201a <_ZN12_GLOBAL__N_13putEcP6Status+0x55>
    18cc: a9 00        	lda	#$0
    18ce: 85 1b        	sta	$1b                     ; 0x201b <_ZN12_GLOBAL__N_13putEcP6Status+0x56>
    18d0: 20 60 ff     	jsr	$ff60 <__heap_start+0xa0fc>
    18d3: 92 1a        	sta	($1a)                   ; 0x201a <_ZN12_GLOBAL__N_13putEcP6Status+0x55>
    18d5: a9 00        	lda	#$0
    18d7: 6a           	ror
    18d8: 85 12        	sta	$12                     ; 0x2012 <_ZN12_GLOBAL__N_13putEcP6Status+0x4d>
    18da: a5 35        	lda	$35                     ; 0x2035 <_ZN12_GLOBAL__N_13putEcP6Status+0x70>
    18dc: f0 03        	beq	$18e1 <fileRead+0x6c>
    18de: 4c a8 19     	jmp	$19a8 <fileRead+0x133>
    18e1: 64 36        	stz	$36                     ; 0x2036 <_ZN12_GLOBAL__N_13putEcP6Status+0x71>
    18e3: a9 40        	lda	#$40
    18e5: 85 1a        	sta	$1a                     ; 0x201a <_ZN12_GLOBAL__N_13putEcP6Status+0x55>
    18e7: a9 00        	lda	#$0
    18e9: 85 1b        	sta	$1b                     ; 0x201b <_ZN12_GLOBAL__N_13putEcP6Status+0x56>
    18eb: 20 00 ff     	jsr	$ff00 <__heap_start+0xa09c>
    18ee: 92 1a        	sta	($1a)                   ; 0x201a <_ZN12_GLOBAL__N_13putEcP6Status+0x55>
    18f0: a9 00        	lda	#$0
    18f2: 6a           	ror
    18f3: 85 12        	sta	$12                     ; 0x2012 <_ZN12_GLOBAL__N_13putEcP6Status+0x4d>
    18f5: a5 36        	lda	$36                     ; 0x2036 <_ZN12_GLOBAL__N_13putEcP6Status+0x71>
    18f7: c9 38        	cmp	#$38
    18f9: d0 03        	bne	$18fe <fileRead+0x89>
    18fb: 4c a8 19     	jmp	$19a8 <fileRead+0x133>
    18fe: c9 30        	cmp	#$30
    1900: d0 03        	bne	$1905 <fileRead+0x90>
    1902: 4c af 19     	jmp	$19af <fileRead+0x13a>
    1905: c9 2c        	cmp	#$2c
    1907: d0 d8        	bne	$18e1 <fileRead+0x6c>
    1909: a5 1c        	lda	$1c                     ; 0x201c <_ZN12_GLOBAL__N_13putEcP6Status+0x57>
    190b: 85 fb        	sta	$fb                     ; 0x20fb <_ZN12_GLOBAL__N_112print_stringEPKcP6Status+0x5b>
    190d: a5 1d        	lda	$1d                     ; 0x201d <_ZN12_GLOBAL__N_13putEcP6Status+0x58>
    190f: 85 fc        	sta	$fc                     ; 0x20fc <_ZN12_GLOBAL__N_112print_stringEPKcP6Status+0x5c>
    1911: a5 3c        	lda	$3c                     ; 0x203c <_ZN12_GLOBAL__N_13putEcP6Status+0x77>
    1913: 85 fd        	sta	$fd                     ; 0x20fd <_ZN12_GLOBAL__N_112print_stringEPKcP6Status+0x5d>
    1915: a9 41        	lda	#$41
    1917: 85 1a        	sta	$1a                     ; 0x201a <_ZN12_GLOBAL__N_13putEcP6Status+0x55>
    1919: a9 00        	lda	#$0
    191b: 85 1b        	sta	$1b                     ; 0x201b <_ZN12_GLOBAL__N_13putEcP6Status+0x56>
    191d: 20 04 ff     	jsr	$ff04 <__heap_start+0xa0a0>
    1920: 92 1a        	sta	($1a)                   ; 0x201a <_ZN12_GLOBAL__N_13putEcP6Status+0x55>
    1922: a9 00        	lda	#$0
    1924: 6a           	ror
    1925: 85 12        	sta	$12                     ; 0x2012 <_ZN12_GLOBAL__N_13putEcP6Status+0x4d>
    1927: a5 3c        	lda	$3c                     ; 0x203c <_ZN12_GLOBAL__N_13putEcP6Status+0x77>
    1929: d0 45        	bne	$1970 <fileRead+0xfb>
    192b: 4c b9 19     	jmp	$19b9 <fileRead+0x144>
    192e: 5a           	phy
    192f: a4 1c        	ldy	$1c                     ; 0x201c <_ZN12_GLOBAL__N_13putEcP6Status+0x57>
    1931: 84 1a        	sty	$1a                     ; 0x201a <_ZN12_GLOBAL__N_13putEcP6Status+0x55>
    1933: 7a           	ply
    1934: 85 1b        	sta	$1b                     ; 0x201b <_ZN12_GLOBAL__N_13putEcP6Status+0x56>
    1936: 80 0a        	bra	$1942 <fileRead+0xcd>
    1938: a5 36        	lda	$36                     ; 0x2036 <_ZN12_GLOBAL__N_13putEcP6Status+0x71>
    193a: c9 08        	cmp	#$8
    193c: d0 04        	bne	$1942 <fileRead+0xcd>
    193e: a5 3c        	lda	$3c                     ; 0x203c <_ZN12_GLOBAL__N_13putEcP6Status+0x77>
    1940: f0 28        	beq	$196a <fileRead+0xf5>
    1942: 64 36        	stz	$36                     ; 0x2036 <_ZN12_GLOBAL__N_13putEcP6Status+0x71>
    1944: 86 1c        	stx	$1c                     ; 0x201c <_ZN12_GLOBAL__N_13putEcP6Status+0x57>
    1946: 84 1d        	sty	$1d                     ; 0x201d <_ZN12_GLOBAL__N_13putEcP6Status+0x58>
    1948: 20 00 ff     	jsr	$ff00 <__heap_start+0xa09c>
    194b: 92 1c        	sta	($1c)                   ; 0x201c <_ZN12_GLOBAL__N_13putEcP6Status+0x57>
    194d: a9 00        	lda	#$0
    194f: 6a           	ror
    1950: 85 12        	sta	$12                     ; 0x2012 <_ZN12_GLOBAL__N_13putEcP6Status+0x4d>
    1952: a5 35        	lda	$35                     ; 0x2035 <_ZN12_GLOBAL__N_13putEcP6Status+0x70>
    1954: f0 e2        	beq	$1938 <fileRead+0xc3>
    1956: a9 3e        	lda	#$3e
    1958: 85 1c        	sta	$1c                     ; 0x201c <_ZN12_GLOBAL__N_13putEcP6Status+0x57>
    195a: a9 00        	lda	#$0
    195c: 85 1d        	sta	$1d                     ; 0x201d <_ZN12_GLOBAL__N_13putEcP6Status+0x58>
    195e: 20 0c ff     	jsr	$ff0c <__heap_start+0xa0a8>
    1961: 92 1c        	sta	($1c)                   ; 0x201c <_ZN12_GLOBAL__N_13putEcP6Status+0x57>
    1963: a9 00        	lda	#$0
    1965: 6a           	ror
    1966: 85 12        	sta	$12                     ; 0x2012 <_ZN12_GLOBAL__N_13putEcP6Status+0x4d>
    1968: 80 d8        	bra	$1942 <fileRead+0xcd>
    196a: a5 3b        	lda	$3b                     ; 0x203b <_ZN12_GLOBAL__N_13putEcP6Status+0x76>
    196c: 92 1a        	sta	($1a)                   ; 0x201a <_ZN12_GLOBAL__N_13putEcP6Status+0x55>
    196e: a9 01        	lda	#$1
    1970: 85 42        	sta	$42                     ; 0x2042 <_ZN12_GLOBAL__N_13putEcP6Status+0x7d>
    1972: a9 00        	lda	#$0
    1974: 85 43        	sta	$43                     ; 0x2043 <_ZN12_GLOBAL__N_13putEcP6Status+0x7e>
    1976: 18           	clc
    1977: a5 42        	lda	$42                     ; 0x2042 <_ZN12_GLOBAL__N_13putEcP6Status+0x7d>
    1979: 65 18        	adc	$18                     ; 0x2018 <_ZN12_GLOBAL__N_13putEcP6Status+0x53>
    197b: 85 42        	sta	$42                     ; 0x2042 <_ZN12_GLOBAL__N_13putEcP6Status+0x7d>
    197d: a5 43        	lda	$43                     ; 0x2043 <_ZN12_GLOBAL__N_13putEcP6Status+0x7e>
    197f: 65 19        	adc	$19                     ; 0x2019 <_ZN12_GLOBAL__N_13putEcP6Status+0x54>
    1981: c5 17        	cmp	$17                     ; 0x2017 <_ZN12_GLOBAL__N_13putEcP6Status+0x52>
    1983: d0 0a        	bne	$198f <fileRead+0x11a>
    1985: 85 19        	sta	$19                     ; 0x2019 <_ZN12_GLOBAL__N_13putEcP6Status+0x54>
    1987: a5 42        	lda	$42                     ; 0x2042 <_ZN12_GLOBAL__N_13putEcP6Status+0x7d>
    1989: 85 18        	sta	$18                     ; 0x2018 <_ZN12_GLOBAL__N_13putEcP6Status+0x53>
    198b: c5 16        	cmp	$16                     ; 0x2016 <_ZN12_GLOBAL__N_13putEcP6Status+0x51>
    198d: 80 08        	bra	$1997 <fileRead+0x122>
    198f: c5 17        	cmp	$17                     ; 0x2017 <_ZN12_GLOBAL__N_13putEcP6Status+0x52>
    1991: 85 19        	sta	$19                     ; 0x2019 <_ZN12_GLOBAL__N_13putEcP6Status+0x54>
    1993: a5 42        	lda	$42                     ; 0x2042 <_ZN12_GLOBAL__N_13putEcP6Status+0x7d>
    1995: 85 18        	sta	$18                     ; 0x2018 <_ZN12_GLOBAL__N_13putEcP6Status+0x53>
    1997: a5 19        	lda	$19                     ; 0x2019 <_ZN12_GLOBAL__N_13putEcP6Status+0x54>
    1999: 5a           	phy
    199a: a4 1e        	ldy	$1e                     ; 0x201e <_ZN12_GLOBAL__N_13putEcP6Status+0x59>
    199c: 84 1a        	sty	$1a                     ; 0x201a <_ZN12_GLOBAL__N_13putEcP6Status+0x55>
    199e: a4 1f        	ldy	$1f                     ; 0x201f <_ZN12_GLOBAL__N_13putEcP6Status+0x5a>
    19a0: 84 1b        	sty	$1b                     ; 0x201b <_ZN12_GLOBAL__N_13putEcP6Status+0x56>
    19a2: 7a           	ply
    19a3: b0 10        	bcs	$19b5 <fileRead+0x140>
    19a5: 4c 91 18     	jmp	$1891 <fileRead+0x1c>
    19a8: a9 ff        	lda	#$ff
    19aa: aa           	tax
    19ab: 86 42        	stx	$42                     ; 0x2042 <_ZN12_GLOBAL__N_13putEcP6Status+0x7d>
    19ad: 80 06        	bra	$19b5 <fileRead+0x140>
    19af: a6 18        	ldx	$18                     ; 0x2018 <_ZN12_GLOBAL__N_13putEcP6Status+0x53>
    19b1: 86 42        	stx	$42                     ; 0x2042 <_ZN12_GLOBAL__N_13putEcP6Status+0x7d>
    19b3: a5 19        	lda	$19                     ; 0x2019 <_ZN12_GLOBAL__N_13putEcP6Status+0x54>
    19b5: aa           	tax
    19b6: a5 42        	lda	$42                     ; 0x2042 <_ZN12_GLOBAL__N_13putEcP6Status+0x7d>
    19b8: 60           	rts
    19b9: a9 00        	lda	#$0
    19bb: 85 42        	sta	$42                     ; 0x2042 <_ZN12_GLOBAL__N_13putEcP6Status+0x7d>
    19bd: 1a           	inc
    19be: 80 b4        	bra	$1974 <fileRead+0xff>

000019c0 <textPrint>:
    19c0: a6 01        	ldx	$1                      ; 0x2001 <_ZN12_GLOBAL__N_13putEcP6Status+0x3c>
    19c2: 86 94        	stx	$94                     ; 0x2094 <_ZN12_GLOBAL__N_13putEcP6Status+0xcf>
    19c4: a6 32        	ldx	$32                     ; 0x2032 <_ZN12_GLOBAL__N_13putEcP6Status+0x6d>
    19c6: a0 50        	ldy	#$50
    19c8: 8c 00 de     	sty	$de00                   ; 0xde00 <__heap_start+0x7f9c>
    19cb: 9c 01 de     	stz	$de01                   ; 0xde01 <__heap_start+0x7f9d>
    19ce: 8e 02 de     	stx	$de02                   ; 0xde02 <__heap_start+0x7f9e>
    19d1: 9c 03 de     	stz	$de03                   ; 0xde03 <__heap_start+0x7f9f>
    19d4: ae 10 de     	ldx	$de10                   ; 0xde10 <__heap_start+0x7fac>
    19d7: ac 11 de     	ldy	$de11                   ; 0xde11 <__heap_start+0x7fad>
    19da: 84 15        	sty	$15                     ; 0x2015 <_ZN12_GLOBAL__N_13putEcP6Status+0x50>
    19dc: ad 12 de     	lda	$de12                   ; 0xde12 <__heap_start+0x7fae>
    19df: ac 13 de     	ldy	$de13                   ; 0xde13 <__heap_start+0x7faf>
    19e2: 84 1c        	sty	$1c                     ; 0x201c <_ZN12_GLOBAL__N_13putEcP6Status+0x57>
    19e4: 9c 08 de     	stz	$de08                   ; 0xde08 <__heap_start+0x7fa4>
    19e7: a0 c0        	ldy	#$c0
    19e9: 8c 09 de     	sty	$de09                   ; 0xde09 <__heap_start+0x7fa5>
    19ec: 9c 0a de     	stz	$de0a                   ; 0xde0a <__heap_start+0x7fa6>
    19ef: 9c 0b de     	stz	$de0b                   ; 0xde0b <__heap_start+0x7fa7>
    19f2: 8e 0c de     	stx	$de0c                   ; 0xde0c <__heap_start+0x7fa8>
    19f5: 64 14        	stz	$14                     ; 0x2014 <_ZN12_GLOBAL__N_13putEcP6Status+0x4f>
    19f7: a2 00        	ldx	#$0
    19f9: 86 16        	stx	$16                     ; 0x2016 <_ZN12_GLOBAL__N_13putEcP6Status+0x51>
    19fb: a2 c0        	ldx	#$c0
    19fd: 86 17        	stx	$17                     ; 0x2017 <_ZN12_GLOBAL__N_13putEcP6Status+0x52>
    19ff: a2 11        	ldx	#$11
    1a01: 86 18        	stx	$18                     ; 0x2018 <_ZN12_GLOBAL__N_13putEcP6Status+0x53>
    1a03: a2 c9        	ldx	#$c9
    1a05: 86 19        	stx	$19                     ; 0x2019 <_ZN12_GLOBAL__N_13putEcP6Status+0x54>
    1a07: a2 10        	ldx	#$10
    1a09: 86 1a        	stx	$1a                     ; 0x201a <_ZN12_GLOBAL__N_13putEcP6Status+0x55>
    1a0b: a2 c9        	ldx	#$c9
    1a0d: 86 1b        	stx	$1b                     ; 0x201b <_ZN12_GLOBAL__N_13putEcP6Status+0x56>
    1a0f: a6 15        	ldx	$15                     ; 0x2015 <_ZN12_GLOBAL__N_13putEcP6Status+0x50>
    1a11: 8e 0d de     	stx	$de0d                   ; 0xde0d <__heap_start+0x7fa9>
    1a14: 8d 0e de     	sta	$de0e                   ; 0xde0e <__heap_start+0x7faa>
    1a17: a6 1c        	ldx	$1c                     ; 0x201c <_ZN12_GLOBAL__N_13putEcP6Status+0x57>
    1a19: 8e 0f de     	stx	$de0f                   ; 0xde0f <__heap_start+0x7fab>
    1a1c: ac 18 de     	ldy	$de18                   ; 0xde18 <__heap_start+0x7fb4>
    1a1f: ad 19 de     	lda	$de19                   ; 0xde19 <__heap_start+0x7fb5>
    1a22: ae 1a de     	ldx	$de1a                   ; 0xde1a <__heap_start+0x7fb6>
    1a25: ae 1b de     	ldx	$de1b                   ; 0xde1b <__heap_start+0x7fb7>
    1a28: 84 1c        	sty	$1c                     ; 0x201c <_ZN12_GLOBAL__N_13putEcP6Status+0x57>
    1a2a: 85 1d        	sta	$1d                     ; 0x201d <_ZN12_GLOBAL__N_13putEcP6Status+0x58>
    1a2c: 64 15        	stz	$15                     ; 0x2015 <_ZN12_GLOBAL__N_13putEcP6Status+0x50>
    1a2e: 80 13        	bra	$1a43 <textPrint+0x83>
    1a30: a5 1c        	lda	$1c                     ; 0x201c <_ZN12_GLOBAL__N_13putEcP6Status+0x57>
    1a32: 18           	clc
    1a33: 69 50        	adc	#$50
    1a35: 85 1c        	sta	$1c                     ; 0x201c <_ZN12_GLOBAL__N_13putEcP6Status+0x57>
    1a37: a5 1d        	lda	$1d                     ; 0x201d <_ZN12_GLOBAL__N_13putEcP6Status+0x58>
    1a39: 69 00        	adc	#$0
    1a3b: 85 1d        	sta	$1d                     ; 0x201d <_ZN12_GLOBAL__N_13putEcP6Status+0x58>
    1a3d: e6 14        	inc	$14                     ; 0x2014 <_ZN12_GLOBAL__N_13putEcP6Status+0x4f>
    1a3f: d0 02        	bne	$1a43 <textPrint+0x83>
    1a41: e6 15        	inc	$15                     ; 0x2015 <_ZN12_GLOBAL__N_13putEcP6Status+0x50>
    1a43: a5 12        	lda	$12                     ; 0x2012 <_ZN12_GLOBAL__N_13putEcP6Status+0x4d>
    1a45: 18           	clc
    1a46: 65 14        	adc	$14                     ; 0x2014 <_ZN12_GLOBAL__N_13putEcP6Status+0x4f>
    1a48: 85 1e        	sta	$1e                     ; 0x201e <_ZN12_GLOBAL__N_13putEcP6Status+0x59>
    1a4a: a5 13        	lda	$13                     ; 0x2013 <_ZN12_GLOBAL__N_13putEcP6Status+0x4e>
    1a4c: 65 15        	adc	$15                     ; 0x2015 <_ZN12_GLOBAL__N_13putEcP6Status+0x50>
    1a4e: 85 1f        	sta	$1f                     ; 0x201f <_ZN12_GLOBAL__N_13putEcP6Status+0x5a>
    1a50: b2 1e        	lda	($1e)                   ; 0x201e <_ZN12_GLOBAL__N_13putEcP6Status+0x59>
    1a52: c9 0a        	cmp	#$a
    1a54: f0 31        	beq	$1a87 <textPrint+0xc7>
    1a56: c9 0d        	cmp	#$d
    1a58: f0 2d        	beq	$1a87 <textPrint+0xc7>
    1a5a: aa           	tax
    1a5b: d0 03        	bne	$1a60 <textPrint+0xa0>
    1a5d: 4c 77 1b     	jmp	$1b77 <textPrint+0x1b7>
    1a60: a2 03        	ldx	#$3
    1a62: 86 01        	stx	$1                      ; 0x2001 <_ZN12_GLOBAL__N_13putEcP6Status+0x3c>
    1a64: a5 30        	lda	$30                     ; 0x2030 <_ZN12_GLOBAL__N_13putEcP6Status+0x6b>
    1a66: 29 01        	and	#$1
    1a68: a2 60        	ldx	#$60
    1a6a: a8           	tay
    1a6b: d0 02        	bne	$1a6f <textPrint+0xaf>
    1a6d: a2 f0        	ldx	#$f0
    1a6f: a4 31        	ldy	$31                     ; 0x2031 <_ZN12_GLOBAL__N_13putEcP6Status+0x6c>
    1a71: 8a           	txa
    1a72: 91 1c        	sta	($1c),y                 ; 0x201c <_ZN12_GLOBAL__N_13putEcP6Status+0x57>
    1a74: a2 02        	ldx	#$2
    1a76: 86 01        	stx	$1                      ; 0x2001 <_ZN12_GLOBAL__N_13putEcP6Status+0x3c>
    1a78: b2 1e        	lda	($1e)                   ; 0x201e <_ZN12_GLOBAL__N_13putEcP6Status+0x59>
    1a7a: a4 31        	ldy	$31                     ; 0x2031 <_ZN12_GLOBAL__N_13putEcP6Status+0x6c>
    1a7c: 91 1c        	sta	($1c),y                 ; 0x201c <_ZN12_GLOBAL__N_13putEcP6Status+0x57>
    1a7e: a6 31        	ldx	$31                     ; 0x2031 <_ZN12_GLOBAL__N_13putEcP6Status+0x6c>
    1a80: e8           	inx
    1a81: e6 31        	inc	$31                     ; 0x2031 <_ZN12_GLOBAL__N_13putEcP6Status+0x6c>
    1a83: e0 50        	cpx	#$50
    1a85: d0 b6        	bne	$1a3d <textPrint+0x7d>
    1a87: 64 31        	stz	$31                     ; 0x2031 <_ZN12_GLOBAL__N_13putEcP6Status+0x6c>
    1a89: a6 32        	ldx	$32                     ; 0x2032 <_ZN12_GLOBAL__N_13putEcP6Status+0x6d>
    1a8b: e8           	inx
    1a8c: e6 32        	inc	$32                     ; 0x2032 <_ZN12_GLOBAL__N_13putEcP6Status+0x6d>
    1a8e: e0 1e        	cpx	#$1e
    1a90: f0 03        	beq	$1a95 <textPrint+0xd5>
    1a92: 4c 30 1a     	jmp	$1a30 <textPrint+0x70>
    1a95: a2 03        	ldx	#$3
    1a97: 86 01        	stx	$1                      ; 0x2001 <_ZN12_GLOBAL__N_13putEcP6Status+0x3c>
    1a99: a2 01        	ldx	#$1
    1a9b: 86 1c        	stx	$1c                     ; 0x201c <_ZN12_GLOBAL__N_13putEcP6Status+0x57>
    1a9d: a2 09        	ldx	#$9
    1a9f: a9 10        	lda	#$10
    1aa1: a0 00        	ldy	#$0
    1aa3: 84 1e        	sty	$1e                     ; 0x201e <_ZN12_GLOBAL__N_13putEcP6Status+0x59>
    1aa5: a0 c0        	ldy	#$c0
    1aa7: 84 1f        	sty	$1f                     ; 0x201f <_ZN12_GLOBAL__N_13putEcP6Status+0x5a>
    1aa9: 85 1d        	sta	$1d                     ; 0x201d <_ZN12_GLOBAL__N_13putEcP6Status+0x58>
    1aab: a0 50        	ldy	#$50
    1aad: b1 1e        	lda	($1e),y                 ; 0x201e <_ZN12_GLOBAL__N_13putEcP6Status+0x59>
    1aaf: 92 1e        	sta	($1e)                   ; 0x201e <_ZN12_GLOBAL__N_13putEcP6Status+0x59>
    1ab1: a9 ff        	lda	#$ff
    1ab3: c6 1d        	dec	$1d                     ; 0x201d <_ZN12_GLOBAL__N_13putEcP6Status+0x58>
    1ab5: c5 1d        	cmp	$1d                     ; 0x201d <_ZN12_GLOBAL__N_13putEcP6Status+0x58>
    1ab7: d0 01        	bne	$1aba <textPrint+0xfa>
    1ab9: ca           	dex
    1aba: e6 1e        	inc	$1e                     ; 0x201e <_ZN12_GLOBAL__N_13putEcP6Status+0x59>
    1abc: d0 02        	bne	$1ac0 <textPrint+0x100>
    1abe: e6 1f        	inc	$1f                     ; 0x201f <_ZN12_GLOBAL__N_13putEcP6Status+0x5a>
    1ac0: 8a           	txa
    1ac1: d0 ea        	bne	$1aad <textPrint+0xed>
    1ac3: a5 1d        	lda	$1d                     ; 0x201d <_ZN12_GLOBAL__N_13putEcP6Status+0x58>
    1ac5: d0 e6        	bne	$1aad <textPrint+0xed>
    1ac7: a2 02        	ldx	#$2
    1ac9: 86 01        	stx	$1                      ; 0x2001 <_ZN12_GLOBAL__N_13putEcP6Status+0x3c>
    1acb: a2 00        	ldx	#$0
    1acd: a5 1c        	lda	$1c                     ; 0x201c <_ZN12_GLOBAL__N_13putEcP6Status+0x57>
    1acf: d0 ca        	bne	$1a9b <textPrint+0xdb>
    1ad1: a2 03        	ldx	#$3
    1ad3: 86 01        	stx	$1                      ; 0x2001 <_ZN12_GLOBAL__N_13putEcP6Status+0x3c>
    1ad5: a5 30        	lda	$30                     ; 0x2030 <_ZN12_GLOBAL__N_13putEcP6Status+0x6b>
    1ad7: 29 01        	and	#$1
    1ad9: aa           	tax
    1ada: a9 60        	lda	#$60
    1adc: e0 00        	cpx	#$0
    1ade: d0 02        	bne	$1ae2 <textPrint+0x122>
    1ae0: a9 f0        	lda	#$f0
    1ae2: a2 50        	ldx	#$50
    1ae4: a0 11        	ldy	#$11
    1ae6: 84 1c        	sty	$1c                     ; 0x201c <_ZN12_GLOBAL__N_13putEcP6Status+0x57>
    1ae8: a0 c9        	ldy	#$c9
    1aea: 84 1d        	sty	$1d                     ; 0x201d <_ZN12_GLOBAL__N_13putEcP6Status+0x58>
    1aec: a0 10        	ldy	#$10
    1aee: 84 1e        	sty	$1e                     ; 0x201e <_ZN12_GLOBAL__N_13putEcP6Status+0x59>
    1af0: a0 c9        	ldy	#$c9
    1af2: 84 1f        	sty	$1f                     ; 0x201f <_ZN12_GLOBAL__N_13putEcP6Status+0x5a>
    1af4: a4 1c        	ldy	$1c                     ; 0x201c <_ZN12_GLOBAL__N_13putEcP6Status+0x57>
    1af6: 84 22        	sty	$22                     ; 0x2022 <_ZN12_GLOBAL__N_13putEcP6Status+0x5d>
    1af8: a4 1d        	ldy	$1d                     ; 0x201d <_ZN12_GLOBAL__N_13putEcP6Status+0x58>
    1afa: 84 23        	sty	$23                     ; 0x2023 <_ZN12_GLOBAL__N_13putEcP6Status+0x5e>
    1afc: 92 1e        	sta	($1e)                   ; 0x201e <_ZN12_GLOBAL__N_13putEcP6Status+0x59>
    1afe: e6 1c        	inc	$1c                     ; 0x201c <_ZN12_GLOBAL__N_13putEcP6Status+0x57>
    1b00: d0 02        	bne	$1b04 <textPrint+0x144>
    1b02: e6 1d        	inc	$1d                     ; 0x201d <_ZN12_GLOBAL__N_13putEcP6Status+0x58>
    1b04: ca           	dex
    1b05: a4 22        	ldy	$22                     ; 0x2022 <_ZN12_GLOBAL__N_13putEcP6Status+0x5d>
    1b07: 84 1e        	sty	$1e                     ; 0x201e <_ZN12_GLOBAL__N_13putEcP6Status+0x59>
    1b09: a4 23        	ldy	$23                     ; 0x2023 <_ZN12_GLOBAL__N_13putEcP6Status+0x5e>
    1b0b: 84 1f        	sty	$1f                     ; 0x201f <_ZN12_GLOBAL__N_13putEcP6Status+0x5a>
    1b0d: e0 00        	cpx	#$0
    1b0f: d0 e3        	bne	$1af4 <textPrint+0x134>
    1b11: a2 02        	ldx	#$2
    1b13: 86 01        	stx	$1                      ; 0x2001 <_ZN12_GLOBAL__N_13putEcP6Status+0x3c>
    1b15: a2 50        	ldx	#$50
    1b17: a0 11        	ldy	#$11
    1b19: 84 1c        	sty	$1c                     ; 0x201c <_ZN12_GLOBAL__N_13putEcP6Status+0x57>
    1b1b: a0 c9        	ldy	#$c9
    1b1d: 84 1d        	sty	$1d                     ; 0x201d <_ZN12_GLOBAL__N_13putEcP6Status+0x58>
    1b1f: a0 10        	ldy	#$10
    1b21: 84 1e        	sty	$1e                     ; 0x201e <_ZN12_GLOBAL__N_13putEcP6Status+0x59>
    1b23: a0 c9        	ldy	#$c9
    1b25: 84 1f        	sty	$1f                     ; 0x201f <_ZN12_GLOBAL__N_13putEcP6Status+0x5a>
    1b27: a9 20        	lda	#$20
    1b29: a4 1c        	ldy	$1c                     ; 0x201c <_ZN12_GLOBAL__N_13putEcP6Status+0x57>
    1b2b: 84 22        	sty	$22                     ; 0x2022 <_ZN12_GLOBAL__N_13putEcP6Status+0x5d>
    1b2d: a4 1d        	ldy	$1d                     ; 0x201d <_ZN12_GLOBAL__N_13putEcP6Status+0x58>
    1b2f: 84 23        	sty	$23                     ; 0x2023 <_ZN12_GLOBAL__N_13putEcP6Status+0x5e>
    1b31: 92 1e        	sta	($1e)                   ; 0x201e <_ZN12_GLOBAL__N_13putEcP6Status+0x59>
    1b33: e6 1c        	inc	$1c                     ; 0x201c <_ZN12_GLOBAL__N_13putEcP6Status+0x57>
    1b35: d0 02        	bne	$1b39 <textPrint+0x179>
    1b37: e6 1d        	inc	$1d                     ; 0x201d <_ZN12_GLOBAL__N_13putEcP6Status+0x58>
    1b39: ca           	dex
    1b3a: a4 22        	ldy	$22                     ; 0x2022 <_ZN12_GLOBAL__N_13putEcP6Status+0x5d>
    1b3c: 84 1e        	sty	$1e                     ; 0x201e <_ZN12_GLOBAL__N_13putEcP6Status+0x59>
    1b3e: a4 23        	ldy	$23                     ; 0x2023 <_ZN12_GLOBAL__N_13putEcP6Status+0x5e>
    1b40: 84 1f        	sty	$1f                     ; 0x201f <_ZN12_GLOBAL__N_13putEcP6Status+0x5a>
    1b42: e0 00        	cpx	#$0
    1b44: d0 e3        	bne	$1b29 <textPrint+0x169>
    1b46: c6 32        	dec	$32                     ; 0x2032 <_ZN12_GLOBAL__N_13putEcP6Status+0x6d>
    1b48: 9c 08 de     	stz	$de08                   ; 0xde08 <__heap_start+0x7fa4>
    1b4b: a2 c0        	ldx	#$c0
    1b4d: 8e 09 de     	stx	$de09                   ; 0xde09 <__heap_start+0x7fa5>
    1b50: 9c 0a de     	stz	$de0a                   ; 0xde0a <__heap_start+0x7fa6>
    1b53: 9c 0b de     	stz	$de0b                   ; 0xde0b <__heap_start+0x7fa7>
    1b56: a2 1d        	ldx	#$1d
    1b58: 8e 0c de     	stx	$de0c                   ; 0xde0c <__heap_start+0x7fa8>
    1b5b: 9c 0d de     	stz	$de0d                   ; 0xde0d <__heap_start+0x7fa9>
    1b5e: 9c 0e de     	stz	$de0e                   ; 0xde0e <__heap_start+0x7faa>
    1b61: 9c 0f de     	stz	$de0f                   ; 0xde0f <__heap_start+0x7fab>
    1b64: ae 18 de     	ldx	$de18                   ; 0xde18 <__heap_start+0x7fb4>
    1b67: ac 19 de     	ldy	$de19                   ; 0xde19 <__heap_start+0x7fb5>
    1b6a: ad 1a de     	lda	$de1a                   ; 0xde1a <__heap_start+0x7fb6>
    1b6d: ad 1b de     	lda	$de1b                   ; 0xde1b <__heap_start+0x7fb7>
    1b70: 86 1c        	stx	$1c                     ; 0x201c <_ZN12_GLOBAL__N_13putEcP6Status+0x57>
    1b72: 84 1d        	sty	$1d                     ; 0x201d <_ZN12_GLOBAL__N_13putEcP6Status+0x58>
    1b74: 4c 3d 1a     	jmp	$1a3d <textPrint+0x7d>
    1b77: a6 94        	ldx	$94                     ; 0x2094 <_ZN12_GLOBAL__N_13putEcP6Status+0xcf>
    1b79: 86 01        	stx	$1                      ; 0x2001 <_ZN12_GLOBAL__N_13putEcP6Status+0x3c>
    1b7b: a6 31        	ldx	$31                     ; 0x2031 <_ZN12_GLOBAL__N_13putEcP6Status+0x6c>
    1b7d: a4 32        	ldy	$32                     ; 0x2032 <_ZN12_GLOBAL__N_13putEcP6Status+0x6d>
    1b7f: 8e 14 d0     	stx	$d014                   ; 0xd014 <__heap_start+0x71b0>
    1b82: 9c 15 d0     	stz	$d015                   ; 0xd015 <__heap_start+0x71b1>
    1b85: 84 32        	sty	$32                     ; 0x2032 <_ZN12_GLOBAL__N_13putEcP6Status+0x6d>
    1b87: 8c 16 d0     	sty	$d016                   ; 0xd016 <__heap_start+0x71b2>
    1b8a: 9c 17 d0     	stz	$d017                   ; 0xd017 <__heap_start+0x71b3>
    1b8d: 60           	rts

00001b8e <fileClose>:
    1b8e: a6 12        	ldx	$12                     ; 0x2012 <_ZN12_GLOBAL__N_13putEcP6Status+0x4d>
    1b90: 86 14        	stx	$14                     ; 0x2014 <_ZN12_GLOBAL__N_13putEcP6Status+0x4f>
    1b92: a6 13        	ldx	$13                     ; 0x2013 <_ZN12_GLOBAL__N_13putEcP6Status+0x4e>
    1b94: 86 15        	stx	$15                     ; 0x2015 <_ZN12_GLOBAL__N_13putEcP6Status+0x50>
    1b96: a2 00        	ldx	#$0
    1b98: a0 10        	ldy	#$10
    1b9a: a9 64        	lda	#$64
    1b9c: 86 12        	stx	$12                     ; 0x2012 <_ZN12_GLOBAL__N_13putEcP6Status+0x4d>
    1b9e: 84 13        	sty	$13                     ; 0x2013 <_ZN12_GLOBAL__N_13putEcP6Status+0x4e>
    1ba0: 18           	clc
    1ba1: 65 12        	adc	$12                     ; 0x2012 <_ZN12_GLOBAL__N_13putEcP6Status+0x4d>
    1ba3: 85 16        	sta	$16                     ; 0x2016 <_ZN12_GLOBAL__N_13putEcP6Status+0x51>
    1ba5: a9 5e        	lda	#$5e
    1ba7: 65 13        	adc	$13                     ; 0x2013 <_ZN12_GLOBAL__N_13putEcP6Status+0x4e>
    1ba9: 85 17        	sta	$17                     ; 0x2017 <_ZN12_GLOBAL__N_13putEcP6Status+0x52>
    1bab: b2 14        	lda	($14)                   ; 0x2014 <_ZN12_GLOBAL__N_13putEcP6Status+0x4f>
    1bad: 85 f3        	sta	$f3                     ; 0x20f3 <_ZN12_GLOBAL__N_112print_stringEPKcP6Status+0x53>
    1baf: a2 42        	ldx	#$42
    1bb1: a0 00        	ldy	#$0
    1bb3: 86 12        	stx	$12                     ; 0x2012 <_ZN12_GLOBAL__N_13putEcP6Status+0x4d>
    1bb5: 84 13        	sty	$13                     ; 0x2013 <_ZN12_GLOBAL__N_13putEcP6Status+0x4e>
    1bb7: a2 35        	ldx	#$35
    1bb9: 86 18        	stx	$18                     ; 0x2018 <_ZN12_GLOBAL__N_13putEcP6Status+0x53>
    1bbb: a2 00        	ldx	#$0
    1bbd: 86 19        	stx	$19                     ; 0x2019 <_ZN12_GLOBAL__N_13putEcP6Status+0x54>
    1bbf: a5 14        	lda	$14                     ; 0x2014 <_ZN12_GLOBAL__N_13putEcP6Status+0x4f>
    1bc1: 18           	clc
    1bc2: 69 fe        	adc	#$fe
    1bc4: 85 1a        	sta	$1a                     ; 0x201a <_ZN12_GLOBAL__N_13putEcP6Status+0x55>
    1bc6: a5 15        	lda	$15                     ; 0x2015 <_ZN12_GLOBAL__N_13putEcP6Status+0x50>
    1bc8: 69 ff        	adc	#$ff
    1bca: a6 1a        	ldx	$1a                     ; 0x201a <_ZN12_GLOBAL__N_13putEcP6Status+0x55>
    1bcc: 86 3d        	stx	$3d                     ; 0x203d <_ZN12_GLOBAL__N_13putEcP6Status+0x78>
    1bce: aa           	tax
    1bcf: 85 3e        	sta	$3e                     ; 0x203e <_ZN12_GLOBAL__N_13putEcP6Status+0x79>
    1bd1: 20 68 ff     	jsr	$ff68 <__heap_start+0xa104>
    1bd4: 92 12        	sta	($12)                   ; 0x2012 <_ZN12_GLOBAL__N_13putEcP6Status+0x4d>
    1bd6: a9 00        	lda	#$0
    1bd8: 6a           	ror
    1bd9: 85 18        	sta	$18                     ; 0x2018 <_ZN12_GLOBAL__N_13putEcP6Status+0x53>
    1bdb: b2 3d        	lda	($3d)                   ; 0x203d <_ZN12_GLOBAL__N_13putEcP6Status+0x78>
    1bdd: 85 18        	sta	$18                     ; 0x2018 <_ZN12_GLOBAL__N_13putEcP6Status+0x53>
    1bdf: a0 01        	ldy	#$1
    1be1: b1 3d        	lda	($3d),y                 ; 0x203d <_ZN12_GLOBAL__N_13putEcP6Status+0x78>
    1be3: 85 3f        	sta	$3f                     ; 0x203f <_ZN12_GLOBAL__N_13putEcP6Status+0x7a>
    1be5: a9 fe        	lda	#$fe
    1be7: 32 3d        	and	($3d)                   ; 0x203d <_ZN12_GLOBAL__N_13putEcP6Status+0x78>
    1be9: 85 40        	sta	$40                     ; 0x2040 <_ZN12_GLOBAL__N_13putEcP6Status+0x7b>
    1beb: a4 1a        	ldy	$1a                     ; 0x201a <_ZN12_GLOBAL__N_13putEcP6Status+0x55>
    1bed: 84 19        	sty	$19                     ; 0x2019 <_ZN12_GLOBAL__N_13putEcP6Status+0x54>
    1bef: a5 1a        	lda	$1a                     ; 0x201a <_ZN12_GLOBAL__N_13putEcP6Status+0x55>
    1bf1: 18           	clc
    1bf2: 65 40        	adc	$40                     ; 0x2040 <_ZN12_GLOBAL__N_13putEcP6Status+0x7b>
    1bf4: 85 12        	sta	$12                     ; 0x2012 <_ZN12_GLOBAL__N_13putEcP6Status+0x4d>
    1bf6: 8a           	txa
    1bf7: 86 1a        	stx	$1a                     ; 0x201a <_ZN12_GLOBAL__N_13putEcP6Status+0x55>
    1bf9: 65 3f        	adc	$3f                     ; 0x203f <_ZN12_GLOBAL__N_13putEcP6Status+0x7a>
    1bfb: c5 17        	cmp	$17                     ; 0x2017 <_ZN12_GLOBAL__N_13putEcP6Status+0x52>
    1bfd: d0 10        	bne	$1c0f <fileClose+0x81>
    1bff: a6 12        	ldx	$12                     ; 0x2012 <_ZN12_GLOBAL__N_13putEcP6Status+0x4d>
    1c01: e4 16        	cpx	$16                     ; 0x2016 <_ZN12_GLOBAL__N_13putEcP6Status+0x51>
    1c03: d0 0a        	bne	$1c0f <fileClose+0x81>
    1c05: a2 00        	ldx	#$0
    1c07: 86 12        	stx	$12                     ; 0x2012 <_ZN12_GLOBAL__N_13putEcP6Status+0x4d>
    1c09: a2 00        	ldx	#$0
    1c0b: 86 13        	stx	$13                     ; 0x2013 <_ZN12_GLOBAL__N_13putEcP6Status+0x4e>
    1c0d: 80 02        	bra	$1c11 <fileClose+0x83>
    1c0f: 85 13        	sta	$13                     ; 0x2013 <_ZN12_GLOBAL__N_13putEcP6Status+0x4e>
    1c11: a5 18        	lda	$18                     ; 0x2018 <_ZN12_GLOBAL__N_13putEcP6Status+0x53>
    1c13: 29 01        	and	#$1
    1c15: d0 03        	bne	$1c1a <fileClose+0x8c>
    1c17: 4c 95 1c     	jmp	$1c95 <fileClose+0x107>
    1c1a: a5 14        	lda	$14                     ; 0x2014 <_ZN12_GLOBAL__N_13putEcP6Status+0x4f>
    1c1c: 18           	clc
    1c1d: 69 fc        	adc	#$fc
    1c1f: 85 14        	sta	$14                     ; 0x2014 <_ZN12_GLOBAL__N_13putEcP6Status+0x4f>
    1c21: a5 15        	lda	$15                     ; 0x2015 <_ZN12_GLOBAL__N_13putEcP6Status+0x50>
    1c23: 69 ff        	adc	#$ff
    1c25: 85 15        	sta	$15                     ; 0x2015 <_ZN12_GLOBAL__N_13putEcP6Status+0x50>
    1c27: a0 01        	ldy	#$1
    1c29: 38           	sec
    1c2a: a9 00        	lda	#$0
    1c2c: f2 14        	sbc	($14)                   ; 0x2014 <_ZN12_GLOBAL__N_13putEcP6Status+0x4f>
    1c2e: 85 18        	sta	$18                     ; 0x2018 <_ZN12_GLOBAL__N_13putEcP6Status+0x53>
    1c30: a9 00        	lda	#$0
    1c32: f1 14        	sbc	($14),y                 ; 0x2014 <_ZN12_GLOBAL__N_13putEcP6Status+0x4f>
    1c34: 85 14        	sta	$14                     ; 0x2014 <_ZN12_GLOBAL__N_13putEcP6Status+0x4f>
    1c36: a5 19        	lda	$19                     ; 0x2019 <_ZN12_GLOBAL__N_13putEcP6Status+0x54>
    1c38: 18           	clc
    1c39: 65 18        	adc	$18                     ; 0x2018 <_ZN12_GLOBAL__N_13putEcP6Status+0x53>
    1c3b: 85 3d        	sta	$3d                     ; 0x203d <_ZN12_GLOBAL__N_13putEcP6Status+0x78>
    1c3d: a5 1a        	lda	$1a                     ; 0x201a <_ZN12_GLOBAL__N_13putEcP6Status+0x55>
    1c3f: 65 14        	adc	$14                     ; 0x2014 <_ZN12_GLOBAL__N_13putEcP6Status+0x4f>
    1c41: 85 3e        	sta	$3e                     ; 0x203e <_ZN12_GLOBAL__N_13putEcP6Status+0x79>
    1c43: b1 3d        	lda	($3d),y                 ; 0x203d <_ZN12_GLOBAL__N_13putEcP6Status+0x78>
    1c45: 85 46        	sta	$46                     ; 0x2046 <_ZN12_GLOBAL__N_13putEcP6Status+0x81>
    1c47: a9 fe        	lda	#$fe
    1c49: 32 3d        	and	($3d)                   ; 0x203d <_ZN12_GLOBAL__N_13putEcP6Status+0x78>
    1c4b: 85 41        	sta	$41                     ; 0x2041 <_ZN12_GLOBAL__N_13putEcP6Status+0x7c>
    1c4d: a6 3f        	ldx	$3f                     ; 0x203f <_ZN12_GLOBAL__N_13putEcP6Status+0x7a>
    1c4f: 86 47        	stx	$47                     ; 0x2047 <_ZN12_GLOBAL__N_13putEcP6Status+0x82>
    1c51: a6 40        	ldx	$40                     ; 0x2040 <_ZN12_GLOBAL__N_13putEcP6Status+0x7b>
    1c53: 86 48        	stx	$48                     ; 0x2048 <_ZN12_GLOBAL__N_13putEcP6Status+0x83>
    1c55: a6 12        	ldx	$12                     ; 0x2012 <_ZN12_GLOBAL__N_13putEcP6Status+0x4d>
    1c57: 86 44        	stx	$44                     ; 0x2044 <_ZN12_GLOBAL__N_13putEcP6Status+0x7f>
    1c59: a6 13        	ldx	$13                     ; 0x2013 <_ZN12_GLOBAL__N_13putEcP6Status+0x4e>
    1c5b: 86 45        	stx	$45                     ; 0x2045 <_ZN12_GLOBAL__N_13putEcP6Status+0x80>
    1c5d: a6 3d        	ldx	$3d                     ; 0x203d <_ZN12_GLOBAL__N_13putEcP6Status+0x78>
    1c5f: 86 12        	stx	$12                     ; 0x2012 <_ZN12_GLOBAL__N_13putEcP6Status+0x4d>
    1c61: a6 3e        	ldx	$3e                     ; 0x203e <_ZN12_GLOBAL__N_13putEcP6Status+0x79>
    1c63: 86 13        	stx	$13                     ; 0x2013 <_ZN12_GLOBAL__N_13putEcP6Status+0x4e>
    1c65: a6 16        	ldx	$16                     ; 0x2016 <_ZN12_GLOBAL__N_13putEcP6Status+0x51>
    1c67: 86 3f        	stx	$3f                     ; 0x203f <_ZN12_GLOBAL__N_13putEcP6Status+0x7a>
    1c69: a6 17        	ldx	$17                     ; 0x2017 <_ZN12_GLOBAL__N_13putEcP6Status+0x52>
    1c6b: 86 40        	stx	$40                     ; 0x2040 <_ZN12_GLOBAL__N_13putEcP6Status+0x7b>
    1c6d: 20 54 04     	jsr	$454 <_ZN12_GLOBAL__N_19FreeChunk6removeEv>
    1c70: a6 40        	ldx	$40                     ; 0x2040 <_ZN12_GLOBAL__N_13putEcP6Status+0x7b>
    1c72: 86 17        	stx	$17                     ; 0x2017 <_ZN12_GLOBAL__N_13putEcP6Status+0x52>
    1c74: a6 3f        	ldx	$3f                     ; 0x203f <_ZN12_GLOBAL__N_13putEcP6Status+0x7a>
    1c76: 86 16        	stx	$16                     ; 0x2016 <_ZN12_GLOBAL__N_13putEcP6Status+0x51>
    1c78: a6 44        	ldx	$44                     ; 0x2044 <_ZN12_GLOBAL__N_13putEcP6Status+0x7f>
    1c7a: 86 12        	stx	$12                     ; 0x2012 <_ZN12_GLOBAL__N_13putEcP6Status+0x4d>
    1c7c: a6 45        	ldx	$45                     ; 0x2045 <_ZN12_GLOBAL__N_13putEcP6Status+0x80>
    1c7e: 86 13        	stx	$13                     ; 0x2013 <_ZN12_GLOBAL__N_13putEcP6Status+0x4e>
    1c80: 18           	clc
    1c81: a5 41        	lda	$41                     ; 0x2041 <_ZN12_GLOBAL__N_13putEcP6Status+0x7c>
    1c83: a6 48        	ldx	$48                     ; 0x2048 <_ZN12_GLOBAL__N_13putEcP6Status+0x83>
    1c85: 86 14        	stx	$14                     ; 0x2014 <_ZN12_GLOBAL__N_13putEcP6Status+0x4f>
    1c87: 65 14        	adc	$14                     ; 0x2014 <_ZN12_GLOBAL__N_13putEcP6Status+0x4f>
    1c89: 85 40        	sta	$40                     ; 0x2040 <_ZN12_GLOBAL__N_13putEcP6Status+0x7b>
    1c8b: a5 46        	lda	$46                     ; 0x2046 <_ZN12_GLOBAL__N_13putEcP6Status+0x81>
    1c8d: a6 47        	ldx	$47                     ; 0x2047 <_ZN12_GLOBAL__N_13putEcP6Status+0x82>
    1c8f: 86 14        	stx	$14                     ; 0x2014 <_ZN12_GLOBAL__N_13putEcP6Status+0x4f>
    1c91: 65 14        	adc	$14                     ; 0x2014 <_ZN12_GLOBAL__N_13putEcP6Status+0x4f>
    1c93: 85 3f        	sta	$3f                     ; 0x203f <_ZN12_GLOBAL__N_13putEcP6Status+0x7a>
    1c95: a2 00        	ldx	#$0
    1c97: 86 14        	stx	$14                     ; 0x2014 <_ZN12_GLOBAL__N_13putEcP6Status+0x4f>
    1c99: a2 00        	ldx	#$0
    1c9b: 86 15        	stx	$15                     ; 0x2015 <_ZN12_GLOBAL__N_13putEcP6Status+0x50>
    1c9d: a6 13        	ldx	$13                     ; 0x2013 <_ZN12_GLOBAL__N_13putEcP6Status+0x4e>
    1c9f: e4 15        	cpx	$15                     ; 0x2015 <_ZN12_GLOBAL__N_13putEcP6Status+0x50>
    1ca1: d0 0d        	bne	$1cb0 <fileClose+0x122>
    1ca3: a6 12        	ldx	$12                     ; 0x2012 <_ZN12_GLOBAL__N_13putEcP6Status+0x4d>
    1ca5: e4 14        	cpx	$14                     ; 0x2014 <_ZN12_GLOBAL__N_13putEcP6Status+0x4f>
    1ca7: d0 07        	bne	$1cb0 <fileClose+0x122>
    1ca9: a2 01        	ldx	#$1
    1cab: 8e 5e 5e     	stx	$5e5e                   ; 0x5e5e <_ZN12_GLOBAL__N_19last_freeE>
    1cae: 80 48        	bra	$1cf8 <fileClose+0x16a>
    1cb0: a0 01        	ldy	#$1
    1cb2: b1 12        	lda	($12),y                 ; 0x2012 <_ZN12_GLOBAL__N_13putEcP6Status+0x4d>
    1cb4: a8           	tay
    1cb5: a9 fe        	lda	#$fe
    1cb7: 32 12        	and	($12)                   ; 0x2012 <_ZN12_GLOBAL__N_13putEcP6Status+0x4d>
    1cb9: 18           	clc
    1cba: 85 44        	sta	$44                     ; 0x2044 <_ZN12_GLOBAL__N_13putEcP6Status+0x7f>
    1cbc: 65 12        	adc	$12                     ; 0x2012 <_ZN12_GLOBAL__N_13putEcP6Status+0x4d>
    1cbe: 85 14        	sta	$14                     ; 0x2014 <_ZN12_GLOBAL__N_13putEcP6Status+0x4f>
    1cc0: 98           	tya
    1cc1: 84 41        	sty	$41                     ; 0x2041 <_ZN12_GLOBAL__N_13putEcP6Status+0x7c>
    1cc3: 65 13        	adc	$13                     ; 0x2013 <_ZN12_GLOBAL__N_13putEcP6Status+0x4e>
    1cc5: c5 17        	cmp	$17                     ; 0x2017 <_ZN12_GLOBAL__N_13putEcP6Status+0x52>
    1cc7: d0 0f        	bne	$1cd8 <fileClose+0x14a>
    1cc9: a6 14        	ldx	$14                     ; 0x2014 <_ZN12_GLOBAL__N_13putEcP6Status+0x4f>
    1ccb: e4 16        	cpx	$16                     ; 0x2016 <_ZN12_GLOBAL__N_13putEcP6Status+0x51>
    1ccd: d0 09        	bne	$1cd8 <fileClose+0x14a>
    1ccf: a9 01        	lda	#$1
    1cd1: 64 14        	stz	$14                     ; 0x2014 <_ZN12_GLOBAL__N_13putEcP6Status+0x4f>
    1cd3: 2d 5e 5e     	and	$5e5e                   ; 0x5e5e <_ZN12_GLOBAL__N_19last_freeE>
    1cd6: 80 08        	bra	$1ce0 <fileClose+0x152>
    1cd8: 85 15        	sta	$15                     ; 0x2015 <_ZN12_GLOBAL__N_13putEcP6Status+0x50>
    1cda: a9 01        	lda	#$1
    1cdc: 32 14        	and	($14)                   ; 0x2014 <_ZN12_GLOBAL__N_13putEcP6Status+0x4f>
    1cde: 64 14        	stz	$14                     ; 0x2014 <_ZN12_GLOBAL__N_13putEcP6Status+0x4f>
    1ce0: a6 14        	ldx	$14                     ; 0x2014 <_ZN12_GLOBAL__N_13putEcP6Status+0x4f>
    1ce2: d0 03        	bne	$1ce7 <fileClose+0x159>
    1ce4: aa           	tax
    1ce5: f0 47        	beq	$1d2e <fileClose+0x1a0>
    1ce7: 20 54 04     	jsr	$454 <_ZN12_GLOBAL__N_19FreeChunk6removeEv>
    1cea: 18           	clc
    1ceb: a6 44        	ldx	$44                     ; 0x2044 <_ZN12_GLOBAL__N_13putEcP6Status+0x7f>
    1ced: 8a           	txa
    1cee: 65 40        	adc	$40                     ; 0x2040 <_ZN12_GLOBAL__N_13putEcP6Status+0x7b>
    1cf0: 85 40        	sta	$40                     ; 0x2040 <_ZN12_GLOBAL__N_13putEcP6Status+0x7b>
    1cf2: a5 41        	lda	$41                     ; 0x2041 <_ZN12_GLOBAL__N_13putEcP6Status+0x7c>
    1cf4: 65 3f        	adc	$3f                     ; 0x203f <_ZN12_GLOBAL__N_13putEcP6Status+0x7a>
    1cf6: 85 3f        	sta	$3f                     ; 0x203f <_ZN12_GLOBAL__N_13putEcP6Status+0x7a>
    1cf8: a6 3d        	ldx	$3d                     ; 0x203d <_ZN12_GLOBAL__N_13putEcP6Status+0x78>
    1cfa: 86 12        	stx	$12                     ; 0x2012 <_ZN12_GLOBAL__N_13putEcP6Status+0x4d>
    1cfc: a6 3e        	ldx	$3e                     ; 0x203e <_ZN12_GLOBAL__N_13putEcP6Status+0x79>
    1cfe: 86 13        	stx	$13                     ; 0x2013 <_ZN12_GLOBAL__N_13putEcP6Status+0x4e>
    1d00: a6 3f        	ldx	$3f                     ; 0x203f <_ZN12_GLOBAL__N_13putEcP6Status+0x7a>
    1d02: a5 40        	lda	$40                     ; 0x2040 <_ZN12_GLOBAL__N_13putEcP6Status+0x7b>
    1d04: 20 16 03     	jsr	$316 <_ZN12_GLOBAL__N_19FreeChunk6insertEPvj>
    1d07: a2 43        	ldx	#$43
    1d09: a0 00        	ldy	#$0
    1d0b: 86 12        	stx	$12                     ; 0x2012 <_ZN12_GLOBAL__N_13putEcP6Status+0x4d>
    1d0d: 84 13        	sty	$13                     ; 0x2013 <_ZN12_GLOBAL__N_13putEcP6Status+0x4e>
    1d0f: a2 35        	ldx	#$35
    1d11: 86 14        	stx	$14                     ; 0x2014 <_ZN12_GLOBAL__N_13putEcP6Status+0x4f>
    1d13: a2 00        	ldx	#$0
    1d15: 86 15        	stx	$15                     ; 0x2015 <_ZN12_GLOBAL__N_13putEcP6Status+0x50>
    1d17: 64 36        	stz	$36                     ; 0x2036 <_ZN12_GLOBAL__N_13putEcP6Status+0x71>
    1d19: 20 00 ff     	jsr	$ff00 <__heap_start+0xa09c>
    1d1c: 92 12        	sta	($12)                   ; 0x2012 <_ZN12_GLOBAL__N_13putEcP6Status+0x4d>
    1d1e: a9 00        	lda	#$0
    1d20: 6a           	ror
    1d21: 85 14        	sta	$14                     ; 0x2014 <_ZN12_GLOBAL__N_13putEcP6Status+0x4f>
    1d23: a6 36        	ldx	$36                     ; 0x2036 <_ZN12_GLOBAL__N_13putEcP6Status+0x71>
    1d25: e0 38        	cpx	#$38
    1d27: f0 04        	beq	$1d2d <fileClose+0x19f>
    1d29: e0 32        	cpx	#$32
    1d2b: d0 ea        	bne	$1d17 <fileClose+0x189>
    1d2d: 60           	rts
    1d2e: b2 12        	lda	($12)                   ; 0x2012 <_ZN12_GLOBAL__N_13putEcP6Status+0x4d>
    1d30: 09 01        	ora	#$1
    1d32: 92 12        	sta	($12)                   ; 0x2012 <_ZN12_GLOBAL__N_13putEcP6Status+0x4d>
    1d34: a0 01        	ldy	#$1
    1d36: a5 41        	lda	$41                     ; 0x2041 <_ZN12_GLOBAL__N_13putEcP6Status+0x7c>
    1d38: 91 12        	sta	($12),y                 ; 0x2012 <_ZN12_GLOBAL__N_13putEcP6Status+0x4d>
    1d3a: 80 bc        	bra	$1cf8 <fileClose+0x16a>

00001d3c <setTextLUT1>:
    1d3c: a2 d8        	ldx	#$d8
    1d3e: 64 14        	stz	$14                     ; 0x2014 <_ZN12_GLOBAL__N_13putEcP6Status+0x4f>
    1d40: 64 12        	stz	$12                     ; 0x2012 <_ZN12_GLOBAL__N_13putEcP6Status+0x4d>
    1d42: a4 12        	ldy	$12                     ; 0x2012 <_ZN12_GLOBAL__N_13putEcP6Status+0x4d>
    1d44: 86 13        	stx	$13                     ; 0x2013 <_ZN12_GLOBAL__N_13putEcP6Status+0x4e>
    1d46: a9 00        	lda	#$0
    1d48: 92 12        	sta	($12)                   ; 0x2012 <_ZN12_GLOBAL__N_13putEcP6Status+0x4d>
    1d4a: a5 12        	lda	$12                     ; 0x2012 <_ZN12_GLOBAL__N_13putEcP6Status+0x4d>
    1d4c: 09 01        	ora	#$1
    1d4e: 85 12        	sta	$12                     ; 0x2012 <_ZN12_GLOBAL__N_13putEcP6Status+0x4d>
    1d50: a9 ff        	lda	#$ff
    1d52: 92 12        	sta	($12)                   ; 0x2012 <_ZN12_GLOBAL__N_13putEcP6Status+0x4d>
    1d54: 98           	tya
    1d55: 09 02        	ora	#$2
    1d57: 85 12        	sta	$12                     ; 0x2012 <_ZN12_GLOBAL__N_13putEcP6Status+0x4d>
    1d59: a5 14        	lda	$14                     ; 0x2014 <_ZN12_GLOBAL__N_13putEcP6Status+0x4f>
    1d5b: 92 12        	sta	($12)                   ; 0x2012 <_ZN12_GLOBAL__N_13putEcP6Status+0x4d>
    1d5d: 85 13        	sta	$13                     ; 0x2013 <_ZN12_GLOBAL__N_13putEcP6Status+0x4e>
    1d5f: 18           	clc
    1d60: 98           	tya
    1d61: 69 04        	adc	#$4
    1d63: 85 12        	sta	$12                     ; 0x2012 <_ZN12_GLOBAL__N_13putEcP6Status+0x4d>
    1d65: 8a           	txa
    1d66: 69 00        	adc	#$0
    1d68: aa           	tax
    1d69: 18           	clc
    1d6a: a5 13        	lda	$13                     ; 0x2013 <_ZN12_GLOBAL__N_13putEcP6Status+0x4e>
    1d6c: 69 20        	adc	#$20
    1d6e: 85 14        	sta	$14                     ; 0x2014 <_ZN12_GLOBAL__N_13putEcP6Status+0x4f>
    1d70: e0 d8        	cpx	#$d8
    1d72: d0 ce        	bne	$1d42 <setTextLUT1+0x6>
    1d74: a4 12        	ldy	$12                     ; 0x2012 <_ZN12_GLOBAL__N_13putEcP6Status+0x4d>
    1d76: c0 20        	cpy	#$20
    1d78: d0 c8        	bne	$1d42 <setTextLUT1+0x6>
    1d7a: a9 d8        	lda	#$d8
    1d7c: a2 20        	ldx	#$20
    1d7e: a0 ff        	ldy	#$ff
    1d80: 84 3d        	sty	$3d                     ; 0x203d <_ZN12_GLOBAL__N_13putEcP6Status+0x78>
    1d82: da           	phx
    1d83: 7a           	ply
    1d84: 86 12        	stx	$12                     ; 0x2012 <_ZN12_GLOBAL__N_13putEcP6Status+0x4d>
    1d86: aa           	tax
    1d87: 85 13        	sta	$13                     ; 0x2013 <_ZN12_GLOBAL__N_13putEcP6Status+0x4e>
    1d89: a9 00        	lda	#$0
    1d8b: 92 12        	sta	($12)                   ; 0x2012 <_ZN12_GLOBAL__N_13putEcP6Status+0x4d>
    1d8d: 98           	tya
    1d8e: 09 01        	ora	#$1
    1d90: 85 12        	sta	$12                     ; 0x2012 <_ZN12_GLOBAL__N_13putEcP6Status+0x4d>
    1d92: 86 13        	stx	$13                     ; 0x2013 <_ZN12_GLOBAL__N_13putEcP6Status+0x4e>
    1d94: a5 3d        	lda	$3d                     ; 0x203d <_ZN12_GLOBAL__N_13putEcP6Status+0x78>
    1d96: 92 12        	sta	($12)                   ; 0x2012 <_ZN12_GLOBAL__N_13putEcP6Status+0x4d>
    1d98: 85 14        	sta	$14                     ; 0x2014 <_ZN12_GLOBAL__N_13putEcP6Status+0x4f>
    1d9a: 98           	tya
    1d9b: 09 02        	ora	#$2
    1d9d: 85 12        	sta	$12                     ; 0x2012 <_ZN12_GLOBAL__N_13putEcP6Status+0x4d>
    1d9f: 86 15        	stx	$15                     ; 0x2015 <_ZN12_GLOBAL__N_13putEcP6Status+0x50>
    1da1: a9 ff        	lda	#$ff
    1da3: 92 12        	sta	($12)                   ; 0x2012 <_ZN12_GLOBAL__N_13putEcP6Status+0x4d>
    1da5: 18           	clc
    1da6: 98           	tya
    1da7: 69 04        	adc	#$4
    1da9: aa           	tax
    1daa: a5 15        	lda	$15                     ; 0x2015 <_ZN12_GLOBAL__N_13putEcP6Status+0x50>
    1dac: 69 00        	adc	#$0
    1dae: a8           	tay
    1daf: 18           	clc
    1db0: a5 14        	lda	$14                     ; 0x2014 <_ZN12_GLOBAL__N_13putEcP6Status+0x4f>
    1db2: 69 e0        	adc	#$e0
    1db4: 85 3d        	sta	$3d                     ; 0x203d <_ZN12_GLOBAL__N_13putEcP6Status+0x78>
    1db6: 98           	tya
    1db7: c0 d8        	cpy	#$d8
    1db9: d0 c7        	bne	$1d82 <setTextLUT1+0x46>
    1dbb: e0 40        	cpx	#$40
    1dbd: d0 c3        	bne	$1d82 <setTextLUT1+0x46>
    1dbf: 60           	rts

00001dc0 <setTextLUT2>:
    1dc0: a2 d8        	ldx	#$d8
    1dc2: 64 14        	stz	$14                     ; 0x2014 <_ZN12_GLOBAL__N_13putEcP6Status+0x4f>
    1dc4: 64 12        	stz	$12                     ; 0x2012 <_ZN12_GLOBAL__N_13putEcP6Status+0x4d>
    1dc6: a4 12        	ldy	$12                     ; 0x2012 <_ZN12_GLOBAL__N_13putEcP6Status+0x4d>
    1dc8: 86 13        	stx	$13                     ; 0x2013 <_ZN12_GLOBAL__N_13putEcP6Status+0x4e>
    1dca: a9 ff        	lda	#$ff
    1dcc: 92 12        	sta	($12)                   ; 0x2012 <_ZN12_GLOBAL__N_13putEcP6Status+0x4d>
    1dce: a5 12        	lda	$12                     ; 0x2012 <_ZN12_GLOBAL__N_13putEcP6Status+0x4d>
    1dd0: 09 01        	ora	#$1
    1dd2: 85 12        	sta	$12                     ; 0x2012 <_ZN12_GLOBAL__N_13putEcP6Status+0x4d>
    1dd4: a5 14        	lda	$14                     ; 0x2014 <_ZN12_GLOBAL__N_13putEcP6Status+0x4f>
    1dd6: 92 12        	sta	($12)                   ; 0x2012 <_ZN12_GLOBAL__N_13putEcP6Status+0x4d>
    1dd8: 98           	tya
    1dd9: 09 02        	ora	#$2
    1ddb: 85 12        	sta	$12                     ; 0x2012 <_ZN12_GLOBAL__N_13putEcP6Status+0x4d>
    1ddd: a9 00        	lda	#$0
    1ddf: 92 12        	sta	($12)                   ; 0x2012 <_ZN12_GLOBAL__N_13putEcP6Status+0x4d>
    1de1: 18           	clc
    1de2: 98           	tya
    1de3: 69 04        	adc	#$4
    1de5: 85 12        	sta	$12                     ; 0x2012 <_ZN12_GLOBAL__N_13putEcP6Status+0x4d>
    1de7: 8a           	txa
    1de8: 69 00        	adc	#$0
    1dea: aa           	tax
    1deb: 18           	clc
    1dec: a5 14        	lda	$14                     ; 0x2014 <_ZN12_GLOBAL__N_13putEcP6Status+0x4f>
    1dee: 69 20        	adc	#$20
    1df0: 85 14        	sta	$14                     ; 0x2014 <_ZN12_GLOBAL__N_13putEcP6Status+0x4f>
    1df2: e0 d8        	cpx	#$d8
    1df4: d0 d0        	bne	$1dc6 <setTextLUT2+0x6>
    1df6: a4 12        	ldy	$12                     ; 0x2012 <_ZN12_GLOBAL__N_13putEcP6Status+0x4d>
    1df8: c0 20        	cpy	#$20
    1dfa: d0 ca        	bne	$1dc6 <setTextLUT2+0x6>
    1dfc: a2 d8        	ldx	#$d8
    1dfe: 86 3d        	stx	$3d                     ; 0x203d <_ZN12_GLOBAL__N_13putEcP6Status+0x78>
    1e00: a2 20        	ldx	#$20
    1e02: a9 ff        	lda	#$ff
    1e04: 86 14        	stx	$14                     ; 0x2014 <_ZN12_GLOBAL__N_13putEcP6Status+0x4f>
    1e06: 86 12        	stx	$12                     ; 0x2012 <_ZN12_GLOBAL__N_13putEcP6Status+0x4d>
    1e08: a6 3d        	ldx	$3d                     ; 0x203d <_ZN12_GLOBAL__N_13putEcP6Status+0x78>
    1e0a: 86 13        	stx	$13                     ; 0x2013 <_ZN12_GLOBAL__N_13putEcP6Status+0x4e>
    1e0c: 92 12        	sta	($12)                   ; 0x2012 <_ZN12_GLOBAL__N_13putEcP6Status+0x4d>
    1e0e: a8           	tay
    1e0f: a5 14        	lda	$14                     ; 0x2014 <_ZN12_GLOBAL__N_13putEcP6Status+0x4f>
    1e11: 09 01        	ora	#$1
    1e13: 85 12        	sta	$12                     ; 0x2012 <_ZN12_GLOBAL__N_13putEcP6Status+0x4d>
    1e15: a9 ff        	lda	#$ff
    1e17: 92 12        	sta	($12)                   ; 0x2012 <_ZN12_GLOBAL__N_13putEcP6Status+0x4d>
    1e19: a5 14        	lda	$14                     ; 0x2014 <_ZN12_GLOBAL__N_13putEcP6Status+0x4f>
    1e1b: 09 02        	ora	#$2
    1e1d: 85 12        	sta	$12                     ; 0x2012 <_ZN12_GLOBAL__N_13putEcP6Status+0x4d>
    1e1f: 86 15        	stx	$15                     ; 0x2015 <_ZN12_GLOBAL__N_13putEcP6Status+0x50>
    1e21: a9 00        	lda	#$0
    1e23: 92 12        	sta	($12)                   ; 0x2012 <_ZN12_GLOBAL__N_13putEcP6Status+0x4d>
    1e25: 18           	clc
    1e26: a5 14        	lda	$14                     ; 0x2014 <_ZN12_GLOBAL__N_13putEcP6Status+0x4f>
    1e28: 69 04        	adc	#$4
    1e2a: aa           	tax
    1e2b: a5 15        	lda	$15                     ; 0x2015 <_ZN12_GLOBAL__N_13putEcP6Status+0x50>
    1e2d: 69 00        	adc	#$0
    1e2f: 85 12        	sta	$12                     ; 0x2012 <_ZN12_GLOBAL__N_13putEcP6Status+0x4d>
    1e31: 18           	clc
    1e32: 98           	tya
    1e33: 69 e0        	adc	#$e0
    1e35: a4 12        	ldy	$12                     ; 0x2012 <_ZN12_GLOBAL__N_13putEcP6Status+0x4d>
    1e37: 84 3d        	sty	$3d                     ; 0x203d <_ZN12_GLOBAL__N_13putEcP6Status+0x78>
    1e39: c0 d8        	cpy	#$d8
    1e3b: d0 c7        	bne	$1e04 <setTextLUT2+0x44>
    1e3d: e0 40        	cpx	#$40
    1e3f: d0 c3        	bne	$1e04 <setTextLUT2+0x44>
    1e41: 60           	rts

00001e42 <initVS1053Plugin>:
    1e42: 85 14        	sta	$14                     ; 0x2014 <_ZN12_GLOBAL__N_13putEcP6Status+0x4f>
    1e44: 86 15        	stx	$15                     ; 0x2015 <_ZN12_GLOBAL__N_13putEcP6Status+0x50>
    1e46: 64 18        	stz	$18                     ; 0x2018 <_ZN12_GLOBAL__N_13putEcP6Status+0x53>
    1e48: a0 01        	ldy	#$1
    1e4a: a2 00        	ldx	#$0
    1e4c: a5 18        	lda	$18                     ; 0x2018 <_ZN12_GLOBAL__N_13putEcP6Status+0x53>
    1e4e: 85 16        	sta	$16                     ; 0x2016 <_ZN12_GLOBAL__N_13putEcP6Status+0x51>
    1e50: 06 16        	asl	$16                     ; 0x2016 <_ZN12_GLOBAL__N_13putEcP6Status+0x51>
    1e52: 8a           	txa
    1e53: 2a           	rol
    1e54: 85 17        	sta	$17                     ; 0x2017 <_ZN12_GLOBAL__N_13putEcP6Status+0x52>
    1e56: 18           	clc
    1e57: a5 16        	lda	$16                     ; 0x2016 <_ZN12_GLOBAL__N_13putEcP6Status+0x51>
    1e59: 65 12        	adc	$12                     ; 0x2012 <_ZN12_GLOBAL__N_13putEcP6Status+0x4d>
    1e5b: 85 16        	sta	$16                     ; 0x2016 <_ZN12_GLOBAL__N_13putEcP6Status+0x51>
    1e5d: a5 17        	lda	$17                     ; 0x2017 <_ZN12_GLOBAL__N_13putEcP6Status+0x52>
    1e5f: 65 13        	adc	$13                     ; 0x2013 <_ZN12_GLOBAL__N_13putEcP6Status+0x4e>
    1e61: 85 19        	sta	$19                     ; 0x2019 <_ZN12_GLOBAL__N_13putEcP6Status+0x54>
    1e63: a5 16        	lda	$16                     ; 0x2016 <_ZN12_GLOBAL__N_13putEcP6Status+0x51>
    1e65: 85 1b        	sta	$1b                     ; 0x201b <_ZN12_GLOBAL__N_13putEcP6Status+0x56>
    1e67: a5 19        	lda	$19                     ; 0x2019 <_ZN12_GLOBAL__N_13putEcP6Status+0x54>
    1e69: 85 17        	sta	$17                     ; 0x2017 <_ZN12_GLOBAL__N_13putEcP6Status+0x52>
    1e6b: b2 16        	lda	($16)                   ; 0x2016 <_ZN12_GLOBAL__N_13putEcP6Status+0x51>
    1e6d: 85 1a        	sta	$1a                     ; 0x201a <_ZN12_GLOBAL__N_13putEcP6Status+0x55>
    1e6f: a5 18        	lda	$18                     ; 0x2018 <_ZN12_GLOBAL__N_13putEcP6Status+0x53>
    1e71: 85 1f        	sta	$1f                     ; 0x201f <_ZN12_GLOBAL__N_13putEcP6Status+0x5a>
    1e73: a5 18        	lda	$18                     ; 0x2018 <_ZN12_GLOBAL__N_13putEcP6Status+0x53>
    1e75: 18           	clc
    1e76: 69 02        	adc	#$2
    1e78: 85 1e        	sta	$1e                     ; 0x201e <_ZN12_GLOBAL__N_13putEcP6Status+0x59>
    1e7a: 86 1d        	stx	$1d                     ; 0x201d <_ZN12_GLOBAL__N_13putEcP6Status+0x58>
    1e7c: 8a           	txa
    1e7d: 69 00        	adc	#$0
    1e7f: 85 1c        	sta	$1c                     ; 0x201c <_ZN12_GLOBAL__N_13putEcP6Status+0x57>
    1e81: 18           	clc
    1e82: a5 1b        	lda	$1b                     ; 0x201b <_ZN12_GLOBAL__N_13putEcP6Status+0x56>
    1e84: 69 02        	adc	#$2
    1e86: 85 18        	sta	$18                     ; 0x2018 <_ZN12_GLOBAL__N_13putEcP6Status+0x53>
    1e88: a5 19        	lda	$19                     ; 0x2019 <_ZN12_GLOBAL__N_13putEcP6Status+0x54>
    1e8a: 69 00        	adc	#$0
    1e8c: 85 19        	sta	$19                     ; 0x2019 <_ZN12_GLOBAL__N_13putEcP6Status+0x54>
    1e8e: b1 16        	lda	($16),y                 ; 0x2016 <_ZN12_GLOBAL__N_13putEcP6Status+0x51>
    1e90: 85 1b        	sta	$1b                     ; 0x201b <_ZN12_GLOBAL__N_13putEcP6Status+0x56>
    1e92: a0 02        	ldy	#$2
    1e94: b1 16        	lda	($16),y                 ; 0x2016 <_ZN12_GLOBAL__N_13putEcP6Status+0x51>
    1e96: aa           	tax
    1e97: 88           	dey
    1e98: b1 18        	lda	($18),y                 ; 0x2018 <_ZN12_GLOBAL__N_13putEcP6Status+0x53>
    1e9a: 85 16        	sta	$16                     ; 0x2016 <_ZN12_GLOBAL__N_13putEcP6Status+0x51>
    1e9c: 10 03        	bpl	$1ea1 <initVS1053Plugin+0x5f>
    1e9e: 4c 29 1f     	jmp	$1f29 <initVS1053Plugin+0xe7>
    1ea1: a5 1c        	lda	$1c                     ; 0x201c <_ZN12_GLOBAL__N_13putEcP6Status+0x57>
    1ea3: 86 1c        	stx	$1c                     ; 0x201c <_ZN12_GLOBAL__N_13putEcP6Status+0x57>
    1ea5: 5a           	phy
    1ea6: a4 16        	ldy	$16                     ; 0x2016 <_ZN12_GLOBAL__N_13putEcP6Status+0x51>
    1ea8: 84 1d        	sty	$1d                     ; 0x201d <_ZN12_GLOBAL__N_13putEcP6Status+0x58>
    1eaa: 7a           	ply
    1eab: e6 16        	inc	$16                     ; 0x2016 <_ZN12_GLOBAL__N_13putEcP6Status+0x51>
    1ead: c6 16        	dec	$16                     ; 0x2016 <_ZN12_GLOBAL__N_13putEcP6Status+0x51>
    1eaf: d0 07        	bne	$1eb8 <initVS1053Plugin+0x76>
    1eb1: e0 00        	cpx	#$0
    1eb3: d0 03        	bne	$1eb8 <initVS1053Plugin+0x76>
    1eb5: 4c ab 1f     	jmp	$1fab <initVS1053Plugin+0x169>
    1eb8: a6 1e        	ldx	$1e                     ; 0x201e <_ZN12_GLOBAL__N_13putEcP6Status+0x59>
    1eba: 86 18        	stx	$18                     ; 0x2018 <_ZN12_GLOBAL__N_13putEcP6Status+0x53>
    1ebc: a6 1e        	ldx	$1e                     ; 0x201e <_ZN12_GLOBAL__N_13putEcP6Status+0x59>
    1ebe: 86 16        	stx	$16                     ; 0x2016 <_ZN12_GLOBAL__N_13putEcP6Status+0x51>
    1ec0: 06 16        	asl	$16                     ; 0x2016 <_ZN12_GLOBAL__N_13putEcP6Status+0x51>
    1ec2: 85 19        	sta	$19                     ; 0x2019 <_ZN12_GLOBAL__N_13putEcP6Status+0x54>
    1ec4: 2a           	rol
    1ec5: aa           	tax
    1ec6: 18           	clc
    1ec7: a5 16        	lda	$16                     ; 0x2016 <_ZN12_GLOBAL__N_13putEcP6Status+0x51>
    1ec9: 65 12        	adc	$12                     ; 0x2012 <_ZN12_GLOBAL__N_13putEcP6Status+0x4d>
    1ecb: 85 16        	sta	$16                     ; 0x2016 <_ZN12_GLOBAL__N_13putEcP6Status+0x51>
    1ecd: 8a           	txa
    1ece: 65 13        	adc	$13                     ; 0x2013 <_ZN12_GLOBAL__N_13putEcP6Status+0x4e>
    1ed0: 85 17        	sta	$17                     ; 0x2017 <_ZN12_GLOBAL__N_13putEcP6Status+0x52>
    1ed2: b2 16        	lda	($16)                   ; 0x2016 <_ZN12_GLOBAL__N_13putEcP6Status+0x51>
    1ed4: 85 1e        	sta	$1e                     ; 0x201e <_ZN12_GLOBAL__N_13putEcP6Status+0x59>
    1ed6: b1 16        	lda	($16),y                 ; 0x2016 <_ZN12_GLOBAL__N_13putEcP6Status+0x51>
    1ed8: a6 1a        	ldx	$1a                     ; 0x201a <_ZN12_GLOBAL__N_13putEcP6Status+0x55>
    1eda: 8e 01 d7     	stx	$d701                   ; 0xd701 <__heap_start+0x789d>
    1edd: a6 1b        	ldx	$1b                     ; 0x201b <_ZN12_GLOBAL__N_13putEcP6Status+0x56>
    1edf: 8e 02 d7     	stx	$d702                   ; 0xd702 <__heap_start+0x789e>
    1ee2: a6 1e        	ldx	$1e                     ; 0x201e <_ZN12_GLOBAL__N_13putEcP6Status+0x59>
    1ee4: 8e 02 d7     	stx	$d702                   ; 0xd702 <__heap_start+0x789e>
    1ee7: 8d 03 d7     	sta	$d703                   ; 0xd703 <__heap_start+0x789f>
    1eea: 8c 00 d7     	sty	$d700                   ; 0xd700 <__heap_start+0x789c>
    1eed: 9c 00 d7     	stz	$d700                   ; 0xd700 <__heap_start+0x789c>
    1ef0: ae 00 d7     	ldx	$d700                   ; 0xd700 <__heap_start+0x789c>
    1ef3: 30 fb        	bmi	$1ef0 <initVS1053Plugin+0xae>
    1ef5: a6 1c        	ldx	$1c                     ; 0x201c <_ZN12_GLOBAL__N_13putEcP6Status+0x57>
    1ef7: 86 16        	stx	$16                     ; 0x2016 <_ZN12_GLOBAL__N_13putEcP6Status+0x51>
    1ef9: a6 1d        	ldx	$1d                     ; 0x201d <_ZN12_GLOBAL__N_13putEcP6Status+0x58>
    1efb: 86 17        	stx	$17                     ; 0x2017 <_ZN12_GLOBAL__N_13putEcP6Status+0x52>
    1efd: a2 ff        	ldx	#$ff
    1eff: c6 16        	dec	$16                     ; 0x2016 <_ZN12_GLOBAL__N_13putEcP6Status+0x51>
    1f01: e4 16        	cpx	$16                     ; 0x2016 <_ZN12_GLOBAL__N_13putEcP6Status+0x51>
    1f03: d0 02        	bne	$1f07 <initVS1053Plugin+0xc5>
    1f05: c6 17        	dec	$17                     ; 0x2017 <_ZN12_GLOBAL__N_13putEcP6Status+0x52>
    1f07: a6 18        	ldx	$18                     ; 0x2018 <_ZN12_GLOBAL__N_13putEcP6Status+0x53>
    1f09: 86 1e        	stx	$1e                     ; 0x201e <_ZN12_GLOBAL__N_13putEcP6Status+0x59>
    1f0b: a5 19        	lda	$19                     ; 0x2019 <_ZN12_GLOBAL__N_13putEcP6Status+0x54>
    1f0d: e6 1e        	inc	$1e                     ; 0x201e <_ZN12_GLOBAL__N_13putEcP6Status+0x59>
    1f0f: d0 01        	bne	$1f12 <initVS1053Plugin+0xd0>
    1f11: 1a           	inc
    1f12: a6 16        	ldx	$16                     ; 0x2016 <_ZN12_GLOBAL__N_13putEcP6Status+0x51>
    1f14: 86 1c        	stx	$1c                     ; 0x201c <_ZN12_GLOBAL__N_13putEcP6Status+0x57>
    1f16: a6 17        	ldx	$17                     ; 0x2017 <_ZN12_GLOBAL__N_13putEcP6Status+0x52>
    1f18: 86 1d        	stx	$1d                     ; 0x201d <_ZN12_GLOBAL__N_13putEcP6Status+0x58>
    1f1a: f0 03        	beq	$1f1f <initVS1053Plugin+0xdd>
    1f1c: 4c b8 1e     	jmp	$1eb8 <initVS1053Plugin+0x76>
    1f1f: a6 16        	ldx	$16                     ; 0x2016 <_ZN12_GLOBAL__N_13putEcP6Status+0x51>
    1f21: f0 03        	beq	$1f26 <initVS1053Plugin+0xe4>
    1f23: 4c b8 1e     	jmp	$1eb8 <initVS1053Plugin+0x76>
    1f26: 4c ab 1f     	jmp	$1fab <initVS1053Plugin+0x169>
    1f29: 29 7f        	and	#$7f
    1f2b: 85 17        	sta	$17                     ; 0x2017 <_ZN12_GLOBAL__N_13putEcP6Status+0x52>
    1f2d: 18           	clc
    1f2e: 86 16        	stx	$16                     ; 0x2016 <_ZN12_GLOBAL__N_13putEcP6Status+0x51>
    1f30: a5 1f        	lda	$1f                     ; 0x201f <_ZN12_GLOBAL__N_13putEcP6Status+0x5a>
    1f32: 69 03        	adc	#$3
    1f34: aa           	tax
    1f35: a5 1d        	lda	$1d                     ; 0x201d <_ZN12_GLOBAL__N_13putEcP6Status+0x58>
    1f37: 69 00        	adc	#$0
    1f39: 85 1d        	sta	$1d                     ; 0x201d <_ZN12_GLOBAL__N_13putEcP6Status+0x58>
    1f3b: a5 16        	lda	$16                     ; 0x2016 <_ZN12_GLOBAL__N_13putEcP6Status+0x51>
    1f3d: e6 17        	inc	$17                     ; 0x2017 <_ZN12_GLOBAL__N_13putEcP6Status+0x52>
    1f3f: c6 17        	dec	$17                     ; 0x2017 <_ZN12_GLOBAL__N_13putEcP6Status+0x52>
    1f41: d0 07        	bne	$1f4a <initVS1053Plugin+0x108>
    1f43: c9 00        	cmp	#$0
    1f45: d0 03        	bne	$1f4a <initVS1053Plugin+0x108>
    1f47: 4c a7 1f     	jmp	$1fa7 <initVS1053Plugin+0x165>
    1f4a: 5a           	phy
    1f4b: a4 17        	ldy	$17                     ; 0x2017 <_ZN12_GLOBAL__N_13putEcP6Status+0x52>
    1f4d: 84 18        	sty	$18                     ; 0x2018 <_ZN12_GLOBAL__N_13putEcP6Status+0x53>
    1f4f: 7a           	ply
    1f50: 86 19        	stx	$19                     ; 0x2019 <_ZN12_GLOBAL__N_13putEcP6Status+0x54>
    1f52: a6 1e        	ldx	$1e                     ; 0x201e <_ZN12_GLOBAL__N_13putEcP6Status+0x59>
    1f54: 86 16        	stx	$16                     ; 0x2016 <_ZN12_GLOBAL__N_13putEcP6Status+0x51>
    1f56: 06 16        	asl	$16                     ; 0x2016 <_ZN12_GLOBAL__N_13putEcP6Status+0x51>
    1f58: aa           	tax
    1f59: 26 1c        	rol	$1c                     ; 0x201c <_ZN12_GLOBAL__N_13putEcP6Status+0x57>
    1f5b: 18           	clc
    1f5c: a5 16        	lda	$16                     ; 0x2016 <_ZN12_GLOBAL__N_13putEcP6Status+0x51>
    1f5e: 65 12        	adc	$12                     ; 0x2012 <_ZN12_GLOBAL__N_13putEcP6Status+0x4d>
    1f60: 85 16        	sta	$16                     ; 0x2016 <_ZN12_GLOBAL__N_13putEcP6Status+0x51>
    1f62: a5 1c        	lda	$1c                     ; 0x201c <_ZN12_GLOBAL__N_13putEcP6Status+0x57>
    1f64: 65 13        	adc	$13                     ; 0x2013 <_ZN12_GLOBAL__N_13putEcP6Status+0x4e>
    1f66: 85 17        	sta	$17                     ; 0x2017 <_ZN12_GLOBAL__N_13putEcP6Status+0x52>
    1f68: 86 1e        	stx	$1e                     ; 0x201e <_ZN12_GLOBAL__N_13putEcP6Status+0x59>
    1f6a: b2 16        	lda	($16)                   ; 0x2016 <_ZN12_GLOBAL__N_13putEcP6Status+0x51>
    1f6c: 85 1c        	sta	$1c                     ; 0x201c <_ZN12_GLOBAL__N_13putEcP6Status+0x57>
    1f6e: b1 16        	lda	($16),y                 ; 0x2016 <_ZN12_GLOBAL__N_13putEcP6Status+0x51>
    1f70: a6 1a        	ldx	$1a                     ; 0x201a <_ZN12_GLOBAL__N_13putEcP6Status+0x55>
    1f72: 8e 01 d7     	stx	$d701                   ; 0xd701 <__heap_start+0x789d>
    1f75: a6 1b        	ldx	$1b                     ; 0x201b <_ZN12_GLOBAL__N_13putEcP6Status+0x56>
    1f77: 8e 02 d7     	stx	$d702                   ; 0xd702 <__heap_start+0x789e>
    1f7a: a6 1c        	ldx	$1c                     ; 0x201c <_ZN12_GLOBAL__N_13putEcP6Status+0x57>
    1f7c: 8e 02 d7     	stx	$d702                   ; 0xd702 <__heap_start+0x789e>
    1f7f: 8d 03 d7     	sta	$d703                   ; 0xd703 <__heap_start+0x789f>
    1f82: 8c 00 d7     	sty	$d700                   ; 0xd700 <__heap_start+0x789c>
    1f85: 9c 00 d7     	stz	$d700                   ; 0xd700 <__heap_start+0x789c>
    1f88: ae 00 d7     	ldx	$d700                   ; 0xd700 <__heap_start+0x789c>
    1f8b: 30 fb        	bmi	$1f88 <initVS1053Plugin+0x146>
    1f8d: a6 18        	ldx	$18                     ; 0x2018 <_ZN12_GLOBAL__N_13putEcP6Status+0x53>
    1f8f: 86 16        	stx	$16                     ; 0x2016 <_ZN12_GLOBAL__N_13putEcP6Status+0x51>
    1f91: a2 ff        	ldx	#$ff
    1f93: c6 1e        	dec	$1e                     ; 0x201e <_ZN12_GLOBAL__N_13putEcP6Status+0x59>
    1f95: e4 1e        	cpx	$1e                     ; 0x201e <_ZN12_GLOBAL__N_13putEcP6Status+0x59>
    1f97: d0 02        	bne	$1f9b <initVS1053Plugin+0x159>
    1f99: c6 16        	dec	$16                     ; 0x2016 <_ZN12_GLOBAL__N_13putEcP6Status+0x51>
    1f9b: a6 16        	ldx	$16                     ; 0x2016 <_ZN12_GLOBAL__N_13putEcP6Status+0x51>
    1f9d: 86 18        	stx	$18                     ; 0x2018 <_ZN12_GLOBAL__N_13putEcP6Status+0x53>
    1f9f: d0 cf        	bne	$1f70 <initVS1053Plugin+0x12e>
    1fa1: a6 1e        	ldx	$1e                     ; 0x201e <_ZN12_GLOBAL__N_13putEcP6Status+0x59>
    1fa3: d0 cb        	bne	$1f70 <initVS1053Plugin+0x12e>
    1fa5: a6 19        	ldx	$19                     ; 0x2019 <_ZN12_GLOBAL__N_13putEcP6Status+0x54>
    1fa7: 86 1e        	stx	$1e                     ; 0x201e <_ZN12_GLOBAL__N_13putEcP6Status+0x59>
    1fa9: a5 1d        	lda	$1d                     ; 0x201d <_ZN12_GLOBAL__N_13putEcP6Status+0x58>
    1fab: a6 1e        	ldx	$1e                     ; 0x201e <_ZN12_GLOBAL__N_13putEcP6Status+0x59>
    1fad: c5 15        	cmp	$15                     ; 0x2015 <_ZN12_GLOBAL__N_13putEcP6Status+0x50>
    1faf: d0 04        	bne	$1fb5 <initVS1053Plugin+0x173>
    1fb1: e4 14        	cpx	$14                     ; 0x2014 <_ZN12_GLOBAL__N_13putEcP6Status+0x4f>
    1fb3: 80 02        	bra	$1fb7 <initVS1053Plugin+0x175>
    1fb5: c5 15        	cmp	$15                     ; 0x2015 <_ZN12_GLOBAL__N_13putEcP6Status+0x50>
    1fb7: 86 18        	stx	$18                     ; 0x2018 <_ZN12_GLOBAL__N_13putEcP6Status+0x53>
    1fb9: aa           	tax
    1fba: b0 03        	bcs	$1fbf <initVS1053Plugin+0x17d>
    1fbc: 4c 4c 1e     	jmp	$1e4c <initVS1053Plugin+0xa>
    1fbf: 60           	rts

00001fc0 <exit>:
    1fc0: 20 14 03     	jsr	$314 <_fini>
    1fc3: 80 fe        	bra	$1fc3 <exit+0x3>

00001fc5 <_ZN12_GLOBAL__N_13putEcP6Status>:
    1fc5: 85 18        	sta	$18                     ; 0x2018 <_ZN12_GLOBAL__N_13putEcP6Status+0x53>
    1fc7: a6 13        	ldx	$13                     ; 0x2013 <_ZN12_GLOBAL__N_13putEcP6Status+0x4e>
    1fc9: 18           	clc
    1fca: a5 12        	lda	$12                     ; 0x2012 <_ZN12_GLOBAL__N_13putEcP6Status+0x4d>
    1fcc: 69 05        	adc	#$5
    1fce: a8           	tay
    1fcf: a5 13        	lda	$13                     ; 0x2013 <_ZN12_GLOBAL__N_13putEcP6Status+0x4e>
    1fd1: 86 15        	stx	$15                     ; 0x2015 <_ZN12_GLOBAL__N_13putEcP6Status+0x50>
    1fd3: 69 00        	adc	#$0
    1fd5: 18           	clc
    1fd6: 84 16        	sty	$16                     ; 0x2016 <_ZN12_GLOBAL__N_13putEcP6Status+0x51>
    1fd8: a0 05        	ldy	#$5
    1fda: 85 17        	sta	$17                     ; 0x2017 <_ZN12_GLOBAL__N_13putEcP6Status+0x52>
    1fdc: b1 12        	lda	($12),y                 ; 0x2012 <_ZN12_GLOBAL__N_13putEcP6Status+0x4d>
    1fde: aa           	tax
    1fdf: a5 12        	lda	$12                     ; 0x2012 <_ZN12_GLOBAL__N_13putEcP6Status+0x4d>
    1fe1: 69 03        	adc	#$3
    1fe3: 85 14        	sta	$14                     ; 0x2014 <_ZN12_GLOBAL__N_13putEcP6Status+0x4f>
    1fe5: a5 15        	lda	$15                     ; 0x2015 <_ZN12_GLOBAL__N_13putEcP6Status+0x50>
    1fe7: 69 00        	adc	#$0
    1fe9: 85 15        	sta	$15                     ; 0x2015 <_ZN12_GLOBAL__N_13putEcP6Status+0x50>
    1feb: a0 01        	ldy	#$1
    1fed: b1 16        	lda	($16),y                 ; 0x2016 <_ZN12_GLOBAL__N_13putEcP6Status+0x51>
    1fef: d1 14        	cmp	($14),y                 ; 0x2014 <_ZN12_GLOBAL__N_13putEcP6Status+0x4f>
    1ff1: d0 11        	bne	$2004 <_ZN12_GLOBAL__N_13putEcP6Status+0x3f>
    1ff3: a0 03        	ldy	#$3
    1ff5: 85 17        	sta	$17                     ; 0x2017 <_ZN12_GLOBAL__N_13putEcP6Status+0x52>
    1ff7: b1 12        	lda	($12),y                 ; 0x2012 <_ZN12_GLOBAL__N_13putEcP6Status+0x4d>
    1ff9: 85 14        	sta	$14                     ; 0x2014 <_ZN12_GLOBAL__N_13putEcP6Status+0x4f>
    1ffb: 86 16        	stx	$16                     ; 0x2016 <_ZN12_GLOBAL__N_13putEcP6Status+0x51>
    1ffd: e4 14        	cpx	$14                     ; 0x2014 <_ZN12_GLOBAL__N_13putEcP6Status+0x4f>
    1fff: 90 0e        	bcc	$200f <_ZN12_GLOBAL__N_13putEcP6Status+0x4a>
    2001: 4c 78 20     	jmp	$2078 <_ZN12_GLOBAL__N_13putEcP6Status+0xb3>
    2004: 86 16        	stx	$16                     ; 0x2016 <_ZN12_GLOBAL__N_13putEcP6Status+0x51>
    2006: d1 14        	cmp	($14),y                 ; 0x2014 <_ZN12_GLOBAL__N_13putEcP6Status+0x4f>
    2008: 85 17        	sta	$17                     ; 0x2017 <_ZN12_GLOBAL__N_13putEcP6Status+0x52>
    200a: 90 03        	bcc	$200f <_ZN12_GLOBAL__N_13putEcP6Status+0x4a>
    200c: 4c 78 20     	jmp	$2078 <_ZN12_GLOBAL__N_13putEcP6Status+0xb3>
    200f: a5 12        	lda	$12                     ; 0x2012 <_ZN12_GLOBAL__N_13putEcP6Status+0x4d>
    2011: 18           	clc
    2012: 69 0f        	adc	#$f
    2014: 85 14        	sta	$14                     ; 0x2014 <_ZN12_GLOBAL__N_13putEcP6Status+0x4f>
    2016: a5 13        	lda	$13                     ; 0x2013 <_ZN12_GLOBAL__N_13putEcP6Status+0x4e>
    2018: 69 00        	adc	#$0
    201a: 85 15        	sta	$15                     ; 0x2015 <_ZN12_GLOBAL__N_13putEcP6Status+0x50>
    201c: a0 01        	ldy	#$1
    201e: b1 14        	lda	($14),y                 ; 0x2014 <_ZN12_GLOBAL__N_13putEcP6Status+0x4f>
    2020: a2 00        	ldx	#$0
    2022: 86 14        	stx	$14                     ; 0x2014 <_ZN12_GLOBAL__N_13putEcP6Status+0x4f>
    2024: a2 00        	ldx	#$0
    2026: 86 15        	stx	$15                     ; 0x2015 <_ZN12_GLOBAL__N_13putEcP6Status+0x50>
    2028: c5 15        	cmp	$15                     ; 0x2015 <_ZN12_GLOBAL__N_13putEcP6Status+0x50>
    202a: d0 2d        	bne	$2059 <_ZN12_GLOBAL__N_13putEcP6Status+0x94>
    202c: a0 0f        	ldy	#$f
    202e: b1 12        	lda	($12),y                 ; 0x2012 <_ZN12_GLOBAL__N_13putEcP6Status+0x4d>
    2030: c5 14        	cmp	$14                     ; 0x2014 <_ZN12_GLOBAL__N_13putEcP6Status+0x4f>
    2032: d0 25        	bne	$2059 <_ZN12_GLOBAL__N_13putEcP6Status+0x94>
    2034: a5 12        	lda	$12                     ; 0x2012 <_ZN12_GLOBAL__N_13putEcP6Status+0x4d>
    2036: 18           	clc
    2037: 69 09        	adc	#$9
    2039: 85 14        	sta	$14                     ; 0x2014 <_ZN12_GLOBAL__N_13putEcP6Status+0x4f>
    203b: a5 13        	lda	$13                     ; 0x2013 <_ZN12_GLOBAL__N_13putEcP6Status+0x4e>
    203d: 69 00        	adc	#$0
    203f: a0 09        	ldy	#$9
    2041: 85 15        	sta	$15                     ; 0x2015 <_ZN12_GLOBAL__N_13putEcP6Status+0x50>
    2043: 18           	clc
    2044: a5 16        	lda	$16                     ; 0x2016 <_ZN12_GLOBAL__N_13putEcP6Status+0x51>
    2046: 71 12        	adc	($12),y                 ; 0x2012 <_ZN12_GLOBAL__N_13putEcP6Status+0x4d>
    2048: aa           	tax
    2049: a0 01        	ldy	#$1
    204b: a5 17        	lda	$17                     ; 0x2017 <_ZN12_GLOBAL__N_13putEcP6Status+0x52>
    204d: 71 14        	adc	($14),y                 ; 0x2014 <_ZN12_GLOBAL__N_13putEcP6Status+0x4f>
    204f: 86 14        	stx	$14                     ; 0x2014 <_ZN12_GLOBAL__N_13putEcP6Status+0x4f>
    2051: 85 15        	sta	$15                     ; 0x2015 <_ZN12_GLOBAL__N_13putEcP6Status+0x50>
    2053: a5 18        	lda	$18                     ; 0x2018 <_ZN12_GLOBAL__N_13putEcP6Status+0x53>
    2055: 92 14        	sta	($14)                   ; 0x2014 <_ZN12_GLOBAL__N_13putEcP6Status+0x4f>
    2057: 80 1f        	bra	$2078 <_ZN12_GLOBAL__N_13putEcP6Status+0xb3>
    2059: a6 12        	ldx	$12                     ; 0x2012 <_ZN12_GLOBAL__N_13putEcP6Status+0x4d>
    205b: 86 92        	stx	$92                     ; 0x2092 <_ZN12_GLOBAL__N_13putEcP6Status+0xcd>
    205d: a6 13        	ldx	$13                     ; 0x2013 <_ZN12_GLOBAL__N_13putEcP6Status+0x4e>
    205f: 86 93        	stx	$93                     ; 0x2093 <_ZN12_GLOBAL__N_13putEcP6Status+0xce>
    2061: a5 18        	lda	$18                     ; 0x2018 <_ZN12_GLOBAL__N_13putEcP6Status+0x53>
    2063: 85 33        	sta	$33                     ; 0x2033 <_ZN12_GLOBAL__N_13putEcP6Status+0x6e>
    2065: a2 33        	ldx	#$33
    2067: 86 12        	stx	$12                     ; 0x2012 <_ZN12_GLOBAL__N_13putEcP6Status+0x4d>
    2069: a2 00        	ldx	#$0
    206b: 86 13        	stx	$13                     ; 0x2013 <_ZN12_GLOBAL__N_13putEcP6Status+0x4e>
    206d: 20 c0 19     	jsr	$19c0 <textPrint>
    2070: a6 92        	ldx	$92                     ; 0x2092 <_ZN12_GLOBAL__N_13putEcP6Status+0xcd>
    2072: 86 12        	stx	$12                     ; 0x2012 <_ZN12_GLOBAL__N_13putEcP6Status+0x4d>
    2074: a6 93        	ldx	$93                     ; 0x2093 <_ZN12_GLOBAL__N_13putEcP6Status+0xce>
    2076: 86 13        	stx	$13                     ; 0x2013 <_ZN12_GLOBAL__N_13putEcP6Status+0x4e>
    2078: a0 05        	ldy	#$5
    207a: a5 12        	lda	$12                     ; 0x2012 <_ZN12_GLOBAL__N_13putEcP6Status+0x4d>
    207c: 18           	clc
    207d: 69 05        	adc	#$5
    207f: 85 14        	sta	$14                     ; 0x2014 <_ZN12_GLOBAL__N_13putEcP6Status+0x4f>
    2081: a5 13        	lda	$13                     ; 0x2013 <_ZN12_GLOBAL__N_13putEcP6Status+0x4e>
    2083: 69 00        	adc	#$0
    2085: 85 15        	sta	$15                     ; 0x2015 <_ZN12_GLOBAL__N_13putEcP6Status+0x50>
    2087: b1 12        	lda	($12),y                 ; 0x2012 <_ZN12_GLOBAL__N_13putEcP6Status+0x4d>
    2089: aa           	tax
    208a: a0 01        	ldy	#$1
    208c: b1 14        	lda	($14),y                 ; 0x2014 <_ZN12_GLOBAL__N_13putEcP6Status+0x4f>
    208e: e8           	inx
    208f: d0 01        	bne	$2092 <_ZN12_GLOBAL__N_13putEcP6Status+0xcd>
    2091: 1a           	inc
    2092: 85 16        	sta	$16                     ; 0x2016 <_ZN12_GLOBAL__N_13putEcP6Status+0x51>
    2094: 8a           	txa
    2095: a0 05        	ldy	#$5
    2097: 91 12        	sta	($12),y                 ; 0x2012 <_ZN12_GLOBAL__N_13putEcP6Status+0x4d>
    2099: a0 01        	ldy	#$1
    209b: a5 16        	lda	$16                     ; 0x2016 <_ZN12_GLOBAL__N_13putEcP6Status+0x51>
    209d: 91 14        	sta	($14),y                 ; 0x2014 <_ZN12_GLOBAL__N_13putEcP6Status+0x4f>
    209f: 60           	rts

000020a0 <_ZN12_GLOBAL__N_112print_stringEPKcP6Status>:
    20a0: a6 12        	ldx	$12                     ; 0x2012 <_ZN12_GLOBAL__N_13putEcP6Status+0x4d>
    20a2: 86 8a        	stx	$8a                     ; 0x208a <_ZN12_GLOBAL__N_13putEcP6Status+0xc5>
    20a4: a6 13        	ldx	$13                     ; 0x2013 <_ZN12_GLOBAL__N_13putEcP6Status+0x4e>
    20a6: 86 8b        	stx	$8b                     ; 0x208b <_ZN12_GLOBAL__N_13putEcP6Status+0xc6>
    20a8: a6 14        	ldx	$14                     ; 0x2014 <_ZN12_GLOBAL__N_13putEcP6Status+0x4f>
    20aa: 86 8c        	stx	$8c                     ; 0x208c <_ZN12_GLOBAL__N_13putEcP6Status+0xc7>
    20ac: a6 15        	ldx	$15                     ; 0x2015 <_ZN12_GLOBAL__N_13putEcP6Status+0x50>
    20ae: 86 8d        	stx	$8d                     ; 0x208d <_ZN12_GLOBAL__N_13putEcP6Status+0xc8>
    20b0: a5 8c        	lda	$8c                     ; 0x208c <_ZN12_GLOBAL__N_13putEcP6Status+0xc7>
    20b2: 18           	clc
    20b3: 69 0d        	adc	#$d
    20b5: 85 12        	sta	$12                     ; 0x2012 <_ZN12_GLOBAL__N_13putEcP6Status+0x4d>
    20b7: a5 8d        	lda	$8d                     ; 0x208d <_ZN12_GLOBAL__N_13putEcP6Status+0xc8>
    20b9: 69 00        	adc	#$0
    20bb: 85 13        	sta	$13                     ; 0x2013 <_ZN12_GLOBAL__N_13putEcP6Status+0x4e>
    20bd: a0 01        	ldy	#$1
    20bf: b1 12        	lda	($12),y                 ; 0x2012 <_ZN12_GLOBAL__N_13putEcP6Status+0x4d>
    20c1: 30 16        	bmi	$20d9 <_ZN12_GLOBAL__N_112print_stringEPKcP6Status+0x39>
    20c3: a0 0d        	ldy	#$d
    20c5: 85 12        	sta	$12                     ; 0x2012 <_ZN12_GLOBAL__N_13putEcP6Status+0x4d>
    20c7: b1 8c        	lda	($8c),y                 ; 0x208c <_ZN12_GLOBAL__N_13putEcP6Status+0xc7>
    20c9: a6 12        	ldx	$12                     ; 0x2012 <_ZN12_GLOBAL__N_13putEcP6Status+0x4d>
    20cb: 86 91        	stx	$91                     ; 0x2091 <_ZN12_GLOBAL__N_13putEcP6Status+0xcc>
    20cd: d0 0f        	bne	$20de <_ZN12_GLOBAL__N_112print_stringEPKcP6Status+0x3e>
    20cf: aa           	tax
    20d0: d0 0c        	bne	$20de <_ZN12_GLOBAL__N_112print_stringEPKcP6Status+0x3e>
    20d2: 64 8e        	stz	$8e                     ; 0x208e <_ZN12_GLOBAL__N_13putEcP6Status+0xc9>
    20d4: a2 00        	ldx	#$0
    20d6: 4c a7 21     	jmp	$21a7 <_ZN12_GLOBAL__N_112print_stringEPKcP6Status+0x107>
    20d9: a9 ff        	lda	#$ff
    20db: aa           	tax
    20dc: 86 91        	stx	$91                     ; 0x2091 <_ZN12_GLOBAL__N_13putEcP6Status+0xcc>
    20de: 85 8e        	sta	$8e                     ; 0x208e <_ZN12_GLOBAL__N_13putEcP6Status+0xc9>
    20e0: 64 12        	stz	$12                     ; 0x2012 <_ZN12_GLOBAL__N_13putEcP6Status+0x4d>
    20e2: a4 8a        	ldy	$8a                     ; 0x208a <_ZN12_GLOBAL__N_13putEcP6Status+0xc5>
    20e4: a6 8b        	ldx	$8b                     ; 0x208b <_ZN12_GLOBAL__N_13putEcP6Status+0xc6>
    20e6: 86 16        	stx	$16                     ; 0x2016 <_ZN12_GLOBAL__N_13putEcP6Status+0x51>
    20e8: 64 13        	stz	$13                     ; 0x2013 <_ZN12_GLOBAL__N_13putEcP6Status+0x4e>
    20ea: 98           	tya
    20eb: 18           	clc
    20ec: 65 12        	adc	$12                     ; 0x2012 <_ZN12_GLOBAL__N_13putEcP6Status+0x4d>
    20ee: 85 14        	sta	$14                     ; 0x2014 <_ZN12_GLOBAL__N_13putEcP6Status+0x4f>
    20f0: a5 8b        	lda	$8b                     ; 0x208b <_ZN12_GLOBAL__N_13putEcP6Status+0xc6>
    20f2: 65 13        	adc	$13                     ; 0x2013 <_ZN12_GLOBAL__N_13putEcP6Status+0x4e>
    20f4: 85 15        	sta	$15                     ; 0x2015 <_ZN12_GLOBAL__N_13putEcP6Status+0x50>
    20f6: b2 14        	lda	($14)                   ; 0x2014 <_ZN12_GLOBAL__N_13putEcP6Status+0x4f>
    20f8: d0 03        	bne	$20fd <_ZN12_GLOBAL__N_112print_stringEPKcP6Status+0x5d>
    20fa: 4c a1 21     	jmp	$21a1 <_ZN12_GLOBAL__N_112print_stringEPKcP6Status+0x101>
    20fd: e6 12        	inc	$12                     ; 0x2012 <_ZN12_GLOBAL__N_13putEcP6Status+0x4d>
    20ff: d0 02        	bne	$2103 <_ZN12_GLOBAL__N_112print_stringEPKcP6Status+0x63>
    2101: e6 13        	inc	$13                     ; 0x2013 <_ZN12_GLOBAL__N_13putEcP6Status+0x4e>
    2103: a6 91        	ldx	$91                     ; 0x2091 <_ZN12_GLOBAL__N_13putEcP6Status+0xcc>
    2105: e4 13        	cpx	$13                     ; 0x2013 <_ZN12_GLOBAL__N_13putEcP6Status+0x4e>
    2107: d0 e1        	bne	$20ea <_ZN12_GLOBAL__N_112print_stringEPKcP6Status+0x4a>
    2109: a6 8e        	ldx	$8e                     ; 0x208e <_ZN12_GLOBAL__N_13putEcP6Status+0xc9>
    210b: e4 12        	cpx	$12                     ; 0x2012 <_ZN12_GLOBAL__N_13putEcP6Status+0x4d>
    210d: d0 db        	bne	$20ea <_ZN12_GLOBAL__N_112print_stringEPKcP6Status+0x4a>
    210f: a0 01        	ldy	#$1
    2111: b1 8c        	lda	($8c),y                 ; 0x208c <_ZN12_GLOBAL__N_13putEcP6Status+0xc7>
    2113: 29 01        	and	#$1
    2115: f0 03        	beq	$211a <_ZN12_GLOBAL__N_112print_stringEPKcP6Status+0x7a>
    2117: 4c 72 21     	jmp	$2172 <_ZN12_GLOBAL__N_112print_stringEPKcP6Status+0xd2>
    211a: a5 8c        	lda	$8c                     ; 0x208c <_ZN12_GLOBAL__N_13putEcP6Status+0xc7>
    211c: 18           	clc
    211d: 69 0b        	adc	#$b
    211f: 85 14        	sta	$14                     ; 0x2014 <_ZN12_GLOBAL__N_13putEcP6Status+0x4f>
    2121: a5 8d        	lda	$8d                     ; 0x208d <_ZN12_GLOBAL__N_13putEcP6Status+0xc8>
    2123: 69 00        	adc	#$0
    2125: 85 15        	sta	$15                     ; 0x2015 <_ZN12_GLOBAL__N_13putEcP6Status+0x50>
    2127: a0 0b        	ldy	#$b
    2129: b1 8c        	lda	($8c),y                 ; 0x208c <_ZN12_GLOBAL__N_13putEcP6Status+0xc7>
    212b: 85 13        	sta	$13                     ; 0x2013 <_ZN12_GLOBAL__N_13putEcP6Status+0x4e>
    212d: a0 01        	ldy	#$1
    212f: b1 14        	lda	($14),y                 ; 0x2014 <_ZN12_GLOBAL__N_13putEcP6Status+0x4f>
    2131: 85 12        	sta	$12                     ; 0x2012 <_ZN12_GLOBAL__N_13putEcP6Status+0x4d>
    2133: a6 91        	ldx	$91                     ; 0x2091 <_ZN12_GLOBAL__N_13putEcP6Status+0xcc>
    2135: e4 12        	cpx	$12                     ; 0x2012 <_ZN12_GLOBAL__N_13putEcP6Status+0x4d>
    2137: d0 08        	bne	$2141 <_ZN12_GLOBAL__N_112print_stringEPKcP6Status+0xa1>
    2139: a6 8e        	ldx	$8e                     ; 0x208e <_ZN12_GLOBAL__N_13putEcP6Status+0xc9>
    213b: e4 13        	cpx	$13                     ; 0x2013 <_ZN12_GLOBAL__N_13putEcP6Status+0x4e>
    213d: 90 06        	bcc	$2145 <_ZN12_GLOBAL__N_112print_stringEPKcP6Status+0xa5>
    213f: 80 31        	bra	$2172 <_ZN12_GLOBAL__N_112print_stringEPKcP6Status+0xd2>
    2141: e4 12        	cpx	$12                     ; 0x2012 <_ZN12_GLOBAL__N_13putEcP6Status+0x4d>
    2143: b0 2d        	bcs	$2172 <_ZN12_GLOBAL__N_112print_stringEPKcP6Status+0xd2>
    2145: 38           	sec
    2146: a5 8e        	lda	$8e                     ; 0x208e <_ZN12_GLOBAL__N_13putEcP6Status+0xc9>
    2148: e5 13        	sbc	$13                     ; 0x2013 <_ZN12_GLOBAL__N_13putEcP6Status+0x4e>
    214a: a8           	tay
    214b: a5 91        	lda	$91                     ; 0x2091 <_ZN12_GLOBAL__N_13putEcP6Status+0xcc>
    214d: e5 12        	sbc	$12                     ; 0x2012 <_ZN12_GLOBAL__N_13putEcP6Status+0x4d>
    214f: 85 90        	sta	$90                     ; 0x2090 <_ZN12_GLOBAL__N_13putEcP6Status+0xcb>
    2151: a6 8c        	ldx	$8c                     ; 0x208c <_ZN12_GLOBAL__N_13putEcP6Status+0xc7>
    2153: 86 12        	stx	$12                     ; 0x2012 <_ZN12_GLOBAL__N_13putEcP6Status+0x4d>
    2155: a6 8d        	ldx	$8d                     ; 0x208d <_ZN12_GLOBAL__N_13putEcP6Status+0xc8>
    2157: 86 13        	stx	$13                     ; 0x2013 <_ZN12_GLOBAL__N_13putEcP6Status+0x4e>
    2159: 84 8f        	sty	$8f                     ; 0x208f <_ZN12_GLOBAL__N_13putEcP6Status+0xca>
    215b: a9 20        	lda	#$20
    215d: 20 c5 1f     	jsr	$1fc5 <_ZN12_GLOBAL__N_13putEcP6Status>
    2160: a6 90        	ldx	$90                     ; 0x2090 <_ZN12_GLOBAL__N_13putEcP6Status+0xcb>
    2162: e6 8f        	inc	$8f                     ; 0x208f <_ZN12_GLOBAL__N_13putEcP6Status+0xca>
    2164: d0 01        	bne	$2167 <_ZN12_GLOBAL__N_112print_stringEPKcP6Status+0xc7>
    2166: e8           	inx
    2167: 86 90        	stx	$90                     ; 0x2090 <_ZN12_GLOBAL__N_13putEcP6Status+0xcb>
    2169: a4 8f        	ldy	$8f                     ; 0x208f <_ZN12_GLOBAL__N_13putEcP6Status+0xca>
    216b: 8a           	txa
    216c: d0 e3        	bne	$2151 <_ZN12_GLOBAL__N_112print_stringEPKcP6Status+0xb1>
    216e: a5 8f        	lda	$8f                     ; 0x208f <_ZN12_GLOBAL__N_13putEcP6Status+0xca>
    2170: d0 df        	bne	$2151 <_ZN12_GLOBAL__N_112print_stringEPKcP6Status+0xb1>
    2172: a4 91        	ldy	$91                     ; 0x2091 <_ZN12_GLOBAL__N_13putEcP6Status+0xcc>
    2174: d0 04        	bne	$217a <_ZN12_GLOBAL__N_112print_stringEPKcP6Status+0xda>
    2176: a5 8e        	lda	$8e                     ; 0x208e <_ZN12_GLOBAL__N_13putEcP6Status+0xc9>
    2178: f0 26        	beq	$21a0 <_ZN12_GLOBAL__N_112print_stringEPKcP6Status+0x100>
    217a: a2 ff        	ldx	#$ff
    217c: c6 8e        	dec	$8e                     ; 0x208e <_ZN12_GLOBAL__N_13putEcP6Status+0xc9>
    217e: e4 8e        	cpx	$8e                     ; 0x208e <_ZN12_GLOBAL__N_13putEcP6Status+0xc9>
    2180: d0 01        	bne	$2183 <_ZN12_GLOBAL__N_112print_stringEPKcP6Status+0xe3>
    2182: 88           	dey
    2183: 84 8f        	sty	$8f                     ; 0x208f <_ZN12_GLOBAL__N_13putEcP6Status+0xca>
    2185: b2 8a        	lda	($8a)                   ; 0x208a <_ZN12_GLOBAL__N_13putEcP6Status+0xc5>
    2187: e6 8a        	inc	$8a                     ; 0x208a <_ZN12_GLOBAL__N_13putEcP6Status+0xc5>
    2189: d0 02        	bne	$218d <_ZN12_GLOBAL__N_112print_stringEPKcP6Status+0xed>
    218b: e6 8b        	inc	$8b                     ; 0x208b <_ZN12_GLOBAL__N_13putEcP6Status+0xc6>
    218d: a6 8c        	ldx	$8c                     ; 0x208c <_ZN12_GLOBAL__N_13putEcP6Status+0xc7>
    218f: 86 12        	stx	$12                     ; 0x2012 <_ZN12_GLOBAL__N_13putEcP6Status+0x4d>
    2191: a6 8d        	ldx	$8d                     ; 0x208d <_ZN12_GLOBAL__N_13putEcP6Status+0xc8>
    2193: 86 13        	stx	$13                     ; 0x2013 <_ZN12_GLOBAL__N_13putEcP6Status+0x4e>
    2195: 20 c5 1f     	jsr	$1fc5 <_ZN12_GLOBAL__N_13putEcP6Status>
    2198: a4 8f        	ldy	$8f                     ; 0x208f <_ZN12_GLOBAL__N_13putEcP6Status+0xca>
    219a: d0 de        	bne	$217a <_ZN12_GLOBAL__N_112print_stringEPKcP6Status+0xda>
    219c: a5 8e        	lda	$8e                     ; 0x208e <_ZN12_GLOBAL__N_13putEcP6Status+0xc9>
    219e: d0 da        	bne	$217a <_ZN12_GLOBAL__N_112print_stringEPKcP6Status+0xda>
    21a0: 60           	rts
    21a1: a6 12        	ldx	$12                     ; 0x2012 <_ZN12_GLOBAL__N_13putEcP6Status+0x4d>
    21a3: 86 8e        	stx	$8e                     ; 0x208e <_ZN12_GLOBAL__N_13putEcP6Status+0xc9>
    21a5: a6 13        	ldx	$13                     ; 0x2013 <_ZN12_GLOBAL__N_13putEcP6Status+0x4e>
    21a7: 86 91        	stx	$91                     ; 0x2091 <_ZN12_GLOBAL__N_13putEcP6Status+0xcc>
    21a9: 4c 0f 21     	jmp	$210f <_ZN12_GLOBAL__N_112print_stringEPKcP6Status+0x6f>

000021ac <printf>:
    21ac: a6 12        	ldx	$12                     ; 0x2012 <_ZN12_GLOBAL__N_13putEcP6Status+0x4d>
    21ae: 86 3f        	stx	$3f                     ; 0x203f <_ZN12_GLOBAL__N_13putEcP6Status+0x7a>
    21b0: a6 13        	ldx	$13                     ; 0x2013 <_ZN12_GLOBAL__N_13putEcP6Status+0x4e>
    21b2: 86 40        	stx	$40                     ; 0x2040 <_ZN12_GLOBAL__N_13putEcP6Status+0x7b>
    21b4: 18           	clc
    21b5: a6 10        	ldx	$10                     ; 0x2010 <_ZN12_GLOBAL__N_13putEcP6Status+0x4b>
    21b7: a4 11        	ldy	$11                     ; 0x2011 <_ZN12_GLOBAL__N_13putEcP6Status+0x4c>
    21b9: 86 80        	stx	$80                     ; 0x2080 <_ZN12_GLOBAL__N_13putEcP6Status+0xbb>
    21bb: 84 81        	sty	$81                     ; 0x2081 <_ZN12_GLOBAL__N_13putEcP6Status+0xbc>
    21bd: a6 80        	ldx	$80                     ; 0x2080 <_ZN12_GLOBAL__N_13putEcP6Status+0xbb>
    21bf: a4 81        	ldy	$81                     ; 0x2081 <_ZN12_GLOBAL__N_13putEcP6Status+0xbc>
    21c1: 86 6b        	stx	$6b                     ; 0x206b <_ZN12_GLOBAL__N_13putEcP6Status+0xa6>
    21c3: 84 6c        	sty	$6c                     ; 0x206c <_ZN12_GLOBAL__N_13putEcP6Status+0xa7>
    21c5: a2 ff        	ldx	#$ff
    21c7: 86 70        	stx	$70                     ; 0x2070 <_ZN12_GLOBAL__N_13putEcP6Status+0xab>
    21c9: 86 71        	stx	$71                     ; 0x2071 <_ZN12_GLOBAL__N_13putEcP6Status+0xac>
    21cb: 64 72        	stz	$72                     ; 0x2072 <_ZN12_GLOBAL__N_13putEcP6Status+0xad>
    21cd: 64 73        	stz	$73                     ; 0x2073 <_ZN12_GLOBAL__N_13putEcP6Status+0xae>
    21cf: e8           	inx
    21d0: 86 41        	stx	$41                     ; 0x2041 <_ZN12_GLOBAL__N_13putEcP6Status+0x7c>
    21d2: a2 00        	ldx	#$0
    21d4: 86 42        	stx	$42                     ; 0x2042 <_ZN12_GLOBAL__N_13putEcP6Status+0x7d>
    21d6: a6 41        	ldx	$41                     ; 0x2041 <_ZN12_GLOBAL__N_13putEcP6Status+0x7c>
    21d8: a4 42        	ldy	$42                     ; 0x2042 <_ZN12_GLOBAL__N_13putEcP6Status+0x7d>
    21da: 86 76        	stx	$76                     ; 0x2076 <_ZN12_GLOBAL__N_13putEcP6Status+0xb1>
    21dc: 84 77        	sty	$77                     ; 0x2077 <_ZN12_GLOBAL__N_13putEcP6Status+0xb2>
    21de: a2 02        	ldx	#$2
    21e0: 86 7c        	stx	$7c                     ; 0x207c <_ZN12_GLOBAL__N_13putEcP6Status+0xb7>
    21e2: 64 7d        	stz	$7d                     ; 0x207d <_ZN12_GLOBAL__N_13putEcP6Status+0xb8>
    21e4: a6 6b        	ldx	$6b                     ; 0x206b <_ZN12_GLOBAL__N_13putEcP6Status+0xa6>
    21e6: a4 6c        	ldy	$6c                     ; 0x206c <_ZN12_GLOBAL__N_13putEcP6Status+0xa7>
    21e8: 86 7e        	stx	$7e                     ; 0x207e <_ZN12_GLOBAL__N_13putEcP6Status+0xb9>
    21ea: 84 7f        	sty	$7f                     ; 0x207f <_ZN12_GLOBAL__N_13putEcP6Status+0xba>
    21ec: a2 62        	ldx	#$62
    21ee: a0 00        	ldy	#$0
    21f0: 86 12        	stx	$12                     ; 0x2012 <_ZN12_GLOBAL__N_13putEcP6Status+0x4d>
    21f2: 84 13        	sty	$13                     ; 0x2013 <_ZN12_GLOBAL__N_13putEcP6Status+0x4e>
    21f4: a0 01        	ldy	#$1
    21f6: a9 49        	lda	#$49
    21f8: 18           	clc
    21f9: 69 02        	adc	#$2
    21fb: 85 88        	sta	$88                     ; 0x2088 <_ZN12_GLOBAL__N_13putEcP6Status+0xc3>
    21fd: a9 00        	lda	#$0
    21ff: 69 00        	adc	#$0
    2201: 85 89        	sta	$89                     ; 0x2089 <_ZN12_GLOBAL__N_13putEcP6Status+0xc4>
    2203: e6 12        	inc	$12                     ; 0x2012 <_ZN12_GLOBAL__N_13putEcP6Status+0x4d>
    2205: d0 02        	bne	$2209 <printf+0x5d>
    2207: e6 13        	inc	$13                     ; 0x2013 <_ZN12_GLOBAL__N_13putEcP6Status+0x4e>
    2209: a6 12        	ldx	$12                     ; 0x2012 <_ZN12_GLOBAL__N_13putEcP6Status+0x4d>
    220b: 86 84        	stx	$84                     ; 0x2084 <_ZN12_GLOBAL__N_13putEcP6Status+0xbf>
    220d: a6 13        	ldx	$13                     ; 0x2013 <_ZN12_GLOBAL__N_13putEcP6Status+0x4e>
    220f: 86 85        	stx	$85                     ; 0x2085 <_ZN12_GLOBAL__N_13putEcP6Status+0xc0>
    2211: a6 3f        	ldx	$3f                     ; 0x203f <_ZN12_GLOBAL__N_13putEcP6Status+0x7a>
    2213: 86 43        	stx	$43                     ; 0x2043 <_ZN12_GLOBAL__N_13putEcP6Status+0x7e>
    2215: a6 40        	ldx	$40                     ; 0x2040 <_ZN12_GLOBAL__N_13putEcP6Status+0x7b>
    2217: 86 44        	stx	$44                     ; 0x2044 <_ZN12_GLOBAL__N_13putEcP6Status+0x7f>
    2219: b2 3f        	lda	($3f)                   ; 0x203f <_ZN12_GLOBAL__N_13putEcP6Status+0x7a>
    221b: c9 25        	cmp	#$25
    221d: f0 2b        	beq	$224a <printf+0x9e>
    221f: aa           	tax
    2220: d0 03        	bne	$2225 <printf+0x79>
    2222: 4c d7 2d     	jmp	$2dd7 <printf+0xc2b>
    2225: 85 33        	sta	$33                     ; 0x2033 <_ZN12_GLOBAL__N_13putEcP6Status+0x6e>
    2227: a2 33        	ldx	#$33
    2229: 86 12        	stx	$12                     ; 0x2012 <_ZN12_GLOBAL__N_13putEcP6Status+0x4d>
    222b: a2 00        	ldx	#$0
    222d: 86 13        	stx	$13                     ; 0x2013 <_ZN12_GLOBAL__N_13putEcP6Status+0x4e>
    222f: 20 c0 19     	jsr	$19c0 <textPrint>
    2232: a0 01        	ldy	#$1
    2234: e6 43        	inc	$43                     ; 0x2043 <_ZN12_GLOBAL__N_13putEcP6Status+0x7e>
    2236: d0 02        	bne	$223a <printf+0x8e>
    2238: e6 44        	inc	$44                     ; 0x2044 <_ZN12_GLOBAL__N_13putEcP6Status+0x7f>
    223a: e6 72        	inc	$72                     ; 0x2072 <_ZN12_GLOBAL__N_13putEcP6Status+0xad>
    223c: d0 02        	bne	$2240 <printf+0x94>
    223e: e6 73        	inc	$73                     ; 0x2073 <_ZN12_GLOBAL__N_13putEcP6Status+0xae>
    2240: a6 43        	ldx	$43                     ; 0x2043 <_ZN12_GLOBAL__N_13putEcP6Status+0x7e>
    2242: 86 3f        	stx	$3f                     ; 0x203f <_ZN12_GLOBAL__N_13putEcP6Status+0x7a>
    2244: a6 44        	ldx	$44                     ; 0x2044 <_ZN12_GLOBAL__N_13putEcP6Status+0x7f>
    2246: 86 40        	stx	$40                     ; 0x2040 <_ZN12_GLOBAL__N_13putEcP6Status+0x7b>
    2248: 80 c7        	bra	$2211 <printf+0x65>
    224a: a6 3f        	ldx	$3f                     ; 0x203f <_ZN12_GLOBAL__N_13putEcP6Status+0x7a>
    224c: 86 12        	stx	$12                     ; 0x2012 <_ZN12_GLOBAL__N_13putEcP6Status+0x4d>
    224e: a6 40        	ldx	$40                     ; 0x2040 <_ZN12_GLOBAL__N_13putEcP6Status+0x7b>
    2250: 86 13        	stx	$13                     ; 0x2013 <_ZN12_GLOBAL__N_13putEcP6Status+0x4e>
    2252: e6 12        	inc	$12                     ; 0x2012 <_ZN12_GLOBAL__N_13putEcP6Status+0x4d>
    2254: d0 02        	bne	$2258 <printf+0xac>
    2256: e6 13        	inc	$13                     ; 0x2013 <_ZN12_GLOBAL__N_13putEcP6Status+0x4e>
    2258: b1 43        	lda	($43),y                 ; 0x2043 <_ZN12_GLOBAL__N_13putEcP6Status+0x7e>
    225a: c9 25        	cmp	#$25
    225c: d0 16        	bne	$2274 <printf+0xc8>
    225e: a4 72        	ldy	$72                     ; 0x2072 <_ZN12_GLOBAL__N_13putEcP6Status+0xad>
    2260: a5 73        	lda	$73                     ; 0x2073 <_ZN12_GLOBAL__N_13putEcP6Status+0xae>
    2262: c5 71        	cmp	$71                     ; 0x2071 <_ZN12_GLOBAL__N_13putEcP6Status+0xac>
    2264: f0 03        	beq	$2269 <printf+0xbd>
    2266: 4c 7b 23     	jmp	$237b <printf+0x1cf>
    2269: a6 70        	ldx	$70                     ; 0x2070 <_ZN12_GLOBAL__N_13putEcP6Status+0xab>
    226b: 86 12        	stx	$12                     ; 0x2012 <_ZN12_GLOBAL__N_13putEcP6Status+0x4d>
    226d: 84 13        	sty	$13                     ; 0x2013 <_ZN12_GLOBAL__N_13putEcP6Status+0x4e>
    226f: c4 12        	cpy	$12                     ; 0x2012 <_ZN12_GLOBAL__N_13putEcP6Status+0x4d>
    2271: 4c 7f 23     	jmp	$237f <printf+0x1d3>
    2274: 64 6e        	stz	$6e                     ; 0x206e <_ZN12_GLOBAL__N_13putEcP6Status+0xa9>
    2276: 64 6f        	stz	$6f                     ; 0x206f <_ZN12_GLOBAL__N_13putEcP6Status+0xaa>
    2278: 64 6d        	stz	$6d                     ; 0x206d <_ZN12_GLOBAL__N_13putEcP6Status+0xa8>
    227a: 64 78        	stz	$78                     ; 0x2078 <_ZN12_GLOBAL__N_13putEcP6Status+0xb3>
    227c: 64 79        	stz	$79                     ; 0x2079 <_ZN12_GLOBAL__N_13putEcP6Status+0xb4>
    227e: a2 ff        	ldx	#$ff
    2280: 86 7a        	stx	$7a                     ; 0x207a <_ZN12_GLOBAL__N_13putEcP6Status+0xb5>
    2282: 86 7b        	stx	$7b                     ; 0x207b <_ZN12_GLOBAL__N_13putEcP6Status+0xb6>
    2284: 64 3e        	stz	$3e                     ; 0x203e <_ZN12_GLOBAL__N_13putEcP6Status+0x79>
    2286: 80 33        	bra	$22bb <printf+0x10f>
    2288: a2 02        	ldx	#$2
    228a: 80 15        	bra	$22a1 <printf+0xf5>
    228c: e0 20        	cpx	#$20
    228e: f0 15        	beq	$22a5 <printf+0xf9>
    2290: 86 15        	stx	$15                     ; 0x2015 <_ZN12_GLOBAL__N_13putEcP6Status+0x50>
    2292: e0 23        	cpx	#$23
    2294: f0 03        	beq	$2299 <printf+0xed>
    2296: 4c 18 23     	jmp	$2318 <printf+0x16c>
    2299: a5 3e        	lda	$3e                     ; 0x203e <_ZN12_GLOBAL__N_13putEcP6Status+0x79>
    229b: a2 04        	ldx	#$4
    229d: 80 02        	bra	$22a1 <printf+0xf5>
    229f: a2 10        	ldx	#$10
    22a1: 86 14        	stx	$14                     ; 0x2014 <_ZN12_GLOBAL__N_13putEcP6Status+0x4f>
    22a3: 80 06        	bra	$22ab <printf+0xff>
    22a5: a2 08        	ldx	#$8
    22a7: 86 14        	stx	$14                     ; 0x2014 <_ZN12_GLOBAL__N_13putEcP6Status+0x4f>
    22a9: a5 3e        	lda	$3e                     ; 0x203e <_ZN12_GLOBAL__N_13putEcP6Status+0x79>
    22ab: 05 14        	ora	$14                     ; 0x2014 <_ZN12_GLOBAL__N_13putEcP6Status+0x4f>
    22ad: 85 3e        	sta	$3e                     ; 0x203e <_ZN12_GLOBAL__N_13putEcP6Status+0x79>
    22af: 85 6e        	sta	$6e                     ; 0x206e <_ZN12_GLOBAL__N_13putEcP6Status+0xa9>
    22b1: a2 00        	ldx	#$0
    22b3: 86 6f        	stx	$6f                     ; 0x206f <_ZN12_GLOBAL__N_13putEcP6Status+0xaa>
    22b5: e6 12        	inc	$12                     ; 0x2012 <_ZN12_GLOBAL__N_13putEcP6Status+0x4d>
    22b7: d0 02        	bne	$22bb <printf+0x10f>
    22b9: e6 13        	inc	$13                     ; 0x2013 <_ZN12_GLOBAL__N_13putEcP6Status+0x4e>
    22bb: b2 12        	lda	($12)                   ; 0x2012 <_ZN12_GLOBAL__N_13putEcP6Status+0x4d>
    22bd: aa           	tax
    22be: 18           	clc
    22bf: 69 d6        	adc	#$d6
    22c1: c9 07        	cmp	#$7
    22c3: b0 c7        	bcs	$228c <printf+0xe0>
    22c5: 86 15        	stx	$15                     ; 0x2015 <_ZN12_GLOBAL__N_13putEcP6Status+0x50>
    22c7: 0a           	asl
    22c8: aa           	tax
    22c9: a0 01        	ldy	#$1
    22cb: 84 14        	sty	$14                     ; 0x2014 <_ZN12_GLOBAL__N_13putEcP6Status+0x4f>
    22cd: a5 3e        	lda	$3e                     ; 0x203e <_ZN12_GLOBAL__N_13putEcP6Status+0x79>
    22cf: 7c 3f 30     	jmp	($303f,x)               ; 0x303f <__set_v+0x1>
    22d2: a5 7e        	lda	$7e                     ; 0x207e <_ZN12_GLOBAL__N_13putEcP6Status+0xb9>
    22d4: a6 7f        	ldx	$7f                     ; 0x207f <_ZN12_GLOBAL__N_13putEcP6Status+0xba>
    22d6: 85 16        	sta	$16                     ; 0x2016 <_ZN12_GLOBAL__N_13putEcP6Status+0x51>
    22d8: 86 17        	stx	$17                     ; 0x2017 <_ZN12_GLOBAL__N_13putEcP6Status+0x52>
    22da: 18           	clc
    22db: 69 02        	adc	#$2
    22dd: a8           	tay
    22de: 8a           	txa
    22df: 69 00        	adc	#$0
    22e1: 84 7e        	sty	$7e                     ; 0x207e <_ZN12_GLOBAL__N_13putEcP6Status+0xb9>
    22e3: 85 7f        	sta	$7f                     ; 0x207f <_ZN12_GLOBAL__N_13putEcP6Status+0xba>
    22e5: b2 16        	lda	($16)                   ; 0x2016 <_ZN12_GLOBAL__N_13putEcP6Status+0x51>
    22e7: 85 15        	sta	$15                     ; 0x2015 <_ZN12_GLOBAL__N_13putEcP6Status+0x50>
    22e9: a0 01        	ldy	#$1
    22eb: b1 16        	lda	($16),y                 ; 0x2016 <_ZN12_GLOBAL__N_13putEcP6Status+0x51>
    22ed: 85 14        	sta	$14                     ; 0x2014 <_ZN12_GLOBAL__N_13putEcP6Status+0x4f>
    22ef: 10 15        	bpl	$2306 <printf+0x15a>
    22f1: a5 3e        	lda	$3e                     ; 0x203e <_ZN12_GLOBAL__N_13putEcP6Status+0x79>
    22f3: 09 01        	ora	#$1
    22f5: 85 3e        	sta	$3e                     ; 0x203e <_ZN12_GLOBAL__N_13putEcP6Status+0x79>
    22f7: 85 6e        	sta	$6e                     ; 0x206e <_ZN12_GLOBAL__N_13putEcP6Status+0xa9>
    22f9: a2 00        	ldx	#$0
    22fb: 86 6f        	stx	$6f                     ; 0x206f <_ZN12_GLOBAL__N_13putEcP6Status+0xaa>
    22fd: 8a           	txa
    22fe: 38           	sec
    22ff: e5 15        	sbc	$15                     ; 0x2015 <_ZN12_GLOBAL__N_13putEcP6Status+0x50>
    2301: 85 15        	sta	$15                     ; 0x2015 <_ZN12_GLOBAL__N_13putEcP6Status+0x50>
    2303: 8a           	txa
    2304: e5 14        	sbc	$14                     ; 0x2014 <_ZN12_GLOBAL__N_13putEcP6Status+0x4f>
    2306: a6 15        	ldx	$15                     ; 0x2015 <_ZN12_GLOBAL__N_13putEcP6Status+0x50>
    2308: 86 78        	stx	$78                     ; 0x2078 <_ZN12_GLOBAL__N_13putEcP6Status+0xb3>
    230a: 85 79        	sta	$79                     ; 0x2079 <_ZN12_GLOBAL__N_13putEcP6Status+0xb4>
    230c: e6 12        	inc	$12                     ; 0x2012 <_ZN12_GLOBAL__N_13putEcP6Status+0x4d>
    230e: f0 03        	beq	$2313 <printf+0x167>
    2310: 4c d7 23     	jmp	$23d7 <printf+0x22b>
    2313: e6 13        	inc	$13                     ; 0x2013 <_ZN12_GLOBAL__N_13putEcP6Status+0x4e>
    2315: 4c d7 23     	jmp	$23d7 <printf+0x22b>
    2318: a5 15        	lda	$15                     ; 0x2015 <_ZN12_GLOBAL__N_13putEcP6Status+0x50>
    231a: 18           	clc
    231b: 69 d0        	adc	#$d0
    231d: c9 0a        	cmp	#$a
    231f: 90 03        	bcc	$2324 <printf+0x178>
    2321: 4c c9 23     	jmp	$23c9 <printf+0x21d>
    2324: a6 15        	ldx	$15                     ; 0x2015 <_ZN12_GLOBAL__N_13putEcP6Status+0x50>
    2326: 86 14        	stx	$14                     ; 0x2014 <_ZN12_GLOBAL__N_13putEcP6Status+0x4f>
    2328: 64 16        	stz	$16                     ; 0x2016 <_ZN12_GLOBAL__N_13putEcP6Status+0x51>
    232a: 64 15        	stz	$15                     ; 0x2015 <_ZN12_GLOBAL__N_13putEcP6Status+0x50>
    232c: 64 17        	stz	$17                     ; 0x2017 <_ZN12_GLOBAL__N_13putEcP6Status+0x52>
    232e: a0 01        	ldy	#$1
    2330: 06 16        	asl	$16                     ; 0x2016 <_ZN12_GLOBAL__N_13putEcP6Status+0x51>
    2332: 26 17        	rol	$17                     ; 0x2017 <_ZN12_GLOBAL__N_13putEcP6Status+0x52>
    2334: a5 16        	lda	$16                     ; 0x2016 <_ZN12_GLOBAL__N_13putEcP6Status+0x51>
    2336: 0a           	asl
    2337: aa           	tax
    2338: a5 17        	lda	$17                     ; 0x2017 <_ZN12_GLOBAL__N_13putEcP6Status+0x52>
    233a: 2a           	rol
    233b: 86 18        	stx	$18                     ; 0x2018 <_ZN12_GLOBAL__N_13putEcP6Status+0x53>
    233d: 06 18        	asl	$18                     ; 0x2018 <_ZN12_GLOBAL__N_13putEcP6Status+0x53>
    233f: 2a           	rol
    2340: aa           	tax
    2341: a5 18        	lda	$18                     ; 0x2018 <_ZN12_GLOBAL__N_13putEcP6Status+0x53>
    2343: 18           	clc
    2344: 65 16        	adc	$16                     ; 0x2016 <_ZN12_GLOBAL__N_13putEcP6Status+0x51>
    2346: 85 16        	sta	$16                     ; 0x2016 <_ZN12_GLOBAL__N_13putEcP6Status+0x51>
    2348: 8a           	txa
    2349: 65 17        	adc	$17                     ; 0x2017 <_ZN12_GLOBAL__N_13putEcP6Status+0x52>
    234b: 85 17        	sta	$17                     ; 0x2017 <_ZN12_GLOBAL__N_13putEcP6Status+0x52>
    234d: a5 16        	lda	$16                     ; 0x2016 <_ZN12_GLOBAL__N_13putEcP6Status+0x51>
    234f: 18           	clc
    2350: 65 14        	adc	$14                     ; 0x2014 <_ZN12_GLOBAL__N_13putEcP6Status+0x4f>
    2352: 85 14        	sta	$14                     ; 0x2014 <_ZN12_GLOBAL__N_13putEcP6Status+0x4f>
    2354: a5 17        	lda	$17                     ; 0x2017 <_ZN12_GLOBAL__N_13putEcP6Status+0x52>
    2356: 65 15        	adc	$15                     ; 0x2015 <_ZN12_GLOBAL__N_13putEcP6Status+0x50>
    2358: aa           	tax
    2359: 18           	clc
    235a: a5 14        	lda	$14                     ; 0x2014 <_ZN12_GLOBAL__N_13putEcP6Status+0x4f>
    235c: 69 d0        	adc	#$d0
    235e: 85 16        	sta	$16                     ; 0x2016 <_ZN12_GLOBAL__N_13putEcP6Status+0x51>
    2360: 8a           	txa
    2361: 69 ff        	adc	#$ff
    2363: 85 17        	sta	$17                     ; 0x2017 <_ZN12_GLOBAL__N_13putEcP6Status+0x52>
    2365: b1 12        	lda	($12),y                 ; 0x2012 <_ZN12_GLOBAL__N_13putEcP6Status+0x4d>
    2367: 85 14        	sta	$14                     ; 0x2014 <_ZN12_GLOBAL__N_13putEcP6Status+0x4f>
    2369: 18           	clc
    236a: 69 d0        	adc	#$d0
    236c: e6 12        	inc	$12                     ; 0x2012 <_ZN12_GLOBAL__N_13putEcP6Status+0x4d>
    236e: d0 02        	bne	$2372 <printf+0x1c6>
    2370: e6 13        	inc	$13                     ; 0x2013 <_ZN12_GLOBAL__N_13putEcP6Status+0x4e>
    2372: c9 0a        	cmp	#$a
    2374: 64 15        	stz	$15                     ; 0x2015 <_ZN12_GLOBAL__N_13putEcP6Status+0x50>
    2376: 90 b8        	bcc	$2330 <printf+0x184>
    2378: 4c cf 23     	jmp	$23cf <printf+0x223>
    237b: 84 13        	sty	$13                     ; 0x2013 <_ZN12_GLOBAL__N_13putEcP6Status+0x4e>
    237d: c5 71        	cmp	$71                     ; 0x2071 <_ZN12_GLOBAL__N_13putEcP6Status+0xac>
    237f: a0 01        	ldy	#$1
    2381: b0 30        	bcs	$23b3 <printf+0x207>
    2383: a6 7d        	ldx	$7d                     ; 0x207d <_ZN12_GLOBAL__N_13putEcP6Status+0xb8>
    2385: e4 42        	cpx	$42                     ; 0x2042 <_ZN12_GLOBAL__N_13putEcP6Status+0x7d>
    2387: d0 19        	bne	$23a2 <printf+0x1f6>
    2389: a6 7c        	ldx	$7c                     ; 0x207c <_ZN12_GLOBAL__N_13putEcP6Status+0xb7>
    238b: e4 41        	cpx	$41                     ; 0x2041 <_ZN12_GLOBAL__N_13putEcP6Status+0x7c>
    238d: d0 13        	bne	$23a2 <printf+0x1f6>
    238f: 18           	clc
    2390: aa           	tax
    2391: a5 13        	lda	$13                     ; 0x2013 <_ZN12_GLOBAL__N_13putEcP6Status+0x4e>
    2393: 65 76        	adc	$76                     ; 0x2076 <_ZN12_GLOBAL__N_13putEcP6Status+0xb1>
    2395: 85 12        	sta	$12                     ; 0x2012 <_ZN12_GLOBAL__N_13putEcP6Status+0x4d>
    2397: 8a           	txa
    2398: 65 77        	adc	$77                     ; 0x2077 <_ZN12_GLOBAL__N_13putEcP6Status+0xb2>
    239a: 85 13        	sta	$13                     ; 0x2013 <_ZN12_GLOBAL__N_13putEcP6Status+0x4e>
    239c: a9 25        	lda	#$25
    239e: 92 12        	sta	($12)                   ; 0x2012 <_ZN12_GLOBAL__N_13putEcP6Status+0x4d>
    23a0: 80 11        	bra	$23b3 <printf+0x207>
    23a2: a2 25        	ldx	#$25
    23a4: 86 33        	stx	$33                     ; 0x2033 <_ZN12_GLOBAL__N_13putEcP6Status+0x6e>
    23a6: a2 33        	ldx	#$33
    23a8: 86 12        	stx	$12                     ; 0x2012 <_ZN12_GLOBAL__N_13putEcP6Status+0x4d>
    23aa: a2 00        	ldx	#$0
    23ac: 86 13        	stx	$13                     ; 0x2013 <_ZN12_GLOBAL__N_13putEcP6Status+0x4e>
    23ae: 20 c0 19     	jsr	$19c0 <textPrint>
    23b1: a0 01        	ldy	#$1
    23b3: e6 72        	inc	$72                     ; 0x2072 <_ZN12_GLOBAL__N_13putEcP6Status+0xad>
    23b5: d0 02        	bne	$23b9 <printf+0x20d>
    23b7: e6 73        	inc	$73                     ; 0x2073 <_ZN12_GLOBAL__N_13putEcP6Status+0xae>
    23b9: a5 43        	lda	$43                     ; 0x2043 <_ZN12_GLOBAL__N_13putEcP6Status+0x7e>
    23bb: 18           	clc
    23bc: 69 02        	adc	#$2
    23be: 85 3f        	sta	$3f                     ; 0x203f <_ZN12_GLOBAL__N_13putEcP6Status+0x7a>
    23c0: a5 44        	lda	$44                     ; 0x2044 <_ZN12_GLOBAL__N_13putEcP6Status+0x7f>
    23c2: 69 00        	adc	#$0
    23c4: 85 40        	sta	$40                     ; 0x2040 <_ZN12_GLOBAL__N_13putEcP6Status+0x7b>
    23c6: 4c 11 22     	jmp	$2211 <printf+0x65>
    23c9: 64 16        	stz	$16                     ; 0x2016 <_ZN12_GLOBAL__N_13putEcP6Status+0x51>
    23cb: 64 17        	stz	$17                     ; 0x2017 <_ZN12_GLOBAL__N_13putEcP6Status+0x52>
    23cd: a0 01        	ldy	#$1
    23cf: a6 16        	ldx	$16                     ; 0x2016 <_ZN12_GLOBAL__N_13putEcP6Status+0x51>
    23d1: 86 78        	stx	$78                     ; 0x2078 <_ZN12_GLOBAL__N_13putEcP6Status+0xb3>
    23d3: a5 17        	lda	$17                     ; 0x2017 <_ZN12_GLOBAL__N_13putEcP6Status+0x52>
    23d5: 85 79        	sta	$79                     ; 0x2079 <_ZN12_GLOBAL__N_13putEcP6Status+0xb4>
    23d7: 86 47        	stx	$47                     ; 0x2047 <_ZN12_GLOBAL__N_13putEcP6Status+0x82>
    23d9: 85 45        	sta	$45                     ; 0x2045 <_ZN12_GLOBAL__N_13putEcP6Status+0x80>
    23db: b2 12        	lda	($12)                   ; 0x2012 <_ZN12_GLOBAL__N_13putEcP6Status+0x4d>
    23dd: a2 ff        	ldx	#$ff
    23df: c9 2e        	cmp	#$2e
    23e1: d0 39        	bne	$241c <printf+0x270>
    23e3: b1 12        	lda	($12),y                 ; 0x2012 <_ZN12_GLOBAL__N_13putEcP6Status+0x4d>
    23e5: c9 2a        	cmp	#$2a
    23e7: d0 38        	bne	$2421 <printf+0x275>
    23e9: a5 7e        	lda	$7e                     ; 0x207e <_ZN12_GLOBAL__N_13putEcP6Status+0xb9>
    23eb: a6 7f        	ldx	$7f                     ; 0x207f <_ZN12_GLOBAL__N_13putEcP6Status+0xba>
    23ed: 85 14        	sta	$14                     ; 0x2014 <_ZN12_GLOBAL__N_13putEcP6Status+0x4f>
    23ef: 86 15        	stx	$15                     ; 0x2015 <_ZN12_GLOBAL__N_13putEcP6Status+0x50>
    23f1: 18           	clc
    23f2: 69 02        	adc	#$2
    23f4: 85 16        	sta	$16                     ; 0x2016 <_ZN12_GLOBAL__N_13putEcP6Status+0x51>
    23f6: 8a           	txa
    23f7: 69 00        	adc	#$0
    23f9: a6 16        	ldx	$16                     ; 0x2016 <_ZN12_GLOBAL__N_13putEcP6Status+0x51>
    23fb: 86 7e        	stx	$7e                     ; 0x207e <_ZN12_GLOBAL__N_13putEcP6Status+0xb9>
    23fd: 85 7f        	sta	$7f                     ; 0x207f <_ZN12_GLOBAL__N_13putEcP6Status+0xba>
    23ff: a5 12        	lda	$12                     ; 0x2012 <_ZN12_GLOBAL__N_13putEcP6Status+0x4d>
    2401: 18           	clc
    2402: 69 02        	adc	#$2
    2404: 85 12        	sta	$12                     ; 0x2012 <_ZN12_GLOBAL__N_13putEcP6Status+0x4d>
    2406: a5 13        	lda	$13                     ; 0x2013 <_ZN12_GLOBAL__N_13putEcP6Status+0x4e>
    2408: 69 00        	adc	#$0
    240a: 85 13        	sta	$13                     ; 0x2013 <_ZN12_GLOBAL__N_13putEcP6Status+0x4e>
    240c: b2 14        	lda	($14)                   ; 0x2014 <_ZN12_GLOBAL__N_13putEcP6Status+0x4f>
    240e: aa           	tax
    240f: b1 14        	lda	($14),y                 ; 0x2014 <_ZN12_GLOBAL__N_13putEcP6Status+0x4f>
    2411: 86 18        	stx	$18                     ; 0x2018 <_ZN12_GLOBAL__N_13putEcP6Status+0x53>
    2413: 86 7a        	stx	$7a                     ; 0x207a <_ZN12_GLOBAL__N_13putEcP6Status+0xb5>
    2415: 85 19        	sta	$19                     ; 0x2019 <_ZN12_GLOBAL__N_13putEcP6Status+0x54>
    2417: 85 7b        	sta	$7b                     ; 0x207b <_ZN12_GLOBAL__N_13putEcP6Status+0xb6>
    2419: 4c cc 24     	jmp	$24cc <printf+0x320>
    241c: 86 18        	stx	$18                     ; 0x2018 <_ZN12_GLOBAL__N_13putEcP6Status+0x53>
    241e: 4c dc 24     	jmp	$24dc <printf+0x330>
    2421: 85 17        	sta	$17                     ; 0x2017 <_ZN12_GLOBAL__N_13putEcP6Status+0x52>
    2423: 18           	clc
    2424: 69 d0        	adc	#$d0
    2426: c9 0a        	cmp	#$a
    2428: 90 03        	bcc	$242d <printf+0x281>
    242a: 4c be 24     	jmp	$24be <printf+0x312>
    242d: 64 16        	stz	$16                     ; 0x2016 <_ZN12_GLOBAL__N_13putEcP6Status+0x51>
    242f: a2 01        	ldx	#$1
    2431: 64 18        	stz	$18                     ; 0x2018 <_ZN12_GLOBAL__N_13putEcP6Status+0x53>
    2433: 64 19        	stz	$19                     ; 0x2019 <_ZN12_GLOBAL__N_13putEcP6Status+0x54>
    2435: a0 01        	ldy	#$1
    2437: 64 1a        	stz	$1a                     ; 0x201a <_ZN12_GLOBAL__N_13putEcP6Status+0x55>
    2439: 5a           	phy
    243a: a4 1a        	ldy	$1a                     ; 0x201a <_ZN12_GLOBAL__N_13putEcP6Status+0x55>
    243c: 84 14        	sty	$14                     ; 0x2014 <_ZN12_GLOBAL__N_13putEcP6Status+0x4f>
    243e: 86 15        	stx	$15                     ; 0x2015 <_ZN12_GLOBAL__N_13putEcP6Status+0x50>
    2440: 06 18        	asl	$18                     ; 0x2018 <_ZN12_GLOBAL__N_13putEcP6Status+0x53>
    2442: 26 19        	rol	$19                     ; 0x2019 <_ZN12_GLOBAL__N_13putEcP6Status+0x54>
    2444: a5 18        	lda	$18                     ; 0x2018 <_ZN12_GLOBAL__N_13putEcP6Status+0x53>
    2446: 0a           	asl
    2447: 85 1d        	sta	$1d                     ; 0x201d <_ZN12_GLOBAL__N_13putEcP6Status+0x58>
    2449: a5 19        	lda	$19                     ; 0x2019 <_ZN12_GLOBAL__N_13putEcP6Status+0x54>
    244b: 2a           	rol
    244c: 06 1d        	asl	$1d                     ; 0x201d <_ZN12_GLOBAL__N_13putEcP6Status+0x58>
    244e: 2a           	rol
    244f: 85 1e        	sta	$1e                     ; 0x201e <_ZN12_GLOBAL__N_13putEcP6Status+0x59>
    2451: a5 1d        	lda	$1d                     ; 0x201d <_ZN12_GLOBAL__N_13putEcP6Status+0x58>
    2453: 18           	clc
    2454: 65 18        	adc	$18                     ; 0x2018 <_ZN12_GLOBAL__N_13putEcP6Status+0x53>
    2456: 85 18        	sta	$18                     ; 0x2018 <_ZN12_GLOBAL__N_13putEcP6Status+0x53>
    2458: a5 1e        	lda	$1e                     ; 0x201e <_ZN12_GLOBAL__N_13putEcP6Status+0x59>
    245a: 65 19        	adc	$19                     ; 0x2019 <_ZN12_GLOBAL__N_13putEcP6Status+0x54>
    245c: 85 19        	sta	$19                     ; 0x2019 <_ZN12_GLOBAL__N_13putEcP6Status+0x54>
    245e: a5 18        	lda	$18                     ; 0x2018 <_ZN12_GLOBAL__N_13putEcP6Status+0x53>
    2460: 18           	clc
    2461: 65 17        	adc	$17                     ; 0x2017 <_ZN12_GLOBAL__N_13putEcP6Status+0x52>
    2463: 85 17        	sta	$17                     ; 0x2017 <_ZN12_GLOBAL__N_13putEcP6Status+0x52>
    2465: a5 19        	lda	$19                     ; 0x2019 <_ZN12_GLOBAL__N_13putEcP6Status+0x54>
    2467: 65 16        	adc	$16                     ; 0x2016 <_ZN12_GLOBAL__N_13putEcP6Status+0x51>
    2469: 85 16        	sta	$16                     ; 0x2016 <_ZN12_GLOBAL__N_13putEcP6Status+0x51>
    246b: 18           	clc
    246c: a5 17        	lda	$17                     ; 0x2017 <_ZN12_GLOBAL__N_13putEcP6Status+0x52>
    246e: 69 d0        	adc	#$d0
    2470: 85 18        	sta	$18                     ; 0x2018 <_ZN12_GLOBAL__N_13putEcP6Status+0x53>
    2472: a5 16        	lda	$16                     ; 0x2016 <_ZN12_GLOBAL__N_13putEcP6Status+0x51>
    2474: 69 ff        	adc	#$ff
    2476: 85 19        	sta	$19                     ; 0x2019 <_ZN12_GLOBAL__N_13putEcP6Status+0x54>
    2478: e8           	inx
    2479: d0 02        	bne	$247d <printf+0x2d1>
    247b: e6 1a        	inc	$1a                     ; 0x201a <_ZN12_GLOBAL__N_13putEcP6Status+0x55>
    247d: a5 12        	lda	$12                     ; 0x2012 <_ZN12_GLOBAL__N_13putEcP6Status+0x4d>
    247f: 18           	clc
    2480: 65 15        	adc	$15                     ; 0x2015 <_ZN12_GLOBAL__N_13putEcP6Status+0x50>
    2482: 85 1d        	sta	$1d                     ; 0x201d <_ZN12_GLOBAL__N_13putEcP6Status+0x58>
    2484: a5 13        	lda	$13                     ; 0x2013 <_ZN12_GLOBAL__N_13putEcP6Status+0x4e>
    2486: 65 14        	adc	$14                     ; 0x2014 <_ZN12_GLOBAL__N_13putEcP6Status+0x4f>
    2488: a4 1d        	ldy	$1d                     ; 0x201d <_ZN12_GLOBAL__N_13putEcP6Status+0x58>
    248a: 84 16        	sty	$16                     ; 0x2016 <_ZN12_GLOBAL__N_13putEcP6Status+0x51>
    248c: 7a           	ply
    248d: 85 17        	sta	$17                     ; 0x2017 <_ZN12_GLOBAL__N_13putEcP6Status+0x52>
    248f: b1 16        	lda	($16),y                 ; 0x2016 <_ZN12_GLOBAL__N_13putEcP6Status+0x51>
    2491: 85 17        	sta	$17                     ; 0x2017 <_ZN12_GLOBAL__N_13putEcP6Status+0x52>
    2493: 18           	clc
    2494: 69 d0        	adc	#$d0
    2496: c9 0a        	cmp	#$a
    2498: 64 16        	stz	$16                     ; 0x2016 <_ZN12_GLOBAL__N_13putEcP6Status+0x51>
    249a: b0 03        	bcs	$249f <printf+0x2f3>
    249c: 4c 39 24     	jmp	$2439 <printf+0x28d>
    249f: a5 12        	lda	$12                     ; 0x2012 <_ZN12_GLOBAL__N_13putEcP6Status+0x4d>
    24a1: 18           	clc
    24a2: 65 15        	adc	$15                     ; 0x2015 <_ZN12_GLOBAL__N_13putEcP6Status+0x50>
    24a4: 85 12        	sta	$12                     ; 0x2012 <_ZN12_GLOBAL__N_13putEcP6Status+0x4d>
    24a6: a5 13        	lda	$13                     ; 0x2013 <_ZN12_GLOBAL__N_13putEcP6Status+0x4e>
    24a8: 65 14        	adc	$14                     ; 0x2014 <_ZN12_GLOBAL__N_13putEcP6Status+0x4f>
    24aa: 85 13        	sta	$13                     ; 0x2013 <_ZN12_GLOBAL__N_13putEcP6Status+0x4e>
    24ac: e6 12        	inc	$12                     ; 0x2012 <_ZN12_GLOBAL__N_13putEcP6Status+0x4d>
    24ae: d0 02        	bne	$24b2 <printf+0x306>
    24b0: e6 13        	inc	$13                     ; 0x2013 <_ZN12_GLOBAL__N_13putEcP6Status+0x4e>
    24b2: a6 18        	ldx	$18                     ; 0x2018 <_ZN12_GLOBAL__N_13putEcP6Status+0x53>
    24b4: 86 7a        	stx	$7a                     ; 0x207a <_ZN12_GLOBAL__N_13putEcP6Status+0xb5>
    24b6: a6 19        	ldx	$19                     ; 0x2019 <_ZN12_GLOBAL__N_13putEcP6Status+0x54>
    24b8: 86 7b        	stx	$7b                     ; 0x207b <_ZN12_GLOBAL__N_13putEcP6Status+0xb6>
    24ba: a0 01        	ldy	#$1
    24bc: 80 0e        	bra	$24cc <printf+0x320>
    24be: e6 12        	inc	$12                     ; 0x2012 <_ZN12_GLOBAL__N_13putEcP6Status+0x4d>
    24c0: d0 02        	bne	$24c4 <printf+0x318>
    24c2: e6 13        	inc	$13                     ; 0x2013 <_ZN12_GLOBAL__N_13putEcP6Status+0x4e>
    24c4: 64 18        	stz	$18                     ; 0x2018 <_ZN12_GLOBAL__N_13putEcP6Status+0x53>
    24c6: 64 7a        	stz	$7a                     ; 0x207a <_ZN12_GLOBAL__N_13putEcP6Status+0xb5>
    24c8: 64 7b        	stz	$7b                     ; 0x207b <_ZN12_GLOBAL__N_13putEcP6Status+0xb6>
    24ca: 64 19        	stz	$19                     ; 0x2019 <_ZN12_GLOBAL__N_13putEcP6Status+0x54>
    24cc: a5 3e        	lda	$3e                     ; 0x203e <_ZN12_GLOBAL__N_13putEcP6Status+0x79>
    24ce: 29 ef        	and	#$ef
    24d0: 85 3e        	sta	$3e                     ; 0x203e <_ZN12_GLOBAL__N_13putEcP6Status+0x79>
    24d2: 85 6e        	sta	$6e                     ; 0x206e <_ZN12_GLOBAL__N_13putEcP6Status+0xa9>
    24d4: a2 00        	ldx	#$0
    24d6: 86 6f        	stx	$6f                     ; 0x206f <_ZN12_GLOBAL__N_13putEcP6Status+0xaa>
    24d8: b2 12        	lda	($12)                   ; 0x2012 <_ZN12_GLOBAL__N_13putEcP6Status+0x4d>
    24da: a6 19        	ldx	$19                     ; 0x2019 <_ZN12_GLOBAL__N_13putEcP6Status+0x54>
    24dc: 86 15        	stx	$15                     ; 0x2015 <_ZN12_GLOBAL__N_13putEcP6Status+0x50>
    24de: a6 12        	ldx	$12                     ; 0x2012 <_ZN12_GLOBAL__N_13putEcP6Status+0x4d>
    24e0: 86 3f        	stx	$3f                     ; 0x203f <_ZN12_GLOBAL__N_13putEcP6Status+0x7a>
    24e2: a6 13        	ldx	$13                     ; 0x2013 <_ZN12_GLOBAL__N_13putEcP6Status+0x4e>
    24e4: 86 40        	stx	$40                     ; 0x2040 <_ZN12_GLOBAL__N_13putEcP6Status+0x7b>
    24e6: e6 3f        	inc	$3f                     ; 0x203f <_ZN12_GLOBAL__N_13putEcP6Status+0x7a>
    24e8: d0 02        	bne	$24ec <printf+0x340>
    24ea: e6 40        	inc	$40                     ; 0x2040 <_ZN12_GLOBAL__N_13putEcP6Status+0x7b>
    24ec: 85 14        	sta	$14                     ; 0x2014 <_ZN12_GLOBAL__N_13putEcP6Status+0x4f>
    24ee: 38           	sec
    24ef: e9 6c        	sbc	#$6c
    24f1: 50 02        	bvc	$24f5 <printf+0x349>
    24f3: 49 80        	eor	#$80
    24f5: aa           	tax
    24f6: 10 1d        	bpl	$2515 <printf+0x369>
    24f8: a5 14        	lda	$14                     ; 0x2014 <_ZN12_GLOBAL__N_13putEcP6Status+0x4f>
    24fa: c9 4c        	cmp	#$4c
    24fc: f0 27        	beq	$2525 <printf+0x379>
    24fe: c9 68        	cmp	#$68
    2500: d0 03        	bne	$2505 <printf+0x359>
    2502: 4c 8c 25     	jmp	$258c <printf+0x3e0>
    2505: a2 08        	ldx	#$8
    2507: c9 6a        	cmp	#$6a
    2509: d0 2e        	bne	$2539 <printf+0x38d>
    250b: a5 3f        	lda	$3f                     ; 0x203f <_ZN12_GLOBAL__N_13putEcP6Status+0x7a>
    250d: 85 12        	sta	$12                     ; 0x2012 <_ZN12_GLOBAL__N_13putEcP6Status+0x4d>
    250f: a5 40        	lda	$40                     ; 0x2040 <_ZN12_GLOBAL__N_13putEcP6Status+0x7b>
    2511: 85 13        	sta	$13                     ; 0x2013 <_ZN12_GLOBAL__N_13putEcP6Status+0x4e>
    2513: 80 43        	bra	$2558 <printf+0x3ac>
    2515: a6 14        	ldx	$14                     ; 0x2014 <_ZN12_GLOBAL__N_13putEcP6Status+0x4f>
    2517: e0 6c        	cpx	#$6c
    2519: f0 23        	beq	$253e <printf+0x392>
    251b: e0 74        	cpx	#$74
    251d: f0 12        	beq	$2531 <printf+0x385>
    251f: e0 7a        	cpx	#$7a
    2521: f0 0e        	beq	$2531 <printf+0x385>
    2523: 80 14        	bra	$2539 <printf+0x38d>
    2525: a5 3e        	lda	$3e                     ; 0x203e <_ZN12_GLOBAL__N_13putEcP6Status+0x79>
    2527: 09 40        	ora	#$40
    2529: 85 3e        	sta	$3e                     ; 0x203e <_ZN12_GLOBAL__N_13putEcP6Status+0x79>
    252b: 85 6e        	sta	$6e                     ; 0x206e <_ZN12_GLOBAL__N_13putEcP6Status+0xa9>
    252d: a2 00        	ldx	#$0
    252f: 86 6f        	stx	$6f                     ; 0x206f <_ZN12_GLOBAL__N_13putEcP6Status+0xaa>
    2531: a6 3f        	ldx	$3f                     ; 0x203f <_ZN12_GLOBAL__N_13putEcP6Status+0x7a>
    2533: 86 12        	stx	$12                     ; 0x2012 <_ZN12_GLOBAL__N_13putEcP6Status+0x4d>
    2535: a6 40        	ldx	$40                     ; 0x2040 <_ZN12_GLOBAL__N_13putEcP6Status+0x7b>
    2537: 86 13        	stx	$13                     ; 0x2013 <_ZN12_GLOBAL__N_13putEcP6Status+0x4e>
    2539: a2 02        	ldx	#$2
    253b: 8a           	txa
    253c: 80 1c        	bra	$255a <printf+0x3ae>
    253e: b1 12        	lda	($12),y                 ; 0x2012 <_ZN12_GLOBAL__N_13putEcP6Status+0x4d>
    2540: a2 04        	ldx	#$4
    2542: c9 6c        	cmp	#$6c
    2544: f0 03        	beq	$2549 <printf+0x39d>
    2546: 4c 9b 28     	jmp	$289b <printf+0x6ef>
    2549: a5 12        	lda	$12                     ; 0x2012 <_ZN12_GLOBAL__N_13putEcP6Status+0x4d>
    254b: 18           	clc
    254c: 69 02        	adc	#$2
    254e: 85 12        	sta	$12                     ; 0x2012 <_ZN12_GLOBAL__N_13putEcP6Status+0x4d>
    2550: a5 13        	lda	$13                     ; 0x2013 <_ZN12_GLOBAL__N_13putEcP6Status+0x4e>
    2552: 69 00        	adc	#$0
    2554: 85 13        	sta	$13                     ; 0x2013 <_ZN12_GLOBAL__N_13putEcP6Status+0x4e>
    2556: a2 08        	ldx	#$8
    2558: a9 08        	lda	#$8
    255a: 85 83        	sta	$83                     ; 0x2083 <_ZN12_GLOBAL__N_13putEcP6Status+0xbe>
    255c: b2 12        	lda	($12)                   ; 0x2012 <_ZN12_GLOBAL__N_13putEcP6Status+0x4d>
    255e: 5a           	phy
    255f: a4 12        	ldy	$12                     ; 0x2012 <_ZN12_GLOBAL__N_13putEcP6Status+0x4d>
    2561: 84 3f        	sty	$3f                     ; 0x203f <_ZN12_GLOBAL__N_13putEcP6Status+0x7a>
    2563: a4 13        	ldy	$13                     ; 0x2013 <_ZN12_GLOBAL__N_13putEcP6Status+0x4e>
    2565: 84 40        	sty	$40                     ; 0x2040 <_ZN12_GLOBAL__N_13putEcP6Status+0x7b>
    2567: 7a           	ply
    2568: 86 41        	stx	$41                     ; 0x2041 <_ZN12_GLOBAL__N_13putEcP6Status+0x7c>
    256a: aa           	tax
    256b: 18           	clc
    256c: 69 9d        	adc	#$9d
    256e: c9 16        	cmp	#$16
    2570: b0 39        	bcs	$25ab <printf+0x3ff>
    2572: 0a           	asl
    2573: aa           	tax
    2574: 7c 4d 30     	jmp	($304d,x)               ; 0x304d <__set_v+0xf>
    2577: a6 15        	ldx	$15                     ; 0x2015 <_ZN12_GLOBAL__N_13putEcP6Status+0x50>
    2579: 86 86        	stx	$86                     ; 0x2086 <_ZN12_GLOBAL__N_13putEcP6Status+0xc1>
    257b: a6 18        	ldx	$18                     ; 0x2018 <_ZN12_GLOBAL__N_13putEcP6Status+0x53>
    257d: 86 87        	stx	$87                     ; 0x2087 <_ZN12_GLOBAL__N_13putEcP6Status+0xc2>
    257f: a0 0a        	ldy	#$a
    2581: a2 0a        	ldx	#$a
    2583: 86 82        	stx	$82                     ; 0x2082 <_ZN12_GLOBAL__N_13putEcP6Status+0xbd>
    2585: 84 6d        	sty	$6d                     ; 0x206d <_ZN12_GLOBAL__N_13putEcP6Status+0xa8>
    2587: 64 48        	stz	$48                     ; 0x2048 <_ZN12_GLOBAL__N_13putEcP6Status+0x83>
    2589: 4c ab 26     	jmp	$26ab <printf+0x4ff>
    258c: b1 12        	lda	($12),y                 ; 0x2012 <_ZN12_GLOBAL__N_13putEcP6Status+0x4d>
    258e: a2 02        	ldx	#$2
    2590: c9 68        	cmp	#$68
    2592: f0 03        	beq	$2597 <printf+0x3eb>
    2594: 4c a1 28     	jmp	$28a1 <printf+0x6f5>
    2597: a5 12        	lda	$12                     ; 0x2012 <_ZN12_GLOBAL__N_13putEcP6Status+0x4d>
    2599: 18           	clc
    259a: 69 02        	adc	#$2
    259c: 85 12        	sta	$12                     ; 0x2012 <_ZN12_GLOBAL__N_13putEcP6Status+0x4d>
    259e: a5 13        	lda	$13                     ; 0x2013 <_ZN12_GLOBAL__N_13putEcP6Status+0x4e>
    25a0: 69 00        	adc	#$0
    25a2: 85 13        	sta	$13                     ; 0x2013 <_ZN12_GLOBAL__N_13putEcP6Status+0x4e>
    25a4: a2 01        	ldx	#$1
    25a6: 86 83        	stx	$83                     ; 0x2083 <_ZN12_GLOBAL__N_13putEcP6Status+0xbe>
    25a8: e8           	inx
    25a9: 80 b1        	bra	$255c <printf+0x3b0>
    25ab: e0 58        	cpx	#$58
    25ad: f0 03        	beq	$25b2 <printf+0x406>
    25af: 4c 93 2d     	jmp	$2d93 <printf+0xbe7>
    25b2: a6 15        	ldx	$15                     ; 0x2015 <_ZN12_GLOBAL__N_13putEcP6Status+0x50>
    25b4: 86 86        	stx	$86                     ; 0x2086 <_ZN12_GLOBAL__N_13putEcP6Status+0xc1>
    25b6: a6 18        	ldx	$18                     ; 0x2018 <_ZN12_GLOBAL__N_13putEcP6Status+0x53>
    25b8: 86 87        	stx	$87                     ; 0x2087 <_ZN12_GLOBAL__N_13putEcP6Status+0xc2>
    25ba: a2 10        	ldx	#$10
    25bc: 86 6d        	stx	$6d                     ; 0x206d <_ZN12_GLOBAL__N_13putEcP6Status+0xa8>
    25be: a9 00        	lda	#$0
    25c0: 09 01        	ora	#$1
    25c2: a6 3e        	ldx	$3e                     ; 0x203e <_ZN12_GLOBAL__N_13putEcP6Status+0x79>
    25c4: 80 29        	bra	$25ef <printf+0x443>
    25c6: a6 15        	ldx	$15                     ; 0x2015 <_ZN12_GLOBAL__N_13putEcP6Status+0x50>
    25c8: 86 86        	stx	$86                     ; 0x2086 <_ZN12_GLOBAL__N_13putEcP6Status+0xc1>
    25ca: a6 18        	ldx	$18                     ; 0x2018 <_ZN12_GLOBAL__N_13putEcP6Status+0x53>
    25cc: 86 87        	stx	$87                     ; 0x2087 <_ZN12_GLOBAL__N_13putEcP6Status+0xc2>
    25ce: a2 10        	ldx	#$10
    25d0: 86 6d        	stx	$6d                     ; 0x206d <_ZN12_GLOBAL__N_13putEcP6Status+0xa8>
    25d2: a5 3e        	lda	$3e                     ; 0x203e <_ZN12_GLOBAL__N_13putEcP6Status+0x79>
    25d4: 09 84        	ora	#$84
    25d6: 80 10        	bra	$25e8 <printf+0x43c>
    25d8: a6 15        	ldx	$15                     ; 0x2015 <_ZN12_GLOBAL__N_13putEcP6Status+0x50>
    25da: 86 86        	stx	$86                     ; 0x2086 <_ZN12_GLOBAL__N_13putEcP6Status+0xc1>
    25dc: a6 18        	ldx	$18                     ; 0x2018 <_ZN12_GLOBAL__N_13putEcP6Status+0x53>
    25de: 86 87        	stx	$87                     ; 0x2087 <_ZN12_GLOBAL__N_13putEcP6Status+0xc2>
    25e0: a2 10        	ldx	#$10
    25e2: 86 6d        	stx	$6d                     ; 0x206d <_ZN12_GLOBAL__N_13putEcP6Status+0xa8>
    25e4: a5 3e        	lda	$3e                     ; 0x203e <_ZN12_GLOBAL__N_13putEcP6Status+0x79>
    25e6: 09 80        	ora	#$80
    25e8: aa           	tax
    25e9: a9 00        	lda	#$0
    25eb: 09 01        	ora	#$1
    25ed: 86 3e        	stx	$3e                     ; 0x203e <_ZN12_GLOBAL__N_13putEcP6Status+0x79>
    25ef: 86 6e        	stx	$6e                     ; 0x206e <_ZN12_GLOBAL__N_13putEcP6Status+0xa9>
    25f1: 85 48        	sta	$48                     ; 0x2048 <_ZN12_GLOBAL__N_13putEcP6Status+0x83>
    25f3: 85 6f        	sta	$6f                     ; 0x206f <_ZN12_GLOBAL__N_13putEcP6Status+0xaa>
    25f5: a2 10        	ldx	#$10
    25f7: 86 82        	stx	$82                     ; 0x2082 <_ZN12_GLOBAL__N_13putEcP6Status+0xbd>
    25f9: 4c ab 26     	jmp	$26ab <printf+0x4ff>
    25fc: a5 7e        	lda	$7e                     ; 0x207e <_ZN12_GLOBAL__N_13putEcP6Status+0xb9>
    25fe: a6 7f        	ldx	$7f                     ; 0x207f <_ZN12_GLOBAL__N_13putEcP6Status+0xba>
    2600: 85 12        	sta	$12                     ; 0x2012 <_ZN12_GLOBAL__N_13putEcP6Status+0x4d>
    2602: 86 13        	stx	$13                     ; 0x2013 <_ZN12_GLOBAL__N_13putEcP6Status+0x4e>
    2604: 18           	clc
    2605: 69 02        	adc	#$2
    2607: 85 14        	sta	$14                     ; 0x2014 <_ZN12_GLOBAL__N_13putEcP6Status+0x4f>
    2609: 8a           	txa
    260a: 69 00        	adc	#$0
    260c: a6 14        	ldx	$14                     ; 0x2014 <_ZN12_GLOBAL__N_13putEcP6Status+0x4f>
    260e: 86 7e        	stx	$7e                     ; 0x207e <_ZN12_GLOBAL__N_13putEcP6Status+0xb9>
    2610: 85 7f        	sta	$7f                     ; 0x207f <_ZN12_GLOBAL__N_13putEcP6Status+0xba>
    2612: b2 12        	lda	($12)                   ; 0x2012 <_ZN12_GLOBAL__N_13putEcP6Status+0x4d>
    2614: aa           	tax
    2615: b1 12        	lda	($12),y                 ; 0x2012 <_ZN12_GLOBAL__N_13putEcP6Status+0x4d>
    2617: 86 12        	stx	$12                     ; 0x2012 <_ZN12_GLOBAL__N_13putEcP6Status+0x4d>
    2619: 85 13        	sta	$13                     ; 0x2013 <_ZN12_GLOBAL__N_13putEcP6Status+0x4e>
    261b: a5 72        	lda	$72                     ; 0x2072 <_ZN12_GLOBAL__N_13putEcP6Status+0xad>
    261d: a6 73        	ldx	$73                     ; 0x2073 <_ZN12_GLOBAL__N_13putEcP6Status+0xae>
    261f: 92 12        	sta	($12)                   ; 0x2012 <_ZN12_GLOBAL__N_13putEcP6Status+0x4d>
    2621: 8a           	txa
    2622: 91 12        	sta	($12),y                 ; 0x2012 <_ZN12_GLOBAL__N_13putEcP6Status+0x4d>
    2624: 4c 84 26     	jmp	$2684 <printf+0x4d8>
    2627: a5 7e        	lda	$7e                     ; 0x207e <_ZN12_GLOBAL__N_13putEcP6Status+0xb9>
    2629: a6 7f        	ldx	$7f                     ; 0x207f <_ZN12_GLOBAL__N_13putEcP6Status+0xba>
    262b: 85 12        	sta	$12                     ; 0x2012 <_ZN12_GLOBAL__N_13putEcP6Status+0x4d>
    262d: 86 13        	stx	$13                     ; 0x2013 <_ZN12_GLOBAL__N_13putEcP6Status+0x4e>
    262f: 18           	clc
    2630: 69 02        	adc	#$2
    2632: 85 14        	sta	$14                     ; 0x2014 <_ZN12_GLOBAL__N_13putEcP6Status+0x4f>
    2634: 8a           	txa
    2635: 69 00        	adc	#$0
    2637: a6 14        	ldx	$14                     ; 0x2014 <_ZN12_GLOBAL__N_13putEcP6Status+0x4f>
    2639: 86 7e        	stx	$7e                     ; 0x207e <_ZN12_GLOBAL__N_13putEcP6Status+0xb9>
    263b: 85 7f        	sta	$7f                     ; 0x207f <_ZN12_GLOBAL__N_13putEcP6Status+0xba>
    263d: b2 12        	lda	($12)                   ; 0x2012 <_ZN12_GLOBAL__N_13putEcP6Status+0x4d>
    263f: aa           	tax
    2640: b1 12        	lda	($12),y                 ; 0x2012 <_ZN12_GLOBAL__N_13putEcP6Status+0x4d>
    2642: 86 12        	stx	$12                     ; 0x2012 <_ZN12_GLOBAL__N_13putEcP6Status+0x4d>
    2644: 85 13        	sta	$13                     ; 0x2013 <_ZN12_GLOBAL__N_13putEcP6Status+0x4e>
    2646: 80 2f        	bra	$2677 <printf+0x4cb>
    2648: a6 15        	ldx	$15                     ; 0x2015 <_ZN12_GLOBAL__N_13putEcP6Status+0x50>
    264a: 86 86        	stx	$86                     ; 0x2086 <_ZN12_GLOBAL__N_13putEcP6Status+0xc1>
    264c: a6 18        	ldx	$18                     ; 0x2018 <_ZN12_GLOBAL__N_13putEcP6Status+0x53>
    264e: 86 87        	stx	$87                     ; 0x2087 <_ZN12_GLOBAL__N_13putEcP6Status+0xc2>
    2650: a0 08        	ldy	#$8
    2652: a2 08        	ldx	#$8
    2654: 80 45        	bra	$269b <printf+0x4ef>
    2656: a5 7e        	lda	$7e                     ; 0x207e <_ZN12_GLOBAL__N_13putEcP6Status+0xb9>
    2658: a6 7f        	ldx	$7f                     ; 0x207f <_ZN12_GLOBAL__N_13putEcP6Status+0xba>
    265a: 85 12        	sta	$12                     ; 0x2012 <_ZN12_GLOBAL__N_13putEcP6Status+0x4d>
    265c: 86 13        	stx	$13                     ; 0x2013 <_ZN12_GLOBAL__N_13putEcP6Status+0x4e>
    265e: 18           	clc
    265f: 69 02        	adc	#$2
    2661: a8           	tay
    2662: 8a           	txa
    2663: 69 00        	adc	#$0
    2665: 84 7e        	sty	$7e                     ; 0x207e <_ZN12_GLOBAL__N_13putEcP6Status+0xb9>
    2667: 85 7f        	sta	$7f                     ; 0x207f <_ZN12_GLOBAL__N_13putEcP6Status+0xba>
    2669: b2 12        	lda	($12)                   ; 0x2012 <_ZN12_GLOBAL__N_13putEcP6Status+0x4d>
    266b: 85 60        	sta	$60                     ; 0x2060 <_ZN12_GLOBAL__N_13putEcP6Status+0x9b>
    266d: 64 61        	stz	$61                     ; 0x2061 <_ZN12_GLOBAL__N_13putEcP6Status+0x9c>
    266f: a2 60        	ldx	#$60
    2671: 86 12        	stx	$12                     ; 0x2012 <_ZN12_GLOBAL__N_13putEcP6Status+0x4d>
    2673: a2 00        	ldx	#$0
    2675: 86 13        	stx	$13                     ; 0x2013 <_ZN12_GLOBAL__N_13putEcP6Status+0x4e>
    2677: a2 6d        	ldx	#$6d
    2679: 86 14        	stx	$14                     ; 0x2014 <_ZN12_GLOBAL__N_13putEcP6Status+0x4f>
    267b: a2 00        	ldx	#$0
    267d: 86 15        	stx	$15                     ; 0x2015 <_ZN12_GLOBAL__N_13putEcP6Status+0x50>
    267f: 20 a0 20     	jsr	$20a0 <_ZN12_GLOBAL__N_112print_stringEPKcP6Status>
    2682: a0 01        	ldy	#$1
    2684: a2 00        	ldx	#$0
    2686: 86 41        	stx	$41                     ; 0x2041 <_ZN12_GLOBAL__N_13putEcP6Status+0x7c>
    2688: a2 00        	ldx	#$0
    268a: 86 42        	stx	$42                     ; 0x2042 <_ZN12_GLOBAL__N_13putEcP6Status+0x7d>
    268c: 4c 7b 2d     	jmp	$2d7b <printf+0xbcf>
    268f: a6 15        	ldx	$15                     ; 0x2015 <_ZN12_GLOBAL__N_13putEcP6Status+0x50>
    2691: 86 86        	stx	$86                     ; 0x2086 <_ZN12_GLOBAL__N_13putEcP6Status+0xc1>
    2693: a6 18        	ldx	$18                     ; 0x2018 <_ZN12_GLOBAL__N_13putEcP6Status+0x53>
    2695: 86 87        	stx	$87                     ; 0x2087 <_ZN12_GLOBAL__N_13putEcP6Status+0xc2>
    2697: a0 0a        	ldy	#$a
    2699: a2 0a        	ldx	#$a
    269b: 86 82        	stx	$82                     ; 0x2082 <_ZN12_GLOBAL__N_13putEcP6Status+0xbd>
    269d: 84 6d        	sty	$6d                     ; 0x206d <_ZN12_GLOBAL__N_13putEcP6Status+0xa8>
    269f: a9 00        	lda	#$0
    26a1: 09 01        	ora	#$1
    26a3: a6 3e        	ldx	$3e                     ; 0x203e <_ZN12_GLOBAL__N_13putEcP6Status+0x79>
    26a5: 86 6e        	stx	$6e                     ; 0x206e <_ZN12_GLOBAL__N_13putEcP6Status+0xa9>
    26a7: 85 48        	sta	$48                     ; 0x2048 <_ZN12_GLOBAL__N_13putEcP6Status+0x83>
    26a9: 85 6f        	sta	$6f                     ; 0x206f <_ZN12_GLOBAL__N_13putEcP6Status+0xaa>
    26ab: a5 83        	lda	$83                     ; 0x2083 <_ZN12_GLOBAL__N_13putEcP6Status+0xbe>
    26ad: 85 62        	sta	$62                     ; 0x2062 <_ZN12_GLOBAL__N_13putEcP6Status+0x9d>
    26af: a4 7e        	ldy	$7e                     ; 0x207e <_ZN12_GLOBAL__N_13putEcP6Status+0xb9>
    26b1: a6 7f        	ldx	$7f                     ; 0x207f <_ZN12_GLOBAL__N_13putEcP6Status+0xba>
    26b3: 86 46        	stx	$46                     ; 0x2046 <_ZN12_GLOBAL__N_13putEcP6Status+0x81>
    26b5: 84 14        	sty	$14                     ; 0x2014 <_ZN12_GLOBAL__N_13putEcP6Status+0x4f>
    26b7: 84 3d        	sty	$3d                     ; 0x203d <_ZN12_GLOBAL__N_13putEcP6Status+0x78>
    26b9: 86 15        	stx	$15                     ; 0x2015 <_ZN12_GLOBAL__N_13putEcP6Status+0x50>
    26bb: a6 84        	ldx	$84                     ; 0x2084 <_ZN12_GLOBAL__N_13putEcP6Status+0xbf>
    26bd: 86 12        	stx	$12                     ; 0x2012 <_ZN12_GLOBAL__N_13putEcP6Status+0x4d>
    26bf: a6 85        	ldx	$85                     ; 0x2085 <_ZN12_GLOBAL__N_13putEcP6Status+0xc0>
    26c1: 86 13        	stx	$13                     ; 0x2013 <_ZN12_GLOBAL__N_13putEcP6Status+0x4e>
    26c3: a2 00        	ldx	#$0
    26c5: 85 42        	sta	$42                     ; 0x2042 <_ZN12_GLOBAL__N_13putEcP6Status+0x7d>
    26c7: 20 f2 2f     	jsr	$2ff2 <memcpy>
    26ca: 18           	clc
    26cb: a5 3d        	lda	$3d                     ; 0x203d <_ZN12_GLOBAL__N_13putEcP6Status+0x78>
    26cd: 65 41        	adc	$41                     ; 0x2041 <_ZN12_GLOBAL__N_13putEcP6Status+0x7c>
    26cf: aa           	tax
    26d0: a5 46        	lda	$46                     ; 0x2046 <_ZN12_GLOBAL__N_13putEcP6Status+0x81>
    26d2: 69 00        	adc	#$0
    26d4: 86 7e        	stx	$7e                     ; 0x207e <_ZN12_GLOBAL__N_13putEcP6Status+0xb9>
    26d6: 85 7f        	sta	$7f                     ; 0x207f <_ZN12_GLOBAL__N_13putEcP6Status+0xba>
    26d8: a5 48        	lda	$48                     ; 0x2048 <_ZN12_GLOBAL__N_13putEcP6Status+0x83>
    26da: 29 01        	and	#$1
    26dc: b8           	clv
    26dd: f0 03        	beq	$26e2 <printf+0x536>
    26df: 4c 36 27     	jmp	$2736 <printf+0x58a>
    26e2: a6 42        	ldx	$42                     ; 0x2042 <_ZN12_GLOBAL__N_13putEcP6Status+0x7d>
    26e4: b5 62        	lda	$62,x                   ; 0x2062 <_ZN12_GLOBAL__N_13putEcP6Status+0x9d>
    26e6: aa           	tax
    26e7: a0 01        	ldy	#$1
    26e9: a5 45        	lda	$45                     ; 0x2045 <_ZN12_GLOBAL__N_13putEcP6Status+0x80>
    26eb: 85 1a        	sta	$1a                     ; 0x201a <_ZN12_GLOBAL__N_13putEcP6Status+0x55>
    26ed: a5 87        	lda	$87                     ; 0x2087 <_ZN12_GLOBAL__N_13putEcP6Status+0xc2>
    26ef: 85 45        	sta	$45                     ; 0x2045 <_ZN12_GLOBAL__N_13putEcP6Status+0x80>
    26f1: a9 00        	lda	#$0
    26f3: 85 41        	sta	$41                     ; 0x2041 <_ZN12_GLOBAL__N_13putEcP6Status+0x7c>
    26f5: a9 00        	lda	#$0
    26f7: 85 42        	sta	$42                     ; 0x2042 <_ZN12_GLOBAL__N_13putEcP6Status+0x7d>
    26f9: a5 86        	lda	$86                     ; 0x2086 <_ZN12_GLOBAL__N_13putEcP6Status+0xc1>
    26fb: 85 46        	sta	$46                     ; 0x2046 <_ZN12_GLOBAL__N_13putEcP6Status+0x81>
    26fd: 8a           	txa
    26fe: 10 4c        	bpl	$274c <printf+0x5a0>
    2700: a2 00        	ldx	#$0
    2702: 64 12        	stz	$12                     ; 0x2012 <_ZN12_GLOBAL__N_13putEcP6Status+0x4d>
    2704: a9 00        	lda	#$0
    2706: 38           	sec
    2707: f5 63        	sbc	$63,x                   ; 0x2063 <_ZN12_GLOBAL__N_13putEcP6Status+0x9e>
    2709: a0 00        	ldy	#$0
    270b: b0 02        	bcs	$270f <printf+0x563>
    270d: a0 01        	ldy	#$1
    270f: 38           	sec
    2710: e5 12        	sbc	$12                     ; 0x2012 <_ZN12_GLOBAL__N_13putEcP6Status+0x4d>
    2712: 85 13        	sta	$13                     ; 0x2013 <_ZN12_GLOBAL__N_13putEcP6Status+0x4e>
    2714: 64 12        	stz	$12                     ; 0x2012 <_ZN12_GLOBAL__N_13putEcP6Status+0x4d>
    2716: b0 04        	bcs	$271c <printf+0x570>
    2718: a9 01        	lda	#$1
    271a: 85 12        	sta	$12                     ; 0x2012 <_ZN12_GLOBAL__N_13putEcP6Status+0x4d>
    271c: 98           	tya
    271d: 05 12        	ora	$12                     ; 0x2012 <_ZN12_GLOBAL__N_13putEcP6Status+0x4d>
    271f: 85 12        	sta	$12                     ; 0x2012 <_ZN12_GLOBAL__N_13putEcP6Status+0x4d>
    2721: a5 13        	lda	$13                     ; 0x2013 <_ZN12_GLOBAL__N_13putEcP6Status+0x4e>
    2723: 9d 63 00     	sta	$63,x                   ; 0x63 <__rc31+0x34>
    2726: e8           	inx
    2727: 86 13        	stx	$13                     ; 0x2013 <_ZN12_GLOBAL__N_13putEcP6Status+0x4e>
    2729: a4 83        	ldy	$83                     ; 0x2083 <_ZN12_GLOBAL__N_13putEcP6Status+0xbe>
    272b: c4 13        	cpy	$13                     ; 0x2013 <_ZN12_GLOBAL__N_13putEcP6Status+0x4e>
    272d: d0 d5        	bne	$2704 <printf+0x558>
    272f: 2c 3e 30     	bit	$303e                   ; 0x303e <__set_v>
    2732: a0 01        	ldy	#$1
    2734: 80 16        	bra	$274c <printf+0x5a0>
    2736: a0 01        	ldy	#$1
    2738: a6 45        	ldx	$45                     ; 0x2045 <_ZN12_GLOBAL__N_13putEcP6Status+0x80>
    273a: 86 1a        	stx	$1a                     ; 0x201a <_ZN12_GLOBAL__N_13putEcP6Status+0x55>
    273c: a6 87        	ldx	$87                     ; 0x2087 <_ZN12_GLOBAL__N_13putEcP6Status+0xc2>
    273e: 86 45        	stx	$45                     ; 0x2045 <_ZN12_GLOBAL__N_13putEcP6Status+0x80>
    2740: a2 00        	ldx	#$0
    2742: 86 41        	stx	$41                     ; 0x2041 <_ZN12_GLOBAL__N_13putEcP6Status+0x7c>
    2744: a2 00        	ldx	#$0
    2746: 86 42        	stx	$42                     ; 0x2042 <_ZN12_GLOBAL__N_13putEcP6Status+0x7d>
    2748: a6 86        	ldx	$86                     ; 0x2086 <_ZN12_GLOBAL__N_13putEcP6Status+0xc1>
    274a: 86 46        	stx	$46                     ; 0x2046 <_ZN12_GLOBAL__N_13putEcP6Status+0x81>
    274c: a2 01        	ldx	#$1
    274e: 70 02        	bvs	$2752 <printf+0x5a6>
    2750: a2 00        	ldx	#$0
    2752: 86 16        	stx	$16                     ; 0x2016 <_ZN12_GLOBAL__N_13putEcP6Status+0x51>
    2754: a5 83        	lda	$83                     ; 0x2083 <_ZN12_GLOBAL__N_13putEcP6Status+0xbe>
    2756: 0a           	asl
    2757: 0a           	asl
    2758: 0a           	asl
    2759: 85 12        	sta	$12                     ; 0x2012 <_ZN12_GLOBAL__N_13putEcP6Status+0x4d>
    275b: a2 00        	ldx	#$0
    275d: 8a           	txa
    275e: e0 00        	cpx	#$0
    2760: d0 03        	bne	$2765 <printf+0x5b9>
    2762: 4c ea 27     	jmp	$27ea <printf+0x63e>
    2765: 85 17        	sta	$17                     ; 0x2017 <_ZN12_GLOBAL__N_13putEcP6Status+0x52>
    2767: 86 3d        	stx	$3d                     ; 0x203d <_ZN12_GLOBAL__N_13putEcP6Status+0x78>
    2769: ca           	dex
    276a: 86 15        	stx	$15                     ; 0x2015 <_ZN12_GLOBAL__N_13putEcP6Status+0x50>
    276c: a2 00        	ldx	#$0
    276e: 64 13        	stz	$13                     ; 0x2013 <_ZN12_GLOBAL__N_13putEcP6Status+0x4e>
    2770: 80 0d        	bra	$277f <printf+0x5d3>
    2772: a4 13        	ldy	$13                     ; 0x2013 <_ZN12_GLOBAL__N_13putEcP6Status+0x4e>
    2774: 99 4b 00     	sta	$4b,y                   ; 0x4b <__rc31+0x1c>
    2777: a4 15        	ldy	$15                     ; 0x2015 <_ZN12_GLOBAL__N_13putEcP6Status+0x50>
    2779: c4 13        	cpy	$13                     ; 0x2013 <_ZN12_GLOBAL__N_13putEcP6Status+0x4e>
    277b: f0 38        	beq	$27b5 <printf+0x609>
    277d: e6 13        	inc	$13                     ; 0x2013 <_ZN12_GLOBAL__N_13putEcP6Status+0x4e>
    277f: a4 13        	ldy	$13                     ; 0x2013 <_ZN12_GLOBAL__N_13putEcP6Status+0x4e>
    2781: b9 4b 00     	lda	$4b,y                   ; 0x4b <__rc31+0x1c>
    2784: 0a           	asl
    2785: e0 00        	cpx	#$0
    2787: f0 02        	beq	$278b <printf+0x5df>
    2789: 09 01        	ora	#$1
    278b: a4 82        	ldy	$82                     ; 0x2082 <_ZN12_GLOBAL__N_13putEcP6Status+0xbd>
    278d: 84 14        	sty	$14                     ; 0x2014 <_ZN12_GLOBAL__N_13putEcP6Status+0x4f>
    278f: c5 14        	cmp	$14                     ; 0x2014 <_ZN12_GLOBAL__N_13putEcP6Status+0x4f>
    2791: a2 01        	ldx	#$1
    2793: b0 02        	bcs	$2797 <printf+0x5eb>
    2795: a2 00        	ldx	#$0
    2797: 90 d9        	bcc	$2772 <printf+0x5c6>
    2799: 84 14        	sty	$14                     ; 0x2014 <_ZN12_GLOBAL__N_13putEcP6Status+0x4f>
    279b: 38           	sec
    279c: e5 14        	sbc	$14                     ; 0x2014 <_ZN12_GLOBAL__N_13putEcP6Status+0x4f>
    279e: a4 13        	ldy	$13                     ; 0x2013 <_ZN12_GLOBAL__N_13putEcP6Status+0x4e>
    27a0: 99 4b 00     	sta	$4b,y                   ; 0x4b <__rc31+0x1c>
    27a3: a4 15        	ldy	$15                     ; 0x2015 <_ZN12_GLOBAL__N_13putEcP6Status+0x50>
    27a5: c4 13        	cpy	$13                     ; 0x2013 <_ZN12_GLOBAL__N_13putEcP6Status+0x4e>
    27a7: d0 d4        	bne	$277d <printf+0x5d1>
    27a9: a4 3d        	ldy	$3d                     ; 0x203d <_ZN12_GLOBAL__N_13putEcP6Status+0x78>
    27ab: a6 3d        	ldx	$3d                     ; 0x203d <_ZN12_GLOBAL__N_13putEcP6Status+0x78>
    27ad: e8           	inx
    27ae: a9 01        	lda	#$1
    27b0: 99 4b 00     	sta	$4b,y                   ; 0x4b <__rc31+0x1c>
    27b3: 86 3d        	stx	$3d                     ; 0x203d <_ZN12_GLOBAL__N_13putEcP6Status+0x78>
    27b5: a6 83        	ldx	$83                     ; 0x2083 <_ZN12_GLOBAL__N_13putEcP6Status+0xbe>
    27b7: b5 62        	lda	$62,x                   ; 0x2062 <_ZN12_GLOBAL__N_13putEcP6Status+0x9d>
    27b9: aa           	tax
    27ba: a0 01        	ldy	#$1
    27bc: 8a           	txa
    27bd: 10 47        	bpl	$2806 <printf+0x65a>
    27bf: a5 3d        	lda	$3d                     ; 0x203d <_ZN12_GLOBAL__N_13putEcP6Status+0x78>
    27c1: f0 34        	beq	$27f7 <printf+0x64b>
    27c3: a2 00        	ldx	#$0
    27c5: a4 82        	ldy	$82                     ; 0x2082 <_ZN12_GLOBAL__N_13putEcP6Status+0xbd>
    27c7: 84 14        	sty	$14                     ; 0x2014 <_ZN12_GLOBAL__N_13putEcP6Status+0x4f>
    27c9: b5 4b        	lda	$4b,x                   ; 0x204b <_ZN12_GLOBAL__N_13putEcP6Status+0x86>
    27cb: 1a           	inc
    27cc: f6 4b        	inc	$4b,x                   ; 0x204b <_ZN12_GLOBAL__N_13putEcP6Status+0x86>
    27ce: c5 14        	cmp	$14                     ; 0x2014 <_ZN12_GLOBAL__N_13putEcP6Status+0x4f>
    27d0: b0 03        	bcs	$27d5 <printf+0x629>
    27d2: 4c 31 28     	jmp	$2831 <printf+0x685>
    27d5: a4 14        	ldy	$14                     ; 0x2014 <_ZN12_GLOBAL__N_13putEcP6Status+0x4f>
    27d7: 84 13        	sty	$13                     ; 0x2013 <_ZN12_GLOBAL__N_13putEcP6Status+0x4e>
    27d9: 38           	sec
    27da: e5 13        	sbc	$13                     ; 0x2013 <_ZN12_GLOBAL__N_13putEcP6Status+0x4e>
    27dc: 9d 4b 00     	sta	$4b,x                   ; 0x4b <__rc31+0x1c>
    27df: e8           	inx
    27e0: 86 13        	stx	$13                     ; 0x2013 <_ZN12_GLOBAL__N_13putEcP6Status+0x4e>
    27e2: a4 3d        	ldy	$3d                     ; 0x203d <_ZN12_GLOBAL__N_13putEcP6Status+0x78>
    27e4: c4 13        	cpy	$13                     ; 0x2013 <_ZN12_GLOBAL__N_13putEcP6Status+0x4e>
    27e6: d0 e1        	bne	$27c9 <printf+0x61d>
    27e8: 80 0f        	bra	$27f9 <printf+0x64d>
    27ea: 85 17        	sta	$17                     ; 0x2017 <_ZN12_GLOBAL__N_13putEcP6Status+0x52>
    27ec: a6 83        	ldx	$83                     ; 0x2083 <_ZN12_GLOBAL__N_13putEcP6Status+0xbe>
    27ee: b5 62        	lda	$62,x                   ; 0x2062 <_ZN12_GLOBAL__N_13putEcP6Status+0x9d>
    27f0: aa           	tax
    27f1: 64 3d        	stz	$3d                     ; 0x203d <_ZN12_GLOBAL__N_13putEcP6Status+0x78>
    27f3: 30 04        	bmi	$27f9 <printf+0x64d>
    27f5: 80 0f        	bra	$2806 <printf+0x65a>
    27f7: 64 3d        	stz	$3d                     ; 0x203d <_ZN12_GLOBAL__N_13putEcP6Status+0x78>
    27f9: a4 3d        	ldy	$3d                     ; 0x203d <_ZN12_GLOBAL__N_13putEcP6Status+0x78>
    27fb: a6 3d        	ldx	$3d                     ; 0x203d <_ZN12_GLOBAL__N_13putEcP6Status+0x78>
    27fd: e8           	inx
    27fe: a9 01        	lda	#$1
    2800: 99 4b 00     	sta	$4b,y                   ; 0x4b <__rc31+0x1c>
    2803: a8           	tay
    2804: 86 3d        	stx	$3d                     ; 0x203d <_ZN12_GLOBAL__N_13putEcP6Status+0x78>
    2806: a2 01        	ldx	#$1
    2808: 64 13        	stz	$13                     ; 0x2013 <_ZN12_GLOBAL__N_13putEcP6Status+0x4e>
    280a: a5 83        	lda	$83                     ; 0x2083 <_ZN12_GLOBAL__N_13putEcP6Status+0xbe>
    280c: 85 14        	sta	$14                     ; 0x2014 <_ZN12_GLOBAL__N_13putEcP6Status+0x4f>
    280e: b5 62        	lda	$62,x                   ; 0x2062 <_ZN12_GLOBAL__N_13putEcP6Status+0x9d>
    2810: 0a           	asl
    2811: 64 15        	stz	$15                     ; 0x2015 <_ZN12_GLOBAL__N_13putEcP6Status+0x50>
    2813: 26 15        	rol	$15                     ; 0x2015 <_ZN12_GLOBAL__N_13putEcP6Status+0x50>
    2815: 05 13        	ora	$13                     ; 0x2013 <_ZN12_GLOBAL__N_13putEcP6Status+0x4e>
    2817: 9d 62 00     	sta	$62,x                   ; 0x62 <__rc31+0x33>
    281a: e8           	inx
    281b: c6 14        	dec	$14                     ; 0x2014 <_ZN12_GLOBAL__N_13putEcP6Status+0x4f>
    281d: a5 15        	lda	$15                     ; 0x2015 <_ZN12_GLOBAL__N_13putEcP6Status+0x50>
    281f: 85 13        	sta	$13                     ; 0x2013 <_ZN12_GLOBAL__N_13putEcP6Status+0x4e>
    2821: a5 14        	lda	$14                     ; 0x2014 <_ZN12_GLOBAL__N_13putEcP6Status+0x4f>
    2823: d0 e9        	bne	$280e <printf+0x662>
    2825: a5 17        	lda	$17                     ; 0x2017 <_ZN12_GLOBAL__N_13putEcP6Status+0x52>
    2827: 1a           	inc
    2828: c5 12        	cmp	$12                     ; 0x2012 <_ZN12_GLOBAL__N_13putEcP6Status+0x4d>
    282a: a6 3d        	ldx	$3d                     ; 0x203d <_ZN12_GLOBAL__N_13putEcP6Status+0x78>
    282c: b0 07        	bcs	$2835 <printf+0x689>
    282e: 4c 5e 27     	jmp	$275e <printf+0x5b2>
    2831: a0 01        	ldy	#$1
    2833: 80 d1        	bra	$2806 <printf+0x65a>
    2835: a5 3e        	lda	$3e                     ; 0x203e <_ZN12_GLOBAL__N_13putEcP6Status+0x79>
    2837: e6 46        	inc	$46                     ; 0x2046 <_ZN12_GLOBAL__N_13putEcP6Status+0x81>
    2839: c6 46        	dec	$46                     ; 0x2046 <_ZN12_GLOBAL__N_13putEcP6Status+0x81>
    283b: 10 08        	bpl	$2845 <printf+0x699>
    283d: a2 01        	ldx	#$1
    283f: 64 46        	stz	$46                     ; 0x2046 <_ZN12_GLOBAL__N_13putEcP6Status+0x81>
    2841: 86 45        	stx	$45                     ; 0x2045 <_ZN12_GLOBAL__N_13putEcP6Status+0x80>
    2843: a6 3d        	ldx	$3d                     ; 0x203d <_ZN12_GLOBAL__N_13putEcP6Status+0x78>
    2845: 29 04        	and	#$4
    2847: f0 2b        	beq	$2874 <printf+0x6c8>
    2849: a5 82        	lda	$82                     ; 0x2082 <_ZN12_GLOBAL__N_13putEcP6Status+0xbd>
    284b: c9 10        	cmp	#$10
    284d: f0 14        	beq	$2863 <printf+0x6b7>
    284f: c9 08        	cmp	#$8
    2851: d0 21        	bne	$2874 <printf+0x6c8>
    2853: a2 00        	ldx	#$0
    2855: e4 46        	cpx	$46                     ; 0x2046 <_ZN12_GLOBAL__N_13putEcP6Status+0x81>
    2857: f0 03        	beq	$285c <printf+0x6b0>
    2859: 4c a0 2d     	jmp	$2da0 <printf+0xbf4>
    285c: a6 3d        	ldx	$3d                     ; 0x203d <_ZN12_GLOBAL__N_13putEcP6Status+0x78>
    285e: e4 45        	cpx	$45                     ; 0x2045 <_ZN12_GLOBAL__N_13putEcP6Status+0x80>
    2860: 4c a2 2d     	jmp	$2da2 <printf+0xbf6>
    2863: 8a           	txa
    2864: f0 0e        	beq	$2874 <printf+0x6c8>
    2866: a5 3e        	lda	$3e                     ; 0x203e <_ZN12_GLOBAL__N_13putEcP6Status+0x79>
    2868: 29 80        	and	#$80
    286a: d0 03        	bne	$286f <printf+0x6c3>
    286c: 4c bb 2d     	jmp	$2dbb <printf+0xc0f>
    286f: a2 78        	ldx	#$78
    2871: 4c bd 2d     	jmp	$2dbd <printf+0xc11>
    2874: a6 3e        	ldx	$3e                     ; 0x203e <_ZN12_GLOBAL__N_13putEcP6Status+0x79>
    2876: a9 2d        	lda	#$2d
    2878: 85 86        	sta	$86                     ; 0x2086 <_ZN12_GLOBAL__N_13putEcP6Status+0xc1>
    287a: a5 16        	lda	$16                     ; 0x2016 <_ZN12_GLOBAL__N_13putEcP6Status+0x51>
    287c: d0 32        	bne	$28b0 <printf+0x704>
    287e: 86 12        	stx	$12                     ; 0x2012 <_ZN12_GLOBAL__N_13putEcP6Status+0x4d>
    2880: 8a           	txa
    2881: 29 02        	and	#$2
    2883: a2 2b        	ldx	#$2b
    2885: 86 86        	stx	$86                     ; 0x2086 <_ZN12_GLOBAL__N_13putEcP6Status+0xc1>
    2887: aa           	tax
    2888: d0 26        	bne	$28b0 <printf+0x704>
    288a: a5 12        	lda	$12                     ; 0x2012 <_ZN12_GLOBAL__N_13putEcP6Status+0x4d>
    288c: 29 08        	and	#$8
    288e: d0 1c        	bne	$28ac <printf+0x700>
    2890: a2 01        	ldx	#$1
    2892: 86 83        	stx	$83                     ; 0x2083 <_ZN12_GLOBAL__N_13putEcP6Status+0xbe>
    2894: a9 00        	lda	#$0
    2896: aa           	tax
    2897: 86 82        	stx	$82                     ; 0x2082 <_ZN12_GLOBAL__N_13putEcP6Status+0xbd>
    2899: 80 1c        	bra	$28b7 <printf+0x70b>
    289b: 85 12        	sta	$12                     ; 0x2012 <_ZN12_GLOBAL__N_13putEcP6Status+0x4d>
    289d: a9 04        	lda	#$4
    289f: 80 04        	bra	$28a5 <printf+0x6f9>
    28a1: 85 12        	sta	$12                     ; 0x2012 <_ZN12_GLOBAL__N_13putEcP6Status+0x4d>
    28a3: a9 02        	lda	#$2
    28a5: 85 83        	sta	$83                     ; 0x2083 <_ZN12_GLOBAL__N_13putEcP6Status+0xbe>
    28a7: a5 12        	lda	$12                     ; 0x2012 <_ZN12_GLOBAL__N_13putEcP6Status+0x4d>
    28a9: 4c 68 25     	jmp	$2568 <printf+0x3bc>
    28ac: a2 20        	ldx	#$20
    28ae: 86 86        	stx	$86                     ; 0x2086 <_ZN12_GLOBAL__N_13putEcP6Status+0xc1>
    28b0: a2 00        	ldx	#$0
    28b2: 86 83        	stx	$83                     ; 0x2083 <_ZN12_GLOBAL__N_13putEcP6Status+0xbe>
    28b4: 86 82        	stx	$82                     ; 0x2082 <_ZN12_GLOBAL__N_13putEcP6Status+0xbd>
    28b6: 98           	tya
    28b7: a6 46        	ldx	$46                     ; 0x2046 <_ZN12_GLOBAL__N_13putEcP6Status+0x81>
    28b9: d0 35        	bne	$28f0 <printf+0x744>
    28bb: a6 45        	ldx	$45                     ; 0x2045 <_ZN12_GLOBAL__N_13putEcP6Status+0x80>
    28bd: a4 3d        	ldy	$3d                     ; 0x203d <_ZN12_GLOBAL__N_13putEcP6Status+0x78>
    28bf: 84 12        	sty	$12                     ; 0x2012 <_ZN12_GLOBAL__N_13putEcP6Status+0x4d>
    28c1: e4 12        	cpx	$12                     ; 0x2012 <_ZN12_GLOBAL__N_13putEcP6Status+0x4d>
    28c3: a6 45        	ldx	$45                     ; 0x2045 <_ZN12_GLOBAL__N_13putEcP6Status+0x80>
    28c5: 86 12        	stx	$12                     ; 0x2012 <_ZN12_GLOBAL__N_13putEcP6Status+0x4d>
    28c7: a6 46        	ldx	$46                     ; 0x2046 <_ZN12_GLOBAL__N_13putEcP6Status+0x81>
    28c9: 86 13        	stx	$13                     ; 0x2013 <_ZN12_GLOBAL__N_13putEcP6Status+0x4e>
    28cb: b0 04        	bcs	$28d1 <printf+0x725>
    28cd: 84 12        	sty	$12                     ; 0x2012 <_ZN12_GLOBAL__N_13putEcP6Status+0x4d>
    28cf: 64 13        	stz	$13                     ; 0x2013 <_ZN12_GLOBAL__N_13putEcP6Status+0x4e>
    28d1: 85 18        	sta	$18                     ; 0x2018 <_ZN12_GLOBAL__N_13putEcP6Status+0x53>
    28d3: 18           	clc
    28d4: 65 12        	adc	$12                     ; 0x2012 <_ZN12_GLOBAL__N_13putEcP6Status+0x4d>
    28d6: 85 16        	sta	$16                     ; 0x2016 <_ZN12_GLOBAL__N_13putEcP6Status+0x51>
    28d8: 85 14        	sta	$14                     ; 0x2014 <_ZN12_GLOBAL__N_13putEcP6Status+0x4f>
    28da: a5 13        	lda	$13                     ; 0x2013 <_ZN12_GLOBAL__N_13putEcP6Status+0x4e>
    28dc: 69 00        	adc	#$0
    28de: 85 15        	sta	$15                     ; 0x2015 <_ZN12_GLOBAL__N_13putEcP6Status+0x50>
    28e0: c5 1a        	cmp	$1a                     ; 0x201a <_ZN12_GLOBAL__N_13putEcP6Status+0x55>
    28e2: d0 1e        	bne	$2902 <printf+0x756>
    28e4: a6 1a        	ldx	$1a                     ; 0x201a <_ZN12_GLOBAL__N_13putEcP6Status+0x55>
    28e6: 86 17        	stx	$17                     ; 0x2017 <_ZN12_GLOBAL__N_13putEcP6Status+0x52>
    28e8: a6 47        	ldx	$47                     ; 0x2047 <_ZN12_GLOBAL__N_13putEcP6Status+0x82>
    28ea: a5 16        	lda	$16                     ; 0x2016 <_ZN12_GLOBAL__N_13putEcP6Status+0x51>
    28ec: c5 47        	cmp	$47                     ; 0x2047 <_ZN12_GLOBAL__N_13putEcP6Status+0x82>
    28ee: 80 1c        	bra	$290c <printf+0x760>
    28f0: a6 46        	ldx	$46                     ; 0x2046 <_ZN12_GLOBAL__N_13putEcP6Status+0x81>
    28f2: e0 00        	cpx	#$0
    28f4: a6 45        	ldx	$45                     ; 0x2045 <_ZN12_GLOBAL__N_13putEcP6Status+0x80>
    28f6: 86 12        	stx	$12                     ; 0x2012 <_ZN12_GLOBAL__N_13putEcP6Status+0x4d>
    28f8: a6 46        	ldx	$46                     ; 0x2046 <_ZN12_GLOBAL__N_13putEcP6Status+0x81>
    28fa: 86 13        	stx	$13                     ; 0x2013 <_ZN12_GLOBAL__N_13putEcP6Status+0x4e>
    28fc: a4 3d        	ldy	$3d                     ; 0x203d <_ZN12_GLOBAL__N_13putEcP6Status+0x78>
    28fe: 90 cd        	bcc	$28cd <printf+0x721>
    2900: 80 cf        	bra	$28d1 <printf+0x725>
    2902: a6 47        	ldx	$47                     ; 0x2047 <_ZN12_GLOBAL__N_13putEcP6Status+0x82>
    2904: 5a           	phy
    2905: a4 1a        	ldy	$1a                     ; 0x201a <_ZN12_GLOBAL__N_13putEcP6Status+0x55>
    2907: 84 17        	sty	$17                     ; 0x2017 <_ZN12_GLOBAL__N_13putEcP6Status+0x52>
    2909: 7a           	ply
    290a: c5 1a        	cmp	$1a                     ; 0x201a <_ZN12_GLOBAL__N_13putEcP6Status+0x55>
    290c: 64 48        	stz	$48                     ; 0x2048 <_ZN12_GLOBAL__N_13putEcP6Status+0x83>
    290e: 64 47        	stz	$47                     ; 0x2047 <_ZN12_GLOBAL__N_13putEcP6Status+0x82>
    2910: 90 03        	bcc	$2915 <printf+0x769>
    2912: 4c b6 29     	jmp	$29b6 <printf+0x80a>
    2915: a5 3e        	lda	$3e                     ; 0x203e <_ZN12_GLOBAL__N_13putEcP6Status+0x79>
    2917: 29 11        	and	#$11
    2919: 86 16        	stx	$16                     ; 0x2016 <_ZN12_GLOBAL__N_13putEcP6Status+0x51>
    291b: f0 0f        	beq	$292c <printf+0x780>
    291d: 8a           	txa
    291e: 38           	sec
    291f: e5 14        	sbc	$14                     ; 0x2014 <_ZN12_GLOBAL__N_13putEcP6Status+0x4f>
    2921: 85 48        	sta	$48                     ; 0x2048 <_ZN12_GLOBAL__N_13putEcP6Status+0x83>
    2923: a5 1a        	lda	$1a                     ; 0x201a <_ZN12_GLOBAL__N_13putEcP6Status+0x55>
    2925: e5 15        	sbc	$15                     ; 0x2015 <_ZN12_GLOBAL__N_13putEcP6Status+0x50>
    2927: 85 47        	sta	$47                     ; 0x2047 <_ZN12_GLOBAL__N_13putEcP6Status+0x82>
    2929: 4c b6 29     	jmp	$29b6 <printf+0x80a>
    292c: a6 72        	ldx	$72                     ; 0x2072 <_ZN12_GLOBAL__N_13putEcP6Status+0xad>
    292e: 86 14        	stx	$14                     ; 0x2014 <_ZN12_GLOBAL__N_13putEcP6Status+0x4f>
    2930: 38           	sec
    2931: a5 18        	lda	$18                     ; 0x2018 <_ZN12_GLOBAL__N_13putEcP6Status+0x53>
    2933: e5 16        	sbc	$16                     ; 0x2016 <_ZN12_GLOBAL__N_13putEcP6Status+0x51>
    2935: aa           	tax
    2936: a9 00        	lda	#$0
    2938: e5 17        	sbc	$17                     ; 0x2017 <_ZN12_GLOBAL__N_13putEcP6Status+0x52>
    293a: a8           	tay
    293b: 18           	clc
    293c: 8a           	txa
    293d: 65 12        	adc	$12                     ; 0x2012 <_ZN12_GLOBAL__N_13putEcP6Status+0x4d>
    293f: 85 3e        	sta	$3e                     ; 0x203e <_ZN12_GLOBAL__N_13putEcP6Status+0x79>
    2941: 98           	tya
    2942: 65 13        	adc	$13                     ; 0x2013 <_ZN12_GLOBAL__N_13putEcP6Status+0x4e>
    2944: a4 73        	ldy	$73                     ; 0x2073 <_ZN12_GLOBAL__N_13putEcP6Status+0xae>
    2946: 4c 9a 29     	jmp	$299a <printf+0x7ee>
    2949: c4 71        	cpy	$71                     ; 0x2071 <_ZN12_GLOBAL__N_13putEcP6Status+0xac>
    294b: b0 2f        	bcs	$297c <printf+0x7d0>
    294d: a6 7d        	ldx	$7d                     ; 0x207d <_ZN12_GLOBAL__N_13putEcP6Status+0xb8>
    294f: e4 42        	cpx	$42                     ; 0x2042 <_ZN12_GLOBAL__N_13putEcP6Status+0x7d>
    2951: d0 18        	bne	$296b <printf+0x7bf>
    2953: a6 7c        	ldx	$7c                     ; 0x207c <_ZN12_GLOBAL__N_13putEcP6Status+0xb7>
    2955: e4 41        	cpx	$41                     ; 0x2041 <_ZN12_GLOBAL__N_13putEcP6Status+0x7c>
    2957: d0 12        	bne	$296b <printf+0x7bf>
    2959: 18           	clc
    295a: a5 14        	lda	$14                     ; 0x2014 <_ZN12_GLOBAL__N_13putEcP6Status+0x4f>
    295c: 65 76        	adc	$76                     ; 0x2076 <_ZN12_GLOBAL__N_13putEcP6Status+0xb1>
    295e: 85 12        	sta	$12                     ; 0x2012 <_ZN12_GLOBAL__N_13putEcP6Status+0x4d>
    2960: 98           	tya
    2961: 65 77        	adc	$77                     ; 0x2077 <_ZN12_GLOBAL__N_13putEcP6Status+0xb2>
    2963: 85 13        	sta	$13                     ; 0x2013 <_ZN12_GLOBAL__N_13putEcP6Status+0x4e>
    2965: a9 20        	lda	#$20
    2967: 92 12        	sta	($12)                   ; 0x2012 <_ZN12_GLOBAL__N_13putEcP6Status+0x4d>
    2969: 80 0f        	bra	$297a <printf+0x7ce>
    296b: a2 20        	ldx	#$20
    296d: 86 33        	stx	$33                     ; 0x2033 <_ZN12_GLOBAL__N_13putEcP6Status+0x6e>
    296f: a2 33        	ldx	#$33
    2971: 86 12        	stx	$12                     ; 0x2012 <_ZN12_GLOBAL__N_13putEcP6Status+0x4d>
    2973: a2 00        	ldx	#$0
    2975: 86 13        	stx	$13                     ; 0x2013 <_ZN12_GLOBAL__N_13putEcP6Status+0x4e>
    2977: 20 c0 19     	jsr	$19c0 <textPrint>
    297a: a5 47        	lda	$47                     ; 0x2047 <_ZN12_GLOBAL__N_13putEcP6Status+0x82>
    297c: a6 72        	ldx	$72                     ; 0x2072 <_ZN12_GLOBAL__N_13putEcP6Status+0xad>
    297e: a4 73        	ldy	$73                     ; 0x2073 <_ZN12_GLOBAL__N_13putEcP6Status+0xae>
    2980: e8           	inx
    2981: d0 01        	bne	$2984 <printf+0x7d8>
    2983: c8           	iny
    2984: 86 14        	stx	$14                     ; 0x2014 <_ZN12_GLOBAL__N_13putEcP6Status+0x4f>
    2986: 86 72        	stx	$72                     ; 0x2072 <_ZN12_GLOBAL__N_13putEcP6Status+0xad>
    2988: 84 73        	sty	$73                     ; 0x2073 <_ZN12_GLOBAL__N_13putEcP6Status+0xae>
    298a: a6 3e        	ldx	$3e                     ; 0x203e <_ZN12_GLOBAL__N_13putEcP6Status+0x79>
    298c: e8           	inx
    298d: d0 01        	bne	$2990 <printf+0x7e4>
    298f: 1a           	inc
    2990: 86 3e        	stx	$3e                     ; 0x203e <_ZN12_GLOBAL__N_13putEcP6Status+0x79>
    2992: c9 00        	cmp	#$0
    2994: d0 04        	bne	$299a <printf+0x7ee>
    2996: e0 00        	cpx	#$0
    2998: f0 16        	beq	$29b0 <printf+0x804>
    299a: 85 47        	sta	$47                     ; 0x2047 <_ZN12_GLOBAL__N_13putEcP6Status+0x82>
    299c: c4 71        	cpy	$71                     ; 0x2071 <_ZN12_GLOBAL__N_13putEcP6Status+0xac>
    299e: f0 03        	beq	$29a3 <printf+0x7f7>
    29a0: 4c 49 29     	jmp	$2949 <printf+0x79d>
    29a3: a6 70        	ldx	$70                     ; 0x2070 <_ZN12_GLOBAL__N_13putEcP6Status+0xab>
    29a5: 86 12        	stx	$12                     ; 0x2012 <_ZN12_GLOBAL__N_13putEcP6Status+0x4d>
    29a7: a6 14        	ldx	$14                     ; 0x2014 <_ZN12_GLOBAL__N_13putEcP6Status+0x4f>
    29a9: e4 12        	cpx	$12                     ; 0x2012 <_ZN12_GLOBAL__N_13putEcP6Status+0x4d>
    29ab: b0 cf        	bcs	$297c <printf+0x7d0>
    29ad: 4c 4d 29     	jmp	$294d <printf+0x7a1>
    29b0: 64 48        	stz	$48                     ; 0x2048 <_ZN12_GLOBAL__N_13putEcP6Status+0x83>
    29b2: 64 47        	stz	$47                     ; 0x2047 <_ZN12_GLOBAL__N_13putEcP6Status+0x82>
    29b4: a4 3d        	ldy	$3d                     ; 0x203d <_ZN12_GLOBAL__N_13putEcP6Status+0x78>
    29b6: a6 83        	ldx	$83                     ; 0x2083 <_ZN12_GLOBAL__N_13putEcP6Status+0xbe>
    29b8: f0 03        	beq	$29bd <printf+0x811>
    29ba: 4c 14 2a     	jmp	$2a14 <printf+0x868>
    29bd: a6 72        	ldx	$72                     ; 0x2072 <_ZN12_GLOBAL__N_13putEcP6Status+0xad>
    29bf: a5 73        	lda	$73                     ; 0x2073 <_ZN12_GLOBAL__N_13putEcP6Status+0xae>
    29c1: c5 71        	cmp	$71                     ; 0x2071 <_ZN12_GLOBAL__N_13putEcP6Status+0xac>
    29c3: d0 10        	bne	$29d5 <printf+0x829>
    29c5: 86 13        	stx	$13                     ; 0x2013 <_ZN12_GLOBAL__N_13putEcP6Status+0x4e>
    29c7: a6 70        	ldx	$70                     ; 0x2070 <_ZN12_GLOBAL__N_13putEcP6Status+0xab>
    29c9: 86 12        	stx	$12                     ; 0x2012 <_ZN12_GLOBAL__N_13putEcP6Status+0x4d>
    29cb: a4 3d        	ldy	$3d                     ; 0x203d <_ZN12_GLOBAL__N_13putEcP6Status+0x78>
    29cd: a6 13        	ldx	$13                     ; 0x2013 <_ZN12_GLOBAL__N_13putEcP6Status+0x4e>
    29cf: e4 12        	cpx	$12                     ; 0x2012 <_ZN12_GLOBAL__N_13putEcP6Status+0x4d>
    29d1: 90 08        	bcc	$29db <printf+0x82f>
    29d3: 80 39        	bra	$2a0e <printf+0x862>
    29d5: 86 13        	stx	$13                     ; 0x2013 <_ZN12_GLOBAL__N_13putEcP6Status+0x4e>
    29d7: c5 71        	cmp	$71                     ; 0x2071 <_ZN12_GLOBAL__N_13putEcP6Status+0xac>
    29d9: b0 33        	bcs	$2a0e <printf+0x862>
    29db: a6 7d        	ldx	$7d                     ; 0x207d <_ZN12_GLOBAL__N_13putEcP6Status+0xb8>
    29dd: e4 42        	cpx	$42                     ; 0x2042 <_ZN12_GLOBAL__N_13putEcP6Status+0x7d>
    29df: d0 1c        	bne	$29fd <printf+0x851>
    29e1: a6 7c        	ldx	$7c                     ; 0x207c <_ZN12_GLOBAL__N_13putEcP6Status+0xb7>
    29e3: e4 41        	cpx	$41                     ; 0x2041 <_ZN12_GLOBAL__N_13putEcP6Status+0x7c>
    29e5: d0 16        	bne	$29fd <printf+0x851>
    29e7: 18           	clc
    29e8: 85 12        	sta	$12                     ; 0x2012 <_ZN12_GLOBAL__N_13putEcP6Status+0x4d>
    29ea: a5 13        	lda	$13                     ; 0x2013 <_ZN12_GLOBAL__N_13putEcP6Status+0x4e>
    29ec: 65 76        	adc	$76                     ; 0x2076 <_ZN12_GLOBAL__N_13putEcP6Status+0xb1>
    29ee: aa           	tax
    29ef: a5 12        	lda	$12                     ; 0x2012 <_ZN12_GLOBAL__N_13putEcP6Status+0x4d>
    29f1: 65 77        	adc	$77                     ; 0x2077 <_ZN12_GLOBAL__N_13putEcP6Status+0xb2>
    29f3: 86 12        	stx	$12                     ; 0x2012 <_ZN12_GLOBAL__N_13putEcP6Status+0x4d>
    29f5: 85 13        	sta	$13                     ; 0x2013 <_ZN12_GLOBAL__N_13putEcP6Status+0x4e>
    29f7: a5 86        	lda	$86                     ; 0x2086 <_ZN12_GLOBAL__N_13putEcP6Status+0xc1>
    29f9: 92 12        	sta	($12)                   ; 0x2012 <_ZN12_GLOBAL__N_13putEcP6Status+0x4d>
    29fb: 80 0f        	bra	$2a0c <printf+0x860>
    29fd: a6 86        	ldx	$86                     ; 0x2086 <_ZN12_GLOBAL__N_13putEcP6Status+0xc1>
    29ff: 86 33        	stx	$33                     ; 0x2033 <_ZN12_GLOBAL__N_13putEcP6Status+0x6e>
    2a01: a2 33        	ldx	#$33
    2a03: 86 12        	stx	$12                     ; 0x2012 <_ZN12_GLOBAL__N_13putEcP6Status+0x4d>
    2a05: a2 00        	ldx	#$0
    2a07: 86 13        	stx	$13                     ; 0x2013 <_ZN12_GLOBAL__N_13putEcP6Status+0x4e>
    2a09: 20 c0 19     	jsr	$19c0 <textPrint>
    2a0c: a4 3d        	ldy	$3d                     ; 0x203d <_ZN12_GLOBAL__N_13putEcP6Status+0x78>
    2a0e: e6 72        	inc	$72                     ; 0x2072 <_ZN12_GLOBAL__N_13putEcP6Status+0xad>
    2a10: d0 02        	bne	$2a14 <printf+0x868>
    2a12: e6 73        	inc	$73                     ; 0x2073 <_ZN12_GLOBAL__N_13putEcP6Status+0xae>
    2a14: a6 82        	ldx	$82                     ; 0x2082 <_ZN12_GLOBAL__N_13putEcP6Status+0xbd>
    2a16: d0 03        	bne	$2a1b <printf+0x86f>
    2a18: 4c 72 2a     	jmp	$2a72 <printf+0x8c6>
    2a1b: a6 72        	ldx	$72                     ; 0x2072 <_ZN12_GLOBAL__N_13putEcP6Status+0xad>
    2a1d: a5 73        	lda	$73                     ; 0x2073 <_ZN12_GLOBAL__N_13putEcP6Status+0xae>
    2a1f: c5 71        	cmp	$71                     ; 0x2071 <_ZN12_GLOBAL__N_13putEcP6Status+0xac>
    2a21: d0 10        	bne	$2a33 <printf+0x887>
    2a23: 86 13        	stx	$13                     ; 0x2013 <_ZN12_GLOBAL__N_13putEcP6Status+0x4e>
    2a25: a6 70        	ldx	$70                     ; 0x2070 <_ZN12_GLOBAL__N_13putEcP6Status+0xab>
    2a27: 86 12        	stx	$12                     ; 0x2012 <_ZN12_GLOBAL__N_13putEcP6Status+0x4d>
    2a29: a4 3d        	ldy	$3d                     ; 0x203d <_ZN12_GLOBAL__N_13putEcP6Status+0x78>
    2a2b: a6 13        	ldx	$13                     ; 0x2013 <_ZN12_GLOBAL__N_13putEcP6Status+0x4e>
    2a2d: e4 12        	cpx	$12                     ; 0x2012 <_ZN12_GLOBAL__N_13putEcP6Status+0x4d>
    2a2f: 90 08        	bcc	$2a39 <printf+0x88d>
    2a31: 80 39        	bra	$2a6c <printf+0x8c0>
    2a33: 86 13        	stx	$13                     ; 0x2013 <_ZN12_GLOBAL__N_13putEcP6Status+0x4e>
    2a35: c5 71        	cmp	$71                     ; 0x2071 <_ZN12_GLOBAL__N_13putEcP6Status+0xac>
    2a37: b0 33        	bcs	$2a6c <printf+0x8c0>
    2a39: a6 7d        	ldx	$7d                     ; 0x207d <_ZN12_GLOBAL__N_13putEcP6Status+0xb8>
    2a3b: e4 42        	cpx	$42                     ; 0x2042 <_ZN12_GLOBAL__N_13putEcP6Status+0x7d>
    2a3d: d0 1c        	bne	$2a5b <printf+0x8af>
    2a3f: a6 7c        	ldx	$7c                     ; 0x207c <_ZN12_GLOBAL__N_13putEcP6Status+0xb7>
    2a41: e4 41        	cpx	$41                     ; 0x2041 <_ZN12_GLOBAL__N_13putEcP6Status+0x7c>
    2a43: d0 16        	bne	$2a5b <printf+0x8af>
    2a45: 18           	clc
    2a46: 85 12        	sta	$12                     ; 0x2012 <_ZN12_GLOBAL__N_13putEcP6Status+0x4d>
    2a48: a5 13        	lda	$13                     ; 0x2013 <_ZN12_GLOBAL__N_13putEcP6Status+0x4e>
    2a4a: 65 76        	adc	$76                     ; 0x2076 <_ZN12_GLOBAL__N_13putEcP6Status+0xb1>
    2a4c: aa           	tax
    2a4d: a5 12        	lda	$12                     ; 0x2012 <_ZN12_GLOBAL__N_13putEcP6Status+0x4d>
    2a4f: 65 77        	adc	$77                     ; 0x2077 <_ZN12_GLOBAL__N_13putEcP6Status+0xb2>
    2a51: 86 12        	stx	$12                     ; 0x2012 <_ZN12_GLOBAL__N_13putEcP6Status+0x4d>
    2a53: 85 13        	sta	$13                     ; 0x2013 <_ZN12_GLOBAL__N_13putEcP6Status+0x4e>
    2a55: a5 87        	lda	$87                     ; 0x2087 <_ZN12_GLOBAL__N_13putEcP6Status+0xc2>
    2a57: 92 12        	sta	($12)                   ; 0x2012 <_ZN12_GLOBAL__N_13putEcP6Status+0x4d>
    2a59: 80 0f        	bra	$2a6a <printf+0x8be>
    2a5b: a6 87        	ldx	$87                     ; 0x2087 <_ZN12_GLOBAL__N_13putEcP6Status+0xc2>
    2a5d: 86 33        	stx	$33                     ; 0x2033 <_ZN12_GLOBAL__N_13putEcP6Status+0x6e>
    2a5f: a2 33        	ldx	#$33
    2a61: 86 12        	stx	$12                     ; 0x2012 <_ZN12_GLOBAL__N_13putEcP6Status+0x4d>
    2a63: a2 00        	ldx	#$0
    2a65: 86 13        	stx	$13                     ; 0x2013 <_ZN12_GLOBAL__N_13putEcP6Status+0x4e>
    2a67: 20 c0 19     	jsr	$19c0 <textPrint>
    2a6a: a4 3d        	ldy	$3d                     ; 0x203d <_ZN12_GLOBAL__N_13putEcP6Status+0x78>
    2a6c: e6 72        	inc	$72                     ; 0x2072 <_ZN12_GLOBAL__N_13putEcP6Status+0xad>
    2a6e: d0 02        	bne	$2a72 <printf+0x8c6>
    2a70: e6 73        	inc	$73                     ; 0x2073 <_ZN12_GLOBAL__N_13putEcP6Status+0xae>
    2a72: a9 10        	lda	#$10
    2a74: 25 6e        	and	$6e                     ; 0x206e <_ZN12_GLOBAL__N_13putEcP6Status+0xa9>
    2a76: d0 03        	bne	$2a7b <printf+0x8cf>
    2a78: 4c 0c 2b     	jmp	$2b0c <printf+0x960>
    2a7b: a5 6e        	lda	$6e                     ; 0x206e <_ZN12_GLOBAL__N_13putEcP6Status+0xa9>
    2a7d: 29 01        	and	#$1
    2a7f: f0 03        	beq	$2a84 <printf+0x8d8>
    2a81: 4c 0c 2b     	jmp	$2b0c <printf+0x960>
    2a84: a6 48        	ldx	$48                     ; 0x2048 <_ZN12_GLOBAL__N_13putEcP6Status+0x83>
    2a86: a5 47        	lda	$47                     ; 0x2047 <_ZN12_GLOBAL__N_13putEcP6Status+0x82>
    2a88: d0 06        	bne	$2a90 <printf+0x8e4>
    2a8a: 8a           	txa
    2a8b: d0 03        	bne	$2a90 <printf+0x8e4>
    2a8d: 4c d0 2d     	jmp	$2dd0 <printf+0xc24>
    2a90: a6 72        	ldx	$72                     ; 0x2072 <_ZN12_GLOBAL__N_13putEcP6Status+0xad>
    2a92: 86 13        	stx	$13                     ; 0x2013 <_ZN12_GLOBAL__N_13putEcP6Status+0x4e>
    2a94: a5 73        	lda	$73                     ; 0x2073 <_ZN12_GLOBAL__N_13putEcP6Status+0xae>
    2a96: 4c f2 2a     	jmp	$2af2 <printf+0x946>
    2a99: c5 71        	cmp	$71                     ; 0x2071 <_ZN12_GLOBAL__N_13putEcP6Status+0xac>
    2a9b: b0 2e        	bcs	$2acb <printf+0x91f>
    2a9d: a6 7d        	ldx	$7d                     ; 0x207d <_ZN12_GLOBAL__N_13putEcP6Status+0xb8>
    2a9f: e4 42        	cpx	$42                     ; 0x2042 <_ZN12_GLOBAL__N_13putEcP6Status+0x7d>
    2aa1: d0 19        	bne	$2abc <printf+0x910>
    2aa3: a6 7c        	ldx	$7c                     ; 0x207c <_ZN12_GLOBAL__N_13putEcP6Status+0xb7>
    2aa5: e4 41        	cpx	$41                     ; 0x2041 <_ZN12_GLOBAL__N_13putEcP6Status+0x7c>
    2aa7: d0 13        	bne	$2abc <printf+0x910>
    2aa9: 18           	clc
    2aaa: aa           	tax
    2aab: a5 13        	lda	$13                     ; 0x2013 <_ZN12_GLOBAL__N_13putEcP6Status+0x4e>
    2aad: 65 76        	adc	$76                     ; 0x2076 <_ZN12_GLOBAL__N_13putEcP6Status+0xb1>
    2aaf: 85 12        	sta	$12                     ; 0x2012 <_ZN12_GLOBAL__N_13putEcP6Status+0x4d>
    2ab1: 8a           	txa
    2ab2: 65 77        	adc	$77                     ; 0x2077 <_ZN12_GLOBAL__N_13putEcP6Status+0xb2>
    2ab4: 85 13        	sta	$13                     ; 0x2013 <_ZN12_GLOBAL__N_13putEcP6Status+0x4e>
    2ab6: a9 30        	lda	#$30
    2ab8: 92 12        	sta	($12)                   ; 0x2012 <_ZN12_GLOBAL__N_13putEcP6Status+0x4d>
    2aba: 80 0f        	bra	$2acb <printf+0x91f>
    2abc: a2 30        	ldx	#$30
    2abe: 86 33        	stx	$33                     ; 0x2033 <_ZN12_GLOBAL__N_13putEcP6Status+0x6e>
    2ac0: a2 33        	ldx	#$33
    2ac2: 86 12        	stx	$12                     ; 0x2012 <_ZN12_GLOBAL__N_13putEcP6Status+0x4d>
    2ac4: a2 00        	ldx	#$0
    2ac6: 86 13        	stx	$13                     ; 0x2013 <_ZN12_GLOBAL__N_13putEcP6Status+0x4e>
    2ac8: 20 c0 19     	jsr	$19c0 <textPrint>
    2acb: a6 72        	ldx	$72                     ; 0x2072 <_ZN12_GLOBAL__N_13putEcP6Status+0xad>
    2acd: a5 73        	lda	$73                     ; 0x2073 <_ZN12_GLOBAL__N_13putEcP6Status+0xae>
    2acf: e8           	inx
    2ad0: d0 01        	bne	$2ad3 <printf+0x927>
    2ad2: 1a           	inc
    2ad3: 86 13        	stx	$13                     ; 0x2013 <_ZN12_GLOBAL__N_13putEcP6Status+0x4e>
    2ad5: 86 72        	stx	$72                     ; 0x2072 <_ZN12_GLOBAL__N_13putEcP6Status+0xad>
    2ad7: 85 73        	sta	$73                     ; 0x2073 <_ZN12_GLOBAL__N_13putEcP6Status+0xae>
    2ad9: a4 48        	ldy	$48                     ; 0x2048 <_ZN12_GLOBAL__N_13putEcP6Status+0x83>
    2adb: a6 47        	ldx	$47                     ; 0x2047 <_ZN12_GLOBAL__N_13putEcP6Status+0x82>
    2add: 86 12        	stx	$12                     ; 0x2012 <_ZN12_GLOBAL__N_13putEcP6Status+0x4d>
    2adf: 88           	dey
    2ae0: c0 ff        	cpy	#$ff
    2ae2: d0 02        	bne	$2ae6 <printf+0x93a>
    2ae4: c6 12        	dec	$12                     ; 0x2012 <_ZN12_GLOBAL__N_13putEcP6Status+0x4d>
    2ae6: 84 48        	sty	$48                     ; 0x2048 <_ZN12_GLOBAL__N_13putEcP6Status+0x83>
    2ae8: a6 12        	ldx	$12                     ; 0x2012 <_ZN12_GLOBAL__N_13putEcP6Status+0x4d>
    2aea: 86 47        	stx	$47                     ; 0x2047 <_ZN12_GLOBAL__N_13putEcP6Status+0x82>
    2aec: d0 04        	bne	$2af2 <printf+0x946>
    2aee: c0 00        	cpy	#$0
    2af0: f0 14        	beq	$2b06 <printf+0x95a>
    2af2: c5 71        	cmp	$71                     ; 0x2071 <_ZN12_GLOBAL__N_13putEcP6Status+0xac>
    2af4: f0 03        	beq	$2af9 <printf+0x94d>
    2af6: 4c 99 2a     	jmp	$2a99 <printf+0x8ed>
    2af9: a6 70        	ldx	$70                     ; 0x2070 <_ZN12_GLOBAL__N_13putEcP6Status+0xab>
    2afb: 86 12        	stx	$12                     ; 0x2012 <_ZN12_GLOBAL__N_13putEcP6Status+0x4d>
    2afd: a6 13        	ldx	$13                     ; 0x2013 <_ZN12_GLOBAL__N_13putEcP6Status+0x4e>
    2aff: e4 12        	cpx	$12                     ; 0x2012 <_ZN12_GLOBAL__N_13putEcP6Status+0x4d>
    2b01: b0 c8        	bcs	$2acb <printf+0x91f>
    2b03: 4c 9d 2a     	jmp	$2a9d <printf+0x8f1>
    2b06: 64 48        	stz	$48                     ; 0x2048 <_ZN12_GLOBAL__N_13putEcP6Status+0x83>
    2b08: 64 47        	stz	$47                     ; 0x2047 <_ZN12_GLOBAL__N_13putEcP6Status+0x82>
    2b0a: a4 3d        	ldy	$3d                     ; 0x203d <_ZN12_GLOBAL__N_13putEcP6Status+0x78>
    2b0c: a2 00        	ldx	#$0
    2b0e: e4 46        	cpx	$46                     ; 0x2046 <_ZN12_GLOBAL__N_13putEcP6Status+0x81>
    2b10: d0 07        	bne	$2b19 <printf+0x96d>
    2b12: c4 45        	cpy	$45                     ; 0x2045 <_ZN12_GLOBAL__N_13putEcP6Status+0x80>
    2b14: 90 0a        	bcc	$2b20 <printf+0x974>
    2b16: 4c 98 2b     	jmp	$2b98 <printf+0x9ec>
    2b19: e4 46        	cpx	$46                     ; 0x2046 <_ZN12_GLOBAL__N_13putEcP6Status+0x81>
    2b1b: 90 03        	bcc	$2b20 <printf+0x974>
    2b1d: 4c 98 2b     	jmp	$2b98 <printf+0x9ec>
    2b20: a6 72        	ldx	$72                     ; 0x2072 <_ZN12_GLOBAL__N_13putEcP6Status+0xad>
    2b22: 86 13        	stx	$13                     ; 0x2013 <_ZN12_GLOBAL__N_13putEcP6Status+0x4e>
    2b24: a5 73        	lda	$73                     ; 0x2073 <_ZN12_GLOBAL__N_13putEcP6Status+0xae>
    2b26: a2 ff        	ldx	#$ff
    2b28: c6 45        	dec	$45                     ; 0x2045 <_ZN12_GLOBAL__N_13putEcP6Status+0x80>
    2b2a: e4 45        	cpx	$45                     ; 0x2045 <_ZN12_GLOBAL__N_13putEcP6Status+0x80>
    2b2c: d0 02        	bne	$2b30 <printf+0x984>
    2b2e: c6 46        	dec	$46                     ; 0x2046 <_ZN12_GLOBAL__N_13putEcP6Status+0x81>
    2b30: c5 71        	cmp	$71                     ; 0x2071 <_ZN12_GLOBAL__N_13putEcP6Status+0xac>
    2b32: d0 0c        	bne	$2b40 <printf+0x994>
    2b34: a6 70        	ldx	$70                     ; 0x2070 <_ZN12_GLOBAL__N_13putEcP6Status+0xab>
    2b36: 86 12        	stx	$12                     ; 0x2012 <_ZN12_GLOBAL__N_13putEcP6Status+0x4d>
    2b38: a6 13        	ldx	$13                     ; 0x2013 <_ZN12_GLOBAL__N_13putEcP6Status+0x4e>
    2b3a: e4 12        	cpx	$12                     ; 0x2012 <_ZN12_GLOBAL__N_13putEcP6Status+0x4d>
    2b3c: 90 06        	bcc	$2b44 <printf+0x998>
    2b3e: 80 32        	bra	$2b72 <printf+0x9c6>
    2b40: c5 71        	cmp	$71                     ; 0x2071 <_ZN12_GLOBAL__N_13putEcP6Status+0xac>
    2b42: b0 2e        	bcs	$2b72 <printf+0x9c6>
    2b44: a6 7d        	ldx	$7d                     ; 0x207d <_ZN12_GLOBAL__N_13putEcP6Status+0xb8>
    2b46: e4 42        	cpx	$42                     ; 0x2042 <_ZN12_GLOBAL__N_13putEcP6Status+0x7d>
    2b48: d0 19        	bne	$2b63 <printf+0x9b7>
    2b4a: a6 7c        	ldx	$7c                     ; 0x207c <_ZN12_GLOBAL__N_13putEcP6Status+0xb7>
    2b4c: e4 41        	cpx	$41                     ; 0x2041 <_ZN12_GLOBAL__N_13putEcP6Status+0x7c>
    2b4e: d0 13        	bne	$2b63 <printf+0x9b7>
    2b50: 18           	clc
    2b51: aa           	tax
    2b52: a5 13        	lda	$13                     ; 0x2013 <_ZN12_GLOBAL__N_13putEcP6Status+0x4e>
    2b54: 65 76        	adc	$76                     ; 0x2076 <_ZN12_GLOBAL__N_13putEcP6Status+0xb1>
    2b56: 85 12        	sta	$12                     ; 0x2012 <_ZN12_GLOBAL__N_13putEcP6Status+0x4d>
    2b58: 8a           	txa
    2b59: 65 77        	adc	$77                     ; 0x2077 <_ZN12_GLOBAL__N_13putEcP6Status+0xb2>
    2b5b: 85 13        	sta	$13                     ; 0x2013 <_ZN12_GLOBAL__N_13putEcP6Status+0x4e>
    2b5d: a9 30        	lda	#$30
    2b5f: 92 12        	sta	($12)                   ; 0x2012 <_ZN12_GLOBAL__N_13putEcP6Status+0x4d>
    2b61: 80 0f        	bra	$2b72 <printf+0x9c6>
    2b63: a2 30        	ldx	#$30
    2b65: 86 33        	stx	$33                     ; 0x2033 <_ZN12_GLOBAL__N_13putEcP6Status+0x6e>
    2b67: a2 33        	ldx	#$33
    2b69: 86 12        	stx	$12                     ; 0x2012 <_ZN12_GLOBAL__N_13putEcP6Status+0x4d>
    2b6b: a2 00        	ldx	#$0
    2b6d: 86 13        	stx	$13                     ; 0x2013 <_ZN12_GLOBAL__N_13putEcP6Status+0x4e>
    2b6f: 20 c0 19     	jsr	$19c0 <textPrint>
    2b72: a6 72        	ldx	$72                     ; 0x2072 <_ZN12_GLOBAL__N_13putEcP6Status+0xad>
    2b74: a5 73        	lda	$73                     ; 0x2073 <_ZN12_GLOBAL__N_13putEcP6Status+0xae>
    2b76: e8           	inx
    2b77: d0 01        	bne	$2b7a <printf+0x9ce>
    2b79: 1a           	inc
    2b7a: 86 13        	stx	$13                     ; 0x2013 <_ZN12_GLOBAL__N_13putEcP6Status+0x4e>
    2b7c: 86 72        	stx	$72                     ; 0x2072 <_ZN12_GLOBAL__N_13putEcP6Status+0xad>
    2b7e: 85 73        	sta	$73                     ; 0x2073 <_ZN12_GLOBAL__N_13putEcP6Status+0xae>
    2b80: a2 00        	ldx	#$0
    2b82: e4 46        	cpx	$46                     ; 0x2046 <_ZN12_GLOBAL__N_13putEcP6Status+0x81>
    2b84: d0 09        	bne	$2b8f <printf+0x9e3>
    2b86: a4 3d        	ldy	$3d                     ; 0x203d <_ZN12_GLOBAL__N_13putEcP6Status+0x78>
    2b88: c4 45        	cpy	$45                     ; 0x2045 <_ZN12_GLOBAL__N_13putEcP6Status+0x80>
    2b8a: b0 0c        	bcs	$2b98 <printf+0x9ec>
    2b8c: 4c 26 2b     	jmp	$2b26 <printf+0x97a>
    2b8f: e4 46        	cpx	$46                     ; 0x2046 <_ZN12_GLOBAL__N_13putEcP6Status+0x81>
    2b91: a4 3d        	ldy	$3d                     ; 0x203d <_ZN12_GLOBAL__N_13putEcP6Status+0x78>
    2b93: b0 03        	bcs	$2b98 <printf+0x9ec>
    2b95: 4c 26 2b     	jmp	$2b26 <printf+0x97a>
    2b98: 98           	tya
    2b99: d0 03        	bne	$2b9e <printf+0x9f2>
    2b9b: 4c a1 2c     	jmp	$2ca1 <printf+0xaf5>
    2b9e: 88           	dey
    2b9f: d0 03        	bne	$2ba4 <printf+0x9f8>
    2ba1: 4c 36 2c     	jmp	$2c36 <printf+0xa8a>
    2ba4: 84 45        	sty	$45                     ; 0x2045 <_ZN12_GLOBAL__N_13putEcP6Status+0x80>
    2ba6: a6 88        	ldx	$88                     ; 0x2088 <_ZN12_GLOBAL__N_13putEcP6Status+0xc3>
    2ba8: 8a           	txa
    2ba9: 18           	clc
    2baa: 65 45        	adc	$45                     ; 0x2045 <_ZN12_GLOBAL__N_13putEcP6Status+0x80>
    2bac: 85 3d        	sta	$3d                     ; 0x203d <_ZN12_GLOBAL__N_13putEcP6Status+0x78>
    2bae: a5 89        	lda	$89                     ; 0x2089 <_ZN12_GLOBAL__N_13putEcP6Status+0xc4>
    2bb0: 69 00        	adc	#$0
    2bb2: 85 3e        	sta	$3e                     ; 0x203e <_ZN12_GLOBAL__N_13putEcP6Status+0x79>
    2bb4: 4c 28 2c     	jmp	$2c28 <printf+0xa7c>
    2bb7: a8           	tay
    2bb8: a9 80        	lda	#$80
    2bba: 25 6e        	and	$6e                     ; 0x206e <_ZN12_GLOBAL__N_13putEcP6Status+0xa9>
    2bbc: f0 04        	beq	$2bc2 <printf+0xa16>
    2bbe: a2 61        	ldx	#$61
    2bc0: 80 02        	bra	$2bc4 <printf+0xa18>
    2bc2: a2 41        	ldx	#$41
    2bc4: 86 12        	stx	$12                     ; 0x2012 <_ZN12_GLOBAL__N_13putEcP6Status+0x4d>
    2bc6: 18           	clc
    2bc7: 98           	tya
    2bc8: 65 12        	adc	$12                     ; 0x2012 <_ZN12_GLOBAL__N_13putEcP6Status+0x4d>
    2bca: 18           	clc
    2bcb: 69 f6        	adc	#$f6
    2bcd: a4 72        	ldy	$72                     ; 0x2072 <_ZN12_GLOBAL__N_13putEcP6Status+0xad>
    2bcf: a6 73        	ldx	$73                     ; 0x2073 <_ZN12_GLOBAL__N_13putEcP6Status+0xae>
    2bd1: e4 71        	cpx	$71                     ; 0x2071 <_ZN12_GLOBAL__N_13putEcP6Status+0xac>
    2bd3: d0 0c        	bne	$2be1 <printf+0xa35>
    2bd5: 86 14        	stx	$14                     ; 0x2014 <_ZN12_GLOBAL__N_13putEcP6Status+0x4f>
    2bd7: a6 70        	ldx	$70                     ; 0x2070 <_ZN12_GLOBAL__N_13putEcP6Status+0xab>
    2bd9: 86 12        	stx	$12                     ; 0x2012 <_ZN12_GLOBAL__N_13putEcP6Status+0x4d>
    2bdb: c4 12        	cpy	$12                     ; 0x2012 <_ZN12_GLOBAL__N_13putEcP6Status+0x4d>
    2bdd: 90 08        	bcc	$2be7 <printf+0xa3b>
    2bdf: 80 31        	bra	$2c12 <printf+0xa66>
    2be1: 86 14        	stx	$14                     ; 0x2014 <_ZN12_GLOBAL__N_13putEcP6Status+0x4f>
    2be3: e4 71        	cpx	$71                     ; 0x2071 <_ZN12_GLOBAL__N_13putEcP6Status+0xac>
    2be5: b0 2b        	bcs	$2c12 <printf+0xa66>
    2be7: a6 7d        	ldx	$7d                     ; 0x207d <_ZN12_GLOBAL__N_13putEcP6Status+0xb8>
    2be9: e4 42        	cpx	$42                     ; 0x2042 <_ZN12_GLOBAL__N_13putEcP6Status+0x7d>
    2beb: d0 18        	bne	$2c05 <printf+0xa59>
    2bed: a6 7c        	ldx	$7c                     ; 0x207c <_ZN12_GLOBAL__N_13putEcP6Status+0xb7>
    2bef: e4 41        	cpx	$41                     ; 0x2041 <_ZN12_GLOBAL__N_13putEcP6Status+0x7c>
    2bf1: d0 12        	bne	$2c05 <printf+0xa59>
    2bf3: 18           	clc
    2bf4: aa           	tax
    2bf5: 98           	tya
    2bf6: 65 76        	adc	$76                     ; 0x2076 <_ZN12_GLOBAL__N_13putEcP6Status+0xb1>
    2bf8: 85 12        	sta	$12                     ; 0x2012 <_ZN12_GLOBAL__N_13putEcP6Status+0x4d>
    2bfa: a5 14        	lda	$14                     ; 0x2014 <_ZN12_GLOBAL__N_13putEcP6Status+0x4f>
    2bfc: 65 77        	adc	$77                     ; 0x2077 <_ZN12_GLOBAL__N_13putEcP6Status+0xb2>
    2bfe: 85 13        	sta	$13                     ; 0x2013 <_ZN12_GLOBAL__N_13putEcP6Status+0x4e>
    2c00: 8a           	txa
    2c01: 92 12        	sta	($12)                   ; 0x2012 <_ZN12_GLOBAL__N_13putEcP6Status+0x4d>
    2c03: 80 0d        	bra	$2c12 <printf+0xa66>
    2c05: 85 33        	sta	$33                     ; 0x2033 <_ZN12_GLOBAL__N_13putEcP6Status+0x6e>
    2c07: a2 33        	ldx	#$33
    2c09: 86 12        	stx	$12                     ; 0x2012 <_ZN12_GLOBAL__N_13putEcP6Status+0x4d>
    2c0b: a2 00        	ldx	#$0
    2c0d: 86 13        	stx	$13                     ; 0x2013 <_ZN12_GLOBAL__N_13putEcP6Status+0x4e>
    2c0f: 20 c0 19     	jsr	$19c0 <textPrint>
    2c12: e6 72        	inc	$72                     ; 0x2072 <_ZN12_GLOBAL__N_13putEcP6Status+0xad>
    2c14: d0 02        	bne	$2c18 <printf+0xa6c>
    2c16: e6 73        	inc	$73                     ; 0x2073 <_ZN12_GLOBAL__N_13putEcP6Status+0xae>
    2c18: c6 45        	dec	$45                     ; 0x2045 <_ZN12_GLOBAL__N_13putEcP6Status+0x80>
    2c1a: a2 ff        	ldx	#$ff
    2c1c: c6 3d        	dec	$3d                     ; 0x203d <_ZN12_GLOBAL__N_13putEcP6Status+0x78>
    2c1e: e4 3d        	cpx	$3d                     ; 0x203d <_ZN12_GLOBAL__N_13putEcP6Status+0x78>
    2c20: d0 02        	bne	$2c24 <printf+0xa78>
    2c22: c6 3e        	dec	$3e                     ; 0x203e <_ZN12_GLOBAL__N_13putEcP6Status+0x79>
    2c24: a5 45        	lda	$45                     ; 0x2045 <_ZN12_GLOBAL__N_13putEcP6Status+0x80>
    2c26: f0 0e        	beq	$2c36 <printf+0xa8a>
    2c28: b2 3d        	lda	($3d)                   ; 0x203d <_ZN12_GLOBAL__N_13putEcP6Status+0x78>
    2c2a: c9 0a        	cmp	#$a
    2c2c: 90 03        	bcc	$2c31 <printf+0xa85>
    2c2e: 4c b7 2b     	jmp	$2bb7 <printf+0xa0b>
    2c31: 09 30        	ora	#$30
    2c33: 4c cd 2b     	jmp	$2bcd <printf+0xa21>
    2c36: a5 4b        	lda	$4b                     ; 0x204b <_ZN12_GLOBAL__N_13putEcP6Status+0x86>
    2c38: c9 0a        	cmp	#$a
    2c3a: b0 04        	bcs	$2c40 <printf+0xa94>
    2c3c: 09 30        	ora	#$30
    2c3e: 80 16        	bra	$2c56 <printf+0xaaa>
    2c40: a8           	tay
    2c41: a9 80        	lda	#$80
    2c43: 25 6e        	and	$6e                     ; 0x206e <_ZN12_GLOBAL__N_13putEcP6Status+0xa9>
    2c45: f0 04        	beq	$2c4b <printf+0xa9f>
    2c47: a2 61        	ldx	#$61
    2c49: 80 02        	bra	$2c4d <printf+0xaa1>
    2c4b: a2 41        	ldx	#$41
    2c4d: 86 12        	stx	$12                     ; 0x2012 <_ZN12_GLOBAL__N_13putEcP6Status+0x4d>
    2c4f: 18           	clc
    2c50: 98           	tya
    2c51: 65 12        	adc	$12                     ; 0x2012 <_ZN12_GLOBAL__N_13putEcP6Status+0x4d>
    2c53: 18           	clc
    2c54: 69 f6        	adc	#$f6
    2c56: a4 72        	ldy	$72                     ; 0x2072 <_ZN12_GLOBAL__N_13putEcP6Status+0xad>
    2c58: a6 73        	ldx	$73                     ; 0x2073 <_ZN12_GLOBAL__N_13putEcP6Status+0xae>
    2c5a: e4 71        	cpx	$71                     ; 0x2071 <_ZN12_GLOBAL__N_13putEcP6Status+0xac>
    2c5c: d0 0c        	bne	$2c6a <printf+0xabe>
    2c5e: 86 14        	stx	$14                     ; 0x2014 <_ZN12_GLOBAL__N_13putEcP6Status+0x4f>
    2c60: a6 70        	ldx	$70                     ; 0x2070 <_ZN12_GLOBAL__N_13putEcP6Status+0xab>
    2c62: 86 12        	stx	$12                     ; 0x2012 <_ZN12_GLOBAL__N_13putEcP6Status+0x4d>
    2c64: c4 12        	cpy	$12                     ; 0x2012 <_ZN12_GLOBAL__N_13putEcP6Status+0x4d>
    2c66: 90 08        	bcc	$2c70 <printf+0xac4>
    2c68: 80 31        	bra	$2c9b <printf+0xaef>
    2c6a: 86 14        	stx	$14                     ; 0x2014 <_ZN12_GLOBAL__N_13putEcP6Status+0x4f>
    2c6c: e4 71        	cpx	$71                     ; 0x2071 <_ZN12_GLOBAL__N_13putEcP6Status+0xac>
    2c6e: b0 2b        	bcs	$2c9b <printf+0xaef>
    2c70: a6 7d        	ldx	$7d                     ; 0x207d <_ZN12_GLOBAL__N_13putEcP6Status+0xb8>
    2c72: e4 42        	cpx	$42                     ; 0x2042 <_ZN12_GLOBAL__N_13putEcP6Status+0x7d>
    2c74: d0 18        	bne	$2c8e <printf+0xae2>
    2c76: a6 7c        	ldx	$7c                     ; 0x207c <_ZN12_GLOBAL__N_13putEcP6Status+0xb7>
    2c78: e4 41        	cpx	$41                     ; 0x2041 <_ZN12_GLOBAL__N_13putEcP6Status+0x7c>
    2c7a: d0 12        	bne	$2c8e <printf+0xae2>
    2c7c: 18           	clc
    2c7d: aa           	tax
    2c7e: 98           	tya
    2c7f: 65 76        	adc	$76                     ; 0x2076 <_ZN12_GLOBAL__N_13putEcP6Status+0xb1>
    2c81: 85 12        	sta	$12                     ; 0x2012 <_ZN12_GLOBAL__N_13putEcP6Status+0x4d>
    2c83: a5 14        	lda	$14                     ; 0x2014 <_ZN12_GLOBAL__N_13putEcP6Status+0x4f>
    2c85: 65 77        	adc	$77                     ; 0x2077 <_ZN12_GLOBAL__N_13putEcP6Status+0xb2>
    2c87: 85 13        	sta	$13                     ; 0x2013 <_ZN12_GLOBAL__N_13putEcP6Status+0x4e>
    2c89: 8a           	txa
    2c8a: 92 12        	sta	($12)                   ; 0x2012 <_ZN12_GLOBAL__N_13putEcP6Status+0x4d>
    2c8c: 80 0d        	bra	$2c9b <printf+0xaef>
    2c8e: 85 33        	sta	$33                     ; 0x2033 <_ZN12_GLOBAL__N_13putEcP6Status+0x6e>
    2c90: a2 33        	ldx	#$33
    2c92: 86 12        	stx	$12                     ; 0x2012 <_ZN12_GLOBAL__N_13putEcP6Status+0x4d>
    2c94: a2 00        	ldx	#$0
    2c96: 86 13        	stx	$13                     ; 0x2013 <_ZN12_GLOBAL__N_13putEcP6Status+0x4e>
    2c98: 20 c0 19     	jsr	$19c0 <textPrint>
    2c9b: e6 72        	inc	$72                     ; 0x2072 <_ZN12_GLOBAL__N_13putEcP6Status+0xad>
    2c9d: d0 02        	bne	$2ca1 <printf+0xaf5>
    2c9f: e6 73        	inc	$73                     ; 0x2073 <_ZN12_GLOBAL__N_13putEcP6Status+0xae>
    2ca1: a5 6e        	lda	$6e                     ; 0x206e <_ZN12_GLOBAL__N_13putEcP6Status+0xa9>
    2ca3: 29 01        	and	#$1
    2ca5: d0 1e        	bne	$2cc5 <printf+0xb19>
    2ca7: a6 72        	ldx	$72                     ; 0x2072 <_ZN12_GLOBAL__N_13putEcP6Status+0xad>
    2ca9: 86 14        	stx	$14                     ; 0x2014 <_ZN12_GLOBAL__N_13putEcP6Status+0x4f>
    2cab: a5 73        	lda	$73                     ; 0x2073 <_ZN12_GLOBAL__N_13putEcP6Status+0xae>
    2cad: a4 70        	ldy	$70                     ; 0x2070 <_ZN12_GLOBAL__N_13putEcP6Status+0xab>
    2caf: a6 71        	ldx	$71                     ; 0x2071 <_ZN12_GLOBAL__N_13putEcP6Status+0xac>
    2cb1: 86 12        	stx	$12                     ; 0x2012 <_ZN12_GLOBAL__N_13putEcP6Status+0x4d>
    2cb3: 86 13        	stx	$13                     ; 0x2013 <_ZN12_GLOBAL__N_13putEcP6Status+0x4e>
    2cb5: c5 12        	cmp	$12                     ; 0x2012 <_ZN12_GLOBAL__N_13putEcP6Status+0x4d>
    2cb7: f0 03        	beq	$2cbc <printf+0xb10>
    2cb9: 4c 52 2d     	jmp	$2d52 <printf+0xba6>
    2cbc: 84 12        	sty	$12                     ; 0x2012 <_ZN12_GLOBAL__N_13putEcP6Status+0x4d>
    2cbe: a6 14        	ldx	$14                     ; 0x2014 <_ZN12_GLOBAL__N_13putEcP6Status+0x4f>
    2cc0: e4 12        	cpx	$12                     ; 0x2012 <_ZN12_GLOBAL__N_13putEcP6Status+0x4d>
    2cc2: 4c 56 2d     	jmp	$2d56 <printf+0xbaa>
    2cc5: a6 72        	ldx	$72                     ; 0x2072 <_ZN12_GLOBAL__N_13putEcP6Status+0xad>
    2cc7: 86 14        	stx	$14                     ; 0x2014 <_ZN12_GLOBAL__N_13putEcP6Status+0x4f>
    2cc9: a5 73        	lda	$73                     ; 0x2073 <_ZN12_GLOBAL__N_13putEcP6Status+0xae>
    2ccb: a6 48        	ldx	$48                     ; 0x2048 <_ZN12_GLOBAL__N_13putEcP6Status+0x83>
    2ccd: a4 47        	ldy	$47                     ; 0x2047 <_ZN12_GLOBAL__N_13putEcP6Status+0x82>
    2ccf: f0 03        	beq	$2cd4 <printf+0xb28>
    2cd1: 4c 3e 2d     	jmp	$2d3e <printf+0xb92>
    2cd4: e0 00        	cpx	#$0
    2cd6: f0 d5        	beq	$2cad <printf+0xb01>
    2cd8: 4c 3e 2d     	jmp	$2d3e <printf+0xb92>
    2cdb: c5 71        	cmp	$71                     ; 0x2071 <_ZN12_GLOBAL__N_13putEcP6Status+0xac>
    2cdd: b0 2e        	bcs	$2d0d <printf+0xb61>
    2cdf: a6 7d        	ldx	$7d                     ; 0x207d <_ZN12_GLOBAL__N_13putEcP6Status+0xb8>
    2ce1: e4 42        	cpx	$42                     ; 0x2042 <_ZN12_GLOBAL__N_13putEcP6Status+0x7d>
    2ce3: d0 19        	bne	$2cfe <printf+0xb52>
    2ce5: a6 7c        	ldx	$7c                     ; 0x207c <_ZN12_GLOBAL__N_13putEcP6Status+0xb7>
    2ce7: e4 41        	cpx	$41                     ; 0x2041 <_ZN12_GLOBAL__N_13putEcP6Status+0x7c>
    2ce9: d0 13        	bne	$2cfe <printf+0xb52>
    2ceb: 18           	clc
    2cec: aa           	tax
    2ced: a5 14        	lda	$14                     ; 0x2014 <_ZN12_GLOBAL__N_13putEcP6Status+0x4f>
    2cef: 65 76        	adc	$76                     ; 0x2076 <_ZN12_GLOBAL__N_13putEcP6Status+0xb1>
    2cf1: 85 12        	sta	$12                     ; 0x2012 <_ZN12_GLOBAL__N_13putEcP6Status+0x4d>
    2cf3: 8a           	txa
    2cf4: 65 77        	adc	$77                     ; 0x2077 <_ZN12_GLOBAL__N_13putEcP6Status+0xb2>
    2cf6: 85 13        	sta	$13                     ; 0x2013 <_ZN12_GLOBAL__N_13putEcP6Status+0x4e>
    2cf8: a9 20        	lda	#$20
    2cfa: 92 12        	sta	($12)                   ; 0x2012 <_ZN12_GLOBAL__N_13putEcP6Status+0x4d>
    2cfc: 80 0f        	bra	$2d0d <printf+0xb61>
    2cfe: a2 20        	ldx	#$20
    2d00: 86 33        	stx	$33                     ; 0x2033 <_ZN12_GLOBAL__N_13putEcP6Status+0x6e>
    2d02: a2 33        	ldx	#$33
    2d04: 86 12        	stx	$12                     ; 0x2012 <_ZN12_GLOBAL__N_13putEcP6Status+0x4d>
    2d06: a2 00        	ldx	#$0
    2d08: 86 13        	stx	$13                     ; 0x2013 <_ZN12_GLOBAL__N_13putEcP6Status+0x4e>
    2d0a: 20 c0 19     	jsr	$19c0 <textPrint>
    2d0d: a6 72        	ldx	$72                     ; 0x2072 <_ZN12_GLOBAL__N_13putEcP6Status+0xad>
    2d0f: a5 73        	lda	$73                     ; 0x2073 <_ZN12_GLOBAL__N_13putEcP6Status+0xae>
    2d11: e8           	inx
    2d12: d0 01        	bne	$2d15 <printf+0xb69>
    2d14: 1a           	inc
    2d15: 86 14        	stx	$14                     ; 0x2014 <_ZN12_GLOBAL__N_13putEcP6Status+0x4f>
    2d17: 86 72        	stx	$72                     ; 0x2072 <_ZN12_GLOBAL__N_13putEcP6Status+0xad>
    2d19: 85 73        	sta	$73                     ; 0x2073 <_ZN12_GLOBAL__N_13putEcP6Status+0xae>
    2d1b: a6 48        	ldx	$48                     ; 0x2048 <_ZN12_GLOBAL__N_13putEcP6Status+0x83>
    2d1d: 86 12        	stx	$12                     ; 0x2012 <_ZN12_GLOBAL__N_13putEcP6Status+0x4d>
    2d1f: a6 47        	ldx	$47                     ; 0x2047 <_ZN12_GLOBAL__N_13putEcP6Status+0x82>
    2d21: 86 13        	stx	$13                     ; 0x2013 <_ZN12_GLOBAL__N_13putEcP6Status+0x4e>
    2d23: a2 ff        	ldx	#$ff
    2d25: c6 12        	dec	$12                     ; 0x2012 <_ZN12_GLOBAL__N_13putEcP6Status+0x4d>
    2d27: e4 12        	cpx	$12                     ; 0x2012 <_ZN12_GLOBAL__N_13putEcP6Status+0x4d>
    2d29: d0 02        	bne	$2d2d <printf+0xb81>
    2d2b: c6 13        	dec	$13                     ; 0x2013 <_ZN12_GLOBAL__N_13putEcP6Status+0x4e>
    2d2d: a6 12        	ldx	$12                     ; 0x2012 <_ZN12_GLOBAL__N_13putEcP6Status+0x4d>
    2d2f: 86 48        	stx	$48                     ; 0x2048 <_ZN12_GLOBAL__N_13putEcP6Status+0x83>
    2d31: a6 13        	ldx	$13                     ; 0x2013 <_ZN12_GLOBAL__N_13putEcP6Status+0x4e>
    2d33: 86 47        	stx	$47                     ; 0x2047 <_ZN12_GLOBAL__N_13putEcP6Status+0x82>
    2d35: d0 07        	bne	$2d3e <printf+0xb92>
    2d37: a6 12        	ldx	$12                     ; 0x2012 <_ZN12_GLOBAL__N_13putEcP6Status+0x4d>
    2d39: d0 03        	bne	$2d3e <printf+0xb92>
    2d3b: 4c ad 2c     	jmp	$2cad <printf+0xb01>
    2d3e: c5 71        	cmp	$71                     ; 0x2071 <_ZN12_GLOBAL__N_13putEcP6Status+0xac>
    2d40: f0 03        	beq	$2d45 <printf+0xb99>
    2d42: 4c db 2c     	jmp	$2cdb <printf+0xb2f>
    2d45: a6 70        	ldx	$70                     ; 0x2070 <_ZN12_GLOBAL__N_13putEcP6Status+0xab>
    2d47: 86 12        	stx	$12                     ; 0x2012 <_ZN12_GLOBAL__N_13putEcP6Status+0x4d>
    2d49: a6 14        	ldx	$14                     ; 0x2014 <_ZN12_GLOBAL__N_13putEcP6Status+0x4f>
    2d4b: e4 12        	cpx	$12                     ; 0x2012 <_ZN12_GLOBAL__N_13putEcP6Status+0x4d>
    2d4d: b0 be        	bcs	$2d0d <printf+0xb61>
    2d4f: 4c df 2c     	jmp	$2cdf <printf+0xb33>
    2d52: 86 12        	stx	$12                     ; 0x2012 <_ZN12_GLOBAL__N_13putEcP6Status+0x4d>
    2d54: c5 12        	cmp	$12                     ; 0x2012 <_ZN12_GLOBAL__N_13putEcP6Status+0x4d>
    2d56: 98           	tya
    2d57: a0 01        	ldy	#$1
    2d59: 90 20        	bcc	$2d7b <printf+0xbcf>
    2d5b: a6 13        	ldx	$13                     ; 0x2013 <_ZN12_GLOBAL__N_13putEcP6Status+0x4e>
    2d5d: d0 03        	bne	$2d62 <printf+0xbb6>
    2d5f: aa           	tax
    2d60: f0 19        	beq	$2d7b <printf+0xbcf>
    2d62: 18           	clc
    2d63: 65 76        	adc	$76                     ; 0x2076 <_ZN12_GLOBAL__N_13putEcP6Status+0xb1>
    2d65: 85 12        	sta	$12                     ; 0x2012 <_ZN12_GLOBAL__N_13putEcP6Status+0x4d>
    2d67: a5 13        	lda	$13                     ; 0x2013 <_ZN12_GLOBAL__N_13putEcP6Status+0x4e>
    2d69: 65 77        	adc	$77                     ; 0x2077 <_ZN12_GLOBAL__N_13putEcP6Status+0xb2>
    2d6b: 85 13        	sta	$13                     ; 0x2013 <_ZN12_GLOBAL__N_13putEcP6Status+0x4e>
    2d6d: a2 ff        	ldx	#$ff
    2d6f: c6 12        	dec	$12                     ; 0x2012 <_ZN12_GLOBAL__N_13putEcP6Status+0x4d>
    2d71: e4 12        	cpx	$12                     ; 0x2012 <_ZN12_GLOBAL__N_13putEcP6Status+0x4d>
    2d73: d0 02        	bne	$2d77 <printf+0xbcb>
    2d75: c6 13        	dec	$13                     ; 0x2013 <_ZN12_GLOBAL__N_13putEcP6Status+0x4e>
    2d77: a9 00        	lda	#$0
    2d79: 92 12        	sta	($12)                   ; 0x2012 <_ZN12_GLOBAL__N_13putEcP6Status+0x4d>
    2d7b: e6 3f        	inc	$3f                     ; 0x203f <_ZN12_GLOBAL__N_13putEcP6Status+0x7a>
    2d7d: d0 02        	bne	$2d81 <printf+0xbd5>
    2d7f: e6 40        	inc	$40                     ; 0x2040 <_ZN12_GLOBAL__N_13putEcP6Status+0x7b>
    2d81: a6 40        	ldx	$40                     ; 0x2040 <_ZN12_GLOBAL__N_13putEcP6Status+0x7b>
    2d83: e4 44        	cpx	$44                     ; 0x2044 <_ZN12_GLOBAL__N_13putEcP6Status+0x7f>
    2d85: f0 03        	beq	$2d8a <printf+0xbde>
    2d87: 4c 11 22     	jmp	$2211 <printf+0x65>
    2d8a: a6 3f        	ldx	$3f                     ; 0x203f <_ZN12_GLOBAL__N_13putEcP6Status+0x7a>
    2d8c: e4 43        	cpx	$43                     ; 0x2043 <_ZN12_GLOBAL__N_13putEcP6Status+0x7e>
    2d8e: f0 03        	beq	$2d93 <printf+0xbe7>
    2d90: 4c 11 22     	jmp	$2211 <printf+0x65>
    2d93: b2 43        	lda	($43)                   ; 0x2043 <_ZN12_GLOBAL__N_13putEcP6Status+0x7e>
    2d95: a2 00        	ldx	#$0
    2d97: 86 41        	stx	$41                     ; 0x2041 <_ZN12_GLOBAL__N_13putEcP6Status+0x7c>
    2d99: a2 00        	ldx	#$0
    2d9b: 86 42        	stx	$42                     ; 0x2042 <_ZN12_GLOBAL__N_13putEcP6Status+0x7d>
    2d9d: 4c 25 22     	jmp	$2225 <printf+0x79>
    2da0: e4 46        	cpx	$46                     ; 0x2046 <_ZN12_GLOBAL__N_13putEcP6Status+0x81>
    2da2: a6 3e        	ldx	$3e                     ; 0x203e <_ZN12_GLOBAL__N_13putEcP6Status+0x79>
    2da4: b0 03        	bcs	$2da9 <printf+0xbfd>
    2da6: 4c 76 28     	jmp	$2876 <printf+0x6ca>
    2da9: a5 3d        	lda	$3d                     ; 0x203d <_ZN12_GLOBAL__N_13putEcP6Status+0x78>
    2dab: 85 45        	sta	$45                     ; 0x2045 <_ZN12_GLOBAL__N_13putEcP6Status+0x80>
    2dad: 64 46        	stz	$46                     ; 0x2046 <_ZN12_GLOBAL__N_13putEcP6Status+0x81>
    2daf: e6 45        	inc	$45                     ; 0x2045 <_ZN12_GLOBAL__N_13putEcP6Status+0x80>
    2db1: f0 03        	beq	$2db6 <printf+0xc0a>
    2db3: 4c 76 28     	jmp	$2876 <printf+0x6ca>
    2db6: e6 46        	inc	$46                     ; 0x2046 <_ZN12_GLOBAL__N_13putEcP6Status+0x81>
    2db8: 4c 76 28     	jmp	$2876 <printf+0x6ca>
    2dbb: a2 58        	ldx	#$58
    2dbd: 86 87        	stx	$87                     ; 0x2087 <_ZN12_GLOBAL__N_13putEcP6Status+0xc2>
    2dbf: a2 01        	ldx	#$1
    2dc1: 86 82        	stx	$82                     ; 0x2082 <_ZN12_GLOBAL__N_13putEcP6Status+0xbd>
    2dc3: a2 30        	ldx	#$30
    2dc5: 86 86        	stx	$86                     ; 0x2086 <_ZN12_GLOBAL__N_13putEcP6Status+0xc1>
    2dc7: a9 02        	lda	#$2
    2dc9: a2 00        	ldx	#$0
    2dcb: 86 83        	stx	$83                     ; 0x2083 <_ZN12_GLOBAL__N_13putEcP6Status+0xbe>
    2dcd: 4c b7 28     	jmp	$28b7 <printf+0x70b>
    2dd0: 64 48        	stz	$48                     ; 0x2048 <_ZN12_GLOBAL__N_13putEcP6Status+0x83>
    2dd2: 64 47        	stz	$47                     ; 0x2047 <_ZN12_GLOBAL__N_13putEcP6Status+0x82>
    2dd4: 4c 0c 2b     	jmp	$2b0c <printf+0x960>
    2dd7: 60           	rts

00002dd8 <puts>:
    2dd8: b2 12        	lda	($12)                   ; 0x2012 <_ZN12_GLOBAL__N_13putEcP6Status+0x4d>
    2dda: f0 32        	beq	$2e0e <puts+0x36>
    2ddc: a6 12        	ldx	$12                     ; 0x2012 <_ZN12_GLOBAL__N_13putEcP6Status+0x4d>
    2dde: 86 3d        	stx	$3d                     ; 0x203d <_ZN12_GLOBAL__N_13putEcP6Status+0x78>
    2de0: a6 13        	ldx	$13                     ; 0x2013 <_ZN12_GLOBAL__N_13putEcP6Status+0x4e>
    2de2: 86 3e        	stx	$3e                     ; 0x203e <_ZN12_GLOBAL__N_13putEcP6Status+0x79>
    2de4: a6 12        	ldx	$12                     ; 0x2012 <_ZN12_GLOBAL__N_13putEcP6Status+0x4d>
    2de6: 86 3f        	stx	$3f                     ; 0x203f <_ZN12_GLOBAL__N_13putEcP6Status+0x7a>
    2de8: a6 13        	ldx	$13                     ; 0x2013 <_ZN12_GLOBAL__N_13putEcP6Status+0x4e>
    2dea: 86 40        	stx	$40                     ; 0x2040 <_ZN12_GLOBAL__N_13putEcP6Status+0x7b>
    2dec: e6 3f        	inc	$3f                     ; 0x203f <_ZN12_GLOBAL__N_13putEcP6Status+0x7a>
    2dee: d0 02        	bne	$2df2 <puts+0x1a>
    2df0: e6 40        	inc	$40                     ; 0x2040 <_ZN12_GLOBAL__N_13putEcP6Status+0x7b>
    2df2: 85 33        	sta	$33                     ; 0x2033 <_ZN12_GLOBAL__N_13putEcP6Status+0x6e>
    2df4: a2 33        	ldx	#$33
    2df6: 86 12        	stx	$12                     ; 0x2012 <_ZN12_GLOBAL__N_13putEcP6Status+0x4d>
    2df8: a2 00        	ldx	#$0
    2dfa: 86 13        	stx	$13                     ; 0x2013 <_ZN12_GLOBAL__N_13putEcP6Status+0x4e>
    2dfc: 20 c0 19     	jsr	$19c0 <textPrint>
    2dff: a0 01        	ldy	#$1
    2e01: b1 3d        	lda	($3d),y                 ; 0x203d <_ZN12_GLOBAL__N_13putEcP6Status+0x78>
    2e03: a6 3f        	ldx	$3f                     ; 0x203f <_ZN12_GLOBAL__N_13putEcP6Status+0x7a>
    2e05: 86 3d        	stx	$3d                     ; 0x203d <_ZN12_GLOBAL__N_13putEcP6Status+0x78>
    2e07: a6 40        	ldx	$40                     ; 0x2040 <_ZN12_GLOBAL__N_13putEcP6Status+0x7b>
    2e09: 86 3e        	stx	$3e                     ; 0x203e <_ZN12_GLOBAL__N_13putEcP6Status+0x79>
    2e0b: aa           	tax
    2e0c: d0 de        	bne	$2dec <puts+0x14>
    2e0e: a2 0a        	ldx	#$a
    2e10: 86 33        	stx	$33                     ; 0x2033 <_ZN12_GLOBAL__N_13putEcP6Status+0x6e>
    2e12: a2 33        	ldx	#$33
    2e14: 86 12        	stx	$12                     ; 0x2012 <_ZN12_GLOBAL__N_13putEcP6Status+0x4d>
    2e16: a2 00        	ldx	#$0
    2e18: 86 13        	stx	$13                     ; 0x2013 <_ZN12_GLOBAL__N_13putEcP6Status+0x4e>
    2e1a: 4c c0 19     	jmp	$19c0 <textPrint>

00002e1d <malloc>:
    2e1d: a8           	tay
    2e1e: 8a           	txa
    2e1f: a2 00        	ldx	#$0
    2e21: 86 12        	stx	$12                     ; 0x2012 <_ZN12_GLOBAL__N_13putEcP6Status+0x4d>
    2e23: a2 00        	ldx	#$0
    2e25: 86 13        	stx	$13                     ; 0x2013 <_ZN12_GLOBAL__N_13putEcP6Status+0x4e>
    2e27: aa           	tax
    2e28: d0 07        	bne	$2e31 <malloc+0x14>
    2e2a: c0 00        	cpy	#$0
    2e2c: d0 03        	bne	$2e31 <malloc+0x14>
    2e2e: 4c 23 2f     	jmp	$2f23 <malloc+0x106>
    2e31: 84 16        	sty	$16                     ; 0x2016 <_ZN12_GLOBAL__N_13putEcP6Status+0x51>
    2e33: aa           	tax
    2e34: d0 0e        	bne	$2e44 <malloc+0x27>
    2e36: a6 16        	ldx	$16                     ; 0x2016 <_ZN12_GLOBAL__N_13putEcP6Status+0x51>
    2e38: e0 07        	cpx	#$7
    2e3a: b0 0c        	bcs	$2e48 <malloc+0x2b>
    2e3c: a2 08        	ldx	#$8
    2e3e: 86 3e        	stx	$3e                     ; 0x203e <_ZN12_GLOBAL__N_13putEcP6Status+0x79>
    2e40: a9 00        	lda	#$0
    2e42: 80 2f        	bra	$2e73 <malloc+0x56>
    2e44: c9 00        	cmp	#$0
    2e46: 90 f4        	bcc	$2e3c <malloc+0x1f>
    2e48: a8           	tay
    2e49: a5 16        	lda	$16                     ; 0x2016 <_ZN12_GLOBAL__N_13putEcP6Status+0x51>
    2e4b: 29 01        	and	#$1
    2e4d: a2 02        	ldx	#$2
    2e4f: 64 14        	stz	$14                     ; 0x2014 <_ZN12_GLOBAL__N_13putEcP6Status+0x4f>
    2e51: c9 00        	cmp	#$0
    2e53: f0 02        	beq	$2e57 <malloc+0x3a>
    2e55: a2 03        	ldx	#$3
    2e57: 86 15        	stx	$15                     ; 0x2015 <_ZN12_GLOBAL__N_13putEcP6Status+0x50>
    2e59: 18           	clc
    2e5a: a5 16        	lda	$16                     ; 0x2016 <_ZN12_GLOBAL__N_13putEcP6Status+0x51>
    2e5c: 65 15        	adc	$15                     ; 0x2015 <_ZN12_GLOBAL__N_13putEcP6Status+0x50>
    2e5e: aa           	tax
    2e5f: 98           	tya
    2e60: 65 14        	adc	$14                     ; 0x2014 <_ZN12_GLOBAL__N_13putEcP6Status+0x4f>
    2e62: 90 03        	bcc	$2e67 <malloc+0x4a>
    2e64: 4c 23 2f     	jmp	$2f23 <malloc+0x106>
    2e67: 86 3e        	stx	$3e                     ; 0x203e <_ZN12_GLOBAL__N_13putEcP6Status+0x79>
    2e69: a8           	tay
    2e6a: d0 07        	bne	$2e73 <malloc+0x56>
    2e6c: e0 00        	cpx	#$0
    2e6e: d0 03        	bne	$2e73 <malloc+0x56>
    2e70: 4c 23 2f     	jmp	$2f23 <malloc+0x106>
    2e73: 85 3d        	sta	$3d                     ; 0x203d <_ZN12_GLOBAL__N_13putEcP6Status+0x78>
    2e75: ad 5d 5e     	lda	$5e5d                   ; 0x5e5d <_ZN12_GLOBAL__N_111initializedE>
    2e78: 29 01        	and	#$1
    2e7a: d0 2d        	bne	$2ea9 <malloc+0x8c>
    2e7c: a9 00        	lda	#$0
    2e7e: a2 10        	ldx	#$10
    2e80: a0 64        	ldy	#$64
    2e82: 84 12        	sty	$12                     ; 0x2012 <_ZN12_GLOBAL__N_13putEcP6Status+0x4d>
    2e84: a0 5e        	ldy	#$5e
    2e86: 84 13        	sty	$13                     ; 0x2013 <_ZN12_GLOBAL__N_13putEcP6Status+0x4e>
    2e88: 20 16 03     	jsr	$316 <_ZN12_GLOBAL__N_19FreeChunk6insertEPvj>
    2e8b: a2 00        	ldx	#$0
    2e8d: 86 12        	stx	$12                     ; 0x2012 <_ZN12_GLOBAL__N_13putEcP6Status+0x4d>
    2e8f: a2 00        	ldx	#$0
    2e91: 86 13        	stx	$13                     ; 0x2013 <_ZN12_GLOBAL__N_13putEcP6Status+0x4e>
    2e93: ae 65 5e     	ldx	$5e65                   ; 0x5e65 <__heap_start+0x1>
    2e96: a9 fe        	lda	#$fe
    2e98: 2d 64 5e     	and	$5e64                   ; 0x5e64 <__heap_start>
    2e9b: 8d 64 5e     	sta	$5e64                   ; 0x5e64 <__heap_start>
    2e9e: 8e 65 5e     	stx	$5e65                   ; 0x5e65 <__heap_start+0x1>
    2ea1: a2 01        	ldx	#$1
    2ea3: 8e 5e 5e     	stx	$5e5e                   ; 0x5e5e <_ZN12_GLOBAL__N_19last_freeE>
    2ea6: 8e 5d 5e     	stx	$5e5d                   ; 0x5e5d <_ZN12_GLOBAL__N_111initializedE>
    2ea9: ae 61 5e     	ldx	$5e61                   ; 0x5e61 <_ZN12_GLOBAL__N_19free_listE>
    2eac: 86 16        	stx	$16                     ; 0x2016 <_ZN12_GLOBAL__N_13putEcP6Status+0x51>
    2eae: ac 62 5e     	ldy	$5e62                   ; 0x5e62 <_ZN12_GLOBAL__N_19free_listE+0x1>
    2eb1: 84 17        	sty	$17                     ; 0x2017 <_ZN12_GLOBAL__N_13putEcP6Status+0x52>
    2eb3: a9 00        	lda	#$0
    2eb5: 85 14        	sta	$14                     ; 0x2014 <_ZN12_GLOBAL__N_13putEcP6Status+0x4f>
    2eb7: a9 00        	lda	#$0
    2eb9: 85 15        	sta	$15                     ; 0x2015 <_ZN12_GLOBAL__N_13putEcP6Status+0x50>
    2ebb: c4 15        	cpy	$15                     ; 0x2015 <_ZN12_GLOBAL__N_13putEcP6Status+0x50>
    2ebd: d0 07        	bne	$2ec6 <malloc+0xa9>
    2ebf: e4 14        	cpx	$14                     ; 0x2014 <_ZN12_GLOBAL__N_13putEcP6Status+0x4f>
    2ec1: d0 03        	bne	$2ec6 <malloc+0xa9>
    2ec3: 4c 23 2f     	jmp	$2f23 <malloc+0x106>
    2ec6: a2 00        	ldx	#$0
    2ec8: a0 10        	ldy	#$10
    2eca: 86 14        	stx	$14                     ; 0x2014 <_ZN12_GLOBAL__N_13putEcP6Status+0x4f>
    2ecc: 84 15        	sty	$15                     ; 0x2015 <_ZN12_GLOBAL__N_13putEcP6Status+0x50>
    2ece: 18           	clc
    2ecf: a9 64        	lda	#$64
    2ed1: 65 14        	adc	$14                     ; 0x2014 <_ZN12_GLOBAL__N_13putEcP6Status+0x4f>
    2ed3: 85 18        	sta	$18                     ; 0x2018 <_ZN12_GLOBAL__N_13putEcP6Status+0x53>
    2ed5: a9 5e        	lda	#$5e
    2ed7: 65 15        	adc	$15                     ; 0x2015 <_ZN12_GLOBAL__N_13putEcP6Status+0x50>
    2ed9: 85 41        	sta	$41                     ; 0x2041 <_ZN12_GLOBAL__N_13putEcP6Status+0x7c>
    2edb: a0 01        	ldy	#$1
    2edd: a6 3d        	ldx	$3d                     ; 0x203d <_ZN12_GLOBAL__N_13putEcP6Status+0x78>
    2edf: 86 19        	stx	$19                     ; 0x2019 <_ZN12_GLOBAL__N_13putEcP6Status+0x54>
    2ee1: a6 16        	ldx	$16                     ; 0x2016 <_ZN12_GLOBAL__N_13putEcP6Status+0x51>
    2ee3: 86 14        	stx	$14                     ; 0x2014 <_ZN12_GLOBAL__N_13putEcP6Status+0x4f>
    2ee5: a6 17        	ldx	$17                     ; 0x2017 <_ZN12_GLOBAL__N_13putEcP6Status+0x52>
    2ee7: 86 15        	stx	$15                     ; 0x2015 <_ZN12_GLOBAL__N_13putEcP6Status+0x50>
    2ee9: b1 14        	lda	($14),y                 ; 0x2014 <_ZN12_GLOBAL__N_13putEcP6Status+0x4f>
    2eeb: c5 19        	cmp	$19                     ; 0x2019 <_ZN12_GLOBAL__N_13putEcP6Status+0x54>
    2eed: d0 0e        	bne	$2efd <malloc+0xe0>
    2eef: b2 14        	lda	($14)                   ; 0x2014 <_ZN12_GLOBAL__N_13putEcP6Status+0x4f>
    2ef1: 29 fe        	and	#$fe
    2ef3: a6 3e        	ldx	$3e                     ; 0x203e <_ZN12_GLOBAL__N_13putEcP6Status+0x79>
    2ef5: 86 1a        	stx	$1a                     ; 0x201a <_ZN12_GLOBAL__N_13putEcP6Status+0x55>
    2ef7: c5 1a        	cmp	$1a                     ; 0x201a <_ZN12_GLOBAL__N_13putEcP6Status+0x55>
    2ef9: b0 29        	bcs	$2f24 <malloc+0x107>
    2efb: 80 04        	bra	$2f01 <malloc+0xe4>
    2efd: c5 19        	cmp	$19                     ; 0x2019 <_ZN12_GLOBAL__N_13putEcP6Status+0x54>
    2eff: b0 23        	bcs	$2f24 <malloc+0x107>
    2f01: a5 14        	lda	$14                     ; 0x2014 <_ZN12_GLOBAL__N_13putEcP6Status+0x4f>
    2f03: 18           	clc
    2f04: 69 02        	adc	#$2
    2f06: 85 1a        	sta	$1a                     ; 0x201a <_ZN12_GLOBAL__N_13putEcP6Status+0x55>
    2f08: a5 15        	lda	$15                     ; 0x2015 <_ZN12_GLOBAL__N_13putEcP6Status+0x50>
    2f0a: 69 00        	adc	#$0
    2f0c: 85 1b        	sta	$1b                     ; 0x201b <_ZN12_GLOBAL__N_13putEcP6Status+0x56>
    2f0e: a0 02        	ldy	#$2
    2f10: b1 14        	lda	($14),y                 ; 0x2014 <_ZN12_GLOBAL__N_13putEcP6Status+0x4f>
    2f12: 85 14        	sta	$14                     ; 0x2014 <_ZN12_GLOBAL__N_13putEcP6Status+0x4f>
    2f14: 88           	dey
    2f15: b1 1a        	lda	($1a),y                 ; 0x201a <_ZN12_GLOBAL__N_13putEcP6Status+0x55>
    2f17: 85 15        	sta	$15                     ; 0x2015 <_ZN12_GLOBAL__N_13putEcP6Status+0x50>
    2f19: c5 17        	cmp	$17                     ; 0x2017 <_ZN12_GLOBAL__N_13putEcP6Status+0x52>
    2f1b: d0 cc        	bne	$2ee9 <malloc+0xcc>
    2f1d: a5 14        	lda	$14                     ; 0x2014 <_ZN12_GLOBAL__N_13putEcP6Status+0x4f>
    2f1f: c5 16        	cmp	$16                     ; 0x2016 <_ZN12_GLOBAL__N_13putEcP6Status+0x51>
    2f21: d0 c6        	bne	$2ee9 <malloc+0xcc>
    2f23: 60           	rts
    2f24: a6 18        	ldx	$18                     ; 0x2018 <_ZN12_GLOBAL__N_13putEcP6Status+0x53>
    2f26: 86 42        	stx	$42                     ; 0x2042 <_ZN12_GLOBAL__N_13putEcP6Status+0x7d>
    2f28: a6 14        	ldx	$14                     ; 0x2014 <_ZN12_GLOBAL__N_13putEcP6Status+0x4f>
    2f2a: 86 12        	stx	$12                     ; 0x2012 <_ZN12_GLOBAL__N_13putEcP6Status+0x4d>
    2f2c: a6 15        	ldx	$15                     ; 0x2015 <_ZN12_GLOBAL__N_13putEcP6Status+0x50>
    2f2e: 86 13        	stx	$13                     ; 0x2013 <_ZN12_GLOBAL__N_13putEcP6Status+0x4e>
    2f30: a6 14        	ldx	$14                     ; 0x2014 <_ZN12_GLOBAL__N_13putEcP6Status+0x4f>
    2f32: 86 3f        	stx	$3f                     ; 0x203f <_ZN12_GLOBAL__N_13putEcP6Status+0x7a>
    2f34: a6 15        	ldx	$15                     ; 0x2015 <_ZN12_GLOBAL__N_13putEcP6Status+0x50>
    2f36: 86 40        	stx	$40                     ; 0x2040 <_ZN12_GLOBAL__N_13putEcP6Status+0x7b>
    2f38: 20 54 04     	jsr	$454 <_ZN12_GLOBAL__N_19FreeChunk6removeEv>
    2f3b: a6 3f        	ldx	$3f                     ; 0x203f <_ZN12_GLOBAL__N_13putEcP6Status+0x7a>
    2f3d: 86 12        	stx	$12                     ; 0x2012 <_ZN12_GLOBAL__N_13putEcP6Status+0x4d>
    2f3f: a6 40        	ldx	$40                     ; 0x2040 <_ZN12_GLOBAL__N_13putEcP6Status+0x7b>
    2f41: 86 13        	stx	$13                     ; 0x2013 <_ZN12_GLOBAL__N_13putEcP6Status+0x4e>
    2f43: a0 01        	ldy	#$1
    2f45: b1 12        	lda	($12),y                 ; 0x2012 <_ZN12_GLOBAL__N_13putEcP6Status+0x4d>
    2f47: 85 15        	sta	$15                     ; 0x2015 <_ZN12_GLOBAL__N_13putEcP6Status+0x50>
    2f49: a9 fe        	lda	#$fe
    2f4b: 32 12        	and	($12)                   ; 0x2012 <_ZN12_GLOBAL__N_13putEcP6Status+0x4d>
    2f4d: 38           	sec
    2f4e: a6 3e        	ldx	$3e                     ; 0x203e <_ZN12_GLOBAL__N_13putEcP6Status+0x79>
    2f50: 86 14        	stx	$14                     ; 0x2014 <_ZN12_GLOBAL__N_13putEcP6Status+0x4f>
    2f52: 85 17        	sta	$17                     ; 0x2017 <_ZN12_GLOBAL__N_13putEcP6Status+0x52>
    2f54: e5 14        	sbc	$14                     ; 0x2014 <_ZN12_GLOBAL__N_13putEcP6Status+0x4f>
    2f56: a8           	tay
    2f57: a6 3d        	ldx	$3d                     ; 0x203d <_ZN12_GLOBAL__N_13putEcP6Status+0x78>
    2f59: 86 14        	stx	$14                     ; 0x2014 <_ZN12_GLOBAL__N_13putEcP6Status+0x4f>
    2f5b: a5 15        	lda	$15                     ; 0x2015 <_ZN12_GLOBAL__N_13putEcP6Status+0x50>
    2f5d: 85 16        	sta	$16                     ; 0x2016 <_ZN12_GLOBAL__N_13putEcP6Status+0x51>
    2f5f: e5 14        	sbc	$14                     ; 0x2014 <_ZN12_GLOBAL__N_13putEcP6Status+0x4f>
    2f61: d0 06        	bne	$2f69 <malloc+0x14c>
    2f63: 85 18        	sta	$18                     ; 0x2018 <_ZN12_GLOBAL__N_13putEcP6Status+0x53>
    2f65: c0 08        	cpy	#$8
    2f67: 80 04        	bra	$2f6d <malloc+0x150>
    2f69: 85 18        	sta	$18                     ; 0x2018 <_ZN12_GLOBAL__N_13putEcP6Status+0x53>
    2f6b: c9 00        	cmp	#$0
    2f6d: a6 42        	ldx	$42                     ; 0x2042 <_ZN12_GLOBAL__N_13putEcP6Status+0x7d>
    2f6f: 86 14        	stx	$14                     ; 0x2014 <_ZN12_GLOBAL__N_13putEcP6Status+0x4f>
    2f71: a6 41        	ldx	$41                     ; 0x2041 <_ZN12_GLOBAL__N_13putEcP6Status+0x7c>
    2f73: 86 15        	stx	$15                     ; 0x2015 <_ZN12_GLOBAL__N_13putEcP6Status+0x50>
    2f75: a5 17        	lda	$17                     ; 0x2017 <_ZN12_GLOBAL__N_13putEcP6Status+0x52>
    2f77: 90 42        	bcc	$2fbb <malloc+0x19e>
    2f79: 18           	clc
    2f7a: a5 3e        	lda	$3e                     ; 0x203e <_ZN12_GLOBAL__N_13putEcP6Status+0x79>
    2f7c: 85 3e        	sta	$3e                     ; 0x203e <_ZN12_GLOBAL__N_13putEcP6Status+0x79>
    2f7e: 65 12        	adc	$12                     ; 0x2012 <_ZN12_GLOBAL__N_13putEcP6Status+0x4d>
    2f80: 85 12        	sta	$12                     ; 0x2012 <_ZN12_GLOBAL__N_13putEcP6Status+0x4d>
    2f82: a6 3d        	ldx	$3d                     ; 0x203d <_ZN12_GLOBAL__N_13putEcP6Status+0x78>
    2f84: 86 3d        	stx	$3d                     ; 0x203d <_ZN12_GLOBAL__N_13putEcP6Status+0x78>
    2f86: a5 3d        	lda	$3d                     ; 0x203d <_ZN12_GLOBAL__N_13putEcP6Status+0x78>
    2f88: 65 13        	adc	$13                     ; 0x2013 <_ZN12_GLOBAL__N_13putEcP6Status+0x4e>
    2f8a: 85 13        	sta	$13                     ; 0x2013 <_ZN12_GLOBAL__N_13putEcP6Status+0x4e>
    2f8c: a6 18        	ldx	$18                     ; 0x2018 <_ZN12_GLOBAL__N_13putEcP6Status+0x53>
    2f8e: 98           	tya
    2f8f: 20 16 03     	jsr	$316 <_ZN12_GLOBAL__N_19FreeChunk6insertEPvj>
    2f92: a6 3f        	ldx	$3f                     ; 0x203f <_ZN12_GLOBAL__N_13putEcP6Status+0x7a>
    2f94: 86 12        	stx	$12                     ; 0x2012 <_ZN12_GLOBAL__N_13putEcP6Status+0x4d>
    2f96: a6 40        	ldx	$40                     ; 0x2040 <_ZN12_GLOBAL__N_13putEcP6Status+0x7b>
    2f98: 86 13        	stx	$13                     ; 0x2013 <_ZN12_GLOBAL__N_13putEcP6Status+0x4e>
    2f9a: a5 3e        	lda	$3e                     ; 0x203e <_ZN12_GLOBAL__N_13putEcP6Status+0x79>
    2f9c: 29 fe        	and	#$fe
    2f9e: 85 14        	sta	$14                     ; 0x2014 <_ZN12_GLOBAL__N_13putEcP6Status+0x4f>
    2fa0: a0 01        	ldy	#$1
    2fa2: 98           	tya
    2fa3: 32 12        	and	($12)                   ; 0x2012 <_ZN12_GLOBAL__N_13putEcP6Status+0x4d>
    2fa5: 05 14        	ora	$14                     ; 0x2014 <_ZN12_GLOBAL__N_13putEcP6Status+0x4f>
    2fa7: 92 12        	sta	($12)                   ; 0x2012 <_ZN12_GLOBAL__N_13putEcP6Status+0x4d>
    2fa9: a5 3d        	lda	$3d                     ; 0x203d <_ZN12_GLOBAL__N_13putEcP6Status+0x78>
    2fab: 91 12        	sta	($12),y                 ; 0x2012 <_ZN12_GLOBAL__N_13putEcP6Status+0x4d>
    2fad: a5 14        	lda	$14                     ; 0x2014 <_ZN12_GLOBAL__N_13putEcP6Status+0x4f>
    2faf: a6 3d        	ldx	$3d                     ; 0x203d <_ZN12_GLOBAL__N_13putEcP6Status+0x78>
    2fb1: 86 16        	stx	$16                     ; 0x2016 <_ZN12_GLOBAL__N_13putEcP6Status+0x51>
    2fb3: a6 42        	ldx	$42                     ; 0x2042 <_ZN12_GLOBAL__N_13putEcP6Status+0x7d>
    2fb5: 86 14        	stx	$14                     ; 0x2014 <_ZN12_GLOBAL__N_13putEcP6Status+0x4f>
    2fb7: a6 41        	ldx	$41                     ; 0x2041 <_ZN12_GLOBAL__N_13putEcP6Status+0x7c>
    2fb9: 86 15        	stx	$15                     ; 0x2015 <_ZN12_GLOBAL__N_13putEcP6Status+0x50>
    2fbb: 18           	clc
    2fbc: 65 12        	adc	$12                     ; 0x2012 <_ZN12_GLOBAL__N_13putEcP6Status+0x4d>
    2fbe: a8           	tay
    2fbf: a5 16        	lda	$16                     ; 0x2016 <_ZN12_GLOBAL__N_13putEcP6Status+0x51>
    2fc1: 65 13        	adc	$13                     ; 0x2013 <_ZN12_GLOBAL__N_13putEcP6Status+0x4e>
    2fc3: c5 15        	cmp	$15                     ; 0x2015 <_ZN12_GLOBAL__N_13putEcP6Status+0x50>
    2fc5: d0 09        	bne	$2fd0 <malloc+0x1b3>
    2fc7: c4 14        	cpy	$14                     ; 0x2014 <_ZN12_GLOBAL__N_13putEcP6Status+0x4f>
    2fc9: d0 05        	bne	$2fd0 <malloc+0x1b3>
    2fcb: 9c 5e 5e     	stz	$5e5e                   ; 0x5e5e <_ZN12_GLOBAL__N_19last_freeE>
    2fce: 80 14        	bra	$2fe4 <malloc+0x1c7>
    2fd0: 84 14        	sty	$14                     ; 0x2014 <_ZN12_GLOBAL__N_13putEcP6Status+0x4f>
    2fd2: 85 15        	sta	$15                     ; 0x2015 <_ZN12_GLOBAL__N_13putEcP6Status+0x50>
    2fd4: a0 01        	ldy	#$1
    2fd6: b1 14        	lda	($14),y                 ; 0x2014 <_ZN12_GLOBAL__N_13putEcP6Status+0x4f>
    2fd8: 85 16        	sta	$16                     ; 0x2016 <_ZN12_GLOBAL__N_13putEcP6Status+0x51>
    2fda: a9 fe        	lda	#$fe
    2fdc: 32 14        	and	($14)                   ; 0x2014 <_ZN12_GLOBAL__N_13putEcP6Status+0x4f>
    2fde: 92 14        	sta	($14)                   ; 0x2014 <_ZN12_GLOBAL__N_13putEcP6Status+0x4f>
    2fe0: a5 16        	lda	$16                     ; 0x2016 <_ZN12_GLOBAL__N_13putEcP6Status+0x51>
    2fe2: 91 14        	sta	($14),y                 ; 0x2014 <_ZN12_GLOBAL__N_13putEcP6Status+0x4f>
    2fe4: a5 12        	lda	$12                     ; 0x2012 <_ZN12_GLOBAL__N_13putEcP6Status+0x4d>
    2fe6: 18           	clc
    2fe7: 69 02        	adc	#$2
    2fe9: 85 12        	sta	$12                     ; 0x2012 <_ZN12_GLOBAL__N_13putEcP6Status+0x4d>
    2feb: a5 13        	lda	$13                     ; 0x2013 <_ZN12_GLOBAL__N_13putEcP6Status+0x4e>
    2fed: 69 00        	adc	#$0
    2fef: 85 13        	sta	$13                     ; 0x2013 <_ZN12_GLOBAL__N_13putEcP6Status+0x4e>
    2ff1: 60           	rts

00002ff2 <memcpy>:
    2ff2: a8           	tay
    2ff3: 8a           	txa
    2ff4: d0 03        	bne	$2ff9 <memcpy+0x7>
    2ff6: 98           	tya
    2ff7: f0 24        	beq	$301d <memcpy+0x2b>
    2ff9: a5 12        	lda	$12                     ; 0x2012 <_ZN12_GLOBAL__N_13putEcP6Status+0x4d>
    2ffb: 85 16        	sta	$16                     ; 0x2016 <_ZN12_GLOBAL__N_13putEcP6Status+0x51>
    2ffd: a5 13        	lda	$13                     ; 0x2013 <_ZN12_GLOBAL__N_13putEcP6Status+0x4e>
    2fff: 85 17        	sta	$17                     ; 0x2017 <_ZN12_GLOBAL__N_13putEcP6Status+0x52>
    3001: b2 14        	lda	($14)                   ; 0x2014 <_ZN12_GLOBAL__N_13putEcP6Status+0x4f>
    3003: 92 16        	sta	($16)                   ; 0x2016 <_ZN12_GLOBAL__N_13putEcP6Status+0x51>
    3005: e6 16        	inc	$16                     ; 0x2016 <_ZN12_GLOBAL__N_13putEcP6Status+0x51>
    3007: d0 02        	bne	$300b <memcpy+0x19>
    3009: e6 17        	inc	$17                     ; 0x2017 <_ZN12_GLOBAL__N_13putEcP6Status+0x52>
    300b: e6 14        	inc	$14                     ; 0x2014 <_ZN12_GLOBAL__N_13putEcP6Status+0x4f>
    300d: d0 02        	bne	$3011 <memcpy+0x1f>
    300f: e6 15        	inc	$15                     ; 0x2015 <_ZN12_GLOBAL__N_13putEcP6Status+0x50>
    3011: 88           	dey
    3012: c0 ff        	cpy	#$ff
    3014: d0 01        	bne	$3017 <memcpy+0x25>
    3016: ca           	dex
    3017: 8a           	txa
    3018: d0 e7        	bne	$3001 <memcpy+0xf>
    301a: 98           	tya
    301b: d0 e4        	bne	$3001 <memcpy+0xf>
    301d: 60           	rts

0000301e <__memset>:
    301e: a4 14        	ldy	$14                     ; 0x2014 <_ZN12_GLOBAL__N_13putEcP6Status+0x4f>
    3020: d0 04        	bne	$3026 <__memset+0x8>
    3022: e0 00        	cpx	#$0
    3024: f0 17        	beq	$303d <__memset+0x1f>
    3026: 92 12        	sta	($12)                   ; 0x2012 <_ZN12_GLOBAL__N_13putEcP6Status+0x4d>
    3028: e6 12        	inc	$12                     ; 0x2012 <_ZN12_GLOBAL__N_13putEcP6Status+0x4d>
    302a: d0 02        	bne	$302e <__memset+0x10>
    302c: e6 13        	inc	$13                     ; 0x2013 <_ZN12_GLOBAL__N_13putEcP6Status+0x4e>
    302e: ca           	dex
    302f: e0 ff        	cpx	#$ff
    3031: d0 02        	bne	$3035 <__memset+0x17>
    3033: c6 14        	dec	$14                     ; 0x2014 <_ZN12_GLOBAL__N_13putEcP6Status+0x4f>
    3035: a4 14        	ldy	$14                     ; 0x2014 <_ZN12_GLOBAL__N_13putEcP6Status+0x4f>
    3037: d0 ed        	bne	$3026 <__memset+0x8>
    3039: e0 00        	cpx	#$0
    303b: d0 e9        	bne	$3026 <__memset+0x8>
    303d: 60           	rts
