
mp3wSA.elf:	file format elf32-mos

SYMBOL TABLE:
00000000 l    df *ABS*	00000000 zero-bss.c
00000000 l    df *ABS*	00000000 zero-zp-bss.c
00000000 l    df *ABS*	00000000 ld-temp.o
00000036 l     O .zp.bss	00000007 kernelEventData
00000030 l     O .zp.bss	00000001 _ccolor
00003008 l     O .rodata	00000030 textColors
00000031 l     O .zp.bss	00000001 _col
00000032 l     O .zp.bss	00000001 _row
00005de6 l     O .bss	00000004 _BITMAP_BASE.0
00000035 l     O .zp.bss	00000001 kernelError
00002be0 l     F .text	000001d6 malloc
00001b8b l     F .text	00000084 setTextLUT1
00002f94 l     F .text	00000039 strlen
00002baf l     F .text	00000031 puts
00001fff l     F .text	00000bb0 printf
00005dea l     O .bss	00000002 theMP3file
000031a0 l     O .rodata	00002476 bigpatch
00001c9e l     F .text	0000017e initVS1053Plugin
00005616 l     O .rodata	000007d0 saplugin2
00001832 l     F .text	0000014b fileRead
0000197d l     F .text	000001ce textPrint
00001c0f l     F .text	00000082 setTextLUT2
00001b4b l     F .text	00000040 fileClose
00002db6 l     F .text	00000192 free
00001c91 l     F .text	0000000d __putchar
00000033 l     O .zp.bss	00000002 __putchar.s
00001e21 l     F .text	000000d1 _ZN12_GLOBAL__N_13putEcP6Status
00001ef2 l     F .text	0000010d _ZN12_GLOBAL__N_112print_stringEPKcP6Status
00005dec l     O .bss	00000001 _ZN12_GLOBAL__N_111initializedE
00000316 l     F .text	00000139 _ZN12_GLOBAL__N_19FreeChunk6insertEPvj
00005ded l     O .bss	00000001 _ZN12_GLOBAL__N_19last_freeE
00005df0 l     O .bss	00000002 _ZN12_GLOBAL__N_19free_listE
00000450 l     F .text	000000df _ZN12_GLOBAL__N_19FreeChunk6removeEv
00005dee l     O .bss	00000002 _ZN12_GLOBAL__N_19free_sizeE
00000555 g     F .text	000012dd main
00031400 g       .mlogopal	00000000 mlogopal_end
00030d00 g       .mac	00000000 mac_end
00044000 g       .mlogo	00000000 mlogo_end
00010000 g       .mac	00000000 mac_start
00031400 g       .mlogo	00000000 mlogo_start
00031000 g       .mlogopal	00000000 mlogopal_start
00000311 g       .text	00000000 __after_main
00000300 g       .text	00000000 __do_init_stack
00000308 g       .text	00000000 __do_zero_bss
0000052f g     F .text	00000013 __zero_bss
0000030b g       .text	00000000 __do_zero_zp_bss
00000542 g     F .text	00000013 __zero_zp_bss
00001e1c g     F .text	00000005 exit
00000314 g       .text	00000000 _fini
00002fcd g       .rodata	00000000 __set_v
00002f74  w    F .text	00000020 __memset
00001000  w      *ABS*	00000000 __heap_default_limit
00005df2 g       .noinit	00000000 __heap_start
00002f48  w    F .text	0000002c memcpy
00000010 g       *ABS*	00000000 __rc0
00000012 g       *ABS*	00000000 __rc2
00000014 g       *ABS*	00000000 __rc4
00000016 g       *ABS*	00000000 __rc6
00000018 g       *ABS*	00000000 __rc8
0000001a g       *ABS*	00000000 __rc10
0000001c g       *ABS*	00000000 __rc12
0000001e g       *ABS*	00000000 __rc14
00000020 g       *ABS*	00000000 __rc16
00000022 g       *ABS*	00000000 __rc18
00000024 g       *ABS*	00000000 __rc20
00000026 g       *ABS*	00000000 __rc22
00000028 g       *ABS*	00000000 __rc24
0000002a g       *ABS*	00000000 __rc26
0000002c g       *ABS*	00000000 __rc28
0000002e g       *ABS*	00000000 __rc30
0000002f g       *ABS*	00000000 __rc31
00000300 g       *ABS*	00000000 __f256_start
0000a000 g       *ABS*	00000000 __stack
0000a000 g       *ABS*	00000000 __SLOT_ADDR
0800a000 g       *ABS*	00000000 __block8_lma
00002000 g       *ABS*	00000000 __BLOCK_SIZE
0900a000 g       *ABS*	00000000 __block9_lma
0a00a000 g       *ABS*	00000000 __block10_lma
0b00a000 g       *ABS*	00000000 __block11_lma
0c00a000 g       *ABS*	00000000 __block12_lma
0d00a000 g       *ABS*	00000000 __block13_lma
0e00a000 g       *ABS*	00000000 __block14_lma
0f00a000 g       *ABS*	00000000 __block15_lma
1000a000 g       *ABS*	00000000 __block16_lma
1100a000 g       *ABS*	00000000 __block17_lma
1200a000 g       *ABS*	00000000 __block18_lma
1300a000 g       *ABS*	00000000 __block19_lma
1400a000 g       *ABS*	00000000 __block20_lma
1500a000 g       *ABS*	00000000 __block21_lma
1600a000 g       *ABS*	00000000 __block22_lma
1700a000 g       *ABS*	00000000 __block23_lma
00010000 g       *ABS*	00000000 __mac_lma
00020d00 g       *ABS*	00000000 __mac_size
00031000 g       *ABS*	00000000 __mlogopal_lma
00000400 g       *ABS*	00000000 __mlogopal_size
00031400 g       *ABS*	00000000 __mlogo_lma
00012c00 g       *ABS*	00000000 __mlogo_size
00005de6 g       .bss	00000000 __bss_start
00030d00 g       .mac	00000000 end_mac
00031400 g       .mlogopal	00000000 end_mlogopal
00044000 g       .mlogo	00000000 end_mlogo
00000300 g       .text	00000000 _start
0000002d g       *ABS*	00000000 __rc29
0000002b g       *ABS*	00000000 __rc27
00000029 g       *ABS*	00000000 __rc25
00000027 g       *ABS*	00000000 __rc23
00000025 g       *ABS*	00000000 __rc21
00000023 g       *ABS*	00000000 __rc19
00000021 g       *ABS*	00000000 __rc17
0000001f g       *ABS*	00000000 __rc15
0000001d g       *ABS*	00000000 __rc13
0000001b g       *ABS*	00000000 __rc11
00000019 g       *ABS*	00000000 __rc9
00000017 g       *ABS*	00000000 __rc7
00000015 g       *ABS*	00000000 __rc5
00000013 g       *ABS*	00000000 __rc3
00000011 g       *ABS*	00000000 __rc1
00000030 g       .zp.data	00000000 __zp_data_start
00000300 g       *ABS*	00000000 __zp_data_load_start
00000000 g       *ABS*	00000000 __zp_data_size
00000030 g       .zp.bss	00000000 __zp_bss_start
0000000d g       *ABS*	00000000 __zp_bss_size
00000300 g       .text	00000000 _init
00002fcd g       .text	00000000 __init_array_start
00002fcd g       .text	00000000 __init_array_end
00002fcd g       .text	00000000 __fini_array_start
00002fcd g       .text	00000000 __fini_array_end
00005de6 g       .data	00000000 __data_start
00005de6 g       .data	00000000 __data_end
00005de6 g       *ABS*	00000000 __data_load_start
00000000 g       *ABS*	00000000 __data_size
00005df2 g       .bss	00000000 __bss_end
0000000c g       *ABS*	00000000 __bss_size
00005df2 g       .noinit	00000000 end_block8
00005df2 g       .noinit	00000000 end_block9
00005df2 g       .noinit	00000000 end_block10
00005df2 g       .noinit	00000000 end_block11
00005df2 g       .noinit	00000000 end_block12
00005df2 g       .noinit	00000000 end_block13
00005df2 g       .noinit	00000000 end_block14
00005df2 g       .noinit	00000000 end_block15
00005df2 g       .noinit	00000000 end_block16
00005df2 g       .noinit	00000000 end_block17
00005df2 g       .noinit	00000000 end_block18
00005df2 g       .noinit	00000000 end_block19
00005df2 g       .noinit	00000000 end_block20
00005df2 g       .noinit	00000000 end_block21
00005df2 g       .noinit	00000000 end_block22
00005df2 g       .noinit	00000000 end_block23

Disassembly of section .text:

00000300 <_start>:
     300: a9 00        	lda	#$0
     302: 85 10        	sta	$10                     ; 0x2010 <printf+0x11>
     304: a9 a0        	lda	#$a0
     306: 85 11        	sta	$11                     ; 0x2011 <printf+0x12>

00000308 <__do_zero_bss>:
     308: 20 2f 05     	jsr	$52f <__zero_bss>

0000030b <__do_zero_zp_bss>:
     30b: 20 42 05     	jsr	$542 <__zero_zp_bss>
     30e: 20 55 05     	jsr	$555 <main>

00000311 <__after_main>:
     311: 4c 1c 1e     	jmp	$1e1c <exit>

00000314 <_fini>:
     314: 60           	rts
     315: 00           	brk

00000316 <_ZN12_GLOBAL__N_19FreeChunk6insertEPvj>:
     316: 85 16        	sta	$16                     ; 0x2016 <printf+0x17>
     318: 29 fe        	and	#$fe
     31a: 85 14        	sta	$14                     ; 0x2014 <printf+0x15>
     31c: a0 01        	ldy	#$1
     31e: 98           	tya
     31f: 32 12        	and	($12)                   ; 0x2012 <printf+0x13>
     321: 05 14        	ora	$14                     ; 0x2014 <printf+0x15>
     323: 92 12        	sta	($12)                   ; 0x2012 <printf+0x13>
     325: a5 12        	lda	$12                     ; 0x2012 <printf+0x13>
     327: 18           	clc
     328: 65 14        	adc	$14                     ; 0x2014 <printf+0x15>
     32a: 85 15        	sta	$15                     ; 0x2015 <printf+0x16>
     32c: 8a           	txa
     32d: 65 13        	adc	$13                     ; 0x2013 <printf+0x14>
     32f: 85 14        	sta	$14                     ; 0x2014 <printf+0x15>
     331: 18           	clc
     332: a5 15        	lda	$15                     ; 0x2015 <printf+0x16>
     334: 69 fe        	adc	#$fe
     336: 85 17        	sta	$17                     ; 0x2017 <printf+0x18>
     338: a5 14        	lda	$14                     ; 0x2014 <printf+0x15>
     33a: 69 ff        	adc	#$ff
     33c: 85 15        	sta	$15                     ; 0x2015 <printf+0x16>
     33e: a5 17        	lda	$17                     ; 0x2017 <printf+0x18>
     340: 85 14        	sta	$14                     ; 0x2014 <printf+0x15>
     342: 8a           	txa
     343: 91 12        	sta	($12),y                 ; 0x2012 <printf+0x13>
     345: a5 16        	lda	$16                     ; 0x2016 <printf+0x17>
     347: 92 14        	sta	($14)                   ; 0x2014 <printf+0x15>
     349: 8a           	txa
     34a: 91 14        	sta	($14),y                 ; 0x2014 <printf+0x15>
     34c: b1 12        	lda	($12),y                 ; 0x2012 <printf+0x13>
     34e: 85 14        	sta	$14                     ; 0x2014 <printf+0x15>
     350: a9 fe        	lda	#$fe
     352: 32 12        	and	($12)                   ; 0x2012 <printf+0x13>
     354: 18           	clc
     355: 6d ee 5d     	adc	$5dee                   ; 0x5dee <_ZN12_GLOBAL__N_19free_sizeE>
     358: aa           	tax
     359: a5 14        	lda	$14                     ; 0x2014 <printf+0x15>
     35b: 6d ef 5d     	adc	$5def                   ; 0x5def <_ZN12_GLOBAL__N_19free_sizeE+0x1>
     35e: a8           	tay
     35f: 18           	clc
     360: 8a           	txa
     361: 69 fe        	adc	#$fe
     363: aa           	tax
     364: 98           	tya
     365: 69 ff        	adc	#$ff
     367: 8e ee 5d     	stx	$5dee                   ; 0x5dee <_ZN12_GLOBAL__N_19free_sizeE>
     36a: 8d ef 5d     	sta	$5def                   ; 0x5def <_ZN12_GLOBAL__N_19free_sizeE+0x1>
     36d: ae f0 5d     	ldx	$5df0                   ; 0x5df0 <_ZN12_GLOBAL__N_19free_listE>
     370: 86 16        	stx	$16                     ; 0x2016 <printf+0x17>
     372: ac f1 5d     	ldy	$5df1                   ; 0x5df1 <_ZN12_GLOBAL__N_19free_listE+0x1>
     375: a2 00        	ldx	#$0
     377: 86 14        	stx	$14                     ; 0x2014 <printf+0x15>
     379: a2 00        	ldx	#$0
     37b: 86 15        	stx	$15                     ; 0x2015 <printf+0x16>
     37d: 84 18        	sty	$18                     ; 0x2018 <printf+0x19>
     37f: c4 15        	cpy	$15                     ; 0x2015 <printf+0x16>
     381: d0 31        	bne	$3b4 <_ZN12_GLOBAL__N_19FreeChunk6insertEPvj+0x9e>
     383: a6 16        	ldx	$16                     ; 0x2016 <printf+0x17>
     385: e4 14        	cpx	$14                     ; 0x2014 <printf+0x15>
     387: d0 2b        	bne	$3b4 <_ZN12_GLOBAL__N_19FreeChunk6insertEPvj+0x9e>
     389: a0 02        	ldy	#$2
     38b: 18           	clc
     38c: a5 12        	lda	$12                     ; 0x2012 <printf+0x13>
     38e: 69 02        	adc	#$2
     390: 85 14        	sta	$14                     ; 0x2014 <printf+0x15>
     392: a5 12        	lda	$12                     ; 0x2012 <printf+0x13>
     394: 91 12        	sta	($12),y                 ; 0x2012 <printf+0x13>
     396: a5 13        	lda	$13                     ; 0x2013 <printf+0x14>
     398: 69 00        	adc	#$0
     39a: 85 15        	sta	$15                     ; 0x2015 <printf+0x16>
     39c: 88           	dey
     39d: a5 13        	lda	$13                     ; 0x2013 <printf+0x14>
     39f: 91 14        	sta	($14),y                 ; 0x2014 <printf+0x15>
     3a1: a2 f0        	ldx	#$f0
     3a3: 86 16        	stx	$16                     ; 0x2016 <printf+0x17>
     3a5: a2 5d        	ldx	#$5d
     3a7: 86 17        	stx	$17                     ; 0x2017 <printf+0x18>
     3a9: a6 12        	ldx	$12                     ; 0x2012 <printf+0x13>
     3ab: 86 14        	stx	$14                     ; 0x2014 <printf+0x15>
     3ad: a6 13        	ldx	$13                     ; 0x2013 <printf+0x14>
     3af: 86 15        	stx	$15                     ; 0x2015 <printf+0x16>
     3b1: 4c 2d 04     	jmp	$42d <_ZN12_GLOBAL__N_19FreeChunk6insertEPvj+0x117>
     3b4: a5 12        	lda	$12                     ; 0x2012 <printf+0x13>
     3b6: 18           	clc
     3b7: 69 02        	adc	#$2
     3b9: 85 14        	sta	$14                     ; 0x2014 <printf+0x15>
     3bb: a4 13        	ldy	$13                     ; 0x2013 <printf+0x14>
     3bd: a6 16        	ldx	$16                     ; 0x2016 <printf+0x17>
     3bf: 86 19        	stx	$19                     ; 0x2019 <printf+0x1a>
     3c1: a5 13        	lda	$13                     ; 0x2013 <printf+0x14>
     3c3: 84 1a        	sty	$1a                     ; 0x201a <printf+0x1b>
     3c5: 69 00        	adc	#$0
     3c7: a6 14        	ldx	$14                     ; 0x2014 <printf+0x15>
     3c9: 86 16        	stx	$16                     ; 0x2016 <printf+0x17>
     3cb: 85 17        	sta	$17                     ; 0x2017 <printf+0x18>
     3cd: a6 19        	ldx	$19                     ; 0x2019 <printf+0x1a>
     3cf: 86 14        	stx	$14                     ; 0x2014 <printf+0x15>
     3d1: a4 18        	ldy	$18                     ; 0x2018 <printf+0x19>
     3d3: 84 15        	sty	$15                     ; 0x2015 <printf+0x16>
     3d5: 84 1b        	sty	$1b                     ; 0x201b <printf+0x1c>
     3d7: a0 02        	ldy	#$2
     3d9: a5 19        	lda	$19                     ; 0x2019 <printf+0x1a>
     3db: 91 12        	sta	($12),y                 ; 0x2012 <printf+0x13>
     3dd: 88           	dey
     3de: a5 1b        	lda	$1b                     ; 0x201b <printf+0x1c>
     3e0: 91 16        	sta	($16),y                 ; 0x2016 <printf+0x17>
     3e2: 18           	clc
     3e3: a5 19        	lda	$19                     ; 0x2019 <printf+0x1a>
     3e5: 69 04        	adc	#$4
     3e7: 85 18        	sta	$18                     ; 0x2018 <printf+0x19>
     3e9: a5 1b        	lda	$1b                     ; 0x201b <printf+0x1c>
     3eb: 69 00        	adc	#$0
     3ed: 85 19        	sta	$19                     ; 0x2019 <printf+0x1a>
     3ef: a0 04        	ldy	#$4
     3f1: b1 14        	lda	($14),y                 ; 0x2014 <printf+0x15>
     3f3: 85 14        	sta	$14                     ; 0x2014 <printf+0x15>
     3f5: 85 1b        	sta	$1b                     ; 0x201b <printf+0x1c>
     3f7: a0 01        	ldy	#$1
     3f9: b1 18        	lda	($18),y                 ; 0x2018 <printf+0x19>
     3fb: 85 15        	sta	$15                     ; 0x2015 <printf+0x16>
     3fd: a8           	tay
     3fe: 18           	clc
     3ff: a5 1b        	lda	$1b                     ; 0x201b <printf+0x1c>
     401: 69 02        	adc	#$2
     403: 85 18        	sta	$18                     ; 0x2018 <printf+0x19>
     405: 98           	tya
     406: 69 00        	adc	#$0
     408: 85 19        	sta	$19                     ; 0x2019 <printf+0x1a>
     40a: a5 12        	lda	$12                     ; 0x2012 <printf+0x13>
     40c: a0 02        	ldy	#$2
     40e: 91 14        	sta	($14),y                 ; 0x2014 <printf+0x15>
     410: a5 1a        	lda	$1a                     ; 0x201a <printf+0x1b>
     412: 88           	dey
     413: 91 18        	sta	($18),y                 ; 0x2018 <printf+0x19>
     415: c8           	iny
     416: b1 12        	lda	($12),y                 ; 0x2012 <printf+0x13>
     418: 85 18        	sta	$18                     ; 0x2018 <printf+0x19>
     41a: 88           	dey
     41b: b1 16        	lda	($16),y                 ; 0x2016 <printf+0x17>
     41d: 85 16        	sta	$16                     ; 0x2016 <printf+0x17>
     41f: 18           	clc
     420: a5 18        	lda	$18                     ; 0x2018 <printf+0x19>
     422: 69 04        	adc	#$4
     424: aa           	tax
     425: a5 16        	lda	$16                     ; 0x2016 <printf+0x17>
     427: 69 00        	adc	#$0
     429: 86 16        	stx	$16                     ; 0x2016 <printf+0x17>
     42b: 85 17        	sta	$17                     ; 0x2017 <printf+0x18>
     42d: 18           	clc
     42e: a5 12        	lda	$12                     ; 0x2012 <printf+0x13>
     430: 69 04        	adc	#$4
     432: 85 18        	sta	$18                     ; 0x2018 <printf+0x19>
     434: a5 13        	lda	$13                     ; 0x2013 <printf+0x14>
     436: 69 00        	adc	#$0
     438: a0 04        	ldy	#$4
     43a: 85 19        	sta	$19                     ; 0x2019 <printf+0x1a>
     43c: a5 14        	lda	$14                     ; 0x2014 <printf+0x15>
     43e: 91 12        	sta	($12),y                 ; 0x2012 <printf+0x13>
     440: a5 15        	lda	$15                     ; 0x2015 <printf+0x16>
     442: a0 01        	ldy	#$1
     444: 91 18        	sta	($18),y                 ; 0x2018 <printf+0x19>
     446: a5 13        	lda	$13                     ; 0x2013 <printf+0x14>
     448: 91 16        	sta	($16),y                 ; 0x2016 <printf+0x17>
     44a: a5 12        	lda	$12                     ; 0x2012 <printf+0x13>
     44c: 92 16        	sta	($16)                   ; 0x2016 <printf+0x17>
     44e: 60           	rts
     44f: 00           	brk

00000450 <_ZN12_GLOBAL__N_19FreeChunk6removeEv>:
     450: a0 01        	ldy	#$1
     452: a9 fe        	lda	#$fe
     454: 32 12        	and	($12)                   ; 0x2012 <printf+0x13>
     456: 85 14        	sta	$14                     ; 0x2014 <printf+0x15>
     458: ad ee 5d     	lda	$5dee                   ; 0x5dee <_ZN12_GLOBAL__N_19free_sizeE>
     45b: ae ef 5d     	ldx	$5def                   ; 0x5def <_ZN12_GLOBAL__N_19free_sizeE+0x1>
     45e: 86 15        	stx	$15                     ; 0x2015 <printf+0x16>
     460: 38           	sec
     461: e5 14        	sbc	$14                     ; 0x2014 <printf+0x15>
     463: aa           	tax
     464: a5 15        	lda	$15                     ; 0x2015 <printf+0x16>
     466: f1 12        	sbc	($12),y                 ; 0x2012 <printf+0x13>
     468: 85 14        	sta	$14                     ; 0x2014 <printf+0x15>
     46a: 18           	clc
     46b: 8a           	txa
     46c: 69 02        	adc	#$2
     46e: 85 15        	sta	$15                     ; 0x2015 <printf+0x16>
     470: a5 14        	lda	$14                     ; 0x2014 <printf+0x15>
     472: 69 00        	adc	#$0
     474: a6 15        	ldx	$15                     ; 0x2015 <printf+0x16>
     476: 8e ee 5d     	stx	$5dee                   ; 0x5dee <_ZN12_GLOBAL__N_19free_sizeE>
     479: 8d ef 5d     	sta	$5def                   ; 0x5def <_ZN12_GLOBAL__N_19free_sizeE+0x1>
     47c: a5 12        	lda	$12                     ; 0x2012 <printf+0x13>
     47e: 18           	clc
     47f: 69 02        	adc	#$2
     481: 85 14        	sta	$14                     ; 0x2014 <printf+0x15>
     483: a5 13        	lda	$13                     ; 0x2013 <printf+0x14>
     485: 69 00        	adc	#$0
     487: c8           	iny
     488: 85 15        	sta	$15                     ; 0x2015 <printf+0x16>
     48a: b1 12        	lda	($12),y                 ; 0x2012 <printf+0x13>
     48c: aa           	tax
     48d: 88           	dey
     48e: b1 14        	lda	($14),y                 ; 0x2014 <printf+0x15>
     490: 85 19        	sta	$19                     ; 0x2019 <printf+0x1a>
     492: c5 13        	cmp	$13                     ; 0x2013 <printf+0x14>
     494: d0 0f        	bne	$4a5 <_ZN12_GLOBAL__N_19FreeChunk6removeEv+0x55>
     496: e4 12        	cpx	$12                     ; 0x2012 <printf+0x13>
     498: d0 0b        	bne	$4a5 <_ZN12_GLOBAL__N_19FreeChunk6removeEv+0x55>
     49a: a2 00        	ldx	#$0
     49c: 86 14        	stx	$14                     ; 0x2014 <printf+0x15>
     49e: a2 00        	ldx	#$0
     4a0: 86 15        	stx	$15                     ; 0x2015 <printf+0x16>
     4a2: 4c 24 05     	jmp	$524 <_ZN12_GLOBAL__N_19FreeChunk6removeEv+0xd4>
     4a5: 86 18        	stx	$18                     ; 0x2018 <printf+0x19>
     4a7: a6 12        	ldx	$12                     ; 0x2012 <printf+0x13>
     4a9: a5 12        	lda	$12                     ; 0x2012 <printf+0x13>
     4ab: 86 1b        	stx	$1b                     ; 0x201b <printf+0x1c>
     4ad: 18           	clc
     4ae: 69 04        	adc	#$4
     4b0: 85 14        	sta	$14                     ; 0x2014 <printf+0x15>
     4b2: a5 13        	lda	$13                     ; 0x2013 <printf+0x14>
     4b4: 69 00        	adc	#$0
     4b6: a0 04        	ldy	#$4
     4b8: 85 15        	sta	$15                     ; 0x2015 <printf+0x16>
     4ba: b1 12        	lda	($12),y                 ; 0x2012 <printf+0x13>
     4bc: 85 1c        	sta	$1c                     ; 0x201c <printf+0x1d>
     4be: 18           	clc
     4bf: 69 02        	adc	#$2
     4c1: 85 16        	sta	$16                     ; 0x2016 <printf+0x17>
     4c3: a0 01        	ldy	#$1
     4c5: b1 14        	lda	($14),y                 ; 0x2014 <printf+0x15>
     4c7: aa           	tax
     4c8: 69 00        	adc	#$0
     4ca: a4 16        	ldy	$16                     ; 0x2016 <printf+0x17>
     4cc: 84 14        	sty	$14                     ; 0x2014 <printf+0x15>
     4ce: 85 15        	sta	$15                     ; 0x2015 <printf+0x16>
     4d0: a4 1c        	ldy	$1c                     ; 0x201c <printf+0x1d>
     4d2: 84 16        	sty	$16                     ; 0x2016 <printf+0x17>
     4d4: 86 17        	stx	$17                     ; 0x2017 <printf+0x18>
     4d6: a0 02        	ldy	#$2
     4d8: a5 18        	lda	$18                     ; 0x2018 <printf+0x19>
     4da: 91 16        	sta	($16),y                 ; 0x2016 <printf+0x17>
     4dc: a5 19        	lda	$19                     ; 0x2019 <printf+0x1a>
     4de: 88           	dey
     4df: 91 14        	sta	($14),y                 ; 0x2014 <printf+0x15>
     4e1: 18           	clc
     4e2: a5 1b        	lda	$1b                     ; 0x201b <printf+0x1c>
     4e4: 69 02        	adc	#$2
     4e6: 85 14        	sta	$14                     ; 0x2014 <printf+0x15>
     4e8: a5 13        	lda	$13                     ; 0x2013 <printf+0x14>
     4ea: 69 00        	adc	#$0
     4ec: 85 15        	sta	$15                     ; 0x2015 <printf+0x16>
     4ee: c8           	iny
     4ef: b1 12        	lda	($12),y                 ; 0x2012 <printf+0x13>
     4f1: 85 16        	sta	$16                     ; 0x2016 <printf+0x17>
     4f3: 88           	dey
     4f4: b1 14        	lda	($14),y                 ; 0x2014 <printf+0x15>
     4f6: a4 16        	ldy	$16                     ; 0x2016 <printf+0x17>
     4f8: 84 14        	sty	$14                     ; 0x2014 <printf+0x15>
     4fa: 85 15        	sta	$15                     ; 0x2015 <printf+0x16>
     4fc: 85 17        	sta	$17                     ; 0x2017 <printf+0x18>
     4fe: a0 04        	ldy	#$4
     500: a5 1c        	lda	$1c                     ; 0x201c <printf+0x1d>
     502: 91 14        	sta	($14),y                 ; 0x2014 <printf+0x15>
     504: 18           	clc
     505: a5 16        	lda	$16                     ; 0x2016 <printf+0x17>
     507: 69 04        	adc	#$4
     509: 85 16        	sta	$16                     ; 0x2016 <printf+0x17>
     50b: a5 17        	lda	$17                     ; 0x2017 <printf+0x18>
     50d: 69 00        	adc	#$0
     50f: 85 17        	sta	$17                     ; 0x2017 <printf+0x18>
     511: 8a           	txa
     512: a0 01        	ldy	#$1
     514: 91 16        	sta	($16),y                 ; 0x2016 <printf+0x17>
     516: ae f1 5d     	ldx	$5df1                   ; 0x5df1 <_ZN12_GLOBAL__N_19free_listE+0x1>
     519: e4 13        	cpx	$13                     ; 0x2013 <printf+0x14>
     51b: d0 11        	bne	$52e <_ZN12_GLOBAL__N_19FreeChunk6removeEv+0xde>
     51d: ae f0 5d     	ldx	$5df0                   ; 0x5df0 <_ZN12_GLOBAL__N_19free_listE>
     520: e4 12        	cpx	$12                     ; 0x2012 <printf+0x13>
     522: d0 0a        	bne	$52e <_ZN12_GLOBAL__N_19FreeChunk6removeEv+0xde>
     524: a6 14        	ldx	$14                     ; 0x2014 <printf+0x15>
     526: a4 15        	ldy	$15                     ; 0x2015 <printf+0x16>
     528: 8e f0 5d     	stx	$5df0                   ; 0x5df0 <_ZN12_GLOBAL__N_19free_listE>
     52b: 8c f1 5d     	sty	$5df1                   ; 0x5df1 <_ZN12_GLOBAL__N_19free_listE+0x1>
     52e: 60           	rts

0000052f <__zero_bss>:
     52f: a2 0c        	ldx	#$c
     531: a0 00        	ldy	#$0
     533: a9 e6        	lda	#$e6
     535: 85 12        	sta	$12                     ; 0x2012 <printf+0x13>
     537: a9 5d        	lda	#$5d
     539: 85 13        	sta	$13                     ; 0x2013 <printf+0x14>
     53b: a9 00        	lda	#$0
     53d: 84 14        	sty	$14                     ; 0x2014 <printf+0x15>
     53f: 4c 74 2f     	jmp	$2f74 <__memset>

00000542 <__zero_zp_bss>:
     542: a2 0d        	ldx	#$d
     544: a0 00        	ldy	#$0
     546: a9 30        	lda	#$30
     548: 85 12        	sta	$12                     ; 0x2012 <printf+0x13>
     54a: a9 00        	lda	#$0
     54c: 85 13        	sta	$13                     ; 0x2013 <printf+0x14>
     54e: a9 00        	lda	#$0
     550: 84 14        	sty	$14                     ; 0x2014 <printf+0x15>
     552: 4c 74 2f     	jmp	$2f74 <__memset>

00000555 <main>:
     555: 18           	clc
     556: a5 10        	lda	$10                     ; 0x2010 <printf+0x11>
     558: 69 67        	adc	#$67
     55a: 85 10        	sta	$10                     ; 0x2010 <printf+0x11>
     55c: a5 11        	lda	$11                     ; 0x2011 <printf+0x12>
     55e: 69 df        	adc	#$df
     560: 85 11        	sta	$11                     ; 0x2011 <printf+0x12>
     562: a6 24        	ldx	$24                     ; 0x2024 <printf+0x25>
     564: da           	phx
     565: a6 25        	ldx	$25                     ; 0x2025 <printf+0x26>
     567: da           	phx
     568: a6 26        	ldx	$26                     ; 0x2026 <printf+0x27>
     56a: da           	phx
     56b: a6 27        	ldx	$27                     ; 0x2027 <printf+0x28>
     56d: da           	phx
     56e: a5 28        	lda	$28                     ; 0x2028 <printf+0x29>
     570: a0 09        	ldy	#$9
     572: 91 10        	sta	($10),y                 ; 0x2010 <printf+0x11>
     574: a5 29        	lda	$29                     ; 0x2029 <printf+0x2a>
     576: 88           	dey
     577: 91 10        	sta	($10),y                 ; 0x2010 <printf+0x11>
     579: a5 2a        	lda	$2a                     ; 0x202a <printf+0x2b>
     57b: 88           	dey
     57c: 91 10        	sta	($10),y                 ; 0x2010 <printf+0x11>
     57e: a5 2b        	lda	$2b                     ; 0x202b <printf+0x2c>
     580: 88           	dey
     581: 91 10        	sta	($10),y                 ; 0x2010 <printf+0x11>
     583: a5 2c        	lda	$2c                     ; 0x202c <printf+0x2d>
     585: 88           	dey
     586: 91 10        	sta	($10),y                 ; 0x2010 <printf+0x11>
     588: a5 2d        	lda	$2d                     ; 0x202d <printf+0x2e>
     58a: 88           	dey
     58b: 91 10        	sta	($10),y                 ; 0x2010 <printf+0x11>
     58d: a5 2e        	lda	$2e                     ; 0x202e <printf+0x2f>
     58f: 88           	dey
     590: 91 10        	sta	($10),y                 ; 0x2010 <printf+0x11>
     592: a5 2f        	lda	$2f                     ; 0x202f <printf+0x30>
     594: 88           	dey
     595: 91 10        	sta	($10),y                 ; 0x2010 <printf+0x11>
     597: 64 28        	stz	$28                     ; 0x2028 <printf+0x29>
     599: a2 00        	ldx	#$0
     59b: 86 12        	stx	$12                     ; 0x2012 <printf+0x13>
     59d: a2 c0        	ldx	#$c0
     59f: 86 13        	stx	$13                     ; 0x2013 <printf+0x14>
     5a1: 64 01        	stz	$1                      ; 0x2001 <printf+0x2>
     5a3: a2 3f        	ldx	#$3f
     5a5: 8e 00 d0     	stx	$d000                   ; 0xd000 <end_block9+0x720e>
     5a8: a2 b3        	ldx	#$b3
     5aa: 86 00        	stx	$0                      ; 0x2000 <printf+0x1>
     5ac: 64 08        	stz	$8                      ; 0x2008 <printf+0x9>
     5ae: a2 01        	ldx	#$1
     5b0: 86 09        	stx	$9                      ; 0x2009 <printf+0xa>
     5b2: e8           	inx
     5b3: 86 0a        	stx	$a                      ; 0x200a <printf+0xb>
     5b5: e8           	inx
     5b6: 86 0b        	stx	$b                      ; 0x200b <printf+0xc>
     5b8: e8           	inx
     5b9: 86 0c        	stx	$c                      ; 0x200c <printf+0xd>
     5bb: e8           	inx
     5bc: 86 0d        	stx	$d                      ; 0x200d <printf+0xe>
     5be: a2 36        	ldx	#$36
     5c0: a0 00        	ldy	#$0
     5c2: 86 f0        	stx	$f0                     ; 0x20f0 <printf+0xf1>
     5c4: 84 f1        	sty	$f1                     ; 0x20f1 <printf+0xf2>
     5c6: a2 00        	ldx	#$0
     5c8: 86 16        	stx	$16                     ; 0x2016 <printf+0x17>
     5ca: ca           	dex
     5cb: 86 17        	stx	$17                     ; 0x2017 <printf+0x18>
     5cd: 8a           	txa
     5ce: 0a           	asl
     5cf: 0a           	asl
     5d0: 18           	clc
     5d1: 69 d4        	adc	#$d4
     5d3: 85 18        	sta	$18                     ; 0x2018 <printf+0x19>
     5d5: a0 00        	ldy	#$0
     5d7: 64 1c        	stz	$1c                     ; 0x201c <printf+0x1d>
     5d9: 64 15        	stz	$15                     ; 0x2015 <printf+0x16>
     5db: a6 17        	ldx	$17                     ; 0x2017 <printf+0x18>
     5dd: e0 03        	cpx	#$3
     5df: a6 01        	ldx	$1                      ; 0x2001 <printf+0x2>
     5e1: 86 1a        	stx	$1a                     ; 0x201a <printf+0x1b>
     5e3: a2 d0        	ldx	#$d0
     5e5: 84 19        	sty	$19                     ; 0x2019 <printf+0x1a>
     5e7: b0 02        	bcs	$5eb <main+0x96>
     5e9: a6 18        	ldx	$18                     ; 0x2018 <printf+0x19>
     5eb: 86 14        	stx	$14                     ; 0x2014 <printf+0x15>
     5ed: a5 1c        	lda	$1c                     ; 0x201c <printf+0x1d>
     5ef: 18           	clc
     5f0: 65 28        	adc	$28                     ; 0x2028 <printf+0x29>
     5f2: a8           	tay
     5f3: a6 15        	ldx	$15                     ; 0x2015 <printf+0x16>
     5f5: 86 1b        	stx	$1b                     ; 0x201b <printf+0x1c>
     5f7: a5 15        	lda	$15                     ; 0x2015 <printf+0x16>
     5f9: 65 14        	adc	$14                     ; 0x2014 <printf+0x15>
     5fb: 84 14        	sty	$14                     ; 0x2014 <printf+0x15>
     5fd: a0 01        	ldy	#$1
     5ff: 84 01        	sty	$1                      ; 0x2001 <printf+0x2>
     601: 85 15        	sta	$15                     ; 0x2015 <printf+0x16>
     603: a5 19        	lda	$19                     ; 0x2019 <printf+0x1a>
     605: 92 14        	sta	($14)                   ; 0x2014 <printf+0x15>
     607: 91 14        	sta	($14),y                 ; 0x2014 <printf+0x15>
     609: c8           	iny
     60a: 91 14        	sta	($14),y                 ; 0x2014 <printf+0x15>
     60c: c8           	iny
     60d: a9 ff        	lda	#$ff
     60f: 91 14        	sta	($14),y                 ; 0x2014 <printf+0x15>
     611: a5 1c        	lda	$1c                     ; 0x201c <printf+0x1d>
     613: a6 1a        	ldx	$1a                     ; 0x201a <printf+0x1b>
     615: 86 01        	stx	$1                      ; 0x2001 <printf+0x2>
     617: 18           	clc
     618: 69 04        	adc	#$4
     61a: 85 1c        	sta	$1c                     ; 0x201c <printf+0x1d>
     61c: a5 1b        	lda	$1b                     ; 0x201b <printf+0x1c>
     61e: 69 00        	adc	#$0
     620: e6 19        	inc	$19                     ; 0x2019 <printf+0x1a>
     622: a4 19        	ldy	$19                     ; 0x2019 <printf+0x1a>
     624: 85 15        	sta	$15                     ; 0x2015 <printf+0x16>
     626: c9 04        	cmp	#$4
     628: d0 b1        	bne	$5db <main+0x86>
     62a: a5 1c        	lda	$1c                     ; 0x201c <printf+0x1d>
     62c: f0 03        	beq	$631 <main+0xdc>
     62e: 4c db 05     	jmp	$5db <main+0x86>
     631: a6 16        	ldx	$16                     ; 0x2016 <printf+0x17>
     633: e8           	inx
     634: e0 04        	cpx	#$4
     636: f0 03        	beq	$63b <main+0xe6>
     638: 4c c8 05     	jmp	$5c8 <main+0x73>
     63b: ad 02 d0     	lda	$d002                   ; 0xd002 <end_block9+0x7210>
     63e: 29 f0        	and	#$f0
     640: 8d 02 d0     	sta	$d002                   ; 0xd002 <end_block9+0x7210>
     643: ad 02 d0     	lda	$d002                   ; 0xd002 <end_block9+0x7210>
     646: 29 0f        	and	#$f
     648: 09 10        	ora	#$10
     64a: 8d 02 d0     	sta	$d002                   ; 0xd002 <end_block9+0x7210>
     64d: a2 02        	ldx	#$2
     64f: 8e 03 d0     	stx	$d003                   ; 0xd003 <end_block9+0x7211>
     652: 64 30        	stz	$30                     ; 0x2030 <printf+0x31>
     654: ad 01 d0     	lda	$d001                   ; 0xd001 <end_block9+0x720f>
     657: 29 f9        	and	#$f9
     659: 09 04        	ora	#$4
     65b: 8d 01 d0     	sta	$d001                   ; 0xd001 <end_block9+0x720f>
     65e: 64 14        	stz	$14                     ; 0x2014 <printf+0x15>
     660: 9c 10 d0     	stz	$d010                   ; 0xd010 <end_block9+0x721e>
     663: a2 00        	ldx	#$0
     665: 64 15        	stz	$15                     ; 0x2015 <printf+0x16>
     667: 86 18        	stx	$18                     ; 0x2018 <printf+0x19>
     669: a4 18        	ldy	$18                     ; 0x2018 <printf+0x19>
     66b: be 08 30     	ldx	$3008,y                 ; 0x3008 <textColors>
     66e: 86 19        	stx	$19                     ; 0x2019 <printf+0x1a>
     670: be 09 30     	ldx	$3009,y                 ; 0x3009 <textColors+0x1>
     673: 86 1a        	stx	$1a                     ; 0x201a <printf+0x1b>
     675: be 0a 30     	ldx	$300a,y                 ; 0x300a <textColors+0x2>
     678: 86 1b        	stx	$1b                     ; 0x201b <printf+0x1c>
     67a: a6 15        	ldx	$15                     ; 0x2015 <printf+0x16>
     67c: 8e 00 de     	stx	$de00                   ; 0xde00 <end_block9+0x800e>
     67f: 86 17        	stx	$17                     ; 0x2017 <printf+0x18>
     681: 9c 01 de     	stz	$de01                   ; 0xde01 <end_block9+0x800f>
     684: a2 04        	ldx	#$4
     686: 8e 02 de     	stx	$de02                   ; 0xde02 <end_block9+0x8010>
     689: 9c 03 de     	stz	$de03                   ; 0xde03 <end_block9+0x8011>
     68c: ad 10 de     	lda	$de10                   ; 0xde10 <end_block9+0x801e>
     68f: ac 11 de     	ldy	$de11                   ; 0xde11 <end_block9+0x801f>
     692: 84 15        	sty	$15                     ; 0x2015 <printf+0x16>
     694: ac 12 de     	ldy	$de12                   ; 0xde12 <end_block9+0x8020>
     697: ac 13 de     	ldy	$de13                   ; 0xde13 <end_block9+0x8021>
     69a: 18           	clc
     69b: 65 14        	adc	$14                     ; 0x2014 <printf+0x15>
     69d: 85 16        	sta	$16                     ; 0x2016 <printf+0x17>
     69f: a6 17        	ldx	$17                     ; 0x2017 <printf+0x18>
     6a1: a9 d8        	lda	#$d8
     6a3: 65 15        	adc	$15                     ; 0x2015 <printf+0x16>
     6a5: 85 17        	sta	$17                     ; 0x2017 <printf+0x18>
     6a7: a5 1b        	lda	$1b                     ; 0x201b <printf+0x1c>
     6a9: 92 16        	sta	($16)                   ; 0x2016 <printf+0x17>
     6ab: a0 01        	ldy	#$1
     6ad: a5 1a        	lda	$1a                     ; 0x201a <printf+0x1b>
     6af: 91 16        	sta	($16),y                 ; 0x2016 <printf+0x17>
     6b1: c8           	iny
     6b2: a5 19        	lda	$19                     ; 0x2019 <printf+0x1a>
     6b4: 91 16        	sta	($16),y                 ; 0x2016 <printf+0x17>
     6b6: c8           	iny
     6b7: a9 ff        	lda	#$ff
     6b9: 91 16        	sta	($16),y                 ; 0x2016 <printf+0x17>
     6bb: 8e 00 de     	stx	$de00                   ; 0xde00 <end_block9+0x800e>
     6be: 9c 01 de     	stz	$de01                   ; 0xde01 <end_block9+0x800f>
     6c1: c8           	iny
     6c2: 8c 02 de     	sty	$de02                   ; 0xde02 <end_block9+0x8010>
     6c5: 9c 03 de     	stz	$de03                   ; 0xde03 <end_block9+0x8011>
     6c8: ad 10 de     	lda	$de10                   ; 0xde10 <end_block9+0x801e>
     6cb: 85 15        	sta	$15                     ; 0x2015 <printf+0x16>
     6cd: ad 11 de     	lda	$de11                   ; 0xde11 <end_block9+0x801f>
     6d0: 85 16        	sta	$16                     ; 0x2016 <printf+0x17>
     6d2: a9 40        	lda	#$40
     6d4: 18           	clc
     6d5: 65 15        	adc	$15                     ; 0x2015 <printf+0x16>
     6d7: a8           	tay
     6d8: a9 d8        	lda	#$d8
     6da: 65 16        	adc	$16                     ; 0x2016 <printf+0x17>
     6dc: 85 17        	sta	$17                     ; 0x2017 <printf+0x18>
     6de: 84 16        	sty	$16                     ; 0x2016 <printf+0x17>
     6e0: ad 12 de     	lda	$de12                   ; 0xde12 <end_block9+0x8020>
     6e3: ad 13 de     	lda	$de13                   ; 0xde13 <end_block9+0x8021>
     6e6: a5 1b        	lda	$1b                     ; 0x201b <printf+0x1c>
     6e8: 92 16        	sta	($16)                   ; 0x2016 <printf+0x17>
     6ea: a5 1a        	lda	$1a                     ; 0x201a <printf+0x1b>
     6ec: a0 01        	ldy	#$1
     6ee: 91 16        	sta	($16),y                 ; 0x2016 <printf+0x17>
     6f0: a5 19        	lda	$19                     ; 0x2019 <printf+0x1a>
     6f2: c8           	iny
     6f3: 91 16        	sta	($16),y                 ; 0x2016 <printf+0x17>
     6f5: c8           	iny
     6f6: a9 ff        	lda	#$ff
     6f8: 91 16        	sta	($16),y                 ; 0x2016 <printf+0x17>
     6fa: e8           	inx
     6fb: 86 15        	stx	$15                     ; 0x2015 <printf+0x16>
     6fd: 18           	clc
     6fe: a5 18        	lda	$18                     ; 0x2018 <printf+0x19>
     700: 69 03        	adc	#$3
     702: aa           	tax
     703: c9 30        	cmp	#$30
     705: f0 03        	beq	$70a <main+0x1b5>
     707: 4c 67 06     	jmp	$667 <main+0x112>
     70a: a6 01        	ldx	$1                      ; 0x2001 <printf+0x2>
     70c: 86 18        	stx	$18                     ; 0x2018 <printf+0x19>
     70e: a2 50        	ldx	#$50
     710: 8e 00 de     	stx	$de00                   ; 0xde00 <end_block9+0x800e>
     713: 9c 01 de     	stz	$de01                   ; 0xde01 <end_block9+0x800f>
     716: a2 1e        	ldx	#$1e
     718: 8e 02 de     	stx	$de02                   ; 0xde02 <end_block9+0x8010>
     71b: 9c 03 de     	stz	$de03                   ; 0xde03 <end_block9+0x8011>
     71e: ae 10 de     	ldx	$de10                   ; 0xde10 <end_block9+0x801e>
     721: ac 11 de     	ldy	$de11                   ; 0xde11 <end_block9+0x801f>
     724: ad 12 de     	lda	$de12                   ; 0xde12 <end_block9+0x8020>
     727: ad 13 de     	lda	$de13                   ; 0xde13 <end_block9+0x8021>
     72a: a9 02        	lda	#$2
     72c: 85 01        	sta	$1                      ; 0x2001 <printf+0x2>
     72e: e0 01        	cpx	#$1
     730: 98           	tya
     731: e9 00        	sbc	#$0
     733: 50 02        	bvc	$737 <main+0x1e2>
     735: 49 80        	eor	#$80
     737: c9 00        	cmp	#$0
     739: 10 03        	bpl	$73e <main+0x1e9>
     73b: 4c 97 07     	jmp	$797 <main+0x242>
     73e: a9 20        	lda	#$20
     740: 86 19        	stx	$19                     ; 0x2019 <printf+0x1a>
     742: 86 14        	stx	$14                     ; 0x2014 <printf+0x15>
     744: 84 15        	sty	$15                     ; 0x2015 <printf+0x16>
     746: a2 00        	ldx	#$0
     748: 86 16        	stx	$16                     ; 0x2016 <printf+0x17>
     74a: a2 c0        	ldx	#$c0
     74c: 86 17        	stx	$17                     ; 0x2017 <printf+0x18>
     74e: 92 16        	sta	($16)                   ; 0x2016 <printf+0x17>
     750: e6 16        	inc	$16                     ; 0x2016 <printf+0x17>
     752: d0 02        	bne	$756 <main+0x201>
     754: e6 17        	inc	$17                     ; 0x2017 <printf+0x18>
     756: a2 ff        	ldx	#$ff
     758: c6 14        	dec	$14                     ; 0x2014 <printf+0x15>
     75a: e4 14        	cpx	$14                     ; 0x2014 <printf+0x15>
     75c: d0 02        	bne	$760 <main+0x20b>
     75e: c6 15        	dec	$15                     ; 0x2015 <printf+0x16>
     760: a6 15        	ldx	$15                     ; 0x2015 <printf+0x16>
     762: d0 ea        	bne	$74e <main+0x1f9>
     764: a6 14        	ldx	$14                     ; 0x2014 <printf+0x15>
     766: d0 e6        	bne	$74e <main+0x1f9>
     768: a2 03        	ldx	#$3
     76a: 86 01        	stx	$1                      ; 0x2001 <printf+0x2>
     76c: a5 30        	lda	$30                     ; 0x2030 <printf+0x31>
     76e: 29 01        	and	#$1
     770: aa           	tax
     771: a9 60        	lda	#$60
     773: e0 00        	cpx	#$0
     775: d0 02        	bne	$779 <main+0x224>
     777: a9 f0        	lda	#$f0
     779: a6 19        	ldx	$19                     ; 0x2019 <printf+0x1a>
     77b: 92 12        	sta	($12)                   ; 0x2012 <printf+0x13>
     77d: e6 12        	inc	$12                     ; 0x2012 <printf+0x13>
     77f: d0 02        	bne	$783 <main+0x22e>
     781: e6 13        	inc	$13                     ; 0x2013 <printf+0x14>
     783: 85 14        	sta	$14                     ; 0x2014 <printf+0x15>
     785: ca           	dex
     786: e0 ff        	cpx	#$ff
     788: d0 01        	bne	$78b <main+0x236>
     78a: 88           	dey
     78b: a5 14        	lda	$14                     ; 0x2014 <printf+0x15>
     78d: c0 00        	cpy	#$0
     78f: d0 ea        	bne	$77b <main+0x226>
     791: e0 00        	cpx	#$0
     793: d0 e6        	bne	$77b <main+0x226>
     795: 80 04        	bra	$79b <main+0x246>
     797: a2 03        	ldx	#$3
     799: 86 01        	stx	$1                      ; 0x2001 <printf+0x2>
     79b: a6 18        	ldx	$18                     ; 0x2018 <printf+0x19>
     79d: 86 01        	stx	$1                      ; 0x2001 <printf+0x2>
     79f: 64 31        	stz	$31                     ; 0x2031 <printf+0x32>
     7a1: 9c 14 d0     	stz	$d014                   ; 0xd014 <end_block9+0x7222>
     7a4: 9c 15 d0     	stz	$d015                   ; 0xd015 <end_block9+0x7223>
     7a7: 64 32        	stz	$32                     ; 0x2032 <printf+0x33>
     7a9: 9c 16 d0     	stz	$d016                   ; 0xd016 <end_block9+0x7224>
     7ac: 9c 17 d0     	stz	$d017                   ; 0xd017 <end_block9+0x7225>
     7af: a2 40        	ldx	#$40
     7b1: 8e 00 de     	stx	$de00                   ; 0xde00 <end_block9+0x800e>
     7b4: a2 01        	ldx	#$1
     7b6: 8e 01 de     	stx	$de01                   ; 0xde01 <end_block9+0x800f>
     7b9: a2 f0        	ldx	#$f0
     7bb: 8e 02 de     	stx	$de02                   ; 0xde02 <end_block9+0x8010>
     7be: 9c 03 de     	stz	$de03                   ; 0xde03 <end_block9+0x8011>
     7c1: ae 10 de     	ldx	$de10                   ; 0xde10 <end_block9+0x801e>
     7c4: 86 17        	stx	$17                     ; 0x2017 <printf+0x18>
     7c6: ae 11 de     	ldx	$de11                   ; 0xde11 <end_block9+0x801f>
     7c9: 86 12        	stx	$12                     ; 0x2012 <printf+0x13>
     7cb: ae 12 de     	ldx	$de12                   ; 0xde12 <end_block9+0x8020>
     7ce: 86 13        	stx	$13                     ; 0x2013 <printf+0x14>
     7d0: ae 13 de     	ldx	$de13                   ; 0xde13 <end_block9+0x8021>
     7d3: 86 14        	stx	$14                     ; 0x2014 <printf+0x15>
     7d5: a4 12        	ldy	$12                     ; 0x2012 <printf+0x13>
     7d7: 84 15        	sty	$15                     ; 0x2015 <printf+0x16>
     7d9: 06 15        	asl	$15                     ; 0x2015 <printf+0x16>
     7db: a5 13        	lda	$13                     ; 0x2013 <printf+0x14>
     7dd: 2a           	rol
     7de: 86 16        	stx	$16                     ; 0x2016 <printf+0x17>
     7e0: 26 16        	rol	$16                     ; 0x2016 <printf+0x17>
     7e2: 06 15        	asl	$15                     ; 0x2015 <printf+0x16>
     7e4: 2a           	rol
     7e5: 26 16        	rol	$16                     ; 0x2016 <printf+0x17>
     7e7: 06 15        	asl	$15                     ; 0x2015 <printf+0x16>
     7e9: 2a           	rol
     7ea: 26 16        	rol	$16                     ; 0x2016 <printf+0x17>
     7ec: 85 15        	sta	$15                     ; 0x2015 <printf+0x16>
     7ee: 8d 00 de     	sta	$de00                   ; 0xde00 <end_block9+0x800e>
     7f1: a5 16        	lda	$16                     ; 0x2016 <printf+0x17>
     7f3: 8d 01 de     	sta	$de01                   ; 0xde01 <end_block9+0x800f>
     7f6: 9c 02 de     	stz	$de02                   ; 0xde02 <end_block9+0x8010>
     7f9: a2 20        	ldx	#$20
     7fb: 8e 03 de     	stx	$de03                   ; 0xde03 <end_block9+0x8011>
     7fe: ae 10 de     	ldx	$de10                   ; 0xde10 <end_block9+0x801e>
     801: 86 16        	stx	$16                     ; 0x2016 <printf+0x17>
     803: ae 11 de     	ldx	$de11                   ; 0xde11 <end_block9+0x801f>
     806: 86 18        	stx	$18                     ; 0x2018 <printf+0x19>
     808: ac 12 de     	ldy	$de12                   ; 0xde12 <end_block9+0x8020>
     80b: ae 13 de     	ldx	$de13                   ; 0xde13 <end_block9+0x8021>
     80e: e4 14        	cpx	$14                     ; 0x2014 <printf+0x15>
     810: d0 14        	bne	$826 <main+0x2d1>
     812: c4 13        	cpy	$13                     ; 0x2013 <printf+0x14>
     814: d0 10        	bne	$826 <main+0x2d1>
     816: a6 18        	ldx	$18                     ; 0x2018 <printf+0x19>
     818: e4 12        	cpx	$12                     ; 0x2012 <printf+0x13>
     81a: d0 0a        	bne	$826 <main+0x2d1>
     81c: a6 16        	ldx	$16                     ; 0x2016 <printf+0x17>
     81e: e4 17        	cpx	$17                     ; 0x2017 <printf+0x18>
     820: d0 04        	bne	$826 <main+0x2d1>
     822: a6 15        	ldx	$15                     ; 0x2015 <printf+0x16>
     824: 80 06        	bra	$82c <main+0x2d7>
     826: a6 15        	ldx	$15                     ; 0x2015 <printf+0x16>
     828: e8           	inx
     829: d0 01        	bne	$82c <main+0x2d7>
     82b: 1a           	inc
     82c: 8e 00 de     	stx	$de00                   ; 0xde00 <end_block9+0x800e>
     82f: 8d 01 de     	sta	$de01                   ; 0xde01 <end_block9+0x800f>
     832: 9c 02 de     	stz	$de02                   ; 0xde02 <end_block9+0x8010>
     835: a2 20        	ldx	#$20
     837: 8e 03 de     	stx	$de03                   ; 0xde03 <end_block9+0x8011>
     83a: ae 10 de     	ldx	$de10                   ; 0xde10 <end_block9+0x801e>
     83d: 86 12        	stx	$12                     ; 0x2012 <printf+0x13>
     83f: ae 11 de     	ldx	$de11                   ; 0xde11 <end_block9+0x801f>
     842: 86 13        	stx	$13                     ; 0x2013 <printf+0x14>
     844: ae 12 de     	ldx	$de12                   ; 0xde12 <end_block9+0x8020>
     847: 86 14        	stx	$14                     ; 0x2014 <printf+0x15>
     849: ae 13 de     	ldx	$de13                   ; 0xde13 <end_block9+0x8021>
     84c: 86 15        	stx	$15                     ; 0x2015 <printf+0x16>
     84e: 38           	sec
     84f: a9 00        	lda	#$0
     851: e5 12        	sbc	$12                     ; 0x2012 <printf+0x13>
     853: 85 16        	sta	$16                     ; 0x2016 <printf+0x17>
     855: a9 00        	lda	#$0
     857: e5 13        	sbc	$13                     ; 0x2013 <printf+0x14>
     859: 85 17        	sta	$17                     ; 0x2017 <printf+0x18>
     85b: a9 08        	lda	#$8
     85d: e5 14        	sbc	$14                     ; 0x2014 <printf+0x15>
     85f: aa           	tax
     860: a9 00        	lda	#$0
     862: e5 15        	sbc	$15                     ; 0x2015 <printf+0x16>
     864: a8           	tay
     865: a5 17        	lda	$17                     ; 0x2017 <printf+0x18>
     867: 8d e7 5d     	sta	$5de7                   ; 0x5de7 <__bss_start+0x1>
     86a: 8e e8 5d     	stx	$5de8                   ; 0x5de8 <__bss_start+0x2>
     86d: 8c e9 5d     	sty	$5de9                   ; 0x5de9 <__bss_start+0x3>
     870: a5 16        	lda	$16                     ; 0x2016 <printf+0x17>
     872: 38           	sec
     873: e5 12        	sbc	$12                     ; 0x2012 <printf+0x13>
     875: a8           	tay
     876: a5 17        	lda	$17                     ; 0x2017 <printf+0x18>
     878: e5 13        	sbc	$13                     ; 0x2013 <printf+0x14>
     87a: 85 15        	sta	$15                     ; 0x2015 <printf+0x16>
     87c: 8a           	txa
     87d: e5 14        	sbc	$14                     ; 0x2014 <printf+0x15>
     87f: aa           	tax
     880: 98           	tya
     881: 38           	sec
     882: e5 12        	sbc	$12                     ; 0x2012 <printf+0x13>
     884: 85 12        	sta	$12                     ; 0x2012 <printf+0x13>
     886: a5 15        	lda	$15                     ; 0x2015 <printf+0x16>
     888: e5 13        	sbc	$13                     ; 0x2013 <printf+0x14>
     88a: 85 13        	sta	$13                     ; 0x2013 <printf+0x14>
     88c: 8a           	txa
     88d: 86 17        	stx	$17                     ; 0x2017 <printf+0x18>
     88f: e5 14        	sbc	$14                     ; 0x2014 <printf+0x15>
     891: a6 16        	ldx	$16                     ; 0x2016 <printf+0x17>
     893: 8e e6 5d     	stx	$5de6                   ; 0x5de6 <__bss_start>
     896: 8e 01 d1     	stx	$d101                   ; 0xd101 <end_block9+0x730f>
     899: ae e7 5d     	ldx	$5de7                   ; 0x5de7 <__bss_start+0x1>
     89c: 8e 02 d1     	stx	$d102                   ; 0xd102 <end_block9+0x7310>
     89f: ae e8 5d     	ldx	$5de8                   ; 0x5de8 <__bss_start+0x2>
     8a2: 8e 03 d1     	stx	$d103                   ; 0xd103 <end_block9+0x7311>
     8a5: 8c 09 d1     	sty	$d109                   ; 0xd109 <end_block9+0x7317>
     8a8: a6 15        	ldx	$15                     ; 0x2015 <printf+0x16>
     8aa: 8e 0a d1     	stx	$d10a                   ; 0xd10a <end_block9+0x7318>
     8ad: a6 17        	ldx	$17                     ; 0x2017 <printf+0x18>
     8af: 8e 0b d1     	stx	$d10b                   ; 0xd10b <end_block9+0x7319>
     8b2: a6 12        	ldx	$12                     ; 0x2012 <printf+0x13>
     8b4: 8e 11 d1     	stx	$d111                   ; 0xd111 <end_block9+0x731f>
     8b7: a6 13        	ldx	$13                     ; 0x2013 <printf+0x14>
     8b9: 8e 12 d1     	stx	$d112                   ; 0xd112 <end_block9+0x7320>
     8bc: 8d 13 d1     	sta	$d113                   ; 0xd113 <end_block9+0x7321>
     8bf: 9c 00 d1     	stz	$d100                   ; 0xd100 <end_block9+0x730e>
     8c2: 9c 08 d1     	stz	$d108                   ; 0xd108 <end_block9+0x7316>
     8c5: 9c 10 d1     	stz	$d110                   ; 0xd110 <end_block9+0x731e>
     8c8: a2 10        	ldx	#$10
     8ca: 8e 00 d2     	stx	$d200                   ; 0xd200 <end_block9+0x740e>
     8cd: 8e 0c d2     	stx	$d20c                   ; 0xd20c <end_block9+0x741a>
     8d0: 8e 18 d2     	stx	$d218                   ; 0xd218 <end_block9+0x7426>
     8d3: a0 d9        	ldy	#$d9
     8d5: a2 40        	ldx	#$40
     8d7: 64 12        	stz	$12                     ; 0x2012 <printf+0x13>
     8d9: 84 13        	sty	$13                     ; 0x2013 <printf+0x14>
     8db: a9 00        	lda	#$0
     8dd: 92 12        	sta	($12)                   ; 0x2012 <printf+0x13>
     8df: ca           	dex
     8e0: 18           	clc
     8e1: a5 12        	lda	$12                     ; 0x2012 <printf+0x13>
     8e3: 69 08        	adc	#$8
     8e5: 85 12        	sta	$12                     ; 0x2012 <printf+0x13>
     8e7: 98           	tya
     8e8: 69 00        	adc	#$0
     8ea: a8           	tay
     8eb: 8a           	txa
     8ec: d0 eb        	bne	$8d9 <main+0x384>
     8ee: 18           	clc
     8ef: a5 10        	lda	$10                     ; 0x2010 <printf+0x11>
     8f1: 69 5d        	adc	#$5d
     8f3: 85 2c        	sta	$2c                     ; 0x202c <printf+0x2d>
     8f5: a5 11        	lda	$11                     ; 0x2011 <printf+0x12>
     8f7: 69 00        	adc	#$0
     8f9: 85 2d        	sta	$2d                     ; 0x202d <printf+0x2e>
     8fb: a6 2c        	ldx	$2c                     ; 0x202c <printf+0x2d>
     8fd: 86 fb        	stx	$fb                     ; 0x20fb <printf+0xfc>
     8ff: 85 fc        	sta	$fc                     ; 0x20fc <printf+0xfd>
     901: a2 08        	ldx	#$8
     903: 86 fd        	stx	$fd                     ; 0x20fd <printf+0xfe>
     905: 18           	clc
     906: a5 10        	lda	$10                     ; 0x2010 <printf+0x11>
     908: 69 1d        	adc	#$1d
     90a: 85 24        	sta	$24                     ; 0x2024 <printf+0x25>
     90c: a5 11        	lda	$11                     ; 0x2011 <printf+0x12>
     90e: 69 00        	adc	#$0
     910: 85 25        	sta	$25                     ; 0x2025 <printf+0x26>
     912: a2 35        	ldx	#$35
     914: 86 12        	stx	$12                     ; 0x2012 <printf+0x13>
     916: a2 00        	ldx	#$0
     918: 86 13        	stx	$13                     ; 0x2013 <printf+0x14>
     91a: a0 06        	ldy	#$6
     91c: 20 dc ff     	jsr	$ffdc <end_block9+0xa1ea>
     91f: 92 24        	sta	($24)                   ; 0x2024 <printf+0x25>
     921: a9 00        	lda	#$0
     923: 6a           	ror
     924: 85 12        	sta	$12                     ; 0x2012 <printf+0x13>
     926: b1 2c        	lda	($2c),y                 ; 0x202c <printf+0x2d>
     928: 85 12        	sta	$12                     ; 0x2012 <printf+0x13>
     92a: c8           	iny
     92b: b1 2c        	lda	($2c),y                 ; 0x202c <printf+0x2d>
     92d: a6 12        	ldx	$12                     ; 0x2012 <printf+0x13>
     92f: 8e 00 de     	stx	$de00                   ; 0xde00 <end_block9+0x800e>
     932: 9c 01 de     	stz	$de01                   ; 0xde01 <end_block9+0x800f>
     935: 8d 02 de     	sta	$de02                   ; 0xde02 <end_block9+0x8010>
     938: 9c 03 de     	stz	$de03                   ; 0xde03 <end_block9+0x8011>
     93b: ae 10 de     	ldx	$de10                   ; 0xde10 <end_block9+0x801e>
     93e: ac 11 de     	ldy	$de11                   ; 0xde11 <end_block9+0x801f>
     941: ad 12 de     	lda	$de12                   ; 0xde12 <end_block9+0x8020>
     944: ad 13 de     	lda	$de13                   ; 0xde13 <end_block9+0x8021>
     947: 8e a4 d6     	stx	$d6a4                   ; 0xd6a4 <end_block9+0x78b2>
     94a: 8c a5 d6     	sty	$d6a5                   ; 0xd6a5 <end_block9+0x78b3>
     94d: a2 03        	ldx	#$3
     94f: 8e a6 d6     	stx	$d6a6                   ; 0xd6a6 <end_block9+0x78b4>
     952: a6 fa        	ldx	$fa                     ; 0x20fa <printf+0xfb>
     954: 86 2f        	stx	$2f                     ; 0x202f <printf+0x30>
     956: a6 f8        	ldx	$f8                     ; 0x20f8 <printf+0xf9>
     958: a4 f9        	ldy	$f9                     ; 0x20f9 <printf+0xfa>
     95a: 86 29        	stx	$29                     ; 0x2029 <printf+0x2a>
     95c: 86 2a        	stx	$2a                     ; 0x202a <printf+0x2b>
     95e: 84 2e        	sty	$2e                     ; 0x202e <printf+0x2f>
     960: 84 2b        	sty	$2b                     ; 0x202b <printf+0x2c>
     962: a9 40        	lda	#$40
     964: a2 00        	ldx	#$0
     966: 20 e0 2b     	jsr	$2be0 <malloc>
     969: a5 12        	lda	$12                     ; 0x2012 <printf+0x13>
     96b: a0 11        	ldy	#$11
     96d: 91 10        	sta	($10),y                 ; 0x2010 <printf+0x11>
     96f: a5 13        	lda	$13                     ; 0x2013 <printf+0x14>
     971: c8           	iny
     972: 91 10        	sta	($10),y                 ; 0x2010 <printf+0x11>
     974: 18           	clc
     975: a5 10        	lda	$10                     ; 0x2010 <printf+0x11>
     977: 69 7b        	adc	#$7b
     979: 85 12        	sta	$12                     ; 0x2012 <printf+0x13>
     97b: a5 11        	lda	$11                     ; 0x2011 <printf+0x12>
     97d: 69 20        	adc	#$20
     97f: 85 13        	sta	$13                     ; 0x2013 <printf+0x14>
     981: a2 1e        	ldx	#$1e
     983: 64 14        	stz	$14                     ; 0x2014 <printf+0x15>
     985: a9 00        	lda	#$0
     987: 20 74 2f     	jsr	$2f74 <__memset>
     98a: a0 00        	ldy	#$0
     98c: 18           	clc
     98d: a5 10        	lda	$10                     ; 0x2010 <printf+0x11>
     98f: 69 5d        	adc	#$5d
     991: 85 12        	sta	$12                     ; 0x2012 <printf+0x13>
     993: a5 11        	lda	$11                     ; 0x2011 <printf+0x12>
     995: 69 20        	adc	#$20
     997: aa           	tax
     998: 85 13        	sta	$13                     ; 0x2013 <printf+0x14>
     99a: 84 16        	sty	$16                     ; 0x2016 <printf+0x17>
     99c: 98           	tya
     99d: 18           	clc
     99e: 65 12        	adc	$12                     ; 0x2012 <printf+0x13>
     9a0: 85 14        	sta	$14                     ; 0x2014 <printf+0x15>
     9a2: 8a           	txa
     9a3: 69 00        	adc	#$0
     9a5: 85 15        	sta	$15                     ; 0x2015 <printf+0x16>
     9a7: a9 10        	lda	#$10
     9a9: 91 12        	sta	($12),y                 ; 0x2012 <printf+0x13>
     9ab: a9 00        	lda	#$0
     9ad: a0 01        	ldy	#$1
     9af: 91 14        	sta	($14),y                 ; 0x2014 <printf+0x15>
     9b1: a5 16        	lda	$16                     ; 0x2016 <printf+0x17>
     9b3: 18           	clc
     9b4: 69 02        	adc	#$2
     9b6: a8           	tay
     9b7: c9 1e        	cmp	#$1e
     9b9: d0 d1        	bne	$98c <main+0x437>
     9bb: a6 24        	ldx	$24                     ; 0x2024 <printf+0x25>
     9bd: 86 12        	stx	$12                     ; 0x2012 <printf+0x13>
     9bf: a6 25        	ldx	$25                     ; 0x2025 <printf+0x26>
     9c1: 86 13        	stx	$13                     ; 0x2013 <printf+0x14>
     9c3: a2 40        	ldx	#$40
     9c5: 64 14        	stz	$14                     ; 0x2014 <printf+0x15>
     9c7: a9 00        	lda	#$0
     9c9: 20 74 2f     	jsr	$2f74 <__memset>
     9cc: 64 14        	stz	$14                     ; 0x2014 <printf+0x15>
     9ce: 64 01        	stz	$1                      ; 0x2001 <printf+0x2>
     9d0: a2 2f        	ldx	#$2f
     9d2: 8e 00 d0     	stx	$d000                   ; 0xd000 <end_block9+0x720e>
     9d5: a2 04        	ldx	#$4
     9d7: 8e 01 d0     	stx	$d001                   ; 0xd001 <end_block9+0x720f>
     9da: a2 01        	ldx	#$1
     9dc: 8e 02 d0     	stx	$d002                   ; 0xd002 <end_block9+0x7210>
     9df: a0 02        	ldy	#$2
     9e1: 8c 03 d0     	sty	$d003                   ; 0xd003 <end_block9+0x7211>
     9e4: 9c 0d d0     	stz	$d00d                   ; 0xd00d <end_block9+0x721b>
     9e7: 9c 0e d0     	stz	$d00e                   ; 0xd00e <end_block9+0x721c>
     9ea: 9c 0f d0     	stz	$d00f                   ; 0xd00f <end_block9+0x721d>
     9ed: 86 01        	stx	$1                      ; 0x2001 <printf+0x2>
     9ef: a2 f0        	ldx	#$f0
     9f1: a5 14        	lda	$14                     ; 0x2014 <printf+0x15>
     9f3: 85 12        	sta	$12                     ; 0x2012 <printf+0x13>
     9f5: 86 13        	stx	$13                     ; 0x2013 <printf+0x14>
     9f7: a4 0f        	ldy	$f                      ; 0x200f <printf+0x10>
     9f9: 78           	sei
     9fa: a9 18        	lda	#$18
     9fc: 85 0f        	sta	$f                      ; 0x200f <printf+0x10>
     9fe: b2 12        	lda	($12)                   ; 0x2012 <printf+0x13>
     a00: 85 15        	sta	$15                     ; 0x2015 <printf+0x16>
     a02: 84 0f        	sty	$f                      ; 0x200f <printf+0x10>
     a04: a5 14        	lda	$14                     ; 0x2014 <printf+0x15>
     a06: 18           	clc
     a07: 69 00        	adc	#$0
     a09: 85 12        	sta	$12                     ; 0x2012 <printf+0x13>
     a0b: 8a           	txa
     a0c: 69 e0        	adc	#$e0
     a0e: 58           	cli
     a0f: 85 13        	sta	$13                     ; 0x2013 <printf+0x14>
     a11: a5 15        	lda	$15                     ; 0x2015 <printf+0x16>
     a13: 92 12        	sta	($12)                   ; 0x2012 <printf+0x13>
     a15: e6 14        	inc	$14                     ; 0x2014 <printf+0x15>
     a17: d0 01        	bne	$a1a <main+0x4c5>
     a19: e8           	inx
     a1a: e0 f3        	cpx	#$f3
     a1c: d0 d3        	bne	$9f1 <main+0x49c>
     a1e: a4 14        	ldy	$14                     ; 0x2014 <printf+0x15>
     a20: c0 ff        	cpy	#$ff
     a22: d0 cd        	bne	$9f1 <main+0x49c>
     a24: 64 01        	stz	$1                      ; 0x2001 <printf+0x2>
     a26: 9c e6 5d     	stz	$5de6                   ; 0x5de6 <__bss_start>
     a29: a2 14        	ldx	#$14
     a2b: 8e e7 5d     	stx	$5de7                   ; 0x5de7 <__bss_start+0x1>
     a2e: a0 03        	ldy	#$3
     a30: 8c e8 5d     	sty	$5de8                   ; 0x5de8 <__bss_start+0x2>
     a33: 9c e9 5d     	stz	$5de9                   ; 0x5de9 <__bss_start+0x3>
     a36: 9c 01 d1     	stz	$d101                   ; 0xd101 <end_block9+0x730f>
     a39: 8e 02 d1     	stx	$d102                   ; 0xd102 <end_block9+0x7310>
     a3c: 8c 03 d1     	sty	$d103                   ; 0xd103 <end_block9+0x7311>
     a3f: ad 00 d1     	lda	$d100                   ; 0xd100 <end_block9+0x730e>
     a42: 29 f9        	and	#$f9
     a44: 8d 00 d1     	sta	$d100                   ; 0xd100 <end_block9+0x730e>
     a47: a2 01        	ldx	#$1
     a49: 8e 00 d1     	stx	$d100                   ; 0xd100 <end_block9+0x730e>
     a4c: 9c 08 d1     	stz	$d108                   ; 0xd108 <end_block9+0x7316>
     a4f: 9c 10 d1     	stz	$d110                   ; 0xd110 <end_block9+0x731e>
     a52: 20 8b 1b     	jsr	$1b8b <setTextLUT1>
     a55: a0 00        	ldy	#$0
     a57: a2 03        	ldx	#$3
     a59: 86 01        	stx	$1                      ; 0x2001 <printf+0x2>
     a5b: a9 c9        	lda	#$c9
     a5d: a2 10        	ldx	#$10
     a5f: 48           	pha
     a60: 8a           	txa
     a61: 5a           	phy
     a62: a0 1b        	ldy	#$1b
     a64: 91 10        	sta	($10),y                 ; 0x2010 <printf+0x11>
     a66: 7a           	ply
     a67: 68           	pla
     a68: a2 00        	ldx	#$0
     a6a: 84 14        	sty	$14                     ; 0x2014 <printf+0x15>
     a6c: 85 13        	sta	$13                     ; 0x2013 <printf+0x14>
     a6e: 98           	tya
     a6f: 0a           	asl
     a70: 0a           	asl
     a71: 85 12        	sta	$12                     ; 0x2012 <printf+0x13>
     a73: 0a           	asl
     a74: 18           	clc
     a75: 65 12        	adc	$12                     ; 0x2012 <printf+0x13>
     a77: 18           	clc
     a78: 69 0f        	adc	#$f
     a7a: a0 50        	ldy	#$50
     a7c: 48           	pha
     a7d: 5a           	phy
     a7e: a0 1b        	ldy	#$1b
     a80: b1 10        	lda	($10),y                 ; 0x2010 <printf+0x11>
     a82: 7a           	ply
     a83: 85 12        	sta	$12                     ; 0x2012 <printf+0x13>
     a85: 68           	pla
     a86: 5a           	phy
     a87: a4 12        	ldy	$12                     ; 0x2012 <printf+0x13>
     a89: 84 16        	sty	$16                     ; 0x2016 <printf+0x17>
     a8b: a4 13        	ldy	$13                     ; 0x2013 <printf+0x14>
     a8d: 84 15        	sty	$15                     ; 0x2015 <printf+0x16>
     a8f: 7a           	ply
     a90: 92 12        	sta	($12)                   ; 0x2012 <printf+0x13>
     a92: 88           	dey
     a93: e6 12        	inc	$12                     ; 0x2012 <printf+0x13>
     a95: d0 02        	bne	$a99 <main+0x544>
     a97: e6 13        	inc	$13                     ; 0x2013 <printf+0x14>
     a99: c0 00        	cpy	#$0
     a9b: d0 f3        	bne	$a90 <main+0x53b>
     a9d: a4 14        	ldy	$14                     ; 0x2014 <printf+0x15>
     a9f: c8           	iny
     aa0: d0 01        	bne	$aa3 <main+0x54e>
     aa2: e8           	inx
     aa3: 18           	clc
     aa4: a5 16        	lda	$16                     ; 0x2016 <printf+0x17>
     aa6: 69 b0        	adc	#$b0
     aa8: 5a           	phy
     aa9: a0 1b        	ldy	#$1b
     aab: 91 10        	sta	($10),y                 ; 0x2010 <printf+0x11>
     aad: 7a           	ply
     aae: a5 15        	lda	$15                     ; 0x2015 <printf+0x16>
     ab0: 69 ff        	adc	#$ff
     ab2: e0 00        	cpx	#$0
     ab4: f0 03        	beq	$ab9 <main+0x564>
     ab6: 4c 6a 0a     	jmp	$a6a <main+0x515>
     ab9: c0 14        	cpy	#$14
     abb: f0 03        	beq	$ac0 <main+0x56b>
     abd: 4c 6a 0a     	jmp	$a6a <main+0x515>
     ac0: 64 01        	stz	$1                      ; 0x2001 <printf+0x2>
     ac2: ad a7 d6     	lda	$d6a7                   ; 0xd6a7 <end_block9+0x78b5>
     ac5: 29 3f        	and	#$3f
     ac7: c9 11        	cmp	#$11
     ac9: f0 07        	beq	$ad2 <main+0x57d>
     acb: c9 22        	cmp	#$22
     acd: f0 03        	beq	$ad2 <main+0x57d>
     acf: 4c 2b 0d     	jmp	$d2b <main+0x7d6>
     ad2: ad a7 d6     	lda	$d6a7                   ; 0xd6a7 <end_block9+0x78b5>
     ad5: 29 1f        	and	#$1f
     ad7: a0 13        	ldy	#$13
     ad9: 91 10        	sta	($10),y                 ; 0x2010 <printf+0x11>
     adb: c9 11        	cmp	#$11
     add: f0 03        	beq	$ae2 <main+0x58d>
     adf: 4c 1c 0c     	jmp	$c1c <main+0x6c7>
     ae2: a2 2a        	ldx	#$2a
     ae4: 8e 40 dd     	stx	$dd40                   ; 0xdd40 <end_block9+0x7f4e>
     ae7: 64 14        	stz	$14                     ; 0x2014 <printf+0x15>
     ae9: 9c 41 dd     	stz	$dd41                   ; 0xdd41 <end_block9+0x7f4f>
     aec: 9c 41 dd     	stz	$dd41                   ; 0xdd41 <end_block9+0x7f4f>
     aef: 9c 41 dd     	stz	$dd41                   ; 0xdd41 <end_block9+0x7f4f>
     af2: a2 ef        	ldx	#$ef
     af4: 8e 41 dd     	stx	$dd41                   ; 0xdd41 <end_block9+0x7f4f>
     af7: a2 2b        	ldx	#$2b
     af9: 8e 40 dd     	stx	$dd40                   ; 0xdd40 <end_block9+0x7f4e>
     afc: 9c 41 dd     	stz	$dd41                   ; 0xdd41 <end_block9+0x7f4f>
     aff: a2 14        	ldx	#$14
     b01: 8e 41 dd     	stx	$dd41                   ; 0xdd41 <end_block9+0x7f4f>
     b04: a2 01        	ldx	#$1
     b06: 8e 41 dd     	stx	$dd41                   ; 0xdd41 <end_block9+0x7f4f>
     b09: a2 3f        	ldx	#$3f
     b0b: 8e 41 dd     	stx	$dd41                   ; 0xdd41 <end_block9+0x7f4f>
     b0e: a2 2c        	ldx	#$2c
     b10: 8e 40 dd     	stx	$dd40                   ; 0xdd40 <end_block9+0x7f4e>
     b13: 64 16        	stz	$16                     ; 0x2016 <printf+0x17>
     b15: 64 15        	stz	$15                     ; 0x2015 <printf+0x16>
     b17: a9 00        	lda	#$0
     b19: aa           	tax
     b1a: a8           	tay
     b1b: 64 12        	stz	$12                     ; 0x2012 <printf+0x13>
     b1d: 64 13        	stz	$13                     ; 0x2013 <printf+0x14>
     b1f: 84 18        	sty	$18                     ; 0x2018 <printf+0x19>
     b21: 86 17        	stx	$17                     ; 0x2017 <printf+0x18>
     b23: a2 f0        	ldx	#$f0
     b25: a4 16        	ldy	$16                     ; 0x2016 <printf+0x17>
     b27: 85 1e        	sta	$1e                     ; 0x201e <printf+0x1f>
     b29: a5 15        	lda	$15                     ; 0x2015 <printf+0x16>
     b2b: 85 1f        	sta	$1f                     ; 0x201f <printf+0x20>
     b2d: a5 15        	lda	$15                     ; 0x2015 <printf+0x16>
     b2f: 85 16        	sta	$16                     ; 0x2016 <printf+0x17>
     b31: 84 22        	sty	$22                     ; 0x2022 <printf+0x23>
     b33: 84 1a        	sty	$1a                     ; 0x201a <printf+0x1b>
     b35: a4 14        	ldy	$14                     ; 0x2014 <printf+0x15>
     b37: 84 1b        	sty	$1b                     ; 0x201b <printf+0x1c>
     b39: 84 1d        	sty	$1d                     ; 0x201d <printf+0x1e>
     b3b: 98           	tya
     b3c: 18           	clc
     b3d: 69 00        	adc	#$0
     b3f: a5 1a        	lda	$1a                     ; 0x201a <printf+0x1b>
     b41: 69 00        	adc	#$0
     b43: 85 14        	sta	$14                     ; 0x2014 <printf+0x15>
     b45: a5 15        	lda	$15                     ; 0x2015 <printf+0x16>
     b47: 69 01        	adc	#$1
     b49: 06 14        	asl	$14                     ; 0x2014 <printf+0x15>
     b4b: 2a           	rol
     b4c: 06 14        	asl	$14                     ; 0x2014 <printf+0x15>
     b4e: 2a           	rol
     b4f: a4 0f        	ldy	$f                      ; 0x200f <printf+0x10>
     b51: 78           	sei
     b52: 06 14        	asl	$14                     ; 0x2014 <printf+0x15>
     b54: 2a           	rol
     b55: 85 0f        	sta	$f                      ; 0x200f <printf+0x10>
     b57: a5 1a        	lda	$1a                     ; 0x201a <printf+0x1b>
     b59: 09 e0        	ora	#$e0
     b5b: 5a           	phy
     b5c: a4 1b        	ldy	$1b                     ; 0x201b <printf+0x1c>
     b5e: 84 14        	sty	$14                     ; 0x2014 <printf+0x15>
     b60: 7a           	ply
     b61: 85 15        	sta	$15                     ; 0x2015 <printf+0x16>
     b63: b2 14        	lda	($14)                   ; 0x2014 <printf+0x15>
     b65: 84 0f        	sty	$f                      ; 0x200f <printf+0x10>
     b67: 58           	cli
     b68: 8d 42 dd     	sta	$dd42                   ; 0xdd42 <end_block9+0x7f50>
     b6b: a5 1b        	lda	$1b                     ; 0x201b <printf+0x1c>
     b6d: 18           	clc
     b6e: 69 01        	adc	#$1
     b70: a5 1a        	lda	$1a                     ; 0x201a <printf+0x1b>
     b72: 69 00        	adc	#$0
     b74: 85 14        	sta	$14                     ; 0x2014 <printf+0x15>
     b76: a5 16        	lda	$16                     ; 0x2016 <printf+0x17>
     b78: 69 01        	adc	#$1
     b7a: 06 14        	asl	$14                     ; 0x2014 <printf+0x15>
     b7c: 2a           	rol
     b7d: 06 14        	asl	$14                     ; 0x2014 <printf+0x15>
     b7f: 2a           	rol
     b80: a4 1e        	ldy	$1e                     ; 0x201e <printf+0x1f>
     b82: 84 23        	sty	$23                     ; 0x2023 <printf+0x24>
     b84: 06 14        	asl	$14                     ; 0x2014 <printf+0x15>
     b86: 2a           	rol
     b87: a4 0f        	ldy	$f                      ; 0x200f <printf+0x10>
     b89: 78           	sei
     b8a: 85 0f        	sta	$f                      ; 0x200f <printf+0x10>
     b8c: a5 1b        	lda	$1b                     ; 0x201b <printf+0x1c>
     b8e: 85 14        	sta	$14                     ; 0x2014 <printf+0x15>
     b90: a5 1a        	lda	$1a                     ; 0x201a <printf+0x1b>
     b92: e6 14        	inc	$14                     ; 0x2014 <printf+0x15>
     b94: d0 01        	bne	$b97 <main+0x642>
     b96: 1a           	inc
     b97: 09 e0        	ora	#$e0
     b99: 85 15        	sta	$15                     ; 0x2015 <printf+0x16>
     b9b: b2 14        	lda	($14)                   ; 0x2014 <printf+0x15>
     b9d: 84 0f        	sty	$f                      ; 0x200f <printf+0x10>
     b9f: 58           	cli
     ba0: 8d 43 dd     	sta	$dd43                   ; 0xdd43 <end_block9+0x7f51>
     ba3: a5 1d        	lda	$1d                     ; 0x201d <printf+0x1e>
     ba5: ca           	dex
     ba6: 18           	clc
     ba7: 69 02        	adc	#$2
     ba9: 85 14        	sta	$14                     ; 0x2014 <printf+0x15>
     bab: a5 22        	lda	$22                     ; 0x2022 <printf+0x23>
     bad: 69 00        	adc	#$0
     baf: a8           	tay
     bb0: a5 1f        	lda	$1f                     ; 0x201f <printf+0x20>
     bb2: 69 00        	adc	#$0
     bb4: 85 15        	sta	$15                     ; 0x2015 <printf+0x16>
     bb6: a5 1e        	lda	$1e                     ; 0x201e <printf+0x1f>
     bb8: 69 00        	adc	#$0
     bba: 85 1e        	sta	$1e                     ; 0x201e <printf+0x1f>
     bbc: 8a           	txa
     bbd: f0 03        	beq	$bc2 <main+0x66d>
     bbf: 4c 29 0b     	jmp	$b29 <main+0x5d4>
     bc2: a6 16        	ldx	$16                     ; 0x2016 <printf+0x17>
     bc4: 86 19        	stx	$19                     ; 0x2019 <printf+0x1a>
     bc6: 18           	clc
     bc7: a5 1b        	lda	$1b                     ; 0x201b <printf+0x1c>
     bc9: 69 02        	adc	#$2
     bcb: 85 14        	sta	$14                     ; 0x2014 <printf+0x15>
     bcd: a5 1a        	lda	$1a                     ; 0x201a <printf+0x1b>
     bcf: 69 00        	adc	#$0
     bd1: 85 16        	sta	$16                     ; 0x2016 <printf+0x17>
     bd3: a5 19        	lda	$19                     ; 0x2019 <printf+0x1a>
     bd5: 69 00        	adc	#$0
     bd7: 85 15        	sta	$15                     ; 0x2015 <printf+0x16>
     bd9: a5 23        	lda	$23                     ; 0x2023 <printf+0x24>
     bdb: 69 00        	adc	#$0
     bdd: a6 17        	ldx	$17                     ; 0x2017 <printf+0x18>
     bdf: a4 18        	ldy	$18                     ; 0x2018 <printf+0x19>
     be1: e8           	inx
     be2: d0 09        	bne	$bed <main+0x698>
     be4: c8           	iny
     be5: d0 06        	bne	$bed <main+0x698>
     be7: e6 12        	inc	$12                     ; 0x2012 <printf+0x13>
     be9: d0 02        	bne	$bed <main+0x698>
     beb: e6 13        	inc	$13                     ; 0x2013 <printf+0x14>
     bed: e6 13        	inc	$13                     ; 0x2013 <printf+0x14>
     bef: c6 13        	dec	$13                     ; 0x2013 <printf+0x14>
     bf1: f0 03        	beq	$bf6 <main+0x6a1>
     bf3: 4c 1f 0b     	jmp	$b1f <main+0x5ca>
     bf6: e6 12        	inc	$12                     ; 0x2012 <printf+0x13>
     bf8: c6 12        	dec	$12                     ; 0x2012 <printf+0x13>
     bfa: f0 03        	beq	$bff <main+0x6aa>
     bfc: 4c 1f 0b     	jmp	$b1f <main+0x5ca>
     bff: c0 01        	cpy	#$1
     c01: f0 03        	beq	$c06 <main+0x6b1>
     c03: 4c 1f 0b     	jmp	$b1f <main+0x5ca>
     c06: e0 18        	cpx	#$18
     c08: f0 03        	beq	$c0d <main+0x6b8>
     c0a: 4c 1f 0b     	jmp	$b1f <main+0x5ca>
     c0d: a2 36        	ldx	#$36
     c0f: 8e 40 dd     	stx	$dd40                   ; 0xdd40 <end_block9+0x7f4e>
     c12: a2 80        	ldx	#$80
     c14: 8e 41 dd     	stx	$dd41                   ; 0xdd41 <end_block9+0x7f4f>
     c17: a2 2c        	ldx	#$2c
     c19: 8e 40 dd     	stx	$dd40                   ; 0xdd40 <end_block9+0x7f4e>
     c1c: a6 2f        	ldx	$2f                     ; 0x202f <printf+0x30>
     c1e: e0 04        	cpx	#$4
     c20: b0 03        	bcs	$c25 <main+0x6d0>
     c22: 4c e0 0c     	jmp	$ce0 <main+0x78b>
     c25: a0 02        	ldy	#$2
     c27: 18           	clc
     c28: a5 29        	lda	$29                     ; 0x2029 <printf+0x2a>
     c2a: 69 02        	adc	#$2
     c2c: 85 12        	sta	$12                     ; 0x2012 <printf+0x13>
     c2e: a5 2e        	lda	$2e                     ; 0x202e <printf+0x2f>
     c30: 69 00        	adc	#$0
     c32: a6 12        	ldx	$12                     ; 0x2012 <printf+0x13>
     c34: 85 14        	sta	$14                     ; 0x2014 <printf+0x15>
     c36: 85 13        	sta	$13                     ; 0x2013 <printf+0x14>
     c38: b1 2a        	lda	($2a),y                 ; 0x202a <printf+0x2b>
     c3a: 85 15        	sta	$15                     ; 0x2015 <printf+0x16>
     c3c: 88           	dey
     c3d: b1 12        	lda	($12),y                 ; 0x2012 <printf+0x13>
     c3f: a4 15        	ldy	$15                     ; 0x2015 <printf+0x16>
     c41: 84 12        	sty	$12                     ; 0x2012 <printf+0x13>
     c43: 85 13        	sta	$13                     ; 0x2013 <printf+0x14>
     c45: b2 12        	lda	($12)                   ; 0x2012 <printf+0x13>
     c47: 64 17        	stz	$17                     ; 0x2017 <printf+0x18>
     c49: 64 15        	stz	$15                     ; 0x2015 <printf+0x16>
     c4b: 48           	pha
     c4c: a0 11        	ldy	#$11
     c4e: b1 10        	lda	($10),y                 ; 0x2010 <printf+0x11>
     c50: 85 26        	sta	$26                     ; 0x2026 <printf+0x27>
     c52: c8           	iny
     c53: b1 10        	lda	($10),y                 ; 0x2010 <printf+0x11>
     c55: 85 27        	sta	$27                     ; 0x2027 <printf+0x28>
     c57: 68           	pla
     c58: d0 03        	bne	$c5d <main+0x708>
     c5a: 4c b8 0c     	jmp	$cb8 <main+0x763>
     c5d: 85 16        	sta	$16                     ; 0x2016 <printf+0x17>
     c5f: a0 00        	ldy	#$0
     c61: 64 19        	stz	$19                     ; 0x2019 <printf+0x1a>
     c63: 84 18        	sty	$18                     ; 0x2018 <printf+0x19>
     c65: 98           	tya
     c66: 18           	clc
     c67: 65 26        	adc	$26                     ; 0x2026 <printf+0x27>
     c69: 85 12        	sta	$12                     ; 0x2012 <printf+0x13>
     c6b: a5 19        	lda	$19                     ; 0x2019 <printf+0x1a>
     c6d: 65 27        	adc	$27                     ; 0x2027 <printf+0x28>
     c6f: 85 13        	sta	$13                     ; 0x2013 <printf+0x14>
     c71: a5 16        	lda	$16                     ; 0x2016 <printf+0x17>
     c73: 92 12        	sta	($12)                   ; 0x2012 <printf+0x13>
     c75: a4 15        	ldy	$15                     ; 0x2015 <printf+0x16>
     c77: 84 16        	sty	$16                     ; 0x2016 <printf+0x17>
     c79: a4 17        	ldy	$17                     ; 0x2017 <printf+0x18>
     c7b: 84 15        	sty	$15                     ; 0x2015 <printf+0x16>
     c7d: e6 15        	inc	$15                     ; 0x2015 <printf+0x16>
     c7f: d0 02        	bne	$c83 <main+0x72e>
     c81: e6 16        	inc	$16                     ; 0x2016 <printf+0x17>
     c83: 86 12        	stx	$12                     ; 0x2012 <printf+0x13>
     c85: a4 14        	ldy	$14                     ; 0x2014 <printf+0x15>
     c87: 84 13        	sty	$13                     ; 0x2013 <printf+0x14>
     c89: 18           	clc
     c8a: a0 02        	ldy	#$2
     c8c: a5 18        	lda	$18                     ; 0x2018 <printf+0x19>
     c8e: 71 2a        	adc	($2a),y                 ; 0x202a <printf+0x2b>
     c90: 85 17        	sta	$17                     ; 0x2017 <printf+0x18>
     c92: 88           	dey
     c93: a5 19        	lda	$19                     ; 0x2019 <printf+0x1a>
     c95: 71 12        	adc	($12),y                 ; 0x2012 <printf+0x13>
     c97: 5a           	phy
     c98: a4 17        	ldy	$17                     ; 0x2017 <printf+0x18>
     c9a: 84 12        	sty	$12                     ; 0x2012 <printf+0x13>
     c9c: 7a           	ply
     c9d: 85 13        	sta	$13                     ; 0x2013 <printf+0x14>
     c9f: b1 12        	lda	($12),y                 ; 0x2012 <printf+0x13>
     ca1: 48           	pha
     ca2: a4 15        	ldy	$15                     ; 0x2015 <printf+0x16>
     ca4: 84 17        	sty	$17                     ; 0x2017 <printf+0x18>
     ca6: a4 15        	ldy	$15                     ; 0x2015 <printf+0x16>
     ca8: a5 16        	lda	$16                     ; 0x2016 <printf+0x17>
     caa: 85 15        	sta	$15                     ; 0x2015 <printf+0x16>
     cac: a5 16        	lda	$16                     ; 0x2016 <printf+0x17>
     cae: 85 19        	sta	$19                     ; 0x2019 <printf+0x1a>
     cb0: 68           	pla
     cb1: 85 16        	sta	$16                     ; 0x2016 <printf+0x17>
     cb3: f0 03        	beq	$cb8 <main+0x763>
     cb5: 4c 63 0c     	jmp	$c63 <main+0x70e>
     cb8: 18           	clc
     cb9: a5 17        	lda	$17                     ; 0x2017 <printf+0x18>
     cbb: 65 26        	adc	$26                     ; 0x2026 <printf+0x27>
     cbd: 85 12        	sta	$12                     ; 0x2012 <printf+0x13>
     cbf: a5 15        	lda	$15                     ; 0x2015 <printf+0x16>
     cc1: 65 27        	adc	$27                     ; 0x2027 <printf+0x28>
     cc3: 85 13        	sta	$13                     ; 0x2013 <printf+0x14>
     cc5: a9 00        	lda	#$0
     cc7: 92 12        	sta	($12)                   ; 0x2012 <printf+0x13>
     cc9: a6 26        	ldx	$26                     ; 0x2026 <printf+0x27>
     ccb: 86 12        	stx	$12                     ; 0x2012 <printf+0x13>
     ccd: a6 27        	ldx	$27                     ; 0x2027 <printf+0x28>
     ccf: 86 13        	stx	$13                     ; 0x2013 <printf+0x14>
     cd1: 20 94 2f     	jsr	$2f94 <strlen>
     cd4: e0 00        	cpx	#$0
     cd6: f0 03        	beq	$cdb <main+0x786>
     cd8: 4c 6b 0d     	jmp	$d6b <main+0x816>
     cdb: c9 02        	cmp	#$2
     cdd: 4c 6d 0d     	jmp	$d6d <main+0x818>
     ce0: a2 8b        	ldx	#$8b
     ce2: 86 12        	stx	$12                     ; 0x2012 <printf+0x13>
     ce4: a2 30        	ldx	#$30
     ce6: 86 13        	stx	$13                     ; 0x2013 <printf+0x14>
     ce8: 20 af 2b     	jsr	$2baf <puts>
     ceb: a2 77        	ldx	#$77
     ced: 86 12        	stx	$12                     ; 0x2012 <printf+0x13>
     cef: a2 31        	ldx	#$31
     cf1: 86 13        	stx	$13                     ; 0x2013 <printf+0x14>
     cf3: 20 af 2b     	jsr	$2baf <puts>
     cf6: a2 38        	ldx	#$38
     cf8: 86 12        	stx	$12                     ; 0x2012 <printf+0x13>
     cfa: a2 31        	ldx	#$31
     cfc: 86 13        	stx	$13                     ; 0x2013 <printf+0x14>
     cfe: 20 ff 1f     	jsr	$1fff <printf>
     d01: a2 35        	ldx	#$35
     d03: 86 12        	stx	$12                     ; 0x2012 <printf+0x13>
     d05: a2 00        	ldx	#$0
     d07: 86 13        	stx	$13                     ; 0x2013 <printf+0x14>
     d09: 64 36        	stz	$36                     ; 0x2036 <printf+0x37>
     d0b: 20 00 ff     	jsr	$ff00 <end_block9+0xa10e>
     d0e: 92 2c        	sta	($2c)                   ; 0x202c <printf+0x2d>
     d10: a9 00        	lda	#$0
     d12: 6a           	ror
     d13: 85 12        	sta	$12                     ; 0x2012 <printf+0x13>
     d15: a6 36        	ldx	$36                     ; 0x2036 <printf+0x37>
     d17: e0 08        	cpx	#$8
     d19: d0 ee        	bne	$d09 <main+0x7b4>
     d1b: a6 3a        	ldx	$3a                     ; 0x203a <printf+0x3b>
     d1d: e0 94        	cpx	#$94
     d1f: d0 03        	bne	$d24 <main+0x7cf>
     d21: 4c ce 17     	jmp	$17ce <main+0x1279>
     d24: e0 20        	cpx	#$20
     d26: d0 e1        	bne	$d09 <main+0x7b4>
     d28: 4c ce 17     	jmp	$17ce <main+0x1279>
     d2b: a2 c1        	ldx	#$c1
     d2d: 86 12        	stx	$12                     ; 0x2012 <printf+0x13>
     d2f: a2 30        	ldx	#$30
     d31: 86 13        	stx	$13                     ; 0x2013 <printf+0x14>
     d33: 20 ff 1f     	jsr	$1fff <printf>
     d36: a2 58        	ldx	#$58
     d38: 86 12        	stx	$12                     ; 0x2012 <printf+0x13>
     d3a: a2 30        	ldx	#$30
     d3c: 86 13        	stx	$13                     ; 0x2013 <printf+0x14>
     d3e: 20 ff 1f     	jsr	$1fff <printf>
     d41: a2 35        	ldx	#$35
     d43: 86 12        	stx	$12                     ; 0x2012 <printf+0x13>
     d45: a2 00        	ldx	#$0
     d47: 86 13        	stx	$13                     ; 0x2013 <printf+0x14>
     d49: 64 36        	stz	$36                     ; 0x2036 <printf+0x37>
     d4b: 20 00 ff     	jsr	$ff00 <end_block9+0xa10e>
     d4e: 92 2c        	sta	($2c)                   ; 0x202c <printf+0x2d>
     d50: a9 00        	lda	#$0
     d52: 6a           	ror
     d53: 85 12        	sta	$12                     ; 0x2012 <printf+0x13>
     d55: a6 36        	ldx	$36                     ; 0x2036 <printf+0x37>
     d57: e0 08        	cpx	#$8
     d59: d0 ee        	bne	$d49 <main+0x7f4>
     d5b: a6 3a        	ldx	$3a                     ; 0x203a <printf+0x3b>
     d5d: e0 94        	cpx	#$94
     d5f: d0 03        	bne	$d64 <main+0x80f>
     d61: 4c ce 17     	jmp	$17ce <main+0x1279>
     d64: e0 20        	cpx	#$20
     d66: d0 e1        	bne	$d49 <main+0x7f4>
     d68: 4c ce 17     	jmp	$17ce <main+0x1279>
     d6b: e0 00        	cpx	#$0
     d6d: a2 00        	ldx	#$0
     d6f: a4 26        	ldy	$26                     ; 0x2026 <printf+0x27>
     d71: 84 12        	sty	$12                     ; 0x2012 <printf+0x13>
     d73: a4 27        	ldy	$27                     ; 0x2027 <printf+0x28>
     d75: 84 13        	sty	$13                     ; 0x2013 <printf+0x14>
     d77: 90 2f        	bcc	$da8 <main+0x853>
     d79: a0 01        	ldy	#$1
     d7b: b1 26        	lda	($26),y                 ; 0x2026 <printf+0x27>
     d7d: a2 00        	ldx	#$0
     d7f: a4 26        	ldy	$26                     ; 0x2026 <printf+0x27>
     d81: 84 12        	sty	$12                     ; 0x2012 <printf+0x13>
     d83: a4 27        	ldy	$27                     ; 0x2027 <printf+0x28>
     d85: 84 13        	sty	$13                     ; 0x2013 <printf+0x14>
     d87: c9 3a        	cmp	#$3a
     d89: d0 1d        	bne	$da8 <main+0x853>
     d8b: b2 26        	lda	($26)                   ; 0x2026 <printf+0x27>
     d8d: c9 30        	cmp	#$30
     d8f: a2 00        	ldx	#$0
     d91: 90 08        	bcc	$d9b <main+0x846>
     d93: c9 38        	cmp	#$38
     d95: b0 04        	bcs	$d9b <main+0x846>
     d97: 18           	clc
     d98: 69 d0        	adc	#$d0
     d9a: aa           	tax
     d9b: a5 26        	lda	$26                     ; 0x2026 <printf+0x27>
     d9d: 18           	clc
     d9e: 69 02        	adc	#$2
     da0: 85 12        	sta	$12                     ; 0x2012 <printf+0x13>
     da2: a5 27        	lda	$27                     ; 0x2027 <printf+0x28>
     da4: 69 00        	adc	#$0
     da6: 85 13        	sta	$13                     ; 0x2013 <printf+0x14>
     da8: 86 28        	stx	$28                     ; 0x2028 <printf+0x29>
     daa: a2 6c        	ldx	#$6c
     dac: 86 14        	stx	$14                     ; 0x2014 <printf+0x15>
     dae: a2 30        	ldx	#$30
     db0: 86 15        	stx	$15                     ; 0x2015 <printf+0x16>
     db2: 64 16        	stz	$16                     ; 0x2016 <printf+0x17>
     db4: 80 0a        	bra	$dc0 <main+0x86b>
     db6: a2 02        	ldx	#$2
     db8: e6 14        	inc	$14                     ; 0x2014 <printf+0x15>
     dba: d0 02        	bne	$dbe <main+0x869>
     dbc: e6 15        	inc	$15                     ; 0x2015 <printf+0x16>
     dbe: 86 16        	stx	$16                     ; 0x2016 <printf+0x17>
     dc0: b2 14        	lda	($14)                   ; 0x2014 <printf+0x15>
     dc2: c9 61        	cmp	#$61
     dc4: f0 f0        	beq	$db6 <main+0x861>
     dc6: a2 01        	ldx	#$1
     dc8: c9 77        	cmp	#$77
     dca: f0 ec        	beq	$db8 <main+0x863>
     dcc: aa           	tax
     dcd: f0 04        	beq	$dd3 <main+0x87e>
     dcf: a6 16        	ldx	$16                     ; 0x2016 <printf+0x17>
     dd1: 80 e5        	bra	$db8 <main+0x863>
     dd3: a6 12        	ldx	$12                     ; 0x2012 <printf+0x13>
     dd5: a4 16        	ldy	$16                     ; 0x2016 <printf+0x17>
     dd7: 84 29        	sty	$29                     ; 0x2029 <printf+0x2a>
     dd9: a4 13        	ldy	$13                     ; 0x2013 <printf+0x14>
     ddb: 86 fb        	stx	$fb                     ; 0x20fb <printf+0xfc>
     ddd: 84 fc        	sty	$fc                     ; 0x20fc <printf+0xfd>
     ddf: 20 94 2f     	jsr	$2f94 <strlen>
     de2: 85 fd        	sta	$fd                     ; 0x20fd <printf+0xfe>
     de4: a6 28        	ldx	$28                     ; 0x2028 <printf+0x29>
     de6: 86 f3        	stx	$f3                     ; 0x20f3 <printf+0xf4>
     de8: a6 29        	ldx	$29                     ; 0x2029 <printf+0x2a>
     dea: 86 f5        	stx	$f5                     ; 0x20f5 <printf+0xf6>
     dec: a2 35        	ldx	#$35
     dee: 86 28        	stx	$28                     ; 0x2028 <printf+0x29>
     df0: a2 00        	ldx	#$0
     df2: 86 29        	stx	$29                     ; 0x2029 <printf+0x2a>
     df4: 20 5c ff     	jsr	$ff5c <end_block9+0xa16a>
     df7: 92 2c        	sta	($2c)                   ; 0x202c <printf+0x2d>
     df9: a9 00        	lda	#$0
     dfb: 6a           	ror
     dfc: 85 28        	sta	$28                     ; 0x2028 <printf+0x29>
     dfe: a6 35        	ldx	$35                     ; 0x2035 <printf+0x36>
     e00: f0 54        	beq	$e56 <main+0x901>
     e02: a2 00        	ldx	#$0
     e04: 86 12        	stx	$12                     ; 0x2012 <printf+0x13>
     e06: a2 00        	ldx	#$0
     e08: 86 13        	stx	$13                     ; 0x2013 <printf+0x14>
     e0a: a6 12        	ldx	$12                     ; 0x2012 <printf+0x13>
     e0c: a4 13        	ldy	$13                     ; 0x2013 <printf+0x14>
     e0e: 8e ea 5d     	stx	$5dea                   ; 0x5dea <theMP3file>
     e11: 8c eb 5d     	sty	$5deb                   ; 0x5deb <theMP3file+0x1>
     e14: a5 26        	lda	$26                     ; 0x2026 <printf+0x27>
     e16: 92 10        	sta	($10)                   ; 0x2010 <printf+0x11>
     e18: a0 01        	ldy	#$1
     e1a: a5 27        	lda	$27                     ; 0x2027 <printf+0x28>
     e1c: 91 10        	sta	($10),y                 ; 0x2010 <printf+0x11>
     e1e: a2 4d        	ldx	#$4d
     e20: 86 12        	stx	$12                     ; 0x2012 <printf+0x13>
     e22: a2 31        	ldx	#$31
     e24: 86 13        	stx	$13                     ; 0x2013 <printf+0x14>
     e26: 20 ff 1f     	jsr	$1fff <printf>
     e29: a2 10        	ldx	#$10
     e2b: 86 12        	stx	$12                     ; 0x2012 <printf+0x13>
     e2d: a2 31        	ldx	#$31
     e2f: 86 13        	stx	$13                     ; 0x2013 <printf+0x14>
     e31: 20 ff 1f     	jsr	$1fff <printf>
     e34: 64 36        	stz	$36                     ; 0x2036 <printf+0x37>
     e36: 20 00 ff     	jsr	$ff00 <end_block9+0xa10e>
     e39: 92 2c        	sta	($2c)                   ; 0x202c <printf+0x2d>
     e3b: a9 00        	lda	#$0
     e3d: 6a           	ror
     e3e: 85 28        	sta	$28                     ; 0x2028 <printf+0x29>
     e40: a6 36        	ldx	$36                     ; 0x2036 <printf+0x37>
     e42: e0 08        	cpx	#$8
     e44: d0 ee        	bne	$e34 <main+0x8df>
     e46: a6 3a        	ldx	$3a                     ; 0x203a <printf+0x3b>
     e48: e0 94        	cpx	#$94
     e4a: d0 03        	bne	$e4f <main+0x8fa>
     e4c: 4c ce 17     	jmp	$17ce <main+0x1279>
     e4f: e0 20        	cpx	#$20
     e51: d0 e1        	bne	$e34 <main+0x8df>
     e53: 4c ce 17     	jmp	$17ce <main+0x1279>
     e56: b2 2c        	lda	($2c)                   ; 0x202c <printf+0x2d>
     e58: 85 2a        	sta	$2a                     ; 0x202a <printf+0x2b>
     e5a: 64 36        	stz	$36                     ; 0x2036 <printf+0x37>
     e5c: 20 00 ff     	jsr	$ff00 <end_block9+0xa10e>
     e5f: 92 2c        	sta	($2c)                   ; 0x202c <printf+0x2d>
     e61: a9 00        	lda	#$0
     e63: 6a           	ror
     e64: 85 28        	sta	$28                     ; 0x2028 <printf+0x29>
     e66: a6 36        	ldx	$36                     ; 0x2036 <printf+0x37>
     e68: e0 28        	cpx	#$28
     e6a: d0 03        	bne	$e6f <main+0x91a>
     e6c: 4c 02 0e     	jmp	$e02 <main+0x8ad>
     e6f: e0 2a        	cpx	#$2a
     e71: f0 07        	beq	$e7a <main+0x925>
     e73: e0 38        	cpx	#$38
     e75: d0 e3        	bne	$e5a <main+0x905>
     e77: 4c 02 0e     	jmp	$e02 <main+0x8ad>
     e7a: a9 01        	lda	#$1
     e7c: a2 00        	ldx	#$0
     e7e: 20 e0 2b     	jsr	$2be0 <malloc>
     e81: a5 2a        	lda	$2a                     ; 0x202a <printf+0x2b>
     e83: 92 12        	sta	($12)                   ; 0x2012 <printf+0x13>
     e85: a6 12        	ldx	$12                     ; 0x2012 <printf+0x13>
     e87: a4 13        	ldy	$13                     ; 0x2013 <printf+0x14>
     e89: 8e ea 5d     	stx	$5dea                   ; 0x5dea <theMP3file>
     e8c: 8c eb 5d     	sty	$5deb                   ; 0x5deb <theMP3file+0x1>
     e8f: a2 1f        	ldx	#$1f
     e91: 8e 20 d6     	stx	$d620                   ; 0xd620 <end_block9+0x782e>
     e94: a2 2a        	ldx	#$2a
     e96: 8e 21 d6     	stx	$d621                   ; 0xd621 <end_block9+0x782f>
     e99: a2 01        	ldx	#$1
     e9b: 8e 22 d6     	stx	$d622                   ; 0xd622 <end_block9+0x7830>
     e9e: ad 22 d6     	lda	$d622                   ; 0xd622 <end_block9+0x7830>
     ea1: 29 01        	and	#$1
     ea3: 29 01        	and	#$1
     ea5: d0 f7        	bne	$e9e <main+0x949>
     ea7: a2 03        	ldx	#$3
     ea9: 8e 01 d7     	stx	$d701                   ; 0xd701 <end_block9+0x790f>
     eac: 9c 02 d7     	stz	$d702                   ; 0xd702 <end_block9+0x7910>
     eaf: 9c 02 d7     	stz	$d702                   ; 0xd702 <end_block9+0x7910>
     eb2: a2 e0        	ldx	#$e0
     eb4: 8e 03 d7     	stx	$d703                   ; 0xd703 <end_block9+0x7911>
     eb7: a2 01        	ldx	#$1
     eb9: 8e 00 d7     	stx	$d700                   ; 0xd700 <end_block9+0x790e>
     ebc: 9c 00 d7     	stz	$d700                   ; 0xd700 <end_block9+0x790e>
     ebf: ae 00 d7     	ldx	$d700                   ; 0xd700 <end_block9+0x790e>
     ec2: 30 fb        	bmi	$ebf <main+0x96a>
     ec4: a9 3b        	lda	#$3b
     ec6: a2 12        	ldx	#$12
     ec8: a0 a0        	ldy	#$a0
     eca: 84 12        	sty	$12                     ; 0x2012 <printf+0x13>
     ecc: a0 31        	ldy	#$31
     ece: 84 13        	sty	$13                     ; 0x2013 <printf+0x14>
     ed0: 20 9e 1c     	jsr	$1c9e <initVS1053Plugin>
     ed3: a9 e8        	lda	#$e8
     ed5: a2 03        	ldx	#$3
     ed7: a0 16        	ldy	#$16
     ed9: 84 12        	sty	$12                     ; 0x2012 <printf+0x13>
     edb: a0 56        	ldy	#$56
     edd: 84 13        	sty	$13                     ; 0x2013 <printf+0x14>
     edf: 20 9e 1c     	jsr	$1c9e <initVS1053Plugin>
     ee2: ae ea 5d     	ldx	$5dea                   ; 0x5dea <theMP3file>
     ee5: ac eb 5d     	ldy	$5deb                   ; 0x5deb <theMP3file+0x1>
     ee8: 86 28        	stx	$28                     ; 0x2028 <printf+0x29>
     eea: 84 29        	sty	$29                     ; 0x2029 <printf+0x2a>
     eec: a2 40        	ldx	#$40
     eee: a4 2c        	ldy	$2c                     ; 0x202c <printf+0x2d>
     ef0: 84 2a        	sty	$2a                     ; 0x202a <printf+0x2b>
     ef2: a4 2d        	ldy	$2d                     ; 0x202d <printf+0x2e>
     ef4: 84 2b        	sty	$2b                     ; 0x202b <printf+0x2c>
     ef6: a4 2a        	ldy	$2a                     ; 0x202a <printf+0x2b>
     ef8: 84 12        	sty	$12                     ; 0x2012 <printf+0x13>
     efa: a4 2b        	ldy	$2b                     ; 0x202b <printf+0x2c>
     efc: 84 13        	sty	$13                     ; 0x2013 <printf+0x14>
     efe: a4 28        	ldy	$28                     ; 0x2028 <printf+0x29>
     f00: 84 14        	sty	$14                     ; 0x2014 <printf+0x15>
     f02: a4 29        	ldy	$29                     ; 0x2029 <printf+0x2a>
     f04: 84 15        	sty	$15                     ; 0x2015 <printf+0x16>
     f06: 86 2e        	stx	$2e                     ; 0x202e <printf+0x2f>
     f08: a2 00        	ldx	#$0
     f0a: a9 80        	lda	#$80
     f0c: 20 32 18     	jsr	$1832 <fileRead>
     f0f: a6 2e        	ldx	$2e                     ; 0x202e <printf+0x2f>
     f11: ca           	dex
     f12: a5 2a        	lda	$2a                     ; 0x202a <printf+0x2b>
     f14: 18           	clc
     f15: 69 80        	adc	#$80
     f17: 85 2a        	sta	$2a                     ; 0x202a <printf+0x2b>
     f19: a5 2b        	lda	$2b                     ; 0x202b <printf+0x2c>
     f1b: 69 00        	adc	#$0
     f1d: 85 2b        	sta	$2b                     ; 0x202b <printf+0x2c>
     f1f: 8a           	txa
     f20: d0 d4        	bne	$ef6 <main+0x9a1>
     f22: a0 01        	ldy	#$1
     f24: 84 30        	sty	$30                     ; 0x2030 <printf+0x31>
     f26: a2 42        	ldx	#$42
     f28: 86 31        	stx	$31                     ; 0x2031 <printf+0x32>
     f2a: 8e 14 d0     	stx	$d014                   ; 0xd014 <end_block9+0x7222>
     f2d: 64 28        	stz	$28                     ; 0x2028 <printf+0x29>
     f2f: 9c 15 d0     	stz	$d015                   ; 0xd015 <end_block9+0x7223>
     f32: 84 32        	sty	$32                     ; 0x2032 <printf+0x33>
     f34: 8c 16 d0     	sty	$d016                   ; 0xd016 <end_block9+0x7224>
     f37: 9c 17 d0     	stz	$d017                   ; 0xd017 <end_block9+0x7225>
     f3a: a2 6a        	ldx	#$6a
     f3c: 86 12        	stx	$12                     ; 0x2012 <printf+0x13>
     f3e: a2 31        	ldx	#$31
     f40: 86 13        	stx	$13                     ; 0x2013 <printf+0x14>
     f42: 20 7d 19     	jsr	$197d <textPrint>
     f45: a2 44        	ldx	#$44
     f47: 86 31        	stx	$31                     ; 0x2031 <printf+0x32>
     f49: 8e 14 d0     	stx	$d014                   ; 0xd014 <end_block9+0x7222>
     f4c: 9c 15 d0     	stz	$d015                   ; 0xd015 <end_block9+0x7223>
     f4f: a2 02        	ldx	#$2
     f51: 86 32        	stx	$32                     ; 0x2032 <printf+0x33>
     f53: 8e 16 d0     	stx	$d016                   ; 0xd016 <end_block9+0x7224>
     f56: 9c 17 d0     	stz	$d017                   ; 0xd017 <end_block9+0x7225>
     f59: a2 25        	ldx	#$25
     f5b: 86 12        	stx	$12                     ; 0x2012 <printf+0x13>
     f5d: a2 31        	ldx	#$31
     f5f: 86 13        	stx	$13                     ; 0x2013 <printf+0x14>
     f61: 20 7d 19     	jsr	$197d <textPrint>
     f64: a2 47        	ldx	#$47
     f66: 86 31        	stx	$31                     ; 0x2031 <printf+0x32>
     f68: 8e 14 d0     	stx	$d014                   ; 0xd014 <end_block9+0x7222>
     f6b: 9c 15 d0     	stz	$d015                   ; 0xd015 <end_block9+0x7223>
     f6e: a2 03        	ldx	#$3
     f70: 86 32        	stx	$32                     ; 0x2032 <printf+0x33>
     f72: 8e 16 d0     	stx	$d016                   ; 0xd016 <end_block9+0x7224>
     f75: 9c 17 d0     	stz	$d017                   ; 0xd017 <end_block9+0x7225>
     f78: a2 30        	ldx	#$30
     f7a: 86 12        	stx	$12                     ; 0x2012 <printf+0x13>
     f7c: a2 31        	ldx	#$31
     f7e: 86 13        	stx	$13                     ; 0x2013 <printf+0x14>
     f80: 20 7d 19     	jsr	$197d <textPrint>
     f83: 64 31        	stz	$31                     ; 0x2031 <printf+0x32>
     f85: 9c 14 d0     	stz	$d014                   ; 0xd014 <end_block9+0x7222>
     f88: 9c 15 d0     	stz	$d015                   ; 0xd015 <end_block9+0x7223>
     f8b: 64 32        	stz	$32                     ; 0x2032 <printf+0x33>
     f8d: 9c 16 d0     	stz	$d016                   ; 0xd016 <end_block9+0x7224>
     f90: 9c 17 d0     	stz	$d017                   ; 0xd017 <end_block9+0x7225>
     f93: a5 26        	lda	$26                     ; 0x2026 <printf+0x27>
     f95: 92 10        	sta	($10)                   ; 0x2010 <printf+0x11>
     f97: a0 01        	ldy	#$1
     f99: a5 27        	lda	$27                     ; 0x2027 <printf+0x28>
     f9b: 91 10        	sta	($10),y                 ; 0x2010 <printf+0x11>
     f9d: a2 38        	ldx	#$38
     f9f: 86 12        	stx	$12                     ; 0x2012 <printf+0x13>
     fa1: a2 30        	ldx	#$30
     fa3: 86 13        	stx	$13                     ; 0x2013 <printf+0x14>
     fa5: 20 ff 1f     	jsr	$1fff <printf>
     fa8: a2 08        	ldx	#$8
     faa: b2 2c        	lda	($2c)                   ; 0x202c <printf+0x2d>
     fac: 8d 07 d7     	sta	$d707                   ; 0xd707 <end_block9+0x7915>
     faf: a0 ff        	ldy	#$ff
     fb1: c6 28        	dec	$28                     ; 0x2028 <printf+0x29>
     fb3: c4 28        	cpy	$28                     ; 0x2028 <printf+0x29>
     fb5: d0 01        	bne	$fb8 <main+0xa63>
     fb7: ca           	dex
     fb8: e6 2c        	inc	$2c                     ; 0x202c <printf+0x2d>
     fba: d0 02        	bne	$fbe <main+0xa69>
     fbc: e6 2d        	inc	$2d                     ; 0x202d <printf+0x2e>
     fbe: 8a           	txa
     fbf: d0 e9        	bne	$faa <main+0xa55>
     fc1: a5 28        	lda	$28                     ; 0x2028 <printf+0x29>
     fc3: d0 e5        	bne	$faa <main+0xa55>
     fc5: 18           	clc
     fc6: a5 10        	lda	$10                     ; 0x2010 <printf+0x11>
     fc8: 69 5d        	adc	#$5d
     fca: 48           	pha
     fcb: a5 11        	lda	$11                     ; 0x2011 <printf+0x12>
     fcd: 69 00        	adc	#$0
     fcf: 85 12        	sta	$12                     ; 0x2012 <printf+0x13>
     fd1: 68           	pla
     fd2: 18           	clc
     fd3: 69 00        	adc	#$0
     fd5: aa           	tax
     fd6: a5 12        	lda	$12                     ; 0x2012 <printf+0x13>
     fd8: 69 08        	adc	#$8
     fda: 86 12        	stx	$12                     ; 0x2012 <printf+0x13>
     fdc: 85 13        	sta	$13                     ; 0x2013 <printf+0x14>
     fde: a0 08        	ldy	#$8
     fe0: a2 00        	ldx	#$0
     fe2: b2 12        	lda	($12)                   ; 0x2012 <printf+0x13>
     fe4: 8d 07 d7     	sta	$d707                   ; 0xd707 <end_block9+0x7915>
     fe7: ca           	dex
     fe8: e0 ff        	cpx	#$ff
     fea: d0 01        	bne	$fed <main+0xa98>
     fec: 88           	dey
     fed: e6 12        	inc	$12                     ; 0x2012 <printf+0x13>
     fef: d0 02        	bne	$ff3 <main+0xa9e>
     ff1: e6 13        	inc	$13                     ; 0x2013 <printf+0x14>
     ff3: 98           	tya
     ff4: d0 ec        	bne	$fe2 <main+0xa8d>
     ff6: 8a           	txa
     ff7: d0 e9        	bne	$fe2 <main+0xa8d>
     ff9: 18           	clc
     ffa: a5 10        	lda	$10                     ; 0x2010 <printf+0x11>
     ffc: 69 5d        	adc	#$5d
     ffe: 48           	pha
     fff: a5 11        	lda	$11                     ; 0x2011 <printf+0x12>
    1001: 69 20        	adc	#$20
    1003: 85 12        	sta	$12                     ; 0x2012 <printf+0x13>
    1005: 68           	pla
    1006: 18           	clc
    1007: 69 02        	adc	#$2
    1009: 85 2a        	sta	$2a                     ; 0x202a <printf+0x2b>
    100b: a5 12        	lda	$12                     ; 0x2012 <printf+0x13>
    100d: 69 00        	adc	#$0
    100f: 48           	pha
    1010: a5 2a        	lda	$2a                     ; 0x202a <printf+0x2b>
    1012: a0 15        	ldy	#$15
    1014: 91 10        	sta	($10),y                 ; 0x2010 <printf+0x11>
    1016: 68           	pla
    1017: 88           	dey
    1018: 91 10        	sta	($10),y                 ; 0x2010 <printf+0x11>
    101a: 85 2b        	sta	$2b                     ; 0x202b <printf+0x2c>
    101c: a2 10        	ldx	#$10
    101e: 8a           	txa
    101f: a0 16        	ldy	#$16
    1021: 91 10        	sta	($10),y                 ; 0x2010 <printf+0x11>
    1023: 64 12        	stz	$12                     ; 0x2012 <printf+0x13>
    1025: a9 00        	lda	#$0
    1027: a0 10        	ldy	#$10
    1029: 91 10        	sta	($10),y                 ; 0x2010 <printf+0x11>
    102b: a0 0b        	ldy	#$b
    102d: 91 10        	sta	($10),y                 ; 0x2010 <printf+0x11>
    102f: 64 2d        	stz	$2d                     ; 0x202d <printf+0x2e>
    1031: 64 2f        	stz	$2f                     ; 0x202f <printf+0x30>
    1033: 88           	dey
    1034: 91 10        	sta	($10),y                 ; 0x2010 <printf+0x11>
    1036: a0 17        	ldy	#$17
    1038: 91 10        	sta	($10),y                 ; 0x2010 <printf+0x11>
    103a: 64 2e        	stz	$2e                     ; 0x202e <printf+0x2f>
    103c: a5 2d        	lda	$2d                     ; 0x202d <printf+0x2e>
    103e: a0 0e        	ldy	#$e
    1040: 91 10        	sta	($10),y                 ; 0x2010 <printf+0x11>
    1042: a5 2e        	lda	$2e                     ; 0x202e <printf+0x2f>
    1044: c8           	iny
    1045: 91 10        	sta	($10),y                 ; 0x2010 <printf+0x11>
    1047: 64 15        	stz	$15                     ; 0x2015 <printf+0x16>
    1049: a2 00        	ldx	#$0
    104b: 64 14        	stz	$14                     ; 0x2014 <printf+0x15>
    104d: 18           	clc
    104e: 86 1a        	stx	$1a                     ; 0x201a <printf+0x1b>
    1050: 8a           	txa
    1051: 69 14        	adc	#$14
    1053: aa           	tax
    1054: a5 14        	lda	$14                     ; 0x2014 <printf+0x15>
    1056: 69 18        	adc	#$18
    1058: a0 07        	ldy	#$7
    105a: 8c 01 d7     	sty	$d701                   ; 0xd701 <end_block9+0x790f>
    105d: 9c 02 d7     	stz	$d702                   ; 0xd702 <end_block9+0x7910>
    1060: 8e 02 d7     	stx	$d702                   ; 0xd702 <end_block9+0x7910>
    1063: 8d 03 d7     	sta	$d703                   ; 0xd703 <end_block9+0x7911>
    1066: a0 01        	ldy	#$1
    1068: 8c 00 d7     	sty	$d700                   ; 0xd700 <end_block9+0x790e>
    106b: 9c 00 d7     	stz	$d700                   ; 0xd700 <end_block9+0x790e>
    106e: ad 00 d7     	lda	$d700                   ; 0xd700 <end_block9+0x790e>
    1071: 30 fb        	bmi	$106e <main+0xb19>
    1073: a0 06        	ldy	#$6
    1075: 8c 01 d7     	sty	$d701                   ; 0xd701 <end_block9+0x790f>
    1078: 9c 02 d7     	stz	$d702                   ; 0xd702 <end_block9+0x7910>
    107b: a0 03        	ldy	#$3
    107d: 8c 00 d7     	sty	$d700                   ; 0xd700 <end_block9+0x790e>
    1080: 9c 00 d7     	stz	$d700                   ; 0xd700 <end_block9+0x790e>
    1083: ad 00 d7     	lda	$d700                   ; 0xd700 <end_block9+0x790e>
    1086: 30 fb        	bmi	$1083 <main+0xb2e>
    1088: ac 02 d7     	ldy	$d702                   ; 0xd702 <end_block9+0x7910>
    108b: 84 16        	sty	$16                     ; 0x2016 <printf+0x17>
    108d: ac 03 d7     	ldy	$d703                   ; 0xd703 <end_block9+0x7911>
    1090: 84 18        	sty	$18                     ; 0x2018 <printf+0x19>
    1092: 18           	clc
    1093: a5 10        	lda	$10                     ; 0x2010 <printf+0x11>
    1095: 69 7b        	adc	#$7b
    1097: 85 12        	sta	$12                     ; 0x2012 <printf+0x13>
    1099: a5 11        	lda	$11                     ; 0x2011 <printf+0x12>
    109b: 69 20        	adc	#$20
    109d: 85 17        	sta	$17                     ; 0x2017 <printf+0x18>
    109f: 85 13        	sta	$13                     ; 0x2013 <printf+0x14>
    10a1: a5 15        	lda	$15                     ; 0x2015 <printf+0x16>
    10a3: 18           	clc
    10a4: 65 12        	adc	$12                     ; 0x2012 <printf+0x13>
    10a6: 85 19        	sta	$19                     ; 0x2019 <printf+0x1a>
    10a8: a4 15        	ldy	$15                     ; 0x2015 <printf+0x16>
    10aa: a5 16        	lda	$16                     ; 0x2016 <printf+0x17>
    10ac: 91 12        	sta	($12),y                 ; 0x2012 <printf+0x13>
    10ae: a5 17        	lda	$17                     ; 0x2017 <printf+0x18>
    10b0: 69 00        	adc	#$0
    10b2: a6 19        	ldx	$19                     ; 0x2019 <printf+0x1a>
    10b4: 86 16        	stx	$16                     ; 0x2016 <printf+0x17>
    10b6: 85 17        	sta	$17                     ; 0x2017 <printf+0x18>
    10b8: a0 01        	ldy	#$1
    10ba: a5 18        	lda	$18                     ; 0x2018 <printf+0x19>
    10bc: 91 16        	sta	($16),y                 ; 0x2016 <printf+0x17>
    10be: a6 1a        	ldx	$1a                     ; 0x201a <printf+0x1b>
    10c0: e8           	inx
    10c1: d0 02        	bne	$10c5 <main+0xb70>
    10c3: e6 14        	inc	$14                     ; 0x2014 <printf+0x15>
    10c5: 18           	clc
    10c6: a5 15        	lda	$15                     ; 0x2015 <printf+0x16>
    10c8: 69 02        	adc	#$2
    10ca: 85 15        	sta	$15                     ; 0x2015 <printf+0x16>
    10cc: a5 14        	lda	$14                     ; 0x2014 <printf+0x15>
    10ce: f0 03        	beq	$10d3 <main+0xb7e>
    10d0: 4c 4d 10     	jmp	$104d <main+0xaf8>
    10d3: e0 0f        	cpx	#$f
    10d5: f0 03        	beq	$10da <main+0xb85>
    10d7: 4c 4d 10     	jmp	$104d <main+0xaf8>
    10da: a0 10        	ldy	#$10
    10dc: b1 10        	lda	($10),y                 ; 0x2010 <printf+0x11>
    10de: 29 01        	and	#$1
    10e0: a0 01        	ldy	#$1
    10e2: 48           	pha
    10e3: 98           	tya
    10e4: a0 10        	ldy	#$10
    10e6: 91 10        	sta	($10),y                 ; 0x2010 <printf+0x11>
    10e8: 68           	pla
    10e9: f0 03        	beq	$10ee <main+0xb99>
    10eb: 4c 4f 11     	jmp	$114f <main+0xbfa>
    10ee: a9 1f        	lda	#$1f
    10f0: a0 04        	ldy	#$4
    10f2: 31 12        	and	($12),y                 ; 0x2012 <printf+0x13>
    10f4: f0 51        	beq	$1147 <main+0xbf2>
    10f6: 64 31        	stz	$31                     ; 0x2031 <printf+0x32>
    10f8: 9c 14 d0     	stz	$d014                   ; 0xd014 <end_block9+0x7222>
    10fb: 9c 15 d0     	stz	$d015                   ; 0xd015 <end_block9+0x7223>
    10fe: 64 32        	stz	$32                     ; 0x2032 <printf+0x33>
    1100: 9c 16 d0     	stz	$d016                   ; 0xd016 <end_block9+0x7224>
    1103: 9c 17 d0     	stz	$d017                   ; 0xd017 <end_block9+0x7225>
    1106: a0 11        	ldy	#$11
    1108: b1 10        	lda	($10),y                 ; 0x2010 <printf+0x11>
    110a: 85 14        	sta	$14                     ; 0x2014 <printf+0x15>
    110c: c8           	iny
    110d: b1 10        	lda	($10),y                 ; 0x2010 <printf+0x11>
    110f: 85 15        	sta	$15                     ; 0x2015 <printf+0x16>
    1111: a5 14        	lda	$14                     ; 0x2014 <printf+0x15>
    1113: 92 10        	sta	($10)                   ; 0x2010 <printf+0x11>
    1115: a0 01        	ldy	#$1
    1117: a5 15        	lda	$15                     ; 0x2015 <printf+0x16>
    1119: 91 10        	sta	($10),y                 ; 0x2010 <printf+0x11>
    111b: a2 6f        	ldx	#$6f
    111d: 86 12        	stx	$12                     ; 0x2012 <printf+0x13>
    111f: a2 30        	ldx	#$30
    1121: 86 13        	stx	$13                     ; 0x2013 <printf+0x14>
    1123: 20 ff 1f     	jsr	$1fff <printf>
    1126: a2 3e        	ldx	#$3e
    1128: 86 31        	stx	$31                     ; 0x2031 <printf+0x32>
    112a: 8e 14 d0     	stx	$d014                   ; 0xd014 <end_block9+0x7222>
    112d: 9c 15 d0     	stz	$d015                   ; 0xd015 <end_block9+0x7223>
    1130: a2 08        	ldx	#$8
    1132: 86 32        	stx	$32                     ; 0x2032 <printf+0x33>
    1134: 8e 16 d0     	stx	$d016                   ; 0xd016 <end_block9+0x7224>
    1137: 9c 17 d0     	stz	$d017                   ; 0xd017 <end_block9+0x7225>
    113a: a2 47        	ldx	#$47
    113c: 86 12        	stx	$12                     ; 0x2012 <printf+0x13>
    113e: a2 30        	ldx	#$30
    1140: 86 13        	stx	$13                     ; 0x2013 <printf+0x14>
    1142: 20 7d 19     	jsr	$197d <textPrint>
    1145: 80 08        	bra	$114f <main+0xbfa>
    1147: 64 12        	stz	$12                     ; 0x2012 <printf+0x13>
    1149: a9 00        	lda	#$0
    114b: a0 10        	ldy	#$10
    114d: 91 10        	sta	($10),y                 ; 0x2010 <printf+0x11>
    114f: 64 36        	stz	$36                     ; 0x2036 <printf+0x37>
    1151: 18           	clc
    1152: a5 10        	lda	$10                     ; 0x2010 <printf+0x11>
    1154: 69 1c        	adc	#$1c
    1156: 85 16        	sta	$16                     ; 0x2016 <printf+0x17>
    1158: a5 11        	lda	$11                     ; 0x2011 <printf+0x12>
    115a: 69 00        	adc	#$0
    115c: 85 17        	sta	$17                     ; 0x2017 <printf+0x18>
    115e: a2 35        	ldx	#$35
    1160: 86 12        	stx	$12                     ; 0x2012 <printf+0x13>
    1162: a2 00        	ldx	#$0
    1164: 86 13        	stx	$13                     ; 0x2013 <printf+0x14>
    1166: a5 16        	lda	$16                     ; 0x2016 <printf+0x17>
    1168: a0 0c        	ldy	#$c
    116a: 91 10        	sta	($10),y                 ; 0x2010 <printf+0x11>
    116c: a5 17        	lda	$17                     ; 0x2017 <printf+0x18>
    116e: c8           	iny
    116f: 91 10        	sta	($10),y                 ; 0x2010 <printf+0x11>
    1171: 20 00 ff     	jsr	$ff00 <end_block9+0xa10e>
    1174: 92 16        	sta	($16)                   ; 0x2016 <printf+0x17>
    1176: a9 00        	lda	#$0
    1178: 6a           	ror
    1179: 85 12        	sta	$12                     ; 0x2012 <printf+0x13>
    117b: a6 36        	ldx	$36                     ; 0x2036 <printf+0x37>
    117d: e0 08        	cpx	#$8
    117f: d0 26        	bne	$11a7 <main+0xc52>
    1181: a6 3a        	ldx	$3a                     ; 0x203a <printf+0x3b>
    1183: e0 81        	cpx	#$81
    1185: f0 07        	beq	$118e <main+0xc39>
    1187: e0 92        	cpx	#$92
    1189: d0 1c        	bne	$11a7 <main+0xc52>
    118b: 4c c1 17     	jmp	$17c1 <main+0x126c>
    118e: a0 0b        	ldy	#$b
    1190: b1 10        	lda	($10),y                 ; 0x2010 <printf+0x11>
    1192: d0 08        	bne	$119c <main+0xc47>
    1194: 20 0f 1c     	jsr	$1c0f <setTextLUT2>
    1197: a2 01        	ldx	#$1
    1199: 8a           	txa
    119a: 80 07        	bra	$11a3 <main+0xc4e>
    119c: 20 8b 1b     	jsr	$1b8b <setTextLUT1>
    119f: 64 12        	stz	$12                     ; 0x2012 <printf+0x13>
    11a1: a9 00        	lda	#$0
    11a3: a0 0b        	ldy	#$b
    11a5: 91 10        	sta	($10),y                 ; 0x2010 <printf+0x11>
    11a7: a0 17        	ldy	#$17
    11a9: b1 10        	lda	($10),y                 ; 0x2010 <printf+0x11>
    11ab: f0 17        	beq	$11c4 <main+0xc6f>
    11ad: a0 0a        	ldy	#$a
    11af: b1 10        	lda	($10),y                 ; 0x2010 <printf+0x11>
    11b1: aa           	tax
    11b2: c9 81        	cmp	#$81
    11b4: f0 14        	beq	$11ca <main+0xc75>
    11b6: a0 01        	ldy	#$1
    11b8: 98           	tya
    11b9: a0 17        	ldy	#$17
    11bb: 91 10        	sta	($10),y                 ; 0x2010 <printf+0x11>
    11bd: e0 92        	cpx	#$92
    11bf: d0 2e        	bne	$11ef <main+0xc9a>
    11c1: 4c c1 17     	jmp	$17c1 <main+0x126c>
    11c4: 64 12        	stz	$12                     ; 0x2012 <printf+0x13>
    11c6: a9 00        	lda	#$0
    11c8: 80 23        	bra	$11ed <main+0xc98>
    11ca: a0 0b        	ldy	#$b
    11cc: b1 10        	lda	($10),y                 ; 0x2010 <printf+0x11>
    11ce: d0 0e        	bne	$11de <main+0xc89>
    11d0: 20 0f 1c     	jsr	$1c0f <setTextLUT2>
    11d3: a2 01        	ldx	#$1
    11d5: 8a           	txa
    11d6: a0 0b        	ldy	#$b
    11d8: 91 10        	sta	($10),y                 ; 0x2010 <printf+0x11>
    11da: 64 12        	stz	$12                     ; 0x2012 <printf+0x13>
    11dc: 80 0b        	bra	$11e9 <main+0xc94>
    11de: 20 8b 1b     	jsr	$1b8b <setTextLUT1>
    11e1: 64 12        	stz	$12                     ; 0x2012 <printf+0x13>
    11e3: a9 00        	lda	#$0
    11e5: a0 0b        	ldy	#$b
    11e7: 91 10        	sta	($10),y                 ; 0x2010 <printf+0x11>
    11e9: a9 00        	lda	#$0
    11eb: a0 17        	ldy	#$17
    11ed: 91 10        	sta	($10),y                 ; 0x2010 <printf+0x11>
    11ef: a2 25        	ldx	#$25
    11f1: 8a           	txa
    11f2: a0 1b        	ldy	#$1b
    11f4: 91 10        	sta	($10),y                 ; 0x2010 <printf+0x11>
    11f6: ca           	dex
    11f7: 8a           	txa
    11f8: 88           	dey
    11f9: 91 10        	sta	($10),y                 ; 0x2010 <printf+0x11>
    11fb: a2 c9        	ldx	#$c9
    11fd: 8a           	txa
    11fe: 88           	dey
    11ff: 91 10        	sta	($10),y                 ; 0x2010 <printf+0x11>
    1201: a2 01        	ldx	#$1
    1203: a9 00        	lda	#$0
    1205: a0 c9        	ldy	#$c9
    1207: 48           	pha
    1208: 98           	tya
    1209: a0 18        	ldy	#$18
    120b: 91 10        	sta	($10),y                 ; 0x2010 <printf+0x11>
    120d: 68           	pla
    120e: 64 18        	stz	$18                     ; 0x2018 <printf+0x19>
    1210: 86 1a        	stx	$1a                     ; 0x201a <printf+0x1b>
    1212: 18           	clc
    1213: 48           	pha
    1214: a5 10        	lda	$10                     ; 0x2010 <printf+0x11>
    1216: 69 7b        	adc	#$7b
    1218: 85 12        	sta	$12                     ; 0x2012 <printf+0x13>
    121a: a5 11        	lda	$11                     ; 0x2011 <printf+0x12>
    121c: 69 20        	adc	#$20
    121e: 85 13        	sta	$13                     ; 0x2013 <printf+0x14>
    1220: 68           	pla
    1221: 85 1b        	sta	$1b                     ; 0x201b <printf+0x1c>
    1223: 18           	clc
    1224: 65 12        	adc	$12                     ; 0x2012 <printf+0x13>
    1226: 85 12        	sta	$12                     ; 0x2012 <printf+0x13>
    1228: a5 13        	lda	$13                     ; 0x2013 <printf+0x14>
    122a: 69 00        	adc	#$0
    122c: 85 13        	sta	$13                     ; 0x2013 <printf+0x14>
    122e: a9 1f        	lda	#$1f
    1230: a0 02        	ldy	#$2
    1232: 31 12        	and	($12),y                 ; 0x2012 <printf+0x13>
    1234: 85 1c        	sta	$1c                     ; 0x201c <printf+0x1d>
    1236: 0a           	asl
    1237: 64 12        	stz	$12                     ; 0x2012 <printf+0x13>
    1239: 26 12        	rol	$12                     ; 0x2012 <printf+0x13>
    123b: 85 13        	sta	$13                     ; 0x2013 <printf+0x14>
    123d: 06 13        	asl	$13                     ; 0x2013 <printf+0x14>
    123f: 26 12        	rol	$12                     ; 0x2012 <printf+0x13>
    1241: 48           	pha
    1242: a0 13        	ldy	#$13
    1244: b1 10        	lda	($10),y                 ; 0x2010 <printf+0x11>
    1246: aa           	tax
    1247: 68           	pla
    1248: e0 11        	cpx	#$11
    124a: f0 03        	beq	$124f <main+0xcfa>
    124c: 4c b0 13     	jmp	$13b0 <main+0xe5b>
    124f: 85 19        	sta	$19                     ; 0x2019 <printf+0x1a>
    1251: a4 1b        	ldy	$1b                     ; 0x201b <printf+0x1c>
    1253: 84 14        	sty	$14                     ; 0x2014 <printf+0x15>
    1255: 5a           	phy
    1256: a0 15        	ldy	#$15
    1258: b1 10        	lda	($10),y                 ; 0x2010 <printf+0x11>
    125a: 18           	clc
    125b: 65 14        	adc	$14                     ; 0x2014 <printf+0x15>
    125d: aa           	tax
    125e: 88           	dey
    125f: b1 10        	lda	($10),y                 ; 0x2010 <printf+0x11>
    1261: 7a           	ply
    1262: 69 00        	adc	#$0
    1264: 86 14        	stx	$14                     ; 0x2014 <printf+0x15>
    1266: 85 15        	sta	$15                     ; 0x2015 <printf+0x16>
    1268: b1 2a        	lda	($2a),y                 ; 0x202a <printf+0x2b>
    126a: 85 1d        	sta	$1d                     ; 0x201d <printf+0x1e>
    126c: 85 16        	sta	$16                     ; 0x2016 <printf+0x17>
    126e: a0 01        	ldy	#$1
    1270: b1 14        	lda	($14),y                 ; 0x2014 <printf+0x15>
    1272: aa           	tax
    1273: a4 16        	ldy	$16                     ; 0x2016 <printf+0x17>
    1275: 84 15        	sty	$15                     ; 0x2015 <printf+0x16>
    1277: 06 15        	asl	$15                     ; 0x2015 <printf+0x16>
    1279: 2a           	rol
    127a: a4 15        	ldy	$15                     ; 0x2015 <printf+0x16>
    127c: 06 15        	asl	$15                     ; 0x2015 <printf+0x16>
    127e: 2a           	rol
    127f: 85 14        	sta	$14                     ; 0x2014 <printf+0x15>
    1281: 8a           	txa
    1282: 86 17        	stx	$17                     ; 0x2017 <printf+0x18>
    1284: a2 00        	ldx	#$0
    1286: e4 17        	cpx	$17                     ; 0x2017 <printf+0x18>
    1288: d0 18        	bne	$12a2 <main+0xd4d>
    128a: a6 1c        	ldx	$1c                     ; 0x201c <printf+0x1d>
    128c: e4 16        	cpx	$16                     ; 0x2016 <printf+0x17>
    128e: 90 18        	bcc	$12a8 <main+0xd53>
    1290: aa           	tax
    1291: f0 03        	beq	$1296 <main+0xd41>
    1293: 4c 2d 13     	jmp	$132d <main+0xdd8>
    1296: a6 1d        	ldx	$1d                     ; 0x201d <printf+0x1e>
    1298: e4 1c        	cpx	$1c                     ; 0x201c <printf+0x1d>
    129a: b0 03        	bcs	$129f <main+0xd4a>
    129c: 4c 34 13     	jmp	$1334 <main+0xddf>
    129f: 4c b0 13     	jmp	$13b0 <main+0xe5b>
    12a2: 85 17        	sta	$17                     ; 0x2017 <printf+0x18>
    12a4: e4 17        	cpx	$17                     ; 0x2017 <printf+0x18>
    12a6: b0 e8        	bcs	$1290 <main+0xd3b>
    12a8: a0 f8        	ldy	#$f8
    12aa: 18           	clc
    12ab: a5 19        	lda	$19                     ; 0x2019 <printf+0x1a>
    12ad: 69 28        	adc	#$28
    12af: 85 16        	sta	$16                     ; 0x2016 <printf+0x17>
    12b1: 85 19        	sta	$19                     ; 0x2019 <printf+0x1a>
    12b3: a5 1a        	lda	$1a                     ; 0x201a <printf+0x1b>
    12b5: 0a           	asl
    12b6: 0a           	asl
    12b7: 0a           	asl
    12b8: 18           	clc
    12b9: 85 1e        	sta	$1e                     ; 0x201e <printf+0x1f>
    12bb: 69 3c        	adc	#$3c
    12bd: 85 1f        	sta	$1f                     ; 0x201f <printf+0x20>
    12bf: 38           	sec
    12c0: a5 1d        	lda	$1d                     ; 0x201d <printf+0x1e>
    12c2: e5 1c        	sbc	$1c                     ; 0x201c <printf+0x1d>
    12c4: 85 17        	sta	$17                     ; 0x2017 <printf+0x18>
    12c6: a2 2a        	ldx	#$2a
    12c8: 8e 40 dd     	stx	$dd40                   ; 0xdd40 <end_block9+0x7f4e>
    12cb: 9c 41 dd     	stz	$dd41                   ; 0xdd41 <end_block9+0x7f4f>
    12ce: a6 1f        	ldx	$1f                     ; 0x201f <printf+0x20>
    12d0: 8e 41 dd     	stx	$dd41                   ; 0xdd41 <end_block9+0x7f4f>
    12d3: 9c 41 dd     	stz	$dd41                   ; 0xdd41 <end_block9+0x7f4f>
    12d6: 18           	clc
    12d7: a5 1e        	lda	$1e                     ; 0x201e <printf+0x1f>
    12d9: 69 3d        	adc	#$3d
    12db: 8d 41 dd     	sta	$dd41                   ; 0xdd41 <end_block9+0x7f4f>
    12de: a2 2b        	ldx	#$2b
    12e0: 8e 40 dd     	stx	$dd40                   ; 0xdd40 <end_block9+0x7f4e>
    12e3: 9c 41 dd     	stz	$dd41                   ; 0xdd41 <end_block9+0x7f4f>
    12e6: 18           	clc
    12e7: a5 19        	lda	$19                     ; 0x2019 <printf+0x1a>
    12e9: 69 14        	adc	#$14
    12eb: 8d 41 dd     	sta	$dd41                   ; 0xdd41 <end_block9+0x7f4f>
    12ee: 18           	clc
    12ef: a5 17        	lda	$17                     ; 0x2017 <printf+0x18>
    12f1: 65 16        	adc	$16                     ; 0x2016 <printf+0x17>
    12f3: 8d 41 dd     	sta	$dd41                   ; 0xdd41 <end_block9+0x7f4f>
    12f6: 29 fe        	and	#$fe
    12f8: 8d 41 dd     	sta	$dd41                   ; 0xdd41 <end_block9+0x7f4f>
    12fb: a5 15        	lda	$15                     ; 0x2015 <printf+0x16>
    12fd: 09 01        	ora	#$1
    12ff: 38           	sec
    1300: e5 13        	sbc	$13                     ; 0x2013 <printf+0x14>
    1302: 85 15        	sta	$15                     ; 0x2015 <printf+0x16>
    1304: a5 14        	lda	$14                     ; 0x2014 <printf+0x15>
    1306: e5 12        	sbc	$12                     ; 0x2012 <printf+0x13>
    1308: e8           	inx
    1309: 8e 40 dd     	stx	$dd40                   ; 0xdd40 <end_block9+0x7f4e>
    130c: 9c 42 dd     	stz	$dd42                   ; 0xdd42 <end_block9+0x7f50>
    130f: 8c 43 dd     	sty	$dd43                   ; 0xdd43 <end_block9+0x7f51>
    1312: a6 15        	ldx	$15                     ; 0x2015 <printf+0x16>
    1314: 86 14        	stx	$14                     ; 0x2014 <printf+0x15>
    1316: a2 ff        	ldx	#$ff
    1318: c6 14        	dec	$14                     ; 0x2014 <printf+0x15>
    131a: e4 14        	cpx	$14                     ; 0x2014 <printf+0x15>
    131c: d0 01        	bne	$131f <main+0xdca>
    131e: 3a           	dec
    131f: a6 14        	ldx	$14                     ; 0x2014 <printf+0x15>
    1321: 86 15        	stx	$15                     ; 0x2015 <printf+0x16>
    1323: aa           	tax
    1324: d0 e6        	bne	$130c <main+0xdb7>
    1326: a6 14        	ldx	$14                     ; 0x2014 <printf+0x15>
    1328: d0 e2        	bne	$130c <main+0xdb7>
    132a: 4c b0 13     	jmp	$13b0 <main+0xe5b>
    132d: c9 00        	cmp	#$0
    132f: 90 03        	bcc	$1334 <main+0xddf>
    1331: 4c b0 13     	jmp	$13b0 <main+0xe5b>
    1334: 18           	clc
    1335: 98           	tya
    1336: 69 28        	adc	#$28
    1338: 85 17        	sta	$17                     ; 0x2017 <printf+0x18>
    133a: a8           	tay
    133b: a5 1a        	lda	$1a                     ; 0x201a <printf+0x1b>
    133d: 0a           	asl
    133e: 0a           	asl
    133f: 0a           	asl
    1340: 18           	clc
    1341: 85 19        	sta	$19                     ; 0x2019 <printf+0x1a>
    1343: 69 3c        	adc	#$3c
    1345: 85 1d        	sta	$1d                     ; 0x201d <printf+0x1e>
    1347: a5 1c        	lda	$1c                     ; 0x201c <printf+0x1d>
    1349: 38           	sec
    134a: e5 16        	sbc	$16                     ; 0x2016 <printf+0x17>
    134c: 85 16        	sta	$16                     ; 0x2016 <printf+0x17>
    134e: a2 2a        	ldx	#$2a
    1350: 8e 40 dd     	stx	$dd40                   ; 0xdd40 <end_block9+0x7f4e>
    1353: 9c 41 dd     	stz	$dd41                   ; 0xdd41 <end_block9+0x7f4f>
    1356: a6 1d        	ldx	$1d                     ; 0x201d <printf+0x1e>
    1358: 8e 41 dd     	stx	$dd41                   ; 0xdd41 <end_block9+0x7f4f>
    135b: 9c 41 dd     	stz	$dd41                   ; 0xdd41 <end_block9+0x7f4f>
    135e: 18           	clc
    135f: a5 19        	lda	$19                     ; 0x2019 <printf+0x1a>
    1361: 69 3d        	adc	#$3d
    1363: 8d 41 dd     	sta	$dd41                   ; 0xdd41 <end_block9+0x7f4f>
    1366: a2 2b        	ldx	#$2b
    1368: 8e 40 dd     	stx	$dd40                   ; 0xdd40 <end_block9+0x7f4e>
    136b: 9c 41 dd     	stz	$dd41                   ; 0xdd41 <end_block9+0x7f4f>
    136e: 18           	clc
    136f: 98           	tya
    1370: 69 14        	adc	#$14
    1372: 8d 41 dd     	sta	$dd41                   ; 0xdd41 <end_block9+0x7f4f>
    1375: 18           	clc
    1376: a5 16        	lda	$16                     ; 0x2016 <printf+0x17>
    1378: 65 17        	adc	$17                     ; 0x2017 <printf+0x18>
    137a: 8d 41 dd     	sta	$dd41                   ; 0xdd41 <end_block9+0x7f4f>
    137d: 29 fe        	and	#$fe
    137f: 8d 41 dd     	sta	$dd41                   ; 0xdd41 <end_block9+0x7f4f>
    1382: a5 13        	lda	$13                     ; 0x2013 <printf+0x14>
    1384: 09 01        	ora	#$1
    1386: 38           	sec
    1387: e5 15        	sbc	$15                     ; 0x2015 <printf+0x16>
    1389: a8           	tay
    138a: a5 12        	lda	$12                     ; 0x2012 <printf+0x13>
    138c: e5 14        	sbc	$14                     ; 0x2014 <printf+0x15>
    138e: e8           	inx
    138f: 8e 40 dd     	stx	$dd40                   ; 0xdd40 <end_block9+0x7f4e>
    1392: a2 e0        	ldx	#$e0
    1394: 8e 42 dd     	stx	$dd42                   ; 0xdd42 <end_block9+0x7f50>
    1397: a2 07        	ldx	#$7
    1399: 8e 43 dd     	stx	$dd43                   ; 0xdd43 <end_block9+0x7f51>
    139c: 84 14        	sty	$14                     ; 0x2014 <printf+0x15>
    139e: a2 ff        	ldx	#$ff
    13a0: c6 14        	dec	$14                     ; 0x2014 <printf+0x15>
    13a2: e4 14        	cpx	$14                     ; 0x2014 <printf+0x15>
    13a4: d0 01        	bne	$13a7 <main+0xe52>
    13a6: 3a           	dec
    13a7: a4 14        	ldy	$14                     ; 0x2014 <printf+0x15>
    13a9: aa           	tax
    13aa: d0 e6        	bne	$1392 <main+0xe3d>
    13ac: a6 14        	ldx	$14                     ; 0x2014 <printf+0x15>
    13ae: d0 e2        	bne	$1392 <main+0xe3d>
    13b0: a6 01        	ldx	$1                      ; 0x2001 <printf+0x2>
    13b2: a0 02        	ldy	#$2
    13b4: 84 01        	sty	$1                      ; 0x2001 <printf+0x2>
    13b6: a4 1b        	ldy	$1b                     ; 0x201b <printf+0x1c>
    13b8: 84 14        	sty	$14                     ; 0x2014 <printf+0x15>
    13ba: 5a           	phy
    13bb: a0 15        	ldy	#$15
    13bd: b1 10        	lda	($10),y                 ; 0x2010 <printf+0x11>
    13bf: 18           	clc
    13c0: 65 14        	adc	$14                     ; 0x2014 <printf+0x15>
    13c2: 85 16        	sta	$16                     ; 0x2016 <printf+0x17>
    13c4: 88           	dey
    13c5: b1 10        	lda	($10),y                 ; 0x2010 <printf+0x11>
    13c7: 7a           	ply
    13c8: 69 00        	adc	#$0
    13ca: 5a           	phy
    13cb: a4 16        	ldy	$16                     ; 0x2016 <printf+0x17>
    13cd: 84 14        	sty	$14                     ; 0x2014 <printf+0x15>
    13cf: 7a           	ply
    13d0: 85 15        	sta	$15                     ; 0x2015 <printf+0x16>
    13d2: b1 2a        	lda	($2a),y                 ; 0x202a <printf+0x2b>
    13d4: 85 1d        	sta	$1d                     ; 0x201d <printf+0x1e>
    13d6: 85 17        	sta	$17                     ; 0x2017 <printf+0x18>
    13d8: a0 01        	ldy	#$1
    13da: b1 14        	lda	($14),y                 ; 0x2014 <printf+0x15>
    13dc: 85 16        	sta	$16                     ; 0x2016 <printf+0x17>
    13de: d0 1b        	bne	$13fb <main+0xea6>
    13e0: a4 1d        	ldy	$1d                     ; 0x201d <printf+0x1e>
    13e2: c4 1c        	cpy	$1c                     ; 0x201c <printf+0x1d>
    13e4: 90 19        	bcc	$13ff <main+0xeaa>
    13e6: a0 00        	ldy	#$0
    13e8: c4 16        	cpy	$16                     ; 0x2016 <printf+0x17>
    13ea: f0 03        	beq	$13ef <main+0xe9a>
    13ec: 4c f5 14     	jmp	$14f5 <main+0xfa0>
    13ef: a4 1c        	ldy	$1c                     ; 0x201c <printf+0x1d>
    13f1: c4 17        	cpy	$17                     ; 0x2017 <printf+0x18>
    13f3: 90 03        	bcc	$13f8 <main+0xea3>
    13f5: 4c a5 14     	jmp	$14a5 <main+0xf50>
    13f8: 4c fc 14     	jmp	$14fc <main+0xfa7>
    13fb: c9 00        	cmp	#$0
    13fd: b0 e7        	bcs	$13e6 <main+0xe91>
    13ff: a5 1c        	lda	$1c                     ; 0x201c <printf+0x1d>
    1401: 38           	sec
    1402: e5 17        	sbc	$17                     ; 0x2017 <printf+0x18>
    1404: a8           	tay
    1405: a9 00        	lda	#$0
    1407: e5 16        	sbc	$16                     ; 0x2016 <printf+0x17>
    1409: 85 19        	sta	$19                     ; 0x2019 <printf+0x1a>
    140b: a5 17        	lda	$17                     ; 0x2017 <printf+0x18>
    140d: 0a           	asl
    140e: 26 16        	rol	$16                     ; 0x2016 <printf+0x17>
    1410: 0a           	asl
    1411: 26 16        	rol	$16                     ; 0x2016 <printf+0x17>
    1413: 0a           	asl
    1414: 26 16        	rol	$16                     ; 0x2016 <printf+0x17>
    1416: 0a           	asl
    1417: 85 12        	sta	$12                     ; 0x2012 <printf+0x13>
    1419: 26 16        	rol	$16                     ; 0x2016 <printf+0x17>
    141b: 0a           	asl
    141c: 5a           	phy
    141d: a4 16        	ldy	$16                     ; 0x2016 <printf+0x17>
    141f: 84 13        	sty	$13                     ; 0x2013 <printf+0x14>
    1421: 7a           	ply
    1422: 26 13        	rol	$13                     ; 0x2013 <printf+0x14>
    1424: 0a           	asl
    1425: 26 13        	rol	$13                     ; 0x2013 <printf+0x14>
    1427: 18           	clc
    1428: 65 12        	adc	$12                     ; 0x2012 <printf+0x13>
    142a: 85 12        	sta	$12                     ; 0x2012 <printf+0x13>
    142c: a5 13        	lda	$13                     ; 0x2013 <printf+0x14>
    142e: 65 16        	adc	$16                     ; 0x2016 <printf+0x17>
    1430: 85 13        	sta	$13                     ; 0x2013 <printf+0x14>
    1432: 5a           	phy
    1433: a0 1b        	ldy	#$1b
    1435: b1 10        	lda	($10),y                 ; 0x2010 <printf+0x11>
    1437: 38           	sec
    1438: e5 12        	sbc	$12                     ; 0x2012 <printf+0x13>
    143a: 85 1d        	sta	$1d                     ; 0x201d <printf+0x1e>
    143c: a0 18        	ldy	#$18
    143e: b1 10        	lda	($10),y                 ; 0x2010 <printf+0x11>
    1440: e5 13        	sbc	$13                     ; 0x2013 <printf+0x14>
    1442: 85 1e        	sta	$1e                     ; 0x201e <printf+0x1f>
    1444: a0 1a        	ldy	#$1a
    1446: b1 10        	lda	($10),y                 ; 0x2010 <printf+0x11>
    1448: 38           	sec
    1449: e5 12        	sbc	$12                     ; 0x2012 <printf+0x13>
    144b: 85 1f        	sta	$1f                     ; 0x201f <printf+0x20>
    144d: 88           	dey
    144e: b1 10        	lda	($10),y                 ; 0x2010 <printf+0x11>
    1450: 7a           	ply
    1451: e5 13        	sbc	$13                     ; 0x2013 <printf+0x14>
    1453: 85 16        	sta	$16                     ; 0x2016 <printf+0x17>
    1455: a5 1f        	lda	$1f                     ; 0x201f <printf+0x20>
    1457: 85 12        	sta	$12                     ; 0x2012 <printf+0x13>
    1459: a5 16        	lda	$16                     ; 0x2016 <printf+0x17>
    145b: 85 22        	sta	$22                     ; 0x2022 <printf+0x23>
    145d: a5 16        	lda	$16                     ; 0x2016 <printf+0x17>
    145f: 85 13        	sta	$13                     ; 0x2013 <printf+0x14>
    1461: a5 1d        	lda	$1d                     ; 0x201d <printf+0x1e>
    1463: 85 16        	sta	$16                     ; 0x2016 <printf+0x17>
    1465: a5 1e        	lda	$1e                     ; 0x201e <printf+0x1f>
    1467: 85 17        	sta	$17                     ; 0x2017 <printf+0x18>
    1469: a9 15        	lda	#$15
    146b: 92 12        	sta	($12)                   ; 0x2012 <printf+0x13>
    146d: 92 16        	sta	($16)                   ; 0x2016 <printf+0x17>
    146f: 84 12        	sty	$12                     ; 0x2012 <printf+0x13>
    1471: a4 19        	ldy	$19                     ; 0x2019 <printf+0x1a>
    1473: 84 13        	sty	$13                     ; 0x2013 <printf+0x14>
    1475: a0 ff        	ldy	#$ff
    1477: c6 12        	dec	$12                     ; 0x2012 <printf+0x13>
    1479: c4 12        	cpy	$12                     ; 0x2012 <printf+0x13>
    147b: d0 02        	bne	$147f <main+0xf2a>
    147d: c6 13        	dec	$13                     ; 0x2013 <printf+0x14>
    147f: 18           	clc
    1480: a5 1d        	lda	$1d                     ; 0x201d <printf+0x1e>
    1482: 69 b0        	adc	#$b0
    1484: 85 1d        	sta	$1d                     ; 0x201d <printf+0x1e>
    1486: a5 1e        	lda	$1e                     ; 0x201e <printf+0x1f>
    1488: 69 ff        	adc	#$ff
    148a: 85 1e        	sta	$1e                     ; 0x201e <printf+0x1f>
    148c: 18           	clc
    148d: a5 1f        	lda	$1f                     ; 0x201f <printf+0x20>
    148f: 69 b0        	adc	#$b0
    1491: 85 1f        	sta	$1f                     ; 0x201f <printf+0x20>
    1493: a5 22        	lda	$22                     ; 0x2022 <printf+0x23>
    1495: 69 ff        	adc	#$ff
    1497: 85 16        	sta	$16                     ; 0x2016 <printf+0x17>
    1499: a4 12        	ldy	$12                     ; 0x2012 <printf+0x13>
    149b: a5 13        	lda	$13                     ; 0x2013 <printf+0x14>
    149d: 85 19        	sta	$19                     ; 0x2019 <printf+0x1a>
    149f: d0 b4        	bne	$1455 <main+0xf00>
    14a1: a5 12        	lda	$12                     ; 0x2012 <printf+0x13>
    14a3: d0 b0        	bne	$1455 <main+0xf00>
    14a5: 86 01        	stx	$1                      ; 0x2001 <printf+0x2>
    14a7: a4 1b        	ldy	$1b                     ; 0x201b <printf+0x1c>
    14a9: a5 1c        	lda	$1c                     ; 0x201c <printf+0x1d>
    14ab: 91 2a        	sta	($2a),y                 ; 0x202a <printf+0x2b>
    14ad: a9 00        	lda	#$0
    14af: a0 01        	ldy	#$1
    14b1: 91 14        	sta	($14),y                 ; 0x2014 <printf+0x15>
    14b3: a6 1a        	ldx	$1a                     ; 0x201a <printf+0x1b>
    14b5: e8           	inx
    14b6: d0 02        	bne	$14ba <main+0xf65>
    14b8: e6 18        	inc	$18                     ; 0x2018 <printf+0x19>
    14ba: 18           	clc
    14bb: a5 1b        	lda	$1b                     ; 0x201b <printf+0x1c>
    14bd: 69 02        	adc	#$2
    14bf: a8           	tay
    14c0: 18           	clc
    14c1: 5a           	phy
    14c2: a0 1b        	ldy	#$1b
    14c4: b1 10        	lda	($10),y                 ; 0x2010 <printf+0x11>
    14c6: 69 03        	adc	#$3
    14c8: 91 10        	sta	($10),y                 ; 0x2010 <printf+0x11>
    14ca: a0 18        	ldy	#$18
    14cc: b1 10        	lda	($10),y                 ; 0x2010 <printf+0x11>
    14ce: 69 00        	adc	#$0
    14d0: 91 10        	sta	($10),y                 ; 0x2010 <printf+0x11>
    14d2: 18           	clc
    14d3: a0 1a        	ldy	#$1a
    14d5: b1 10        	lda	($10),y                 ; 0x2010 <printf+0x11>
    14d7: 69 03        	adc	#$3
    14d9: 91 10        	sta	($10),y                 ; 0x2010 <printf+0x11>
    14db: 88           	dey
    14dc: b1 10        	lda	($10),y                 ; 0x2010 <printf+0x11>
    14de: 69 00        	adc	#$0
    14e0: 91 10        	sta	($10),y                 ; 0x2010 <printf+0x11>
    14e2: 7a           	ply
    14e3: 98           	tya
    14e4: a4 18        	ldy	$18                     ; 0x2018 <printf+0x19>
    14e6: f0 03        	beq	$14eb <main+0xf96>
    14e8: 4c 10 12     	jmp	$1210 <main+0xcbb>
    14eb: e0 0f        	cpx	#$f
    14ed: f0 03        	beq	$14f2 <main+0xf9d>
    14ef: 4c 10 12     	jmp	$1210 <main+0xcbb>
    14f2: 4c a5 15     	jmp	$15a5 <main+0x1050>
    14f5: c4 16        	cpy	$16                     ; 0x2016 <printf+0x17>
    14f7: 90 03        	bcc	$14fc <main+0xfa7>
    14f9: 4c a5 14     	jmp	$14a5 <main+0xf50>
    14fc: a4 1c        	ldy	$1c                     ; 0x201c <printf+0x1d>
    14fe: c0 18        	cpy	#$18
    1500: 90 03        	bcc	$1505 <main+0xfb0>
    1502: 4c a5 14     	jmp	$14a5 <main+0xf50>
    1505: 18           	clc
    1506: a5 1c        	lda	$1c                     ; 0x201c <printf+0x1d>
    1508: 69 e8        	adc	#$e8
    150a: a8           	tay
    150b: a9 00        	lda	#$0
    150d: 69 ff        	adc	#$ff
    150f: 85 19        	sta	$19                     ; 0x2019 <printf+0x1a>
    1511: 06 13        	asl	$13                     ; 0x2013 <printf+0x14>
    1513: 26 12        	rol	$12                     ; 0x2012 <printf+0x13>
    1515: 06 13        	asl	$13                     ; 0x2013 <printf+0x14>
    1517: 26 12        	rol	$12                     ; 0x2012 <printf+0x13>
    1519: a5 13        	lda	$13                     ; 0x2013 <printf+0x14>
    151b: 0a           	asl
    151c: 85 16        	sta	$16                     ; 0x2016 <printf+0x17>
    151e: a5 12        	lda	$12                     ; 0x2012 <printf+0x13>
    1520: 2a           	rol
    1521: 06 16        	asl	$16                     ; 0x2016 <printf+0x17>
    1523: 2a           	rol
    1524: 85 17        	sta	$17                     ; 0x2017 <printf+0x18>
    1526: 18           	clc
    1527: a5 16        	lda	$16                     ; 0x2016 <printf+0x17>
    1529: 65 13        	adc	$13                     ; 0x2013 <printf+0x14>
    152b: 85 13        	sta	$13                     ; 0x2013 <printf+0x14>
    152d: a5 17        	lda	$17                     ; 0x2017 <printf+0x18>
    152f: 65 12        	adc	$12                     ; 0x2012 <printf+0x13>
    1531: 85 12        	sta	$12                     ; 0x2012 <printf+0x13>
    1533: 5a           	phy
    1534: a0 1b        	ldy	#$1b
    1536: b1 10        	lda	($10),y                 ; 0x2010 <printf+0x11>
    1538: 38           	sec
    1539: e5 13        	sbc	$13                     ; 0x2013 <printf+0x14>
    153b: 85 1d        	sta	$1d                     ; 0x201d <printf+0x1e>
    153d: a0 18        	ldy	#$18
    153f: b1 10        	lda	($10),y                 ; 0x2010 <printf+0x11>
    1541: e5 12        	sbc	$12                     ; 0x2012 <printf+0x13>
    1543: 85 1e        	sta	$1e                     ; 0x201e <printf+0x1f>
    1545: a0 1a        	ldy	#$1a
    1547: b1 10        	lda	($10),y                 ; 0x2010 <printf+0x11>
    1549: 38           	sec
    154a: e5 13        	sbc	$13                     ; 0x2013 <printf+0x14>
    154c: 85 1f        	sta	$1f                     ; 0x201f <printf+0x20>
    154e: 88           	dey
    154f: b1 10        	lda	($10),y                 ; 0x2010 <printf+0x11>
    1551: 7a           	ply
    1552: e5 12        	sbc	$12                     ; 0x2012 <printf+0x13>
    1554: 85 16        	sta	$16                     ; 0x2016 <printf+0x17>
    1556: a5 1f        	lda	$1f                     ; 0x201f <printf+0x20>
    1558: 85 12        	sta	$12                     ; 0x2012 <printf+0x13>
    155a: a5 16        	lda	$16                     ; 0x2016 <printf+0x17>
    155c: 85 22        	sta	$22                     ; 0x2022 <printf+0x23>
    155e: a5 16        	lda	$16                     ; 0x2016 <printf+0x17>
    1560: 85 13        	sta	$13                     ; 0x2013 <printf+0x14>
    1562: a5 1d        	lda	$1d                     ; 0x201d <printf+0x1e>
    1564: 85 16        	sta	$16                     ; 0x2016 <printf+0x17>
    1566: a5 1e        	lda	$1e                     ; 0x201e <printf+0x1f>
    1568: 85 17        	sta	$17                     ; 0x2017 <printf+0x18>
    156a: a9 20        	lda	#$20
    156c: 92 12        	sta	($12)                   ; 0x2012 <printf+0x13>
    156e: 92 16        	sta	($16)                   ; 0x2016 <printf+0x17>
    1570: 84 12        	sty	$12                     ; 0x2012 <printf+0x13>
    1572: a4 19        	ldy	$19                     ; 0x2019 <printf+0x1a>
    1574: 84 13        	sty	$13                     ; 0x2013 <printf+0x14>
    1576: e6 12        	inc	$12                     ; 0x2012 <printf+0x13>
    1578: d0 02        	bne	$157c <main+0x1027>
    157a: e6 13        	inc	$13                     ; 0x2013 <printf+0x14>
    157c: 18           	clc
    157d: a5 1d        	lda	$1d                     ; 0x201d <printf+0x1e>
    157f: 69 b0        	adc	#$b0
    1581: 85 1d        	sta	$1d                     ; 0x201d <printf+0x1e>
    1583: a5 1e        	lda	$1e                     ; 0x201e <printf+0x1f>
    1585: 69 ff        	adc	#$ff
    1587: 85 1e        	sta	$1e                     ; 0x201e <printf+0x1f>
    1589: 18           	clc
    158a: a5 1f        	lda	$1f                     ; 0x201f <printf+0x20>
    158c: 69 b0        	adc	#$b0
    158e: 85 1f        	sta	$1f                     ; 0x201f <printf+0x20>
    1590: a5 22        	lda	$22                     ; 0x2022 <printf+0x23>
    1592: 69 ff        	adc	#$ff
    1594: 85 16        	sta	$16                     ; 0x2016 <printf+0x17>
    1596: a4 12        	ldy	$12                     ; 0x2012 <printf+0x13>
    1598: a5 13        	lda	$13                     ; 0x2013 <printf+0x14>
    159a: 85 19        	sta	$19                     ; 0x2019 <printf+0x1a>
    159c: d0 b8        	bne	$1556 <main+0x1001>
    159e: a5 12        	lda	$12                     ; 0x2012 <printf+0x13>
    15a0: d0 b4        	bne	$1556 <main+0x1001>
    15a2: 4c a5 14     	jmp	$14a5 <main+0xf50>
    15a5: ae 04 d7     	ldx	$d704                   ; 0xd704 <end_block9+0x7912>
    15a8: 86 12        	stx	$12                     ; 0x2012 <printf+0x13>
    15aa: ad 05 d7     	lda	$d705                   ; 0xd705 <end_block9+0x7913>
    15ad: 29 07        	and	#$7
    15af: 85 13        	sta	$13                     ; 0x2013 <printf+0x14>
    15b1: 38           	sec
    15b2: a9 00        	lda	#$0
    15b4: e5 12        	sbc	$12                     ; 0x2012 <printf+0x13>
    15b6: 85 12        	sta	$12                     ; 0x2012 <printf+0x13>
    15b8: a9 08        	lda	#$8
    15ba: e5 13        	sbc	$13                     ; 0x2013 <printf+0x14>
    15bc: 06 12        	asl	$12                     ; 0x2012 <printf+0x13>
    15be: 2a           	rol
    15bf: 64 2c        	stz	$2c                     ; 0x202c <printf+0x2d>
    15c1: 26 2c        	rol	$2c                     ; 0x202c <printf+0x2d>
    15c3: 06 12        	asl	$12                     ; 0x2012 <printf+0x13>
    15c5: 2a           	rol
    15c6: 85 29        	sta	$29                     ; 0x2029 <printf+0x2a>
    15c8: 26 2c        	rol	$2c                     ; 0x202c <printf+0x2d>
    15ca: d0 07        	bne	$15d3 <main+0x107e>
    15cc: a5 29        	lda	$29                     ; 0x2029 <printf+0x2a>
    15ce: d0 03        	bne	$15d3 <main+0x107e>
    15d0: 4c 31 17     	jmp	$1731 <main+0x11dc>
    15d3: a2 00        	ldx	#$0
    15d5: a0 00        	ldy	#$0
    15d7: 64 12        	stz	$12                     ; 0x2012 <printf+0x13>
    15d9: 5a           	phy
    15da: 98           	tya
    15db: a0 1b        	ldy	#$1b
    15dd: 91 10        	sta	($10),y                 ; 0x2010 <printf+0x11>
    15df: a0 0f        	ldy	#$f
    15e1: b1 10        	lda	($10),y                 ; 0x2010 <printf+0x11>
    15e3: 85 2e        	sta	$2e                     ; 0x202e <printf+0x2f>
    15e5: 88           	dey
    15e6: b1 10        	lda	($10),y                 ; 0x2010 <printf+0x11>
    15e8: 7a           	ply
    15e9: 85 2d        	sta	$2d                     ; 0x202d <printf+0x2e>
    15eb: 5a           	phy
    15ec: a0 1b        	ldy	#$1b
    15ee: b1 10        	lda	($10),y                 ; 0x2010 <printf+0x11>
    15f0: 7a           	ply
    15f1: 29 01        	and	#$1
    15f3: f0 03        	beq	$15f8 <main+0x10a3>
    15f5: 4c 40 17     	jmp	$1740 <main+0x11eb>
    15f8: 84 26        	sty	$26                     ; 0x2026 <printf+0x27>
    15fa: 86 28        	stx	$28                     ; 0x2028 <printf+0x29>
    15fc: a0 17        	ldy	#$17
    15fe: b1 10        	lda	($10),y                 ; 0x2010 <printf+0x11>
    1600: 29 01        	and	#$1
    1602: a0 01        	ldy	#$1
    1604: 48           	pha
    1605: 98           	tya
    1606: a0 17        	ldy	#$17
    1608: 91 10        	sta	($10),y                 ; 0x2010 <printf+0x11>
    160a: 68           	pla
    160b: d0 39        	bne	$1646 <main+0x10f1>
    160d: 64 12        	stz	$12                     ; 0x2012 <printf+0x13>
    160f: a9 00        	lda	#$0
    1611: 91 10        	sta	($10),y                 ; 0x2010 <printf+0x11>
    1613: 64 36        	stz	$36                     ; 0x2036 <printf+0x37>
    1615: a2 35        	ldx	#$35
    1617: 86 12        	stx	$12                     ; 0x2012 <printf+0x13>
    1619: a2 00        	ldx	#$0
    161b: 86 13        	stx	$13                     ; 0x2013 <printf+0x14>
    161d: a0 0c        	ldy	#$c
    161f: b1 10        	lda	($10),y                 ; 0x2010 <printf+0x11>
    1621: 85 14        	sta	$14                     ; 0x2014 <printf+0x15>
    1623: c8           	iny
    1624: b1 10        	lda	($10),y                 ; 0x2010 <printf+0x11>
    1626: 85 15        	sta	$15                     ; 0x2015 <printf+0x16>
    1628: 20 00 ff     	jsr	$ff00 <end_block9+0xa10e>
    162b: 92 14        	sta	($14)                   ; 0x2014 <printf+0x15>
    162d: a9 00        	lda	#$0
    162f: 6a           	ror
    1630: 85 12        	sta	$12                     ; 0x2012 <printf+0x13>
    1632: a6 36        	ldx	$36                     ; 0x2036 <printf+0x37>
    1634: e0 08        	cpx	#$8
    1636: d0 0e        	bne	$1646 <main+0x10f1>
    1638: a6 3a        	ldx	$3a                     ; 0x203a <printf+0x3b>
    163a: 8a           	txa
    163b: a0 0a        	ldy	#$a
    163d: 91 10        	sta	($10),y                 ; 0x2010 <printf+0x11>
    163f: a2 01        	ldx	#$1
    1641: 8a           	txa
    1642: a0 17        	ldy	#$17
    1644: 91 10        	sta	($10),y                 ; 0x2010 <printf+0x11>
    1646: 18           	clc
    1647: a5 10        	lda	$10                     ; 0x2010 <printf+0x11>
    1649: 69 5d        	adc	#$5d
    164b: 85 12        	sta	$12                     ; 0x2012 <printf+0x13>
    164d: a5 11        	lda	$11                     ; 0x2011 <printf+0x12>
    164f: 69 00        	adc	#$0
    1651: 85 13        	sta	$13                     ; 0x2013 <printf+0x14>
    1653: a6 2e        	ldx	$2e                     ; 0x202e <printf+0x2f>
    1655: a5 2e        	lda	$2e                     ; 0x202e <printf+0x2f>
    1657: 18           	clc
    1658: 65 12        	adc	$12                     ; 0x2012 <printf+0x13>
    165a: 85 12        	sta	$12                     ; 0x2012 <printf+0x13>
    165c: a0 16        	ldy	#$16
    165e: b1 10        	lda	($10),y                 ; 0x2010 <printf+0x11>
    1660: 65 13        	adc	$13                     ; 0x2013 <printf+0x14>
    1662: 85 13        	sta	$13                     ; 0x2013 <printf+0x14>
    1664: a0 00        	ldy	#$0
    1666: b1 12        	lda	($12),y                 ; 0x2012 <printf+0x13>
    1668: 8d 07 d7     	sta	$d707                   ; 0xd707 <end_block9+0x7915>
    166b: c8           	iny
    166c: c0 40        	cpy	#$40
    166e: d0 f6        	bne	$1666 <main+0x1111>
    1670: 18           	clc
    1671: 8a           	txa
    1672: 69 40        	adc	#$40
    1674: 85 2e        	sta	$2e                     ; 0x202e <printf+0x2f>
    1676: a0 16        	ldy	#$16
    1678: b1 10        	lda	($10),y                 ; 0x2010 <printf+0x11>
    167a: 69 00        	adc	#$0
    167c: 91 10        	sta	($10),y                 ; 0x2010 <printf+0x11>
    167e: c9 20        	cmp	#$20
    1680: d0 10        	bne	$1692 <main+0x113d>
    1682: a6 2d        	ldx	$2d                     ; 0x202d <printf+0x2e>
    1684: a5 2e        	lda	$2e                     ; 0x202e <printf+0x2f>
    1686: d0 0c        	bne	$1694 <main+0x113f>
    1688: 64 2e        	stz	$2e                     ; 0x202e <printf+0x2f>
    168a: 64 12        	stz	$12                     ; 0x2012 <printf+0x13>
    168c: a9 00        	lda	#$0
    168e: 91 10        	sta	($10),y                 ; 0x2010 <printf+0x11>
    1690: 80 02        	bra	$1694 <main+0x113f>
    1692: a6 2d        	ldx	$2d                     ; 0x202d <printf+0x2e>
    1694: 18           	clc
    1695: a5 10        	lda	$10                     ; 0x2010 <printf+0x11>
    1697: 69 5d        	adc	#$5d
    1699: 85 12        	sta	$12                     ; 0x2012 <printf+0x13>
    169b: a5 11        	lda	$11                     ; 0x2011 <printf+0x12>
    169d: 69 00        	adc	#$0
    169f: 85 13        	sta	$13                     ; 0x2013 <printf+0x14>
    16a1: 18           	clc
    16a2: 8a           	txa
    16a3: 65 12        	adc	$12                     ; 0x2012 <printf+0x13>
    16a5: 85 12        	sta	$12                     ; 0x2012 <printf+0x13>
    16a7: a5 2f        	lda	$2f                     ; 0x202f <printf+0x30>
    16a9: 65 13        	adc	$13                     ; 0x2013 <printf+0x14>
    16ab: 85 13        	sta	$13                     ; 0x2013 <printf+0x14>
    16ad: ae ea 5d     	ldx	$5dea                   ; 0x5dea <theMP3file>
    16b0: ac eb 5d     	ldy	$5deb                   ; 0x5deb <theMP3file+0x1>
    16b3: 86 14        	stx	$14                     ; 0x2014 <printf+0x15>
    16b5: 84 15        	sty	$15                     ; 0x2015 <printf+0x16>
    16b7: a2 00        	ldx	#$0
    16b9: a9 40        	lda	#$40
    16bb: 20 32 18     	jsr	$1832 <fileRead>
    16be: a2 01        	ldx	#$1
    16c0: c9 40        	cmp	#$40
    16c2: f0 02        	beq	$16c6 <main+0x1171>
    16c4: a2 00        	ldx	#$0
    16c6: e0 00        	cpx	#$0
    16c8: f0 2d        	beq	$16f7 <main+0x11a2>
    16ca: 86 16        	stx	$16                     ; 0x2016 <printf+0x17>
    16cc: 18           	clc
    16cd: a5 2d        	lda	$2d                     ; 0x202d <printf+0x2e>
    16cf: 69 40        	adc	#$40
    16d1: 85 2d        	sta	$2d                     ; 0x202d <printf+0x2e>
    16d3: a5 2f        	lda	$2f                     ; 0x202f <printf+0x30>
    16d5: 69 00        	adc	#$0
    16d7: 85 2f        	sta	$2f                     ; 0x202f <printf+0x30>
    16d9: c9 20        	cmp	#$20
    16db: d0 2c        	bne	$1709 <main+0x11b4>
    16dd: 64 12        	stz	$12                     ; 0x2012 <printf+0x13>
    16df: a9 00        	lda	#$0
    16e1: a0 1b        	ldy	#$1b
    16e3: 91 10        	sta	($10),y                 ; 0x2010 <printf+0x11>
    16e5: a5 28        	lda	$28                     ; 0x2028 <printf+0x29>
    16e7: a6 2d        	ldx	$2d                     ; 0x202d <printf+0x2e>
    16e9: d0 28        	bne	$1713 <main+0x11be>
    16eb: 64 2d        	stz	$2d                     ; 0x202d <printf+0x2e>
    16ed: 48           	pha
    16ee: a9 00        	lda	#$0
    16f0: 91 10        	sta	($10),y                 ; 0x2010 <printf+0x11>
    16f2: 68           	pla
    16f3: 64 2f        	stz	$2f                     ; 0x202f <printf+0x30>
    16f5: 80 1c        	bra	$1713 <main+0x11be>
    16f7: 86 16        	stx	$16                     ; 0x2016 <printf+0x17>
    16f9: 18           	clc
    16fa: 65 2d        	adc	$2d                     ; 0x202d <printf+0x2e>
    16fc: 85 2d        	sta	$2d                     ; 0x202d <printf+0x2e>
    16fe: a9 00        	lda	#$0
    1700: 65 2f        	adc	$2f                     ; 0x202f <printf+0x30>
    1702: 85 2f        	sta	$2f                     ; 0x202f <printf+0x30>
    1704: a2 01        	ldx	#$1
    1706: 8a           	txa
    1707: 80 04        	bra	$170d <main+0x11b8>
    1709: 64 12        	stz	$12                     ; 0x2012 <printf+0x13>
    170b: a9 00        	lda	#$0
    170d: a0 1b        	ldy	#$1b
    170f: 91 10        	sta	($10),y                 ; 0x2010 <printf+0x11>
    1711: a5 28        	lda	$28                     ; 0x2028 <printf+0x29>
    1713: aa           	tax
    1714: e8           	inx
    1715: d0 02        	bne	$1719 <main+0x11c4>
    1717: e6 26        	inc	$26                     ; 0x2026 <printf+0x27>
    1719: a4 26        	ldy	$26                     ; 0x2026 <printf+0x27>
    171b: c4 2c        	cpy	$2c                     ; 0x202c <printf+0x2d>
    171d: f0 03        	beq	$1722 <main+0x11cd>
    171f: 4c eb 15     	jmp	$15eb <main+0x1096>
    1722: e4 29        	cpx	$29                     ; 0x2029 <printf+0x2a>
    1724: f0 03        	beq	$1729 <main+0x11d4>
    1726: 4c eb 15     	jmp	$15eb <main+0x1096>
    1729: a6 16        	ldx	$16                     ; 0x2016 <printf+0x17>
    172b: 8a           	txa
    172c: f0 12        	beq	$1740 <main+0x11eb>
    172e: 4c 3c 10     	jmp	$103c <main+0xae7>
    1731: a2 01        	ldx	#$1
    1733: a0 0f        	ldy	#$f
    1735: b1 10        	lda	($10),y                 ; 0x2010 <printf+0x11>
    1737: 85 2e        	sta	$2e                     ; 0x202e <printf+0x2f>
    1739: 88           	dey
    173a: b1 10        	lda	($10),y                 ; 0x2010 <printf+0x11>
    173c: 85 2d        	sta	$2d                     ; 0x202d <printf+0x2e>
    173e: 80 eb        	bra	$172b <main+0x11d6>
    1740: a2 08        	ldx	#$8
    1742: 64 15        	stz	$15                     ; 0x2015 <printf+0x16>
    1744: 86 14        	stx	$14                     ; 0x2014 <printf+0x15>
    1746: ae 04 d7     	ldx	$d704                   ; 0xd704 <end_block9+0x7912>
    1749: 86 12        	stx	$12                     ; 0x2012 <printf+0x13>
    174b: ad 05 d7     	lda	$d705                   ; 0xd705 <end_block9+0x7913>
    174e: 29 07        	and	#$7
    1750: 85 13        	sta	$13                     ; 0x2013 <printf+0x14>
    1752: 38           	sec
    1753: a9 00        	lda	#$0
    1755: e5 12        	sbc	$12                     ; 0x2012 <printf+0x13>
    1757: a8           	tay
    1758: a9 08        	lda	#$8
    175a: e5 13        	sbc	$13                     ; 0x2013 <printf+0x14>
    175c: 84 17        	sty	$17                     ; 0x2017 <printf+0x18>
    175e: 06 17        	asl	$17                     ; 0x2017 <printf+0x18>
    1760: 85 16        	sta	$16                     ; 0x2016 <printf+0x17>
    1762: 2a           	rol
    1763: 64 13        	stz	$13                     ; 0x2013 <printf+0x14>
    1765: 26 13        	rol	$13                     ; 0x2013 <printf+0x14>
    1767: 06 17        	asl	$17                     ; 0x2017 <printf+0x18>
    1769: 2a           	rol
    176a: 85 12        	sta	$12                     ; 0x2012 <printf+0x13>
    176c: 26 13        	rol	$13                     ; 0x2013 <printf+0x14>
    176e: d0 04        	bne	$1774 <main+0x121f>
    1770: a5 12        	lda	$12                     ; 0x2012 <printf+0x13>
    1772: f0 47        	beq	$17bb <main+0x1266>
    1774: 84 18        	sty	$18                     ; 0x2018 <printf+0x19>
    1776: a0 00        	ldy	#$0
    1778: a2 00        	ldx	#$0
    177a: 84 17        	sty	$17                     ; 0x2017 <printf+0x18>
    177c: a0 00        	ldy	#$0
    177e: b1 24        	lda	($24),y                 ; 0x2024 <printf+0x25>
    1780: 8d 07 d7     	sta	$d707                   ; 0xd707 <end_block9+0x7915>
    1783: c8           	iny
    1784: c0 40        	cpy	#$40
    1786: d0 f6        	bne	$177e <main+0x1229>
    1788: a4 17        	ldy	$17                     ; 0x2017 <printf+0x18>
    178a: c8           	iny
    178b: d0 01        	bne	$178e <main+0x1239>
    178d: e8           	inx
    178e: e4 13        	cpx	$13                     ; 0x2013 <printf+0x14>
    1790: d0 e8        	bne	$177a <main+0x1225>
    1792: c4 12        	cpy	$12                     ; 0x2012 <printf+0x13>
    1794: d0 e4        	bne	$177a <main+0x1225>
    1796: a5 18        	lda	$18                     ; 0x2018 <printf+0x19>
    1798: 29 c0        	and	#$c0
    179a: 85 12        	sta	$12                     ; 0x2012 <printf+0x13>
    179c: a5 16        	lda	$16                     ; 0x2016 <printf+0x17>
    179e: 29 0f        	and	#$f
    17a0: 85 13        	sta	$13                     ; 0x2013 <printf+0x14>
    17a2: 38           	sec
    17a3: a5 15        	lda	$15                     ; 0x2015 <printf+0x16>
    17a5: e5 12        	sbc	$12                     ; 0x2012 <printf+0x13>
    17a7: a8           	tay
    17a8: a5 14        	lda	$14                     ; 0x2014 <printf+0x15>
    17aa: e5 13        	sbc	$13                     ; 0x2013 <printf+0x14>
    17ac: aa           	tax
    17ad: 84 15        	sty	$15                     ; 0x2015 <printf+0x16>
    17af: 8a           	txa
    17b0: f0 03        	beq	$17b5 <main+0x1260>
    17b2: 4c 44 17     	jmp	$1744 <main+0x11ef>
    17b5: 98           	tya
    17b6: f0 09        	beq	$17c1 <main+0x126c>
    17b8: 4c 44 17     	jmp	$1744 <main+0x11ef>
    17bb: a6 14        	ldx	$14                     ; 0x2014 <printf+0x15>
    17bd: a4 15        	ldy	$15                     ; 0x2015 <printf+0x16>
    17bf: 80 ec        	bra	$17ad <main+0x1258>
    17c1: ae ea 5d     	ldx	$5dea                   ; 0x5dea <theMP3file>
    17c4: ac eb 5d     	ldy	$5deb                   ; 0x5deb <theMP3file+0x1>
    17c7: 86 12        	stx	$12                     ; 0x2012 <printf+0x13>
    17c9: 84 13        	sty	$13                     ; 0x2013 <printf+0x14>
    17cb: 20 4b 1b     	jsr	$1b4b <fileClose>
    17ce: 78           	sei
    17cf: a2 07        	ldx	#$7
    17d1: 86 0f        	stx	$f                      ; 0x200f <printf+0x10>
    17d3: a2 de        	ldx	#$de
    17d5: 8e a2 d6     	stx	$d6a2                   ; 0xd6a2 <end_block9+0x78b0>
    17d8: a2 ad        	ldx	#$ad
    17da: 8e a3 d6     	stx	$d6a3                   ; 0xd6a3 <end_block9+0x78b1>
    17dd: a2 f0        	ldx	#$f0
    17df: 8e a0 d6     	stx	$d6a0                   ; 0xd6a0 <end_block9+0x78ae>
    17e2: 9c a0 d6     	stz	$d6a0                   ; 0xd6a0 <end_block9+0x78ae>
    17e5: 6c fc ff     	jmp	($fffc)                 ; 0xfffc <end_block9+0xa20a>
    17e8: a2 00        	ldx	#$0
    17ea: 8a           	txa
    17eb: 85 20        	sta	$20                     ; 0x2020 <printf+0x21>
    17ed: a0 02        	ldy	#$2
    17ef: b1 10        	lda	($10),y                 ; 0x2010 <printf+0x11>
    17f1: 85 2f        	sta	$2f                     ; 0x202f <printf+0x30>
    17f3: c8           	iny
    17f4: b1 10        	lda	($10),y                 ; 0x2010 <printf+0x11>
    17f6: 85 2e        	sta	$2e                     ; 0x202e <printf+0x2f>
    17f8: c8           	iny
    17f9: b1 10        	lda	($10),y                 ; 0x2010 <printf+0x11>
    17fb: 85 2d        	sta	$2d                     ; 0x202d <printf+0x2e>
    17fd: c8           	iny
    17fe: b1 10        	lda	($10),y                 ; 0x2010 <printf+0x11>
    1800: 85 2c        	sta	$2c                     ; 0x202c <printf+0x2d>
    1802: c8           	iny
    1803: b1 10        	lda	($10),y                 ; 0x2010 <printf+0x11>
    1805: 85 2b        	sta	$2b                     ; 0x202b <printf+0x2c>
    1807: c8           	iny
    1808: b1 10        	lda	($10),y                 ; 0x2010 <printf+0x11>
    180a: 85 2a        	sta	$2a                     ; 0x202a <printf+0x2b>
    180c: c8           	iny
    180d: b1 10        	lda	($10),y                 ; 0x2010 <printf+0x11>
    180f: 85 29        	sta	$29                     ; 0x2029 <printf+0x2a>
    1811: c8           	iny
    1812: b1 10        	lda	($10),y                 ; 0x2010 <printf+0x11>
    1814: 85 28        	sta	$28                     ; 0x2028 <printf+0x29>
    1816: 7a           	ply
    1817: 84 27        	sty	$27                     ; 0x2027 <printf+0x28>
    1819: 7a           	ply
    181a: 84 26        	sty	$26                     ; 0x2026 <printf+0x27>
    181c: 7a           	ply
    181d: 84 25        	sty	$25                     ; 0x2025 <printf+0x26>
    181f: 7a           	ply
    1820: 84 24        	sty	$24                     ; 0x2024 <printf+0x25>
    1822: 18           	clc
    1823: a5 10        	lda	$10                     ; 0x2010 <printf+0x11>
    1825: 69 99        	adc	#$99
    1827: 85 10        	sta	$10                     ; 0x2010 <printf+0x11>
    1829: a5 11        	lda	$11                     ; 0x2011 <printf+0x12>
    182b: 69 20        	adc	#$20
    182d: 85 11        	sta	$11                     ; 0x2011 <printf+0x12>
    182f: a5 20        	lda	$20                     ; 0x2020 <printf+0x21>
    1831: 60           	rts

00001832 <fileRead>:
    1832: 85 16        	sta	$16                     ; 0x2016 <printf+0x17>
    1834: 86 17        	stx	$17                     ; 0x2017 <printf+0x18>
    1836: 64 18        	stz	$18                     ; 0x2018 <printf+0x19>
    1838: a6 12        	ldx	$12                     ; 0x2012 <printf+0x13>
    183a: 86 1a        	stx	$1a                     ; 0x201a <printf+0x1b>
    183c: a6 13        	ldx	$13                     ; 0x2013 <printf+0x14>
    183e: 86 1b        	stx	$1b                     ; 0x201b <printf+0x1c>
    1840: a2 3d        	ldx	#$3d
    1842: a0 00        	ldy	#$0
    1844: a9 35        	lda	#$35
    1846: 85 12        	sta	$12                     ; 0x2012 <printf+0x13>
    1848: a9 00        	lda	#$0
    184a: 85 13        	sta	$13                     ; 0x2013 <printf+0x14>
    184c: 64 19        	stz	$19                     ; 0x2019 <printf+0x1a>
    184e: b2 14        	lda	($14)                   ; 0x2014 <printf+0x15>
    1850: 85 1d        	sta	$1d                     ; 0x201d <printf+0x1e>
    1852: a5 1a        	lda	$1a                     ; 0x201a <printf+0x1b>
    1854: 85 1e        	sta	$1e                     ; 0x201e <printf+0x1f>
    1856: a5 1a        	lda	$1a                     ; 0x201a <printf+0x1b>
    1858: 18           	clc
    1859: 65 18        	adc	$18                     ; 0x2018 <printf+0x19>
    185b: 85 1c        	sta	$1c                     ; 0x201c <printf+0x1d>
    185d: a5 1b        	lda	$1b                     ; 0x201b <printf+0x1c>
    185f: 85 1f        	sta	$1f                     ; 0x201f <printf+0x20>
    1861: a5 1b        	lda	$1b                     ; 0x201b <printf+0x1c>
    1863: 65 19        	adc	$19                     ; 0x2019 <printf+0x1a>
    1865: e6 1d        	inc	$1d                     ; 0x201d <printf+0x1e>
    1867: c6 1d        	dec	$1d                     ; 0x201d <printf+0x1e>
    1869: d0 03        	bne	$186e <fileRead+0x3c>
    186b: 4c eb 18     	jmp	$18eb <fileRead+0xb9>
    186e: 5a           	phy
    186f: a4 1d        	ldy	$1d                     ; 0x201d <printf+0x1e>
    1871: 84 1a        	sty	$1a                     ; 0x201a <printf+0x1b>
    1873: 7a           	ply
    1874: 85 1d        	sta	$1d                     ; 0x201d <printf+0x1e>
    1876: a5 16        	lda	$16                     ; 0x2016 <printf+0x17>
    1878: 38           	sec
    1879: e5 18        	sbc	$18                     ; 0x2018 <printf+0x19>
    187b: 85 1b        	sta	$1b                     ; 0x201b <printf+0x1c>
    187d: a5 1a        	lda	$1a                     ; 0x201a <printf+0x1b>
    187f: 85 f3        	sta	$f3                     ; 0x20f3 <printf+0xf4>
    1881: a5 1b        	lda	$1b                     ; 0x201b <printf+0x1c>
    1883: 85 f4        	sta	$f4                     ; 0x20f4 <printf+0xf5>
    1885: a9 3f        	lda	#$3f
    1887: 85 1a        	sta	$1a                     ; 0x201a <printf+0x1b>
    1889: a9 00        	lda	#$0
    188b: 85 1b        	sta	$1b                     ; 0x201b <printf+0x1c>
    188d: 20 60 ff     	jsr	$ff60 <end_block9+0xa16e>
    1890: 92 1a        	sta	($1a)                   ; 0x201a <printf+0x1b>
    1892: a9 00        	lda	#$0
    1894: 6a           	ror
    1895: 85 12        	sta	$12                     ; 0x2012 <printf+0x13>
    1897: a5 35        	lda	$35                     ; 0x2035 <printf+0x36>
    1899: f0 03        	beq	$189e <fileRead+0x6c>
    189b: 4c 65 19     	jmp	$1965 <fileRead+0x133>
    189e: 64 36        	stz	$36                     ; 0x2036 <printf+0x37>
    18a0: a9 40        	lda	#$40
    18a2: 85 1a        	sta	$1a                     ; 0x201a <printf+0x1b>
    18a4: a9 00        	lda	#$0
    18a6: 85 1b        	sta	$1b                     ; 0x201b <printf+0x1c>
    18a8: 20 00 ff     	jsr	$ff00 <end_block9+0xa10e>
    18ab: 92 1a        	sta	($1a)                   ; 0x201a <printf+0x1b>
    18ad: a9 00        	lda	#$0
    18af: 6a           	ror
    18b0: 85 12        	sta	$12                     ; 0x2012 <printf+0x13>
    18b2: a5 36        	lda	$36                     ; 0x2036 <printf+0x37>
    18b4: c9 38        	cmp	#$38
    18b6: d0 03        	bne	$18bb <fileRead+0x89>
    18b8: 4c 65 19     	jmp	$1965 <fileRead+0x133>
    18bb: c9 30        	cmp	#$30
    18bd: d0 03        	bne	$18c2 <fileRead+0x90>
    18bf: 4c 6c 19     	jmp	$196c <fileRead+0x13a>
    18c2: c9 2c        	cmp	#$2c
    18c4: d0 d8        	bne	$189e <fileRead+0x6c>
    18c6: a5 1c        	lda	$1c                     ; 0x201c <printf+0x1d>
    18c8: 85 fb        	sta	$fb                     ; 0x20fb <printf+0xfc>
    18ca: a5 1d        	lda	$1d                     ; 0x201d <printf+0x1e>
    18cc: 85 fc        	sta	$fc                     ; 0x20fc <printf+0xfd>
    18ce: a5 3c        	lda	$3c                     ; 0x203c <printf+0x3d>
    18d0: 85 fd        	sta	$fd                     ; 0x20fd <printf+0xfe>
    18d2: a9 41        	lda	#$41
    18d4: 85 1a        	sta	$1a                     ; 0x201a <printf+0x1b>
    18d6: a9 00        	lda	#$0
    18d8: 85 1b        	sta	$1b                     ; 0x201b <printf+0x1c>
    18da: 20 04 ff     	jsr	$ff04 <end_block9+0xa112>
    18dd: 92 1a        	sta	($1a)                   ; 0x201a <printf+0x1b>
    18df: a9 00        	lda	#$0
    18e1: 6a           	ror
    18e2: 85 12        	sta	$12                     ; 0x2012 <printf+0x13>
    18e4: a5 3c        	lda	$3c                     ; 0x203c <printf+0x3d>
    18e6: d0 45        	bne	$192d <fileRead+0xfb>
    18e8: 4c 76 19     	jmp	$1976 <fileRead+0x144>
    18eb: 5a           	phy
    18ec: a4 1c        	ldy	$1c                     ; 0x201c <printf+0x1d>
    18ee: 84 1a        	sty	$1a                     ; 0x201a <printf+0x1b>
    18f0: 7a           	ply
    18f1: 85 1b        	sta	$1b                     ; 0x201b <printf+0x1c>
    18f3: 80 0a        	bra	$18ff <fileRead+0xcd>
    18f5: a5 36        	lda	$36                     ; 0x2036 <printf+0x37>
    18f7: c9 08        	cmp	#$8
    18f9: d0 04        	bne	$18ff <fileRead+0xcd>
    18fb: a5 3c        	lda	$3c                     ; 0x203c <printf+0x3d>
    18fd: f0 28        	beq	$1927 <fileRead+0xf5>
    18ff: 64 36        	stz	$36                     ; 0x2036 <printf+0x37>
    1901: 86 1c        	stx	$1c                     ; 0x201c <printf+0x1d>
    1903: 84 1d        	sty	$1d                     ; 0x201d <printf+0x1e>
    1905: 20 00 ff     	jsr	$ff00 <end_block9+0xa10e>
    1908: 92 1c        	sta	($1c)                   ; 0x201c <printf+0x1d>
    190a: a9 00        	lda	#$0
    190c: 6a           	ror
    190d: 85 12        	sta	$12                     ; 0x2012 <printf+0x13>
    190f: a5 35        	lda	$35                     ; 0x2035 <printf+0x36>
    1911: f0 e2        	beq	$18f5 <fileRead+0xc3>
    1913: a9 3e        	lda	#$3e
    1915: 85 1c        	sta	$1c                     ; 0x201c <printf+0x1d>
    1917: a9 00        	lda	#$0
    1919: 85 1d        	sta	$1d                     ; 0x201d <printf+0x1e>
    191b: 20 0c ff     	jsr	$ff0c <end_block9+0xa11a>
    191e: 92 1c        	sta	($1c)                   ; 0x201c <printf+0x1d>
    1920: a9 00        	lda	#$0
    1922: 6a           	ror
    1923: 85 12        	sta	$12                     ; 0x2012 <printf+0x13>
    1925: 80 d8        	bra	$18ff <fileRead+0xcd>
    1927: a5 3b        	lda	$3b                     ; 0x203b <printf+0x3c>
    1929: 92 1a        	sta	($1a)                   ; 0x201a <printf+0x1b>
    192b: a9 01        	lda	#$1
    192d: 85 42        	sta	$42                     ; 0x2042 <printf+0x43>
    192f: a9 00        	lda	#$0
    1931: 85 43        	sta	$43                     ; 0x2043 <printf+0x44>
    1933: 18           	clc
    1934: a5 42        	lda	$42                     ; 0x2042 <printf+0x43>
    1936: 65 18        	adc	$18                     ; 0x2018 <printf+0x19>
    1938: 85 42        	sta	$42                     ; 0x2042 <printf+0x43>
    193a: a5 43        	lda	$43                     ; 0x2043 <printf+0x44>
    193c: 65 19        	adc	$19                     ; 0x2019 <printf+0x1a>
    193e: c5 17        	cmp	$17                     ; 0x2017 <printf+0x18>
    1940: d0 0a        	bne	$194c <fileRead+0x11a>
    1942: 85 19        	sta	$19                     ; 0x2019 <printf+0x1a>
    1944: a5 42        	lda	$42                     ; 0x2042 <printf+0x43>
    1946: 85 18        	sta	$18                     ; 0x2018 <printf+0x19>
    1948: c5 16        	cmp	$16                     ; 0x2016 <printf+0x17>
    194a: 80 08        	bra	$1954 <fileRead+0x122>
    194c: c5 17        	cmp	$17                     ; 0x2017 <printf+0x18>
    194e: 85 19        	sta	$19                     ; 0x2019 <printf+0x1a>
    1950: a5 42        	lda	$42                     ; 0x2042 <printf+0x43>
    1952: 85 18        	sta	$18                     ; 0x2018 <printf+0x19>
    1954: a5 19        	lda	$19                     ; 0x2019 <printf+0x1a>
    1956: 5a           	phy
    1957: a4 1e        	ldy	$1e                     ; 0x201e <printf+0x1f>
    1959: 84 1a        	sty	$1a                     ; 0x201a <printf+0x1b>
    195b: a4 1f        	ldy	$1f                     ; 0x201f <printf+0x20>
    195d: 84 1b        	sty	$1b                     ; 0x201b <printf+0x1c>
    195f: 7a           	ply
    1960: b0 10        	bcs	$1972 <fileRead+0x140>
    1962: 4c 4e 18     	jmp	$184e <fileRead+0x1c>
    1965: a9 ff        	lda	#$ff
    1967: aa           	tax
    1968: 86 42        	stx	$42                     ; 0x2042 <printf+0x43>
    196a: 80 06        	bra	$1972 <fileRead+0x140>
    196c: a6 18        	ldx	$18                     ; 0x2018 <printf+0x19>
    196e: 86 42        	stx	$42                     ; 0x2042 <printf+0x43>
    1970: a5 19        	lda	$19                     ; 0x2019 <printf+0x1a>
    1972: aa           	tax
    1973: a5 42        	lda	$42                     ; 0x2042 <printf+0x43>
    1975: 60           	rts
    1976: a9 00        	lda	#$0
    1978: 85 42        	sta	$42                     ; 0x2042 <printf+0x43>
    197a: 1a           	inc
    197b: 80 b4        	bra	$1931 <fileRead+0xff>

0000197d <textPrint>:
    197d: a6 01        	ldx	$1                      ; 0x2001 <printf+0x2>
    197f: 86 94        	stx	$94                     ; 0x2094 <printf+0x95>
    1981: a6 32        	ldx	$32                     ; 0x2032 <printf+0x33>
    1983: a0 50        	ldy	#$50
    1985: 8c 00 de     	sty	$de00                   ; 0xde00 <end_block9+0x800e>
    1988: 9c 01 de     	stz	$de01                   ; 0xde01 <end_block9+0x800f>
    198b: 8e 02 de     	stx	$de02                   ; 0xde02 <end_block9+0x8010>
    198e: 9c 03 de     	stz	$de03                   ; 0xde03 <end_block9+0x8011>
    1991: ae 10 de     	ldx	$de10                   ; 0xde10 <end_block9+0x801e>
    1994: ac 11 de     	ldy	$de11                   ; 0xde11 <end_block9+0x801f>
    1997: 84 15        	sty	$15                     ; 0x2015 <printf+0x16>
    1999: ad 12 de     	lda	$de12                   ; 0xde12 <end_block9+0x8020>
    199c: ac 13 de     	ldy	$de13                   ; 0xde13 <end_block9+0x8021>
    199f: 84 1c        	sty	$1c                     ; 0x201c <printf+0x1d>
    19a1: 9c 08 de     	stz	$de08                   ; 0xde08 <end_block9+0x8016>
    19a4: a0 c0        	ldy	#$c0
    19a6: 8c 09 de     	sty	$de09                   ; 0xde09 <end_block9+0x8017>
    19a9: 9c 0a de     	stz	$de0a                   ; 0xde0a <end_block9+0x8018>
    19ac: 9c 0b de     	stz	$de0b                   ; 0xde0b <end_block9+0x8019>
    19af: 8e 0c de     	stx	$de0c                   ; 0xde0c <end_block9+0x801a>
    19b2: 64 14        	stz	$14                     ; 0x2014 <printf+0x15>
    19b4: a2 00        	ldx	#$0
    19b6: 86 16        	stx	$16                     ; 0x2016 <printf+0x17>
    19b8: a2 c0        	ldx	#$c0
    19ba: 86 17        	stx	$17                     ; 0x2017 <printf+0x18>
    19bc: a2 11        	ldx	#$11
    19be: 86 18        	stx	$18                     ; 0x2018 <printf+0x19>
    19c0: a2 c9        	ldx	#$c9
    19c2: 86 19        	stx	$19                     ; 0x2019 <printf+0x1a>
    19c4: a2 10        	ldx	#$10
    19c6: 86 1a        	stx	$1a                     ; 0x201a <printf+0x1b>
    19c8: a2 c9        	ldx	#$c9
    19ca: 86 1b        	stx	$1b                     ; 0x201b <printf+0x1c>
    19cc: a6 15        	ldx	$15                     ; 0x2015 <printf+0x16>
    19ce: 8e 0d de     	stx	$de0d                   ; 0xde0d <end_block9+0x801b>
    19d1: 8d 0e de     	sta	$de0e                   ; 0xde0e <end_block9+0x801c>
    19d4: a6 1c        	ldx	$1c                     ; 0x201c <printf+0x1d>
    19d6: 8e 0f de     	stx	$de0f                   ; 0xde0f <end_block9+0x801d>
    19d9: ac 18 de     	ldy	$de18                   ; 0xde18 <end_block9+0x8026>
    19dc: ad 19 de     	lda	$de19                   ; 0xde19 <end_block9+0x8027>
    19df: ae 1a de     	ldx	$de1a                   ; 0xde1a <end_block9+0x8028>
    19e2: ae 1b de     	ldx	$de1b                   ; 0xde1b <end_block9+0x8029>
    19e5: 84 1c        	sty	$1c                     ; 0x201c <printf+0x1d>
    19e7: 85 1d        	sta	$1d                     ; 0x201d <printf+0x1e>
    19e9: 64 15        	stz	$15                     ; 0x2015 <printf+0x16>
    19eb: 80 13        	bra	$1a00 <textPrint+0x83>
    19ed: a5 1c        	lda	$1c                     ; 0x201c <printf+0x1d>
    19ef: 18           	clc
    19f0: 69 50        	adc	#$50
    19f2: 85 1c        	sta	$1c                     ; 0x201c <printf+0x1d>
    19f4: a5 1d        	lda	$1d                     ; 0x201d <printf+0x1e>
    19f6: 69 00        	adc	#$0
    19f8: 85 1d        	sta	$1d                     ; 0x201d <printf+0x1e>
    19fa: e6 14        	inc	$14                     ; 0x2014 <printf+0x15>
    19fc: d0 02        	bne	$1a00 <textPrint+0x83>
    19fe: e6 15        	inc	$15                     ; 0x2015 <printf+0x16>
    1a00: a5 12        	lda	$12                     ; 0x2012 <printf+0x13>
    1a02: 18           	clc
    1a03: 65 14        	adc	$14                     ; 0x2014 <printf+0x15>
    1a05: 85 1e        	sta	$1e                     ; 0x201e <printf+0x1f>
    1a07: a5 13        	lda	$13                     ; 0x2013 <printf+0x14>
    1a09: 65 15        	adc	$15                     ; 0x2015 <printf+0x16>
    1a0b: 85 1f        	sta	$1f                     ; 0x201f <printf+0x20>
    1a0d: b2 1e        	lda	($1e)                   ; 0x201e <printf+0x1f>
    1a0f: c9 0a        	cmp	#$a
    1a11: f0 31        	beq	$1a44 <textPrint+0xc7>
    1a13: c9 0d        	cmp	#$d
    1a15: f0 2d        	beq	$1a44 <textPrint+0xc7>
    1a17: aa           	tax
    1a18: d0 03        	bne	$1a1d <textPrint+0xa0>
    1a1a: 4c 34 1b     	jmp	$1b34 <textPrint+0x1b7>
    1a1d: a2 03        	ldx	#$3
    1a1f: 86 01        	stx	$1                      ; 0x2001 <printf+0x2>
    1a21: a5 30        	lda	$30                     ; 0x2030 <printf+0x31>
    1a23: 29 01        	and	#$1
    1a25: a2 60        	ldx	#$60
    1a27: a8           	tay
    1a28: d0 02        	bne	$1a2c <textPrint+0xaf>
    1a2a: a2 f0        	ldx	#$f0
    1a2c: a4 31        	ldy	$31                     ; 0x2031 <printf+0x32>
    1a2e: 8a           	txa
    1a2f: 91 1c        	sta	($1c),y                 ; 0x201c <printf+0x1d>
    1a31: a2 02        	ldx	#$2
    1a33: 86 01        	stx	$1                      ; 0x2001 <printf+0x2>
    1a35: b2 1e        	lda	($1e)                   ; 0x201e <printf+0x1f>
    1a37: a4 31        	ldy	$31                     ; 0x2031 <printf+0x32>
    1a39: 91 1c        	sta	($1c),y                 ; 0x201c <printf+0x1d>
    1a3b: a6 31        	ldx	$31                     ; 0x2031 <printf+0x32>
    1a3d: e8           	inx
    1a3e: e6 31        	inc	$31                     ; 0x2031 <printf+0x32>
    1a40: e0 50        	cpx	#$50
    1a42: d0 b6        	bne	$19fa <textPrint+0x7d>
    1a44: 64 31        	stz	$31                     ; 0x2031 <printf+0x32>
    1a46: a6 32        	ldx	$32                     ; 0x2032 <printf+0x33>
    1a48: e8           	inx
    1a49: e6 32        	inc	$32                     ; 0x2032 <printf+0x33>
    1a4b: e0 1e        	cpx	#$1e
    1a4d: f0 03        	beq	$1a52 <textPrint+0xd5>
    1a4f: 4c ed 19     	jmp	$19ed <textPrint+0x70>
    1a52: a2 03        	ldx	#$3
    1a54: 86 01        	stx	$1                      ; 0x2001 <printf+0x2>
    1a56: a2 01        	ldx	#$1
    1a58: 86 1c        	stx	$1c                     ; 0x201c <printf+0x1d>
    1a5a: a2 09        	ldx	#$9
    1a5c: a9 10        	lda	#$10
    1a5e: a0 00        	ldy	#$0
    1a60: 84 1e        	sty	$1e                     ; 0x201e <printf+0x1f>
    1a62: a0 c0        	ldy	#$c0
    1a64: 84 1f        	sty	$1f                     ; 0x201f <printf+0x20>
    1a66: 85 1d        	sta	$1d                     ; 0x201d <printf+0x1e>
    1a68: a0 50        	ldy	#$50
    1a6a: b1 1e        	lda	($1e),y                 ; 0x201e <printf+0x1f>
    1a6c: 92 1e        	sta	($1e)                   ; 0x201e <printf+0x1f>
    1a6e: a9 ff        	lda	#$ff
    1a70: c6 1d        	dec	$1d                     ; 0x201d <printf+0x1e>
    1a72: c5 1d        	cmp	$1d                     ; 0x201d <printf+0x1e>
    1a74: d0 01        	bne	$1a77 <textPrint+0xfa>
    1a76: ca           	dex
    1a77: e6 1e        	inc	$1e                     ; 0x201e <printf+0x1f>
    1a79: d0 02        	bne	$1a7d <textPrint+0x100>
    1a7b: e6 1f        	inc	$1f                     ; 0x201f <printf+0x20>
    1a7d: 8a           	txa
    1a7e: d0 ea        	bne	$1a6a <textPrint+0xed>
    1a80: a5 1d        	lda	$1d                     ; 0x201d <printf+0x1e>
    1a82: d0 e6        	bne	$1a6a <textPrint+0xed>
    1a84: a2 02        	ldx	#$2
    1a86: 86 01        	stx	$1                      ; 0x2001 <printf+0x2>
    1a88: a2 00        	ldx	#$0
    1a8a: a5 1c        	lda	$1c                     ; 0x201c <printf+0x1d>
    1a8c: d0 ca        	bne	$1a58 <textPrint+0xdb>
    1a8e: a2 03        	ldx	#$3
    1a90: 86 01        	stx	$1                      ; 0x2001 <printf+0x2>
    1a92: a5 30        	lda	$30                     ; 0x2030 <printf+0x31>
    1a94: 29 01        	and	#$1
    1a96: aa           	tax
    1a97: a9 60        	lda	#$60
    1a99: e0 00        	cpx	#$0
    1a9b: d0 02        	bne	$1a9f <textPrint+0x122>
    1a9d: a9 f0        	lda	#$f0
    1a9f: a2 50        	ldx	#$50
    1aa1: a0 11        	ldy	#$11
    1aa3: 84 1c        	sty	$1c                     ; 0x201c <printf+0x1d>
    1aa5: a0 c9        	ldy	#$c9
    1aa7: 84 1d        	sty	$1d                     ; 0x201d <printf+0x1e>
    1aa9: a0 10        	ldy	#$10
    1aab: 84 1e        	sty	$1e                     ; 0x201e <printf+0x1f>
    1aad: a0 c9        	ldy	#$c9
    1aaf: 84 1f        	sty	$1f                     ; 0x201f <printf+0x20>
    1ab1: a4 1c        	ldy	$1c                     ; 0x201c <printf+0x1d>
    1ab3: 84 22        	sty	$22                     ; 0x2022 <printf+0x23>
    1ab5: a4 1d        	ldy	$1d                     ; 0x201d <printf+0x1e>
    1ab7: 84 23        	sty	$23                     ; 0x2023 <printf+0x24>
    1ab9: 92 1e        	sta	($1e)                   ; 0x201e <printf+0x1f>
    1abb: e6 1c        	inc	$1c                     ; 0x201c <printf+0x1d>
    1abd: d0 02        	bne	$1ac1 <textPrint+0x144>
    1abf: e6 1d        	inc	$1d                     ; 0x201d <printf+0x1e>
    1ac1: ca           	dex
    1ac2: a4 22        	ldy	$22                     ; 0x2022 <printf+0x23>
    1ac4: 84 1e        	sty	$1e                     ; 0x201e <printf+0x1f>
    1ac6: a4 23        	ldy	$23                     ; 0x2023 <printf+0x24>
    1ac8: 84 1f        	sty	$1f                     ; 0x201f <printf+0x20>
    1aca: e0 00        	cpx	#$0
    1acc: d0 e3        	bne	$1ab1 <textPrint+0x134>
    1ace: a2 02        	ldx	#$2
    1ad0: 86 01        	stx	$1                      ; 0x2001 <printf+0x2>
    1ad2: a2 50        	ldx	#$50
    1ad4: a0 11        	ldy	#$11
    1ad6: 84 1c        	sty	$1c                     ; 0x201c <printf+0x1d>
    1ad8: a0 c9        	ldy	#$c9
    1ada: 84 1d        	sty	$1d                     ; 0x201d <printf+0x1e>
    1adc: a0 10        	ldy	#$10
    1ade: 84 1e        	sty	$1e                     ; 0x201e <printf+0x1f>
    1ae0: a0 c9        	ldy	#$c9
    1ae2: 84 1f        	sty	$1f                     ; 0x201f <printf+0x20>
    1ae4: a9 20        	lda	#$20
    1ae6: a4 1c        	ldy	$1c                     ; 0x201c <printf+0x1d>
    1ae8: 84 22        	sty	$22                     ; 0x2022 <printf+0x23>
    1aea: a4 1d        	ldy	$1d                     ; 0x201d <printf+0x1e>
    1aec: 84 23        	sty	$23                     ; 0x2023 <printf+0x24>
    1aee: 92 1e        	sta	($1e)                   ; 0x201e <printf+0x1f>
    1af0: e6 1c        	inc	$1c                     ; 0x201c <printf+0x1d>
    1af2: d0 02        	bne	$1af6 <textPrint+0x179>
    1af4: e6 1d        	inc	$1d                     ; 0x201d <printf+0x1e>
    1af6: ca           	dex
    1af7: a4 22        	ldy	$22                     ; 0x2022 <printf+0x23>
    1af9: 84 1e        	sty	$1e                     ; 0x201e <printf+0x1f>
    1afb: a4 23        	ldy	$23                     ; 0x2023 <printf+0x24>
    1afd: 84 1f        	sty	$1f                     ; 0x201f <printf+0x20>
    1aff: e0 00        	cpx	#$0
    1b01: d0 e3        	bne	$1ae6 <textPrint+0x169>
    1b03: c6 32        	dec	$32                     ; 0x2032 <printf+0x33>
    1b05: 9c 08 de     	stz	$de08                   ; 0xde08 <end_block9+0x8016>
    1b08: a2 c0        	ldx	#$c0
    1b0a: 8e 09 de     	stx	$de09                   ; 0xde09 <end_block9+0x8017>
    1b0d: 9c 0a de     	stz	$de0a                   ; 0xde0a <end_block9+0x8018>
    1b10: 9c 0b de     	stz	$de0b                   ; 0xde0b <end_block9+0x8019>
    1b13: a2 1d        	ldx	#$1d
    1b15: 8e 0c de     	stx	$de0c                   ; 0xde0c <end_block9+0x801a>
    1b18: 9c 0d de     	stz	$de0d                   ; 0xde0d <end_block9+0x801b>
    1b1b: 9c 0e de     	stz	$de0e                   ; 0xde0e <end_block9+0x801c>
    1b1e: 9c 0f de     	stz	$de0f                   ; 0xde0f <end_block9+0x801d>
    1b21: ae 18 de     	ldx	$de18                   ; 0xde18 <end_block9+0x8026>
    1b24: ac 19 de     	ldy	$de19                   ; 0xde19 <end_block9+0x8027>
    1b27: ad 1a de     	lda	$de1a                   ; 0xde1a <end_block9+0x8028>
    1b2a: ad 1b de     	lda	$de1b                   ; 0xde1b <end_block9+0x8029>
    1b2d: 86 1c        	stx	$1c                     ; 0x201c <printf+0x1d>
    1b2f: 84 1d        	sty	$1d                     ; 0x201d <printf+0x1e>
    1b31: 4c fa 19     	jmp	$19fa <textPrint+0x7d>
    1b34: a6 94        	ldx	$94                     ; 0x2094 <printf+0x95>
    1b36: 86 01        	stx	$1                      ; 0x2001 <printf+0x2>
    1b38: a6 31        	ldx	$31                     ; 0x2031 <printf+0x32>
    1b3a: a4 32        	ldy	$32                     ; 0x2032 <printf+0x33>
    1b3c: 8e 14 d0     	stx	$d014                   ; 0xd014 <end_block9+0x7222>
    1b3f: 9c 15 d0     	stz	$d015                   ; 0xd015 <end_block9+0x7223>
    1b42: 84 32        	sty	$32                     ; 0x2032 <printf+0x33>
    1b44: 8c 16 d0     	sty	$d016                   ; 0xd016 <end_block9+0x7224>
    1b47: 9c 17 d0     	stz	$d017                   ; 0xd017 <end_block9+0x7225>
    1b4a: 60           	rts

00001b4b <fileClose>:
    1b4b: b2 12        	lda	($12)                   ; 0x2012 <printf+0x13>
    1b4d: 85 f3        	sta	$f3                     ; 0x20f3 <printf+0xf4>
    1b4f: a2 3f        	ldx	#$3f
    1b51: a0 00        	ldy	#$0
    1b53: 86 14        	stx	$14                     ; 0x2014 <printf+0x15>
    1b55: 84 15        	sty	$15                     ; 0x2015 <printf+0x16>
    1b57: a2 35        	ldx	#$35
    1b59: 86 3d        	stx	$3d                     ; 0x203d <printf+0x3e>
    1b5b: a2 00        	ldx	#$0
    1b5d: 86 3e        	stx	$3e                     ; 0x203e <printf+0x3f>
    1b5f: 20 68 ff     	jsr	$ff68 <end_block9+0xa176>
    1b62: 92 14        	sta	($14)                   ; 0x2014 <printf+0x15>
    1b64: a9 00        	lda	#$0
    1b66: 6a           	ror
    1b67: 85 3d        	sta	$3d                     ; 0x203d <printf+0x3e>
    1b69: 20 b6 2d     	jsr	$2db6 <free>
    1b6c: a2 40        	ldx	#$40
    1b6e: a0 00        	ldy	#$0
    1b70: 86 12        	stx	$12                     ; 0x2012 <printf+0x13>
    1b72: 84 13        	sty	$13                     ; 0x2013 <printf+0x14>
    1b74: 64 36        	stz	$36                     ; 0x2036 <printf+0x37>
    1b76: 20 00 ff     	jsr	$ff00 <end_block9+0xa10e>
    1b79: 92 12        	sta	($12)                   ; 0x2012 <printf+0x13>
    1b7b: a9 00        	lda	#$0
    1b7d: 6a           	ror
    1b7e: 85 3d        	sta	$3d                     ; 0x203d <printf+0x3e>
    1b80: a6 36        	ldx	$36                     ; 0x2036 <printf+0x37>
    1b82: e0 38        	cpx	#$38
    1b84: f0 04        	beq	$1b8a <fileClose+0x3f>
    1b86: e0 32        	cpx	#$32
    1b88: d0 ea        	bne	$1b74 <fileClose+0x29>
    1b8a: 60           	rts

00001b8b <setTextLUT1>:
    1b8b: a2 d8        	ldx	#$d8
    1b8d: 64 14        	stz	$14                     ; 0x2014 <printf+0x15>
    1b8f: 64 12        	stz	$12                     ; 0x2012 <printf+0x13>
    1b91: a4 12        	ldy	$12                     ; 0x2012 <printf+0x13>
    1b93: 86 13        	stx	$13                     ; 0x2013 <printf+0x14>
    1b95: a9 00        	lda	#$0
    1b97: 92 12        	sta	($12)                   ; 0x2012 <printf+0x13>
    1b99: a5 12        	lda	$12                     ; 0x2012 <printf+0x13>
    1b9b: 09 01        	ora	#$1
    1b9d: 85 12        	sta	$12                     ; 0x2012 <printf+0x13>
    1b9f: a9 ff        	lda	#$ff
    1ba1: 92 12        	sta	($12)                   ; 0x2012 <printf+0x13>
    1ba3: 98           	tya
    1ba4: 09 02        	ora	#$2
    1ba6: 85 12        	sta	$12                     ; 0x2012 <printf+0x13>
    1ba8: a5 14        	lda	$14                     ; 0x2014 <printf+0x15>
    1baa: 92 12        	sta	($12)                   ; 0x2012 <printf+0x13>
    1bac: 85 13        	sta	$13                     ; 0x2013 <printf+0x14>
    1bae: 18           	clc
    1baf: 98           	tya
    1bb0: 69 04        	adc	#$4
    1bb2: 85 12        	sta	$12                     ; 0x2012 <printf+0x13>
    1bb4: 8a           	txa
    1bb5: 69 00        	adc	#$0
    1bb7: aa           	tax
    1bb8: 18           	clc
    1bb9: a5 13        	lda	$13                     ; 0x2013 <printf+0x14>
    1bbb: 69 20        	adc	#$20
    1bbd: 85 14        	sta	$14                     ; 0x2014 <printf+0x15>
    1bbf: e0 d8        	cpx	#$d8
    1bc1: d0 ce        	bne	$1b91 <setTextLUT1+0x6>
    1bc3: a4 12        	ldy	$12                     ; 0x2012 <printf+0x13>
    1bc5: c0 20        	cpy	#$20
    1bc7: d0 c8        	bne	$1b91 <setTextLUT1+0x6>
    1bc9: a9 d8        	lda	#$d8
    1bcb: a2 20        	ldx	#$20
    1bcd: a0 ff        	ldy	#$ff
    1bcf: 84 3d        	sty	$3d                     ; 0x203d <printf+0x3e>
    1bd1: da           	phx
    1bd2: 7a           	ply
    1bd3: 86 12        	stx	$12                     ; 0x2012 <printf+0x13>
    1bd5: aa           	tax
    1bd6: 85 13        	sta	$13                     ; 0x2013 <printf+0x14>
    1bd8: a9 00        	lda	#$0
    1bda: 92 12        	sta	($12)                   ; 0x2012 <printf+0x13>
    1bdc: 98           	tya
    1bdd: 09 01        	ora	#$1
    1bdf: 85 12        	sta	$12                     ; 0x2012 <printf+0x13>
    1be1: 86 13        	stx	$13                     ; 0x2013 <printf+0x14>
    1be3: a5 3d        	lda	$3d                     ; 0x203d <printf+0x3e>
    1be5: 92 12        	sta	($12)                   ; 0x2012 <printf+0x13>
    1be7: 85 14        	sta	$14                     ; 0x2014 <printf+0x15>
    1be9: 98           	tya
    1bea: 09 02        	ora	#$2
    1bec: 85 12        	sta	$12                     ; 0x2012 <printf+0x13>
    1bee: 86 15        	stx	$15                     ; 0x2015 <printf+0x16>
    1bf0: a9 ff        	lda	#$ff
    1bf2: 92 12        	sta	($12)                   ; 0x2012 <printf+0x13>
    1bf4: 18           	clc
    1bf5: 98           	tya
    1bf6: 69 04        	adc	#$4
    1bf8: aa           	tax
    1bf9: a5 15        	lda	$15                     ; 0x2015 <printf+0x16>
    1bfb: 69 00        	adc	#$0
    1bfd: a8           	tay
    1bfe: 18           	clc
    1bff: a5 14        	lda	$14                     ; 0x2014 <printf+0x15>
    1c01: 69 e0        	adc	#$e0
    1c03: 85 3d        	sta	$3d                     ; 0x203d <printf+0x3e>
    1c05: 98           	tya
    1c06: c0 d8        	cpy	#$d8
    1c08: d0 c7        	bne	$1bd1 <setTextLUT1+0x46>
    1c0a: e0 40        	cpx	#$40
    1c0c: d0 c3        	bne	$1bd1 <setTextLUT1+0x46>
    1c0e: 60           	rts

00001c0f <setTextLUT2>:
    1c0f: a2 d8        	ldx	#$d8
    1c11: 64 14        	stz	$14                     ; 0x2014 <printf+0x15>
    1c13: 64 12        	stz	$12                     ; 0x2012 <printf+0x13>
    1c15: a4 12        	ldy	$12                     ; 0x2012 <printf+0x13>
    1c17: 86 13        	stx	$13                     ; 0x2013 <printf+0x14>
    1c19: a9 ff        	lda	#$ff
    1c1b: 92 12        	sta	($12)                   ; 0x2012 <printf+0x13>
    1c1d: a5 12        	lda	$12                     ; 0x2012 <printf+0x13>
    1c1f: 09 01        	ora	#$1
    1c21: 85 12        	sta	$12                     ; 0x2012 <printf+0x13>
    1c23: a5 14        	lda	$14                     ; 0x2014 <printf+0x15>
    1c25: 92 12        	sta	($12)                   ; 0x2012 <printf+0x13>
    1c27: 98           	tya
    1c28: 09 02        	ora	#$2
    1c2a: 85 12        	sta	$12                     ; 0x2012 <printf+0x13>
    1c2c: a9 00        	lda	#$0
    1c2e: 92 12        	sta	($12)                   ; 0x2012 <printf+0x13>
    1c30: 18           	clc
    1c31: 98           	tya
    1c32: 69 04        	adc	#$4
    1c34: 85 12        	sta	$12                     ; 0x2012 <printf+0x13>
    1c36: 8a           	txa
    1c37: 69 00        	adc	#$0
    1c39: aa           	tax
    1c3a: 18           	clc
    1c3b: a5 14        	lda	$14                     ; 0x2014 <printf+0x15>
    1c3d: 69 20        	adc	#$20
    1c3f: 85 14        	sta	$14                     ; 0x2014 <printf+0x15>
    1c41: e0 d8        	cpx	#$d8
    1c43: d0 d0        	bne	$1c15 <setTextLUT2+0x6>
    1c45: a4 12        	ldy	$12                     ; 0x2012 <printf+0x13>
    1c47: c0 20        	cpy	#$20
    1c49: d0 ca        	bne	$1c15 <setTextLUT2+0x6>
    1c4b: a2 d8        	ldx	#$d8
    1c4d: 86 3d        	stx	$3d                     ; 0x203d <printf+0x3e>
    1c4f: a2 20        	ldx	#$20
    1c51: a9 ff        	lda	#$ff
    1c53: 86 14        	stx	$14                     ; 0x2014 <printf+0x15>
    1c55: 86 12        	stx	$12                     ; 0x2012 <printf+0x13>
    1c57: a6 3d        	ldx	$3d                     ; 0x203d <printf+0x3e>
    1c59: 86 13        	stx	$13                     ; 0x2013 <printf+0x14>
    1c5b: 92 12        	sta	($12)                   ; 0x2012 <printf+0x13>
    1c5d: a8           	tay
    1c5e: a5 14        	lda	$14                     ; 0x2014 <printf+0x15>
    1c60: 09 01        	ora	#$1
    1c62: 85 12        	sta	$12                     ; 0x2012 <printf+0x13>
    1c64: a9 ff        	lda	#$ff
    1c66: 92 12        	sta	($12)                   ; 0x2012 <printf+0x13>
    1c68: a5 14        	lda	$14                     ; 0x2014 <printf+0x15>
    1c6a: 09 02        	ora	#$2
    1c6c: 85 12        	sta	$12                     ; 0x2012 <printf+0x13>
    1c6e: 86 15        	stx	$15                     ; 0x2015 <printf+0x16>
    1c70: a9 00        	lda	#$0
    1c72: 92 12        	sta	($12)                   ; 0x2012 <printf+0x13>
    1c74: 18           	clc
    1c75: a5 14        	lda	$14                     ; 0x2014 <printf+0x15>
    1c77: 69 04        	adc	#$4
    1c79: aa           	tax
    1c7a: a5 15        	lda	$15                     ; 0x2015 <printf+0x16>
    1c7c: 69 00        	adc	#$0
    1c7e: 85 12        	sta	$12                     ; 0x2012 <printf+0x13>
    1c80: 18           	clc
    1c81: 98           	tya
    1c82: 69 e0        	adc	#$e0
    1c84: a4 12        	ldy	$12                     ; 0x2012 <printf+0x13>
    1c86: 84 3d        	sty	$3d                     ; 0x203d <printf+0x3e>
    1c88: c0 d8        	cpy	#$d8
    1c8a: d0 c7        	bne	$1c53 <setTextLUT2+0x44>
    1c8c: e0 40        	cpx	#$40
    1c8e: d0 c3        	bne	$1c53 <setTextLUT2+0x44>
    1c90: 60           	rts

00001c91 <__putchar>:
    1c91: 85 33        	sta	$33                     ; 0x2033 <printf+0x34>
    1c93: a2 33        	ldx	#$33
    1c95: 86 12        	stx	$12                     ; 0x2012 <printf+0x13>
    1c97: a2 00        	ldx	#$0
    1c99: 86 13        	stx	$13                     ; 0x2013 <printf+0x14>
    1c9b: 4c 7d 19     	jmp	$197d <textPrint>

00001c9e <initVS1053Plugin>:
    1c9e: 85 14        	sta	$14                     ; 0x2014 <printf+0x15>
    1ca0: 86 15        	stx	$15                     ; 0x2015 <printf+0x16>
    1ca2: 64 18        	stz	$18                     ; 0x2018 <printf+0x19>
    1ca4: a0 01        	ldy	#$1
    1ca6: a2 00        	ldx	#$0
    1ca8: a5 18        	lda	$18                     ; 0x2018 <printf+0x19>
    1caa: 85 16        	sta	$16                     ; 0x2016 <printf+0x17>
    1cac: 06 16        	asl	$16                     ; 0x2016 <printf+0x17>
    1cae: 8a           	txa
    1caf: 2a           	rol
    1cb0: 85 17        	sta	$17                     ; 0x2017 <printf+0x18>
    1cb2: 18           	clc
    1cb3: a5 16        	lda	$16                     ; 0x2016 <printf+0x17>
    1cb5: 65 12        	adc	$12                     ; 0x2012 <printf+0x13>
    1cb7: 85 16        	sta	$16                     ; 0x2016 <printf+0x17>
    1cb9: a5 17        	lda	$17                     ; 0x2017 <printf+0x18>
    1cbb: 65 13        	adc	$13                     ; 0x2013 <printf+0x14>
    1cbd: 85 19        	sta	$19                     ; 0x2019 <printf+0x1a>
    1cbf: a5 16        	lda	$16                     ; 0x2016 <printf+0x17>
    1cc1: 85 1b        	sta	$1b                     ; 0x201b <printf+0x1c>
    1cc3: a5 19        	lda	$19                     ; 0x2019 <printf+0x1a>
    1cc5: 85 17        	sta	$17                     ; 0x2017 <printf+0x18>
    1cc7: b2 16        	lda	($16)                   ; 0x2016 <printf+0x17>
    1cc9: 85 1a        	sta	$1a                     ; 0x201a <printf+0x1b>
    1ccb: a5 18        	lda	$18                     ; 0x2018 <printf+0x19>
    1ccd: 85 1f        	sta	$1f                     ; 0x201f <printf+0x20>
    1ccf: a5 18        	lda	$18                     ; 0x2018 <printf+0x19>
    1cd1: 18           	clc
    1cd2: 69 02        	adc	#$2
    1cd4: 85 1e        	sta	$1e                     ; 0x201e <printf+0x1f>
    1cd6: 86 1d        	stx	$1d                     ; 0x201d <printf+0x1e>
    1cd8: 8a           	txa
    1cd9: 69 00        	adc	#$0
    1cdb: 85 1c        	sta	$1c                     ; 0x201c <printf+0x1d>
    1cdd: 18           	clc
    1cde: a5 1b        	lda	$1b                     ; 0x201b <printf+0x1c>
    1ce0: 69 02        	adc	#$2
    1ce2: 85 18        	sta	$18                     ; 0x2018 <printf+0x19>
    1ce4: a5 19        	lda	$19                     ; 0x2019 <printf+0x1a>
    1ce6: 69 00        	adc	#$0
    1ce8: 85 19        	sta	$19                     ; 0x2019 <printf+0x1a>
    1cea: b1 16        	lda	($16),y                 ; 0x2016 <printf+0x17>
    1cec: 85 1b        	sta	$1b                     ; 0x201b <printf+0x1c>
    1cee: a0 02        	ldy	#$2
    1cf0: b1 16        	lda	($16),y                 ; 0x2016 <printf+0x17>
    1cf2: aa           	tax
    1cf3: 88           	dey
    1cf4: b1 18        	lda	($18),y                 ; 0x2018 <printf+0x19>
    1cf6: 85 16        	sta	$16                     ; 0x2016 <printf+0x17>
    1cf8: 10 03        	bpl	$1cfd <initVS1053Plugin+0x5f>
    1cfa: 4c 85 1d     	jmp	$1d85 <initVS1053Plugin+0xe7>
    1cfd: a5 1c        	lda	$1c                     ; 0x201c <printf+0x1d>
    1cff: 86 1c        	stx	$1c                     ; 0x201c <printf+0x1d>
    1d01: 5a           	phy
    1d02: a4 16        	ldy	$16                     ; 0x2016 <printf+0x17>
    1d04: 84 1d        	sty	$1d                     ; 0x201d <printf+0x1e>
    1d06: 7a           	ply
    1d07: e6 16        	inc	$16                     ; 0x2016 <printf+0x17>
    1d09: c6 16        	dec	$16                     ; 0x2016 <printf+0x17>
    1d0b: d0 07        	bne	$1d14 <initVS1053Plugin+0x76>
    1d0d: e0 00        	cpx	#$0
    1d0f: d0 03        	bne	$1d14 <initVS1053Plugin+0x76>
    1d11: 4c 07 1e     	jmp	$1e07 <initVS1053Plugin+0x169>
    1d14: a6 1e        	ldx	$1e                     ; 0x201e <printf+0x1f>
    1d16: 86 18        	stx	$18                     ; 0x2018 <printf+0x19>
    1d18: a6 1e        	ldx	$1e                     ; 0x201e <printf+0x1f>
    1d1a: 86 16        	stx	$16                     ; 0x2016 <printf+0x17>
    1d1c: 06 16        	asl	$16                     ; 0x2016 <printf+0x17>
    1d1e: 85 19        	sta	$19                     ; 0x2019 <printf+0x1a>
    1d20: 2a           	rol
    1d21: aa           	tax
    1d22: 18           	clc
    1d23: a5 16        	lda	$16                     ; 0x2016 <printf+0x17>
    1d25: 65 12        	adc	$12                     ; 0x2012 <printf+0x13>
    1d27: 85 16        	sta	$16                     ; 0x2016 <printf+0x17>
    1d29: 8a           	txa
    1d2a: 65 13        	adc	$13                     ; 0x2013 <printf+0x14>
    1d2c: 85 17        	sta	$17                     ; 0x2017 <printf+0x18>
    1d2e: b2 16        	lda	($16)                   ; 0x2016 <printf+0x17>
    1d30: 85 1e        	sta	$1e                     ; 0x201e <printf+0x1f>
    1d32: b1 16        	lda	($16),y                 ; 0x2016 <printf+0x17>
    1d34: a6 1a        	ldx	$1a                     ; 0x201a <printf+0x1b>
    1d36: 8e 01 d7     	stx	$d701                   ; 0xd701 <end_block9+0x790f>
    1d39: a6 1b        	ldx	$1b                     ; 0x201b <printf+0x1c>
    1d3b: 8e 02 d7     	stx	$d702                   ; 0xd702 <end_block9+0x7910>
    1d3e: a6 1e        	ldx	$1e                     ; 0x201e <printf+0x1f>
    1d40: 8e 02 d7     	stx	$d702                   ; 0xd702 <end_block9+0x7910>
    1d43: 8d 03 d7     	sta	$d703                   ; 0xd703 <end_block9+0x7911>
    1d46: 8c 00 d7     	sty	$d700                   ; 0xd700 <end_block9+0x790e>
    1d49: 9c 00 d7     	stz	$d700                   ; 0xd700 <end_block9+0x790e>
    1d4c: ae 00 d7     	ldx	$d700                   ; 0xd700 <end_block9+0x790e>
    1d4f: 30 fb        	bmi	$1d4c <initVS1053Plugin+0xae>
    1d51: a6 1c        	ldx	$1c                     ; 0x201c <printf+0x1d>
    1d53: 86 16        	stx	$16                     ; 0x2016 <printf+0x17>
    1d55: a6 1d        	ldx	$1d                     ; 0x201d <printf+0x1e>
    1d57: 86 17        	stx	$17                     ; 0x2017 <printf+0x18>
    1d59: a2 ff        	ldx	#$ff
    1d5b: c6 16        	dec	$16                     ; 0x2016 <printf+0x17>
    1d5d: e4 16        	cpx	$16                     ; 0x2016 <printf+0x17>
    1d5f: d0 02        	bne	$1d63 <initVS1053Plugin+0xc5>
    1d61: c6 17        	dec	$17                     ; 0x2017 <printf+0x18>
    1d63: a6 18        	ldx	$18                     ; 0x2018 <printf+0x19>
    1d65: 86 1e        	stx	$1e                     ; 0x201e <printf+0x1f>
    1d67: a5 19        	lda	$19                     ; 0x2019 <printf+0x1a>
    1d69: e6 1e        	inc	$1e                     ; 0x201e <printf+0x1f>
    1d6b: d0 01        	bne	$1d6e <initVS1053Plugin+0xd0>
    1d6d: 1a           	inc
    1d6e: a6 16        	ldx	$16                     ; 0x2016 <printf+0x17>
    1d70: 86 1c        	stx	$1c                     ; 0x201c <printf+0x1d>
    1d72: a6 17        	ldx	$17                     ; 0x2017 <printf+0x18>
    1d74: 86 1d        	stx	$1d                     ; 0x201d <printf+0x1e>
    1d76: f0 03        	beq	$1d7b <initVS1053Plugin+0xdd>
    1d78: 4c 14 1d     	jmp	$1d14 <initVS1053Plugin+0x76>
    1d7b: a6 16        	ldx	$16                     ; 0x2016 <printf+0x17>
    1d7d: f0 03        	beq	$1d82 <initVS1053Plugin+0xe4>
    1d7f: 4c 14 1d     	jmp	$1d14 <initVS1053Plugin+0x76>
    1d82: 4c 07 1e     	jmp	$1e07 <initVS1053Plugin+0x169>
    1d85: 29 7f        	and	#$7f
    1d87: 85 17        	sta	$17                     ; 0x2017 <printf+0x18>
    1d89: 18           	clc
    1d8a: 86 16        	stx	$16                     ; 0x2016 <printf+0x17>
    1d8c: a5 1f        	lda	$1f                     ; 0x201f <printf+0x20>
    1d8e: 69 03        	adc	#$3
    1d90: aa           	tax
    1d91: a5 1d        	lda	$1d                     ; 0x201d <printf+0x1e>
    1d93: 69 00        	adc	#$0
    1d95: 85 1d        	sta	$1d                     ; 0x201d <printf+0x1e>
    1d97: a5 16        	lda	$16                     ; 0x2016 <printf+0x17>
    1d99: e6 17        	inc	$17                     ; 0x2017 <printf+0x18>
    1d9b: c6 17        	dec	$17                     ; 0x2017 <printf+0x18>
    1d9d: d0 07        	bne	$1da6 <initVS1053Plugin+0x108>
    1d9f: c9 00        	cmp	#$0
    1da1: d0 03        	bne	$1da6 <initVS1053Plugin+0x108>
    1da3: 4c 03 1e     	jmp	$1e03 <initVS1053Plugin+0x165>
    1da6: 5a           	phy
    1da7: a4 17        	ldy	$17                     ; 0x2017 <printf+0x18>
    1da9: 84 18        	sty	$18                     ; 0x2018 <printf+0x19>
    1dab: 7a           	ply
    1dac: 86 19        	stx	$19                     ; 0x2019 <printf+0x1a>
    1dae: a6 1e        	ldx	$1e                     ; 0x201e <printf+0x1f>
    1db0: 86 16        	stx	$16                     ; 0x2016 <printf+0x17>
    1db2: 06 16        	asl	$16                     ; 0x2016 <printf+0x17>
    1db4: aa           	tax
    1db5: 26 1c        	rol	$1c                     ; 0x201c <printf+0x1d>
    1db7: 18           	clc
    1db8: a5 16        	lda	$16                     ; 0x2016 <printf+0x17>
    1dba: 65 12        	adc	$12                     ; 0x2012 <printf+0x13>
    1dbc: 85 16        	sta	$16                     ; 0x2016 <printf+0x17>
    1dbe: a5 1c        	lda	$1c                     ; 0x201c <printf+0x1d>
    1dc0: 65 13        	adc	$13                     ; 0x2013 <printf+0x14>
    1dc2: 85 17        	sta	$17                     ; 0x2017 <printf+0x18>
    1dc4: 86 1e        	stx	$1e                     ; 0x201e <printf+0x1f>
    1dc6: b2 16        	lda	($16)                   ; 0x2016 <printf+0x17>
    1dc8: 85 1c        	sta	$1c                     ; 0x201c <printf+0x1d>
    1dca: b1 16        	lda	($16),y                 ; 0x2016 <printf+0x17>
    1dcc: a6 1a        	ldx	$1a                     ; 0x201a <printf+0x1b>
    1dce: 8e 01 d7     	stx	$d701                   ; 0xd701 <end_block9+0x790f>
    1dd1: a6 1b        	ldx	$1b                     ; 0x201b <printf+0x1c>
    1dd3: 8e 02 d7     	stx	$d702                   ; 0xd702 <end_block9+0x7910>
    1dd6: a6 1c        	ldx	$1c                     ; 0x201c <printf+0x1d>
    1dd8: 8e 02 d7     	stx	$d702                   ; 0xd702 <end_block9+0x7910>
    1ddb: 8d 03 d7     	sta	$d703                   ; 0xd703 <end_block9+0x7911>
    1dde: 8c 00 d7     	sty	$d700                   ; 0xd700 <end_block9+0x790e>
    1de1: 9c 00 d7     	stz	$d700                   ; 0xd700 <end_block9+0x790e>
    1de4: ae 00 d7     	ldx	$d700                   ; 0xd700 <end_block9+0x790e>
    1de7: 30 fb        	bmi	$1de4 <initVS1053Plugin+0x146>
    1de9: a6 18        	ldx	$18                     ; 0x2018 <printf+0x19>
    1deb: 86 16        	stx	$16                     ; 0x2016 <printf+0x17>
    1ded: a2 ff        	ldx	#$ff
    1def: c6 1e        	dec	$1e                     ; 0x201e <printf+0x1f>
    1df1: e4 1e        	cpx	$1e                     ; 0x201e <printf+0x1f>
    1df3: d0 02        	bne	$1df7 <initVS1053Plugin+0x159>
    1df5: c6 16        	dec	$16                     ; 0x2016 <printf+0x17>
    1df7: a6 16        	ldx	$16                     ; 0x2016 <printf+0x17>
    1df9: 86 18        	stx	$18                     ; 0x2018 <printf+0x19>
    1dfb: d0 cf        	bne	$1dcc <initVS1053Plugin+0x12e>
    1dfd: a6 1e        	ldx	$1e                     ; 0x201e <printf+0x1f>
    1dff: d0 cb        	bne	$1dcc <initVS1053Plugin+0x12e>
    1e01: a6 19        	ldx	$19                     ; 0x2019 <printf+0x1a>
    1e03: 86 1e        	stx	$1e                     ; 0x201e <printf+0x1f>
    1e05: a5 1d        	lda	$1d                     ; 0x201d <printf+0x1e>
    1e07: a6 1e        	ldx	$1e                     ; 0x201e <printf+0x1f>
    1e09: c5 15        	cmp	$15                     ; 0x2015 <printf+0x16>
    1e0b: d0 04        	bne	$1e11 <initVS1053Plugin+0x173>
    1e0d: e4 14        	cpx	$14                     ; 0x2014 <printf+0x15>
    1e0f: 80 02        	bra	$1e13 <initVS1053Plugin+0x175>
    1e11: c5 15        	cmp	$15                     ; 0x2015 <printf+0x16>
    1e13: 86 18        	stx	$18                     ; 0x2018 <printf+0x19>
    1e15: aa           	tax
    1e16: b0 03        	bcs	$1e1b <initVS1053Plugin+0x17d>
    1e18: 4c a8 1c     	jmp	$1ca8 <initVS1053Plugin+0xa>
    1e1b: 60           	rts

00001e1c <exit>:
    1e1c: 20 14 03     	jsr	$314 <_fini>
    1e1f: 80 fe        	bra	$1e1f <exit+0x3>

00001e21 <_ZN12_GLOBAL__N_13putEcP6Status>:
    1e21: 85 18        	sta	$18                     ; 0x2018 <printf+0x19>
    1e23: a6 13        	ldx	$13                     ; 0x2013 <printf+0x14>
    1e25: 18           	clc
    1e26: a5 12        	lda	$12                     ; 0x2012 <printf+0x13>
    1e28: 69 05        	adc	#$5
    1e2a: a8           	tay
    1e2b: a5 13        	lda	$13                     ; 0x2013 <printf+0x14>
    1e2d: 86 15        	stx	$15                     ; 0x2015 <printf+0x16>
    1e2f: 69 00        	adc	#$0
    1e31: 18           	clc
    1e32: 84 16        	sty	$16                     ; 0x2016 <printf+0x17>
    1e34: a0 05        	ldy	#$5
    1e36: 85 17        	sta	$17                     ; 0x2017 <printf+0x18>
    1e38: b1 12        	lda	($12),y                 ; 0x2012 <printf+0x13>
    1e3a: aa           	tax
    1e3b: a5 12        	lda	$12                     ; 0x2012 <printf+0x13>
    1e3d: 69 03        	adc	#$3
    1e3f: 85 14        	sta	$14                     ; 0x2014 <printf+0x15>
    1e41: a5 15        	lda	$15                     ; 0x2015 <printf+0x16>
    1e43: 69 00        	adc	#$0
    1e45: 85 15        	sta	$15                     ; 0x2015 <printf+0x16>
    1e47: a0 01        	ldy	#$1
    1e49: b1 16        	lda	($16),y                 ; 0x2016 <printf+0x17>
    1e4b: d1 14        	cmp	($14),y                 ; 0x2014 <printf+0x15>
    1e4d: d0 11        	bne	$1e60 <_ZN12_GLOBAL__N_13putEcP6Status+0x3f>
    1e4f: a0 03        	ldy	#$3
    1e51: 85 17        	sta	$17                     ; 0x2017 <printf+0x18>
    1e53: b1 12        	lda	($12),y                 ; 0x2012 <printf+0x13>
    1e55: 85 14        	sta	$14                     ; 0x2014 <printf+0x15>
    1e57: 86 16        	stx	$16                     ; 0x2016 <printf+0x17>
    1e59: e4 14        	cpx	$14                     ; 0x2014 <printf+0x15>
    1e5b: 90 0e        	bcc	$1e6b <_ZN12_GLOBAL__N_13putEcP6Status+0x4a>
    1e5d: 4c ca 1e     	jmp	$1eca <_ZN12_GLOBAL__N_13putEcP6Status+0xa9>
    1e60: 86 16        	stx	$16                     ; 0x2016 <printf+0x17>
    1e62: d1 14        	cmp	($14),y                 ; 0x2014 <printf+0x15>
    1e64: 85 17        	sta	$17                     ; 0x2017 <printf+0x18>
    1e66: 90 03        	bcc	$1e6b <_ZN12_GLOBAL__N_13putEcP6Status+0x4a>
    1e68: 4c ca 1e     	jmp	$1eca <_ZN12_GLOBAL__N_13putEcP6Status+0xa9>
    1e6b: a5 12        	lda	$12                     ; 0x2012 <printf+0x13>
    1e6d: 18           	clc
    1e6e: 69 0f        	adc	#$f
    1e70: 85 14        	sta	$14                     ; 0x2014 <printf+0x15>
    1e72: a5 13        	lda	$13                     ; 0x2013 <printf+0x14>
    1e74: 69 00        	adc	#$0
    1e76: 85 15        	sta	$15                     ; 0x2015 <printf+0x16>
    1e78: a0 01        	ldy	#$1
    1e7a: b1 14        	lda	($14),y                 ; 0x2014 <printf+0x15>
    1e7c: a2 00        	ldx	#$0
    1e7e: 86 14        	stx	$14                     ; 0x2014 <printf+0x15>
    1e80: a2 00        	ldx	#$0
    1e82: 86 15        	stx	$15                     ; 0x2015 <printf+0x16>
    1e84: c5 15        	cmp	$15                     ; 0x2015 <printf+0x16>
    1e86: d0 2d        	bne	$1eb5 <_ZN12_GLOBAL__N_13putEcP6Status+0x94>
    1e88: a0 0f        	ldy	#$f
    1e8a: b1 12        	lda	($12),y                 ; 0x2012 <printf+0x13>
    1e8c: c5 14        	cmp	$14                     ; 0x2014 <printf+0x15>
    1e8e: d0 25        	bne	$1eb5 <_ZN12_GLOBAL__N_13putEcP6Status+0x94>
    1e90: a5 12        	lda	$12                     ; 0x2012 <printf+0x13>
    1e92: 18           	clc
    1e93: 69 09        	adc	#$9
    1e95: 85 14        	sta	$14                     ; 0x2014 <printf+0x15>
    1e97: a5 13        	lda	$13                     ; 0x2013 <printf+0x14>
    1e99: 69 00        	adc	#$0
    1e9b: a0 09        	ldy	#$9
    1e9d: 85 15        	sta	$15                     ; 0x2015 <printf+0x16>
    1e9f: 18           	clc
    1ea0: a5 16        	lda	$16                     ; 0x2016 <printf+0x17>
    1ea2: 71 12        	adc	($12),y                 ; 0x2012 <printf+0x13>
    1ea4: aa           	tax
    1ea5: a0 01        	ldy	#$1
    1ea7: a5 17        	lda	$17                     ; 0x2017 <printf+0x18>
    1ea9: 71 14        	adc	($14),y                 ; 0x2014 <printf+0x15>
    1eab: 86 14        	stx	$14                     ; 0x2014 <printf+0x15>
    1ead: 85 15        	sta	$15                     ; 0x2015 <printf+0x16>
    1eaf: a5 18        	lda	$18                     ; 0x2018 <printf+0x19>
    1eb1: 92 14        	sta	($14)                   ; 0x2014 <printf+0x15>
    1eb3: 80 15        	bra	$1eca <_ZN12_GLOBAL__N_13putEcP6Status+0xa9>
    1eb5: a6 12        	ldx	$12                     ; 0x2012 <printf+0x13>
    1eb7: 86 92        	stx	$92                     ; 0x2092 <printf+0x93>
    1eb9: a6 13        	ldx	$13                     ; 0x2013 <printf+0x14>
    1ebb: 86 93        	stx	$93                     ; 0x2093 <printf+0x94>
    1ebd: a5 18        	lda	$18                     ; 0x2018 <printf+0x19>
    1ebf: 20 91 1c     	jsr	$1c91 <__putchar>
    1ec2: a6 92        	ldx	$92                     ; 0x2092 <printf+0x93>
    1ec4: 86 12        	stx	$12                     ; 0x2012 <printf+0x13>
    1ec6: a6 93        	ldx	$93                     ; 0x2093 <printf+0x94>
    1ec8: 86 13        	stx	$13                     ; 0x2013 <printf+0x14>
    1eca: a0 05        	ldy	#$5
    1ecc: a5 12        	lda	$12                     ; 0x2012 <printf+0x13>
    1ece: 18           	clc
    1ecf: 69 05        	adc	#$5
    1ed1: 85 14        	sta	$14                     ; 0x2014 <printf+0x15>
    1ed3: a5 13        	lda	$13                     ; 0x2013 <printf+0x14>
    1ed5: 69 00        	adc	#$0
    1ed7: 85 15        	sta	$15                     ; 0x2015 <printf+0x16>
    1ed9: b1 12        	lda	($12),y                 ; 0x2012 <printf+0x13>
    1edb: aa           	tax
    1edc: a0 01        	ldy	#$1
    1ede: b1 14        	lda	($14),y                 ; 0x2014 <printf+0x15>
    1ee0: e8           	inx
    1ee1: d0 01        	bne	$1ee4 <_ZN12_GLOBAL__N_13putEcP6Status+0xc3>
    1ee3: 1a           	inc
    1ee4: 85 16        	sta	$16                     ; 0x2016 <printf+0x17>
    1ee6: 8a           	txa
    1ee7: a0 05        	ldy	#$5
    1ee9: 91 12        	sta	($12),y                 ; 0x2012 <printf+0x13>
    1eeb: a0 01        	ldy	#$1
    1eed: a5 16        	lda	$16                     ; 0x2016 <printf+0x17>
    1eef: 91 14        	sta	($14),y                 ; 0x2014 <printf+0x15>
    1ef1: 60           	rts

00001ef2 <_ZN12_GLOBAL__N_112print_stringEPKcP6Status>:
    1ef2: a6 12        	ldx	$12                     ; 0x2012 <printf+0x13>
    1ef4: 86 8a        	stx	$8a                     ; 0x208a <printf+0x8b>
    1ef6: a6 13        	ldx	$13                     ; 0x2013 <printf+0x14>
    1ef8: 86 8b        	stx	$8b                     ; 0x208b <printf+0x8c>
    1efa: a6 14        	ldx	$14                     ; 0x2014 <printf+0x15>
    1efc: 86 8c        	stx	$8c                     ; 0x208c <printf+0x8d>
    1efe: a6 15        	ldx	$15                     ; 0x2015 <printf+0x16>
    1f00: 86 8d        	stx	$8d                     ; 0x208d <printf+0x8e>
    1f02: a5 8c        	lda	$8c                     ; 0x208c <printf+0x8d>
    1f04: 18           	clc
    1f05: 69 0d        	adc	#$d
    1f07: 85 12        	sta	$12                     ; 0x2012 <printf+0x13>
    1f09: a5 8d        	lda	$8d                     ; 0x208d <printf+0x8e>
    1f0b: 69 00        	adc	#$0
    1f0d: 85 13        	sta	$13                     ; 0x2013 <printf+0x14>
    1f0f: a0 01        	ldy	#$1
    1f11: b1 12        	lda	($12),y                 ; 0x2012 <printf+0x13>
    1f13: 30 16        	bmi	$1f2b <_ZN12_GLOBAL__N_112print_stringEPKcP6Status+0x39>
    1f15: a0 0d        	ldy	#$d
    1f17: 85 12        	sta	$12                     ; 0x2012 <printf+0x13>
    1f19: b1 8c        	lda	($8c),y                 ; 0x208c <printf+0x8d>
    1f1b: a6 12        	ldx	$12                     ; 0x2012 <printf+0x13>
    1f1d: 86 91        	stx	$91                     ; 0x2091 <printf+0x92>
    1f1f: d0 0f        	bne	$1f30 <_ZN12_GLOBAL__N_112print_stringEPKcP6Status+0x3e>
    1f21: aa           	tax
    1f22: d0 0c        	bne	$1f30 <_ZN12_GLOBAL__N_112print_stringEPKcP6Status+0x3e>
    1f24: 64 8e        	stz	$8e                     ; 0x208e <printf+0x8f>
    1f26: a2 00        	ldx	#$0
    1f28: 4c fa 1f     	jmp	$1ffa <_ZN12_GLOBAL__N_112print_stringEPKcP6Status+0x108>
    1f2b: a9 ff        	lda	#$ff
    1f2d: aa           	tax
    1f2e: 86 91        	stx	$91                     ; 0x2091 <printf+0x92>
    1f30: 85 8e        	sta	$8e                     ; 0x208e <printf+0x8f>
    1f32: 64 12        	stz	$12                     ; 0x2012 <printf+0x13>
    1f34: a4 8a        	ldy	$8a                     ; 0x208a <printf+0x8b>
    1f36: a6 8b        	ldx	$8b                     ; 0x208b <printf+0x8c>
    1f38: 86 16        	stx	$16                     ; 0x2016 <printf+0x17>
    1f3a: 64 13        	stz	$13                     ; 0x2013 <printf+0x14>
    1f3c: 98           	tya
    1f3d: 18           	clc
    1f3e: 65 12        	adc	$12                     ; 0x2012 <printf+0x13>
    1f40: 85 14        	sta	$14                     ; 0x2014 <printf+0x15>
    1f42: a5 8b        	lda	$8b                     ; 0x208b <printf+0x8c>
    1f44: 65 13        	adc	$13                     ; 0x2013 <printf+0x14>
    1f46: 85 15        	sta	$15                     ; 0x2015 <printf+0x16>
    1f48: b2 14        	lda	($14)                   ; 0x2014 <printf+0x15>
    1f4a: d0 03        	bne	$1f4f <_ZN12_GLOBAL__N_112print_stringEPKcP6Status+0x5d>
    1f4c: 4c f4 1f     	jmp	$1ff4 <_ZN12_GLOBAL__N_112print_stringEPKcP6Status+0x102>
    1f4f: e6 12        	inc	$12                     ; 0x2012 <printf+0x13>
    1f51: d0 02        	bne	$1f55 <_ZN12_GLOBAL__N_112print_stringEPKcP6Status+0x63>
    1f53: e6 13        	inc	$13                     ; 0x2013 <printf+0x14>
    1f55: a6 91        	ldx	$91                     ; 0x2091 <printf+0x92>
    1f57: e4 13        	cpx	$13                     ; 0x2013 <printf+0x14>
    1f59: d0 e1        	bne	$1f3c <_ZN12_GLOBAL__N_112print_stringEPKcP6Status+0x4a>
    1f5b: a6 8e        	ldx	$8e                     ; 0x208e <printf+0x8f>
    1f5d: e4 12        	cpx	$12                     ; 0x2012 <printf+0x13>
    1f5f: d0 db        	bne	$1f3c <_ZN12_GLOBAL__N_112print_stringEPKcP6Status+0x4a>
    1f61: a0 01        	ldy	#$1
    1f63: 98           	tya
    1f64: 31 8c        	and	($8c),y                 ; 0x208c <printf+0x8d>
    1f66: 29 01        	and	#$1
    1f68: f0 03        	beq	$1f6d <_ZN12_GLOBAL__N_112print_stringEPKcP6Status+0x7b>
    1f6a: 4c c5 1f     	jmp	$1fc5 <_ZN12_GLOBAL__N_112print_stringEPKcP6Status+0xd3>
    1f6d: a0 0b        	ldy	#$b
    1f6f: a5 8c        	lda	$8c                     ; 0x208c <printf+0x8d>
    1f71: 18           	clc
    1f72: 69 0b        	adc	#$b
    1f74: 85 14        	sta	$14                     ; 0x2014 <printf+0x15>
    1f76: a5 8d        	lda	$8d                     ; 0x208d <printf+0x8e>
    1f78: 69 00        	adc	#$0
    1f7a: 85 15        	sta	$15                     ; 0x2015 <printf+0x16>
    1f7c: b1 8c        	lda	($8c),y                 ; 0x208c <printf+0x8d>
    1f7e: 85 12        	sta	$12                     ; 0x2012 <printf+0x13>
    1f80: a0 01        	ldy	#$1
    1f82: b1 14        	lda	($14),y                 ; 0x2014 <printf+0x15>
    1f84: 85 13        	sta	$13                     ; 0x2013 <printf+0x14>
    1f86: a6 91        	ldx	$91                     ; 0x2091 <printf+0x92>
    1f88: e4 13        	cpx	$13                     ; 0x2013 <printf+0x14>
    1f8a: d0 08        	bne	$1f94 <_ZN12_GLOBAL__N_112print_stringEPKcP6Status+0xa2>
    1f8c: a6 8e        	ldx	$8e                     ; 0x208e <printf+0x8f>
    1f8e: e4 12        	cpx	$12                     ; 0x2012 <printf+0x13>
    1f90: 90 06        	bcc	$1f98 <_ZN12_GLOBAL__N_112print_stringEPKcP6Status+0xa6>
    1f92: 80 31        	bra	$1fc5 <_ZN12_GLOBAL__N_112print_stringEPKcP6Status+0xd3>
    1f94: e4 13        	cpx	$13                     ; 0x2013 <printf+0x14>
    1f96: b0 2d        	bcs	$1fc5 <_ZN12_GLOBAL__N_112print_stringEPKcP6Status+0xd3>
    1f98: 38           	sec
    1f99: a5 8e        	lda	$8e                     ; 0x208e <printf+0x8f>
    1f9b: e5 12        	sbc	$12                     ; 0x2012 <printf+0x13>
    1f9d: a8           	tay
    1f9e: a5 91        	lda	$91                     ; 0x2091 <printf+0x92>
    1fa0: e5 13        	sbc	$13                     ; 0x2013 <printf+0x14>
    1fa2: 85 90        	sta	$90                     ; 0x2090 <printf+0x91>
    1fa4: a6 8c        	ldx	$8c                     ; 0x208c <printf+0x8d>
    1fa6: 86 12        	stx	$12                     ; 0x2012 <printf+0x13>
    1fa8: a6 8d        	ldx	$8d                     ; 0x208d <printf+0x8e>
    1faa: 86 13        	stx	$13                     ; 0x2013 <printf+0x14>
    1fac: 84 8f        	sty	$8f                     ; 0x208f <printf+0x90>
    1fae: a9 20        	lda	#$20
    1fb0: 20 21 1e     	jsr	$1e21 <_ZN12_GLOBAL__N_13putEcP6Status>
    1fb3: a6 90        	ldx	$90                     ; 0x2090 <printf+0x91>
    1fb5: e6 8f        	inc	$8f                     ; 0x208f <printf+0x90>
    1fb7: d0 01        	bne	$1fba <_ZN12_GLOBAL__N_112print_stringEPKcP6Status+0xc8>
    1fb9: e8           	inx
    1fba: 86 90        	stx	$90                     ; 0x2090 <printf+0x91>
    1fbc: a4 8f        	ldy	$8f                     ; 0x208f <printf+0x90>
    1fbe: 8a           	txa
    1fbf: d0 e3        	bne	$1fa4 <_ZN12_GLOBAL__N_112print_stringEPKcP6Status+0xb2>
    1fc1: a5 8f        	lda	$8f                     ; 0x208f <printf+0x90>
    1fc3: d0 df        	bne	$1fa4 <_ZN12_GLOBAL__N_112print_stringEPKcP6Status+0xb2>
    1fc5: a4 91        	ldy	$91                     ; 0x2091 <printf+0x92>
    1fc7: d0 04        	bne	$1fcd <_ZN12_GLOBAL__N_112print_stringEPKcP6Status+0xdb>
    1fc9: a5 8e        	lda	$8e                     ; 0x208e <printf+0x8f>
    1fcb: f0 26        	beq	$1ff3 <_ZN12_GLOBAL__N_112print_stringEPKcP6Status+0x101>
    1fcd: a2 ff        	ldx	#$ff
    1fcf: c6 8e        	dec	$8e                     ; 0x208e <printf+0x8f>
    1fd1: e4 8e        	cpx	$8e                     ; 0x208e <printf+0x8f>
    1fd3: d0 01        	bne	$1fd6 <_ZN12_GLOBAL__N_112print_stringEPKcP6Status+0xe4>
    1fd5: 88           	dey
    1fd6: 84 8f        	sty	$8f                     ; 0x208f <printf+0x90>
    1fd8: b2 8a        	lda	($8a)                   ; 0x208a <printf+0x8b>
    1fda: e6 8a        	inc	$8a                     ; 0x208a <printf+0x8b>
    1fdc: d0 02        	bne	$1fe0 <_ZN12_GLOBAL__N_112print_stringEPKcP6Status+0xee>
    1fde: e6 8b        	inc	$8b                     ; 0x208b <printf+0x8c>
    1fe0: a6 8c        	ldx	$8c                     ; 0x208c <printf+0x8d>
    1fe2: 86 12        	stx	$12                     ; 0x2012 <printf+0x13>
    1fe4: a6 8d        	ldx	$8d                     ; 0x208d <printf+0x8e>
    1fe6: 86 13        	stx	$13                     ; 0x2013 <printf+0x14>
    1fe8: 20 21 1e     	jsr	$1e21 <_ZN12_GLOBAL__N_13putEcP6Status>
    1feb: a4 8f        	ldy	$8f                     ; 0x208f <printf+0x90>
    1fed: d0 de        	bne	$1fcd <_ZN12_GLOBAL__N_112print_stringEPKcP6Status+0xdb>
    1fef: a5 8e        	lda	$8e                     ; 0x208e <printf+0x8f>
    1ff1: d0 da        	bne	$1fcd <_ZN12_GLOBAL__N_112print_stringEPKcP6Status+0xdb>
    1ff3: 60           	rts
    1ff4: a6 12        	ldx	$12                     ; 0x2012 <printf+0x13>
    1ff6: 86 8e        	stx	$8e                     ; 0x208e <printf+0x8f>
    1ff8: a6 13        	ldx	$13                     ; 0x2013 <printf+0x14>
    1ffa: 86 91        	stx	$91                     ; 0x2091 <printf+0x92>
    1ffc: 4c 61 1f     	jmp	$1f61 <_ZN12_GLOBAL__N_112print_stringEPKcP6Status+0x6f>

00001fff <printf>:
    1fff: a6 12        	ldx	$12                     ; 0x2012 <printf+0x13>
    2001: 86 3f        	stx	$3f                     ; 0x203f <printf+0x40>
    2003: a6 13        	ldx	$13                     ; 0x2013 <printf+0x14>
    2005: 86 40        	stx	$40                     ; 0x2040 <printf+0x41>
    2007: 18           	clc
    2008: a6 10        	ldx	$10                     ; 0x2010 <printf+0x11>
    200a: a4 11        	ldy	$11                     ; 0x2011 <printf+0x12>
    200c: 86 80        	stx	$80                     ; 0x2080 <printf+0x81>
    200e: 84 81        	sty	$81                     ; 0x2081 <printf+0x82>
    2010: a6 80        	ldx	$80                     ; 0x2080 <printf+0x81>
    2012: a4 81        	ldy	$81                     ; 0x2081 <printf+0x82>
    2014: 86 6b        	stx	$6b                     ; 0x206b <printf+0x6c>
    2016: 84 6c        	sty	$6c                     ; 0x206c <printf+0x6d>
    2018: a2 ff        	ldx	#$ff
    201a: 86 70        	stx	$70                     ; 0x2070 <printf+0x71>
    201c: 86 71        	stx	$71                     ; 0x2071 <printf+0x72>
    201e: 64 72        	stz	$72                     ; 0x2072 <printf+0x73>
    2020: 64 73        	stz	$73                     ; 0x2073 <printf+0x74>
    2022: e8           	inx
    2023: 86 41        	stx	$41                     ; 0x2041 <printf+0x42>
    2025: a2 00        	ldx	#$0
    2027: 86 42        	stx	$42                     ; 0x2042 <printf+0x43>
    2029: a6 41        	ldx	$41                     ; 0x2041 <printf+0x42>
    202b: a4 42        	ldy	$42                     ; 0x2042 <printf+0x43>
    202d: 86 76        	stx	$76                     ; 0x2076 <printf+0x77>
    202f: 84 77        	sty	$77                     ; 0x2077 <printf+0x78>
    2031: a2 02        	ldx	#$2
    2033: 86 7c        	stx	$7c                     ; 0x207c <printf+0x7d>
    2035: 64 7d        	stz	$7d                     ; 0x207d <printf+0x7e>
    2037: a6 6b        	ldx	$6b                     ; 0x206b <printf+0x6c>
    2039: a4 6c        	ldy	$6c                     ; 0x206c <printf+0x6d>
    203b: 86 7e        	stx	$7e                     ; 0x207e <printf+0x7f>
    203d: 84 7f        	sty	$7f                     ; 0x207f <printf+0x80>
    203f: a2 62        	ldx	#$62
    2041: a0 00        	ldy	#$0
    2043: 86 12        	stx	$12                     ; 0x2012 <printf+0x13>
    2045: 84 13        	sty	$13                     ; 0x2013 <printf+0x14>
    2047: a0 01        	ldy	#$1
    2049: a9 49        	lda	#$49
    204b: 18           	clc
    204c: 69 02        	adc	#$2
    204e: 85 88        	sta	$88                     ; 0x2088 <printf+0x89>
    2050: a9 00        	lda	#$0
    2052: 69 00        	adc	#$0
    2054: 85 89        	sta	$89                     ; 0x2089 <printf+0x8a>
    2056: e6 12        	inc	$12                     ; 0x2012 <printf+0x13>
    2058: d0 02        	bne	$205c <printf+0x5d>
    205a: e6 13        	inc	$13                     ; 0x2013 <printf+0x14>
    205c: a6 12        	ldx	$12                     ; 0x2012 <printf+0x13>
    205e: 86 85        	stx	$85                     ; 0x2085 <printf+0x86>
    2060: a6 13        	ldx	$13                     ; 0x2013 <printf+0x14>
    2062: 86 86        	stx	$86                     ; 0x2086 <printf+0x87>
    2064: a6 3f        	ldx	$3f                     ; 0x203f <printf+0x40>
    2066: 86 43        	stx	$43                     ; 0x2043 <printf+0x44>
    2068: a6 40        	ldx	$40                     ; 0x2040 <printf+0x41>
    206a: 86 44        	stx	$44                     ; 0x2044 <printf+0x45>
    206c: b2 3f        	lda	($3f)                   ; 0x203f <printf+0x40>
    206e: c9 25        	cmp	#$25
    2070: f0 21        	beq	$2093 <printf+0x94>
    2072: aa           	tax
    2073: d0 03        	bne	$2078 <printf+0x79>
    2075: 4c ae 2b     	jmp	$2bae <printf+0xbaf>
    2078: 20 91 1c     	jsr	$1c91 <__putchar>
    207b: a0 01        	ldy	#$1
    207d: e6 43        	inc	$43                     ; 0x2043 <printf+0x44>
    207f: d0 02        	bne	$2083 <printf+0x84>
    2081: e6 44        	inc	$44                     ; 0x2044 <printf+0x45>
    2083: e6 72        	inc	$72                     ; 0x2072 <printf+0x73>
    2085: d0 02        	bne	$2089 <printf+0x8a>
    2087: e6 73        	inc	$73                     ; 0x2073 <printf+0x74>
    2089: a6 43        	ldx	$43                     ; 0x2043 <printf+0x44>
    208b: 86 3f        	stx	$3f                     ; 0x203f <printf+0x40>
    208d: a6 44        	ldx	$44                     ; 0x2044 <printf+0x45>
    208f: 86 40        	stx	$40                     ; 0x2040 <printf+0x41>
    2091: 80 d1        	bra	$2064 <printf+0x65>
    2093: a6 3f        	ldx	$3f                     ; 0x203f <printf+0x40>
    2095: 86 12        	stx	$12                     ; 0x2012 <printf+0x13>
    2097: a6 40        	ldx	$40                     ; 0x2040 <printf+0x41>
    2099: 86 13        	stx	$13                     ; 0x2013 <printf+0x14>
    209b: e6 12        	inc	$12                     ; 0x2012 <printf+0x13>
    209d: d0 02        	bne	$20a1 <printf+0xa2>
    209f: e6 13        	inc	$13                     ; 0x2013 <printf+0x14>
    20a1: b1 43        	lda	($43),y                 ; 0x2043 <printf+0x44>
    20a3: c9 25        	cmp	#$25
    20a5: d0 16        	bne	$20bd <printf+0xbe>
    20a7: a4 72        	ldy	$72                     ; 0x2072 <printf+0x73>
    20a9: a5 73        	lda	$73                     ; 0x2073 <printf+0x74>
    20ab: c5 71        	cmp	$71                     ; 0x2071 <printf+0x72>
    20ad: f0 03        	beq	$20b2 <printf+0xb3>
    20af: 4c c3 21     	jmp	$21c3 <printf+0x1c4>
    20b2: a6 70        	ldx	$70                     ; 0x2070 <printf+0x71>
    20b4: 86 12        	stx	$12                     ; 0x2012 <printf+0x13>
    20b6: 84 13        	sty	$13                     ; 0x2013 <printf+0x14>
    20b8: c4 12        	cpy	$12                     ; 0x2012 <printf+0x13>
    20ba: 4c c7 21     	jmp	$21c7 <printf+0x1c8>
    20bd: 64 6e        	stz	$6e                     ; 0x206e <printf+0x6f>
    20bf: 64 6f        	stz	$6f                     ; 0x206f <printf+0x70>
    20c1: 64 6d        	stz	$6d                     ; 0x206d <printf+0x6e>
    20c3: 64 78        	stz	$78                     ; 0x2078 <printf+0x79>
    20c5: 64 79        	stz	$79                     ; 0x2079 <printf+0x7a>
    20c7: a2 ff        	ldx	#$ff
    20c9: 86 7a        	stx	$7a                     ; 0x207a <printf+0x7b>
    20cb: 86 7b        	stx	$7b                     ; 0x207b <printf+0x7c>
    20cd: 64 3e        	stz	$3e                     ; 0x203e <printf+0x3f>
    20cf: 80 33        	bra	$2104 <printf+0x105>
    20d1: a2 02        	ldx	#$2
    20d3: 80 15        	bra	$20ea <printf+0xeb>
    20d5: e0 20        	cpx	#$20
    20d7: f0 15        	beq	$20ee <printf+0xef>
    20d9: 86 15        	stx	$15                     ; 0x2015 <printf+0x16>
    20db: e0 23        	cpx	#$23
    20dd: f0 03        	beq	$20e2 <printf+0xe3>
    20df: 4c 61 21     	jmp	$2161 <printf+0x162>
    20e2: a5 3e        	lda	$3e                     ; 0x203e <printf+0x3f>
    20e4: a2 04        	ldx	#$4
    20e6: 80 02        	bra	$20ea <printf+0xeb>
    20e8: a2 10        	ldx	#$10
    20ea: 86 14        	stx	$14                     ; 0x2014 <printf+0x15>
    20ec: 80 06        	bra	$20f4 <printf+0xf5>
    20ee: a2 08        	ldx	#$8
    20f0: 86 14        	stx	$14                     ; 0x2014 <printf+0x15>
    20f2: a5 3e        	lda	$3e                     ; 0x203e <printf+0x3f>
    20f4: 05 14        	ora	$14                     ; 0x2014 <printf+0x15>
    20f6: 85 3e        	sta	$3e                     ; 0x203e <printf+0x3f>
    20f8: 85 6e        	sta	$6e                     ; 0x206e <printf+0x6f>
    20fa: a2 00        	ldx	#$0
    20fc: 86 6f        	stx	$6f                     ; 0x206f <printf+0x70>
    20fe: e6 12        	inc	$12                     ; 0x2012 <printf+0x13>
    2100: d0 02        	bne	$2104 <printf+0x105>
    2102: e6 13        	inc	$13                     ; 0x2013 <printf+0x14>
    2104: b2 12        	lda	($12)                   ; 0x2012 <printf+0x13>
    2106: aa           	tax
    2107: 38           	sec
    2108: e9 2a        	sbc	#$2a
    210a: c9 07        	cmp	#$7
    210c: b0 c7        	bcs	$20d5 <printf+0xd6>
    210e: 86 15        	stx	$15                     ; 0x2015 <printf+0x16>
    2110: 0a           	asl
    2111: aa           	tax
    2112: a0 01        	ldy	#$1
    2114: 84 14        	sty	$14                     ; 0x2014 <printf+0x15>
    2116: a5 3e        	lda	$3e                     ; 0x203e <printf+0x3f>
    2118: 7c ce 2f     	jmp	($2fce,x)               ; 0x2fce <__set_v+0x1>
    211b: a5 7e        	lda	$7e                     ; 0x207e <printf+0x7f>
    211d: a6 7f        	ldx	$7f                     ; 0x207f <printf+0x80>
    211f: 85 16        	sta	$16                     ; 0x2016 <printf+0x17>
    2121: 86 17        	stx	$17                     ; 0x2017 <printf+0x18>
    2123: 18           	clc
    2124: 69 02        	adc	#$2
    2126: a8           	tay
    2127: 8a           	txa
    2128: 69 00        	adc	#$0
    212a: 84 7e        	sty	$7e                     ; 0x207e <printf+0x7f>
    212c: 85 7f        	sta	$7f                     ; 0x207f <printf+0x80>
    212e: b2 16        	lda	($16)                   ; 0x2016 <printf+0x17>
    2130: 85 15        	sta	$15                     ; 0x2015 <printf+0x16>
    2132: a0 01        	ldy	#$1
    2134: b1 16        	lda	($16),y                 ; 0x2016 <printf+0x17>
    2136: 85 14        	sta	$14                     ; 0x2014 <printf+0x15>
    2138: 10 15        	bpl	$214f <printf+0x150>
    213a: a5 3e        	lda	$3e                     ; 0x203e <printf+0x3f>
    213c: 09 01        	ora	#$1
    213e: 85 3e        	sta	$3e                     ; 0x203e <printf+0x3f>
    2140: 85 6e        	sta	$6e                     ; 0x206e <printf+0x6f>
    2142: a2 00        	ldx	#$0
    2144: 86 6f        	stx	$6f                     ; 0x206f <printf+0x70>
    2146: 8a           	txa
    2147: 38           	sec
    2148: e5 15        	sbc	$15                     ; 0x2015 <printf+0x16>
    214a: 85 15        	sta	$15                     ; 0x2015 <printf+0x16>
    214c: 8a           	txa
    214d: e5 14        	sbc	$14                     ; 0x2014 <printf+0x15>
    214f: a6 15        	ldx	$15                     ; 0x2015 <printf+0x16>
    2151: 86 78        	stx	$78                     ; 0x2078 <printf+0x79>
    2153: 85 79        	sta	$79                     ; 0x2079 <printf+0x7a>
    2155: e6 12        	inc	$12                     ; 0x2012 <printf+0x13>
    2157: f0 03        	beq	$215c <printf+0x15d>
    2159: 4c 15 22     	jmp	$2215 <printf+0x216>
    215c: e6 13        	inc	$13                     ; 0x2013 <printf+0x14>
    215e: 4c 15 22     	jmp	$2215 <printf+0x216>
    2161: a5 15        	lda	$15                     ; 0x2015 <printf+0x16>
    2163: 18           	clc
    2164: 69 d0        	adc	#$d0
    2166: c9 0a        	cmp	#$a
    2168: 90 03        	bcc	$216d <printf+0x16e>
    216a: 4c 07 22     	jmp	$2207 <printf+0x208>
    216d: a6 15        	ldx	$15                     ; 0x2015 <printf+0x16>
    216f: 86 14        	stx	$14                     ; 0x2014 <printf+0x15>
    2171: 64 16        	stz	$16                     ; 0x2016 <printf+0x17>
    2173: 64 15        	stz	$15                     ; 0x2015 <printf+0x16>
    2175: 64 17        	stz	$17                     ; 0x2017 <printf+0x18>
    2177: a0 01        	ldy	#$1
    2179: 06 16        	asl	$16                     ; 0x2016 <printf+0x17>
    217b: 26 17        	rol	$17                     ; 0x2017 <printf+0x18>
    217d: a5 16        	lda	$16                     ; 0x2016 <printf+0x17>
    217f: 0a           	asl
    2180: aa           	tax
    2181: a5 17        	lda	$17                     ; 0x2017 <printf+0x18>
    2183: 2a           	rol
    2184: 86 18        	stx	$18                     ; 0x2018 <printf+0x19>
    2186: 06 18        	asl	$18                     ; 0x2018 <printf+0x19>
    2188: 2a           	rol
    2189: aa           	tax
    218a: a5 18        	lda	$18                     ; 0x2018 <printf+0x19>
    218c: 18           	clc
    218d: 65 16        	adc	$16                     ; 0x2016 <printf+0x17>
    218f: 85 16        	sta	$16                     ; 0x2016 <printf+0x17>
    2191: 8a           	txa
    2192: 65 17        	adc	$17                     ; 0x2017 <printf+0x18>
    2194: 85 17        	sta	$17                     ; 0x2017 <printf+0x18>
    2196: a5 16        	lda	$16                     ; 0x2016 <printf+0x17>
    2198: 18           	clc
    2199: 65 14        	adc	$14                     ; 0x2014 <printf+0x15>
    219b: 85 14        	sta	$14                     ; 0x2014 <printf+0x15>
    219d: a5 17        	lda	$17                     ; 0x2017 <printf+0x18>
    219f: 65 15        	adc	$15                     ; 0x2015 <printf+0x16>
    21a1: aa           	tax
    21a2: 18           	clc
    21a3: a5 14        	lda	$14                     ; 0x2014 <printf+0x15>
    21a5: 69 d0        	adc	#$d0
    21a7: 85 16        	sta	$16                     ; 0x2016 <printf+0x17>
    21a9: 8a           	txa
    21aa: 69 ff        	adc	#$ff
    21ac: 85 17        	sta	$17                     ; 0x2017 <printf+0x18>
    21ae: b1 12        	lda	($12),y                 ; 0x2012 <printf+0x13>
    21b0: 85 14        	sta	$14                     ; 0x2014 <printf+0x15>
    21b2: 18           	clc
    21b3: 69 d0        	adc	#$d0
    21b5: e6 12        	inc	$12                     ; 0x2012 <printf+0x13>
    21b7: d0 02        	bne	$21bb <printf+0x1bc>
    21b9: e6 13        	inc	$13                     ; 0x2013 <printf+0x14>
    21bb: c9 0a        	cmp	#$a
    21bd: 64 15        	stz	$15                     ; 0x2015 <printf+0x16>
    21bf: 90 b8        	bcc	$2179 <printf+0x17a>
    21c1: 80 4a        	bra	$220d <printf+0x20e>
    21c3: 84 13        	sty	$13                     ; 0x2013 <printf+0x14>
    21c5: c5 71        	cmp	$71                     ; 0x2071 <printf+0x72>
    21c7: a0 01        	ldy	#$1
    21c9: b0 26        	bcs	$21f1 <printf+0x1f2>
    21cb: a6 7d        	ldx	$7d                     ; 0x207d <printf+0x7e>
    21cd: e4 42        	cpx	$42                     ; 0x2042 <printf+0x43>
    21cf: d0 19        	bne	$21ea <printf+0x1eb>
    21d1: a6 7c        	ldx	$7c                     ; 0x207c <printf+0x7d>
    21d3: e4 41        	cpx	$41                     ; 0x2041 <printf+0x42>
    21d5: d0 13        	bne	$21ea <printf+0x1eb>
    21d7: 18           	clc
    21d8: aa           	tax
    21d9: a5 13        	lda	$13                     ; 0x2013 <printf+0x14>
    21db: 65 76        	adc	$76                     ; 0x2076 <printf+0x77>
    21dd: 85 12        	sta	$12                     ; 0x2012 <printf+0x13>
    21df: 8a           	txa
    21e0: 65 77        	adc	$77                     ; 0x2077 <printf+0x78>
    21e2: 85 13        	sta	$13                     ; 0x2013 <printf+0x14>
    21e4: a9 25        	lda	#$25
    21e6: 92 12        	sta	($12)                   ; 0x2012 <printf+0x13>
    21e8: 80 07        	bra	$21f1 <printf+0x1f2>
    21ea: a9 25        	lda	#$25
    21ec: 20 91 1c     	jsr	$1c91 <__putchar>
    21ef: a0 01        	ldy	#$1
    21f1: e6 72        	inc	$72                     ; 0x2072 <printf+0x73>
    21f3: d0 02        	bne	$21f7 <printf+0x1f8>
    21f5: e6 73        	inc	$73                     ; 0x2073 <printf+0x74>
    21f7: a5 43        	lda	$43                     ; 0x2043 <printf+0x44>
    21f9: 18           	clc
    21fa: 69 02        	adc	#$2
    21fc: 85 3f        	sta	$3f                     ; 0x203f <printf+0x40>
    21fe: a5 44        	lda	$44                     ; 0x2044 <printf+0x45>
    2200: 69 00        	adc	#$0
    2202: 85 40        	sta	$40                     ; 0x2040 <printf+0x41>
    2204: 4c 64 20     	jmp	$2064 <printf+0x65>
    2207: 64 16        	stz	$16                     ; 0x2016 <printf+0x17>
    2209: 64 17        	stz	$17                     ; 0x2017 <printf+0x18>
    220b: a0 01        	ldy	#$1
    220d: a6 16        	ldx	$16                     ; 0x2016 <printf+0x17>
    220f: 86 78        	stx	$78                     ; 0x2078 <printf+0x79>
    2211: a5 17        	lda	$17                     ; 0x2017 <printf+0x18>
    2213: 85 79        	sta	$79                     ; 0x2079 <printf+0x7a>
    2215: 86 47        	stx	$47                     ; 0x2047 <printf+0x48>
    2217: 85 45        	sta	$45                     ; 0x2045 <printf+0x46>
    2219: b2 12        	lda	($12)                   ; 0x2012 <printf+0x13>
    221b: a2 ff        	ldx	#$ff
    221d: c9 2e        	cmp	#$2e
    221f: d0 39        	bne	$225a <printf+0x25b>
    2221: b1 12        	lda	($12),y                 ; 0x2012 <printf+0x13>
    2223: c9 2a        	cmp	#$2a
    2225: d0 38        	bne	$225f <printf+0x260>
    2227: a5 7e        	lda	$7e                     ; 0x207e <printf+0x7f>
    2229: a6 7f        	ldx	$7f                     ; 0x207f <printf+0x80>
    222b: 85 14        	sta	$14                     ; 0x2014 <printf+0x15>
    222d: 86 15        	stx	$15                     ; 0x2015 <printf+0x16>
    222f: 18           	clc
    2230: 69 02        	adc	#$2
    2232: 85 16        	sta	$16                     ; 0x2016 <printf+0x17>
    2234: 8a           	txa
    2235: 69 00        	adc	#$0
    2237: a6 16        	ldx	$16                     ; 0x2016 <printf+0x17>
    2239: 86 7e        	stx	$7e                     ; 0x207e <printf+0x7f>
    223b: 85 7f        	sta	$7f                     ; 0x207f <printf+0x80>
    223d: a5 12        	lda	$12                     ; 0x2012 <printf+0x13>
    223f: 18           	clc
    2240: 69 02        	adc	#$2
    2242: 85 12        	sta	$12                     ; 0x2012 <printf+0x13>
    2244: a5 13        	lda	$13                     ; 0x2013 <printf+0x14>
    2246: 69 00        	adc	#$0
    2248: 85 13        	sta	$13                     ; 0x2013 <printf+0x14>
    224a: b2 14        	lda	($14)                   ; 0x2014 <printf+0x15>
    224c: aa           	tax
    224d: b1 14        	lda	($14),y                 ; 0x2014 <printf+0x15>
    224f: 86 18        	stx	$18                     ; 0x2018 <printf+0x19>
    2251: 86 7a        	stx	$7a                     ; 0x207a <printf+0x7b>
    2253: 85 19        	sta	$19                     ; 0x2019 <printf+0x1a>
    2255: 85 7b        	sta	$7b                     ; 0x207b <printf+0x7c>
    2257: 4c 0a 23     	jmp	$230a <printf+0x30b>
    225a: 86 18        	stx	$18                     ; 0x2018 <printf+0x19>
    225c: 4c 1a 23     	jmp	$231a <printf+0x31b>
    225f: 85 17        	sta	$17                     ; 0x2017 <printf+0x18>
    2261: 18           	clc
    2262: 69 d0        	adc	#$d0
    2264: c9 0a        	cmp	#$a
    2266: 90 03        	bcc	$226b <printf+0x26c>
    2268: 4c fc 22     	jmp	$22fc <printf+0x2fd>
    226b: 64 16        	stz	$16                     ; 0x2016 <printf+0x17>
    226d: a2 01        	ldx	#$1
    226f: 64 18        	stz	$18                     ; 0x2018 <printf+0x19>
    2271: 64 19        	stz	$19                     ; 0x2019 <printf+0x1a>
    2273: a0 01        	ldy	#$1
    2275: 64 1a        	stz	$1a                     ; 0x201a <printf+0x1b>
    2277: 5a           	phy
    2278: a4 1a        	ldy	$1a                     ; 0x201a <printf+0x1b>
    227a: 84 14        	sty	$14                     ; 0x2014 <printf+0x15>
    227c: 86 15        	stx	$15                     ; 0x2015 <printf+0x16>
    227e: 06 18        	asl	$18                     ; 0x2018 <printf+0x19>
    2280: 26 19        	rol	$19                     ; 0x2019 <printf+0x1a>
    2282: a5 18        	lda	$18                     ; 0x2018 <printf+0x19>
    2284: 0a           	asl
    2285: 85 1d        	sta	$1d                     ; 0x201d <printf+0x1e>
    2287: a5 19        	lda	$19                     ; 0x2019 <printf+0x1a>
    2289: 2a           	rol
    228a: 06 1d        	asl	$1d                     ; 0x201d <printf+0x1e>
    228c: 2a           	rol
    228d: 85 1e        	sta	$1e                     ; 0x201e <printf+0x1f>
    228f: a5 1d        	lda	$1d                     ; 0x201d <printf+0x1e>
    2291: 18           	clc
    2292: 65 18        	adc	$18                     ; 0x2018 <printf+0x19>
    2294: 85 18        	sta	$18                     ; 0x2018 <printf+0x19>
    2296: a5 1e        	lda	$1e                     ; 0x201e <printf+0x1f>
    2298: 65 19        	adc	$19                     ; 0x2019 <printf+0x1a>
    229a: 85 19        	sta	$19                     ; 0x2019 <printf+0x1a>
    229c: a5 18        	lda	$18                     ; 0x2018 <printf+0x19>
    229e: 18           	clc
    229f: 65 17        	adc	$17                     ; 0x2017 <printf+0x18>
    22a1: 85 17        	sta	$17                     ; 0x2017 <printf+0x18>
    22a3: a5 19        	lda	$19                     ; 0x2019 <printf+0x1a>
    22a5: 65 16        	adc	$16                     ; 0x2016 <printf+0x17>
    22a7: 85 16        	sta	$16                     ; 0x2016 <printf+0x17>
    22a9: 18           	clc
    22aa: a5 17        	lda	$17                     ; 0x2017 <printf+0x18>
    22ac: 69 d0        	adc	#$d0
    22ae: 85 18        	sta	$18                     ; 0x2018 <printf+0x19>
    22b0: a5 16        	lda	$16                     ; 0x2016 <printf+0x17>
    22b2: 69 ff        	adc	#$ff
    22b4: 85 19        	sta	$19                     ; 0x2019 <printf+0x1a>
    22b6: e8           	inx
    22b7: d0 02        	bne	$22bb <printf+0x2bc>
    22b9: e6 1a        	inc	$1a                     ; 0x201a <printf+0x1b>
    22bb: a5 12        	lda	$12                     ; 0x2012 <printf+0x13>
    22bd: 18           	clc
    22be: 65 15        	adc	$15                     ; 0x2015 <printf+0x16>
    22c0: 85 1d        	sta	$1d                     ; 0x201d <printf+0x1e>
    22c2: a5 13        	lda	$13                     ; 0x2013 <printf+0x14>
    22c4: 65 14        	adc	$14                     ; 0x2014 <printf+0x15>
    22c6: a4 1d        	ldy	$1d                     ; 0x201d <printf+0x1e>
    22c8: 84 16        	sty	$16                     ; 0x2016 <printf+0x17>
    22ca: 7a           	ply
    22cb: 85 17        	sta	$17                     ; 0x2017 <printf+0x18>
    22cd: b1 16        	lda	($16),y                 ; 0x2016 <printf+0x17>
    22cf: 85 17        	sta	$17                     ; 0x2017 <printf+0x18>
    22d1: 18           	clc
    22d2: 69 d0        	adc	#$d0
    22d4: c9 0a        	cmp	#$a
    22d6: 64 16        	stz	$16                     ; 0x2016 <printf+0x17>
    22d8: b0 03        	bcs	$22dd <printf+0x2de>
    22da: 4c 77 22     	jmp	$2277 <printf+0x278>
    22dd: a5 12        	lda	$12                     ; 0x2012 <printf+0x13>
    22df: 18           	clc
    22e0: 65 15        	adc	$15                     ; 0x2015 <printf+0x16>
    22e2: 85 12        	sta	$12                     ; 0x2012 <printf+0x13>
    22e4: a5 13        	lda	$13                     ; 0x2013 <printf+0x14>
    22e6: 65 14        	adc	$14                     ; 0x2014 <printf+0x15>
    22e8: 85 13        	sta	$13                     ; 0x2013 <printf+0x14>
    22ea: e6 12        	inc	$12                     ; 0x2012 <printf+0x13>
    22ec: d0 02        	bne	$22f0 <printf+0x2f1>
    22ee: e6 13        	inc	$13                     ; 0x2013 <printf+0x14>
    22f0: a6 18        	ldx	$18                     ; 0x2018 <printf+0x19>
    22f2: 86 7a        	stx	$7a                     ; 0x207a <printf+0x7b>
    22f4: a6 19        	ldx	$19                     ; 0x2019 <printf+0x1a>
    22f6: 86 7b        	stx	$7b                     ; 0x207b <printf+0x7c>
    22f8: a0 01        	ldy	#$1
    22fa: 80 0e        	bra	$230a <printf+0x30b>
    22fc: e6 12        	inc	$12                     ; 0x2012 <printf+0x13>
    22fe: d0 02        	bne	$2302 <printf+0x303>
    2300: e6 13        	inc	$13                     ; 0x2013 <printf+0x14>
    2302: 64 18        	stz	$18                     ; 0x2018 <printf+0x19>
    2304: 64 7a        	stz	$7a                     ; 0x207a <printf+0x7b>
    2306: 64 7b        	stz	$7b                     ; 0x207b <printf+0x7c>
    2308: 64 19        	stz	$19                     ; 0x2019 <printf+0x1a>
    230a: a5 3e        	lda	$3e                     ; 0x203e <printf+0x3f>
    230c: 29 ef        	and	#$ef
    230e: 85 3e        	sta	$3e                     ; 0x203e <printf+0x3f>
    2310: 85 6e        	sta	$6e                     ; 0x206e <printf+0x6f>
    2312: a2 00        	ldx	#$0
    2314: 86 6f        	stx	$6f                     ; 0x206f <printf+0x70>
    2316: b2 12        	lda	($12)                   ; 0x2012 <printf+0x13>
    2318: a6 19        	ldx	$19                     ; 0x2019 <printf+0x1a>
    231a: 86 15        	stx	$15                     ; 0x2015 <printf+0x16>
    231c: a6 12        	ldx	$12                     ; 0x2012 <printf+0x13>
    231e: 86 3f        	stx	$3f                     ; 0x203f <printf+0x40>
    2320: a6 13        	ldx	$13                     ; 0x2013 <printf+0x14>
    2322: 86 40        	stx	$40                     ; 0x2040 <printf+0x41>
    2324: e6 3f        	inc	$3f                     ; 0x203f <printf+0x40>
    2326: d0 02        	bne	$232a <printf+0x32b>
    2328: e6 40        	inc	$40                     ; 0x2040 <printf+0x41>
    232a: 85 14        	sta	$14                     ; 0x2014 <printf+0x15>
    232c: 38           	sec
    232d: e9 6c        	sbc	#$6c
    232f: 50 02        	bvc	$2333 <printf+0x334>
    2331: 49 80        	eor	#$80
    2333: aa           	tax
    2334: 10 1d        	bpl	$2353 <printf+0x354>
    2336: a5 14        	lda	$14                     ; 0x2014 <printf+0x15>
    2338: c9 4c        	cmp	#$4c
    233a: f0 27        	beq	$2363 <printf+0x364>
    233c: c9 68        	cmp	#$68
    233e: d0 03        	bne	$2343 <printf+0x344>
    2340: 4c ca 23     	jmp	$23ca <printf+0x3cb>
    2343: a2 08        	ldx	#$8
    2345: c9 6a        	cmp	#$6a
    2347: d0 2e        	bne	$2377 <printf+0x378>
    2349: a5 3f        	lda	$3f                     ; 0x203f <printf+0x40>
    234b: 85 12        	sta	$12                     ; 0x2012 <printf+0x13>
    234d: a5 40        	lda	$40                     ; 0x2040 <printf+0x41>
    234f: 85 13        	sta	$13                     ; 0x2013 <printf+0x14>
    2351: 80 43        	bra	$2396 <printf+0x397>
    2353: a6 14        	ldx	$14                     ; 0x2014 <printf+0x15>
    2355: e0 6c        	cpx	#$6c
    2357: f0 23        	beq	$237c <printf+0x37d>
    2359: e0 74        	cpx	#$74
    235b: f0 12        	beq	$236f <printf+0x370>
    235d: e0 7a        	cpx	#$7a
    235f: f0 0e        	beq	$236f <printf+0x370>
    2361: 80 14        	bra	$2377 <printf+0x378>
    2363: a5 3e        	lda	$3e                     ; 0x203e <printf+0x3f>
    2365: 09 40        	ora	#$40
    2367: 85 3e        	sta	$3e                     ; 0x203e <printf+0x3f>
    2369: 85 6e        	sta	$6e                     ; 0x206e <printf+0x6f>
    236b: a2 00        	ldx	#$0
    236d: 86 6f        	stx	$6f                     ; 0x206f <printf+0x70>
    236f: a6 3f        	ldx	$3f                     ; 0x203f <printf+0x40>
    2371: 86 12        	stx	$12                     ; 0x2012 <printf+0x13>
    2373: a6 40        	ldx	$40                     ; 0x2040 <printf+0x41>
    2375: 86 13        	stx	$13                     ; 0x2013 <printf+0x14>
    2377: a2 02        	ldx	#$2
    2379: 8a           	txa
    237a: 80 1c        	bra	$2398 <printf+0x399>
    237c: b1 12        	lda	($12),y                 ; 0x2012 <printf+0x13>
    237e: a2 04        	ldx	#$4
    2380: c9 6c        	cmp	#$6c
    2382: f0 03        	beq	$2387 <printf+0x388>
    2384: 4c c9 26     	jmp	$26c9 <printf+0x6ca>
    2387: a5 12        	lda	$12                     ; 0x2012 <printf+0x13>
    2389: 18           	clc
    238a: 69 02        	adc	#$2
    238c: 85 12        	sta	$12                     ; 0x2012 <printf+0x13>
    238e: a5 13        	lda	$13                     ; 0x2013 <printf+0x14>
    2390: 69 00        	adc	#$0
    2392: 85 13        	sta	$13                     ; 0x2013 <printf+0x14>
    2394: a2 08        	ldx	#$8
    2396: a9 08        	lda	#$8
    2398: 85 84        	sta	$84                     ; 0x2084 <printf+0x85>
    239a: b2 12        	lda	($12)                   ; 0x2012 <printf+0x13>
    239c: 5a           	phy
    239d: a4 12        	ldy	$12                     ; 0x2012 <printf+0x13>
    239f: 84 3f        	sty	$3f                     ; 0x203f <printf+0x40>
    23a1: a4 13        	ldy	$13                     ; 0x2013 <printf+0x14>
    23a3: 84 40        	sty	$40                     ; 0x2040 <printf+0x41>
    23a5: 7a           	ply
    23a6: 86 41        	stx	$41                     ; 0x2041 <printf+0x42>
    23a8: aa           	tax
    23a9: 38           	sec
    23aa: e9 63        	sbc	#$63
    23ac: c9 16        	cmp	#$16
    23ae: b0 39        	bcs	$23e9 <printf+0x3ea>
    23b0: 0a           	asl
    23b1: aa           	tax
    23b2: 7c dc 2f     	jmp	($2fdc,x)               ; 0x2fdc <__set_v+0xf>
    23b5: a6 15        	ldx	$15                     ; 0x2015 <printf+0x16>
    23b7: 86 82        	stx	$82                     ; 0x2082 <printf+0x83>
    23b9: a6 18        	ldx	$18                     ; 0x2018 <printf+0x19>
    23bb: 86 87        	stx	$87                     ; 0x2087 <printf+0x88>
    23bd: a0 0a        	ldy	#$a
    23bf: a2 0a        	ldx	#$a
    23c1: 86 83        	stx	$83                     ; 0x2083 <printf+0x84>
    23c3: 84 6d        	sty	$6d                     ; 0x206d <printf+0x6e>
    23c5: 64 48        	stz	$48                     ; 0x2048 <printf+0x49>
    23c7: 4c e9 24     	jmp	$24e9 <printf+0x4ea>
    23ca: b1 12        	lda	($12),y                 ; 0x2012 <printf+0x13>
    23cc: a2 02        	ldx	#$2
    23ce: c9 68        	cmp	#$68
    23d0: f0 03        	beq	$23d5 <printf+0x3d6>
    23d2: 4c cf 26     	jmp	$26cf <printf+0x6d0>
    23d5: a5 12        	lda	$12                     ; 0x2012 <printf+0x13>
    23d7: 18           	clc
    23d8: 69 02        	adc	#$2
    23da: 85 12        	sta	$12                     ; 0x2012 <printf+0x13>
    23dc: a5 13        	lda	$13                     ; 0x2013 <printf+0x14>
    23de: 69 00        	adc	#$0
    23e0: 85 13        	sta	$13                     ; 0x2013 <printf+0x14>
    23e2: a2 01        	ldx	#$1
    23e4: 86 84        	stx	$84                     ; 0x2084 <printf+0x85>
    23e6: e8           	inx
    23e7: 80 b1        	bra	$239a <printf+0x39b>
    23e9: e0 58        	cpx	#$58
    23eb: f0 03        	beq	$23f0 <printf+0x3f1>
    23ed: 4c 6a 2b     	jmp	$2b6a <printf+0xb6b>
    23f0: a6 15        	ldx	$15                     ; 0x2015 <printf+0x16>
    23f2: 86 82        	stx	$82                     ; 0x2082 <printf+0x83>
    23f4: a6 18        	ldx	$18                     ; 0x2018 <printf+0x19>
    23f6: 86 87        	stx	$87                     ; 0x2087 <printf+0x88>
    23f8: a2 10        	ldx	#$10
    23fa: 86 6d        	stx	$6d                     ; 0x206d <printf+0x6e>
    23fc: a9 00        	lda	#$0
    23fe: 09 01        	ora	#$1
    2400: a6 3e        	ldx	$3e                     ; 0x203e <printf+0x3f>
    2402: 80 29        	bra	$242d <printf+0x42e>
    2404: a6 15        	ldx	$15                     ; 0x2015 <printf+0x16>
    2406: 86 82        	stx	$82                     ; 0x2082 <printf+0x83>
    2408: a6 18        	ldx	$18                     ; 0x2018 <printf+0x19>
    240a: 86 87        	stx	$87                     ; 0x2087 <printf+0x88>
    240c: a2 10        	ldx	#$10
    240e: 86 6d        	stx	$6d                     ; 0x206d <printf+0x6e>
    2410: a5 3e        	lda	$3e                     ; 0x203e <printf+0x3f>
    2412: 09 84        	ora	#$84
    2414: 80 10        	bra	$2426 <printf+0x427>
    2416: a6 15        	ldx	$15                     ; 0x2015 <printf+0x16>
    2418: 86 82        	stx	$82                     ; 0x2082 <printf+0x83>
    241a: a6 18        	ldx	$18                     ; 0x2018 <printf+0x19>
    241c: 86 87        	stx	$87                     ; 0x2087 <printf+0x88>
    241e: a2 10        	ldx	#$10
    2420: 86 6d        	stx	$6d                     ; 0x206d <printf+0x6e>
    2422: a5 3e        	lda	$3e                     ; 0x203e <printf+0x3f>
    2424: 09 80        	ora	#$80
    2426: aa           	tax
    2427: a9 00        	lda	#$0
    2429: 09 01        	ora	#$1
    242b: 86 3e        	stx	$3e                     ; 0x203e <printf+0x3f>
    242d: 86 6e        	stx	$6e                     ; 0x206e <printf+0x6f>
    242f: 85 48        	sta	$48                     ; 0x2048 <printf+0x49>
    2431: 85 6f        	sta	$6f                     ; 0x206f <printf+0x70>
    2433: a2 10        	ldx	#$10
    2435: 86 83        	stx	$83                     ; 0x2083 <printf+0x84>
    2437: 4c e9 24     	jmp	$24e9 <printf+0x4ea>
    243a: a5 7e        	lda	$7e                     ; 0x207e <printf+0x7f>
    243c: a6 7f        	ldx	$7f                     ; 0x207f <printf+0x80>
    243e: 85 12        	sta	$12                     ; 0x2012 <printf+0x13>
    2440: 86 13        	stx	$13                     ; 0x2013 <printf+0x14>
    2442: 18           	clc
    2443: 69 02        	adc	#$2
    2445: 85 14        	sta	$14                     ; 0x2014 <printf+0x15>
    2447: 8a           	txa
    2448: 69 00        	adc	#$0
    244a: a6 14        	ldx	$14                     ; 0x2014 <printf+0x15>
    244c: 86 7e        	stx	$7e                     ; 0x207e <printf+0x7f>
    244e: 85 7f        	sta	$7f                     ; 0x207f <printf+0x80>
    2450: b2 12        	lda	($12)                   ; 0x2012 <printf+0x13>
    2452: aa           	tax
    2453: b1 12        	lda	($12),y                 ; 0x2012 <printf+0x13>
    2455: 86 12        	stx	$12                     ; 0x2012 <printf+0x13>
    2457: 85 13        	sta	$13                     ; 0x2013 <printf+0x14>
    2459: a5 72        	lda	$72                     ; 0x2072 <printf+0x73>
    245b: a6 73        	ldx	$73                     ; 0x2073 <printf+0x74>
    245d: 92 12        	sta	($12)                   ; 0x2012 <printf+0x13>
    245f: 8a           	txa
    2460: 91 12        	sta	($12),y                 ; 0x2012 <printf+0x13>
    2462: 4c c2 24     	jmp	$24c2 <printf+0x4c3>
    2465: a5 7e        	lda	$7e                     ; 0x207e <printf+0x7f>
    2467: a6 7f        	ldx	$7f                     ; 0x207f <printf+0x80>
    2469: 85 12        	sta	$12                     ; 0x2012 <printf+0x13>
    246b: 86 13        	stx	$13                     ; 0x2013 <printf+0x14>
    246d: 18           	clc
    246e: 69 02        	adc	#$2
    2470: 85 14        	sta	$14                     ; 0x2014 <printf+0x15>
    2472: 8a           	txa
    2473: 69 00        	adc	#$0
    2475: a6 14        	ldx	$14                     ; 0x2014 <printf+0x15>
    2477: 86 7e        	stx	$7e                     ; 0x207e <printf+0x7f>
    2479: 85 7f        	sta	$7f                     ; 0x207f <printf+0x80>
    247b: b2 12        	lda	($12)                   ; 0x2012 <printf+0x13>
    247d: aa           	tax
    247e: b1 12        	lda	($12),y                 ; 0x2012 <printf+0x13>
    2480: 86 12        	stx	$12                     ; 0x2012 <printf+0x13>
    2482: 85 13        	sta	$13                     ; 0x2013 <printf+0x14>
    2484: 80 2f        	bra	$24b5 <printf+0x4b6>
    2486: a6 15        	ldx	$15                     ; 0x2015 <printf+0x16>
    2488: 86 82        	stx	$82                     ; 0x2082 <printf+0x83>
    248a: a6 18        	ldx	$18                     ; 0x2018 <printf+0x19>
    248c: 86 87        	stx	$87                     ; 0x2087 <printf+0x88>
    248e: a0 08        	ldy	#$8
    2490: a2 08        	ldx	#$8
    2492: 80 45        	bra	$24d9 <printf+0x4da>
    2494: a5 7e        	lda	$7e                     ; 0x207e <printf+0x7f>
    2496: a6 7f        	ldx	$7f                     ; 0x207f <printf+0x80>
    2498: 85 12        	sta	$12                     ; 0x2012 <printf+0x13>
    249a: 86 13        	stx	$13                     ; 0x2013 <printf+0x14>
    249c: 18           	clc
    249d: 69 02        	adc	#$2
    249f: a8           	tay
    24a0: 8a           	txa
    24a1: 69 00        	adc	#$0
    24a3: 84 7e        	sty	$7e                     ; 0x207e <printf+0x7f>
    24a5: 85 7f        	sta	$7f                     ; 0x207f <printf+0x80>
    24a7: b2 12        	lda	($12)                   ; 0x2012 <printf+0x13>
    24a9: 85 60        	sta	$60                     ; 0x2060 <printf+0x61>
    24ab: 64 61        	stz	$61                     ; 0x2061 <printf+0x62>
    24ad: a2 60        	ldx	#$60
    24af: 86 12        	stx	$12                     ; 0x2012 <printf+0x13>
    24b1: a2 00        	ldx	#$0
    24b3: 86 13        	stx	$13                     ; 0x2013 <printf+0x14>
    24b5: a2 6d        	ldx	#$6d
    24b7: 86 14        	stx	$14                     ; 0x2014 <printf+0x15>
    24b9: a2 00        	ldx	#$0
    24bb: 86 15        	stx	$15                     ; 0x2015 <printf+0x16>
    24bd: 20 f2 1e     	jsr	$1ef2 <_ZN12_GLOBAL__N_112print_stringEPKcP6Status>
    24c0: a0 01        	ldy	#$1
    24c2: a2 00        	ldx	#$0
    24c4: 86 41        	stx	$41                     ; 0x2041 <printf+0x42>
    24c6: a2 00        	ldx	#$0
    24c8: 86 42        	stx	$42                     ; 0x2042 <printf+0x43>
    24ca: 4c 52 2b     	jmp	$2b52 <printf+0xb53>
    24cd: a6 15        	ldx	$15                     ; 0x2015 <printf+0x16>
    24cf: 86 82        	stx	$82                     ; 0x2082 <printf+0x83>
    24d1: a6 18        	ldx	$18                     ; 0x2018 <printf+0x19>
    24d3: 86 87        	stx	$87                     ; 0x2087 <printf+0x88>
    24d5: a0 0a        	ldy	#$a
    24d7: a2 0a        	ldx	#$a
    24d9: 86 83        	stx	$83                     ; 0x2083 <printf+0x84>
    24db: 84 6d        	sty	$6d                     ; 0x206d <printf+0x6e>
    24dd: a9 00        	lda	#$0
    24df: 09 01        	ora	#$1
    24e1: a6 3e        	ldx	$3e                     ; 0x203e <printf+0x3f>
    24e3: 86 6e        	stx	$6e                     ; 0x206e <printf+0x6f>
    24e5: 85 48        	sta	$48                     ; 0x2048 <printf+0x49>
    24e7: 85 6f        	sta	$6f                     ; 0x206f <printf+0x70>
    24e9: a5 84        	lda	$84                     ; 0x2084 <printf+0x85>
    24eb: 85 62        	sta	$62                     ; 0x2062 <printf+0x63>
    24ed: a4 7e        	ldy	$7e                     ; 0x207e <printf+0x7f>
    24ef: a6 7f        	ldx	$7f                     ; 0x207f <printf+0x80>
    24f1: 86 46        	stx	$46                     ; 0x2046 <printf+0x47>
    24f3: 84 14        	sty	$14                     ; 0x2014 <printf+0x15>
    24f5: 84 3d        	sty	$3d                     ; 0x203d <printf+0x3e>
    24f7: 86 15        	stx	$15                     ; 0x2015 <printf+0x16>
    24f9: a6 85        	ldx	$85                     ; 0x2085 <printf+0x86>
    24fb: 86 12        	stx	$12                     ; 0x2012 <printf+0x13>
    24fd: a6 86        	ldx	$86                     ; 0x2086 <printf+0x87>
    24ff: 86 13        	stx	$13                     ; 0x2013 <printf+0x14>
    2501: a2 00        	ldx	#$0
    2503: 85 42        	sta	$42                     ; 0x2042 <printf+0x43>
    2505: 20 48 2f     	jsr	$2f48 <memcpy>
    2508: 18           	clc
    2509: a5 3d        	lda	$3d                     ; 0x203d <printf+0x3e>
    250b: 65 41        	adc	$41                     ; 0x2041 <printf+0x42>
    250d: aa           	tax
    250e: a5 46        	lda	$46                     ; 0x2046 <printf+0x47>
    2510: 69 00        	adc	#$0
    2512: 86 7e        	stx	$7e                     ; 0x207e <printf+0x7f>
    2514: 85 7f        	sta	$7f                     ; 0x207f <printf+0x80>
    2516: a5 48        	lda	$48                     ; 0x2048 <printf+0x49>
    2518: 29 01        	and	#$1
    251a: b8           	clv
    251b: f0 03        	beq	$2520 <printf+0x521>
    251d: 4c 74 25     	jmp	$2574 <printf+0x575>
    2520: a6 42        	ldx	$42                     ; 0x2042 <printf+0x43>
    2522: b5 62        	lda	$62,x                   ; 0x2062 <printf+0x63>
    2524: aa           	tax
    2525: a0 01        	ldy	#$1
    2527: a5 45        	lda	$45                     ; 0x2045 <printf+0x46>
    2529: 85 1a        	sta	$1a                     ; 0x201a <printf+0x1b>
    252b: a5 87        	lda	$87                     ; 0x2087 <printf+0x88>
    252d: 85 45        	sta	$45                     ; 0x2045 <printf+0x46>
    252f: a9 00        	lda	#$0
    2531: 85 41        	sta	$41                     ; 0x2041 <printf+0x42>
    2533: a9 00        	lda	#$0
    2535: 85 42        	sta	$42                     ; 0x2042 <printf+0x43>
    2537: a5 82        	lda	$82                     ; 0x2082 <printf+0x83>
    2539: 85 46        	sta	$46                     ; 0x2046 <printf+0x47>
    253b: 8a           	txa
    253c: 10 4c        	bpl	$258a <printf+0x58b>
    253e: a2 00        	ldx	#$0
    2540: 64 12        	stz	$12                     ; 0x2012 <printf+0x13>
    2542: a9 00        	lda	#$0
    2544: 38           	sec
    2545: f5 63        	sbc	$63,x                   ; 0x2063 <printf+0x64>
    2547: a0 00        	ldy	#$0
    2549: b0 02        	bcs	$254d <printf+0x54e>
    254b: a0 01        	ldy	#$1
    254d: 38           	sec
    254e: e5 12        	sbc	$12                     ; 0x2012 <printf+0x13>
    2550: 85 13        	sta	$13                     ; 0x2013 <printf+0x14>
    2552: 64 12        	stz	$12                     ; 0x2012 <printf+0x13>
    2554: b0 04        	bcs	$255a <printf+0x55b>
    2556: a9 01        	lda	#$1
    2558: 85 12        	sta	$12                     ; 0x2012 <printf+0x13>
    255a: 98           	tya
    255b: 05 12        	ora	$12                     ; 0x2012 <printf+0x13>
    255d: 85 12        	sta	$12                     ; 0x2012 <printf+0x13>
    255f: a5 13        	lda	$13                     ; 0x2013 <printf+0x14>
    2561: 9d 63 00     	sta	$63,x                   ; 0x63 <__rc31+0x34>
    2564: e8           	inx
    2565: 86 13        	stx	$13                     ; 0x2013 <printf+0x14>
    2567: a4 84        	ldy	$84                     ; 0x2084 <printf+0x85>
    2569: c4 13        	cpy	$13                     ; 0x2013 <printf+0x14>
    256b: d0 d5        	bne	$2542 <printf+0x543>
    256d: 2c cd 2f     	bit	$2fcd                   ; 0x2fcd <__set_v>
    2570: a0 01        	ldy	#$1
    2572: 80 16        	bra	$258a <printf+0x58b>
    2574: a0 01        	ldy	#$1
    2576: a6 45        	ldx	$45                     ; 0x2045 <printf+0x46>
    2578: 86 1a        	stx	$1a                     ; 0x201a <printf+0x1b>
    257a: a6 87        	ldx	$87                     ; 0x2087 <printf+0x88>
    257c: 86 45        	stx	$45                     ; 0x2045 <printf+0x46>
    257e: a2 00        	ldx	#$0
    2580: 86 41        	stx	$41                     ; 0x2041 <printf+0x42>
    2582: a2 00        	ldx	#$0
    2584: 86 42        	stx	$42                     ; 0x2042 <printf+0x43>
    2586: a6 82        	ldx	$82                     ; 0x2082 <printf+0x83>
    2588: 86 46        	stx	$46                     ; 0x2046 <printf+0x47>
    258a: a2 01        	ldx	#$1
    258c: 70 02        	bvs	$2590 <printf+0x591>
    258e: a2 00        	ldx	#$0
    2590: 86 16        	stx	$16                     ; 0x2016 <printf+0x17>
    2592: a5 84        	lda	$84                     ; 0x2084 <printf+0x85>
    2594: 0a           	asl
    2595: 0a           	asl
    2596: 0a           	asl
    2597: 85 12        	sta	$12                     ; 0x2012 <printf+0x13>
    2599: a2 00        	ldx	#$0
    259b: 8a           	txa
    259c: 4c 50 26     	jmp	$2650 <printf+0x651>
    259f: da           	phx
    25a0: 7a           	ply
    25a1: c8           	iny
    25a2: 9d 4b 00     	sta	$4b,x                   ; 0x4b <__rc31+0x1c>
    25a5: 5a           	phy
    25a6: fa           	plx
    25a7: c4 3d        	cpy	$3d                     ; 0x203d <printf+0x3e>
    25a9: f0 30        	beq	$25db <printf+0x5dc>
    25ab: b5 4b        	lda	$4b,x                   ; 0x204b <printf+0x4c>
    25ad: 0a           	asl
    25ae: a4 82        	ldy	$82                     ; 0x2082 <printf+0x83>
    25b0: f0 02        	beq	$25b4 <printf+0x5b5>
    25b2: 09 01        	ora	#$1
    25b4: a4 83        	ldy	$83                     ; 0x2083 <printf+0x84>
    25b6: 84 14        	sty	$14                     ; 0x2014 <printf+0x15>
    25b8: c5 14        	cmp	$14                     ; 0x2014 <printf+0x15>
    25ba: a0 01        	ldy	#$1
    25bc: b0 02        	bcs	$25c0 <printf+0x5c1>
    25be: a0 00        	ldy	#$0
    25c0: 84 82        	sty	$82                     ; 0x2082 <printf+0x83>
    25c2: 90 db        	bcc	$259f <printf+0x5a0>
    25c4: 38           	sec
    25c5: e5 14        	sbc	$14                     ; 0x2014 <printf+0x15>
    25c7: 9d 4b 00     	sta	$4b,x                   ; 0x4b <__rc31+0x1c>
    25ca: e8           	inx
    25cb: e4 3d        	cpx	$3d                     ; 0x203d <printf+0x3e>
    25cd: d0 dc        	bne	$25ab <printf+0x5ac>
    25cf: a4 3d        	ldy	$3d                     ; 0x203d <printf+0x3e>
    25d1: a6 3d        	ldx	$3d                     ; 0x203d <printf+0x3e>
    25d3: e8           	inx
    25d4: a9 01        	lda	#$1
    25d6: 99 4b 00     	sta	$4b,y                   ; 0x4b <__rc31+0x1c>
    25d9: 86 3d        	stx	$3d                     ; 0x203d <printf+0x3e>
    25db: a6 84        	ldx	$84                     ; 0x2084 <printf+0x85>
    25dd: b5 62        	lda	$62,x                   ; 0x2062 <printf+0x63>
    25df: aa           	tax
    25e0: 30 0f        	bmi	$25f1 <printf+0x5f2>
    25e2: a0 01        	ldy	#$1
    25e4: 80 42        	bra	$2628 <printf+0x629>
    25e6: a6 84        	ldx	$84                     ; 0x2084 <printf+0x85>
    25e8: b5 62        	lda	$62,x                   ; 0x2062 <printf+0x63>
    25ea: aa           	tax
    25eb: 64 3d        	stz	$3d                     ; 0x203d <printf+0x3e>
    25ed: 10 39        	bpl	$2628 <printf+0x629>
    25ef: 80 2a        	bra	$261b <printf+0x61c>
    25f1: a5 3d        	lda	$3d                     ; 0x203d <printf+0x3e>
    25f3: f0 24        	beq	$2619 <printf+0x61a>
    25f5: a2 00        	ldx	#$0
    25f7: a4 83        	ldy	$83                     ; 0x2083 <printf+0x84>
    25f9: 84 14        	sty	$14                     ; 0x2014 <printf+0x15>
    25fb: b5 4b        	lda	$4b,x                   ; 0x204b <printf+0x4c>
    25fd: 1a           	inc
    25fe: f6 4b        	inc	$4b,x                   ; 0x204b <printf+0x4c>
    2600: c5 14        	cmp	$14                     ; 0x2014 <printf+0x15>
    2602: 90 de        	bcc	$25e2 <printf+0x5e3>
    2604: a4 14        	ldy	$14                     ; 0x2014 <printf+0x15>
    2606: 84 13        	sty	$13                     ; 0x2013 <printf+0x14>
    2608: 38           	sec
    2609: e5 13        	sbc	$13                     ; 0x2013 <printf+0x14>
    260b: 9d 4b 00     	sta	$4b,x                   ; 0x4b <__rc31+0x1c>
    260e: e8           	inx
    260f: 86 13        	stx	$13                     ; 0x2013 <printf+0x14>
    2611: a4 3d        	ldy	$3d                     ; 0x203d <printf+0x3e>
    2613: c4 13        	cpy	$13                     ; 0x2013 <printf+0x14>
    2615: d0 e4        	bne	$25fb <printf+0x5fc>
    2617: 80 02        	bra	$261b <printf+0x61c>
    2619: 64 3d        	stz	$3d                     ; 0x203d <printf+0x3e>
    261b: a4 3d        	ldy	$3d                     ; 0x203d <printf+0x3e>
    261d: a6 3d        	ldx	$3d                     ; 0x203d <printf+0x3e>
    261f: e8           	inx
    2620: a9 01        	lda	#$1
    2622: 99 4b 00     	sta	$4b,y                   ; 0x4b <__rc31+0x1c>
    2625: a8           	tay
    2626: 86 3d        	stx	$3d                     ; 0x203d <printf+0x3e>
    2628: a2 01        	ldx	#$1
    262a: 64 13        	stz	$13                     ; 0x2013 <printf+0x14>
    262c: a5 84        	lda	$84                     ; 0x2084 <printf+0x85>
    262e: 85 14        	sta	$14                     ; 0x2014 <printf+0x15>
    2630: b5 62        	lda	$62,x                   ; 0x2062 <printf+0x63>
    2632: 0a           	asl
    2633: 64 15        	stz	$15                     ; 0x2015 <printf+0x16>
    2635: 26 15        	rol	$15                     ; 0x2015 <printf+0x16>
    2637: 05 13        	ora	$13                     ; 0x2013 <printf+0x14>
    2639: 9d 62 00     	sta	$62,x                   ; 0x62 <__rc31+0x33>
    263c: e8           	inx
    263d: c6 14        	dec	$14                     ; 0x2014 <printf+0x15>
    263f: a5 15        	lda	$15                     ; 0x2015 <printf+0x16>
    2641: 85 13        	sta	$13                     ; 0x2013 <printf+0x14>
    2643: a5 14        	lda	$14                     ; 0x2014 <printf+0x15>
    2645: d0 e9        	bne	$2630 <printf+0x631>
    2647: a5 17        	lda	$17                     ; 0x2017 <printf+0x18>
    2649: 1a           	inc
    264a: c5 12        	cmp	$12                     ; 0x2012 <printf+0x13>
    264c: a6 3d        	ldx	$3d                     ; 0x203d <printf+0x3e>
    264e: b0 13        	bcs	$2663 <printf+0x664>
    2650: 85 17        	sta	$17                     ; 0x2017 <printf+0x18>
    2652: 8a           	txa
    2653: d0 03        	bne	$2658 <printf+0x659>
    2655: 4c e6 25     	jmp	$25e6 <printf+0x5e7>
    2658: 86 3d        	stx	$3d                     ; 0x203d <printf+0x3e>
    265a: a2 00        	ldx	#$0
    265c: 86 82        	stx	$82                     ; 0x2082 <printf+0x83>
    265e: a2 00        	ldx	#$0
    2660: 4c ab 25     	jmp	$25ab <printf+0x5ac>
    2663: a5 3e        	lda	$3e                     ; 0x203e <printf+0x3f>
    2665: e6 46        	inc	$46                     ; 0x2046 <printf+0x47>
    2667: c6 46        	dec	$46                     ; 0x2046 <printf+0x47>
    2669: 10 08        	bpl	$2673 <printf+0x674>
    266b: a2 01        	ldx	#$1
    266d: 64 46        	stz	$46                     ; 0x2046 <printf+0x47>
    266f: 86 45        	stx	$45                     ; 0x2045 <printf+0x46>
    2671: a6 3d        	ldx	$3d                     ; 0x203d <printf+0x3e>
    2673: 29 04        	and	#$4
    2675: f0 2b        	beq	$26a2 <printf+0x6a3>
    2677: a5 83        	lda	$83                     ; 0x2083 <printf+0x84>
    2679: c9 10        	cmp	#$10
    267b: f0 14        	beq	$2691 <printf+0x692>
    267d: c9 08        	cmp	#$8
    267f: d0 21        	bne	$26a2 <printf+0x6a3>
    2681: a2 00        	ldx	#$0
    2683: e4 46        	cpx	$46                     ; 0x2046 <printf+0x47>
    2685: f0 03        	beq	$268a <printf+0x68b>
    2687: 4c 77 2b     	jmp	$2b77 <printf+0xb78>
    268a: a6 3d        	ldx	$3d                     ; 0x203d <printf+0x3e>
    268c: e4 45        	cpx	$45                     ; 0x2045 <printf+0x46>
    268e: 4c 79 2b     	jmp	$2b79 <printf+0xb7a>
    2691: 8a           	txa
    2692: f0 0e        	beq	$26a2 <printf+0x6a3>
    2694: a5 3e        	lda	$3e                     ; 0x203e <printf+0x3f>
    2696: 29 80        	and	#$80
    2698: d0 03        	bne	$269d <printf+0x69e>
    269a: 4c 92 2b     	jmp	$2b92 <printf+0xb93>
    269d: a2 78        	ldx	#$78
    269f: 4c 94 2b     	jmp	$2b94 <printf+0xb95>
    26a2: a6 3e        	ldx	$3e                     ; 0x203e <printf+0x3f>
    26a4: a9 2d        	lda	#$2d
    26a6: 85 84        	sta	$84                     ; 0x2084 <printf+0x85>
    26a8: a5 16        	lda	$16                     ; 0x2016 <printf+0x17>
    26aa: d0 32        	bne	$26de <printf+0x6df>
    26ac: 86 12        	stx	$12                     ; 0x2012 <printf+0x13>
    26ae: 8a           	txa
    26af: 29 02        	and	#$2
    26b1: a2 2b        	ldx	#$2b
    26b3: 86 84        	stx	$84                     ; 0x2084 <printf+0x85>
    26b5: aa           	tax
    26b6: d0 26        	bne	$26de <printf+0x6df>
    26b8: a5 12        	lda	$12                     ; 0x2012 <printf+0x13>
    26ba: 29 08        	and	#$8
    26bc: d0 1c        	bne	$26da <printf+0x6db>
    26be: a2 01        	ldx	#$1
    26c0: 86 83        	stx	$83                     ; 0x2083 <printf+0x84>
    26c2: a9 00        	lda	#$0
    26c4: aa           	tax
    26c5: 86 82        	stx	$82                     ; 0x2082 <printf+0x83>
    26c7: 80 1c        	bra	$26e5 <printf+0x6e6>
    26c9: 85 12        	sta	$12                     ; 0x2012 <printf+0x13>
    26cb: a9 04        	lda	#$4
    26cd: 80 04        	bra	$26d3 <printf+0x6d4>
    26cf: 85 12        	sta	$12                     ; 0x2012 <printf+0x13>
    26d1: a9 02        	lda	#$2
    26d3: 85 84        	sta	$84                     ; 0x2084 <printf+0x85>
    26d5: a5 12        	lda	$12                     ; 0x2012 <printf+0x13>
    26d7: 4c a6 23     	jmp	$23a6 <printf+0x3a7>
    26da: a2 20        	ldx	#$20
    26dc: 86 84        	stx	$84                     ; 0x2084 <printf+0x85>
    26de: a2 00        	ldx	#$0
    26e0: 86 83        	stx	$83                     ; 0x2083 <printf+0x84>
    26e2: 86 82        	stx	$82                     ; 0x2082 <printf+0x83>
    26e4: 98           	tya
    26e5: a6 46        	ldx	$46                     ; 0x2046 <printf+0x47>
    26e7: d0 35        	bne	$271e <printf+0x71f>
    26e9: a6 45        	ldx	$45                     ; 0x2045 <printf+0x46>
    26eb: a4 3d        	ldy	$3d                     ; 0x203d <printf+0x3e>
    26ed: 84 12        	sty	$12                     ; 0x2012 <printf+0x13>
    26ef: e4 12        	cpx	$12                     ; 0x2012 <printf+0x13>
    26f1: a6 45        	ldx	$45                     ; 0x2045 <printf+0x46>
    26f3: 86 12        	stx	$12                     ; 0x2012 <printf+0x13>
    26f5: a6 46        	ldx	$46                     ; 0x2046 <printf+0x47>
    26f7: 86 13        	stx	$13                     ; 0x2013 <printf+0x14>
    26f9: b0 04        	bcs	$26ff <printf+0x700>
    26fb: 84 12        	sty	$12                     ; 0x2012 <printf+0x13>
    26fd: 64 13        	stz	$13                     ; 0x2013 <printf+0x14>
    26ff: 85 18        	sta	$18                     ; 0x2018 <printf+0x19>
    2701: 18           	clc
    2702: 65 12        	adc	$12                     ; 0x2012 <printf+0x13>
    2704: 85 16        	sta	$16                     ; 0x2016 <printf+0x17>
    2706: 85 14        	sta	$14                     ; 0x2014 <printf+0x15>
    2708: a5 13        	lda	$13                     ; 0x2013 <printf+0x14>
    270a: 69 00        	adc	#$0
    270c: 85 15        	sta	$15                     ; 0x2015 <printf+0x16>
    270e: c5 1a        	cmp	$1a                     ; 0x201a <printf+0x1b>
    2710: d0 1e        	bne	$2730 <printf+0x731>
    2712: a6 1a        	ldx	$1a                     ; 0x201a <printf+0x1b>
    2714: 86 17        	stx	$17                     ; 0x2017 <printf+0x18>
    2716: a6 47        	ldx	$47                     ; 0x2047 <printf+0x48>
    2718: a5 16        	lda	$16                     ; 0x2016 <printf+0x17>
    271a: c5 47        	cmp	$47                     ; 0x2047 <printf+0x48>
    271c: 80 1c        	bra	$273a <printf+0x73b>
    271e: a6 46        	ldx	$46                     ; 0x2046 <printf+0x47>
    2720: e0 00        	cpx	#$0
    2722: a6 45        	ldx	$45                     ; 0x2045 <printf+0x46>
    2724: 86 12        	stx	$12                     ; 0x2012 <printf+0x13>
    2726: a6 46        	ldx	$46                     ; 0x2046 <printf+0x47>
    2728: 86 13        	stx	$13                     ; 0x2013 <printf+0x14>
    272a: a4 3d        	ldy	$3d                     ; 0x203d <printf+0x3e>
    272c: 90 cd        	bcc	$26fb <printf+0x6fc>
    272e: 80 cf        	bra	$26ff <printf+0x700>
    2730: a6 47        	ldx	$47                     ; 0x2047 <printf+0x48>
    2732: 5a           	phy
    2733: a4 1a        	ldy	$1a                     ; 0x201a <printf+0x1b>
    2735: 84 17        	sty	$17                     ; 0x2017 <printf+0x18>
    2737: 7a           	ply
    2738: c5 1a        	cmp	$1a                     ; 0x201a <printf+0x1b>
    273a: 64 48        	stz	$48                     ; 0x2048 <printf+0x49>
    273c: 64 47        	stz	$47                     ; 0x2047 <printf+0x48>
    273e: 90 03        	bcc	$2743 <printf+0x744>
    2740: 4c d6 27     	jmp	$27d6 <printf+0x7d7>
    2743: a5 3e        	lda	$3e                     ; 0x203e <printf+0x3f>
    2745: 29 11        	and	#$11
    2747: 86 16        	stx	$16                     ; 0x2016 <printf+0x17>
    2749: f0 0f        	beq	$275a <printf+0x75b>
    274b: 8a           	txa
    274c: 38           	sec
    274d: e5 14        	sbc	$14                     ; 0x2014 <printf+0x15>
    274f: 85 48        	sta	$48                     ; 0x2048 <printf+0x49>
    2751: a5 1a        	lda	$1a                     ; 0x201a <printf+0x1b>
    2753: e5 15        	sbc	$15                     ; 0x2015 <printf+0x16>
    2755: 85 47        	sta	$47                     ; 0x2047 <printf+0x48>
    2757: 4c d6 27     	jmp	$27d6 <printf+0x7d7>
    275a: a6 72        	ldx	$72                     ; 0x2072 <printf+0x73>
    275c: 86 14        	stx	$14                     ; 0x2014 <printf+0x15>
    275e: 38           	sec
    275f: a5 18        	lda	$18                     ; 0x2018 <printf+0x19>
    2761: e5 16        	sbc	$16                     ; 0x2016 <printf+0x17>
    2763: aa           	tax
    2764: a9 00        	lda	#$0
    2766: e5 17        	sbc	$17                     ; 0x2017 <printf+0x18>
    2768: a8           	tay
    2769: 18           	clc
    276a: 8a           	txa
    276b: 65 12        	adc	$12                     ; 0x2012 <printf+0x13>
    276d: 85 3e        	sta	$3e                     ; 0x203e <printf+0x3f>
    276f: 98           	tya
    2770: 65 13        	adc	$13                     ; 0x2013 <printf+0x14>
    2772: a4 73        	ldy	$73                     ; 0x2073 <printf+0x74>
    2774: 80 47        	bra	$27bd <printf+0x7be>
    2776: c4 71        	cpy	$71                     ; 0x2071 <printf+0x72>
    2778: b0 25        	bcs	$279f <printf+0x7a0>
    277a: a6 7d        	ldx	$7d                     ; 0x207d <printf+0x7e>
    277c: e4 42        	cpx	$42                     ; 0x2042 <printf+0x43>
    277e: d0 18        	bne	$2798 <printf+0x799>
    2780: a6 7c        	ldx	$7c                     ; 0x207c <printf+0x7d>
    2782: e4 41        	cpx	$41                     ; 0x2041 <printf+0x42>
    2784: d0 12        	bne	$2798 <printf+0x799>
    2786: 18           	clc
    2787: a5 14        	lda	$14                     ; 0x2014 <printf+0x15>
    2789: 65 76        	adc	$76                     ; 0x2076 <printf+0x77>
    278b: 85 12        	sta	$12                     ; 0x2012 <printf+0x13>
    278d: 98           	tya
    278e: 65 77        	adc	$77                     ; 0x2077 <printf+0x78>
    2790: 85 13        	sta	$13                     ; 0x2013 <printf+0x14>
    2792: a9 20        	lda	#$20
    2794: 92 12        	sta	($12)                   ; 0x2012 <printf+0x13>
    2796: 80 05        	bra	$279d <printf+0x79e>
    2798: a9 20        	lda	#$20
    279a: 20 91 1c     	jsr	$1c91 <__putchar>
    279d: a5 47        	lda	$47                     ; 0x2047 <printf+0x48>
    279f: a6 72        	ldx	$72                     ; 0x2072 <printf+0x73>
    27a1: a4 73        	ldy	$73                     ; 0x2073 <printf+0x74>
    27a3: e8           	inx
    27a4: d0 01        	bne	$27a7 <printf+0x7a8>
    27a6: c8           	iny
    27a7: 86 14        	stx	$14                     ; 0x2014 <printf+0x15>
    27a9: 86 72        	stx	$72                     ; 0x2072 <printf+0x73>
    27ab: 84 73        	sty	$73                     ; 0x2073 <printf+0x74>
    27ad: a6 3e        	ldx	$3e                     ; 0x203e <printf+0x3f>
    27af: e8           	inx
    27b0: d0 01        	bne	$27b3 <printf+0x7b4>
    27b2: 1a           	inc
    27b3: 86 3e        	stx	$3e                     ; 0x203e <printf+0x3f>
    27b5: c9 00        	cmp	#$0
    27b7: d0 04        	bne	$27bd <printf+0x7be>
    27b9: e0 00        	cpx	#$0
    27bb: f0 13        	beq	$27d0 <printf+0x7d1>
    27bd: 85 47        	sta	$47                     ; 0x2047 <printf+0x48>
    27bf: c4 71        	cpy	$71                     ; 0x2071 <printf+0x72>
    27c1: d0 b3        	bne	$2776 <printf+0x777>
    27c3: a6 70        	ldx	$70                     ; 0x2070 <printf+0x71>
    27c5: 86 12        	stx	$12                     ; 0x2012 <printf+0x13>
    27c7: a6 14        	ldx	$14                     ; 0x2014 <printf+0x15>
    27c9: e4 12        	cpx	$12                     ; 0x2012 <printf+0x13>
    27cb: b0 d2        	bcs	$279f <printf+0x7a0>
    27cd: 4c 7a 27     	jmp	$277a <printf+0x77b>
    27d0: 64 48        	stz	$48                     ; 0x2048 <printf+0x49>
    27d2: 64 47        	stz	$47                     ; 0x2047 <printf+0x48>
    27d4: a4 3d        	ldy	$3d                     ; 0x203d <printf+0x3e>
    27d6: a6 83        	ldx	$83                     ; 0x2083 <printf+0x84>
    27d8: d0 4d        	bne	$2827 <printf+0x828>
    27da: a6 72        	ldx	$72                     ; 0x2072 <printf+0x73>
    27dc: a5 73        	lda	$73                     ; 0x2073 <printf+0x74>
    27de: c5 71        	cmp	$71                     ; 0x2071 <printf+0x72>
    27e0: d0 10        	bne	$27f2 <printf+0x7f3>
    27e2: 86 13        	stx	$13                     ; 0x2013 <printf+0x14>
    27e4: a6 70        	ldx	$70                     ; 0x2070 <printf+0x71>
    27e6: 86 12        	stx	$12                     ; 0x2012 <printf+0x13>
    27e8: a4 3d        	ldy	$3d                     ; 0x203d <printf+0x3e>
    27ea: a6 13        	ldx	$13                     ; 0x2013 <printf+0x14>
    27ec: e4 12        	cpx	$12                     ; 0x2012 <printf+0x13>
    27ee: 90 08        	bcc	$27f8 <printf+0x7f9>
    27f0: 80 2f        	bra	$2821 <printf+0x822>
    27f2: 86 13        	stx	$13                     ; 0x2013 <printf+0x14>
    27f4: c5 71        	cmp	$71                     ; 0x2071 <printf+0x72>
    27f6: b0 29        	bcs	$2821 <printf+0x822>
    27f8: a6 7d        	ldx	$7d                     ; 0x207d <printf+0x7e>
    27fa: e4 42        	cpx	$42                     ; 0x2042 <printf+0x43>
    27fc: d0 1c        	bne	$281a <printf+0x81b>
    27fe: a6 7c        	ldx	$7c                     ; 0x207c <printf+0x7d>
    2800: e4 41        	cpx	$41                     ; 0x2041 <printf+0x42>
    2802: d0 16        	bne	$281a <printf+0x81b>
    2804: 18           	clc
    2805: 85 12        	sta	$12                     ; 0x2012 <printf+0x13>
    2807: a5 13        	lda	$13                     ; 0x2013 <printf+0x14>
    2809: 65 76        	adc	$76                     ; 0x2076 <printf+0x77>
    280b: aa           	tax
    280c: a5 12        	lda	$12                     ; 0x2012 <printf+0x13>
    280e: 65 77        	adc	$77                     ; 0x2077 <printf+0x78>
    2810: 86 12        	stx	$12                     ; 0x2012 <printf+0x13>
    2812: 85 13        	sta	$13                     ; 0x2013 <printf+0x14>
    2814: a5 84        	lda	$84                     ; 0x2084 <printf+0x85>
    2816: 92 12        	sta	($12)                   ; 0x2012 <printf+0x13>
    2818: 80 05        	bra	$281f <printf+0x820>
    281a: a5 84        	lda	$84                     ; 0x2084 <printf+0x85>
    281c: 20 91 1c     	jsr	$1c91 <__putchar>
    281f: a4 3d        	ldy	$3d                     ; 0x203d <printf+0x3e>
    2821: e6 72        	inc	$72                     ; 0x2072 <printf+0x73>
    2823: d0 02        	bne	$2827 <printf+0x828>
    2825: e6 73        	inc	$73                     ; 0x2073 <printf+0x74>
    2827: a6 82        	ldx	$82                     ; 0x2082 <printf+0x83>
    2829: f0 4d        	beq	$2878 <printf+0x879>
    282b: a6 72        	ldx	$72                     ; 0x2072 <printf+0x73>
    282d: a5 73        	lda	$73                     ; 0x2073 <printf+0x74>
    282f: c5 71        	cmp	$71                     ; 0x2071 <printf+0x72>
    2831: d0 10        	bne	$2843 <printf+0x844>
    2833: 86 13        	stx	$13                     ; 0x2013 <printf+0x14>
    2835: a6 70        	ldx	$70                     ; 0x2070 <printf+0x71>
    2837: 86 12        	stx	$12                     ; 0x2012 <printf+0x13>
    2839: a4 3d        	ldy	$3d                     ; 0x203d <printf+0x3e>
    283b: a6 13        	ldx	$13                     ; 0x2013 <printf+0x14>
    283d: e4 12        	cpx	$12                     ; 0x2012 <printf+0x13>
    283f: 90 08        	bcc	$2849 <printf+0x84a>
    2841: 80 2f        	bra	$2872 <printf+0x873>
    2843: 86 13        	stx	$13                     ; 0x2013 <printf+0x14>
    2845: c5 71        	cmp	$71                     ; 0x2071 <printf+0x72>
    2847: b0 29        	bcs	$2872 <printf+0x873>
    2849: a6 7d        	ldx	$7d                     ; 0x207d <printf+0x7e>
    284b: e4 42        	cpx	$42                     ; 0x2042 <printf+0x43>
    284d: d0 1c        	bne	$286b <printf+0x86c>
    284f: a6 7c        	ldx	$7c                     ; 0x207c <printf+0x7d>
    2851: e4 41        	cpx	$41                     ; 0x2041 <printf+0x42>
    2853: d0 16        	bne	$286b <printf+0x86c>
    2855: 18           	clc
    2856: 85 12        	sta	$12                     ; 0x2012 <printf+0x13>
    2858: a5 13        	lda	$13                     ; 0x2013 <printf+0x14>
    285a: 65 76        	adc	$76                     ; 0x2076 <printf+0x77>
    285c: aa           	tax
    285d: a5 12        	lda	$12                     ; 0x2012 <printf+0x13>
    285f: 65 77        	adc	$77                     ; 0x2077 <printf+0x78>
    2861: 86 12        	stx	$12                     ; 0x2012 <printf+0x13>
    2863: 85 13        	sta	$13                     ; 0x2013 <printf+0x14>
    2865: a5 87        	lda	$87                     ; 0x2087 <printf+0x88>
    2867: 92 12        	sta	($12)                   ; 0x2012 <printf+0x13>
    2869: 80 05        	bra	$2870 <printf+0x871>
    286b: a5 87        	lda	$87                     ; 0x2087 <printf+0x88>
    286d: 20 91 1c     	jsr	$1c91 <__putchar>
    2870: a4 3d        	ldy	$3d                     ; 0x203d <printf+0x3e>
    2872: e6 72        	inc	$72                     ; 0x2072 <printf+0x73>
    2874: d0 02        	bne	$2878 <printf+0x879>
    2876: e6 73        	inc	$73                     ; 0x2073 <printf+0x74>
    2878: a9 10        	lda	#$10
    287a: 25 6e        	and	$6e                     ; 0x206e <printf+0x6f>
    287c: d0 03        	bne	$2881 <printf+0x882>
    287e: 4c 09 29     	jmp	$2909 <printf+0x90a>
    2881: a5 6e        	lda	$6e                     ; 0x206e <printf+0x6f>
    2883: 29 01        	and	#$1
    2885: 29 01        	and	#$1
    2887: f0 03        	beq	$288c <printf+0x88d>
    2889: 4c 09 29     	jmp	$2909 <printf+0x90a>
    288c: a6 48        	ldx	$48                     ; 0x2048 <printf+0x49>
    288e: a5 47        	lda	$47                     ; 0x2047 <printf+0x48>
    2890: d0 06        	bne	$2898 <printf+0x899>
    2892: 8a           	txa
    2893: d0 03        	bne	$2898 <printf+0x899>
    2895: 4c a7 2b     	jmp	$2ba7 <printf+0xba8>
    2898: a6 72        	ldx	$72                     ; 0x2072 <printf+0x73>
    289a: 86 13        	stx	$13                     ; 0x2013 <printf+0x14>
    289c: a5 73        	lda	$73                     ; 0x2073 <printf+0x74>
    289e: 80 4f        	bra	$28ef <printf+0x8f0>
    28a0: c5 71        	cmp	$71                     ; 0x2071 <printf+0x72>
    28a2: b0 24        	bcs	$28c8 <printf+0x8c9>
    28a4: a6 7d        	ldx	$7d                     ; 0x207d <printf+0x7e>
    28a6: e4 42        	cpx	$42                     ; 0x2042 <printf+0x43>
    28a8: d0 19        	bne	$28c3 <printf+0x8c4>
    28aa: a6 7c        	ldx	$7c                     ; 0x207c <printf+0x7d>
    28ac: e4 41        	cpx	$41                     ; 0x2041 <printf+0x42>
    28ae: d0 13        	bne	$28c3 <printf+0x8c4>
    28b0: 18           	clc
    28b1: aa           	tax
    28b2: a5 13        	lda	$13                     ; 0x2013 <printf+0x14>
    28b4: 65 76        	adc	$76                     ; 0x2076 <printf+0x77>
    28b6: 85 12        	sta	$12                     ; 0x2012 <printf+0x13>
    28b8: 8a           	txa
    28b9: 65 77        	adc	$77                     ; 0x2077 <printf+0x78>
    28bb: 85 13        	sta	$13                     ; 0x2013 <printf+0x14>
    28bd: a9 30        	lda	#$30
    28bf: 92 12        	sta	($12)                   ; 0x2012 <printf+0x13>
    28c1: 80 05        	bra	$28c8 <printf+0x8c9>
    28c3: a9 30        	lda	#$30
    28c5: 20 91 1c     	jsr	$1c91 <__putchar>
    28c8: a6 72        	ldx	$72                     ; 0x2072 <printf+0x73>
    28ca: a5 73        	lda	$73                     ; 0x2073 <printf+0x74>
    28cc: e8           	inx
    28cd: d0 01        	bne	$28d0 <printf+0x8d1>
    28cf: 1a           	inc
    28d0: 86 13        	stx	$13                     ; 0x2013 <printf+0x14>
    28d2: 86 72        	stx	$72                     ; 0x2072 <printf+0x73>
    28d4: 85 73        	sta	$73                     ; 0x2073 <printf+0x74>
    28d6: a4 48        	ldy	$48                     ; 0x2048 <printf+0x49>
    28d8: a6 47        	ldx	$47                     ; 0x2047 <printf+0x48>
    28da: 86 12        	stx	$12                     ; 0x2012 <printf+0x13>
    28dc: 88           	dey
    28dd: c0 ff        	cpy	#$ff
    28df: d0 02        	bne	$28e3 <printf+0x8e4>
    28e1: c6 12        	dec	$12                     ; 0x2012 <printf+0x13>
    28e3: 84 48        	sty	$48                     ; 0x2048 <printf+0x49>
    28e5: a6 12        	ldx	$12                     ; 0x2012 <printf+0x13>
    28e7: 86 47        	stx	$47                     ; 0x2047 <printf+0x48>
    28e9: d0 04        	bne	$28ef <printf+0x8f0>
    28eb: c0 00        	cpy	#$0
    28ed: f0 14        	beq	$2903 <printf+0x904>
    28ef: c5 71        	cmp	$71                     ; 0x2071 <printf+0x72>
    28f1: f0 03        	beq	$28f6 <printf+0x8f7>
    28f3: 4c a0 28     	jmp	$28a0 <printf+0x8a1>
    28f6: a6 70        	ldx	$70                     ; 0x2070 <printf+0x71>
    28f8: 86 12        	stx	$12                     ; 0x2012 <printf+0x13>
    28fa: a6 13        	ldx	$13                     ; 0x2013 <printf+0x14>
    28fc: e4 12        	cpx	$12                     ; 0x2012 <printf+0x13>
    28fe: b0 c8        	bcs	$28c8 <printf+0x8c9>
    2900: 4c a4 28     	jmp	$28a4 <printf+0x8a5>
    2903: 64 48        	stz	$48                     ; 0x2048 <printf+0x49>
    2905: 64 47        	stz	$47                     ; 0x2047 <printf+0x48>
    2907: a4 3d        	ldy	$3d                     ; 0x203d <printf+0x3e>
    2909: a2 00        	ldx	#$0
    290b: e4 46        	cpx	$46                     ; 0x2046 <printf+0x47>
    290d: d0 07        	bne	$2916 <printf+0x917>
    290f: c4 45        	cpy	$45                     ; 0x2045 <printf+0x46>
    2911: 90 0a        	bcc	$291d <printf+0x91e>
    2913: 4c 8b 29     	jmp	$298b <printf+0x98c>
    2916: e4 46        	cpx	$46                     ; 0x2046 <printf+0x47>
    2918: 90 03        	bcc	$291d <printf+0x91e>
    291a: 4c 8b 29     	jmp	$298b <printf+0x98c>
    291d: a6 72        	ldx	$72                     ; 0x2072 <printf+0x73>
    291f: 86 13        	stx	$13                     ; 0x2013 <printf+0x14>
    2921: a5 73        	lda	$73                     ; 0x2073 <printf+0x74>
    2923: a2 ff        	ldx	#$ff
    2925: c6 45        	dec	$45                     ; 0x2045 <printf+0x46>
    2927: e4 45        	cpx	$45                     ; 0x2045 <printf+0x46>
    2929: d0 02        	bne	$292d <printf+0x92e>
    292b: c6 46        	dec	$46                     ; 0x2046 <printf+0x47>
    292d: c5 71        	cmp	$71                     ; 0x2071 <printf+0x72>
    292f: d0 0c        	bne	$293d <printf+0x93e>
    2931: a6 70        	ldx	$70                     ; 0x2070 <printf+0x71>
    2933: 86 12        	stx	$12                     ; 0x2012 <printf+0x13>
    2935: a6 13        	ldx	$13                     ; 0x2013 <printf+0x14>
    2937: e4 12        	cpx	$12                     ; 0x2012 <printf+0x13>
    2939: 90 06        	bcc	$2941 <printf+0x942>
    293b: 80 28        	bra	$2965 <printf+0x966>
    293d: c5 71        	cmp	$71                     ; 0x2071 <printf+0x72>
    293f: b0 24        	bcs	$2965 <printf+0x966>
    2941: a6 7d        	ldx	$7d                     ; 0x207d <printf+0x7e>
    2943: e4 42        	cpx	$42                     ; 0x2042 <printf+0x43>
    2945: d0 19        	bne	$2960 <printf+0x961>
    2947: a6 7c        	ldx	$7c                     ; 0x207c <printf+0x7d>
    2949: e4 41        	cpx	$41                     ; 0x2041 <printf+0x42>
    294b: d0 13        	bne	$2960 <printf+0x961>
    294d: 18           	clc
    294e: aa           	tax
    294f: a5 13        	lda	$13                     ; 0x2013 <printf+0x14>
    2951: 65 76        	adc	$76                     ; 0x2076 <printf+0x77>
    2953: 85 12        	sta	$12                     ; 0x2012 <printf+0x13>
    2955: 8a           	txa
    2956: 65 77        	adc	$77                     ; 0x2077 <printf+0x78>
    2958: 85 13        	sta	$13                     ; 0x2013 <printf+0x14>
    295a: a9 30        	lda	#$30
    295c: 92 12        	sta	($12)                   ; 0x2012 <printf+0x13>
    295e: 80 05        	bra	$2965 <printf+0x966>
    2960: a9 30        	lda	#$30
    2962: 20 91 1c     	jsr	$1c91 <__putchar>
    2965: a6 72        	ldx	$72                     ; 0x2072 <printf+0x73>
    2967: a5 73        	lda	$73                     ; 0x2073 <printf+0x74>
    2969: e8           	inx
    296a: d0 01        	bne	$296d <printf+0x96e>
    296c: 1a           	inc
    296d: 86 13        	stx	$13                     ; 0x2013 <printf+0x14>
    296f: 86 72        	stx	$72                     ; 0x2072 <printf+0x73>
    2971: 85 73        	sta	$73                     ; 0x2073 <printf+0x74>
    2973: a2 00        	ldx	#$0
    2975: e4 46        	cpx	$46                     ; 0x2046 <printf+0x47>
    2977: d0 09        	bne	$2982 <printf+0x983>
    2979: a4 3d        	ldy	$3d                     ; 0x203d <printf+0x3e>
    297b: c4 45        	cpy	$45                     ; 0x2045 <printf+0x46>
    297d: b0 0c        	bcs	$298b <printf+0x98c>
    297f: 4c 23 29     	jmp	$2923 <printf+0x924>
    2982: e4 46        	cpx	$46                     ; 0x2046 <printf+0x47>
    2984: a4 3d        	ldy	$3d                     ; 0x203d <printf+0x3e>
    2986: b0 03        	bcs	$298b <printf+0x98c>
    2988: 4c 23 29     	jmp	$2923 <printf+0x924>
    298b: 98           	tya
    298c: d0 03        	bne	$2991 <printf+0x992>
    298e: 4c 80 2a     	jmp	$2a80 <printf+0xa81>
    2991: 88           	dey
    2992: d0 03        	bne	$2997 <printf+0x998>
    2994: 4c 1f 2a     	jmp	$2a1f <printf+0xa20>
    2997: 84 45        	sty	$45                     ; 0x2045 <printf+0x46>
    2999: a6 88        	ldx	$88                     ; 0x2088 <printf+0x89>
    299b: 8a           	txa
    299c: 18           	clc
    299d: 65 45        	adc	$45                     ; 0x2045 <printf+0x46>
    299f: 85 3d        	sta	$3d                     ; 0x203d <printf+0x3e>
    29a1: a5 89        	lda	$89                     ; 0x2089 <printf+0x8a>
    29a3: 69 00        	adc	#$0
    29a5: 85 3e        	sta	$3e                     ; 0x203e <printf+0x3f>
    29a7: 4c 11 2a     	jmp	$2a11 <printf+0xa12>
    29aa: a8           	tay
    29ab: a9 80        	lda	#$80
    29ad: 25 6e        	and	$6e                     ; 0x206e <printf+0x6f>
    29af: f0 04        	beq	$29b5 <printf+0x9b6>
    29b1: a2 61        	ldx	#$61
    29b3: 80 02        	bra	$29b7 <printf+0x9b8>
    29b5: a2 41        	ldx	#$41
    29b7: 86 12        	stx	$12                     ; 0x2012 <printf+0x13>
    29b9: 18           	clc
    29ba: 98           	tya
    29bb: 65 12        	adc	$12                     ; 0x2012 <printf+0x13>
    29bd: 18           	clc
    29be: 69 f6        	adc	#$f6
    29c0: a4 72        	ldy	$72                     ; 0x2072 <printf+0x73>
    29c2: a6 73        	ldx	$73                     ; 0x2073 <printf+0x74>
    29c4: e4 71        	cpx	$71                     ; 0x2071 <printf+0x72>
    29c6: d0 0c        	bne	$29d4 <printf+0x9d5>
    29c8: 86 14        	stx	$14                     ; 0x2014 <printf+0x15>
    29ca: a6 70        	ldx	$70                     ; 0x2070 <printf+0x71>
    29cc: 86 12        	stx	$12                     ; 0x2012 <printf+0x13>
    29ce: c4 12        	cpy	$12                     ; 0x2012 <printf+0x13>
    29d0: 90 08        	bcc	$29da <printf+0x9db>
    29d2: 80 27        	bra	$29fb <printf+0x9fc>
    29d4: 86 14        	stx	$14                     ; 0x2014 <printf+0x15>
    29d6: e4 71        	cpx	$71                     ; 0x2071 <printf+0x72>
    29d8: b0 21        	bcs	$29fb <printf+0x9fc>
    29da: a6 7d        	ldx	$7d                     ; 0x207d <printf+0x7e>
    29dc: e4 42        	cpx	$42                     ; 0x2042 <printf+0x43>
    29de: d0 18        	bne	$29f8 <printf+0x9f9>
    29e0: a6 7c        	ldx	$7c                     ; 0x207c <printf+0x7d>
    29e2: e4 41        	cpx	$41                     ; 0x2041 <printf+0x42>
    29e4: d0 12        	bne	$29f8 <printf+0x9f9>
    29e6: 18           	clc
    29e7: aa           	tax
    29e8: 98           	tya
    29e9: 65 76        	adc	$76                     ; 0x2076 <printf+0x77>
    29eb: 85 12        	sta	$12                     ; 0x2012 <printf+0x13>
    29ed: a5 14        	lda	$14                     ; 0x2014 <printf+0x15>
    29ef: 65 77        	adc	$77                     ; 0x2077 <printf+0x78>
    29f1: 85 13        	sta	$13                     ; 0x2013 <printf+0x14>
    29f3: 8a           	txa
    29f4: 92 12        	sta	($12)                   ; 0x2012 <printf+0x13>
    29f6: 80 03        	bra	$29fb <printf+0x9fc>
    29f8: 20 91 1c     	jsr	$1c91 <__putchar>
    29fb: e6 72        	inc	$72                     ; 0x2072 <printf+0x73>
    29fd: d0 02        	bne	$2a01 <printf+0xa02>
    29ff: e6 73        	inc	$73                     ; 0x2073 <printf+0x74>
    2a01: c6 45        	dec	$45                     ; 0x2045 <printf+0x46>
    2a03: a2 ff        	ldx	#$ff
    2a05: c6 3d        	dec	$3d                     ; 0x203d <printf+0x3e>
    2a07: e4 3d        	cpx	$3d                     ; 0x203d <printf+0x3e>
    2a09: d0 02        	bne	$2a0d <printf+0xa0e>
    2a0b: c6 3e        	dec	$3e                     ; 0x203e <printf+0x3f>
    2a0d: a5 45        	lda	$45                     ; 0x2045 <printf+0x46>
    2a0f: f0 0e        	beq	$2a1f <printf+0xa20>
    2a11: b2 3d        	lda	($3d)                   ; 0x203d <printf+0x3e>
    2a13: c9 0a        	cmp	#$a
    2a15: 90 03        	bcc	$2a1a <printf+0xa1b>
    2a17: 4c aa 29     	jmp	$29aa <printf+0x9ab>
    2a1a: 09 30        	ora	#$30
    2a1c: 4c c0 29     	jmp	$29c0 <printf+0x9c1>
    2a1f: a5 4b        	lda	$4b                     ; 0x204b <printf+0x4c>
    2a21: c9 0a        	cmp	#$a
    2a23: b0 04        	bcs	$2a29 <printf+0xa2a>
    2a25: 09 30        	ora	#$30
    2a27: 80 16        	bra	$2a3f <printf+0xa40>
    2a29: a8           	tay
    2a2a: a9 80        	lda	#$80
    2a2c: 25 6e        	and	$6e                     ; 0x206e <printf+0x6f>
    2a2e: f0 04        	beq	$2a34 <printf+0xa35>
    2a30: a2 61        	ldx	#$61
    2a32: 80 02        	bra	$2a36 <printf+0xa37>
    2a34: a2 41        	ldx	#$41
    2a36: 86 12        	stx	$12                     ; 0x2012 <printf+0x13>
    2a38: 18           	clc
    2a39: 98           	tya
    2a3a: 65 12        	adc	$12                     ; 0x2012 <printf+0x13>
    2a3c: 18           	clc
    2a3d: 69 f6        	adc	#$f6
    2a3f: a4 72        	ldy	$72                     ; 0x2072 <printf+0x73>
    2a41: a6 73        	ldx	$73                     ; 0x2073 <printf+0x74>
    2a43: e4 71        	cpx	$71                     ; 0x2071 <printf+0x72>
    2a45: d0 0c        	bne	$2a53 <printf+0xa54>
    2a47: 86 14        	stx	$14                     ; 0x2014 <printf+0x15>
    2a49: a6 70        	ldx	$70                     ; 0x2070 <printf+0x71>
    2a4b: 86 12        	stx	$12                     ; 0x2012 <printf+0x13>
    2a4d: c4 12        	cpy	$12                     ; 0x2012 <printf+0x13>
    2a4f: 90 08        	bcc	$2a59 <printf+0xa5a>
    2a51: 80 27        	bra	$2a7a <printf+0xa7b>
    2a53: 86 14        	stx	$14                     ; 0x2014 <printf+0x15>
    2a55: e4 71        	cpx	$71                     ; 0x2071 <printf+0x72>
    2a57: b0 21        	bcs	$2a7a <printf+0xa7b>
    2a59: a6 7d        	ldx	$7d                     ; 0x207d <printf+0x7e>
    2a5b: e4 42        	cpx	$42                     ; 0x2042 <printf+0x43>
    2a5d: d0 18        	bne	$2a77 <printf+0xa78>
    2a5f: a6 7c        	ldx	$7c                     ; 0x207c <printf+0x7d>
    2a61: e4 41        	cpx	$41                     ; 0x2041 <printf+0x42>
    2a63: d0 12        	bne	$2a77 <printf+0xa78>
    2a65: 18           	clc
    2a66: aa           	tax
    2a67: 98           	tya
    2a68: 65 76        	adc	$76                     ; 0x2076 <printf+0x77>
    2a6a: 85 12        	sta	$12                     ; 0x2012 <printf+0x13>
    2a6c: a5 14        	lda	$14                     ; 0x2014 <printf+0x15>
    2a6e: 65 77        	adc	$77                     ; 0x2077 <printf+0x78>
    2a70: 85 13        	sta	$13                     ; 0x2013 <printf+0x14>
    2a72: 8a           	txa
    2a73: 92 12        	sta	($12)                   ; 0x2012 <printf+0x13>
    2a75: 80 03        	bra	$2a7a <printf+0xa7b>
    2a77: 20 91 1c     	jsr	$1c91 <__putchar>
    2a7a: e6 72        	inc	$72                     ; 0x2072 <printf+0x73>
    2a7c: d0 02        	bne	$2a80 <printf+0xa81>
    2a7e: e6 73        	inc	$73                     ; 0x2073 <printf+0x74>
    2a80: a9 01        	lda	#$1
    2a82: 25 6e        	and	$6e                     ; 0x206e <printf+0x6f>
    2a84: 29 01        	and	#$1
    2a86: d0 1e        	bne	$2aa6 <printf+0xaa7>
    2a88: a6 72        	ldx	$72                     ; 0x2072 <printf+0x73>
    2a8a: 86 14        	stx	$14                     ; 0x2014 <printf+0x15>
    2a8c: a5 73        	lda	$73                     ; 0x2073 <printf+0x74>
    2a8e: a4 70        	ldy	$70                     ; 0x2070 <printf+0x71>
    2a90: a6 71        	ldx	$71                     ; 0x2071 <printf+0x72>
    2a92: 86 12        	stx	$12                     ; 0x2012 <printf+0x13>
    2a94: 86 13        	stx	$13                     ; 0x2013 <printf+0x14>
    2a96: c5 12        	cmp	$12                     ; 0x2012 <printf+0x13>
    2a98: f0 03        	beq	$2a9d <printf+0xa9e>
    2a9a: 4c 29 2b     	jmp	$2b29 <printf+0xb2a>
    2a9d: 84 12        	sty	$12                     ; 0x2012 <printf+0x13>
    2a9f: a6 14        	ldx	$14                     ; 0x2014 <printf+0x15>
    2aa1: e4 12        	cpx	$12                     ; 0x2012 <printf+0x13>
    2aa3: 4c 2d 2b     	jmp	$2b2d <printf+0xb2e>
    2aa6: a6 72        	ldx	$72                     ; 0x2072 <printf+0x73>
    2aa8: 86 14        	stx	$14                     ; 0x2014 <printf+0x15>
    2aaa: a5 73        	lda	$73                     ; 0x2073 <printf+0x74>
    2aac: a6 48        	ldx	$48                     ; 0x2048 <printf+0x49>
    2aae: a4 47        	ldy	$47                     ; 0x2047 <printf+0x48>
    2ab0: f0 03        	beq	$2ab5 <printf+0xab6>
    2ab2: 4c 15 2b     	jmp	$2b15 <printf+0xb16>
    2ab5: e0 00        	cpx	#$0
    2ab7: f0 d5        	beq	$2a8e <printf+0xa8f>
    2ab9: 4c 15 2b     	jmp	$2b15 <printf+0xb16>
    2abc: c5 71        	cmp	$71                     ; 0x2071 <printf+0x72>
    2abe: b0 24        	bcs	$2ae4 <printf+0xae5>
    2ac0: a6 7d        	ldx	$7d                     ; 0x207d <printf+0x7e>
    2ac2: e4 42        	cpx	$42                     ; 0x2042 <printf+0x43>
    2ac4: d0 19        	bne	$2adf <printf+0xae0>
    2ac6: a6 7c        	ldx	$7c                     ; 0x207c <printf+0x7d>
    2ac8: e4 41        	cpx	$41                     ; 0x2041 <printf+0x42>
    2aca: d0 13        	bne	$2adf <printf+0xae0>
    2acc: 18           	clc
    2acd: aa           	tax
    2ace: a5 14        	lda	$14                     ; 0x2014 <printf+0x15>
    2ad0: 65 76        	adc	$76                     ; 0x2076 <printf+0x77>
    2ad2: 85 12        	sta	$12                     ; 0x2012 <printf+0x13>
    2ad4: 8a           	txa
    2ad5: 65 77        	adc	$77                     ; 0x2077 <printf+0x78>
    2ad7: 85 13        	sta	$13                     ; 0x2013 <printf+0x14>
    2ad9: a9 20        	lda	#$20
    2adb: 92 12        	sta	($12)                   ; 0x2012 <printf+0x13>
    2add: 80 05        	bra	$2ae4 <printf+0xae5>
    2adf: a9 20        	lda	#$20
    2ae1: 20 91 1c     	jsr	$1c91 <__putchar>
    2ae4: a6 72        	ldx	$72                     ; 0x2072 <printf+0x73>
    2ae6: a5 73        	lda	$73                     ; 0x2073 <printf+0x74>
    2ae8: e8           	inx
    2ae9: d0 01        	bne	$2aec <printf+0xaed>
    2aeb: 1a           	inc
    2aec: 86 14        	stx	$14                     ; 0x2014 <printf+0x15>
    2aee: 86 72        	stx	$72                     ; 0x2072 <printf+0x73>
    2af0: 85 73        	sta	$73                     ; 0x2073 <printf+0x74>
    2af2: a6 48        	ldx	$48                     ; 0x2048 <printf+0x49>
    2af4: 86 12        	stx	$12                     ; 0x2012 <printf+0x13>
    2af6: a6 47        	ldx	$47                     ; 0x2047 <printf+0x48>
    2af8: 86 13        	stx	$13                     ; 0x2013 <printf+0x14>
    2afa: a2 ff        	ldx	#$ff
    2afc: c6 12        	dec	$12                     ; 0x2012 <printf+0x13>
    2afe: e4 12        	cpx	$12                     ; 0x2012 <printf+0x13>
    2b00: d0 02        	bne	$2b04 <printf+0xb05>
    2b02: c6 13        	dec	$13                     ; 0x2013 <printf+0x14>
    2b04: a6 12        	ldx	$12                     ; 0x2012 <printf+0x13>
    2b06: 86 48        	stx	$48                     ; 0x2048 <printf+0x49>
    2b08: a6 13        	ldx	$13                     ; 0x2013 <printf+0x14>
    2b0a: 86 47        	stx	$47                     ; 0x2047 <printf+0x48>
    2b0c: d0 07        	bne	$2b15 <printf+0xb16>
    2b0e: a6 12        	ldx	$12                     ; 0x2012 <printf+0x13>
    2b10: d0 03        	bne	$2b15 <printf+0xb16>
    2b12: 4c 8e 2a     	jmp	$2a8e <printf+0xa8f>
    2b15: c5 71        	cmp	$71                     ; 0x2071 <printf+0x72>
    2b17: f0 03        	beq	$2b1c <printf+0xb1d>
    2b19: 4c bc 2a     	jmp	$2abc <printf+0xabd>
    2b1c: a6 70        	ldx	$70                     ; 0x2070 <printf+0x71>
    2b1e: 86 12        	stx	$12                     ; 0x2012 <printf+0x13>
    2b20: a6 14        	ldx	$14                     ; 0x2014 <printf+0x15>
    2b22: e4 12        	cpx	$12                     ; 0x2012 <printf+0x13>
    2b24: b0 be        	bcs	$2ae4 <printf+0xae5>
    2b26: 4c c0 2a     	jmp	$2ac0 <printf+0xac1>
    2b29: 86 12        	stx	$12                     ; 0x2012 <printf+0x13>
    2b2b: c5 12        	cmp	$12                     ; 0x2012 <printf+0x13>
    2b2d: 98           	tya
    2b2e: a0 01        	ldy	#$1
    2b30: 90 20        	bcc	$2b52 <printf+0xb53>
    2b32: a6 13        	ldx	$13                     ; 0x2013 <printf+0x14>
    2b34: d0 03        	bne	$2b39 <printf+0xb3a>
    2b36: aa           	tax
    2b37: f0 19        	beq	$2b52 <printf+0xb53>
    2b39: 18           	clc
    2b3a: 65 76        	adc	$76                     ; 0x2076 <printf+0x77>
    2b3c: 85 12        	sta	$12                     ; 0x2012 <printf+0x13>
    2b3e: a5 13        	lda	$13                     ; 0x2013 <printf+0x14>
    2b40: 65 77        	adc	$77                     ; 0x2077 <printf+0x78>
    2b42: 85 13        	sta	$13                     ; 0x2013 <printf+0x14>
    2b44: a2 ff        	ldx	#$ff
    2b46: c6 12        	dec	$12                     ; 0x2012 <printf+0x13>
    2b48: e4 12        	cpx	$12                     ; 0x2012 <printf+0x13>
    2b4a: d0 02        	bne	$2b4e <printf+0xb4f>
    2b4c: c6 13        	dec	$13                     ; 0x2013 <printf+0x14>
    2b4e: a9 00        	lda	#$0
    2b50: 92 12        	sta	($12)                   ; 0x2012 <printf+0x13>
    2b52: e6 3f        	inc	$3f                     ; 0x203f <printf+0x40>
    2b54: d0 02        	bne	$2b58 <printf+0xb59>
    2b56: e6 40        	inc	$40                     ; 0x2040 <printf+0x41>
    2b58: a6 40        	ldx	$40                     ; 0x2040 <printf+0x41>
    2b5a: e4 44        	cpx	$44                     ; 0x2044 <printf+0x45>
    2b5c: f0 03        	beq	$2b61 <printf+0xb62>
    2b5e: 4c 64 20     	jmp	$2064 <printf+0x65>
    2b61: a6 3f        	ldx	$3f                     ; 0x203f <printf+0x40>
    2b63: e4 43        	cpx	$43                     ; 0x2043 <printf+0x44>
    2b65: f0 03        	beq	$2b6a <printf+0xb6b>
    2b67: 4c 64 20     	jmp	$2064 <printf+0x65>
    2b6a: b2 43        	lda	($43)                   ; 0x2043 <printf+0x44>
    2b6c: a2 00        	ldx	#$0
    2b6e: 86 41        	stx	$41                     ; 0x2041 <printf+0x42>
    2b70: a2 00        	ldx	#$0
    2b72: 86 42        	stx	$42                     ; 0x2042 <printf+0x43>
    2b74: 4c 78 20     	jmp	$2078 <printf+0x79>
    2b77: e4 46        	cpx	$46                     ; 0x2046 <printf+0x47>
    2b79: a6 3e        	ldx	$3e                     ; 0x203e <printf+0x3f>
    2b7b: b0 03        	bcs	$2b80 <printf+0xb81>
    2b7d: 4c a4 26     	jmp	$26a4 <printf+0x6a5>
    2b80: a5 3d        	lda	$3d                     ; 0x203d <printf+0x3e>
    2b82: 85 45        	sta	$45                     ; 0x2045 <printf+0x46>
    2b84: 64 46        	stz	$46                     ; 0x2046 <printf+0x47>
    2b86: e6 45        	inc	$45                     ; 0x2045 <printf+0x46>
    2b88: f0 03        	beq	$2b8d <printf+0xb8e>
    2b8a: 4c a4 26     	jmp	$26a4 <printf+0x6a5>
    2b8d: e6 46        	inc	$46                     ; 0x2046 <printf+0x47>
    2b8f: 4c a4 26     	jmp	$26a4 <printf+0x6a5>
    2b92: a2 58        	ldx	#$58
    2b94: 86 87        	stx	$87                     ; 0x2087 <printf+0x88>
    2b96: a2 01        	ldx	#$1
    2b98: 86 82        	stx	$82                     ; 0x2082 <printf+0x83>
    2b9a: a2 30        	ldx	#$30
    2b9c: 86 84        	stx	$84                     ; 0x2084 <printf+0x85>
    2b9e: a9 02        	lda	#$2
    2ba0: a2 00        	ldx	#$0
    2ba2: 86 83        	stx	$83                     ; 0x2083 <printf+0x84>
    2ba4: 4c e5 26     	jmp	$26e5 <printf+0x6e6>
    2ba7: 64 48        	stz	$48                     ; 0x2048 <printf+0x49>
    2ba9: 64 47        	stz	$47                     ; 0x2047 <printf+0x48>
    2bab: 4c 09 29     	jmp	$2909 <printf+0x90a>
    2bae: 60           	rts

00002baf <puts>:
    2baf: b2 12        	lda	($12)                   ; 0x2012 <printf+0x13>
    2bb1: f0 28        	beq	$2bdb <puts+0x2c>
    2bb3: a6 12        	ldx	$12                     ; 0x2012 <printf+0x13>
    2bb5: 86 3d        	stx	$3d                     ; 0x203d <printf+0x3e>
    2bb7: a6 13        	ldx	$13                     ; 0x2013 <printf+0x14>
    2bb9: 86 3e        	stx	$3e                     ; 0x203e <printf+0x3f>
    2bbb: a6 12        	ldx	$12                     ; 0x2012 <printf+0x13>
    2bbd: 86 3f        	stx	$3f                     ; 0x203f <printf+0x40>
    2bbf: a6 13        	ldx	$13                     ; 0x2013 <printf+0x14>
    2bc1: 86 40        	stx	$40                     ; 0x2040 <printf+0x41>
    2bc3: e6 3f        	inc	$3f                     ; 0x203f <printf+0x40>
    2bc5: d0 02        	bne	$2bc9 <puts+0x1a>
    2bc7: e6 40        	inc	$40                     ; 0x2040 <printf+0x41>
    2bc9: 20 91 1c     	jsr	$1c91 <__putchar>
    2bcc: a0 01        	ldy	#$1
    2bce: b1 3d        	lda	($3d),y                 ; 0x203d <printf+0x3e>
    2bd0: a6 3f        	ldx	$3f                     ; 0x203f <printf+0x40>
    2bd2: 86 3d        	stx	$3d                     ; 0x203d <printf+0x3e>
    2bd4: a6 40        	ldx	$40                     ; 0x2040 <printf+0x41>
    2bd6: 86 3e        	stx	$3e                     ; 0x203e <printf+0x3f>
    2bd8: aa           	tax
    2bd9: d0 e8        	bne	$2bc3 <puts+0x14>
    2bdb: a9 0a        	lda	#$a
    2bdd: 4c 91 1c     	jmp	$1c91 <__putchar>

00002be0 <malloc>:
    2be0: a8           	tay
    2be1: 8a           	txa
    2be2: a2 00        	ldx	#$0
    2be4: 86 12        	stx	$12                     ; 0x2012 <printf+0x13>
    2be6: a2 00        	ldx	#$0
    2be8: 86 13        	stx	$13                     ; 0x2013 <printf+0x14>
    2bea: aa           	tax
    2beb: d0 07        	bne	$2bf4 <malloc+0x14>
    2bed: c0 00        	cpy	#$0
    2bef: d0 03        	bne	$2bf4 <malloc+0x14>
    2bf1: 4c e6 2c     	jmp	$2ce6 <malloc+0x106>
    2bf4: 84 16        	sty	$16                     ; 0x2016 <printf+0x17>
    2bf6: aa           	tax
    2bf7: d0 0e        	bne	$2c07 <malloc+0x27>
    2bf9: a6 16        	ldx	$16                     ; 0x2016 <printf+0x17>
    2bfb: e0 07        	cpx	#$7
    2bfd: b0 0c        	bcs	$2c0b <malloc+0x2b>
    2bff: a2 08        	ldx	#$8
    2c01: 86 3e        	stx	$3e                     ; 0x203e <printf+0x3f>
    2c03: a9 00        	lda	#$0
    2c05: 80 2f        	bra	$2c36 <malloc+0x56>
    2c07: c9 00        	cmp	#$0
    2c09: 90 f4        	bcc	$2bff <malloc+0x1f>
    2c0b: a8           	tay
    2c0c: a5 16        	lda	$16                     ; 0x2016 <printf+0x17>
    2c0e: 29 01        	and	#$1
    2c10: a2 02        	ldx	#$2
    2c12: 64 14        	stz	$14                     ; 0x2014 <printf+0x15>
    2c14: c9 00        	cmp	#$0
    2c16: f0 02        	beq	$2c1a <malloc+0x3a>
    2c18: a2 03        	ldx	#$3
    2c1a: 86 15        	stx	$15                     ; 0x2015 <printf+0x16>
    2c1c: 18           	clc
    2c1d: a5 16        	lda	$16                     ; 0x2016 <printf+0x17>
    2c1f: 65 15        	adc	$15                     ; 0x2015 <printf+0x16>
    2c21: aa           	tax
    2c22: 98           	tya
    2c23: 65 14        	adc	$14                     ; 0x2014 <printf+0x15>
    2c25: 90 03        	bcc	$2c2a <malloc+0x4a>
    2c27: 4c e6 2c     	jmp	$2ce6 <malloc+0x106>
    2c2a: 86 3e        	stx	$3e                     ; 0x203e <printf+0x3f>
    2c2c: a8           	tay
    2c2d: d0 07        	bne	$2c36 <malloc+0x56>
    2c2f: e0 00        	cpx	#$0
    2c31: d0 03        	bne	$2c36 <malloc+0x56>
    2c33: 4c e6 2c     	jmp	$2ce6 <malloc+0x106>
    2c36: 85 3d        	sta	$3d                     ; 0x203d <printf+0x3e>
    2c38: ad ec 5d     	lda	$5dec                   ; 0x5dec <_ZN12_GLOBAL__N_111initializedE>
    2c3b: 29 01        	and	#$1
    2c3d: d0 2d        	bne	$2c6c <malloc+0x8c>
    2c3f: a9 00        	lda	#$0
    2c41: a2 10        	ldx	#$10
    2c43: a0 f2        	ldy	#$f2
    2c45: 84 12        	sty	$12                     ; 0x2012 <printf+0x13>
    2c47: a0 5d        	ldy	#$5d
    2c49: 84 13        	sty	$13                     ; 0x2013 <printf+0x14>
    2c4b: 20 16 03     	jsr	$316 <_ZN12_GLOBAL__N_19FreeChunk6insertEPvj>
    2c4e: a2 00        	ldx	#$0
    2c50: 86 12        	stx	$12                     ; 0x2012 <printf+0x13>
    2c52: a2 00        	ldx	#$0
    2c54: 86 13        	stx	$13                     ; 0x2013 <printf+0x14>
    2c56: ae f3 5d     	ldx	$5df3                   ; 0x5df3 <end_block9+0x1>
    2c59: a9 fe        	lda	#$fe
    2c5b: 2d f2 5d     	and	$5df2                   ; 0x5df2 <end_block9>
    2c5e: 8d f2 5d     	sta	$5df2                   ; 0x5df2 <end_block9>
    2c61: 8e f3 5d     	stx	$5df3                   ; 0x5df3 <end_block9+0x1>
    2c64: a2 01        	ldx	#$1
    2c66: 8e ed 5d     	stx	$5ded                   ; 0x5ded <_ZN12_GLOBAL__N_19last_freeE>
    2c69: 8e ec 5d     	stx	$5dec                   ; 0x5dec <_ZN12_GLOBAL__N_111initializedE>
    2c6c: ae f0 5d     	ldx	$5df0                   ; 0x5df0 <_ZN12_GLOBAL__N_19free_listE>
    2c6f: 86 16        	stx	$16                     ; 0x2016 <printf+0x17>
    2c71: ac f1 5d     	ldy	$5df1                   ; 0x5df1 <_ZN12_GLOBAL__N_19free_listE+0x1>
    2c74: 84 17        	sty	$17                     ; 0x2017 <printf+0x18>
    2c76: a9 00        	lda	#$0
    2c78: 85 14        	sta	$14                     ; 0x2014 <printf+0x15>
    2c7a: a9 00        	lda	#$0
    2c7c: 85 15        	sta	$15                     ; 0x2015 <printf+0x16>
    2c7e: c4 15        	cpy	$15                     ; 0x2015 <printf+0x16>
    2c80: d0 07        	bne	$2c89 <malloc+0xa9>
    2c82: e4 14        	cpx	$14                     ; 0x2014 <printf+0x15>
    2c84: d0 03        	bne	$2c89 <malloc+0xa9>
    2c86: 4c e6 2c     	jmp	$2ce6 <malloc+0x106>
    2c89: a2 00        	ldx	#$0
    2c8b: a0 10        	ldy	#$10
    2c8d: 86 14        	stx	$14                     ; 0x2014 <printf+0x15>
    2c8f: 84 15        	sty	$15                     ; 0x2015 <printf+0x16>
    2c91: 18           	clc
    2c92: a9 f2        	lda	#$f2
    2c94: 65 14        	adc	$14                     ; 0x2014 <printf+0x15>
    2c96: 85 18        	sta	$18                     ; 0x2018 <printf+0x19>
    2c98: a9 5d        	lda	#$5d
    2c9a: 65 15        	adc	$15                     ; 0x2015 <printf+0x16>
    2c9c: 85 41        	sta	$41                     ; 0x2041 <printf+0x42>
    2c9e: a0 01        	ldy	#$1
    2ca0: a6 3d        	ldx	$3d                     ; 0x203d <printf+0x3e>
    2ca2: 86 19        	stx	$19                     ; 0x2019 <printf+0x1a>
    2ca4: a6 16        	ldx	$16                     ; 0x2016 <printf+0x17>
    2ca6: 86 14        	stx	$14                     ; 0x2014 <printf+0x15>
    2ca8: a6 17        	ldx	$17                     ; 0x2017 <printf+0x18>
    2caa: 86 15        	stx	$15                     ; 0x2015 <printf+0x16>
    2cac: b1 14        	lda	($14),y                 ; 0x2014 <printf+0x15>
    2cae: c5 19        	cmp	$19                     ; 0x2019 <printf+0x1a>
    2cb0: d0 0e        	bne	$2cc0 <malloc+0xe0>
    2cb2: b2 14        	lda	($14)                   ; 0x2014 <printf+0x15>
    2cb4: 29 fe        	and	#$fe
    2cb6: a6 3e        	ldx	$3e                     ; 0x203e <printf+0x3f>
    2cb8: 86 1a        	stx	$1a                     ; 0x201a <printf+0x1b>
    2cba: c5 1a        	cmp	$1a                     ; 0x201a <printf+0x1b>
    2cbc: b0 29        	bcs	$2ce7 <malloc+0x107>
    2cbe: 80 04        	bra	$2cc4 <malloc+0xe4>
    2cc0: c5 19        	cmp	$19                     ; 0x2019 <printf+0x1a>
    2cc2: b0 23        	bcs	$2ce7 <malloc+0x107>
    2cc4: a5 14        	lda	$14                     ; 0x2014 <printf+0x15>
    2cc6: 18           	clc
    2cc7: 69 02        	adc	#$2
    2cc9: 85 1a        	sta	$1a                     ; 0x201a <printf+0x1b>
    2ccb: a5 15        	lda	$15                     ; 0x2015 <printf+0x16>
    2ccd: 69 00        	adc	#$0
    2ccf: 85 1b        	sta	$1b                     ; 0x201b <printf+0x1c>
    2cd1: a0 02        	ldy	#$2
    2cd3: b1 14        	lda	($14),y                 ; 0x2014 <printf+0x15>
    2cd5: 85 14        	sta	$14                     ; 0x2014 <printf+0x15>
    2cd7: 88           	dey
    2cd8: b1 1a        	lda	($1a),y                 ; 0x201a <printf+0x1b>
    2cda: 85 15        	sta	$15                     ; 0x2015 <printf+0x16>
    2cdc: c5 17        	cmp	$17                     ; 0x2017 <printf+0x18>
    2cde: d0 cc        	bne	$2cac <malloc+0xcc>
    2ce0: a5 14        	lda	$14                     ; 0x2014 <printf+0x15>
    2ce2: c5 16        	cmp	$16                     ; 0x2016 <printf+0x17>
    2ce4: d0 c6        	bne	$2cac <malloc+0xcc>
    2ce6: 60           	rts
    2ce7: a6 18        	ldx	$18                     ; 0x2018 <printf+0x19>
    2ce9: 86 42        	stx	$42                     ; 0x2042 <printf+0x43>
    2ceb: a6 14        	ldx	$14                     ; 0x2014 <printf+0x15>
    2ced: 86 12        	stx	$12                     ; 0x2012 <printf+0x13>
    2cef: a6 15        	ldx	$15                     ; 0x2015 <printf+0x16>
    2cf1: 86 13        	stx	$13                     ; 0x2013 <printf+0x14>
    2cf3: a6 14        	ldx	$14                     ; 0x2014 <printf+0x15>
    2cf5: 86 3f        	stx	$3f                     ; 0x203f <printf+0x40>
    2cf7: a6 15        	ldx	$15                     ; 0x2015 <printf+0x16>
    2cf9: 86 40        	stx	$40                     ; 0x2040 <printf+0x41>
    2cfb: 20 50 04     	jsr	$450 <_ZN12_GLOBAL__N_19FreeChunk6removeEv>
    2cfe: a6 3f        	ldx	$3f                     ; 0x203f <printf+0x40>
    2d00: 86 12        	stx	$12                     ; 0x2012 <printf+0x13>
    2d02: a6 40        	ldx	$40                     ; 0x2040 <printf+0x41>
    2d04: 86 13        	stx	$13                     ; 0x2013 <printf+0x14>
    2d06: a0 01        	ldy	#$1
    2d08: b1 12        	lda	($12),y                 ; 0x2012 <printf+0x13>
    2d0a: 85 15        	sta	$15                     ; 0x2015 <printf+0x16>
    2d0c: a9 fe        	lda	#$fe
    2d0e: 32 12        	and	($12)                   ; 0x2012 <printf+0x13>
    2d10: 38           	sec
    2d11: a6 3e        	ldx	$3e                     ; 0x203e <printf+0x3f>
    2d13: 86 14        	stx	$14                     ; 0x2014 <printf+0x15>
    2d15: 85 17        	sta	$17                     ; 0x2017 <printf+0x18>
    2d17: e5 14        	sbc	$14                     ; 0x2014 <printf+0x15>
    2d19: a8           	tay
    2d1a: a6 3d        	ldx	$3d                     ; 0x203d <printf+0x3e>
    2d1c: 86 14        	stx	$14                     ; 0x2014 <printf+0x15>
    2d1e: a5 15        	lda	$15                     ; 0x2015 <printf+0x16>
    2d20: 85 16        	sta	$16                     ; 0x2016 <printf+0x17>
    2d22: e5 14        	sbc	$14                     ; 0x2014 <printf+0x15>
    2d24: d0 06        	bne	$2d2c <malloc+0x14c>
    2d26: 85 18        	sta	$18                     ; 0x2018 <printf+0x19>
    2d28: c0 08        	cpy	#$8
    2d2a: 80 04        	bra	$2d30 <malloc+0x150>
    2d2c: 85 18        	sta	$18                     ; 0x2018 <printf+0x19>
    2d2e: c9 00        	cmp	#$0
    2d30: a6 42        	ldx	$42                     ; 0x2042 <printf+0x43>
    2d32: 86 14        	stx	$14                     ; 0x2014 <printf+0x15>
    2d34: a6 41        	ldx	$41                     ; 0x2041 <printf+0x42>
    2d36: 86 15        	stx	$15                     ; 0x2015 <printf+0x16>
    2d38: a5 17        	lda	$17                     ; 0x2017 <printf+0x18>
    2d3a: 90 43        	bcc	$2d7f <malloc+0x19f>
    2d3c: 18           	clc
    2d3d: a6 3e        	ldx	$3e                     ; 0x203e <printf+0x3f>
    2d3f: 86 3e        	stx	$3e                     ; 0x203e <printf+0x3f>
    2d41: 8a           	txa
    2d42: 65 12        	adc	$12                     ; 0x2012 <printf+0x13>
    2d44: 85 12        	sta	$12                     ; 0x2012 <printf+0x13>
    2d46: a6 3d        	ldx	$3d                     ; 0x203d <printf+0x3e>
    2d48: 86 3d        	stx	$3d                     ; 0x203d <printf+0x3e>
    2d4a: a5 3d        	lda	$3d                     ; 0x203d <printf+0x3e>
    2d4c: 65 13        	adc	$13                     ; 0x2013 <printf+0x14>
    2d4e: 85 13        	sta	$13                     ; 0x2013 <printf+0x14>
    2d50: a6 18        	ldx	$18                     ; 0x2018 <printf+0x19>
    2d52: 98           	tya
    2d53: 20 16 03     	jsr	$316 <_ZN12_GLOBAL__N_19FreeChunk6insertEPvj>
    2d56: a6 3f        	ldx	$3f                     ; 0x203f <printf+0x40>
    2d58: 86 12        	stx	$12                     ; 0x2012 <printf+0x13>
    2d5a: a6 40        	ldx	$40                     ; 0x2040 <printf+0x41>
    2d5c: 86 13        	stx	$13                     ; 0x2013 <printf+0x14>
    2d5e: a5 3e        	lda	$3e                     ; 0x203e <printf+0x3f>
    2d60: 29 fe        	and	#$fe
    2d62: 85 14        	sta	$14                     ; 0x2014 <printf+0x15>
    2d64: a0 01        	ldy	#$1
    2d66: 98           	tya
    2d67: 32 12        	and	($12)                   ; 0x2012 <printf+0x13>
    2d69: 05 14        	ora	$14                     ; 0x2014 <printf+0x15>
    2d6b: 92 12        	sta	($12)                   ; 0x2012 <printf+0x13>
    2d6d: a5 3d        	lda	$3d                     ; 0x203d <printf+0x3e>
    2d6f: 91 12        	sta	($12),y                 ; 0x2012 <printf+0x13>
    2d71: a5 14        	lda	$14                     ; 0x2014 <printf+0x15>
    2d73: a6 3d        	ldx	$3d                     ; 0x203d <printf+0x3e>
    2d75: 86 16        	stx	$16                     ; 0x2016 <printf+0x17>
    2d77: a6 42        	ldx	$42                     ; 0x2042 <printf+0x43>
    2d79: 86 14        	stx	$14                     ; 0x2014 <printf+0x15>
    2d7b: a6 41        	ldx	$41                     ; 0x2041 <printf+0x42>
    2d7d: 86 15        	stx	$15                     ; 0x2015 <printf+0x16>
    2d7f: 18           	clc
    2d80: 65 12        	adc	$12                     ; 0x2012 <printf+0x13>
    2d82: a8           	tay
    2d83: a5 16        	lda	$16                     ; 0x2016 <printf+0x17>
    2d85: 65 13        	adc	$13                     ; 0x2013 <printf+0x14>
    2d87: c5 15        	cmp	$15                     ; 0x2015 <printf+0x16>
    2d89: d0 09        	bne	$2d94 <malloc+0x1b4>
    2d8b: c4 14        	cpy	$14                     ; 0x2014 <printf+0x15>
    2d8d: d0 05        	bne	$2d94 <malloc+0x1b4>
    2d8f: 9c ed 5d     	stz	$5ded                   ; 0x5ded <_ZN12_GLOBAL__N_19last_freeE>
    2d92: 80 14        	bra	$2da8 <malloc+0x1c8>
    2d94: 84 14        	sty	$14                     ; 0x2014 <printf+0x15>
    2d96: 85 15        	sta	$15                     ; 0x2015 <printf+0x16>
    2d98: a0 01        	ldy	#$1
    2d9a: b1 14        	lda	($14),y                 ; 0x2014 <printf+0x15>
    2d9c: 85 16        	sta	$16                     ; 0x2016 <printf+0x17>
    2d9e: a9 fe        	lda	#$fe
    2da0: 32 14        	and	($14)                   ; 0x2014 <printf+0x15>
    2da2: 92 14        	sta	($14)                   ; 0x2014 <printf+0x15>
    2da4: a5 16        	lda	$16                     ; 0x2016 <printf+0x17>
    2da6: 91 14        	sta	($14),y                 ; 0x2014 <printf+0x15>
    2da8: a5 12        	lda	$12                     ; 0x2012 <printf+0x13>
    2daa: 18           	clc
    2dab: 69 02        	adc	#$2
    2dad: 85 12        	sta	$12                     ; 0x2012 <printf+0x13>
    2daf: a5 13        	lda	$13                     ; 0x2013 <printf+0x14>
    2db1: 69 00        	adc	#$0
    2db3: 85 13        	sta	$13                     ; 0x2013 <printf+0x14>
    2db5: 60           	rts

00002db6 <free>:
    2db6: a6 12        	ldx	$12                     ; 0x2012 <printf+0x13>
    2db8: 86 14        	stx	$14                     ; 0x2014 <printf+0x15>
    2dba: a6 13        	ldx	$13                     ; 0x2013 <printf+0x14>
    2dbc: 86 15        	stx	$15                     ; 0x2015 <printf+0x16>
    2dbe: a2 00        	ldx	#$0
    2dc0: 86 12        	stx	$12                     ; 0x2012 <printf+0x13>
    2dc2: a2 00        	ldx	#$0
    2dc4: 86 13        	stx	$13                     ; 0x2013 <printf+0x14>
    2dc6: a6 15        	ldx	$15                     ; 0x2015 <printf+0x16>
    2dc8: e4 13        	cpx	$13                     ; 0x2013 <printf+0x14>
    2dca: d0 09        	bne	$2dd5 <free+0x1f>
    2dcc: a6 14        	ldx	$14                     ; 0x2014 <printf+0x15>
    2dce: e4 12        	cpx	$12                     ; 0x2012 <printf+0x13>
    2dd0: d0 03        	bne	$2dd5 <free+0x1f>
    2dd2: 4c 39 2f     	jmp	$2f39 <free+0x183>
    2dd5: a2 00        	ldx	#$0
    2dd7: a0 10        	ldy	#$10
    2dd9: a9 f2        	lda	#$f2
    2ddb: 86 12        	stx	$12                     ; 0x2012 <printf+0x13>
    2ddd: 84 13        	sty	$13                     ; 0x2013 <printf+0x14>
    2ddf: 18           	clc
    2de0: 65 12        	adc	$12                     ; 0x2012 <printf+0x13>
    2de2: 85 18        	sta	$18                     ; 0x2018 <printf+0x19>
    2de4: a9 5d        	lda	#$5d
    2de6: 65 13        	adc	$13                     ; 0x2013 <printf+0x14>
    2de8: 85 19        	sta	$19                     ; 0x2019 <printf+0x1a>
    2dea: a5 14        	lda	$14                     ; 0x2014 <printf+0x15>
    2dec: 18           	clc
    2ded: 69 fe        	adc	#$fe
    2def: 85 12        	sta	$12                     ; 0x2012 <printf+0x13>
    2df1: a5 15        	lda	$15                     ; 0x2015 <printf+0x16>
    2df3: 69 ff        	adc	#$ff
    2df5: a6 12        	ldx	$12                     ; 0x2012 <printf+0x13>
    2df7: 86 41        	stx	$41                     ; 0x2041 <printf+0x42>
    2df9: aa           	tax
    2dfa: 85 42        	sta	$42                     ; 0x2042 <printf+0x43>
    2dfc: b2 41        	lda	($41)                   ; 0x2041 <printf+0x42>
    2dfe: 85 1a        	sta	$1a                     ; 0x201a <printf+0x1b>
    2e00: a0 01        	ldy	#$1
    2e02: b1 41        	lda	($41),y                 ; 0x2041 <printf+0x42>
    2e04: 85 16        	sta	$16                     ; 0x2016 <printf+0x17>
    2e06: a9 fe        	lda	#$fe
    2e08: 32 41        	and	($41)                   ; 0x2041 <printf+0x42>
    2e0a: 85 17        	sta	$17                     ; 0x2017 <printf+0x18>
    2e0c: a4 12        	ldy	$12                     ; 0x2012 <printf+0x13>
    2e0e: 84 1b        	sty	$1b                     ; 0x201b <printf+0x1c>
    2e10: a5 12        	lda	$12                     ; 0x2012 <printf+0x13>
    2e12: 18           	clc
    2e13: 65 17        	adc	$17                     ; 0x2017 <printf+0x18>
    2e15: 85 12        	sta	$12                     ; 0x2012 <printf+0x13>
    2e17: 8a           	txa
    2e18: 86 1c        	stx	$1c                     ; 0x201c <printf+0x1d>
    2e1a: 65 16        	adc	$16                     ; 0x2016 <printf+0x17>
    2e1c: c5 19        	cmp	$19                     ; 0x2019 <printf+0x1a>
    2e1e: d0 10        	bne	$2e30 <free+0x7a>
    2e20: a6 12        	ldx	$12                     ; 0x2012 <printf+0x13>
    2e22: e4 18        	cpx	$18                     ; 0x2018 <printf+0x19>
    2e24: d0 0a        	bne	$2e30 <free+0x7a>
    2e26: a2 00        	ldx	#$0
    2e28: 86 12        	stx	$12                     ; 0x2012 <printf+0x13>
    2e2a: a2 00        	ldx	#$0
    2e2c: 86 13        	stx	$13                     ; 0x2013 <printf+0x14>
    2e2e: 80 02        	bra	$2e32 <free+0x7c>
    2e30: 85 13        	sta	$13                     ; 0x2013 <printf+0x14>
    2e32: a5 1a        	lda	$1a                     ; 0x201a <printf+0x1b>
    2e34: 29 01        	and	#$1
    2e36: d0 03        	bne	$2e3b <free+0x85>
    2e38: 4c b6 2e     	jmp	$2eb6 <free+0x100>
    2e3b: a5 14        	lda	$14                     ; 0x2014 <printf+0x15>
    2e3d: 18           	clc
    2e3e: 69 fc        	adc	#$fc
    2e40: 85 14        	sta	$14                     ; 0x2014 <printf+0x15>
    2e42: a5 15        	lda	$15                     ; 0x2015 <printf+0x16>
    2e44: 69 ff        	adc	#$ff
    2e46: 85 15        	sta	$15                     ; 0x2015 <printf+0x16>
    2e48: a0 01        	ldy	#$1
    2e4a: 38           	sec
    2e4b: a9 00        	lda	#$0
    2e4d: f2 14        	sbc	($14)                   ; 0x2014 <printf+0x15>
    2e4f: 85 1a        	sta	$1a                     ; 0x201a <printf+0x1b>
    2e51: a9 00        	lda	#$0
    2e53: f1 14        	sbc	($14),y                 ; 0x2014 <printf+0x15>
    2e55: 85 14        	sta	$14                     ; 0x2014 <printf+0x15>
    2e57: a5 1b        	lda	$1b                     ; 0x201b <printf+0x1c>
    2e59: 18           	clc
    2e5a: 65 1a        	adc	$1a                     ; 0x201a <printf+0x1b>
    2e5c: 85 41        	sta	$41                     ; 0x2041 <printf+0x42>
    2e5e: a5 1c        	lda	$1c                     ; 0x201c <printf+0x1d>
    2e60: 65 14        	adc	$14                     ; 0x2014 <printf+0x15>
    2e62: 85 42        	sta	$42                     ; 0x2042 <printf+0x43>
    2e64: b1 41        	lda	($41),y                 ; 0x2041 <printf+0x42>
    2e66: 85 49        	sta	$49                     ; 0x2049 <printf+0x4a>
    2e68: a9 fe        	lda	#$fe
    2e6a: 32 41        	and	($41)                   ; 0x2041 <printf+0x42>
    2e6c: 85 4a        	sta	$4a                     ; 0x204a <printf+0x4b>
    2e6e: a6 12        	ldx	$12                     ; 0x2012 <printf+0x13>
    2e70: 86 43        	stx	$43                     ; 0x2043 <printf+0x44>
    2e72: a6 13        	ldx	$13                     ; 0x2013 <printf+0x14>
    2e74: 86 44        	stx	$44                     ; 0x2044 <printf+0x45>
    2e76: a6 41        	ldx	$41                     ; 0x2041 <printf+0x42>
    2e78: 86 12        	stx	$12                     ; 0x2012 <printf+0x13>
    2e7a: a6 42        	ldx	$42                     ; 0x2042 <printf+0x43>
    2e7c: 86 13        	stx	$13                     ; 0x2013 <printf+0x14>
    2e7e: a6 16        	ldx	$16                     ; 0x2016 <printf+0x17>
    2e80: 86 45        	stx	$45                     ; 0x2045 <printf+0x46>
    2e82: a6 17        	ldx	$17                     ; 0x2017 <printf+0x18>
    2e84: 86 46        	stx	$46                     ; 0x2046 <printf+0x47>
    2e86: a6 18        	ldx	$18                     ; 0x2018 <printf+0x19>
    2e88: 86 47        	stx	$47                     ; 0x2047 <printf+0x48>
    2e8a: a6 19        	ldx	$19                     ; 0x2019 <printf+0x1a>
    2e8c: 86 48        	stx	$48                     ; 0x2048 <printf+0x49>
    2e8e: 20 50 04     	jsr	$450 <_ZN12_GLOBAL__N_19FreeChunk6removeEv>
    2e91: a6 48        	ldx	$48                     ; 0x2048 <printf+0x49>
    2e93: 86 19        	stx	$19                     ; 0x2019 <printf+0x1a>
    2e95: a6 47        	ldx	$47                     ; 0x2047 <printf+0x48>
    2e97: 86 18        	stx	$18                     ; 0x2018 <printf+0x19>
    2e99: a6 43        	ldx	$43                     ; 0x2043 <printf+0x44>
    2e9b: 86 12        	stx	$12                     ; 0x2012 <printf+0x13>
    2e9d: a6 44        	ldx	$44                     ; 0x2044 <printf+0x45>
    2e9f: 86 13        	stx	$13                     ; 0x2013 <printf+0x14>
    2ea1: 18           	clc
    2ea2: a5 4a        	lda	$4a                     ; 0x204a <printf+0x4b>
    2ea4: a6 46        	ldx	$46                     ; 0x2046 <printf+0x47>
    2ea6: 86 14        	stx	$14                     ; 0x2014 <printf+0x15>
    2ea8: 65 14        	adc	$14                     ; 0x2014 <printf+0x15>
    2eaa: 85 17        	sta	$17                     ; 0x2017 <printf+0x18>
    2eac: a5 49        	lda	$49                     ; 0x2049 <printf+0x4a>
    2eae: a6 45        	ldx	$45                     ; 0x2045 <printf+0x46>
    2eb0: 86 14        	stx	$14                     ; 0x2014 <printf+0x15>
    2eb2: 65 14        	adc	$14                     ; 0x2014 <printf+0x15>
    2eb4: 85 16        	sta	$16                     ; 0x2016 <printf+0x17>
    2eb6: a2 00        	ldx	#$0
    2eb8: 86 14        	stx	$14                     ; 0x2014 <printf+0x15>
    2eba: a2 00        	ldx	#$0
    2ebc: 86 15        	stx	$15                     ; 0x2015 <printf+0x16>
    2ebe: a6 13        	ldx	$13                     ; 0x2013 <printf+0x14>
    2ec0: e4 15        	cpx	$15                     ; 0x2015 <printf+0x16>
    2ec2: d0 0e        	bne	$2ed2 <free+0x11c>
    2ec4: a6 12        	ldx	$12                     ; 0x2012 <printf+0x13>
    2ec6: e4 14        	cpx	$14                     ; 0x2014 <printf+0x15>
    2ec8: d0 08        	bne	$2ed2 <free+0x11c>
    2eca: a2 01        	ldx	#$1
    2ecc: 8e ed 5d     	stx	$5ded                   ; 0x5ded <_ZN12_GLOBAL__N_19last_freeE>
    2ecf: 4c 2a 2f     	jmp	$2f2a <free+0x174>
    2ed2: a0 01        	ldy	#$1
    2ed4: b1 12        	lda	($12),y                 ; 0x2012 <printf+0x13>
    2ed6: a8           	tay
    2ed7: a9 fe        	lda	#$fe
    2ed9: 32 12        	and	($12)                   ; 0x2012 <printf+0x13>
    2edb: 18           	clc
    2edc: 85 47        	sta	$47                     ; 0x2047 <printf+0x48>
    2ede: 65 12        	adc	$12                     ; 0x2012 <printf+0x13>
    2ee0: 85 14        	sta	$14                     ; 0x2014 <printf+0x15>
    2ee2: 98           	tya
    2ee3: 85 43        	sta	$43                     ; 0x2043 <printf+0x44>
    2ee5: 65 13        	adc	$13                     ; 0x2013 <printf+0x14>
    2ee7: c5 19        	cmp	$19                     ; 0x2019 <printf+0x1a>
    2ee9: d0 0f        	bne	$2efa <free+0x144>
    2eeb: a6 14        	ldx	$14                     ; 0x2014 <printf+0x15>
    2eed: e4 18        	cpx	$18                     ; 0x2018 <printf+0x19>
    2eef: d0 09        	bne	$2efa <free+0x144>
    2ef1: a9 01        	lda	#$1
    2ef3: 64 14        	stz	$14                     ; 0x2014 <printf+0x15>
    2ef5: 2d ed 5d     	and	$5ded                   ; 0x5ded <_ZN12_GLOBAL__N_19last_freeE>
    2ef8: 80 08        	bra	$2f02 <free+0x14c>
    2efa: 85 15        	sta	$15                     ; 0x2015 <printf+0x16>
    2efc: a9 01        	lda	#$1
    2efe: 32 14        	and	($14)                   ; 0x2014 <printf+0x15>
    2f00: 64 14        	stz	$14                     ; 0x2014 <printf+0x15>
    2f02: a6 14        	ldx	$14                     ; 0x2014 <printf+0x15>
    2f04: d0 03        	bne	$2f09 <free+0x153>
    2f06: aa           	tax
    2f07: f0 31        	beq	$2f3a <free+0x184>
    2f09: a6 16        	ldx	$16                     ; 0x2016 <printf+0x17>
    2f0b: 86 45        	stx	$45                     ; 0x2045 <printf+0x46>
    2f0d: a6 17        	ldx	$17                     ; 0x2017 <printf+0x18>
    2f0f: 86 46        	stx	$46                     ; 0x2046 <printf+0x47>
    2f11: 20 50 04     	jsr	$450 <_ZN12_GLOBAL__N_19FreeChunk6removeEv>
    2f14: 18           	clc
    2f15: a6 47        	ldx	$47                     ; 0x2047 <printf+0x48>
    2f17: 8a           	txa
    2f18: a6 46        	ldx	$46                     ; 0x2046 <printf+0x47>
    2f1a: 86 12        	stx	$12                     ; 0x2012 <printf+0x13>
    2f1c: 65 12        	adc	$12                     ; 0x2012 <printf+0x13>
    2f1e: 85 17        	sta	$17                     ; 0x2017 <printf+0x18>
    2f20: a5 43        	lda	$43                     ; 0x2043 <printf+0x44>
    2f22: a6 45        	ldx	$45                     ; 0x2045 <printf+0x46>
    2f24: 86 12        	stx	$12                     ; 0x2012 <printf+0x13>
    2f26: 65 12        	adc	$12                     ; 0x2012 <printf+0x13>
    2f28: 85 16        	sta	$16                     ; 0x2016 <printf+0x17>
    2f2a: a6 41        	ldx	$41                     ; 0x2041 <printf+0x42>
    2f2c: 86 12        	stx	$12                     ; 0x2012 <printf+0x13>
    2f2e: a6 42        	ldx	$42                     ; 0x2042 <printf+0x43>
    2f30: 86 13        	stx	$13                     ; 0x2013 <printf+0x14>
    2f32: a6 16        	ldx	$16                     ; 0x2016 <printf+0x17>
    2f34: a5 17        	lda	$17                     ; 0x2017 <printf+0x18>
    2f36: 20 16 03     	jsr	$316 <_ZN12_GLOBAL__N_19FreeChunk6insertEPvj>
    2f39: 60           	rts
    2f3a: b2 12        	lda	($12)                   ; 0x2012 <printf+0x13>
    2f3c: 09 01        	ora	#$1
    2f3e: 92 12        	sta	($12)                   ; 0x2012 <printf+0x13>
    2f40: a0 01        	ldy	#$1
    2f42: a5 43        	lda	$43                     ; 0x2043 <printf+0x44>
    2f44: 91 12        	sta	($12),y                 ; 0x2012 <printf+0x13>
    2f46: 80 e2        	bra	$2f2a <free+0x174>

00002f48 <memcpy>:
    2f48: a8           	tay
    2f49: 8a           	txa
    2f4a: d0 03        	bne	$2f4f <memcpy+0x7>
    2f4c: 98           	tya
    2f4d: f0 24        	beq	$2f73 <memcpy+0x2b>
    2f4f: a5 12        	lda	$12                     ; 0x2012 <printf+0x13>
    2f51: 85 16        	sta	$16                     ; 0x2016 <printf+0x17>
    2f53: a5 13        	lda	$13                     ; 0x2013 <printf+0x14>
    2f55: 85 17        	sta	$17                     ; 0x2017 <printf+0x18>
    2f57: b2 14        	lda	($14)                   ; 0x2014 <printf+0x15>
    2f59: 92 16        	sta	($16)                   ; 0x2016 <printf+0x17>
    2f5b: e6 16        	inc	$16                     ; 0x2016 <printf+0x17>
    2f5d: d0 02        	bne	$2f61 <memcpy+0x19>
    2f5f: e6 17        	inc	$17                     ; 0x2017 <printf+0x18>
    2f61: e6 14        	inc	$14                     ; 0x2014 <printf+0x15>
    2f63: d0 02        	bne	$2f67 <memcpy+0x1f>
    2f65: e6 15        	inc	$15                     ; 0x2015 <printf+0x16>
    2f67: 88           	dey
    2f68: c0 ff        	cpy	#$ff
    2f6a: d0 01        	bne	$2f6d <memcpy+0x25>
    2f6c: ca           	dex
    2f6d: 8a           	txa
    2f6e: d0 e7        	bne	$2f57 <memcpy+0xf>
    2f70: 98           	tya
    2f71: d0 e4        	bne	$2f57 <memcpy+0xf>
    2f73: 60           	rts

00002f74 <__memset>:
    2f74: a4 14        	ldy	$14                     ; 0x2014 <printf+0x15>
    2f76: d0 04        	bne	$2f7c <__memset+0x8>
    2f78: e0 00        	cpx	#$0
    2f7a: f0 17        	beq	$2f93 <__memset+0x1f>
    2f7c: 92 12        	sta	($12)                   ; 0x2012 <printf+0x13>
    2f7e: e6 12        	inc	$12                     ; 0x2012 <printf+0x13>
    2f80: d0 02        	bne	$2f84 <__memset+0x10>
    2f82: e6 13        	inc	$13                     ; 0x2013 <printf+0x14>
    2f84: ca           	dex
    2f85: e0 ff        	cpx	#$ff
    2f87: d0 02        	bne	$2f8b <__memset+0x17>
    2f89: c6 14        	dec	$14                     ; 0x2014 <printf+0x15>
    2f8b: a4 14        	ldy	$14                     ; 0x2014 <printf+0x15>
    2f8d: d0 ed        	bne	$2f7c <__memset+0x8>
    2f8f: e0 00        	cpx	#$0
    2f91: d0 e9        	bne	$2f7c <__memset+0x8>
    2f93: 60           	rts

00002f94 <strlen>:
    2f94: b2 12        	lda	($12)                   ; 0x2012 <printf+0x13>
    2f96: f0 2e        	beq	$2fc6 <strlen+0x32>
    2f98: 64 15        	stz	$15                     ; 0x2015 <printf+0x16>
    2f9a: a0 01        	ldy	#$1
    2f9c: a9 00        	lda	#$0
    2f9e: 64 14        	stz	$14                     ; 0x2014 <printf+0x15>
    2fa0: aa           	tax
    2fa1: e6 14        	inc	$14                     ; 0x2014 <printf+0x15>
    2fa3: d0 01        	bne	$2fa6 <strlen+0x12>
    2fa5: e8           	inx
    2fa6: 18           	clc
    2fa7: 85 17        	sta	$17                     ; 0x2017 <printf+0x18>
    2fa9: a5 15        	lda	$15                     ; 0x2015 <printf+0x16>
    2fab: 65 12        	adc	$12                     ; 0x2012 <printf+0x13>
    2fad: 85 16        	sta	$16                     ; 0x2016 <printf+0x17>
    2faf: a5 17        	lda	$17                     ; 0x2017 <printf+0x18>
    2fb1: 65 13        	adc	$13                     ; 0x2013 <printf+0x14>
    2fb3: 85 17        	sta	$17                     ; 0x2017 <printf+0x18>
    2fb5: b1 16        	lda	($16),y                 ; 0x2016 <printf+0x17>
    2fb7: 85 16        	sta	$16                     ; 0x2016 <printf+0x17>
    2fb9: a5 14        	lda	$14                     ; 0x2014 <printf+0x15>
    2fbb: 85 15        	sta	$15                     ; 0x2015 <printf+0x16>
    2fbd: 8a           	txa
    2fbe: e6 16        	inc	$16                     ; 0x2016 <printf+0x17>
    2fc0: c6 16        	dec	$16                     ; 0x2016 <printf+0x17>
    2fc2: d0 dd        	bne	$2fa1 <strlen+0xd>
    2fc4: 80 04        	bra	$2fca <strlen+0x36>
    2fc6: 64 14        	stz	$14                     ; 0x2014 <printf+0x15>
    2fc8: a2 00        	ldx	#$0
    2fca: a5 14        	lda	$14                     ; 0x2014 <printf+0x15>
    2fcc: 60           	rts
