
mp3wSA.elf:	file format elf32-mos

SYMBOL TABLE:
00000000 l    df *ABS*	00000000 zero-bss.c
00000000 l    df *ABS*	00000000 zero-zp-bss.c
00000000 l    df *ABS*	00000000 ld-temp.o
00000475 l     F .text	00000380 f256Init
00000037 l     O .zp.bss	00000007 kernelEventData
00002148 l     O .rodata	00000030 textColors
00000030 l     O .zp.bss	00000001 _col
00000031 l     O .zp.bss	00000001 _row
00000036 l     O .zp.bss	00000001 kernelError
000007fb l     F .text	00000379 f256main
00001108 l     F .text	00000bb6 printf
00001fc1 l     F .text	00000005 strlen
00000034 l     O .zp.bss	00000002 theMP3file
00000b74 l     F .text	00000131 fileRead
00000e5d l     F .text	000000bb textPrintUInt
00000ca5 l     F .text	000001b8 textPrint
00001cbe l     F .text	000002b7 malloc
00001fc6 l     F .text	00000147 __umodsi3
00000f18 l     F .text	0000000d __putchar
00000032 l     O .zp.bss	00000002 __putchar.s
00000f2a l     F .text	000000d1 _ZN12_GLOBAL__N_13putEcP6Status
00000ffb l     F .text	0000010d _ZN12_GLOBAL__N_112print_stringEPKcP6Status
0000226e l     O .bss	00000001 _ZN12_GLOBAL__N_111initializedE
00000316 l     F .text	00000139 _ZN12_GLOBAL__N_19FreeChunk6insertEPvj
00002271 l     O .bss	00000002 _ZN12_GLOBAL__N_19free_listE
0000226f l     O .bss	00000002 _ZN12_GLOBAL__N_19free_sizeE
000007f5 g     F .text	00000006 main
00000311 g       .text	00000000 __after_main
00000300 g       .text	00000000 __do_init_stack
00000308 g       .text	00000000 __do_zero_bss
0000044f g     F .text	00000013 __zero_bss
0000030b g       .text	00000000 __do_zero_zp_bss
00000462 g     F .text	00000013 __zero_zp_bss
00000f25 g     F .text	00000005 exit
00000314 g       .text	00000000 _fini
0000210d g       .rodata	00000000 __set_v
00001fa1  w    F .text	00000020 __memset
00001000  w      *ABS*	00000000 __heap_default_limit
00004274 g       .noinit	00000000 __heap_start
00001f75  w    F .text	0000002c memcpy
00000010 g       *ABS*	00000000 __rc0
00000012 g       *ABS*	00000000 __rc2
00000014 g       *ABS*	00000000 __rc4
00000016 g       *ABS*	00000000 __rc6
00000018 g       *ABS*	00000000 __rc8
0000001a g       *ABS*	00000000 __rc10
0000001c g       *ABS*	00000000 __rc12
0000001e g       *ABS*	00000000 __rc14
00000020 g       *ABS*	00000000 __rc16
00000022 g       *ABS*	00000000 __rc18
00000024 g       *ABS*	00000000 __rc20
00000026 g       *ABS*	00000000 __rc22
00000028 g       *ABS*	00000000 __rc24
0000002a g       *ABS*	00000000 __rc26
0000002c g       *ABS*	00000000 __rc28
0000002e g       *ABS*	00000000 __rc30
0000002f g       *ABS*	00000000 __rc31
00000300 g       *ABS*	00000000 __f256_start
0000a000 g       *ABS*	00000000 __stack
0000a000 g       *ABS*	00000000 __SLOT_ADDR
0800a000 g       *ABS*	00000000 __block8_lma
00002000 g       *ABS*	00000000 __BLOCK_SIZE
0900a000 g       *ABS*	00000000 __block9_lma
0a00a000 g       *ABS*	00000000 __block10_lma
0b00a000 g       *ABS*	00000000 __block11_lma
0c00a000 g       *ABS*	00000000 __block12_lma
0d00a000 g       *ABS*	00000000 __block13_lma
0e00a000 g       *ABS*	00000000 __block14_lma
0f00a000 g       *ABS*	00000000 __block15_lma
1000a000 g       *ABS*	00000000 __block16_lma
1100a000 g       *ABS*	00000000 __block17_lma
1200a000 g       *ABS*	00000000 __block18_lma
1300a000 g       *ABS*	00000000 __block19_lma
1400a000 g       *ABS*	00000000 __block20_lma
1500a000 g       *ABS*	00000000 __block21_lma
1600a000 g       *ABS*	00000000 __block22_lma
1700a000 g       *ABS*	00000000 __block23_lma
0000226e g       .bss	00000000 __bss_start
00000300 g       .text	00000000 _start
0000002d g       *ABS*	00000000 __rc29
0000002b g       *ABS*	00000000 __rc27
00000029 g       *ABS*	00000000 __rc25
00000027 g       *ABS*	00000000 __rc23
00000025 g       *ABS*	00000000 __rc21
00000023 g       *ABS*	00000000 __rc19
00000021 g       *ABS*	00000000 __rc17
0000001f g       *ABS*	00000000 __rc15
0000001d g       *ABS*	00000000 __rc13
0000001b g       *ABS*	00000000 __rc11
00000019 g       *ABS*	00000000 __rc9
00000017 g       *ABS*	00000000 __rc7
00000015 g       *ABS*	00000000 __rc5
00000013 g       *ABS*	00000000 __rc3
00000011 g       *ABS*	00000000 __rc1
00000030 g       .zp.data	00000000 __zp_data_start
00000300 g       *ABS*	00000000 __zp_data_load_start
00000000 g       *ABS*	00000000 __zp_data_size
00000030 g       .zp.bss	00000000 __zp_bss_start
0000000e g       *ABS*	00000000 __zp_bss_size
00000300 g       .text	00000000 _init
0000210d g       .text	00000000 __init_array_start
0000210d g       .text	00000000 __init_array_end
0000210d g       .text	00000000 __fini_array_start
0000210d g       .text	00000000 __fini_array_end
0000226e g       .data	00000000 __data_start
0000226e g       .data	00000000 __data_end
0000226e g       *ABS*	00000000 __data_load_start
00000000 g       *ABS*	00000000 __data_size
00002273 g       .bss	00000000 __bss_end
00000005 g       *ABS*	00000000 __bss_size
00004273 g       .noinit	00000000 end_block8
00004273 g       .noinit	00000000 end_block9
00004273 g       .noinit	00000000 end_block10
00004273 g       .noinit	00000000 end_block11
00004273 g       .noinit	00000000 end_block12
00004273 g       .noinit	00000000 end_block13
00004273 g       .noinit	00000000 end_block14
00004273 g       .noinit	00000000 end_block15
00004273 g       .noinit	00000000 end_block16
00004273 g       .noinit	00000000 end_block17
00004273 g       .noinit	00000000 end_block18
00004273 g       .noinit	00000000 end_block19
00004273 g       .noinit	00000000 end_block20
00004273 g       .noinit	00000000 end_block21
00004273 g       .noinit	00000000 end_block22
00004273 g       .noinit	00000000 end_block23

Disassembly of section .text:

00000300 <_start>:
     300: a9 00        	lda	#$0
     302: 85 10        	sta	$10                     ; 0x2010 <__umodsi3+0x4a>
     304: a9 a0        	lda	#$a0
     306: 85 11        	sta	$11                     ; 0x2011 <__umodsi3+0x4b>

00000308 <__do_zero_bss>:
     308: 20 4f 04     	jsr	$44f <__zero_bss>

0000030b <__do_zero_zp_bss>:
     30b: 20 62 04     	jsr	$462 <__zero_zp_bss>
     30e: 20 f5 07     	jsr	$7f5 <main>

00000311 <__after_main>:
     311: 4c 25 0f     	jmp	$f25 <exit>

00000314 <_fini>:
     314: 60           	rts
     315: 00           	brk

00000316 <_ZN12_GLOBAL__N_19FreeChunk6insertEPvj>:
     316: 85 16        	sta	$16                     ; 0x2016 <__umodsi3+0x50>
     318: 29 fe        	and	#$fe
     31a: 85 14        	sta	$14                     ; 0x2014 <__umodsi3+0x4e>
     31c: a0 01        	ldy	#$1
     31e: 98           	tya
     31f: 32 12        	and	($12)                   ; 0x2012 <__umodsi3+0x4c>
     321: 05 14        	ora	$14                     ; 0x2014 <__umodsi3+0x4e>
     323: 92 12        	sta	($12)                   ; 0x2012 <__umodsi3+0x4c>
     325: a5 12        	lda	$12                     ; 0x2012 <__umodsi3+0x4c>
     327: 18           	clc
     328: 65 14        	adc	$14                     ; 0x2014 <__umodsi3+0x4e>
     32a: 85 15        	sta	$15                     ; 0x2015 <__umodsi3+0x4f>
     32c: 8a           	txa
     32d: 65 13        	adc	$13                     ; 0x2013 <__umodsi3+0x4d>
     32f: 85 14        	sta	$14                     ; 0x2014 <__umodsi3+0x4e>
     331: 18           	clc
     332: a5 15        	lda	$15                     ; 0x2015 <__umodsi3+0x4f>
     334: 69 fe        	adc	#$fe
     336: 85 17        	sta	$17                     ; 0x2017 <__umodsi3+0x51>
     338: a5 14        	lda	$14                     ; 0x2014 <__umodsi3+0x4e>
     33a: 69 ff        	adc	#$ff
     33c: 85 15        	sta	$15                     ; 0x2015 <__umodsi3+0x4f>
     33e: a5 17        	lda	$17                     ; 0x2017 <__umodsi3+0x51>
     340: 85 14        	sta	$14                     ; 0x2014 <__umodsi3+0x4e>
     342: 8a           	txa
     343: 91 12        	sta	($12),y                 ; 0x2012 <__umodsi3+0x4c>
     345: a5 16        	lda	$16                     ; 0x2016 <__umodsi3+0x50>
     347: 92 14        	sta	($14)                   ; 0x2014 <__umodsi3+0x4e>
     349: 8a           	txa
     34a: 91 14        	sta	($14),y                 ; 0x2014 <__umodsi3+0x4e>
     34c: b1 12        	lda	($12),y                 ; 0x2012 <__umodsi3+0x4c>
     34e: 85 14        	sta	$14                     ; 0x2014 <__umodsi3+0x4e>
     350: a9 fe        	lda	#$fe
     352: 32 12        	and	($12)                   ; 0x2012 <__umodsi3+0x4c>
     354: 18           	clc
     355: 6d 6f 22     	adc	$226f                   ; 0x226f <_ZN12_GLOBAL__N_19free_sizeE>
     358: aa           	tax
     359: a5 14        	lda	$14                     ; 0x2014 <__umodsi3+0x4e>
     35b: 6d 70 22     	adc	$2270                   ; 0x2270 <_ZN12_GLOBAL__N_19free_sizeE+0x1>
     35e: a8           	tay
     35f: 18           	clc
     360: 8a           	txa
     361: 69 fe        	adc	#$fe
     363: aa           	tax
     364: 98           	tya
     365: 69 ff        	adc	#$ff
     367: 8e 6f 22     	stx	$226f                   ; 0x226f <_ZN12_GLOBAL__N_19free_sizeE>
     36a: 8d 70 22     	sta	$2270                   ; 0x2270 <_ZN12_GLOBAL__N_19free_sizeE+0x1>
     36d: ae 71 22     	ldx	$2271                   ; 0x2271 <_ZN12_GLOBAL__N_19free_listE>
     370: 86 16        	stx	$16                     ; 0x2016 <__umodsi3+0x50>
     372: ac 72 22     	ldy	$2272                   ; 0x2272 <_ZN12_GLOBAL__N_19free_listE+0x1>
     375: a2 00        	ldx	#$0
     377: 86 14        	stx	$14                     ; 0x2014 <__umodsi3+0x4e>
     379: a2 00        	ldx	#$0
     37b: 86 15        	stx	$15                     ; 0x2015 <__umodsi3+0x4f>
     37d: 84 18        	sty	$18                     ; 0x2018 <__umodsi3+0x52>
     37f: c4 15        	cpy	$15                     ; 0x2015 <__umodsi3+0x4f>
     381: d0 31        	bne	$3b4 <_ZN12_GLOBAL__N_19FreeChunk6insertEPvj+0x9e>
     383: a6 16        	ldx	$16                     ; 0x2016 <__umodsi3+0x50>
     385: e4 14        	cpx	$14                     ; 0x2014 <__umodsi3+0x4e>
     387: d0 2b        	bne	$3b4 <_ZN12_GLOBAL__N_19FreeChunk6insertEPvj+0x9e>
     389: a0 02        	ldy	#$2
     38b: 18           	clc
     38c: a5 12        	lda	$12                     ; 0x2012 <__umodsi3+0x4c>
     38e: 69 02        	adc	#$2
     390: 85 14        	sta	$14                     ; 0x2014 <__umodsi3+0x4e>
     392: a5 12        	lda	$12                     ; 0x2012 <__umodsi3+0x4c>
     394: 91 12        	sta	($12),y                 ; 0x2012 <__umodsi3+0x4c>
     396: a5 13        	lda	$13                     ; 0x2013 <__umodsi3+0x4d>
     398: 69 00        	adc	#$0
     39a: 85 15        	sta	$15                     ; 0x2015 <__umodsi3+0x4f>
     39c: 88           	dey
     39d: a5 13        	lda	$13                     ; 0x2013 <__umodsi3+0x4d>
     39f: 91 14        	sta	($14),y                 ; 0x2014 <__umodsi3+0x4e>
     3a1: a2 71        	ldx	#$71
     3a3: 86 16        	stx	$16                     ; 0x2016 <__umodsi3+0x50>
     3a5: a2 22        	ldx	#$22
     3a7: 86 17        	stx	$17                     ; 0x2017 <__umodsi3+0x51>
     3a9: a6 12        	ldx	$12                     ; 0x2012 <__umodsi3+0x4c>
     3ab: 86 14        	stx	$14                     ; 0x2014 <__umodsi3+0x4e>
     3ad: a6 13        	ldx	$13                     ; 0x2013 <__umodsi3+0x4d>
     3af: 86 15        	stx	$15                     ; 0x2015 <__umodsi3+0x4f>
     3b1: 4c 2d 04     	jmp	$42d <_ZN12_GLOBAL__N_19FreeChunk6insertEPvj+0x117>
     3b4: a5 12        	lda	$12                     ; 0x2012 <__umodsi3+0x4c>
     3b6: 18           	clc
     3b7: 69 02        	adc	#$2
     3b9: 85 14        	sta	$14                     ; 0x2014 <__umodsi3+0x4e>
     3bb: a4 13        	ldy	$13                     ; 0x2013 <__umodsi3+0x4d>
     3bd: a6 16        	ldx	$16                     ; 0x2016 <__umodsi3+0x50>
     3bf: 86 19        	stx	$19                     ; 0x2019 <__umodsi3+0x53>
     3c1: a5 13        	lda	$13                     ; 0x2013 <__umodsi3+0x4d>
     3c3: 84 1a        	sty	$1a                     ; 0x201a <__umodsi3+0x54>
     3c5: 69 00        	adc	#$0
     3c7: a6 14        	ldx	$14                     ; 0x2014 <__umodsi3+0x4e>
     3c9: 86 16        	stx	$16                     ; 0x2016 <__umodsi3+0x50>
     3cb: 85 17        	sta	$17                     ; 0x2017 <__umodsi3+0x51>
     3cd: a6 19        	ldx	$19                     ; 0x2019 <__umodsi3+0x53>
     3cf: 86 14        	stx	$14                     ; 0x2014 <__umodsi3+0x4e>
     3d1: a4 18        	ldy	$18                     ; 0x2018 <__umodsi3+0x52>
     3d3: 84 15        	sty	$15                     ; 0x2015 <__umodsi3+0x4f>
     3d5: 84 1b        	sty	$1b                     ; 0x201b <__umodsi3+0x55>
     3d7: a0 02        	ldy	#$2
     3d9: a5 19        	lda	$19                     ; 0x2019 <__umodsi3+0x53>
     3db: 91 12        	sta	($12),y                 ; 0x2012 <__umodsi3+0x4c>
     3dd: 88           	dey
     3de: a5 1b        	lda	$1b                     ; 0x201b <__umodsi3+0x55>
     3e0: 91 16        	sta	($16),y                 ; 0x2016 <__umodsi3+0x50>
     3e2: 18           	clc
     3e3: a5 19        	lda	$19                     ; 0x2019 <__umodsi3+0x53>
     3e5: 69 04        	adc	#$4
     3e7: 85 18        	sta	$18                     ; 0x2018 <__umodsi3+0x52>
     3e9: a5 1b        	lda	$1b                     ; 0x201b <__umodsi3+0x55>
     3eb: 69 00        	adc	#$0
     3ed: 85 19        	sta	$19                     ; 0x2019 <__umodsi3+0x53>
     3ef: a0 04        	ldy	#$4
     3f1: b1 14        	lda	($14),y                 ; 0x2014 <__umodsi3+0x4e>
     3f3: 85 14        	sta	$14                     ; 0x2014 <__umodsi3+0x4e>
     3f5: 85 1b        	sta	$1b                     ; 0x201b <__umodsi3+0x55>
     3f7: a0 01        	ldy	#$1
     3f9: b1 18        	lda	($18),y                 ; 0x2018 <__umodsi3+0x52>
     3fb: 85 15        	sta	$15                     ; 0x2015 <__umodsi3+0x4f>
     3fd: a8           	tay
     3fe: 18           	clc
     3ff: a5 1b        	lda	$1b                     ; 0x201b <__umodsi3+0x55>
     401: 69 02        	adc	#$2
     403: 85 18        	sta	$18                     ; 0x2018 <__umodsi3+0x52>
     405: 98           	tya
     406: 69 00        	adc	#$0
     408: 85 19        	sta	$19                     ; 0x2019 <__umodsi3+0x53>
     40a: a5 12        	lda	$12                     ; 0x2012 <__umodsi3+0x4c>
     40c: a0 02        	ldy	#$2
     40e: 91 14        	sta	($14),y                 ; 0x2014 <__umodsi3+0x4e>
     410: a5 1a        	lda	$1a                     ; 0x201a <__umodsi3+0x54>
     412: 88           	dey
     413: 91 18        	sta	($18),y                 ; 0x2018 <__umodsi3+0x52>
     415: c8           	iny
     416: b1 12        	lda	($12),y                 ; 0x2012 <__umodsi3+0x4c>
     418: 85 18        	sta	$18                     ; 0x2018 <__umodsi3+0x52>
     41a: 88           	dey
     41b: b1 16        	lda	($16),y                 ; 0x2016 <__umodsi3+0x50>
     41d: 85 16        	sta	$16                     ; 0x2016 <__umodsi3+0x50>
     41f: 18           	clc
     420: a5 18        	lda	$18                     ; 0x2018 <__umodsi3+0x52>
     422: 69 04        	adc	#$4
     424: aa           	tax
     425: a5 16        	lda	$16                     ; 0x2016 <__umodsi3+0x50>
     427: 69 00        	adc	#$0
     429: 86 16        	stx	$16                     ; 0x2016 <__umodsi3+0x50>
     42b: 85 17        	sta	$17                     ; 0x2017 <__umodsi3+0x51>
     42d: 18           	clc
     42e: a5 12        	lda	$12                     ; 0x2012 <__umodsi3+0x4c>
     430: 69 04        	adc	#$4
     432: 85 18        	sta	$18                     ; 0x2018 <__umodsi3+0x52>
     434: a5 13        	lda	$13                     ; 0x2013 <__umodsi3+0x4d>
     436: 69 00        	adc	#$0
     438: a0 04        	ldy	#$4
     43a: 85 19        	sta	$19                     ; 0x2019 <__umodsi3+0x53>
     43c: a5 14        	lda	$14                     ; 0x2014 <__umodsi3+0x4e>
     43e: 91 12        	sta	($12),y                 ; 0x2012 <__umodsi3+0x4c>
     440: a5 15        	lda	$15                     ; 0x2015 <__umodsi3+0x4f>
     442: a0 01        	ldy	#$1
     444: 91 18        	sta	($18),y                 ; 0x2018 <__umodsi3+0x52>
     446: a5 13        	lda	$13                     ; 0x2013 <__umodsi3+0x4d>
     448: 91 16        	sta	($16),y                 ; 0x2016 <__umodsi3+0x50>
     44a: a5 12        	lda	$12                     ; 0x2012 <__umodsi3+0x4c>
     44c: 92 16        	sta	($16)                   ; 0x2016 <__umodsi3+0x50>
     44e: 60           	rts

0000044f <__zero_bss>:
     44f: a2 05        	ldx	#$5
     451: a0 00        	ldy	#$0
     453: a9 6e        	lda	#$6e
     455: 85 12        	sta	$12                     ; 0x2012 <__umodsi3+0x4c>
     457: a9 22        	lda	#$22
     459: 85 13        	sta	$13                     ; 0x2013 <__umodsi3+0x4d>
     45b: a9 00        	lda	#$0
     45d: 84 14        	sty	$14                     ; 0x2014 <__umodsi3+0x4e>
     45f: 4c a1 1f     	jmp	$1fa1 <__memset>

00000462 <__zero_zp_bss>:
     462: a2 0e        	ldx	#$e
     464: a0 00        	ldy	#$0
     466: a9 30        	lda	#$30
     468: 85 12        	sta	$12                     ; 0x2012 <__umodsi3+0x4c>
     46a: a9 00        	lda	#$0
     46c: 85 13        	sta	$13                     ; 0x2013 <__umodsi3+0x4d>
     46e: a9 00        	lda	#$0
     470: 84 14        	sty	$14                     ; 0x2014 <__umodsi3+0x4e>
     472: 4c a1 1f     	jmp	$1fa1 <__memset>

00000475 <f256Init>:
     475: 64 14        	stz	$14                     ; 0x2014 <__umodsi3+0x4e>
     477: a2 00        	ldx	#$0
     479: 86 12        	stx	$12                     ; 0x2012 <__umodsi3+0x4c>
     47b: a2 c0        	ldx	#$c0
     47d: 86 13        	stx	$13                     ; 0x2013 <__umodsi3+0x4d>
     47f: 64 01        	stz	$1                      ; 0x2001 <__umodsi3+0x3b>
     481: a2 3f        	ldx	#$3f
     483: 8e 00 d0     	stx	$d000                   ; 0xd000 <__heap_start+0x8d8c>
     486: a2 b3        	ldx	#$b3
     488: 86 00        	stx	$0                      ; 0x2000 <__umodsi3+0x3a>
     48a: 64 08        	stz	$8                      ; 0x2008 <__umodsi3+0x42>
     48c: a2 01        	ldx	#$1
     48e: 86 09        	stx	$9                      ; 0x2009 <__umodsi3+0x43>
     490: e8           	inx
     491: 86 0a        	stx	$a                      ; 0x200a <__umodsi3+0x44>
     493: e8           	inx
     494: 86 0b        	stx	$b                      ; 0x200b <__umodsi3+0x45>
     496: e8           	inx
     497: 86 0c        	stx	$c                      ; 0x200c <__umodsi3+0x46>
     499: e8           	inx
     49a: 86 0d        	stx	$d                      ; 0x200d <__umodsi3+0x47>
     49c: a2 37        	ldx	#$37
     49e: a0 00        	ldy	#$0
     4a0: 86 f0        	stx	$f0                     ; 0x20f0 <__umodsi3+0x12a>
     4a2: 84 f1        	sty	$f1                     ; 0x20f1 <__umodsi3+0x12b>
     4a4: a2 00        	ldx	#$0
     4a6: 86 18        	stx	$18                     ; 0x2018 <__umodsi3+0x52>
     4a8: ca           	dex
     4a9: 86 19        	stx	$19                     ; 0x2019 <__umodsi3+0x53>
     4ab: 8a           	txa
     4ac: 0a           	asl
     4ad: 0a           	asl
     4ae: 18           	clc
     4af: 69 d4        	adc	#$d4
     4b1: 85 1a        	sta	$1a                     ; 0x201a <__umodsi3+0x54>
     4b3: a0 00        	ldy	#$0
     4b5: 64 17        	stz	$17                     ; 0x2017 <__umodsi3+0x51>
     4b7: 64 16        	stz	$16                     ; 0x2016 <__umodsi3+0x50>
     4b9: a6 19        	ldx	$19                     ; 0x2019 <__umodsi3+0x53>
     4bb: e0 03        	cpx	#$3
     4bd: a6 01        	ldx	$1                      ; 0x2001 <__umodsi3+0x3b>
     4bf: 86 1c        	stx	$1c                     ; 0x201c <__umodsi3+0x56>
     4c1: a2 d0        	ldx	#$d0
     4c3: 84 1b        	sty	$1b                     ; 0x201b <__umodsi3+0x55>
     4c5: b0 02        	bcs	$4c9 <f256Init+0x54>
     4c7: a6 1a        	ldx	$1a                     ; 0x201a <__umodsi3+0x54>
     4c9: 86 15        	stx	$15                     ; 0x2015 <__umodsi3+0x4f>
     4cb: a5 17        	lda	$17                     ; 0x2017 <__umodsi3+0x51>
     4cd: 18           	clc
     4ce: 65 14        	adc	$14                     ; 0x2014 <__umodsi3+0x4e>
     4d0: a8           	tay
     4d1: a6 17        	ldx	$17                     ; 0x2017 <__umodsi3+0x51>
     4d3: a5 16        	lda	$16                     ; 0x2016 <__umodsi3+0x50>
     4d5: 85 1d        	sta	$1d                     ; 0x201d <__umodsi3+0x57>
     4d7: a5 16        	lda	$16                     ; 0x2016 <__umodsi3+0x50>
     4d9: 65 15        	adc	$15                     ; 0x2015 <__umodsi3+0x4f>
     4db: 84 16        	sty	$16                     ; 0x2016 <__umodsi3+0x50>
     4dd: a0 01        	ldy	#$1
     4df: 84 01        	sty	$1                      ; 0x2001 <__umodsi3+0x3b>
     4e1: 85 17        	sta	$17                     ; 0x2017 <__umodsi3+0x51>
     4e3: a5 1b        	lda	$1b                     ; 0x201b <__umodsi3+0x55>
     4e5: 92 16        	sta	($16)                   ; 0x2016 <__umodsi3+0x50>
     4e7: 91 16        	sta	($16),y                 ; 0x2016 <__umodsi3+0x50>
     4e9: c8           	iny
     4ea: 91 16        	sta	($16),y                 ; 0x2016 <__umodsi3+0x50>
     4ec: 85 15        	sta	$15                     ; 0x2015 <__umodsi3+0x4f>
     4ee: c8           	iny
     4ef: a9 ff        	lda	#$ff
     4f1: 91 16        	sta	($16),y                 ; 0x2016 <__umodsi3+0x50>
     4f3: 8a           	txa
     4f4: a6 1c        	ldx	$1c                     ; 0x201c <__umodsi3+0x56>
     4f6: 86 01        	stx	$1                      ; 0x2001 <__umodsi3+0x3b>
     4f8: 18           	clc
     4f9: 69 04        	adc	#$4
     4fb: 85 17        	sta	$17                     ; 0x2017 <__umodsi3+0x51>
     4fd: a5 1d        	lda	$1d                     ; 0x201d <__umodsi3+0x57>
     4ff: 69 00        	adc	#$0
     501: e6 15        	inc	$15                     ; 0x2015 <__umodsi3+0x4f>
     503: a4 15        	ldy	$15                     ; 0x2015 <__umodsi3+0x4f>
     505: 85 16        	sta	$16                     ; 0x2016 <__umodsi3+0x50>
     507: c9 04        	cmp	#$4
     509: f0 03        	beq	$50e <f256Init+0x99>
     50b: 4c b9 04     	jmp	$4b9 <f256Init+0x44>
     50e: a5 17        	lda	$17                     ; 0x2017 <__umodsi3+0x51>
     510: f0 03        	beq	$515 <f256Init+0xa0>
     512: 4c b9 04     	jmp	$4b9 <f256Init+0x44>
     515: a6 18        	ldx	$18                     ; 0x2018 <__umodsi3+0x52>
     517: e8           	inx
     518: e0 04        	cpx	#$4
     51a: f0 03        	beq	$51f <f256Init+0xaa>
     51c: 4c a6 04     	jmp	$4a6 <f256Init+0x31>
     51f: ad 02 d0     	lda	$d002                   ; 0xd002 <__heap_start+0x8d8e>
     522: 29 f0        	and	#$f0
     524: 8d 02 d0     	sta	$d002                   ; 0xd002 <__heap_start+0x8d8e>
     527: ad 02 d0     	lda	$d002                   ; 0xd002 <__heap_start+0x8d8e>
     52a: 29 0f        	and	#$f
     52c: 09 10        	ora	#$10
     52e: 8d 02 d0     	sta	$d002                   ; 0xd002 <__heap_start+0x8d8e>
     531: a2 02        	ldx	#$2
     533: 8e 03 d0     	stx	$d003                   ; 0xd003 <__heap_start+0x8d8f>
     536: ad 01 d0     	lda	$d001                   ; 0xd001 <__heap_start+0x8d8d>
     539: 29 f9        	and	#$f9
     53b: 09 04        	ora	#$4
     53d: 8d 01 d0     	sta	$d001                   ; 0xd001 <__heap_start+0x8d8d>
     540: 64 14        	stz	$14                     ; 0x2014 <__umodsi3+0x4e>
     542: 9c 10 d0     	stz	$d010                   ; 0xd010 <__heap_start+0x8d9c>
     545: a2 00        	ldx	#$0
     547: 64 15        	stz	$15                     ; 0x2015 <__umodsi3+0x4f>
     549: 86 18        	stx	$18                     ; 0x2018 <__umodsi3+0x52>
     54b: a4 18        	ldy	$18                     ; 0x2018 <__umodsi3+0x52>
     54d: be 48 21     	ldx	$2148,y                 ; 0x2148 <textColors>
     550: 86 19        	stx	$19                     ; 0x2019 <__umodsi3+0x53>
     552: be 49 21     	ldx	$2149,y                 ; 0x2149 <textColors+0x1>
     555: 86 1a        	stx	$1a                     ; 0x201a <__umodsi3+0x54>
     557: be 4a 21     	ldx	$214a,y                 ; 0x214a <textColors+0x2>
     55a: 86 1b        	stx	$1b                     ; 0x201b <__umodsi3+0x55>
     55c: a6 15        	ldx	$15                     ; 0x2015 <__umodsi3+0x4f>
     55e: 8e 00 de     	stx	$de00                   ; 0xde00 <__heap_start+0x9b8c>
     561: 86 17        	stx	$17                     ; 0x2017 <__umodsi3+0x51>
     563: 9c 01 de     	stz	$de01                   ; 0xde01 <__heap_start+0x9b8d>
     566: a2 04        	ldx	#$4
     568: 8e 02 de     	stx	$de02                   ; 0xde02 <__heap_start+0x9b8e>
     56b: 9c 03 de     	stz	$de03                   ; 0xde03 <__heap_start+0x9b8f>
     56e: ad 10 de     	lda	$de10                   ; 0xde10 <__heap_start+0x9b9c>
     571: ac 11 de     	ldy	$de11                   ; 0xde11 <__heap_start+0x9b9d>
     574: 84 15        	sty	$15                     ; 0x2015 <__umodsi3+0x4f>
     576: ac 12 de     	ldy	$de12                   ; 0xde12 <__heap_start+0x9b9e>
     579: ac 13 de     	ldy	$de13                   ; 0xde13 <__heap_start+0x9b9f>
     57c: 18           	clc
     57d: 65 14        	adc	$14                     ; 0x2014 <__umodsi3+0x4e>
     57f: 85 16        	sta	$16                     ; 0x2016 <__umodsi3+0x50>
     581: a6 17        	ldx	$17                     ; 0x2017 <__umodsi3+0x51>
     583: a9 d8        	lda	#$d8
     585: 65 15        	adc	$15                     ; 0x2015 <__umodsi3+0x4f>
     587: 85 17        	sta	$17                     ; 0x2017 <__umodsi3+0x51>
     589: a5 1b        	lda	$1b                     ; 0x201b <__umodsi3+0x55>
     58b: 92 16        	sta	($16)                   ; 0x2016 <__umodsi3+0x50>
     58d: a0 01        	ldy	#$1
     58f: a5 1a        	lda	$1a                     ; 0x201a <__umodsi3+0x54>
     591: 91 16        	sta	($16),y                 ; 0x2016 <__umodsi3+0x50>
     593: c8           	iny
     594: a5 19        	lda	$19                     ; 0x2019 <__umodsi3+0x53>
     596: 91 16        	sta	($16),y                 ; 0x2016 <__umodsi3+0x50>
     598: c8           	iny
     599: a9 ff        	lda	#$ff
     59b: 91 16        	sta	($16),y                 ; 0x2016 <__umodsi3+0x50>
     59d: 8e 00 de     	stx	$de00                   ; 0xde00 <__heap_start+0x9b8c>
     5a0: 9c 01 de     	stz	$de01                   ; 0xde01 <__heap_start+0x9b8d>
     5a3: c8           	iny
     5a4: 8c 02 de     	sty	$de02                   ; 0xde02 <__heap_start+0x9b8e>
     5a7: 9c 03 de     	stz	$de03                   ; 0xde03 <__heap_start+0x9b8f>
     5aa: ad 10 de     	lda	$de10                   ; 0xde10 <__heap_start+0x9b9c>
     5ad: 85 15        	sta	$15                     ; 0x2015 <__umodsi3+0x4f>
     5af: ad 11 de     	lda	$de11                   ; 0xde11 <__heap_start+0x9b9d>
     5b2: 85 16        	sta	$16                     ; 0x2016 <__umodsi3+0x50>
     5b4: a9 40        	lda	#$40
     5b6: 18           	clc
     5b7: 65 15        	adc	$15                     ; 0x2015 <__umodsi3+0x4f>
     5b9: a8           	tay
     5ba: a9 d8        	lda	#$d8
     5bc: 65 16        	adc	$16                     ; 0x2016 <__umodsi3+0x50>
     5be: 85 17        	sta	$17                     ; 0x2017 <__umodsi3+0x51>
     5c0: 84 16        	sty	$16                     ; 0x2016 <__umodsi3+0x50>
     5c2: ad 12 de     	lda	$de12                   ; 0xde12 <__heap_start+0x9b9e>
     5c5: ad 13 de     	lda	$de13                   ; 0xde13 <__heap_start+0x9b9f>
     5c8: a5 1b        	lda	$1b                     ; 0x201b <__umodsi3+0x55>
     5ca: 92 16        	sta	($16)                   ; 0x2016 <__umodsi3+0x50>
     5cc: a5 1a        	lda	$1a                     ; 0x201a <__umodsi3+0x54>
     5ce: a0 01        	ldy	#$1
     5d0: 91 16        	sta	($16),y                 ; 0x2016 <__umodsi3+0x50>
     5d2: a5 19        	lda	$19                     ; 0x2019 <__umodsi3+0x53>
     5d4: c8           	iny
     5d5: 91 16        	sta	($16),y                 ; 0x2016 <__umodsi3+0x50>
     5d7: c8           	iny
     5d8: a9 ff        	lda	#$ff
     5da: 91 16        	sta	($16),y                 ; 0x2016 <__umodsi3+0x50>
     5dc: e8           	inx
     5dd: 86 15        	stx	$15                     ; 0x2015 <__umodsi3+0x4f>
     5df: 18           	clc
     5e0: a5 18        	lda	$18                     ; 0x2018 <__umodsi3+0x52>
     5e2: 69 03        	adc	#$3
     5e4: aa           	tax
     5e5: c9 30        	cmp	#$30
     5e7: f0 03        	beq	$5ec <f256Init+0x177>
     5e9: 4c 49 05     	jmp	$549 <f256Init+0xd4>
     5ec: a6 01        	ldx	$1                      ; 0x2001 <__umodsi3+0x3b>
     5ee: 86 18        	stx	$18                     ; 0x2018 <__umodsi3+0x52>
     5f0: a2 50        	ldx	#$50
     5f2: 8e 00 de     	stx	$de00                   ; 0xde00 <__heap_start+0x9b8c>
     5f5: 9c 01 de     	stz	$de01                   ; 0xde01 <__heap_start+0x9b8d>
     5f8: a2 1e        	ldx	#$1e
     5fa: 8e 02 de     	stx	$de02                   ; 0xde02 <__heap_start+0x9b8e>
     5fd: 9c 03 de     	stz	$de03                   ; 0xde03 <__heap_start+0x9b8f>
     600: ae 10 de     	ldx	$de10                   ; 0xde10 <__heap_start+0x9b9c>
     603: ac 11 de     	ldy	$de11                   ; 0xde11 <__heap_start+0x9b9d>
     606: ad 12 de     	lda	$de12                   ; 0xde12 <__heap_start+0x9b9e>
     609: ad 13 de     	lda	$de13                   ; 0xde13 <__heap_start+0x9b9f>
     60c: a9 02        	lda	#$2
     60e: 85 01        	sta	$1                      ; 0x2001 <__umodsi3+0x3b>
     610: e0 01        	cpx	#$1
     612: 98           	tya
     613: e9 00        	sbc	#$0
     615: 50 02        	bvc	$619 <f256Init+0x1a4>
     617: 49 80        	eor	#$80
     619: c9 00        	cmp	#$0
     61b: 30 48        	bmi	$665 <f256Init+0x1f0>
     61d: a9 20        	lda	#$20
     61f: 86 19        	stx	$19                     ; 0x2019 <__umodsi3+0x53>
     621: 86 14        	stx	$14                     ; 0x2014 <__umodsi3+0x4e>
     623: 84 15        	sty	$15                     ; 0x2015 <__umodsi3+0x4f>
     625: a2 00        	ldx	#$0
     627: 86 16        	stx	$16                     ; 0x2016 <__umodsi3+0x50>
     629: a2 c0        	ldx	#$c0
     62b: 86 17        	stx	$17                     ; 0x2017 <__umodsi3+0x51>
     62d: 92 16        	sta	($16)                   ; 0x2016 <__umodsi3+0x50>
     62f: e6 16        	inc	$16                     ; 0x2016 <__umodsi3+0x50>
     631: d0 02        	bne	$635 <f256Init+0x1c0>
     633: e6 17        	inc	$17                     ; 0x2017 <__umodsi3+0x51>
     635: a2 ff        	ldx	#$ff
     637: c6 14        	dec	$14                     ; 0x2014 <__umodsi3+0x4e>
     639: e4 14        	cpx	$14                     ; 0x2014 <__umodsi3+0x4e>
     63b: d0 02        	bne	$63f <f256Init+0x1ca>
     63d: c6 15        	dec	$15                     ; 0x2015 <__umodsi3+0x4f>
     63f: a6 15        	ldx	$15                     ; 0x2015 <__umodsi3+0x4f>
     641: d0 ea        	bne	$62d <f256Init+0x1b8>
     643: a6 14        	ldx	$14                     ; 0x2014 <__umodsi3+0x4e>
     645: d0 e6        	bne	$62d <f256Init+0x1b8>
     647: a2 03        	ldx	#$3
     649: 86 01        	stx	$1                      ; 0x2001 <__umodsi3+0x3b>
     64b: a6 19        	ldx	$19                     ; 0x2019 <__umodsi3+0x53>
     64d: a9 f0        	lda	#$f0
     64f: 92 12        	sta	($12)                   ; 0x2012 <__umodsi3+0x4c>
     651: e6 12        	inc	$12                     ; 0x2012 <__umodsi3+0x4c>
     653: d0 02        	bne	$657 <f256Init+0x1e2>
     655: e6 13        	inc	$13                     ; 0x2013 <__umodsi3+0x4d>
     657: ca           	dex
     658: e0 ff        	cpx	#$ff
     65a: d0 01        	bne	$65d <f256Init+0x1e8>
     65c: 88           	dey
     65d: 98           	tya
     65e: d0 ed        	bne	$64d <f256Init+0x1d8>
     660: 8a           	txa
     661: d0 ea        	bne	$64d <f256Init+0x1d8>
     663: 80 04        	bra	$669 <f256Init+0x1f4>
     665: a2 03        	ldx	#$3
     667: 86 01        	stx	$1                      ; 0x2001 <__umodsi3+0x3b>
     669: a6 18        	ldx	$18                     ; 0x2018 <__umodsi3+0x52>
     66b: 86 01        	stx	$1                      ; 0x2001 <__umodsi3+0x3b>
     66d: 64 30        	stz	$30                     ; 0x2030 <__umodsi3+0x6a>
     66f: 9c 14 d0     	stz	$d014                   ; 0xd014 <__heap_start+0x8da0>
     672: 9c 15 d0     	stz	$d015                   ; 0xd015 <__heap_start+0x8da1>
     675: 64 31        	stz	$31                     ; 0x2031 <__umodsi3+0x6b>
     677: 9c 16 d0     	stz	$d016                   ; 0xd016 <__heap_start+0x8da2>
     67a: 9c 17 d0     	stz	$d017                   ; 0xd017 <__heap_start+0x8da3>
     67d: a2 40        	ldx	#$40
     67f: 8e 00 de     	stx	$de00                   ; 0xde00 <__heap_start+0x9b8c>
     682: a2 01        	ldx	#$1
     684: 8e 01 de     	stx	$de01                   ; 0xde01 <__heap_start+0x9b8d>
     687: a2 f0        	ldx	#$f0
     689: 8e 02 de     	stx	$de02                   ; 0xde02 <__heap_start+0x9b8e>
     68c: 9c 03 de     	stz	$de03                   ; 0xde03 <__heap_start+0x9b8f>
     68f: ae 10 de     	ldx	$de10                   ; 0xde10 <__heap_start+0x9b9c>
     692: 86 17        	stx	$17                     ; 0x2017 <__umodsi3+0x51>
     694: ae 11 de     	ldx	$de11                   ; 0xde11 <__heap_start+0x9b9d>
     697: 86 12        	stx	$12                     ; 0x2012 <__umodsi3+0x4c>
     699: ae 12 de     	ldx	$de12                   ; 0xde12 <__heap_start+0x9b9e>
     69c: 86 13        	stx	$13                     ; 0x2013 <__umodsi3+0x4d>
     69e: ae 13 de     	ldx	$de13                   ; 0xde13 <__heap_start+0x9b9f>
     6a1: 86 14        	stx	$14                     ; 0x2014 <__umodsi3+0x4e>
     6a3: a4 12        	ldy	$12                     ; 0x2012 <__umodsi3+0x4c>
     6a5: 84 15        	sty	$15                     ; 0x2015 <__umodsi3+0x4f>
     6a7: 06 15        	asl	$15                     ; 0x2015 <__umodsi3+0x4f>
     6a9: a5 13        	lda	$13                     ; 0x2013 <__umodsi3+0x4d>
     6ab: 2a           	rol
     6ac: 86 16        	stx	$16                     ; 0x2016 <__umodsi3+0x50>
     6ae: 26 16        	rol	$16                     ; 0x2016 <__umodsi3+0x50>
     6b0: 06 15        	asl	$15                     ; 0x2015 <__umodsi3+0x4f>
     6b2: 2a           	rol
     6b3: 26 16        	rol	$16                     ; 0x2016 <__umodsi3+0x50>
     6b5: 06 15        	asl	$15                     ; 0x2015 <__umodsi3+0x4f>
     6b7: 2a           	rol
     6b8: 26 16        	rol	$16                     ; 0x2016 <__umodsi3+0x50>
     6ba: 85 15        	sta	$15                     ; 0x2015 <__umodsi3+0x4f>
     6bc: 8d 00 de     	sta	$de00                   ; 0xde00 <__heap_start+0x9b8c>
     6bf: a5 16        	lda	$16                     ; 0x2016 <__umodsi3+0x50>
     6c1: 8d 01 de     	sta	$de01                   ; 0xde01 <__heap_start+0x9b8d>
     6c4: 9c 02 de     	stz	$de02                   ; 0xde02 <__heap_start+0x9b8e>
     6c7: a2 20        	ldx	#$20
     6c9: 8e 03 de     	stx	$de03                   ; 0xde03 <__heap_start+0x9b8f>
     6cc: ae 10 de     	ldx	$de10                   ; 0xde10 <__heap_start+0x9b9c>
     6cf: 86 16        	stx	$16                     ; 0x2016 <__umodsi3+0x50>
     6d1: ae 11 de     	ldx	$de11                   ; 0xde11 <__heap_start+0x9b9d>
     6d4: 86 18        	stx	$18                     ; 0x2018 <__umodsi3+0x52>
     6d6: ac 12 de     	ldy	$de12                   ; 0xde12 <__heap_start+0x9b9e>
     6d9: ae 13 de     	ldx	$de13                   ; 0xde13 <__heap_start+0x9b9f>
     6dc: e4 14        	cpx	$14                     ; 0x2014 <__umodsi3+0x4e>
     6de: d0 14        	bne	$6f4 <f256Init+0x27f>
     6e0: c4 13        	cpy	$13                     ; 0x2013 <__umodsi3+0x4d>
     6e2: d0 10        	bne	$6f4 <f256Init+0x27f>
     6e4: a6 18        	ldx	$18                     ; 0x2018 <__umodsi3+0x52>
     6e6: e4 12        	cpx	$12                     ; 0x2012 <__umodsi3+0x4c>
     6e8: d0 0a        	bne	$6f4 <f256Init+0x27f>
     6ea: a6 16        	ldx	$16                     ; 0x2016 <__umodsi3+0x50>
     6ec: e4 17        	cpx	$17                     ; 0x2017 <__umodsi3+0x51>
     6ee: d0 04        	bne	$6f4 <f256Init+0x27f>
     6f0: a6 15        	ldx	$15                     ; 0x2015 <__umodsi3+0x4f>
     6f2: 80 06        	bra	$6fa <f256Init+0x285>
     6f4: a6 15        	ldx	$15                     ; 0x2015 <__umodsi3+0x4f>
     6f6: e8           	inx
     6f7: d0 01        	bne	$6fa <f256Init+0x285>
     6f9: 1a           	inc
     6fa: 8e 00 de     	stx	$de00                   ; 0xde00 <__heap_start+0x9b8c>
     6fd: 8d 01 de     	sta	$de01                   ; 0xde01 <__heap_start+0x9b8d>
     700: 9c 02 de     	stz	$de02                   ; 0xde02 <__heap_start+0x9b8e>
     703: a2 20        	ldx	#$20
     705: 8e 03 de     	stx	$de03                   ; 0xde03 <__heap_start+0x9b8f>
     708: ae 10 de     	ldx	$de10                   ; 0xde10 <__heap_start+0x9b9c>
     70b: 86 12        	stx	$12                     ; 0x2012 <__umodsi3+0x4c>
     70d: ae 11 de     	ldx	$de11                   ; 0xde11 <__heap_start+0x9b9d>
     710: 86 13        	stx	$13                     ; 0x2013 <__umodsi3+0x4d>
     712: ae 12 de     	ldx	$de12                   ; 0xde12 <__heap_start+0x9b9e>
     715: 86 14        	stx	$14                     ; 0x2014 <__umodsi3+0x4e>
     717: a9 00        	lda	#$0
     719: 38           	sec
     71a: e5 12        	sbc	$12                     ; 0x2012 <__umodsi3+0x4c>
     71c: a8           	tay
     71d: a9 00        	lda	#$0
     71f: e5 13        	sbc	$13                     ; 0x2013 <__umodsi3+0x4d>
     721: 85 15        	sta	$15                     ; 0x2015 <__umodsi3+0x4f>
     723: a9 08        	lda	#$8
     725: e5 14        	sbc	$14                     ; 0x2014 <__umodsi3+0x4e>
     727: aa           	tax
     728: 98           	tya
     729: 84 17        	sty	$17                     ; 0x2017 <__umodsi3+0x51>
     72b: 38           	sec
     72c: e5 12        	sbc	$12                     ; 0x2012 <__umodsi3+0x4c>
     72e: 85 16        	sta	$16                     ; 0x2016 <__umodsi3+0x50>
     730: a5 15        	lda	$15                     ; 0x2015 <__umodsi3+0x4f>
     732: e5 13        	sbc	$13                     ; 0x2013 <__umodsi3+0x4d>
     734: 85 18        	sta	$18                     ; 0x2018 <__umodsi3+0x52>
     736: 8a           	txa
     737: 86 19        	stx	$19                     ; 0x2019 <__umodsi3+0x53>
     739: e5 14        	sbc	$14                     ; 0x2014 <__umodsi3+0x4e>
     73b: a8           	tay
     73c: 38           	sec
     73d: a5 16        	lda	$16                     ; 0x2016 <__umodsi3+0x50>
     73f: e5 12        	sbc	$12                     ; 0x2012 <__umodsi3+0x4c>
     741: 85 12        	sta	$12                     ; 0x2012 <__umodsi3+0x4c>
     743: a5 18        	lda	$18                     ; 0x2018 <__umodsi3+0x52>
     745: e5 13        	sbc	$13                     ; 0x2013 <__umodsi3+0x4d>
     747: 85 13        	sta	$13                     ; 0x2013 <__umodsi3+0x4d>
     749: 98           	tya
     74a: e5 14        	sbc	$14                     ; 0x2014 <__umodsi3+0x4e>
     74c: ae 13 de     	ldx	$de13                   ; 0xde13 <__heap_start+0x9b9f>
     74f: a6 17        	ldx	$17                     ; 0x2017 <__umodsi3+0x51>
     751: 8e 01 d1     	stx	$d101                   ; 0xd101 <__heap_start+0x8e8d>
     754: a6 15        	ldx	$15                     ; 0x2015 <__umodsi3+0x4f>
     756: 8e 02 d1     	stx	$d102                   ; 0xd102 <__heap_start+0x8e8e>
     759: a6 19        	ldx	$19                     ; 0x2019 <__umodsi3+0x53>
     75b: 8e 03 d1     	stx	$d103                   ; 0xd103 <__heap_start+0x8e8f>
     75e: a6 16        	ldx	$16                     ; 0x2016 <__umodsi3+0x50>
     760: 8e 09 d1     	stx	$d109                   ; 0xd109 <__heap_start+0x8e95>
     763: a6 18        	ldx	$18                     ; 0x2018 <__umodsi3+0x52>
     765: 8e 0a d1     	stx	$d10a                   ; 0xd10a <__heap_start+0x8e96>
     768: 8c 0b d1     	sty	$d10b                   ; 0xd10b <__heap_start+0x8e97>
     76b: a6 12        	ldx	$12                     ; 0x2012 <__umodsi3+0x4c>
     76d: 8e 11 d1     	stx	$d111                   ; 0xd111 <__heap_start+0x8e9d>
     770: a6 13        	ldx	$13                     ; 0x2013 <__umodsi3+0x4d>
     772: 8e 12 d1     	stx	$d112                   ; 0xd112 <__heap_start+0x8e9e>
     775: 8d 13 d1     	sta	$d113                   ; 0xd113 <__heap_start+0x8e9f>
     778: 9c 00 d1     	stz	$d100                   ; 0xd100 <__heap_start+0x8e8c>
     77b: 9c 08 d1     	stz	$d108                   ; 0xd108 <__heap_start+0x8e94>
     77e: 9c 10 d1     	stz	$d110                   ; 0xd110 <__heap_start+0x8e9c>
     781: a2 10        	ldx	#$10
     783: 8e 00 d2     	stx	$d200                   ; 0xd200 <__heap_start+0x8f8c>
     786: 8e 0c d2     	stx	$d20c                   ; 0xd20c <__heap_start+0x8f98>
     789: 8e 18 d2     	stx	$d218                   ; 0xd218 <__heap_start+0x8fa4>
     78c: a0 d9        	ldy	#$d9
     78e: a2 40        	ldx	#$40
     790: 64 12        	stz	$12                     ; 0x2012 <__umodsi3+0x4c>
     792: 84 13        	sty	$13                     ; 0x2013 <__umodsi3+0x4d>
     794: a9 00        	lda	#$0
     796: 92 12        	sta	($12)                   ; 0x2012 <__umodsi3+0x4c>
     798: ca           	dex
     799: 18           	clc
     79a: a5 12        	lda	$12                     ; 0x2012 <__umodsi3+0x4c>
     79c: 69 08        	adc	#$8
     79e: 85 12        	sta	$12                     ; 0x2012 <__umodsi3+0x4c>
     7a0: 98           	tya
     7a1: 69 00        	adc	#$0
     7a3: a8           	tay
     7a4: 8a           	txa
     7a5: d0 eb        	bne	$792 <f256Init+0x31d>
     7a7: a2 3e        	ldx	#$3e
     7a9: a0 00        	ldy	#$0
     7ab: 86 fb        	stx	$fb                     ; 0x20fb <__umodsi3+0x135>
     7ad: 84 fc        	sty	$fc                     ; 0x20fc <__umodsi3+0x136>
     7af: a2 08        	ldx	#$8
     7b1: 86 fd        	stx	$fd                     ; 0x20fd <__umodsi3+0x137>
     7b3: a2 46        	ldx	#$46
     7b5: a0 00        	ldy	#$0
     7b7: 86 12        	stx	$12                     ; 0x2012 <__umodsi3+0x4c>
     7b9: 84 13        	sty	$13                     ; 0x2013 <__umodsi3+0x4d>
     7bb: a2 36        	ldx	#$36
     7bd: 86 14        	stx	$14                     ; 0x2014 <__umodsi3+0x4e>
     7bf: a2 00        	ldx	#$0
     7c1: 86 15        	stx	$15                     ; 0x2015 <__umodsi3+0x4f>
     7c3: 20 dc ff     	jsr	$ffdc <__heap_start+0xbd68>
     7c6: 92 12        	sta	($12)                   ; 0x2012 <__umodsi3+0x4c>
     7c8: a9 00        	lda	#$0
     7ca: 6a           	ror
     7cb: 85 14        	sta	$14                     ; 0x2014 <__umodsi3+0x4e>
     7cd: a6 44        	ldx	$44                     ; 0x2044 <__umodsi3+0x7e>
     7cf: a4 45        	ldy	$45                     ; 0x2045 <__umodsi3+0x7f>
     7d1: 8e 00 de     	stx	$de00                   ; 0xde00 <__heap_start+0x9b8c>
     7d4: 9c 01 de     	stz	$de01                   ; 0xde01 <__heap_start+0x9b8d>
     7d7: 8c 02 de     	sty	$de02                   ; 0xde02 <__heap_start+0x9b8e>
     7da: 9c 03 de     	stz	$de03                   ; 0xde03 <__heap_start+0x9b8f>
     7dd: ae 10 de     	ldx	$de10                   ; 0xde10 <__heap_start+0x9b9c>
     7e0: ac 11 de     	ldy	$de11                   ; 0xde11 <__heap_start+0x9b9d>
     7e3: ad 12 de     	lda	$de12                   ; 0xde12 <__heap_start+0x9b9e>
     7e6: ad 13 de     	lda	$de13                   ; 0xde13 <__heap_start+0x9b9f>
     7e9: 8e a4 d6     	stx	$d6a4                   ; 0xd6a4 <__heap_start+0x9430>
     7ec: 8c a5 d6     	sty	$d6a5                   ; 0xd6a5 <__heap_start+0x9431>
     7ef: a2 03        	ldx	#$3
     7f1: 8e a6 d6     	stx	$d6a6                   ; 0xd6a6 <__heap_start+0x9432>
     7f4: 60           	rts

000007f5 <main>:
     7f5: 20 75 04     	jsr	$475 <f256Init>
     7f8: 20 fb 07     	jsr	$7fb <f256main>

000007fb <f256main>:
     7fb: 18           	clc
     7fc: a5 10        	lda	$10                     ; 0x2010 <__umodsi3+0x4a>
     7fe: 69 fe        	adc	#$fe
     800: 85 10        	sta	$10                     ; 0x2010 <__umodsi3+0x4a>
     802: a5 11        	lda	$11                     ; 0x2011 <__umodsi3+0x4b>
     804: 69 ff        	adc	#$ff
     806: 85 11        	sta	$11                     ; 0x2011 <__umodsi3+0x4b>
     808: 64 01        	stz	$1                      ; 0x2001 <__umodsi3+0x3b>
     80a: a2 2f        	ldx	#$2f
     80c: 8e 00 d0     	stx	$d000                   ; 0xd000 <__heap_start+0x8d8c>
     80f: a2 04        	ldx	#$4
     811: 8e 01 d0     	stx	$d001                   ; 0xd001 <__heap_start+0x8d8d>
     814: a2 01        	ldx	#$1
     816: 8e 02 d0     	stx	$d002                   ; 0xd002 <__heap_start+0x8d8e>
     819: a0 02        	ldy	#$2
     81b: 8c 03 d0     	sty	$d003                   ; 0xd003 <__heap_start+0x8d8f>
     81e: 9c 0d d0     	stz	$d00d                   ; 0xd00d <__heap_start+0x8d99>
     821: 9c 0e d0     	stz	$d00e                   ; 0xd00e <__heap_start+0x8d9a>
     824: 9c 0f d0     	stz	$d00f                   ; 0xd00f <__heap_start+0x8d9b>
     827: ad 00 d1     	lda	$d100                   ; 0xd100 <__heap_start+0x8e8c>
     82a: 29 f9        	and	#$f9
     82c: 8d 00 d1     	sta	$d100                   ; 0xd100 <__heap_start+0x8e8c>
     82f: 8e 00 d1     	stx	$d100                   ; 0xd100 <__heap_start+0x8e8c>
     832: 9c 08 d1     	stz	$d108                   ; 0xd108 <__heap_start+0x8e94>
     835: 9c 10 d1     	stz	$d110                   ; 0xd110 <__heap_start+0x8e9c>
     838: a0 1f        	ldy	#$1f
     83a: 8c 20 d6     	sty	$d620                   ; 0xd620 <__heap_start+0x93ac>
     83d: a0 2a        	ldy	#$2a
     83f: 8c 21 d6     	sty	$d621                   ; 0xd621 <__heap_start+0x93ad>
     842: 8e 22 d6     	stx	$d622                   ; 0xd622 <__heap_start+0x93ae>
     845: ad 22 d6     	lda	$d622                   ; 0xd622 <__heap_start+0x93ae>
     848: 29 01        	and	#$1
     84a: 29 01        	and	#$1
     84c: d0 f7        	bne	$845 <f256main+0x4a>
     84e: a2 03        	ldx	#$3
     850: 8e 01 d7     	stx	$d701                   ; 0xd701 <__heap_start+0x948d>
     853: 9c 02 d7     	stz	$d702                   ; 0xd702 <__heap_start+0x948e>
     856: a2 c0        	ldx	#$c0
     858: 8e 03 d7     	stx	$d703                   ; 0xd703 <__heap_start+0x948f>
     85b: a2 01        	ldx	#$1
     85d: 8e 00 d7     	stx	$d700                   ; 0xd700 <__heap_start+0x948c>
     860: 9c 00 d7     	stz	$d700                   ; 0xd700 <__heap_start+0x948c>
     863: ae 00 d7     	ldx	$d700                   ; 0xd700 <__heap_start+0x948c>
     866: 30 fb        	bmi	$863 <f256main+0x68>
     868: a9 47        	lda	#$47
     86a: 92 10        	sta	($10)                   ; 0x2010 <__umodsi3+0x4a>
     86c: a0 01        	ldy	#$1
     86e: a9 22        	lda	#$22
     870: 91 10        	sta	($10),y                 ; 0x2010 <__umodsi3+0x4a>
     872: a2 35        	ldx	#$35
     874: 86 12        	stx	$12                     ; 0x2012 <__umodsi3+0x4c>
     876: a2 22        	ldx	#$22
     878: 86 13        	stx	$13                     ; 0x2013 <__umodsi3+0x4d>
     87a: 20 08 11     	jsr	$1108 <printf>
     87d: 20 c1 1f     	jsr	$1fc1 <strlen>
     880: 85 15        	sta	$15                     ; 0x2015 <__umodsi3+0x4f>
     882: a2 fd        	ldx	#$fd
     884: 86 12        	stx	$12                     ; 0x2012 <__umodsi3+0x4c>
     886: a2 21        	ldx	#$21
     888: 86 13        	stx	$13                     ; 0x2013 <__umodsi3+0x4d>
     88a: a2 00        	ldx	#$0
     88c: 80 0a        	bra	$898 <f256main+0x9d>
     88e: a0 02        	ldy	#$2
     890: e6 12        	inc	$12                     ; 0x2012 <__umodsi3+0x4c>
     892: d0 02        	bne	$896 <f256main+0x9b>
     894: e6 13        	inc	$13                     ; 0x2013 <__umodsi3+0x4d>
     896: 5a           	phy
     897: fa           	plx
     898: b2 12        	lda	($12)                   ; 0x2012 <__umodsi3+0x4c>
     89a: c9 61        	cmp	#$61
     89c: f0 f0        	beq	$88e <f256main+0x93>
     89e: 85 14        	sta	$14                     ; 0x2014 <__umodsi3+0x4e>
     8a0: a0 01        	ldy	#$1
     8a2: c9 77        	cmp	#$77
     8a4: f0 ea        	beq	$890 <f256main+0x95>
     8a6: a5 14        	lda	$14                     ; 0x2014 <__umodsi3+0x4e>
     8a8: f0 04        	beq	$8ae <f256main+0xb3>
     8aa: da           	phx
     8ab: 7a           	ply
     8ac: 80 e2        	bra	$890 <f256main+0x95>
     8ae: a0 47        	ldy	#$47
     8b0: a9 22        	lda	#$22
     8b2: 84 fb        	sty	$fb                     ; 0x20fb <__umodsi3+0x135>
     8b4: 85 fc        	sta	$fc                     ; 0x20fc <__umodsi3+0x136>
     8b6: a5 15        	lda	$15                     ; 0x2015 <__umodsi3+0x4f>
     8b8: 85 fd        	sta	$fd                     ; 0x20fd <__umodsi3+0x137>
     8ba: 64 f3        	stz	$f3                     ; 0x20f3 <__umodsi3+0x12d>
     8bc: 86 f5        	stx	$f5                     ; 0x20f5 <__umodsi3+0x12f>
     8be: a2 73        	ldx	#$73
     8c0: a0 22        	ldy	#$22
     8c2: 86 12        	stx	$12                     ; 0x2012 <__umodsi3+0x4c>
     8c4: 84 13        	sty	$13                     ; 0x2013 <__umodsi3+0x4d>
     8c6: a2 36        	ldx	#$36
     8c8: 86 14        	stx	$14                     ; 0x2014 <__umodsi3+0x4e>
     8ca: a2 00        	ldx	#$0
     8cc: 86 15        	stx	$15                     ; 0x2015 <__umodsi3+0x4f>
     8ce: 20 5c ff     	jsr	$ff5c <__heap_start+0xbce8>
     8d1: 92 12        	sta	($12)                   ; 0x2012 <__umodsi3+0x4c>
     8d3: a9 00        	lda	#$0
     8d5: 6a           	ror
     8d6: 85 14        	sta	$14                     ; 0x2014 <__umodsi3+0x4e>
     8d8: a6 36        	ldx	$36                     ; 0x2036 <__umodsi3+0x70>
     8da: d0 03        	bne	$8df <f256main+0xe4>
     8dc: 4c 31 0b     	jmp	$b31 <f256main+0x336>
     8df: a2 00        	ldx	#$0
     8e1: 86 12        	stx	$12                     ; 0x2012 <__umodsi3+0x4c>
     8e3: a2 00        	ldx	#$0
     8e5: 86 13        	stx	$13                     ; 0x2013 <__umodsi3+0x4d>
     8e7: a6 12        	ldx	$12                     ; 0x2012 <__umodsi3+0x4c>
     8e9: a4 13        	ldy	$13                     ; 0x2013 <__umodsi3+0x4d>
     8eb: 86 34        	stx	$34                     ; 0x2034 <__umodsi3+0x6e>
     8ed: 84 35        	sty	$35                     ; 0x2035 <__umodsi3+0x6f>
     8ef: a9 47        	lda	#$47
     8f1: 92 10        	sta	($10)                   ; 0x2010 <__umodsi3+0x4a>
     8f3: a0 01        	ldy	#$1
     8f5: a9 22        	lda	#$22
     8f7: 91 10        	sta	($10),y                 ; 0x2010 <__umodsi3+0x4a>
     8f9: a2 52        	ldx	#$52
     8fb: 86 12        	stx	$12                     ; 0x2012 <__umodsi3+0x4c>
     8fd: a2 22        	ldx	#$22
     8ff: 86 13        	stx	$13                     ; 0x2013 <__umodsi3+0x4d>
     901: 20 08 11     	jsr	$1108 <printf>
     904: a6 34        	ldx	$34                     ; 0x2034 <__umodsi3+0x6e>
     906: a4 35        	ldy	$35                     ; 0x2035 <__umodsi3+0x6f>
     908: 86 24        	stx	$24                     ; 0x2024 <__umodsi3+0x5e>
     90a: 84 25        	sty	$25                     ; 0x2025 <__umodsi3+0x5f>
     90c: a2 73        	ldx	#$73
     90e: a0 22        	ldy	#$22
     910: 86 26        	stx	$26                     ; 0x2026 <__umodsi3+0x60>
     912: 84 27        	sty	$27                     ; 0x2027 <__umodsi3+0x61>
     914: a2 40        	ldx	#$40
     916: a4 26        	ldy	$26                     ; 0x2026 <__umodsi3+0x60>
     918: 84 12        	sty	$12                     ; 0x2012 <__umodsi3+0x4c>
     91a: a4 27        	ldy	$27                     ; 0x2027 <__umodsi3+0x61>
     91c: 84 13        	sty	$13                     ; 0x2013 <__umodsi3+0x4d>
     91e: a4 24        	ldy	$24                     ; 0x2024 <__umodsi3+0x5e>
     920: 84 14        	sty	$14                     ; 0x2014 <__umodsi3+0x4e>
     922: a4 25        	ldy	$25                     ; 0x2025 <__umodsi3+0x5f>
     924: 84 15        	sty	$15                     ; 0x2015 <__umodsi3+0x4f>
     926: 86 28        	stx	$28                     ; 0x2028 <__umodsi3+0x62>
     928: a2 00        	ldx	#$0
     92a: a9 80        	lda	#$80
     92c: 20 74 0b     	jsr	$b74 <fileRead>
     92f: a6 28        	ldx	$28                     ; 0x2028 <__umodsi3+0x62>
     931: ca           	dex
     932: a5 26        	lda	$26                     ; 0x2026 <__umodsi3+0x60>
     934: 18           	clc
     935: 69 80        	adc	#$80
     937: 85 26        	sta	$26                     ; 0x2026 <__umodsi3+0x60>
     939: a5 27        	lda	$27                     ; 0x2027 <__umodsi3+0x61>
     93b: 69 00        	adc	#$0
     93d: 85 27        	sta	$27                     ; 0x2027 <__umodsi3+0x61>
     93f: 8a           	txa
     940: d0 d4        	bne	$916 <f256main+0x11b>
     942: a2 00        	ldx	#$0
     944: 86 12        	stx	$12                     ; 0x2012 <__umodsi3+0x4c>
     946: a2 22        	ldx	#$22
     948: 86 13        	stx	$13                     ; 0x2013 <__umodsi3+0x4d>
     94a: 20 08 11     	jsr	$1108 <printf>
     94d: a2 3e        	ldx	#$3e
     94f: a0 00        	ldy	#$0
     951: 86 12        	stx	$12                     ; 0x2012 <__umodsi3+0x4c>
     953: 84 13        	sty	$13                     ; 0x2013 <__umodsi3+0x4d>
     955: a2 36        	ldx	#$36
     957: 86 14        	stx	$14                     ; 0x2014 <__umodsi3+0x4e>
     959: a2 00        	ldx	#$0
     95b: 86 15        	stx	$15                     ; 0x2015 <__umodsi3+0x4f>
     95d: 64 37        	stz	$37                     ; 0x2037 <__umodsi3+0x71>
     95f: 20 00 ff     	jsr	$ff00 <__heap_start+0xbc8c>
     962: 92 12        	sta	($12)                   ; 0x2012 <__umodsi3+0x4c>
     964: a9 00        	lda	#$0
     966: 6a           	ror
     967: 85 14        	sta	$14                     ; 0x2014 <__umodsi3+0x4e>
     969: a9 00        	lda	#$0
     96b: a6 37        	ldx	$37                     ; 0x2037 <__umodsi3+0x71>
     96d: e0 08        	cpx	#$8
     96f: d0 26        	bne	$997 <f256main+0x19c>
     971: a5 3b        	lda	$3b                     ; 0x203b <__umodsi3+0x75>
     973: a2 01        	ldx	#$1
     975: a0 01        	ldy	#$1
     977: c9 94        	cmp	#$94
     979: f0 02        	beq	$97d <f256main+0x182>
     97b: a0 00        	ldy	#$0
     97d: c9 20        	cmp	#$20
     97f: f0 02        	beq	$983 <f256main+0x188>
     981: a2 00        	ldx	#$0
     983: a9 01        	lda	#$1
     985: c0 00        	cpy	#$0
     987: d0 02        	bne	$98b <f256main+0x190>
     989: a9 00        	lda	#$0
     98b: a0 01        	ldy	#$1
     98d: 84 16        	sty	$16                     ; 0x2016 <__umodsi3+0x50>
     98f: e0 00        	cpx	#$0
     991: d0 02        	bne	$995 <f256main+0x19a>
     993: 64 16        	stz	$16                     ; 0x2016 <__umodsi3+0x50>
     995: 05 16        	ora	$16                     ; 0x2016 <__umodsi3+0x50>
     997: aa           	tax
     998: f0 c3        	beq	$95d <f256main+0x162>
     99a: a2 78        	ldx	#$78
     99c: 86 12        	stx	$12                     ; 0x2012 <__umodsi3+0x4c>
     99e: a2 21        	ldx	#$21
     9a0: 86 13        	stx	$13                     ; 0x2013 <__umodsi3+0x4d>
     9a2: 20 08 11     	jsr	$1108 <printf>
     9a5: a2 73        	ldx	#$73
     9a7: a0 22        	ldy	#$22
     9a9: 86 12        	stx	$12                     ; 0x2012 <__umodsi3+0x4c>
     9ab: 84 13        	sty	$13                     ; 0x2013 <__umodsi3+0x4d>
     9ad: a0 08        	ldy	#$8
     9af: a2 00        	ldx	#$0
     9b1: b2 12        	lda	($12)                   ; 0x2012 <__umodsi3+0x4c>
     9b3: 8d 07 d7     	sta	$d707                   ; 0xd707 <__heap_start+0x9493>
     9b6: ca           	dex
     9b7: e0 ff        	cpx	#$ff
     9b9: d0 01        	bne	$9bc <f256main+0x1c1>
     9bb: 88           	dey
     9bc: e6 12        	inc	$12                     ; 0x2012 <__umodsi3+0x4c>
     9be: d0 02        	bne	$9c2 <f256main+0x1c7>
     9c0: e6 13        	inc	$13                     ; 0x2013 <__umodsi3+0x4d>
     9c2: 98           	tya
     9c3: d0 ec        	bne	$9b1 <f256main+0x1b6>
     9c5: 8a           	txa
     9c6: d0 e9        	bne	$9b1 <f256main+0x1b6>
     9c8: a9 73        	lda	#$73
     9ca: 18           	clc
     9cb: 69 00        	adc	#$0
     9cd: 85 12        	sta	$12                     ; 0x2012 <__umodsi3+0x4c>
     9cf: a9 22        	lda	#$22
     9d1: 69 08        	adc	#$8
     9d3: 85 13        	sta	$13                     ; 0x2013 <__umodsi3+0x4d>
     9d5: a0 08        	ldy	#$8
     9d7: a2 00        	ldx	#$0
     9d9: b2 12        	lda	($12)                   ; 0x2012 <__umodsi3+0x4c>
     9db: 8d 07 d7     	sta	$d707                   ; 0xd707 <__heap_start+0x9493>
     9de: ca           	dex
     9df: e0 ff        	cpx	#$ff
     9e1: d0 01        	bne	$9e4 <f256main+0x1e9>
     9e3: 88           	dey
     9e4: e6 12        	inc	$12                     ; 0x2012 <__umodsi3+0x4c>
     9e6: d0 02        	bne	$9ea <f256main+0x1ef>
     9e8: e6 13        	inc	$13                     ; 0x2013 <__umodsi3+0x4d>
     9ea: 98           	tya
     9eb: d0 ec        	bne	$9d9 <f256main+0x1de>
     9ed: 8a           	txa
     9ee: d0 e9        	bne	$9d9 <f256main+0x1de>
     9f0: a2 b4        	ldx	#$b4
     9f2: 86 12        	stx	$12                     ; 0x2012 <__umodsi3+0x4c>
     9f4: a2 21        	ldx	#$21
     9f6: 86 13        	stx	$13                     ; 0x2013 <__umodsi3+0x4d>
     9f8: 20 08 11     	jsr	$1108 <printf>
     9fb: a2 e5        	ldx	#$e5
     9fd: 86 12        	stx	$12                     ; 0x2012 <__umodsi3+0x4c>
     9ff: a2 21        	ldx	#$21
     a01: 86 13        	stx	$13                     ; 0x2013 <__umodsi3+0x4d>
     a03: 20 08 11     	jsr	$1108 <printf>
     a06: a2 10        	ldx	#$10
     a08: 86 41        	stx	$41                     ; 0x2041 <__umodsi3+0x7b>
     a0a: 64 26        	stz	$26                     ; 0x2026 <__umodsi3+0x60>
     a0c: 64 28        	stz	$28                     ; 0x2028 <__umodsi3+0x62>
     a0e: 64 27        	stz	$27                     ; 0x2027 <__umodsi3+0x61>
     a10: 4c 73 0a     	jmp	$a73 <f256main+0x278>
     a13: 86 27        	stx	$27                     ; 0x2027 <__umodsi3+0x61>
     a15: a6 26        	ldx	$26                     ; 0x2026 <__umodsi3+0x60>
     a17: 86 12        	stx	$12                     ; 0x2012 <__umodsi3+0x4c>
     a19: a9 73        	lda	#$73
     a1b: 18           	clc
     a1c: 65 12        	adc	$12                     ; 0x2012 <__umodsi3+0x4c>
     a1e: a8           	tay
     a1f: a6 28        	ldx	$28                     ; 0x2028 <__umodsi3+0x62>
     a21: 86 12        	stx	$12                     ; 0x2012 <__umodsi3+0x4c>
     a23: a9 22        	lda	#$22
     a25: 65 12        	adc	$12                     ; 0x2012 <__umodsi3+0x4c>
     a27: 84 12        	sty	$12                     ; 0x2012 <__umodsi3+0x4c>
     a29: 85 13        	sta	$13                     ; 0x2013 <__umodsi3+0x4d>
     a2b: a6 34        	ldx	$34                     ; 0x2034 <__umodsi3+0x6e>
     a2d: 86 14        	stx	$14                     ; 0x2014 <__umodsi3+0x4e>
     a2f: a6 35        	ldx	$35                     ; 0x2035 <__umodsi3+0x6f>
     a31: 86 15        	stx	$15                     ; 0x2015 <__umodsi3+0x4f>
     a33: a2 00        	ldx	#$0
     a35: a9 40        	lda	#$40
     a37: 20 74 0b     	jsr	$b74 <fileRead>
     a3a: a5 26        	lda	$26                     ; 0x2026 <__umodsi3+0x60>
     a3c: 18           	clc
     a3d: 69 40        	adc	#$40
     a3f: 85 12        	sta	$12                     ; 0x2012 <__umodsi3+0x4c>
     a41: a5 28        	lda	$28                     ; 0x2028 <__umodsi3+0x62>
     a43: 69 00        	adc	#$0
     a45: 85 28        	sta	$28                     ; 0x2028 <__umodsi3+0x62>
     a47: c9 20        	cmp	#$20
     a49: d0 0e        	bne	$a59 <f256main+0x25e>
     a4b: a6 29        	ldx	$29                     ; 0x2029 <__umodsi3+0x63>
     a4d: a4 2a        	ldy	$2a                     ; 0x202a <__umodsi3+0x64>
     a4f: a5 12        	lda	$12                     ; 0x2012 <__umodsi3+0x4c>
     a51: d0 0c        	bne	$a5f <f256main+0x264>
     a53: a9 00        	lda	#$0
     a55: 64 28        	stz	$28                     ; 0x2028 <__umodsi3+0x62>
     a57: 80 06        	bra	$a5f <f256main+0x264>
     a59: a6 29        	ldx	$29                     ; 0x2029 <__umodsi3+0x63>
     a5b: a4 2a        	ldy	$2a                     ; 0x202a <__umodsi3+0x64>
     a5d: a5 12        	lda	$12                     ; 0x2012 <__umodsi3+0x4c>
     a5f: 85 26        	sta	$26                     ; 0x2026 <__umodsi3+0x60>
     a61: e8           	inx
     a62: d0 01        	bne	$a65 <f256main+0x26a>
     a64: c8           	iny
     a65: c4 25        	cpy	$25                     ; 0x2025 <__umodsi3+0x5f>
     a67: f0 03        	beq	$a6c <f256main+0x271>
     a69: 4c e7 0a     	jmp	$ae7 <f256main+0x2ec>
     a6c: e4 24        	cpx	$24                     ; 0x2024 <__umodsi3+0x5e>
     a6e: f0 03        	beq	$a73 <f256main+0x278>
     a70: 4c e7 0a     	jmp	$ae7 <f256main+0x2ec>
     a73: a2 b2        	ldx	#$b2
     a75: 86 12        	stx	$12                     ; 0x2012 <__umodsi3+0x4c>
     a77: a2 21        	ldx	#$21
     a79: 86 13        	stx	$13                     ; 0x2013 <__umodsi3+0x4d>
     a7b: a6 12        	ldx	$12                     ; 0x2012 <__umodsi3+0x4c>
     a7d: 86 3f        	stx	$3f                     ; 0x203f <__umodsi3+0x79>
     a7f: a6 13        	ldx	$13                     ; 0x2013 <__umodsi3+0x4d>
     a81: 86 40        	stx	$40                     ; 0x2040 <__umodsi3+0x7a>
     a83: ae 04 d7     	ldx	$d704                   ; 0xd704 <__heap_start+0x9490>
     a86: 86 12        	stx	$12                     ; 0x2012 <__umodsi3+0x4c>
     a88: ad 05 d7     	lda	$d705                   ; 0xd705 <__heap_start+0x9491>
     a8b: 29 0f        	and	#$f
     a8d: 85 13        	sta	$13                     ; 0x2013 <__umodsi3+0x4d>
     a8f: a9 00        	lda	#$0
     a91: 38           	sec
     a92: e5 12        	sbc	$12                     ; 0x2012 <__umodsi3+0x4c>
     a94: 85 12        	sta	$12                     ; 0x2012 <__umodsi3+0x4c>
     a96: a9 08        	lda	#$8
     a98: e5 13        	sbc	$13                     ; 0x2013 <__umodsi3+0x4d>
     a9a: 06 12        	asl	$12                     ; 0x2012 <__umodsi3+0x4c>
     a9c: 2a           	rol
     a9d: 64 25        	stz	$25                     ; 0x2025 <__umodsi3+0x5f>
     a9f: 26 25        	rol	$25                     ; 0x2025 <__umodsi3+0x5f>
     aa1: 06 12        	asl	$12                     ; 0x2012 <__umodsi3+0x4c>
     aa3: 2a           	rol
     aa4: 85 24        	sta	$24                     ; 0x2024 <__umodsi3+0x5e>
     aa6: 26 25        	rol	$25                     ; 0x2025 <__umodsi3+0x5f>
     aa8: 64 30        	stz	$30                     ; 0x2030 <__umodsi3+0x6a>
     aaa: 9c 14 d0     	stz	$d014                   ; 0xd014 <__heap_start+0x8da0>
     aad: 9c 15 d0     	stz	$d015                   ; 0xd015 <__heap_start+0x8da1>
     ab0: a2 07        	ldx	#$7
     ab2: 86 31        	stx	$31                     ; 0x2031 <__umodsi3+0x6b>
     ab4: 8e 16 d0     	stx	$d016                   ; 0xd016 <__heap_start+0x8da2>
     ab7: 9c 17 d0     	stz	$d017                   ; 0xd017 <__heap_start+0x8da3>
     aba: 38           	sec
     abb: a9 20        	lda	#$20
     abd: e5 24        	sbc	$24                     ; 0x2024 <__umodsi3+0x5e>
     abf: a8           	tay
     ac0: a9 00        	lda	#$0
     ac2: e5 25        	sbc	$25                     ; 0x2025 <__umodsi3+0x5f>
     ac4: 64 12        	stz	$12                     ; 0x2012 <__umodsi3+0x4c>
     ac6: 64 13        	stz	$13                     ; 0x2013 <__umodsi3+0x4d>
     ac8: aa           	tax
     ac9: 98           	tya
     aca: 20 5d 0e     	jsr	$e5d <textPrintUInt>
     acd: a6 3f        	ldx	$3f                     ; 0x203f <__umodsi3+0x79>
     acf: 86 12        	stx	$12                     ; 0x2012 <__umodsi3+0x4c>
     ad1: a6 40        	ldx	$40                     ; 0x2040 <__umodsi3+0x7a>
     ad3: 86 13        	stx	$13                     ; 0x2013 <__umodsi3+0x4d>
     ad5: 20 a5 0c     	jsr	$ca5 <textPrint>
     ad8: a5 25        	lda	$25                     ; 0x2025 <__umodsi3+0x5f>
     ada: d0 07        	bne	$ae3 <f256main+0x2e8>
     adc: a5 24        	lda	$24                     ; 0x2024 <__umodsi3+0x5e>
     ade: d0 03        	bne	$ae3 <f256main+0x2e8>
     ae0: 4c 83 0a     	jmp	$a83 <f256main+0x288>
     ae3: a2 00        	ldx	#$0
     ae5: a0 00        	ldy	#$0
     ae7: 84 2a        	sty	$2a                     ; 0x202a <__umodsi3+0x64>
     ae9: 86 29        	stx	$29                     ; 0x2029 <__umodsi3+0x63>
     aeb: a9 73        	lda	#$73
     aed: 18           	clc
     aee: 65 27        	adc	$27                     ; 0x2027 <__umodsi3+0x61>
     af0: a8           	tay
     af1: a6 41        	ldx	$41                     ; 0x2041 <__umodsi3+0x7b>
     af3: 86 12        	stx	$12                     ; 0x2012 <__umodsi3+0x4c>
     af5: a9 22        	lda	#$22
     af7: 65 12        	adc	$12                     ; 0x2012 <__umodsi3+0x4c>
     af9: 84 12        	sty	$12                     ; 0x2012 <__umodsi3+0x4c>
     afb: 85 13        	sta	$13                     ; 0x2013 <__umodsi3+0x4d>
     afd: a0 00        	ldy	#$0
     aff: b1 12        	lda	($12),y                 ; 0x2012 <__umodsi3+0x4c>
     b01: 8d 07 d7     	sta	$d707                   ; 0xd707 <__heap_start+0x9493>
     b04: c8           	iny
     b05: c0 40        	cpy	#$40
     b07: d0 f6        	bne	$aff <f256main+0x304>
     b09: 18           	clc
     b0a: a5 27        	lda	$27                     ; 0x2027 <__umodsi3+0x61>
     b0c: 69 40        	adc	#$40
     b0e: aa           	tax
     b0f: a5 41        	lda	$41                     ; 0x2041 <__umodsi3+0x7b>
     b11: 69 00        	adc	#$0
     b13: 85 41        	sta	$41                     ; 0x2041 <__umodsi3+0x7b>
     b15: c9 20        	cmp	#$20
     b17: f0 03        	beq	$b1c <f256main+0x321>
     b19: 4c 13 0a     	jmp	$a13 <f256main+0x218>
     b1c: a4 26        	ldy	$26                     ; 0x2026 <__umodsi3+0x60>
     b1e: 84 12        	sty	$12                     ; 0x2012 <__umodsi3+0x4c>
     b20: 86 27        	stx	$27                     ; 0x2027 <__umodsi3+0x61>
     b22: 8a           	txa
     b23: f0 03        	beq	$b28 <f256main+0x32d>
     b25: 4c 19 0a     	jmp	$a19 <f256main+0x21e>
     b28: 64 27        	stz	$27                     ; 0x2027 <__umodsi3+0x61>
     b2a: a2 00        	ldx	#$0
     b2c: 86 41        	stx	$41                     ; 0x2041 <__umodsi3+0x7b>
     b2e: 4c 19 0a     	jmp	$a19 <f256main+0x21e>
     b31: ae 73 22     	ldx	$2273                   ; 0x2273 <__data_load_start+0x5>
     b34: 86 26        	stx	$26                     ; 0x2026 <__umodsi3+0x60>
     b36: 64 37        	stz	$37                     ; 0x2037 <__umodsi3+0x71>
     b38: 20 00 ff     	jsr	$ff00 <__heap_start+0xbc8c>
     b3b: 92 12        	sta	($12)                   ; 0x2012 <__umodsi3+0x4c>
     b3d: a9 00        	lda	#$0
     b3f: 6a           	ror
     b40: 85 14        	sta	$14                     ; 0x2014 <__umodsi3+0x4e>
     b42: a6 37        	ldx	$37                     ; 0x2037 <__umodsi3+0x71>
     b44: e0 28        	cpx	#$28
     b46: d0 03        	bne	$b4b <f256main+0x350>
     b48: 4c df 08     	jmp	$8df <f256main+0xe4>
     b4b: e0 38        	cpx	#$38
     b4d: d0 03        	bne	$b52 <f256main+0x357>
     b4f: 4c df 08     	jmp	$8df <f256main+0xe4>
     b52: e0 2a        	cpx	#$2a
     b54: d0 e0        	bne	$b36 <f256main+0x33b>
     b56: a9 01        	lda	#$1
     b58: a2 00        	ldx	#$0
     b5a: 20 be 1c     	jsr	$1cbe <malloc>
     b5d: a6 12        	ldx	$12                     ; 0x2012 <__umodsi3+0x4c>
     b5f: 86 24        	stx	$24                     ; 0x2024 <__umodsi3+0x5e>
     b61: a6 13        	ldx	$13                     ; 0x2013 <__umodsi3+0x4d>
     b63: 86 25        	stx	$25                     ; 0x2025 <__umodsi3+0x5f>
     b65: a5 26        	lda	$26                     ; 0x2026 <__umodsi3+0x60>
     b67: 92 12        	sta	($12)                   ; 0x2012 <__umodsi3+0x4c>
     b69: a6 24        	ldx	$24                     ; 0x2024 <__umodsi3+0x5e>
     b6b: a4 25        	ldy	$25                     ; 0x2025 <__umodsi3+0x5f>
     b6d: 86 34        	stx	$34                     ; 0x2034 <__umodsi3+0x6e>
     b6f: 84 35        	sty	$35                     ; 0x2035 <__umodsi3+0x6f>
     b71: 4c 0c 09     	jmp	$90c <f256main+0x111>

00000b74 <fileRead>:
     b74: 85 16        	sta	$16                     ; 0x2016 <__umodsi3+0x50>
     b76: 86 17        	stx	$17                     ; 0x2017 <__umodsi3+0x51>
     b78: 64 18        	stz	$18                     ; 0x2018 <__umodsi3+0x52>
     b7a: a6 12        	ldx	$12                     ; 0x2012 <__umodsi3+0x4c>
     b7c: 86 1a        	stx	$1a                     ; 0x201a <__umodsi3+0x54>
     b7e: a6 13        	ldx	$13                     ; 0x2013 <__umodsi3+0x4d>
     b80: 86 1b        	stx	$1b                     ; 0x201b <__umodsi3+0x55>
     b82: a2 42        	ldx	#$42
     b84: a0 00        	ldy	#$0
     b86: a9 36        	lda	#$36
     b88: 85 12        	sta	$12                     ; 0x2012 <__umodsi3+0x4c>
     b8a: a9 00        	lda	#$0
     b8c: 85 13        	sta	$13                     ; 0x2013 <__umodsi3+0x4d>
     b8e: 64 19        	stz	$19                     ; 0x2019 <__umodsi3+0x53>
     b90: b2 14        	lda	($14)                   ; 0x2014 <__umodsi3+0x4e>
     b92: 85 1d        	sta	$1d                     ; 0x201d <__umodsi3+0x57>
     b94: a5 1a        	lda	$1a                     ; 0x201a <__umodsi3+0x54>
     b96: 85 1e        	sta	$1e                     ; 0x201e <__umodsi3+0x58>
     b98: a5 1a        	lda	$1a                     ; 0x201a <__umodsi3+0x54>
     b9a: 18           	clc
     b9b: 65 18        	adc	$18                     ; 0x2018 <__umodsi3+0x52>
     b9d: 85 1c        	sta	$1c                     ; 0x201c <__umodsi3+0x56>
     b9f: a5 1b        	lda	$1b                     ; 0x201b <__umodsi3+0x55>
     ba1: 85 1f        	sta	$1f                     ; 0x201f <__umodsi3+0x59>
     ba3: a5 1b        	lda	$1b                     ; 0x201b <__umodsi3+0x55>
     ba5: 65 19        	adc	$19                     ; 0x2019 <__umodsi3+0x53>
     ba7: e6 1d        	inc	$1d                     ; 0x201d <__umodsi3+0x57>
     ba9: c6 1d        	dec	$1d                     ; 0x201d <__umodsi3+0x57>
     bab: d0 03        	bne	$bb0 <fileRead+0x3c>
     bad: 4c 2d 0c     	jmp	$c2d <fileRead+0xb9>
     bb0: 5a           	phy
     bb1: a4 1d        	ldy	$1d                     ; 0x201d <__umodsi3+0x57>
     bb3: 84 1a        	sty	$1a                     ; 0x201a <__umodsi3+0x54>
     bb5: 7a           	ply
     bb6: 85 1d        	sta	$1d                     ; 0x201d <__umodsi3+0x57>
     bb8: a5 16        	lda	$16                     ; 0x2016 <__umodsi3+0x50>
     bba: 38           	sec
     bbb: e5 18        	sbc	$18                     ; 0x2018 <__umodsi3+0x52>
     bbd: 85 1b        	sta	$1b                     ; 0x201b <__umodsi3+0x55>
     bbf: a5 1a        	lda	$1a                     ; 0x201a <__umodsi3+0x54>
     bc1: 85 f3        	sta	$f3                     ; 0x20f3 <__umodsi3+0x12d>
     bc3: a5 1b        	lda	$1b                     ; 0x201b <__umodsi3+0x55>
     bc5: 85 f4        	sta	$f4                     ; 0x20f4 <__umodsi3+0x12e>
     bc7: a9 44        	lda	#$44
     bc9: 85 1a        	sta	$1a                     ; 0x201a <__umodsi3+0x54>
     bcb: a9 00        	lda	#$0
     bcd: 85 1b        	sta	$1b                     ; 0x201b <__umodsi3+0x55>
     bcf: 20 60 ff     	jsr	$ff60 <__heap_start+0xbcec>
     bd2: 92 1a        	sta	($1a)                   ; 0x201a <__umodsi3+0x54>
     bd4: a9 00        	lda	#$0
     bd6: 6a           	ror
     bd7: 85 12        	sta	$12                     ; 0x2012 <__umodsi3+0x4c>
     bd9: a5 36        	lda	$36                     ; 0x2036 <__umodsi3+0x70>
     bdb: f0 03        	beq	$be0 <fileRead+0x6c>
     bdd: 4c 9d 0c     	jmp	$c9d <fileRead+0x129>
     be0: 64 37        	stz	$37                     ; 0x2037 <__umodsi3+0x71>
     be2: a9 45        	lda	#$45
     be4: 85 1a        	sta	$1a                     ; 0x201a <__umodsi3+0x54>
     be6: a9 00        	lda	#$0
     be8: 85 1b        	sta	$1b                     ; 0x201b <__umodsi3+0x55>
     bea: 20 00 ff     	jsr	$ff00 <__heap_start+0xbc8c>
     bed: 92 1a        	sta	($1a)                   ; 0x201a <__umodsi3+0x54>
     bef: a9 00        	lda	#$0
     bf1: 6a           	ror
     bf2: 85 12        	sta	$12                     ; 0x2012 <__umodsi3+0x4c>
     bf4: a5 37        	lda	$37                     ; 0x2037 <__umodsi3+0x71>
     bf6: c9 38        	cmp	#$38
     bf8: d0 03        	bne	$bfd <fileRead+0x89>
     bfa: 4c 9d 0c     	jmp	$c9d <fileRead+0x129>
     bfd: c9 30        	cmp	#$30
     bff: d0 03        	bne	$c04 <fileRead+0x90>
     c01: 4c 9d 0c     	jmp	$c9d <fileRead+0x129>
     c04: c9 2c        	cmp	#$2c
     c06: d0 d8        	bne	$be0 <fileRead+0x6c>
     c08: a5 1c        	lda	$1c                     ; 0x201c <__umodsi3+0x56>
     c0a: 85 fb        	sta	$fb                     ; 0x20fb <__umodsi3+0x135>
     c0c: a5 1d        	lda	$1d                     ; 0x201d <__umodsi3+0x57>
     c0e: 85 fc        	sta	$fc                     ; 0x20fc <__umodsi3+0x136>
     c10: a5 3d        	lda	$3d                     ; 0x203d <__umodsi3+0x77>
     c12: 85 fd        	sta	$fd                     ; 0x20fd <__umodsi3+0x137>
     c14: a9 46        	lda	#$46
     c16: 85 1a        	sta	$1a                     ; 0x201a <__umodsi3+0x54>
     c18: a9 00        	lda	#$0
     c1a: 85 1b        	sta	$1b                     ; 0x201b <__umodsi3+0x55>
     c1c: 20 04 ff     	jsr	$ff04 <__heap_start+0xbc90>
     c1f: 92 1a        	sta	($1a)                   ; 0x201a <__umodsi3+0x54>
     c21: a9 00        	lda	#$0
     c23: 6a           	ror
     c24: 85 12        	sta	$12                     ; 0x2012 <__umodsi3+0x4c>
     c26: a5 3d        	lda	$3d                     ; 0x203d <__umodsi3+0x77>
     c28: d0 45        	bne	$c6f <fileRead+0xfb>
     c2a: 4c 9e 0c     	jmp	$c9e <fileRead+0x12a>
     c2d: 5a           	phy
     c2e: a4 1c        	ldy	$1c                     ; 0x201c <__umodsi3+0x56>
     c30: 84 1a        	sty	$1a                     ; 0x201a <__umodsi3+0x54>
     c32: 7a           	ply
     c33: 85 1b        	sta	$1b                     ; 0x201b <__umodsi3+0x55>
     c35: 80 0a        	bra	$c41 <fileRead+0xcd>
     c37: a5 37        	lda	$37                     ; 0x2037 <__umodsi3+0x71>
     c39: c9 08        	cmp	#$8
     c3b: d0 04        	bne	$c41 <fileRead+0xcd>
     c3d: a5 3d        	lda	$3d                     ; 0x203d <__umodsi3+0x77>
     c3f: f0 28        	beq	$c69 <fileRead+0xf5>
     c41: 64 37        	stz	$37                     ; 0x2037 <__umodsi3+0x71>
     c43: 86 1c        	stx	$1c                     ; 0x201c <__umodsi3+0x56>
     c45: 84 1d        	sty	$1d                     ; 0x201d <__umodsi3+0x57>
     c47: 20 00 ff     	jsr	$ff00 <__heap_start+0xbc8c>
     c4a: 92 1c        	sta	($1c)                   ; 0x201c <__umodsi3+0x56>
     c4c: a9 00        	lda	#$0
     c4e: 6a           	ror
     c4f: 85 12        	sta	$12                     ; 0x2012 <__umodsi3+0x4c>
     c51: a5 36        	lda	$36                     ; 0x2036 <__umodsi3+0x70>
     c53: f0 e2        	beq	$c37 <fileRead+0xc3>
     c55: a9 43        	lda	#$43
     c57: 85 1c        	sta	$1c                     ; 0x201c <__umodsi3+0x56>
     c59: a9 00        	lda	#$0
     c5b: 85 1d        	sta	$1d                     ; 0x201d <__umodsi3+0x57>
     c5d: 20 0c ff     	jsr	$ff0c <__heap_start+0xbc98>
     c60: 92 1c        	sta	($1c)                   ; 0x201c <__umodsi3+0x56>
     c62: a9 00        	lda	#$0
     c64: 6a           	ror
     c65: 85 12        	sta	$12                     ; 0x2012 <__umodsi3+0x4c>
     c67: 80 d8        	bra	$c41 <fileRead+0xcd>
     c69: a5 3c        	lda	$3c                     ; 0x203c <__umodsi3+0x76>
     c6b: 92 1a        	sta	($1a)                   ; 0x201a <__umodsi3+0x54>
     c6d: a9 01        	lda	#$1
     c6f: 85 47        	sta	$47                     ; 0x2047 <__umodsi3+0x81>
     c71: a9 00        	lda	#$0
     c73: 85 48        	sta	$48                     ; 0x2048 <__umodsi3+0x82>
     c75: 18           	clc
     c76: a5 47        	lda	$47                     ; 0x2047 <__umodsi3+0x81>
     c78: 65 18        	adc	$18                     ; 0x2018 <__umodsi3+0x52>
     c7a: 85 18        	sta	$18                     ; 0x2018 <__umodsi3+0x52>
     c7c: a5 48        	lda	$48                     ; 0x2048 <__umodsi3+0x82>
     c7e: 65 19        	adc	$19                     ; 0x2019 <__umodsi3+0x53>
     c80: c5 17        	cmp	$17                     ; 0x2017 <__umodsi3+0x51>
     c82: d0 08        	bne	$c8c <fileRead+0x118>
     c84: 85 19        	sta	$19                     ; 0x2019 <__umodsi3+0x53>
     c86: a5 18        	lda	$18                     ; 0x2018 <__umodsi3+0x52>
     c88: c5 16        	cmp	$16                     ; 0x2016 <__umodsi3+0x50>
     c8a: 80 04        	bra	$c90 <fileRead+0x11c>
     c8c: c5 17        	cmp	$17                     ; 0x2017 <__umodsi3+0x51>
     c8e: 85 19        	sta	$19                     ; 0x2019 <__umodsi3+0x53>
     c90: a5 1e        	lda	$1e                     ; 0x201e <__umodsi3+0x58>
     c92: 85 1a        	sta	$1a                     ; 0x201a <__umodsi3+0x54>
     c94: a5 1f        	lda	$1f                     ; 0x201f <__umodsi3+0x59>
     c96: 85 1b        	sta	$1b                     ; 0x201b <__umodsi3+0x55>
     c98: b0 03        	bcs	$c9d <fileRead+0x129>
     c9a: 4c 90 0b     	jmp	$b90 <fileRead+0x1c>
     c9d: 60           	rts
     c9e: a9 00        	lda	#$0
     ca0: 85 47        	sta	$47                     ; 0x2047 <__umodsi3+0x81>
     ca2: 1a           	inc
     ca3: 80 ce        	bra	$c73 <fileRead+0xff>

00000ca5 <textPrint>:
     ca5: a6 01        	ldx	$1                      ; 0x2001 <__umodsi3+0x3b>
     ca7: 86 99        	stx	$99                     ; 0x2099 <__umodsi3+0xd3>
     ca9: a6 31        	ldx	$31                     ; 0x2031 <__umodsi3+0x6b>
     cab: a0 50        	ldy	#$50
     cad: 8c 00 de     	sty	$de00                   ; 0xde00 <__heap_start+0x9b8c>
     cb0: 9c 01 de     	stz	$de01                   ; 0xde01 <__heap_start+0x9b8d>
     cb3: 8e 02 de     	stx	$de02                   ; 0xde02 <__heap_start+0x9b8e>
     cb6: 9c 03 de     	stz	$de03                   ; 0xde03 <__heap_start+0x9b8f>
     cb9: ae 10 de     	ldx	$de10                   ; 0xde10 <__heap_start+0x9b9c>
     cbc: ac 11 de     	ldy	$de11                   ; 0xde11 <__heap_start+0x9b9d>
     cbf: 84 15        	sty	$15                     ; 0x2015 <__umodsi3+0x4f>
     cc1: ad 12 de     	lda	$de12                   ; 0xde12 <__heap_start+0x9b9e>
     cc4: ac 13 de     	ldy	$de13                   ; 0xde13 <__heap_start+0x9b9f>
     cc7: 84 1c        	sty	$1c                     ; 0x201c <__umodsi3+0x56>
     cc9: 9c 08 de     	stz	$de08                   ; 0xde08 <__heap_start+0x9b94>
     ccc: a0 c0        	ldy	#$c0
     cce: 8c 09 de     	sty	$de09                   ; 0xde09 <__heap_start+0x9b95>
     cd1: 9c 0a de     	stz	$de0a                   ; 0xde0a <__heap_start+0x9b96>
     cd4: 9c 0b de     	stz	$de0b                   ; 0xde0b <__heap_start+0x9b97>
     cd7: 8e 0c de     	stx	$de0c                   ; 0xde0c <__heap_start+0x9b98>
     cda: 64 14        	stz	$14                     ; 0x2014 <__umodsi3+0x4e>
     cdc: a2 00        	ldx	#$0
     cde: 86 16        	stx	$16                     ; 0x2016 <__umodsi3+0x50>
     ce0: a2 c0        	ldx	#$c0
     ce2: 86 17        	stx	$17                     ; 0x2017 <__umodsi3+0x51>
     ce4: a2 11        	ldx	#$11
     ce6: 86 18        	stx	$18                     ; 0x2018 <__umodsi3+0x52>
     ce8: a2 c9        	ldx	#$c9
     cea: 86 19        	stx	$19                     ; 0x2019 <__umodsi3+0x53>
     cec: a2 10        	ldx	#$10
     cee: 86 1a        	stx	$1a                     ; 0x201a <__umodsi3+0x54>
     cf0: a2 c9        	ldx	#$c9
     cf2: 86 1b        	stx	$1b                     ; 0x201b <__umodsi3+0x55>
     cf4: a6 15        	ldx	$15                     ; 0x2015 <__umodsi3+0x4f>
     cf6: 8e 0d de     	stx	$de0d                   ; 0xde0d <__heap_start+0x9b99>
     cf9: 8d 0e de     	sta	$de0e                   ; 0xde0e <__heap_start+0x9b9a>
     cfc: a6 1c        	ldx	$1c                     ; 0x201c <__umodsi3+0x56>
     cfe: 8e 0f de     	stx	$de0f                   ; 0xde0f <__heap_start+0x9b9b>
     d01: ac 18 de     	ldy	$de18                   ; 0xde18 <__heap_start+0x9ba4>
     d04: ad 19 de     	lda	$de19                   ; 0xde19 <__heap_start+0x9ba5>
     d07: ae 1a de     	ldx	$de1a                   ; 0xde1a <__heap_start+0x9ba6>
     d0a: ae 1b de     	ldx	$de1b                   ; 0xde1b <__heap_start+0x9ba7>
     d0d: 84 1c        	sty	$1c                     ; 0x201c <__umodsi3+0x56>
     d0f: 85 1d        	sta	$1d                     ; 0x201d <__umodsi3+0x57>
     d11: 64 15        	stz	$15                     ; 0x2015 <__umodsi3+0x4f>
     d13: 80 13        	bra	$d28 <textPrint+0x83>
     d15: a5 1c        	lda	$1c                     ; 0x201c <__umodsi3+0x56>
     d17: 18           	clc
     d18: 69 50        	adc	#$50
     d1a: 85 1c        	sta	$1c                     ; 0x201c <__umodsi3+0x56>
     d1c: a5 1d        	lda	$1d                     ; 0x201d <__umodsi3+0x57>
     d1e: 69 00        	adc	#$0
     d20: 85 1d        	sta	$1d                     ; 0x201d <__umodsi3+0x57>
     d22: e6 14        	inc	$14                     ; 0x2014 <__umodsi3+0x4e>
     d24: d0 02        	bne	$d28 <textPrint+0x83>
     d26: e6 15        	inc	$15                     ; 0x2015 <__umodsi3+0x4f>
     d28: a5 12        	lda	$12                     ; 0x2012 <__umodsi3+0x4c>
     d2a: 18           	clc
     d2b: 65 14        	adc	$14                     ; 0x2014 <__umodsi3+0x4e>
     d2d: 85 1e        	sta	$1e                     ; 0x201e <__umodsi3+0x58>
     d2f: a5 13        	lda	$13                     ; 0x2013 <__umodsi3+0x4d>
     d31: 65 15        	adc	$15                     ; 0x2015 <__umodsi3+0x4f>
     d33: 85 1f        	sta	$1f                     ; 0x201f <__umodsi3+0x59>
     d35: b2 1e        	lda	($1e)                   ; 0x201e <__umodsi3+0x58>
     d37: c9 0a        	cmp	#$a
     d39: f0 26        	beq	$d61 <textPrint+0xbc>
     d3b: c9 0d        	cmp	#$d
     d3d: f0 22        	beq	$d61 <textPrint+0xbc>
     d3f: aa           	tax
     d40: d0 03        	bne	$d45 <textPrint+0xa0>
     d42: 4c 46 0e     	jmp	$e46 <textPrint+0x1a1>
     d45: a2 03        	ldx	#$3
     d47: 86 01        	stx	$1                      ; 0x2001 <__umodsi3+0x3b>
     d49: a4 30        	ldy	$30                     ; 0x2030 <__umodsi3+0x6a>
     d4b: a9 f0        	lda	#$f0
     d4d: 91 1c        	sta	($1c),y                 ; 0x201c <__umodsi3+0x56>
     d4f: ca           	dex
     d50: 86 01        	stx	$1                      ; 0x2001 <__umodsi3+0x3b>
     d52: b2 1e        	lda	($1e)                   ; 0x201e <__umodsi3+0x58>
     d54: a4 30        	ldy	$30                     ; 0x2030 <__umodsi3+0x6a>
     d56: 91 1c        	sta	($1c),y                 ; 0x201c <__umodsi3+0x56>
     d58: a6 30        	ldx	$30                     ; 0x2030 <__umodsi3+0x6a>
     d5a: e8           	inx
     d5b: e6 30        	inc	$30                     ; 0x2030 <__umodsi3+0x6a>
     d5d: e0 50        	cpx	#$50
     d5f: d0 c1        	bne	$d22 <textPrint+0x7d>
     d61: 64 30        	stz	$30                     ; 0x2030 <__umodsi3+0x6a>
     d63: a6 31        	ldx	$31                     ; 0x2031 <__umodsi3+0x6b>
     d65: e8           	inx
     d66: e6 31        	inc	$31                     ; 0x2031 <__umodsi3+0x6b>
     d68: e0 1e        	cpx	#$1e
     d6a: f0 03        	beq	$d6f <textPrint+0xca>
     d6c: 4c 15 0d     	jmp	$d15 <textPrint+0x70>
     d6f: a2 03        	ldx	#$3
     d71: 86 01        	stx	$1                      ; 0x2001 <__umodsi3+0x3b>
     d73: a2 01        	ldx	#$1
     d75: 86 1c        	stx	$1c                     ; 0x201c <__umodsi3+0x56>
     d77: a2 09        	ldx	#$9
     d79: a0 10        	ldy	#$10
     d7b: a9 00        	lda	#$0
     d7d: 85 1e        	sta	$1e                     ; 0x201e <__umodsi3+0x58>
     d7f: a9 c0        	lda	#$c0
     d81: 85 1f        	sta	$1f                     ; 0x201f <__umodsi3+0x59>
     d83: 84 1d        	sty	$1d                     ; 0x201d <__umodsi3+0x57>
     d85: a0 50        	ldy	#$50
     d87: b1 1e        	lda	($1e),y                 ; 0x201e <__umodsi3+0x58>
     d89: 92 1e        	sta	($1e)                   ; 0x201e <__umodsi3+0x58>
     d8b: a9 ff        	lda	#$ff
     d8d: c6 1d        	dec	$1d                     ; 0x201d <__umodsi3+0x57>
     d8f: c5 1d        	cmp	$1d                     ; 0x201d <__umodsi3+0x57>
     d91: d0 01        	bne	$d94 <textPrint+0xef>
     d93: ca           	dex
     d94: e6 1e        	inc	$1e                     ; 0x201e <__umodsi3+0x58>
     d96: d0 02        	bne	$d9a <textPrint+0xf5>
     d98: e6 1f        	inc	$1f                     ; 0x201f <__umodsi3+0x59>
     d9a: 8a           	txa
     d9b: d0 ea        	bne	$d87 <textPrint+0xe2>
     d9d: a5 1d        	lda	$1d                     ; 0x201d <__umodsi3+0x57>
     d9f: d0 e6        	bne	$d87 <textPrint+0xe2>
     da1: a2 02        	ldx	#$2
     da3: 86 01        	stx	$1                      ; 0x2001 <__umodsi3+0x3b>
     da5: a2 00        	ldx	#$0
     da7: a5 1c        	lda	$1c                     ; 0x201c <__umodsi3+0x56>
     da9: d0 ca        	bne	$d75 <textPrint+0xd0>
     dab: a2 03        	ldx	#$3
     dad: 86 01        	stx	$1                      ; 0x2001 <__umodsi3+0x3b>
     daf: a2 50        	ldx	#$50
     db1: a0 11        	ldy	#$11
     db3: 84 1c        	sty	$1c                     ; 0x201c <__umodsi3+0x56>
     db5: a0 c9        	ldy	#$c9
     db7: 84 1d        	sty	$1d                     ; 0x201d <__umodsi3+0x57>
     db9: a0 10        	ldy	#$10
     dbb: 84 1e        	sty	$1e                     ; 0x201e <__umodsi3+0x58>
     dbd: a0 c9        	ldy	#$c9
     dbf: 84 1f        	sty	$1f                     ; 0x201f <__umodsi3+0x59>
     dc1: a9 f0        	lda	#$f0
     dc3: a4 1c        	ldy	$1c                     ; 0x201c <__umodsi3+0x56>
     dc5: 84 22        	sty	$22                     ; 0x2022 <__umodsi3+0x5c>
     dc7: a4 1d        	ldy	$1d                     ; 0x201d <__umodsi3+0x57>
     dc9: 84 23        	sty	$23                     ; 0x2023 <__umodsi3+0x5d>
     dcb: 92 1e        	sta	($1e)                   ; 0x201e <__umodsi3+0x58>
     dcd: e6 1c        	inc	$1c                     ; 0x201c <__umodsi3+0x56>
     dcf: d0 02        	bne	$dd3 <textPrint+0x12e>
     dd1: e6 1d        	inc	$1d                     ; 0x201d <__umodsi3+0x57>
     dd3: ca           	dex
     dd4: a4 22        	ldy	$22                     ; 0x2022 <__umodsi3+0x5c>
     dd6: 84 1e        	sty	$1e                     ; 0x201e <__umodsi3+0x58>
     dd8: a4 23        	ldy	$23                     ; 0x2023 <__umodsi3+0x5d>
     dda: 84 1f        	sty	$1f                     ; 0x201f <__umodsi3+0x59>
     ddc: e0 00        	cpx	#$0
     dde: d0 e3        	bne	$dc3 <textPrint+0x11e>
     de0: a2 02        	ldx	#$2
     de2: 86 01        	stx	$1                      ; 0x2001 <__umodsi3+0x3b>
     de4: a2 50        	ldx	#$50
     de6: a0 11        	ldy	#$11
     de8: 84 1c        	sty	$1c                     ; 0x201c <__umodsi3+0x56>
     dea: a0 c9        	ldy	#$c9
     dec: 84 1d        	sty	$1d                     ; 0x201d <__umodsi3+0x57>
     dee: a0 10        	ldy	#$10
     df0: 84 1e        	sty	$1e                     ; 0x201e <__umodsi3+0x58>
     df2: a0 c9        	ldy	#$c9
     df4: 84 1f        	sty	$1f                     ; 0x201f <__umodsi3+0x59>
     df6: a9 20        	lda	#$20
     df8: a4 1c        	ldy	$1c                     ; 0x201c <__umodsi3+0x56>
     dfa: 84 22        	sty	$22                     ; 0x2022 <__umodsi3+0x5c>
     dfc: a4 1d        	ldy	$1d                     ; 0x201d <__umodsi3+0x57>
     dfe: 84 23        	sty	$23                     ; 0x2023 <__umodsi3+0x5d>
     e00: 92 1e        	sta	($1e)                   ; 0x201e <__umodsi3+0x58>
     e02: e6 1c        	inc	$1c                     ; 0x201c <__umodsi3+0x56>
     e04: d0 02        	bne	$e08 <textPrint+0x163>
     e06: e6 1d        	inc	$1d                     ; 0x201d <__umodsi3+0x57>
     e08: ca           	dex
     e09: a4 22        	ldy	$22                     ; 0x2022 <__umodsi3+0x5c>
     e0b: 84 1e        	sty	$1e                     ; 0x201e <__umodsi3+0x58>
     e0d: a4 23        	ldy	$23                     ; 0x2023 <__umodsi3+0x5d>
     e0f: 84 1f        	sty	$1f                     ; 0x201f <__umodsi3+0x59>
     e11: e0 00        	cpx	#$0
     e13: d0 e3        	bne	$df8 <textPrint+0x153>
     e15: c6 31        	dec	$31                     ; 0x2031 <__umodsi3+0x6b>
     e17: 9c 08 de     	stz	$de08                   ; 0xde08 <__heap_start+0x9b94>
     e1a: a2 c0        	ldx	#$c0
     e1c: 8e 09 de     	stx	$de09                   ; 0xde09 <__heap_start+0x9b95>
     e1f: 9c 0a de     	stz	$de0a                   ; 0xde0a <__heap_start+0x9b96>
     e22: 9c 0b de     	stz	$de0b                   ; 0xde0b <__heap_start+0x9b97>
     e25: a2 1d        	ldx	#$1d
     e27: 8e 0c de     	stx	$de0c                   ; 0xde0c <__heap_start+0x9b98>
     e2a: 9c 0d de     	stz	$de0d                   ; 0xde0d <__heap_start+0x9b99>
     e2d: 9c 0e de     	stz	$de0e                   ; 0xde0e <__heap_start+0x9b9a>
     e30: 9c 0f de     	stz	$de0f                   ; 0xde0f <__heap_start+0x9b9b>
     e33: ae 18 de     	ldx	$de18                   ; 0xde18 <__heap_start+0x9ba4>
     e36: ac 19 de     	ldy	$de19                   ; 0xde19 <__heap_start+0x9ba5>
     e39: ad 1a de     	lda	$de1a                   ; 0xde1a <__heap_start+0x9ba6>
     e3c: ad 1b de     	lda	$de1b                   ; 0xde1b <__heap_start+0x9ba7>
     e3f: 86 1c        	stx	$1c                     ; 0x201c <__umodsi3+0x56>
     e41: 84 1d        	sty	$1d                     ; 0x201d <__umodsi3+0x57>
     e43: 4c 22 0d     	jmp	$d22 <textPrint+0x7d>
     e46: a6 99        	ldx	$99                     ; 0x2099 <__umodsi3+0xd3>
     e48: 86 01        	stx	$1                      ; 0x2001 <__umodsi3+0x3b>
     e4a: a6 30        	ldx	$30                     ; 0x2030 <__umodsi3+0x6a>
     e4c: a4 31        	ldy	$31                     ; 0x2031 <__umodsi3+0x6b>
     e4e: 8e 14 d0     	stx	$d014                   ; 0xd014 <__heap_start+0x8da0>
     e51: 9c 15 d0     	stz	$d015                   ; 0xd015 <__heap_start+0x8da1>
     e54: 84 31        	sty	$31                     ; 0x2031 <__umodsi3+0x6b>
     e56: 8c 16 d0     	sty	$d016                   ; 0xd016 <__heap_start+0x8da2>
     e59: 9c 17 d0     	stz	$d017                   ; 0xd017 <__heap_start+0x8da3>
     e5c: 60           	rts

00000e5d <textPrintUInt>:
     e5d: 48           	pha
     e5e: 18           	clc
     e5f: a5 10        	lda	$10                     ; 0x2010 <__umodsi3+0x4a>
     e61: 69 fe        	adc	#$fe
     e63: 85 10        	sta	$10                     ; 0x2010 <__umodsi3+0x4a>
     e65: a5 11        	lda	$11                     ; 0x2011 <__umodsi3+0x4b>
     e67: 69 ff        	adc	#$ff
     e69: 85 11        	sta	$11                     ; 0x2011 <__umodsi3+0x4b>
     e6b: 68           	pla
     e6c: a4 24        	ldy	$24                     ; 0x2024 <__umodsi3+0x5e>
     e6e: 5a           	phy
     e6f: a4 25        	ldy	$25                     ; 0x2025 <__umodsi3+0x5f>
     e71: 5a           	phy
     e72: a4 26        	ldy	$26                     ; 0x2026 <__umodsi3+0x60>
     e74: 5a           	phy
     e75: a4 27        	ldy	$27                     ; 0x2027 <__umodsi3+0x61>
     e77: 5a           	phy
     e78: 86 25        	stx	$25                     ; 0x2025 <__umodsi3+0x5f>
     e7a: a4 12        	ldy	$12                     ; 0x2012 <__umodsi3+0x4c>
     e7c: a6 13        	ldx	$13                     ; 0x2013 <__umodsi3+0x4d>
     e7e: d0 18        	bne	$e98 <textPrintUInt+0x3b>
     e80: 86 27        	stx	$27                     ; 0x2027 <__umodsi3+0x61>
     e82: c0 00        	cpy	#$0
     e84: f0 03        	beq	$e89 <textPrintUInt+0x2c>
     e86: 4c 08 0f     	jmp	$f08 <textPrintUInt+0xab>
     e89: a6 25        	ldx	$25                     ; 0x2025 <__umodsi3+0x5f>
     e8b: f0 03        	beq	$e90 <textPrintUInt+0x33>
     e8d: 4c 11 0f     	jmp	$f11 <textPrintUInt+0xb4>
     e90: 84 26        	sty	$26                     ; 0x2026 <__umodsi3+0x60>
     e92: c9 0a        	cmp	#$a
     e94: b0 0a        	bcs	$ea0 <textPrintUInt+0x43>
     e96: 80 29        	bra	$ec1 <textPrintUInt+0x64>
     e98: 84 26        	sty	$26                     ; 0x2026 <__umodsi3+0x60>
     e9a: 86 27        	stx	$27                     ; 0x2027 <__umodsi3+0x61>
     e9c: e0 00        	cpx	#$0
     e9e: 90 21        	bcc	$ec1 <textPrintUInt+0x64>
     ea0: 8d 06 de     	sta	$de06                   ; 0xde06 <__heap_start+0x9b92>
     ea3: a4 25        	ldy	$25                     ; 0x2025 <__umodsi3+0x5f>
     ea5: 8c 07 de     	sty	$de07                   ; 0xde07 <__heap_start+0x9b93>
     ea8: a2 0a        	ldx	#$a
     eaa: 8e 04 de     	stx	$de04                   ; 0xde04 <__heap_start+0x9b90>
     ead: 9c 05 de     	stz	$de05                   ; 0xde05 <__heap_start+0x9b91>
     eb0: 85 24        	sta	$24                     ; 0x2024 <__umodsi3+0x5e>
     eb2: ad 14 de     	lda	$de14                   ; 0xde14 <__heap_start+0x9ba0>
     eb5: ae 15 de     	ldx	$de15                   ; 0xde15 <__heap_start+0x9ba1>
     eb8: 64 12        	stz	$12                     ; 0x2012 <__umodsi3+0x4c>
     eba: 64 13        	stz	$13                     ; 0x2013 <__umodsi3+0x4d>
     ebc: 20 5d 0e     	jsr	$e5d <textPrintUInt>
     ebf: a5 24        	lda	$24                     ; 0x2024 <__umodsi3+0x5e>
     ec1: a2 0a        	ldx	#$a
     ec3: a4 26        	ldy	$26                     ; 0x2026 <__umodsi3+0x60>
     ec5: 84 12        	sty	$12                     ; 0x2012 <__umodsi3+0x4c>
     ec7: a4 27        	ldy	$27                     ; 0x2027 <__umodsi3+0x61>
     ec9: 84 13        	sty	$13                     ; 0x2013 <__umodsi3+0x4d>
     ecb: 86 14        	stx	$14                     ; 0x2014 <__umodsi3+0x4e>
     ecd: 64 15        	stz	$15                     ; 0x2015 <__umodsi3+0x4f>
     ecf: 64 16        	stz	$16                     ; 0x2016 <__umodsi3+0x50>
     ed1: 64 17        	stz	$17                     ; 0x2017 <__umodsi3+0x51>
     ed3: a6 25        	ldx	$25                     ; 0x2025 <__umodsi3+0x5f>
     ed5: 20 c6 1f     	jsr	$1fc6 <__umodsi3>
     ed8: 09 30        	ora	#$30
     eda: 18           	clc
     edb: a6 10        	ldx	$10                     ; 0x2010 <__umodsi3+0x4a>
     edd: 86 12        	stx	$12                     ; 0x2012 <__umodsi3+0x4c>
     edf: a6 11        	ldx	$11                     ; 0x2011 <__umodsi3+0x4b>
     ee1: 86 13        	stx	$13                     ; 0x2013 <__umodsi3+0x4d>
     ee3: 92 12        	sta	($12)                   ; 0x2012 <__umodsi3+0x4c>
     ee5: a0 01        	ldy	#$1
     ee7: a9 00        	lda	#$0
     ee9: 91 12        	sta	($12),y                 ; 0x2012 <__umodsi3+0x4c>
     eeb: 20 a5 0c     	jsr	$ca5 <textPrint>
     eee: fa           	plx
     eef: 86 27        	stx	$27                     ; 0x2027 <__umodsi3+0x61>
     ef1: fa           	plx
     ef2: 86 26        	stx	$26                     ; 0x2026 <__umodsi3+0x60>
     ef4: fa           	plx
     ef5: 86 25        	stx	$25                     ; 0x2025 <__umodsi3+0x5f>
     ef7: fa           	plx
     ef8: 86 24        	stx	$24                     ; 0x2024 <__umodsi3+0x5e>
     efa: 18           	clc
     efb: a5 10        	lda	$10                     ; 0x2010 <__umodsi3+0x4a>
     efd: 69 02        	adc	#$2
     eff: 85 10        	sta	$10                     ; 0x2010 <__umodsi3+0x4a>
     f01: a5 11        	lda	$11                     ; 0x2011 <__umodsi3+0x4b>
     f03: 69 00        	adc	#$0
     f05: 85 11        	sta	$11                     ; 0x2011 <__umodsi3+0x4b>
     f07: 60           	rts
     f08: 84 26        	sty	$26                     ; 0x2026 <__umodsi3+0x60>
     f0a: c0 00        	cpy	#$0
     f0c: 90 b3        	bcc	$ec1 <textPrintUInt+0x64>
     f0e: 4c a0 0e     	jmp	$ea0 <textPrintUInt+0x43>
     f11: 84 26        	sty	$26                     ; 0x2026 <__umodsi3+0x60>
     f13: a6 25        	ldx	$25                     ; 0x2025 <__umodsi3+0x5f>
     f15: 4c 9c 0e     	jmp	$e9c <textPrintUInt+0x3f>

00000f18 <__putchar>:
     f18: 85 32        	sta	$32                     ; 0x2032 <__umodsi3+0x6c>
     f1a: a2 32        	ldx	#$32
     f1c: 86 12        	stx	$12                     ; 0x2012 <__umodsi3+0x4c>
     f1e: a2 00        	ldx	#$0
     f20: 86 13        	stx	$13                     ; 0x2013 <__umodsi3+0x4d>
     f22: 4c a5 0c     	jmp	$ca5 <textPrint>

00000f25 <exit>:
     f25: 20 14 03     	jsr	$314 <_fini>
     f28: 80 fe        	bra	$f28 <exit+0x3>

00000f2a <_ZN12_GLOBAL__N_13putEcP6Status>:
     f2a: 85 18        	sta	$18                     ; 0x2018 <__umodsi3+0x52>
     f2c: a6 13        	ldx	$13                     ; 0x2013 <__umodsi3+0x4d>
     f2e: 18           	clc
     f2f: a5 12        	lda	$12                     ; 0x2012 <__umodsi3+0x4c>
     f31: 69 05        	adc	#$5
     f33: a8           	tay
     f34: a5 13        	lda	$13                     ; 0x2013 <__umodsi3+0x4d>
     f36: 86 15        	stx	$15                     ; 0x2015 <__umodsi3+0x4f>
     f38: 69 00        	adc	#$0
     f3a: 18           	clc
     f3b: 84 16        	sty	$16                     ; 0x2016 <__umodsi3+0x50>
     f3d: a0 05        	ldy	#$5
     f3f: 85 17        	sta	$17                     ; 0x2017 <__umodsi3+0x51>
     f41: b1 12        	lda	($12),y                 ; 0x2012 <__umodsi3+0x4c>
     f43: aa           	tax
     f44: a5 12        	lda	$12                     ; 0x2012 <__umodsi3+0x4c>
     f46: 69 03        	adc	#$3
     f48: 85 14        	sta	$14                     ; 0x2014 <__umodsi3+0x4e>
     f4a: a5 15        	lda	$15                     ; 0x2015 <__umodsi3+0x4f>
     f4c: 69 00        	adc	#$0
     f4e: 85 15        	sta	$15                     ; 0x2015 <__umodsi3+0x4f>
     f50: a0 01        	ldy	#$1
     f52: b1 16        	lda	($16),y                 ; 0x2016 <__umodsi3+0x50>
     f54: d1 14        	cmp	($14),y                 ; 0x2014 <__umodsi3+0x4e>
     f56: d0 11        	bne	$f69 <_ZN12_GLOBAL__N_13putEcP6Status+0x3f>
     f58: a0 03        	ldy	#$3
     f5a: 85 17        	sta	$17                     ; 0x2017 <__umodsi3+0x51>
     f5c: b1 12        	lda	($12),y                 ; 0x2012 <__umodsi3+0x4c>
     f5e: 85 14        	sta	$14                     ; 0x2014 <__umodsi3+0x4e>
     f60: 86 16        	stx	$16                     ; 0x2016 <__umodsi3+0x50>
     f62: e4 14        	cpx	$14                     ; 0x2014 <__umodsi3+0x4e>
     f64: 90 0e        	bcc	$f74 <_ZN12_GLOBAL__N_13putEcP6Status+0x4a>
     f66: 4c d3 0f     	jmp	$fd3 <_ZN12_GLOBAL__N_13putEcP6Status+0xa9>
     f69: 86 16        	stx	$16                     ; 0x2016 <__umodsi3+0x50>
     f6b: d1 14        	cmp	($14),y                 ; 0x2014 <__umodsi3+0x4e>
     f6d: 85 17        	sta	$17                     ; 0x2017 <__umodsi3+0x51>
     f6f: 90 03        	bcc	$f74 <_ZN12_GLOBAL__N_13putEcP6Status+0x4a>
     f71: 4c d3 0f     	jmp	$fd3 <_ZN12_GLOBAL__N_13putEcP6Status+0xa9>
     f74: a5 12        	lda	$12                     ; 0x2012 <__umodsi3+0x4c>
     f76: 18           	clc
     f77: 69 0f        	adc	#$f
     f79: 85 14        	sta	$14                     ; 0x2014 <__umodsi3+0x4e>
     f7b: a5 13        	lda	$13                     ; 0x2013 <__umodsi3+0x4d>
     f7d: 69 00        	adc	#$0
     f7f: 85 15        	sta	$15                     ; 0x2015 <__umodsi3+0x4f>
     f81: a0 01        	ldy	#$1
     f83: b1 14        	lda	($14),y                 ; 0x2014 <__umodsi3+0x4e>
     f85: a2 00        	ldx	#$0
     f87: 86 14        	stx	$14                     ; 0x2014 <__umodsi3+0x4e>
     f89: a2 00        	ldx	#$0
     f8b: 86 15        	stx	$15                     ; 0x2015 <__umodsi3+0x4f>
     f8d: c5 15        	cmp	$15                     ; 0x2015 <__umodsi3+0x4f>
     f8f: d0 2d        	bne	$fbe <_ZN12_GLOBAL__N_13putEcP6Status+0x94>
     f91: a0 0f        	ldy	#$f
     f93: b1 12        	lda	($12),y                 ; 0x2012 <__umodsi3+0x4c>
     f95: c5 14        	cmp	$14                     ; 0x2014 <__umodsi3+0x4e>
     f97: d0 25        	bne	$fbe <_ZN12_GLOBAL__N_13putEcP6Status+0x94>
     f99: a5 12        	lda	$12                     ; 0x2012 <__umodsi3+0x4c>
     f9b: 18           	clc
     f9c: 69 09        	adc	#$9
     f9e: 85 14        	sta	$14                     ; 0x2014 <__umodsi3+0x4e>
     fa0: a5 13        	lda	$13                     ; 0x2013 <__umodsi3+0x4d>
     fa2: 69 00        	adc	#$0
     fa4: a0 09        	ldy	#$9
     fa6: 85 15        	sta	$15                     ; 0x2015 <__umodsi3+0x4f>
     fa8: 18           	clc
     fa9: a5 16        	lda	$16                     ; 0x2016 <__umodsi3+0x50>
     fab: 71 12        	adc	($12),y                 ; 0x2012 <__umodsi3+0x4c>
     fad: aa           	tax
     fae: a0 01        	ldy	#$1
     fb0: a5 17        	lda	$17                     ; 0x2017 <__umodsi3+0x51>
     fb2: 71 14        	adc	($14),y                 ; 0x2014 <__umodsi3+0x4e>
     fb4: 86 14        	stx	$14                     ; 0x2014 <__umodsi3+0x4e>
     fb6: 85 15        	sta	$15                     ; 0x2015 <__umodsi3+0x4f>
     fb8: a5 18        	lda	$18                     ; 0x2018 <__umodsi3+0x52>
     fba: 92 14        	sta	($14)                   ; 0x2014 <__umodsi3+0x4e>
     fbc: 80 15        	bra	$fd3 <_ZN12_GLOBAL__N_13putEcP6Status+0xa9>
     fbe: a6 12        	ldx	$12                     ; 0x2012 <__umodsi3+0x4c>
     fc0: 86 97        	stx	$97                     ; 0x2097 <__umodsi3+0xd1>
     fc2: a6 13        	ldx	$13                     ; 0x2013 <__umodsi3+0x4d>
     fc4: 86 98        	stx	$98                     ; 0x2098 <__umodsi3+0xd2>
     fc6: a5 18        	lda	$18                     ; 0x2018 <__umodsi3+0x52>
     fc8: 20 18 0f     	jsr	$f18 <__putchar>
     fcb: a6 97        	ldx	$97                     ; 0x2097 <__umodsi3+0xd1>
     fcd: 86 12        	stx	$12                     ; 0x2012 <__umodsi3+0x4c>
     fcf: a6 98        	ldx	$98                     ; 0x2098 <__umodsi3+0xd2>
     fd1: 86 13        	stx	$13                     ; 0x2013 <__umodsi3+0x4d>
     fd3: a0 05        	ldy	#$5
     fd5: a5 12        	lda	$12                     ; 0x2012 <__umodsi3+0x4c>
     fd7: 18           	clc
     fd8: 69 05        	adc	#$5
     fda: 85 14        	sta	$14                     ; 0x2014 <__umodsi3+0x4e>
     fdc: a5 13        	lda	$13                     ; 0x2013 <__umodsi3+0x4d>
     fde: 69 00        	adc	#$0
     fe0: 85 15        	sta	$15                     ; 0x2015 <__umodsi3+0x4f>
     fe2: b1 12        	lda	($12),y                 ; 0x2012 <__umodsi3+0x4c>
     fe4: aa           	tax
     fe5: a0 01        	ldy	#$1
     fe7: b1 14        	lda	($14),y                 ; 0x2014 <__umodsi3+0x4e>
     fe9: e8           	inx
     fea: d0 01        	bne	$fed <_ZN12_GLOBAL__N_13putEcP6Status+0xc3>
     fec: 1a           	inc
     fed: 85 16        	sta	$16                     ; 0x2016 <__umodsi3+0x50>
     fef: 8a           	txa
     ff0: a0 05        	ldy	#$5
     ff2: 91 12        	sta	($12),y                 ; 0x2012 <__umodsi3+0x4c>
     ff4: a0 01        	ldy	#$1
     ff6: a5 16        	lda	$16                     ; 0x2016 <__umodsi3+0x50>
     ff8: 91 14        	sta	($14),y                 ; 0x2014 <__umodsi3+0x4e>
     ffa: 60           	rts

00000ffb <_ZN12_GLOBAL__N_112print_stringEPKcP6Status>:
     ffb: a6 12        	ldx	$12                     ; 0x2012 <__umodsi3+0x4c>
     ffd: 86 8f        	stx	$8f                     ; 0x208f <__umodsi3+0xc9>
     fff: a6 13        	ldx	$13                     ; 0x2013 <__umodsi3+0x4d>
    1001: 86 90        	stx	$90                     ; 0x2090 <__umodsi3+0xca>
    1003: a6 14        	ldx	$14                     ; 0x2014 <__umodsi3+0x4e>
    1005: 86 91        	stx	$91                     ; 0x2091 <__umodsi3+0xcb>
    1007: a6 15        	ldx	$15                     ; 0x2015 <__umodsi3+0x4f>
    1009: 86 92        	stx	$92                     ; 0x2092 <__umodsi3+0xcc>
    100b: a5 91        	lda	$91                     ; 0x2091 <__umodsi3+0xcb>
    100d: 18           	clc
    100e: 69 0d        	adc	#$d
    1010: 85 12        	sta	$12                     ; 0x2012 <__umodsi3+0x4c>
    1012: a5 92        	lda	$92                     ; 0x2092 <__umodsi3+0xcc>
    1014: 69 00        	adc	#$0
    1016: 85 13        	sta	$13                     ; 0x2013 <__umodsi3+0x4d>
    1018: a0 01        	ldy	#$1
    101a: b1 12        	lda	($12),y                 ; 0x2012 <__umodsi3+0x4c>
    101c: 30 16        	bmi	$1034 <_ZN12_GLOBAL__N_112print_stringEPKcP6Status+0x39>
    101e: a0 0d        	ldy	#$d
    1020: 85 12        	sta	$12                     ; 0x2012 <__umodsi3+0x4c>
    1022: b1 91        	lda	($91),y                 ; 0x2091 <__umodsi3+0xcb>
    1024: a6 12        	ldx	$12                     ; 0x2012 <__umodsi3+0x4c>
    1026: 86 96        	stx	$96                     ; 0x2096 <__umodsi3+0xd0>
    1028: d0 0f        	bne	$1039 <_ZN12_GLOBAL__N_112print_stringEPKcP6Status+0x3e>
    102a: aa           	tax
    102b: d0 0c        	bne	$1039 <_ZN12_GLOBAL__N_112print_stringEPKcP6Status+0x3e>
    102d: 64 93        	stz	$93                     ; 0x2093 <__umodsi3+0xcd>
    102f: a2 00        	ldx	#$0
    1031: 4c 03 11     	jmp	$1103 <_ZN12_GLOBAL__N_112print_stringEPKcP6Status+0x108>
    1034: a9 ff        	lda	#$ff
    1036: aa           	tax
    1037: 86 96        	stx	$96                     ; 0x2096 <__umodsi3+0xd0>
    1039: 85 93        	sta	$93                     ; 0x2093 <__umodsi3+0xcd>
    103b: 64 12        	stz	$12                     ; 0x2012 <__umodsi3+0x4c>
    103d: a4 8f        	ldy	$8f                     ; 0x208f <__umodsi3+0xc9>
    103f: a6 90        	ldx	$90                     ; 0x2090 <__umodsi3+0xca>
    1041: 86 16        	stx	$16                     ; 0x2016 <__umodsi3+0x50>
    1043: 64 13        	stz	$13                     ; 0x2013 <__umodsi3+0x4d>
    1045: 98           	tya
    1046: 18           	clc
    1047: 65 12        	adc	$12                     ; 0x2012 <__umodsi3+0x4c>
    1049: 85 14        	sta	$14                     ; 0x2014 <__umodsi3+0x4e>
    104b: a5 90        	lda	$90                     ; 0x2090 <__umodsi3+0xca>
    104d: 65 13        	adc	$13                     ; 0x2013 <__umodsi3+0x4d>
    104f: 85 15        	sta	$15                     ; 0x2015 <__umodsi3+0x4f>
    1051: b2 14        	lda	($14)                   ; 0x2014 <__umodsi3+0x4e>
    1053: d0 03        	bne	$1058 <_ZN12_GLOBAL__N_112print_stringEPKcP6Status+0x5d>
    1055: 4c fd 10     	jmp	$10fd <_ZN12_GLOBAL__N_112print_stringEPKcP6Status+0x102>
    1058: e6 12        	inc	$12                     ; 0x2012 <__umodsi3+0x4c>
    105a: d0 02        	bne	$105e <_ZN12_GLOBAL__N_112print_stringEPKcP6Status+0x63>
    105c: e6 13        	inc	$13                     ; 0x2013 <__umodsi3+0x4d>
    105e: a6 96        	ldx	$96                     ; 0x2096 <__umodsi3+0xd0>
    1060: e4 13        	cpx	$13                     ; 0x2013 <__umodsi3+0x4d>
    1062: d0 e1        	bne	$1045 <_ZN12_GLOBAL__N_112print_stringEPKcP6Status+0x4a>
    1064: a6 93        	ldx	$93                     ; 0x2093 <__umodsi3+0xcd>
    1066: e4 12        	cpx	$12                     ; 0x2012 <__umodsi3+0x4c>
    1068: d0 db        	bne	$1045 <_ZN12_GLOBAL__N_112print_stringEPKcP6Status+0x4a>
    106a: a0 01        	ldy	#$1
    106c: 98           	tya
    106d: 31 91        	and	($91),y                 ; 0x2091 <__umodsi3+0xcb>
    106f: 29 01        	and	#$1
    1071: f0 03        	beq	$1076 <_ZN12_GLOBAL__N_112print_stringEPKcP6Status+0x7b>
    1073: 4c ce 10     	jmp	$10ce <_ZN12_GLOBAL__N_112print_stringEPKcP6Status+0xd3>
    1076: a0 0b        	ldy	#$b
    1078: a5 91        	lda	$91                     ; 0x2091 <__umodsi3+0xcb>
    107a: 18           	clc
    107b: 69 0b        	adc	#$b
    107d: 85 14        	sta	$14                     ; 0x2014 <__umodsi3+0x4e>
    107f: a5 92        	lda	$92                     ; 0x2092 <__umodsi3+0xcc>
    1081: 69 00        	adc	#$0
    1083: 85 15        	sta	$15                     ; 0x2015 <__umodsi3+0x4f>
    1085: b1 91        	lda	($91),y                 ; 0x2091 <__umodsi3+0xcb>
    1087: 85 12        	sta	$12                     ; 0x2012 <__umodsi3+0x4c>
    1089: a0 01        	ldy	#$1
    108b: b1 14        	lda	($14),y                 ; 0x2014 <__umodsi3+0x4e>
    108d: 85 13        	sta	$13                     ; 0x2013 <__umodsi3+0x4d>
    108f: a6 96        	ldx	$96                     ; 0x2096 <__umodsi3+0xd0>
    1091: e4 13        	cpx	$13                     ; 0x2013 <__umodsi3+0x4d>
    1093: d0 08        	bne	$109d <_ZN12_GLOBAL__N_112print_stringEPKcP6Status+0xa2>
    1095: a6 93        	ldx	$93                     ; 0x2093 <__umodsi3+0xcd>
    1097: e4 12        	cpx	$12                     ; 0x2012 <__umodsi3+0x4c>
    1099: 90 06        	bcc	$10a1 <_ZN12_GLOBAL__N_112print_stringEPKcP6Status+0xa6>
    109b: 80 31        	bra	$10ce <_ZN12_GLOBAL__N_112print_stringEPKcP6Status+0xd3>
    109d: e4 13        	cpx	$13                     ; 0x2013 <__umodsi3+0x4d>
    109f: b0 2d        	bcs	$10ce <_ZN12_GLOBAL__N_112print_stringEPKcP6Status+0xd3>
    10a1: 38           	sec
    10a2: a5 93        	lda	$93                     ; 0x2093 <__umodsi3+0xcd>
    10a4: e5 12        	sbc	$12                     ; 0x2012 <__umodsi3+0x4c>
    10a6: a8           	tay
    10a7: a5 96        	lda	$96                     ; 0x2096 <__umodsi3+0xd0>
    10a9: e5 13        	sbc	$13                     ; 0x2013 <__umodsi3+0x4d>
    10ab: 85 95        	sta	$95                     ; 0x2095 <__umodsi3+0xcf>
    10ad: a6 91        	ldx	$91                     ; 0x2091 <__umodsi3+0xcb>
    10af: 86 12        	stx	$12                     ; 0x2012 <__umodsi3+0x4c>
    10b1: a6 92        	ldx	$92                     ; 0x2092 <__umodsi3+0xcc>
    10b3: 86 13        	stx	$13                     ; 0x2013 <__umodsi3+0x4d>
    10b5: 84 94        	sty	$94                     ; 0x2094 <__umodsi3+0xce>
    10b7: a9 20        	lda	#$20
    10b9: 20 2a 0f     	jsr	$f2a <_ZN12_GLOBAL__N_13putEcP6Status>
    10bc: a6 95        	ldx	$95                     ; 0x2095 <__umodsi3+0xcf>
    10be: e6 94        	inc	$94                     ; 0x2094 <__umodsi3+0xce>
    10c0: d0 01        	bne	$10c3 <_ZN12_GLOBAL__N_112print_stringEPKcP6Status+0xc8>
    10c2: e8           	inx
    10c3: 86 95        	stx	$95                     ; 0x2095 <__umodsi3+0xcf>
    10c5: a4 94        	ldy	$94                     ; 0x2094 <__umodsi3+0xce>
    10c7: 8a           	txa
    10c8: d0 e3        	bne	$10ad <_ZN12_GLOBAL__N_112print_stringEPKcP6Status+0xb2>
    10ca: a5 94        	lda	$94                     ; 0x2094 <__umodsi3+0xce>
    10cc: d0 df        	bne	$10ad <_ZN12_GLOBAL__N_112print_stringEPKcP6Status+0xb2>
    10ce: a4 96        	ldy	$96                     ; 0x2096 <__umodsi3+0xd0>
    10d0: d0 04        	bne	$10d6 <_ZN12_GLOBAL__N_112print_stringEPKcP6Status+0xdb>
    10d2: a5 93        	lda	$93                     ; 0x2093 <__umodsi3+0xcd>
    10d4: f0 26        	beq	$10fc <_ZN12_GLOBAL__N_112print_stringEPKcP6Status+0x101>
    10d6: a2 ff        	ldx	#$ff
    10d8: c6 93        	dec	$93                     ; 0x2093 <__umodsi3+0xcd>
    10da: e4 93        	cpx	$93                     ; 0x2093 <__umodsi3+0xcd>
    10dc: d0 01        	bne	$10df <_ZN12_GLOBAL__N_112print_stringEPKcP6Status+0xe4>
    10de: 88           	dey
    10df: 84 94        	sty	$94                     ; 0x2094 <__umodsi3+0xce>
    10e1: b2 8f        	lda	($8f)                   ; 0x208f <__umodsi3+0xc9>
    10e3: e6 8f        	inc	$8f                     ; 0x208f <__umodsi3+0xc9>
    10e5: d0 02        	bne	$10e9 <_ZN12_GLOBAL__N_112print_stringEPKcP6Status+0xee>
    10e7: e6 90        	inc	$90                     ; 0x2090 <__umodsi3+0xca>
    10e9: a6 91        	ldx	$91                     ; 0x2091 <__umodsi3+0xcb>
    10eb: 86 12        	stx	$12                     ; 0x2012 <__umodsi3+0x4c>
    10ed: a6 92        	ldx	$92                     ; 0x2092 <__umodsi3+0xcc>
    10ef: 86 13        	stx	$13                     ; 0x2013 <__umodsi3+0x4d>
    10f1: 20 2a 0f     	jsr	$f2a <_ZN12_GLOBAL__N_13putEcP6Status>
    10f4: a4 94        	ldy	$94                     ; 0x2094 <__umodsi3+0xce>
    10f6: d0 de        	bne	$10d6 <_ZN12_GLOBAL__N_112print_stringEPKcP6Status+0xdb>
    10f8: a5 93        	lda	$93                     ; 0x2093 <__umodsi3+0xcd>
    10fa: d0 da        	bne	$10d6 <_ZN12_GLOBAL__N_112print_stringEPKcP6Status+0xdb>
    10fc: 60           	rts
    10fd: a6 12        	ldx	$12                     ; 0x2012 <__umodsi3+0x4c>
    10ff: 86 93        	stx	$93                     ; 0x2093 <__umodsi3+0xcd>
    1101: a6 13        	ldx	$13                     ; 0x2013 <__umodsi3+0x4d>
    1103: 86 96        	stx	$96                     ; 0x2096 <__umodsi3+0xd0>
    1105: 4c 6a 10     	jmp	$106a <_ZN12_GLOBAL__N_112print_stringEPKcP6Status+0x6f>

00001108 <printf>:
    1108: a6 12        	ldx	$12                     ; 0x2012 <__umodsi3+0x4c>
    110a: 86 44        	stx	$44                     ; 0x2044 <__umodsi3+0x7e>
    110c: a6 13        	ldx	$13                     ; 0x2013 <__umodsi3+0x4d>
    110e: 86 45        	stx	$45                     ; 0x2045 <__umodsi3+0x7f>
    1110: 18           	clc
    1111: a6 10        	ldx	$10                     ; 0x2010 <__umodsi3+0x4a>
    1113: a4 11        	ldy	$11                     ; 0x2011 <__umodsi3+0x4b>
    1115: 86 85        	stx	$85                     ; 0x2085 <__umodsi3+0xbf>
    1117: 84 86        	sty	$86                     ; 0x2086 <__umodsi3+0xc0>
    1119: a6 85        	ldx	$85                     ; 0x2085 <__umodsi3+0xbf>
    111b: a4 86        	ldy	$86                     ; 0x2086 <__umodsi3+0xc0>
    111d: 86 70        	stx	$70                     ; 0x2070 <__umodsi3+0xaa>
    111f: 84 71        	sty	$71                     ; 0x2071 <__umodsi3+0xab>
    1121: a2 ff        	ldx	#$ff
    1123: 86 75        	stx	$75                     ; 0x2075 <__umodsi3+0xaf>
    1125: 86 76        	stx	$76                     ; 0x2076 <__umodsi3+0xb0>
    1127: 64 77        	stz	$77                     ; 0x2077 <__umodsi3+0xb1>
    1129: 64 78        	stz	$78                     ; 0x2078 <__umodsi3+0xb2>
    112b: e8           	inx
    112c: 86 46        	stx	$46                     ; 0x2046 <__umodsi3+0x80>
    112e: a2 00        	ldx	#$0
    1130: 86 47        	stx	$47                     ; 0x2047 <__umodsi3+0x81>
    1132: a6 46        	ldx	$46                     ; 0x2046 <__umodsi3+0x80>
    1134: a4 47        	ldy	$47                     ; 0x2047 <__umodsi3+0x81>
    1136: 86 7b        	stx	$7b                     ; 0x207b <__umodsi3+0xb5>
    1138: 84 7c        	sty	$7c                     ; 0x207c <__umodsi3+0xb6>
    113a: a2 02        	ldx	#$2
    113c: 86 81        	stx	$81                     ; 0x2081 <__umodsi3+0xbb>
    113e: 64 82        	stz	$82                     ; 0x2082 <__umodsi3+0xbc>
    1140: a6 70        	ldx	$70                     ; 0x2070 <__umodsi3+0xaa>
    1142: a4 71        	ldy	$71                     ; 0x2071 <__umodsi3+0xab>
    1144: 86 83        	stx	$83                     ; 0x2083 <__umodsi3+0xbd>
    1146: 84 84        	sty	$84                     ; 0x2084 <__umodsi3+0xbe>
    1148: a2 67        	ldx	#$67
    114a: a0 00        	ldy	#$0
    114c: 86 12        	stx	$12                     ; 0x2012 <__umodsi3+0x4c>
    114e: 84 13        	sty	$13                     ; 0x2013 <__umodsi3+0x4d>
    1150: a0 01        	ldy	#$1
    1152: a9 4e        	lda	#$4e
    1154: 18           	clc
    1155: 69 02        	adc	#$2
    1157: 85 8d        	sta	$8d                     ; 0x208d <__umodsi3+0xc7>
    1159: a9 00        	lda	#$0
    115b: 69 00        	adc	#$0
    115d: 85 8e        	sta	$8e                     ; 0x208e <__umodsi3+0xc8>
    115f: e6 12        	inc	$12                     ; 0x2012 <__umodsi3+0x4c>
    1161: d0 02        	bne	$1165 <printf+0x5d>
    1163: e6 13        	inc	$13                     ; 0x2013 <__umodsi3+0x4d>
    1165: a6 12        	ldx	$12                     ; 0x2012 <__umodsi3+0x4c>
    1167: 86 8a        	stx	$8a                     ; 0x208a <__umodsi3+0xc4>
    1169: a6 13        	ldx	$13                     ; 0x2013 <__umodsi3+0x4d>
    116b: 86 8b        	stx	$8b                     ; 0x208b <__umodsi3+0xc5>
    116d: a6 44        	ldx	$44                     ; 0x2044 <__umodsi3+0x7e>
    116f: 86 48        	stx	$48                     ; 0x2048 <__umodsi3+0x82>
    1171: a6 45        	ldx	$45                     ; 0x2045 <__umodsi3+0x7f>
    1173: 86 49        	stx	$49                     ; 0x2049 <__umodsi3+0x83>
    1175: b2 44        	lda	($44)                   ; 0x2044 <__umodsi3+0x7e>
    1177: c9 25        	cmp	#$25
    1179: f0 21        	beq	$119c <printf+0x94>
    117b: aa           	tax
    117c: d0 03        	bne	$1181 <printf+0x79>
    117e: 4c bd 1c     	jmp	$1cbd <printf+0xbb5>
    1181: 20 18 0f     	jsr	$f18 <__putchar>
    1184: a0 01        	ldy	#$1
    1186: e6 48        	inc	$48                     ; 0x2048 <__umodsi3+0x82>
    1188: d0 02        	bne	$118c <printf+0x84>
    118a: e6 49        	inc	$49                     ; 0x2049 <__umodsi3+0x83>
    118c: e6 77        	inc	$77                     ; 0x2077 <__umodsi3+0xb1>
    118e: d0 02        	bne	$1192 <printf+0x8a>
    1190: e6 78        	inc	$78                     ; 0x2078 <__umodsi3+0xb2>
    1192: a6 48        	ldx	$48                     ; 0x2048 <__umodsi3+0x82>
    1194: 86 44        	stx	$44                     ; 0x2044 <__umodsi3+0x7e>
    1196: a6 49        	ldx	$49                     ; 0x2049 <__umodsi3+0x83>
    1198: 86 45        	stx	$45                     ; 0x2045 <__umodsi3+0x7f>
    119a: 80 d1        	bra	$116d <printf+0x65>
    119c: a6 44        	ldx	$44                     ; 0x2044 <__umodsi3+0x7e>
    119e: 86 12        	stx	$12                     ; 0x2012 <__umodsi3+0x4c>
    11a0: a6 45        	ldx	$45                     ; 0x2045 <__umodsi3+0x7f>
    11a2: 86 13        	stx	$13                     ; 0x2013 <__umodsi3+0x4d>
    11a4: e6 12        	inc	$12                     ; 0x2012 <__umodsi3+0x4c>
    11a6: d0 02        	bne	$11aa <printf+0xa2>
    11a8: e6 13        	inc	$13                     ; 0x2013 <__umodsi3+0x4d>
    11aa: b1 48        	lda	($48),y                 ; 0x2048 <__umodsi3+0x82>
    11ac: c9 25        	cmp	#$25
    11ae: d0 16        	bne	$11c6 <printf+0xbe>
    11b0: a4 77        	ldy	$77                     ; 0x2077 <__umodsi3+0xb1>
    11b2: a5 78        	lda	$78                     ; 0x2078 <__umodsi3+0xb2>
    11b4: c5 76        	cmp	$76                     ; 0x2076 <__umodsi3+0xb0>
    11b6: f0 03        	beq	$11bb <printf+0xb3>
    11b8: 4c cc 12     	jmp	$12cc <printf+0x1c4>
    11bb: a6 75        	ldx	$75                     ; 0x2075 <__umodsi3+0xaf>
    11bd: 86 12        	stx	$12                     ; 0x2012 <__umodsi3+0x4c>
    11bf: 84 13        	sty	$13                     ; 0x2013 <__umodsi3+0x4d>
    11c1: c4 12        	cpy	$12                     ; 0x2012 <__umodsi3+0x4c>
    11c3: 4c d0 12     	jmp	$12d0 <printf+0x1c8>
    11c6: 64 73        	stz	$73                     ; 0x2073 <__umodsi3+0xad>
    11c8: 64 74        	stz	$74                     ; 0x2074 <__umodsi3+0xae>
    11ca: 64 72        	stz	$72                     ; 0x2072 <__umodsi3+0xac>
    11cc: 64 7d        	stz	$7d                     ; 0x207d <__umodsi3+0xb7>
    11ce: 64 7e        	stz	$7e                     ; 0x207e <__umodsi3+0xb8>
    11d0: a2 ff        	ldx	#$ff
    11d2: 86 7f        	stx	$7f                     ; 0x207f <__umodsi3+0xb9>
    11d4: 86 80        	stx	$80                     ; 0x2080 <__umodsi3+0xba>
    11d6: 64 43        	stz	$43                     ; 0x2043 <__umodsi3+0x7d>
    11d8: 80 33        	bra	$120d <printf+0x105>
    11da: a2 02        	ldx	#$2
    11dc: 80 15        	bra	$11f3 <printf+0xeb>
    11de: e0 20        	cpx	#$20
    11e0: f0 15        	beq	$11f7 <printf+0xef>
    11e2: 86 15        	stx	$15                     ; 0x2015 <__umodsi3+0x4f>
    11e4: e0 23        	cpx	#$23
    11e6: f0 03        	beq	$11eb <printf+0xe3>
    11e8: 4c 6a 12     	jmp	$126a <printf+0x162>
    11eb: a5 43        	lda	$43                     ; 0x2043 <__umodsi3+0x7d>
    11ed: a2 04        	ldx	#$4
    11ef: 80 02        	bra	$11f3 <printf+0xeb>
    11f1: a2 10        	ldx	#$10
    11f3: 86 14        	stx	$14                     ; 0x2014 <__umodsi3+0x4e>
    11f5: 80 06        	bra	$11fd <printf+0xf5>
    11f7: a2 08        	ldx	#$8
    11f9: 86 14        	stx	$14                     ; 0x2014 <__umodsi3+0x4e>
    11fb: a5 43        	lda	$43                     ; 0x2043 <__umodsi3+0x7d>
    11fd: 05 14        	ora	$14                     ; 0x2014 <__umodsi3+0x4e>
    11ff: 85 43        	sta	$43                     ; 0x2043 <__umodsi3+0x7d>
    1201: 85 73        	sta	$73                     ; 0x2073 <__umodsi3+0xad>
    1203: a2 00        	ldx	#$0
    1205: 86 74        	stx	$74                     ; 0x2074 <__umodsi3+0xae>
    1207: e6 12        	inc	$12                     ; 0x2012 <__umodsi3+0x4c>
    1209: d0 02        	bne	$120d <printf+0x105>
    120b: e6 13        	inc	$13                     ; 0x2013 <__umodsi3+0x4d>
    120d: b2 12        	lda	($12)                   ; 0x2012 <__umodsi3+0x4c>
    120f: aa           	tax
    1210: 38           	sec
    1211: e9 2a        	sbc	#$2a
    1213: c9 07        	cmp	#$7
    1215: b0 c7        	bcs	$11de <printf+0xd6>
    1217: 86 15        	stx	$15                     ; 0x2015 <__umodsi3+0x4f>
    1219: 0a           	asl
    121a: aa           	tax
    121b: a0 01        	ldy	#$1
    121d: 84 14        	sty	$14                     ; 0x2014 <__umodsi3+0x4e>
    121f: a5 43        	lda	$43                     ; 0x2043 <__umodsi3+0x7d>
    1221: 7c 0e 21     	jmp	($210e,x)               ; 0x210e <__set_v+0x1>
    1224: a5 83        	lda	$83                     ; 0x2083 <__umodsi3+0xbd>
    1226: a6 84        	ldx	$84                     ; 0x2084 <__umodsi3+0xbe>
    1228: 85 16        	sta	$16                     ; 0x2016 <__umodsi3+0x50>
    122a: 86 17        	stx	$17                     ; 0x2017 <__umodsi3+0x51>
    122c: 18           	clc
    122d: 69 02        	adc	#$2
    122f: a8           	tay
    1230: 8a           	txa
    1231: 69 00        	adc	#$0
    1233: 84 83        	sty	$83                     ; 0x2083 <__umodsi3+0xbd>
    1235: 85 84        	sta	$84                     ; 0x2084 <__umodsi3+0xbe>
    1237: b2 16        	lda	($16)                   ; 0x2016 <__umodsi3+0x50>
    1239: 85 15        	sta	$15                     ; 0x2015 <__umodsi3+0x4f>
    123b: a0 01        	ldy	#$1
    123d: b1 16        	lda	($16),y                 ; 0x2016 <__umodsi3+0x50>
    123f: 85 14        	sta	$14                     ; 0x2014 <__umodsi3+0x4e>
    1241: 10 15        	bpl	$1258 <printf+0x150>
    1243: a5 43        	lda	$43                     ; 0x2043 <__umodsi3+0x7d>
    1245: 09 01        	ora	#$1
    1247: 85 43        	sta	$43                     ; 0x2043 <__umodsi3+0x7d>
    1249: 85 73        	sta	$73                     ; 0x2073 <__umodsi3+0xad>
    124b: a2 00        	ldx	#$0
    124d: 86 74        	stx	$74                     ; 0x2074 <__umodsi3+0xae>
    124f: 8a           	txa
    1250: 38           	sec
    1251: e5 15        	sbc	$15                     ; 0x2015 <__umodsi3+0x4f>
    1253: 85 15        	sta	$15                     ; 0x2015 <__umodsi3+0x4f>
    1255: 8a           	txa
    1256: e5 14        	sbc	$14                     ; 0x2014 <__umodsi3+0x4e>
    1258: a6 15        	ldx	$15                     ; 0x2015 <__umodsi3+0x4f>
    125a: 86 7d        	stx	$7d                     ; 0x207d <__umodsi3+0xb7>
    125c: 85 7e        	sta	$7e                     ; 0x207e <__umodsi3+0xb8>
    125e: e6 12        	inc	$12                     ; 0x2012 <__umodsi3+0x4c>
    1260: f0 03        	beq	$1265 <printf+0x15d>
    1262: 4c 1e 13     	jmp	$131e <printf+0x216>
    1265: e6 13        	inc	$13                     ; 0x2013 <__umodsi3+0x4d>
    1267: 4c 1e 13     	jmp	$131e <printf+0x216>
    126a: a5 15        	lda	$15                     ; 0x2015 <__umodsi3+0x4f>
    126c: 18           	clc
    126d: 69 d0        	adc	#$d0
    126f: c9 0a        	cmp	#$a
    1271: 90 03        	bcc	$1276 <printf+0x16e>
    1273: 4c 10 13     	jmp	$1310 <printf+0x208>
    1276: a6 15        	ldx	$15                     ; 0x2015 <__umodsi3+0x4f>
    1278: 86 14        	stx	$14                     ; 0x2014 <__umodsi3+0x4e>
    127a: 64 16        	stz	$16                     ; 0x2016 <__umodsi3+0x50>
    127c: 64 15        	stz	$15                     ; 0x2015 <__umodsi3+0x4f>
    127e: 64 17        	stz	$17                     ; 0x2017 <__umodsi3+0x51>
    1280: a0 01        	ldy	#$1
    1282: 06 16        	asl	$16                     ; 0x2016 <__umodsi3+0x50>
    1284: 26 17        	rol	$17                     ; 0x2017 <__umodsi3+0x51>
    1286: a5 16        	lda	$16                     ; 0x2016 <__umodsi3+0x50>
    1288: 0a           	asl
    1289: aa           	tax
    128a: a5 17        	lda	$17                     ; 0x2017 <__umodsi3+0x51>
    128c: 2a           	rol
    128d: 86 18        	stx	$18                     ; 0x2018 <__umodsi3+0x52>
    128f: 06 18        	asl	$18                     ; 0x2018 <__umodsi3+0x52>
    1291: 2a           	rol
    1292: aa           	tax
    1293: a5 18        	lda	$18                     ; 0x2018 <__umodsi3+0x52>
    1295: 18           	clc
    1296: 65 16        	adc	$16                     ; 0x2016 <__umodsi3+0x50>
    1298: 85 16        	sta	$16                     ; 0x2016 <__umodsi3+0x50>
    129a: 8a           	txa
    129b: 65 17        	adc	$17                     ; 0x2017 <__umodsi3+0x51>
    129d: 85 17        	sta	$17                     ; 0x2017 <__umodsi3+0x51>
    129f: a5 16        	lda	$16                     ; 0x2016 <__umodsi3+0x50>
    12a1: 18           	clc
    12a2: 65 14        	adc	$14                     ; 0x2014 <__umodsi3+0x4e>
    12a4: 85 14        	sta	$14                     ; 0x2014 <__umodsi3+0x4e>
    12a6: a5 17        	lda	$17                     ; 0x2017 <__umodsi3+0x51>
    12a8: 65 15        	adc	$15                     ; 0x2015 <__umodsi3+0x4f>
    12aa: aa           	tax
    12ab: 18           	clc
    12ac: a5 14        	lda	$14                     ; 0x2014 <__umodsi3+0x4e>
    12ae: 69 d0        	adc	#$d0
    12b0: 85 16        	sta	$16                     ; 0x2016 <__umodsi3+0x50>
    12b2: 8a           	txa
    12b3: 69 ff        	adc	#$ff
    12b5: 85 17        	sta	$17                     ; 0x2017 <__umodsi3+0x51>
    12b7: b1 12        	lda	($12),y                 ; 0x2012 <__umodsi3+0x4c>
    12b9: 85 14        	sta	$14                     ; 0x2014 <__umodsi3+0x4e>
    12bb: 18           	clc
    12bc: 69 d0        	adc	#$d0
    12be: e6 12        	inc	$12                     ; 0x2012 <__umodsi3+0x4c>
    12c0: d0 02        	bne	$12c4 <printf+0x1bc>
    12c2: e6 13        	inc	$13                     ; 0x2013 <__umodsi3+0x4d>
    12c4: c9 0a        	cmp	#$a
    12c6: 64 15        	stz	$15                     ; 0x2015 <__umodsi3+0x4f>
    12c8: 90 b8        	bcc	$1282 <printf+0x17a>
    12ca: 80 4a        	bra	$1316 <printf+0x20e>
    12cc: 84 13        	sty	$13                     ; 0x2013 <__umodsi3+0x4d>
    12ce: c5 76        	cmp	$76                     ; 0x2076 <__umodsi3+0xb0>
    12d0: a0 01        	ldy	#$1
    12d2: b0 26        	bcs	$12fa <printf+0x1f2>
    12d4: a6 82        	ldx	$82                     ; 0x2082 <__umodsi3+0xbc>
    12d6: e4 47        	cpx	$47                     ; 0x2047 <__umodsi3+0x81>
    12d8: d0 19        	bne	$12f3 <printf+0x1eb>
    12da: a6 81        	ldx	$81                     ; 0x2081 <__umodsi3+0xbb>
    12dc: e4 46        	cpx	$46                     ; 0x2046 <__umodsi3+0x80>
    12de: d0 13        	bne	$12f3 <printf+0x1eb>
    12e0: 18           	clc
    12e1: aa           	tax
    12e2: a5 13        	lda	$13                     ; 0x2013 <__umodsi3+0x4d>
    12e4: 65 7b        	adc	$7b                     ; 0x207b <__umodsi3+0xb5>
    12e6: 85 12        	sta	$12                     ; 0x2012 <__umodsi3+0x4c>
    12e8: 8a           	txa
    12e9: 65 7c        	adc	$7c                     ; 0x207c <__umodsi3+0xb6>
    12eb: 85 13        	sta	$13                     ; 0x2013 <__umodsi3+0x4d>
    12ed: a9 25        	lda	#$25
    12ef: 92 12        	sta	($12)                   ; 0x2012 <__umodsi3+0x4c>
    12f1: 80 07        	bra	$12fa <printf+0x1f2>
    12f3: a9 25        	lda	#$25
    12f5: 20 18 0f     	jsr	$f18 <__putchar>
    12f8: a0 01        	ldy	#$1
    12fa: e6 77        	inc	$77                     ; 0x2077 <__umodsi3+0xb1>
    12fc: d0 02        	bne	$1300 <printf+0x1f8>
    12fe: e6 78        	inc	$78                     ; 0x2078 <__umodsi3+0xb2>
    1300: a5 48        	lda	$48                     ; 0x2048 <__umodsi3+0x82>
    1302: 18           	clc
    1303: 69 02        	adc	#$2
    1305: 85 44        	sta	$44                     ; 0x2044 <__umodsi3+0x7e>
    1307: a5 49        	lda	$49                     ; 0x2049 <__umodsi3+0x83>
    1309: 69 00        	adc	#$0
    130b: 85 45        	sta	$45                     ; 0x2045 <__umodsi3+0x7f>
    130d: 4c 6d 11     	jmp	$116d <printf+0x65>
    1310: 64 16        	stz	$16                     ; 0x2016 <__umodsi3+0x50>
    1312: 64 17        	stz	$17                     ; 0x2017 <__umodsi3+0x51>
    1314: a0 01        	ldy	#$1
    1316: a6 16        	ldx	$16                     ; 0x2016 <__umodsi3+0x50>
    1318: 86 7d        	stx	$7d                     ; 0x207d <__umodsi3+0xb7>
    131a: a5 17        	lda	$17                     ; 0x2017 <__umodsi3+0x51>
    131c: 85 7e        	sta	$7e                     ; 0x207e <__umodsi3+0xb8>
    131e: 86 4c        	stx	$4c                     ; 0x204c <__umodsi3+0x86>
    1320: 85 4a        	sta	$4a                     ; 0x204a <__umodsi3+0x84>
    1322: b2 12        	lda	($12)                   ; 0x2012 <__umodsi3+0x4c>
    1324: a2 ff        	ldx	#$ff
    1326: c9 2e        	cmp	#$2e
    1328: d0 39        	bne	$1363 <printf+0x25b>
    132a: b1 12        	lda	($12),y                 ; 0x2012 <__umodsi3+0x4c>
    132c: c9 2a        	cmp	#$2a
    132e: d0 38        	bne	$1368 <printf+0x260>
    1330: a5 83        	lda	$83                     ; 0x2083 <__umodsi3+0xbd>
    1332: a6 84        	ldx	$84                     ; 0x2084 <__umodsi3+0xbe>
    1334: 85 14        	sta	$14                     ; 0x2014 <__umodsi3+0x4e>
    1336: 86 15        	stx	$15                     ; 0x2015 <__umodsi3+0x4f>
    1338: 18           	clc
    1339: 69 02        	adc	#$2
    133b: 85 16        	sta	$16                     ; 0x2016 <__umodsi3+0x50>
    133d: 8a           	txa
    133e: 69 00        	adc	#$0
    1340: a6 16        	ldx	$16                     ; 0x2016 <__umodsi3+0x50>
    1342: 86 83        	stx	$83                     ; 0x2083 <__umodsi3+0xbd>
    1344: 85 84        	sta	$84                     ; 0x2084 <__umodsi3+0xbe>
    1346: a5 12        	lda	$12                     ; 0x2012 <__umodsi3+0x4c>
    1348: 18           	clc
    1349: 69 02        	adc	#$2
    134b: 85 12        	sta	$12                     ; 0x2012 <__umodsi3+0x4c>
    134d: a5 13        	lda	$13                     ; 0x2013 <__umodsi3+0x4d>
    134f: 69 00        	adc	#$0
    1351: 85 13        	sta	$13                     ; 0x2013 <__umodsi3+0x4d>
    1353: b2 14        	lda	($14)                   ; 0x2014 <__umodsi3+0x4e>
    1355: aa           	tax
    1356: b1 14        	lda	($14),y                 ; 0x2014 <__umodsi3+0x4e>
    1358: 86 18        	stx	$18                     ; 0x2018 <__umodsi3+0x52>
    135a: 86 7f        	stx	$7f                     ; 0x207f <__umodsi3+0xb9>
    135c: 85 19        	sta	$19                     ; 0x2019 <__umodsi3+0x53>
    135e: 85 80        	sta	$80                     ; 0x2080 <__umodsi3+0xba>
    1360: 4c 13 14     	jmp	$1413 <printf+0x30b>
    1363: 86 18        	stx	$18                     ; 0x2018 <__umodsi3+0x52>
    1365: 4c 23 14     	jmp	$1423 <printf+0x31b>
    1368: 85 17        	sta	$17                     ; 0x2017 <__umodsi3+0x51>
    136a: 18           	clc
    136b: 69 d0        	adc	#$d0
    136d: c9 0a        	cmp	#$a
    136f: 90 03        	bcc	$1374 <printf+0x26c>
    1371: 4c 05 14     	jmp	$1405 <printf+0x2fd>
    1374: 64 16        	stz	$16                     ; 0x2016 <__umodsi3+0x50>
    1376: a2 01        	ldx	#$1
    1378: 64 18        	stz	$18                     ; 0x2018 <__umodsi3+0x52>
    137a: 64 19        	stz	$19                     ; 0x2019 <__umodsi3+0x53>
    137c: a0 01        	ldy	#$1
    137e: 64 1a        	stz	$1a                     ; 0x201a <__umodsi3+0x54>
    1380: 5a           	phy
    1381: a4 1a        	ldy	$1a                     ; 0x201a <__umodsi3+0x54>
    1383: 84 14        	sty	$14                     ; 0x2014 <__umodsi3+0x4e>
    1385: 86 15        	stx	$15                     ; 0x2015 <__umodsi3+0x4f>
    1387: 06 18        	asl	$18                     ; 0x2018 <__umodsi3+0x52>
    1389: 26 19        	rol	$19                     ; 0x2019 <__umodsi3+0x53>
    138b: a5 18        	lda	$18                     ; 0x2018 <__umodsi3+0x52>
    138d: 0a           	asl
    138e: 85 1d        	sta	$1d                     ; 0x201d <__umodsi3+0x57>
    1390: a5 19        	lda	$19                     ; 0x2019 <__umodsi3+0x53>
    1392: 2a           	rol
    1393: 06 1d        	asl	$1d                     ; 0x201d <__umodsi3+0x57>
    1395: 2a           	rol
    1396: 85 1e        	sta	$1e                     ; 0x201e <__umodsi3+0x58>
    1398: a5 1d        	lda	$1d                     ; 0x201d <__umodsi3+0x57>
    139a: 18           	clc
    139b: 65 18        	adc	$18                     ; 0x2018 <__umodsi3+0x52>
    139d: 85 18        	sta	$18                     ; 0x2018 <__umodsi3+0x52>
    139f: a5 1e        	lda	$1e                     ; 0x201e <__umodsi3+0x58>
    13a1: 65 19        	adc	$19                     ; 0x2019 <__umodsi3+0x53>
    13a3: 85 19        	sta	$19                     ; 0x2019 <__umodsi3+0x53>
    13a5: a5 18        	lda	$18                     ; 0x2018 <__umodsi3+0x52>
    13a7: 18           	clc
    13a8: 65 17        	adc	$17                     ; 0x2017 <__umodsi3+0x51>
    13aa: 85 17        	sta	$17                     ; 0x2017 <__umodsi3+0x51>
    13ac: a5 19        	lda	$19                     ; 0x2019 <__umodsi3+0x53>
    13ae: 65 16        	adc	$16                     ; 0x2016 <__umodsi3+0x50>
    13b0: 85 16        	sta	$16                     ; 0x2016 <__umodsi3+0x50>
    13b2: 18           	clc
    13b3: a5 17        	lda	$17                     ; 0x2017 <__umodsi3+0x51>
    13b5: 69 d0        	adc	#$d0
    13b7: 85 18        	sta	$18                     ; 0x2018 <__umodsi3+0x52>
    13b9: a5 16        	lda	$16                     ; 0x2016 <__umodsi3+0x50>
    13bb: 69 ff        	adc	#$ff
    13bd: 85 19        	sta	$19                     ; 0x2019 <__umodsi3+0x53>
    13bf: e8           	inx
    13c0: d0 02        	bne	$13c4 <printf+0x2bc>
    13c2: e6 1a        	inc	$1a                     ; 0x201a <__umodsi3+0x54>
    13c4: a5 12        	lda	$12                     ; 0x2012 <__umodsi3+0x4c>
    13c6: 18           	clc
    13c7: 65 15        	adc	$15                     ; 0x2015 <__umodsi3+0x4f>
    13c9: 85 1d        	sta	$1d                     ; 0x201d <__umodsi3+0x57>
    13cb: a5 13        	lda	$13                     ; 0x2013 <__umodsi3+0x4d>
    13cd: 65 14        	adc	$14                     ; 0x2014 <__umodsi3+0x4e>
    13cf: a4 1d        	ldy	$1d                     ; 0x201d <__umodsi3+0x57>
    13d1: 84 16        	sty	$16                     ; 0x2016 <__umodsi3+0x50>
    13d3: 7a           	ply
    13d4: 85 17        	sta	$17                     ; 0x2017 <__umodsi3+0x51>
    13d6: b1 16        	lda	($16),y                 ; 0x2016 <__umodsi3+0x50>
    13d8: 85 17        	sta	$17                     ; 0x2017 <__umodsi3+0x51>
    13da: 18           	clc
    13db: 69 d0        	adc	#$d0
    13dd: c9 0a        	cmp	#$a
    13df: 64 16        	stz	$16                     ; 0x2016 <__umodsi3+0x50>
    13e1: b0 03        	bcs	$13e6 <printf+0x2de>
    13e3: 4c 80 13     	jmp	$1380 <printf+0x278>
    13e6: a5 12        	lda	$12                     ; 0x2012 <__umodsi3+0x4c>
    13e8: 18           	clc
    13e9: 65 15        	adc	$15                     ; 0x2015 <__umodsi3+0x4f>
    13eb: 85 12        	sta	$12                     ; 0x2012 <__umodsi3+0x4c>
    13ed: a5 13        	lda	$13                     ; 0x2013 <__umodsi3+0x4d>
    13ef: 65 14        	adc	$14                     ; 0x2014 <__umodsi3+0x4e>
    13f1: 85 13        	sta	$13                     ; 0x2013 <__umodsi3+0x4d>
    13f3: e6 12        	inc	$12                     ; 0x2012 <__umodsi3+0x4c>
    13f5: d0 02        	bne	$13f9 <printf+0x2f1>
    13f7: e6 13        	inc	$13                     ; 0x2013 <__umodsi3+0x4d>
    13f9: a6 18        	ldx	$18                     ; 0x2018 <__umodsi3+0x52>
    13fb: 86 7f        	stx	$7f                     ; 0x207f <__umodsi3+0xb9>
    13fd: a6 19        	ldx	$19                     ; 0x2019 <__umodsi3+0x53>
    13ff: 86 80        	stx	$80                     ; 0x2080 <__umodsi3+0xba>
    1401: a0 01        	ldy	#$1
    1403: 80 0e        	bra	$1413 <printf+0x30b>
    1405: e6 12        	inc	$12                     ; 0x2012 <__umodsi3+0x4c>
    1407: d0 02        	bne	$140b <printf+0x303>
    1409: e6 13        	inc	$13                     ; 0x2013 <__umodsi3+0x4d>
    140b: 64 18        	stz	$18                     ; 0x2018 <__umodsi3+0x52>
    140d: 64 7f        	stz	$7f                     ; 0x207f <__umodsi3+0xb9>
    140f: 64 80        	stz	$80                     ; 0x2080 <__umodsi3+0xba>
    1411: 64 19        	stz	$19                     ; 0x2019 <__umodsi3+0x53>
    1413: a5 43        	lda	$43                     ; 0x2043 <__umodsi3+0x7d>
    1415: 29 ef        	and	#$ef
    1417: 85 43        	sta	$43                     ; 0x2043 <__umodsi3+0x7d>
    1419: 85 73        	sta	$73                     ; 0x2073 <__umodsi3+0xad>
    141b: a2 00        	ldx	#$0
    141d: 86 74        	stx	$74                     ; 0x2074 <__umodsi3+0xae>
    141f: b2 12        	lda	($12)                   ; 0x2012 <__umodsi3+0x4c>
    1421: a6 19        	ldx	$19                     ; 0x2019 <__umodsi3+0x53>
    1423: 86 15        	stx	$15                     ; 0x2015 <__umodsi3+0x4f>
    1425: a6 12        	ldx	$12                     ; 0x2012 <__umodsi3+0x4c>
    1427: 86 44        	stx	$44                     ; 0x2044 <__umodsi3+0x7e>
    1429: a6 13        	ldx	$13                     ; 0x2013 <__umodsi3+0x4d>
    142b: 86 45        	stx	$45                     ; 0x2045 <__umodsi3+0x7f>
    142d: e6 44        	inc	$44                     ; 0x2044 <__umodsi3+0x7e>
    142f: d0 02        	bne	$1433 <printf+0x32b>
    1431: e6 45        	inc	$45                     ; 0x2045 <__umodsi3+0x7f>
    1433: 85 14        	sta	$14                     ; 0x2014 <__umodsi3+0x4e>
    1435: 38           	sec
    1436: e9 6c        	sbc	#$6c
    1438: 50 02        	bvc	$143c <printf+0x334>
    143a: 49 80        	eor	#$80
    143c: aa           	tax
    143d: 10 1d        	bpl	$145c <printf+0x354>
    143f: a5 14        	lda	$14                     ; 0x2014 <__umodsi3+0x4e>
    1441: c9 4c        	cmp	#$4c
    1443: f0 27        	beq	$146c <printf+0x364>
    1445: c9 68        	cmp	#$68
    1447: d0 03        	bne	$144c <printf+0x344>
    1449: 4c d3 14     	jmp	$14d3 <printf+0x3cb>
    144c: a2 08        	ldx	#$8
    144e: c9 6a        	cmp	#$6a
    1450: d0 2e        	bne	$1480 <printf+0x378>
    1452: a5 44        	lda	$44                     ; 0x2044 <__umodsi3+0x7e>
    1454: 85 12        	sta	$12                     ; 0x2012 <__umodsi3+0x4c>
    1456: a5 45        	lda	$45                     ; 0x2045 <__umodsi3+0x7f>
    1458: 85 13        	sta	$13                     ; 0x2013 <__umodsi3+0x4d>
    145a: 80 43        	bra	$149f <printf+0x397>
    145c: a6 14        	ldx	$14                     ; 0x2014 <__umodsi3+0x4e>
    145e: e0 6c        	cpx	#$6c
    1460: f0 23        	beq	$1485 <printf+0x37d>
    1462: e0 74        	cpx	#$74
    1464: f0 12        	beq	$1478 <printf+0x370>
    1466: e0 7a        	cpx	#$7a
    1468: f0 0e        	beq	$1478 <printf+0x370>
    146a: 80 14        	bra	$1480 <printf+0x378>
    146c: a5 43        	lda	$43                     ; 0x2043 <__umodsi3+0x7d>
    146e: 09 40        	ora	#$40
    1470: 85 43        	sta	$43                     ; 0x2043 <__umodsi3+0x7d>
    1472: 85 73        	sta	$73                     ; 0x2073 <__umodsi3+0xad>
    1474: a2 00        	ldx	#$0
    1476: 86 74        	stx	$74                     ; 0x2074 <__umodsi3+0xae>
    1478: a6 44        	ldx	$44                     ; 0x2044 <__umodsi3+0x7e>
    147a: 86 12        	stx	$12                     ; 0x2012 <__umodsi3+0x4c>
    147c: a6 45        	ldx	$45                     ; 0x2045 <__umodsi3+0x7f>
    147e: 86 13        	stx	$13                     ; 0x2013 <__umodsi3+0x4d>
    1480: a2 02        	ldx	#$2
    1482: 8a           	txa
    1483: 80 1c        	bra	$14a1 <printf+0x399>
    1485: b1 12        	lda	($12),y                 ; 0x2012 <__umodsi3+0x4c>
    1487: a2 04        	ldx	#$4
    1489: c9 6c        	cmp	#$6c
    148b: f0 03        	beq	$1490 <printf+0x388>
    148d: 4c d5 17     	jmp	$17d5 <printf+0x6cd>
    1490: a5 12        	lda	$12                     ; 0x2012 <__umodsi3+0x4c>
    1492: 18           	clc
    1493: 69 02        	adc	#$2
    1495: 85 12        	sta	$12                     ; 0x2012 <__umodsi3+0x4c>
    1497: a5 13        	lda	$13                     ; 0x2013 <__umodsi3+0x4d>
    1499: 69 00        	adc	#$0
    149b: 85 13        	sta	$13                     ; 0x2013 <__umodsi3+0x4d>
    149d: a2 08        	ldx	#$8
    149f: a9 08        	lda	#$8
    14a1: 85 89        	sta	$89                     ; 0x2089 <__umodsi3+0xc3>
    14a3: b2 12        	lda	($12)                   ; 0x2012 <__umodsi3+0x4c>
    14a5: 5a           	phy
    14a6: a4 12        	ldy	$12                     ; 0x2012 <__umodsi3+0x4c>
    14a8: 84 44        	sty	$44                     ; 0x2044 <__umodsi3+0x7e>
    14aa: a4 13        	ldy	$13                     ; 0x2013 <__umodsi3+0x4d>
    14ac: 84 45        	sty	$45                     ; 0x2045 <__umodsi3+0x7f>
    14ae: 7a           	ply
    14af: 86 46        	stx	$46                     ; 0x2046 <__umodsi3+0x80>
    14b1: aa           	tax
    14b2: 38           	sec
    14b3: e9 63        	sbc	#$63
    14b5: c9 16        	cmp	#$16
    14b7: b0 39        	bcs	$14f2 <printf+0x3ea>
    14b9: 0a           	asl
    14ba: aa           	tax
    14bb: 7c 1c 21     	jmp	($211c,x)               ; 0x211c <__set_v+0xf>
    14be: a6 15        	ldx	$15                     ; 0x2015 <__umodsi3+0x4f>
    14c0: 86 87        	stx	$87                     ; 0x2087 <__umodsi3+0xc1>
    14c2: a6 18        	ldx	$18                     ; 0x2018 <__umodsi3+0x52>
    14c4: 86 8c        	stx	$8c                     ; 0x208c <__umodsi3+0xc6>
    14c6: a0 0a        	ldy	#$a
    14c8: a2 0a        	ldx	#$a
    14ca: 86 88        	stx	$88                     ; 0x2088 <__umodsi3+0xc2>
    14cc: 84 72        	sty	$72                     ; 0x2072 <__umodsi3+0xac>
    14ce: 64 4d        	stz	$4d                     ; 0x204d <__umodsi3+0x87>
    14d0: 4c f2 15     	jmp	$15f2 <printf+0x4ea>
    14d3: b1 12        	lda	($12),y                 ; 0x2012 <__umodsi3+0x4c>
    14d5: a2 02        	ldx	#$2
    14d7: c9 68        	cmp	#$68
    14d9: f0 03        	beq	$14de <printf+0x3d6>
    14db: 4c db 17     	jmp	$17db <printf+0x6d3>
    14de: a5 12        	lda	$12                     ; 0x2012 <__umodsi3+0x4c>
    14e0: 18           	clc
    14e1: 69 02        	adc	#$2
    14e3: 85 12        	sta	$12                     ; 0x2012 <__umodsi3+0x4c>
    14e5: a5 13        	lda	$13                     ; 0x2013 <__umodsi3+0x4d>
    14e7: 69 00        	adc	#$0
    14e9: 85 13        	sta	$13                     ; 0x2013 <__umodsi3+0x4d>
    14eb: a2 01        	ldx	#$1
    14ed: 86 89        	stx	$89                     ; 0x2089 <__umodsi3+0xc3>
    14ef: e8           	inx
    14f0: 80 b1        	bra	$14a3 <printf+0x39b>
    14f2: e0 58        	cpx	#$58
    14f4: f0 03        	beq	$14f9 <printf+0x3f1>
    14f6: 4c 77 1c     	jmp	$1c77 <printf+0xb6f>
    14f9: a6 15        	ldx	$15                     ; 0x2015 <__umodsi3+0x4f>
    14fb: 86 87        	stx	$87                     ; 0x2087 <__umodsi3+0xc1>
    14fd: a6 18        	ldx	$18                     ; 0x2018 <__umodsi3+0x52>
    14ff: 86 8c        	stx	$8c                     ; 0x208c <__umodsi3+0xc6>
    1501: a2 10        	ldx	#$10
    1503: 86 72        	stx	$72                     ; 0x2072 <__umodsi3+0xac>
    1505: a9 00        	lda	#$0
    1507: 09 01        	ora	#$1
    1509: a6 43        	ldx	$43                     ; 0x2043 <__umodsi3+0x7d>
    150b: 80 29        	bra	$1536 <printf+0x42e>
    150d: a6 15        	ldx	$15                     ; 0x2015 <__umodsi3+0x4f>
    150f: 86 87        	stx	$87                     ; 0x2087 <__umodsi3+0xc1>
    1511: a6 18        	ldx	$18                     ; 0x2018 <__umodsi3+0x52>
    1513: 86 8c        	stx	$8c                     ; 0x208c <__umodsi3+0xc6>
    1515: a2 10        	ldx	#$10
    1517: 86 72        	stx	$72                     ; 0x2072 <__umodsi3+0xac>
    1519: a5 43        	lda	$43                     ; 0x2043 <__umodsi3+0x7d>
    151b: 09 84        	ora	#$84
    151d: 80 10        	bra	$152f <printf+0x427>
    151f: a6 15        	ldx	$15                     ; 0x2015 <__umodsi3+0x4f>
    1521: 86 87        	stx	$87                     ; 0x2087 <__umodsi3+0xc1>
    1523: a6 18        	ldx	$18                     ; 0x2018 <__umodsi3+0x52>
    1525: 86 8c        	stx	$8c                     ; 0x208c <__umodsi3+0xc6>
    1527: a2 10        	ldx	#$10
    1529: 86 72        	stx	$72                     ; 0x2072 <__umodsi3+0xac>
    152b: a5 43        	lda	$43                     ; 0x2043 <__umodsi3+0x7d>
    152d: 09 80        	ora	#$80
    152f: aa           	tax
    1530: a9 00        	lda	#$0
    1532: 09 01        	ora	#$1
    1534: 86 43        	stx	$43                     ; 0x2043 <__umodsi3+0x7d>
    1536: 86 73        	stx	$73                     ; 0x2073 <__umodsi3+0xad>
    1538: 85 4d        	sta	$4d                     ; 0x204d <__umodsi3+0x87>
    153a: 85 74        	sta	$74                     ; 0x2074 <__umodsi3+0xae>
    153c: a2 10        	ldx	#$10
    153e: 86 88        	stx	$88                     ; 0x2088 <__umodsi3+0xc2>
    1540: 4c f2 15     	jmp	$15f2 <printf+0x4ea>
    1543: a5 83        	lda	$83                     ; 0x2083 <__umodsi3+0xbd>
    1545: a6 84        	ldx	$84                     ; 0x2084 <__umodsi3+0xbe>
    1547: 85 12        	sta	$12                     ; 0x2012 <__umodsi3+0x4c>
    1549: 86 13        	stx	$13                     ; 0x2013 <__umodsi3+0x4d>
    154b: 18           	clc
    154c: 69 02        	adc	#$2
    154e: 85 14        	sta	$14                     ; 0x2014 <__umodsi3+0x4e>
    1550: 8a           	txa
    1551: 69 00        	adc	#$0
    1553: a6 14        	ldx	$14                     ; 0x2014 <__umodsi3+0x4e>
    1555: 86 83        	stx	$83                     ; 0x2083 <__umodsi3+0xbd>
    1557: 85 84        	sta	$84                     ; 0x2084 <__umodsi3+0xbe>
    1559: b2 12        	lda	($12)                   ; 0x2012 <__umodsi3+0x4c>
    155b: aa           	tax
    155c: b1 12        	lda	($12),y                 ; 0x2012 <__umodsi3+0x4c>
    155e: 86 12        	stx	$12                     ; 0x2012 <__umodsi3+0x4c>
    1560: 85 13        	sta	$13                     ; 0x2013 <__umodsi3+0x4d>
    1562: a5 77        	lda	$77                     ; 0x2077 <__umodsi3+0xb1>
    1564: a6 78        	ldx	$78                     ; 0x2078 <__umodsi3+0xb2>
    1566: 92 12        	sta	($12)                   ; 0x2012 <__umodsi3+0x4c>
    1568: 8a           	txa
    1569: 91 12        	sta	($12),y                 ; 0x2012 <__umodsi3+0x4c>
    156b: 4c cb 15     	jmp	$15cb <printf+0x4c3>
    156e: a5 83        	lda	$83                     ; 0x2083 <__umodsi3+0xbd>
    1570: a6 84        	ldx	$84                     ; 0x2084 <__umodsi3+0xbe>
    1572: 85 12        	sta	$12                     ; 0x2012 <__umodsi3+0x4c>
    1574: 86 13        	stx	$13                     ; 0x2013 <__umodsi3+0x4d>
    1576: 18           	clc
    1577: 69 02        	adc	#$2
    1579: 85 14        	sta	$14                     ; 0x2014 <__umodsi3+0x4e>
    157b: 8a           	txa
    157c: 69 00        	adc	#$0
    157e: a6 14        	ldx	$14                     ; 0x2014 <__umodsi3+0x4e>
    1580: 86 83        	stx	$83                     ; 0x2083 <__umodsi3+0xbd>
    1582: 85 84        	sta	$84                     ; 0x2084 <__umodsi3+0xbe>
    1584: b2 12        	lda	($12)                   ; 0x2012 <__umodsi3+0x4c>
    1586: aa           	tax
    1587: b1 12        	lda	($12),y                 ; 0x2012 <__umodsi3+0x4c>
    1589: 86 12        	stx	$12                     ; 0x2012 <__umodsi3+0x4c>
    158b: 85 13        	sta	$13                     ; 0x2013 <__umodsi3+0x4d>
    158d: 80 2f        	bra	$15be <printf+0x4b6>
    158f: a6 15        	ldx	$15                     ; 0x2015 <__umodsi3+0x4f>
    1591: 86 87        	stx	$87                     ; 0x2087 <__umodsi3+0xc1>
    1593: a6 18        	ldx	$18                     ; 0x2018 <__umodsi3+0x52>
    1595: 86 8c        	stx	$8c                     ; 0x208c <__umodsi3+0xc6>
    1597: a0 08        	ldy	#$8
    1599: a2 08        	ldx	#$8
    159b: 80 45        	bra	$15e2 <printf+0x4da>
    159d: a5 83        	lda	$83                     ; 0x2083 <__umodsi3+0xbd>
    159f: a6 84        	ldx	$84                     ; 0x2084 <__umodsi3+0xbe>
    15a1: 85 12        	sta	$12                     ; 0x2012 <__umodsi3+0x4c>
    15a3: 86 13        	stx	$13                     ; 0x2013 <__umodsi3+0x4d>
    15a5: 18           	clc
    15a6: 69 02        	adc	#$2
    15a8: a8           	tay
    15a9: 8a           	txa
    15aa: 69 00        	adc	#$0
    15ac: 84 83        	sty	$83                     ; 0x2083 <__umodsi3+0xbd>
    15ae: 85 84        	sta	$84                     ; 0x2084 <__umodsi3+0xbe>
    15b0: b2 12        	lda	($12)                   ; 0x2012 <__umodsi3+0x4c>
    15b2: 85 65        	sta	$65                     ; 0x2065 <__umodsi3+0x9f>
    15b4: 64 66        	stz	$66                     ; 0x2066 <__umodsi3+0xa0>
    15b6: a2 65        	ldx	#$65
    15b8: 86 12        	stx	$12                     ; 0x2012 <__umodsi3+0x4c>
    15ba: a2 00        	ldx	#$0
    15bc: 86 13        	stx	$13                     ; 0x2013 <__umodsi3+0x4d>
    15be: a2 72        	ldx	#$72
    15c0: 86 14        	stx	$14                     ; 0x2014 <__umodsi3+0x4e>
    15c2: a2 00        	ldx	#$0
    15c4: 86 15        	stx	$15                     ; 0x2015 <__umodsi3+0x4f>
    15c6: 20 fb 0f     	jsr	$ffb <_ZN12_GLOBAL__N_112print_stringEPKcP6Status>
    15c9: a0 01        	ldy	#$1
    15cb: a2 00        	ldx	#$0
    15cd: 86 46        	stx	$46                     ; 0x2046 <__umodsi3+0x80>
    15cf: a2 00        	ldx	#$0
    15d1: 86 47        	stx	$47                     ; 0x2047 <__umodsi3+0x81>
    15d3: 4c 5f 1c     	jmp	$1c5f <printf+0xb57>
    15d6: a6 15        	ldx	$15                     ; 0x2015 <__umodsi3+0x4f>
    15d8: 86 87        	stx	$87                     ; 0x2087 <__umodsi3+0xc1>
    15da: a6 18        	ldx	$18                     ; 0x2018 <__umodsi3+0x52>
    15dc: 86 8c        	stx	$8c                     ; 0x208c <__umodsi3+0xc6>
    15de: a0 0a        	ldy	#$a
    15e0: a2 0a        	ldx	#$a
    15e2: 86 88        	stx	$88                     ; 0x2088 <__umodsi3+0xc2>
    15e4: 84 72        	sty	$72                     ; 0x2072 <__umodsi3+0xac>
    15e6: a9 00        	lda	#$0
    15e8: 09 01        	ora	#$1
    15ea: a6 43        	ldx	$43                     ; 0x2043 <__umodsi3+0x7d>
    15ec: 86 73        	stx	$73                     ; 0x2073 <__umodsi3+0xad>
    15ee: 85 4d        	sta	$4d                     ; 0x204d <__umodsi3+0x87>
    15f0: 85 74        	sta	$74                     ; 0x2074 <__umodsi3+0xae>
    15f2: a5 89        	lda	$89                     ; 0x2089 <__umodsi3+0xc3>
    15f4: 85 67        	sta	$67                     ; 0x2067 <__umodsi3+0xa1>
    15f6: a4 83        	ldy	$83                     ; 0x2083 <__umodsi3+0xbd>
    15f8: a6 84        	ldx	$84                     ; 0x2084 <__umodsi3+0xbe>
    15fa: 86 4b        	stx	$4b                     ; 0x204b <__umodsi3+0x85>
    15fc: 84 14        	sty	$14                     ; 0x2014 <__umodsi3+0x4e>
    15fe: 84 42        	sty	$42                     ; 0x2042 <__umodsi3+0x7c>
    1600: 86 15        	stx	$15                     ; 0x2015 <__umodsi3+0x4f>
    1602: a6 8a        	ldx	$8a                     ; 0x208a <__umodsi3+0xc4>
    1604: 86 12        	stx	$12                     ; 0x2012 <__umodsi3+0x4c>
    1606: a6 8b        	ldx	$8b                     ; 0x208b <__umodsi3+0xc5>
    1608: 86 13        	stx	$13                     ; 0x2013 <__umodsi3+0x4d>
    160a: a2 00        	ldx	#$0
    160c: 85 47        	sta	$47                     ; 0x2047 <__umodsi3+0x81>
    160e: 20 75 1f     	jsr	$1f75 <memcpy>
    1611: 18           	clc
    1612: a5 42        	lda	$42                     ; 0x2042 <__umodsi3+0x7c>
    1614: 65 46        	adc	$46                     ; 0x2046 <__umodsi3+0x80>
    1616: aa           	tax
    1617: a5 4b        	lda	$4b                     ; 0x204b <__umodsi3+0x85>
    1619: 69 00        	adc	#$0
    161b: 86 83        	stx	$83                     ; 0x2083 <__umodsi3+0xbd>
    161d: 85 84        	sta	$84                     ; 0x2084 <__umodsi3+0xbe>
    161f: a5 4d        	lda	$4d                     ; 0x204d <__umodsi3+0x87>
    1621: 29 01        	and	#$1
    1623: b8           	clv
    1624: f0 03        	beq	$1629 <printf+0x521>
    1626: 4c 7d 16     	jmp	$167d <printf+0x575>
    1629: a6 47        	ldx	$47                     ; 0x2047 <__umodsi3+0x81>
    162b: b5 67        	lda	$67,x                   ; 0x2067 <__umodsi3+0xa1>
    162d: aa           	tax
    162e: a0 01        	ldy	#$1
    1630: a5 4a        	lda	$4a                     ; 0x204a <__umodsi3+0x84>
    1632: 85 1a        	sta	$1a                     ; 0x201a <__umodsi3+0x54>
    1634: a5 8c        	lda	$8c                     ; 0x208c <__umodsi3+0xc6>
    1636: 85 4a        	sta	$4a                     ; 0x204a <__umodsi3+0x84>
    1638: a9 00        	lda	#$0
    163a: 85 46        	sta	$46                     ; 0x2046 <__umodsi3+0x80>
    163c: a9 00        	lda	#$0
    163e: 85 47        	sta	$47                     ; 0x2047 <__umodsi3+0x81>
    1640: a5 87        	lda	$87                     ; 0x2087 <__umodsi3+0xc1>
    1642: 85 4b        	sta	$4b                     ; 0x204b <__umodsi3+0x85>
    1644: 8a           	txa
    1645: 10 4c        	bpl	$1693 <printf+0x58b>
    1647: a2 00        	ldx	#$0
    1649: 64 12        	stz	$12                     ; 0x2012 <__umodsi3+0x4c>
    164b: a9 00        	lda	#$0
    164d: 38           	sec
    164e: f5 68        	sbc	$68,x                   ; 0x2068 <__umodsi3+0xa2>
    1650: a0 00        	ldy	#$0
    1652: b0 02        	bcs	$1656 <printf+0x54e>
    1654: a0 01        	ldy	#$1
    1656: 38           	sec
    1657: e5 12        	sbc	$12                     ; 0x2012 <__umodsi3+0x4c>
    1659: 85 13        	sta	$13                     ; 0x2013 <__umodsi3+0x4d>
    165b: 64 12        	stz	$12                     ; 0x2012 <__umodsi3+0x4c>
    165d: b0 04        	bcs	$1663 <printf+0x55b>
    165f: a9 01        	lda	#$1
    1661: 85 12        	sta	$12                     ; 0x2012 <__umodsi3+0x4c>
    1663: 98           	tya
    1664: 05 12        	ora	$12                     ; 0x2012 <__umodsi3+0x4c>
    1666: 85 12        	sta	$12                     ; 0x2012 <__umodsi3+0x4c>
    1668: a5 13        	lda	$13                     ; 0x2013 <__umodsi3+0x4d>
    166a: 9d 68 00     	sta	$68,x                   ; 0x68 <__rc31+0x39>
    166d: e8           	inx
    166e: 86 13        	stx	$13                     ; 0x2013 <__umodsi3+0x4d>
    1670: a4 89        	ldy	$89                     ; 0x2089 <__umodsi3+0xc3>
    1672: c4 13        	cpy	$13                     ; 0x2013 <__umodsi3+0x4d>
    1674: d0 d5        	bne	$164b <printf+0x543>
    1676: 2c 0d 21     	bit	$210d                   ; 0x210d <__set_v>
    1679: a0 01        	ldy	#$1
    167b: 80 16        	bra	$1693 <printf+0x58b>
    167d: a0 01        	ldy	#$1
    167f: a6 4a        	ldx	$4a                     ; 0x204a <__umodsi3+0x84>
    1681: 86 1a        	stx	$1a                     ; 0x201a <__umodsi3+0x54>
    1683: a6 8c        	ldx	$8c                     ; 0x208c <__umodsi3+0xc6>
    1685: 86 4a        	stx	$4a                     ; 0x204a <__umodsi3+0x84>
    1687: a2 00        	ldx	#$0
    1689: 86 46        	stx	$46                     ; 0x2046 <__umodsi3+0x80>
    168b: a2 00        	ldx	#$0
    168d: 86 47        	stx	$47                     ; 0x2047 <__umodsi3+0x81>
    168f: a6 87        	ldx	$87                     ; 0x2087 <__umodsi3+0xc1>
    1691: 86 4b        	stx	$4b                     ; 0x204b <__umodsi3+0x85>
    1693: a2 01        	ldx	#$1
    1695: 70 02        	bvs	$1699 <printf+0x591>
    1697: a2 00        	ldx	#$0
    1699: 86 16        	stx	$16                     ; 0x2016 <__umodsi3+0x50>
    169b: a5 89        	lda	$89                     ; 0x2089 <__umodsi3+0xc3>
    169d: 0a           	asl
    169e: 0a           	asl
    169f: 0a           	asl
    16a0: 85 12        	sta	$12                     ; 0x2012 <__umodsi3+0x4c>
    16a2: a2 00        	ldx	#$0
    16a4: 8a           	txa
    16a5: 4c 59 17     	jmp	$1759 <printf+0x651>
    16a8: da           	phx
    16a9: 7a           	ply
    16aa: c8           	iny
    16ab: 9d 50 00     	sta	$50,x                   ; 0x50 <__rc31+0x21>
    16ae: 5a           	phy
    16af: fa           	plx
    16b0: c4 42        	cpy	$42                     ; 0x2042 <__umodsi3+0x7c>
    16b2: f0 30        	beq	$16e4 <printf+0x5dc>
    16b4: b5 50        	lda	$50,x                   ; 0x2050 <__umodsi3+0x8a>
    16b6: 0a           	asl
    16b7: a4 87        	ldy	$87                     ; 0x2087 <__umodsi3+0xc1>
    16b9: f0 02        	beq	$16bd <printf+0x5b5>
    16bb: 09 01        	ora	#$1
    16bd: a4 88        	ldy	$88                     ; 0x2088 <__umodsi3+0xc2>
    16bf: 84 14        	sty	$14                     ; 0x2014 <__umodsi3+0x4e>
    16c1: c5 14        	cmp	$14                     ; 0x2014 <__umodsi3+0x4e>
    16c3: a0 01        	ldy	#$1
    16c5: b0 02        	bcs	$16c9 <printf+0x5c1>
    16c7: a0 00        	ldy	#$0
    16c9: 84 87        	sty	$87                     ; 0x2087 <__umodsi3+0xc1>
    16cb: 90 db        	bcc	$16a8 <printf+0x5a0>
    16cd: 38           	sec
    16ce: e5 14        	sbc	$14                     ; 0x2014 <__umodsi3+0x4e>
    16d0: 9d 50 00     	sta	$50,x                   ; 0x50 <__rc31+0x21>
    16d3: e8           	inx
    16d4: e4 42        	cpx	$42                     ; 0x2042 <__umodsi3+0x7c>
    16d6: d0 dc        	bne	$16b4 <printf+0x5ac>
    16d8: a4 42        	ldy	$42                     ; 0x2042 <__umodsi3+0x7c>
    16da: a6 42        	ldx	$42                     ; 0x2042 <__umodsi3+0x7c>
    16dc: e8           	inx
    16dd: a9 01        	lda	#$1
    16df: 99 50 00     	sta	$50,y                   ; 0x50 <__rc31+0x21>
    16e2: 86 42        	stx	$42                     ; 0x2042 <__umodsi3+0x7c>
    16e4: a6 89        	ldx	$89                     ; 0x2089 <__umodsi3+0xc3>
    16e6: b5 67        	lda	$67,x                   ; 0x2067 <__umodsi3+0xa1>
    16e8: aa           	tax
    16e9: 30 0f        	bmi	$16fa <printf+0x5f2>
    16eb: a0 01        	ldy	#$1
    16ed: 80 42        	bra	$1731 <printf+0x629>
    16ef: a6 89        	ldx	$89                     ; 0x2089 <__umodsi3+0xc3>
    16f1: b5 67        	lda	$67,x                   ; 0x2067 <__umodsi3+0xa1>
    16f3: aa           	tax
    16f4: 64 42        	stz	$42                     ; 0x2042 <__umodsi3+0x7c>
    16f6: 10 39        	bpl	$1731 <printf+0x629>
    16f8: 80 2a        	bra	$1724 <printf+0x61c>
    16fa: a5 42        	lda	$42                     ; 0x2042 <__umodsi3+0x7c>
    16fc: f0 24        	beq	$1722 <printf+0x61a>
    16fe: a2 00        	ldx	#$0
    1700: a4 88        	ldy	$88                     ; 0x2088 <__umodsi3+0xc2>
    1702: 84 14        	sty	$14                     ; 0x2014 <__umodsi3+0x4e>
    1704: b5 50        	lda	$50,x                   ; 0x2050 <__umodsi3+0x8a>
    1706: 1a           	inc
    1707: f6 50        	inc	$50,x                   ; 0x2050 <__umodsi3+0x8a>
    1709: c5 14        	cmp	$14                     ; 0x2014 <__umodsi3+0x4e>
    170b: 90 de        	bcc	$16eb <printf+0x5e3>
    170d: a4 14        	ldy	$14                     ; 0x2014 <__umodsi3+0x4e>
    170f: 84 13        	sty	$13                     ; 0x2013 <__umodsi3+0x4d>
    1711: 38           	sec
    1712: e5 13        	sbc	$13                     ; 0x2013 <__umodsi3+0x4d>
    1714: 9d 50 00     	sta	$50,x                   ; 0x50 <__rc31+0x21>
    1717: e8           	inx
    1718: 86 13        	stx	$13                     ; 0x2013 <__umodsi3+0x4d>
    171a: a4 42        	ldy	$42                     ; 0x2042 <__umodsi3+0x7c>
    171c: c4 13        	cpy	$13                     ; 0x2013 <__umodsi3+0x4d>
    171e: d0 e4        	bne	$1704 <printf+0x5fc>
    1720: 80 02        	bra	$1724 <printf+0x61c>
    1722: 64 42        	stz	$42                     ; 0x2042 <__umodsi3+0x7c>
    1724: a4 42        	ldy	$42                     ; 0x2042 <__umodsi3+0x7c>
    1726: a6 42        	ldx	$42                     ; 0x2042 <__umodsi3+0x7c>
    1728: e8           	inx
    1729: a9 01        	lda	#$1
    172b: 99 50 00     	sta	$50,y                   ; 0x50 <__rc31+0x21>
    172e: a8           	tay
    172f: 86 42        	stx	$42                     ; 0x2042 <__umodsi3+0x7c>
    1731: a2 01        	ldx	#$1
    1733: 64 13        	stz	$13                     ; 0x2013 <__umodsi3+0x4d>
    1735: a5 89        	lda	$89                     ; 0x2089 <__umodsi3+0xc3>
    1737: 85 14        	sta	$14                     ; 0x2014 <__umodsi3+0x4e>
    1739: b5 67        	lda	$67,x                   ; 0x2067 <__umodsi3+0xa1>
    173b: 0a           	asl
    173c: 64 15        	stz	$15                     ; 0x2015 <__umodsi3+0x4f>
    173e: 26 15        	rol	$15                     ; 0x2015 <__umodsi3+0x4f>
    1740: 05 13        	ora	$13                     ; 0x2013 <__umodsi3+0x4d>
    1742: 9d 67 00     	sta	$67,x                   ; 0x67 <__rc31+0x38>
    1745: e8           	inx
    1746: c6 14        	dec	$14                     ; 0x2014 <__umodsi3+0x4e>
    1748: a5 15        	lda	$15                     ; 0x2015 <__umodsi3+0x4f>
    174a: 85 13        	sta	$13                     ; 0x2013 <__umodsi3+0x4d>
    174c: a5 14        	lda	$14                     ; 0x2014 <__umodsi3+0x4e>
    174e: d0 e9        	bne	$1739 <printf+0x631>
    1750: a5 17        	lda	$17                     ; 0x2017 <__umodsi3+0x51>
    1752: 1a           	inc
    1753: c5 12        	cmp	$12                     ; 0x2012 <__umodsi3+0x4c>
    1755: a6 42        	ldx	$42                     ; 0x2042 <__umodsi3+0x7c>
    1757: b0 14        	bcs	$176d <printf+0x665>
    1759: 85 17        	sta	$17                     ; 0x2017 <__umodsi3+0x51>
    175b: 8a           	txa
    175c: d0 03        	bne	$1761 <printf+0x659>
    175e: 4c ef 16     	jmp	$16ef <printf+0x5e7>
    1761: 86 42        	stx	$42                     ; 0x2042 <__umodsi3+0x7c>
    1763: 18           	clc
    1764: a2 00        	ldx	#$0
    1766: 86 87        	stx	$87                     ; 0x2087 <__umodsi3+0xc1>
    1768: a2 00        	ldx	#$0
    176a: 4c b4 16     	jmp	$16b4 <printf+0x5ac>
    176d: a5 43        	lda	$43                     ; 0x2043 <__umodsi3+0x7d>
    176f: e6 4b        	inc	$4b                     ; 0x204b <__umodsi3+0x85>
    1771: c6 4b        	dec	$4b                     ; 0x204b <__umodsi3+0x85>
    1773: 10 08        	bpl	$177d <printf+0x675>
    1775: a2 01        	ldx	#$1
    1777: 64 4b        	stz	$4b                     ; 0x204b <__umodsi3+0x85>
    1779: 86 4a        	stx	$4a                     ; 0x204a <__umodsi3+0x84>
    177b: a6 42        	ldx	$42                     ; 0x2042 <__umodsi3+0x7c>
    177d: 29 04        	and	#$4
    177f: f0 2b        	beq	$17ac <printf+0x6a4>
    1781: a5 88        	lda	$88                     ; 0x2088 <__umodsi3+0xc2>
    1783: c9 10        	cmp	#$10
    1785: f0 14        	beq	$179b <printf+0x693>
    1787: c9 08        	cmp	#$8
    1789: d0 21        	bne	$17ac <printf+0x6a4>
    178b: a2 00        	ldx	#$0
    178d: e4 4b        	cpx	$4b                     ; 0x204b <__umodsi3+0x85>
    178f: f0 03        	beq	$1794 <printf+0x68c>
    1791: 4c 84 1c     	jmp	$1c84 <printf+0xb7c>
    1794: a6 42        	ldx	$42                     ; 0x2042 <__umodsi3+0x7c>
    1796: e4 4a        	cpx	$4a                     ; 0x204a <__umodsi3+0x84>
    1798: 4c 86 1c     	jmp	$1c86 <printf+0xb7e>
    179b: 8a           	txa
    179c: f0 0e        	beq	$17ac <printf+0x6a4>
    179e: a5 43        	lda	$43                     ; 0x2043 <__umodsi3+0x7d>
    17a0: 29 80        	and	#$80
    17a2: d0 03        	bne	$17a7 <printf+0x69f>
    17a4: 4c 9f 1c     	jmp	$1c9f <printf+0xb97>
    17a7: a2 78        	ldx	#$78
    17a9: 4c a1 1c     	jmp	$1ca1 <printf+0xb99>
    17ac: a6 43        	ldx	$43                     ; 0x2043 <__umodsi3+0x7d>
    17ae: a9 2d        	lda	#$2d
    17b0: 85 89        	sta	$89                     ; 0x2089 <__umodsi3+0xc3>
    17b2: a5 16        	lda	$16                     ; 0x2016 <__umodsi3+0x50>
    17b4: d0 34        	bne	$17ea <printf+0x6e2>
    17b6: 86 12        	stx	$12                     ; 0x2012 <__umodsi3+0x4c>
    17b8: 8a           	txa
    17b9: 29 02        	and	#$2
    17bb: a2 2b        	ldx	#$2b
    17bd: 86 89        	stx	$89                     ; 0x2089 <__umodsi3+0xc3>
    17bf: aa           	tax
    17c0: d0 28        	bne	$17ea <printf+0x6e2>
    17c2: a5 12        	lda	$12                     ; 0x2012 <__umodsi3+0x4c>
    17c4: 29 08        	and	#$8
    17c6: d0 1e        	bne	$17e6 <printf+0x6de>
    17c8: 38           	sec
    17c9: a2 01        	ldx	#$1
    17cb: 86 88        	stx	$88                     ; 0x2088 <__umodsi3+0xc2>
    17cd: a9 00        	lda	#$0
    17cf: 18           	clc
    17d0: aa           	tax
    17d1: 86 87        	stx	$87                     ; 0x2087 <__umodsi3+0xc1>
    17d3: 80 1d        	bra	$17f2 <printf+0x6ea>
    17d5: 85 12        	sta	$12                     ; 0x2012 <__umodsi3+0x4c>
    17d7: a9 04        	lda	#$4
    17d9: 80 04        	bra	$17df <printf+0x6d7>
    17db: 85 12        	sta	$12                     ; 0x2012 <__umodsi3+0x4c>
    17dd: a9 02        	lda	#$2
    17df: 85 89        	sta	$89                     ; 0x2089 <__umodsi3+0xc3>
    17e1: a5 12        	lda	$12                     ; 0x2012 <__umodsi3+0x4c>
    17e3: 4c af 14     	jmp	$14af <printf+0x3a7>
    17e6: a2 20        	ldx	#$20
    17e8: 86 89        	stx	$89                     ; 0x2089 <__umodsi3+0xc3>
    17ea: 18           	clc
    17eb: a2 00        	ldx	#$0
    17ed: 86 88        	stx	$88                     ; 0x2088 <__umodsi3+0xc2>
    17ef: 86 87        	stx	$87                     ; 0x2087 <__umodsi3+0xc1>
    17f1: 98           	tya
    17f2: a6 4b        	ldx	$4b                     ; 0x204b <__umodsi3+0x85>
    17f4: d0 35        	bne	$182b <printf+0x723>
    17f6: a6 4a        	ldx	$4a                     ; 0x204a <__umodsi3+0x84>
    17f8: a4 42        	ldy	$42                     ; 0x2042 <__umodsi3+0x7c>
    17fa: 84 12        	sty	$12                     ; 0x2012 <__umodsi3+0x4c>
    17fc: e4 12        	cpx	$12                     ; 0x2012 <__umodsi3+0x4c>
    17fe: a6 4a        	ldx	$4a                     ; 0x204a <__umodsi3+0x84>
    1800: 86 12        	stx	$12                     ; 0x2012 <__umodsi3+0x4c>
    1802: a6 4b        	ldx	$4b                     ; 0x204b <__umodsi3+0x85>
    1804: 86 13        	stx	$13                     ; 0x2013 <__umodsi3+0x4d>
    1806: b0 04        	bcs	$180c <printf+0x704>
    1808: 84 12        	sty	$12                     ; 0x2012 <__umodsi3+0x4c>
    180a: 64 13        	stz	$13                     ; 0x2013 <__umodsi3+0x4d>
    180c: 85 18        	sta	$18                     ; 0x2018 <__umodsi3+0x52>
    180e: 18           	clc
    180f: 65 12        	adc	$12                     ; 0x2012 <__umodsi3+0x4c>
    1811: 85 16        	sta	$16                     ; 0x2016 <__umodsi3+0x50>
    1813: 85 14        	sta	$14                     ; 0x2014 <__umodsi3+0x4e>
    1815: a5 13        	lda	$13                     ; 0x2013 <__umodsi3+0x4d>
    1817: 69 00        	adc	#$0
    1819: 85 15        	sta	$15                     ; 0x2015 <__umodsi3+0x4f>
    181b: c5 1a        	cmp	$1a                     ; 0x201a <__umodsi3+0x54>
    181d: d0 1e        	bne	$183d <printf+0x735>
    181f: a6 1a        	ldx	$1a                     ; 0x201a <__umodsi3+0x54>
    1821: 86 17        	stx	$17                     ; 0x2017 <__umodsi3+0x51>
    1823: a6 4c        	ldx	$4c                     ; 0x204c <__umodsi3+0x86>
    1825: a5 16        	lda	$16                     ; 0x2016 <__umodsi3+0x50>
    1827: c5 4c        	cmp	$4c                     ; 0x204c <__umodsi3+0x86>
    1829: 80 1c        	bra	$1847 <printf+0x73f>
    182b: a6 4b        	ldx	$4b                     ; 0x204b <__umodsi3+0x85>
    182d: e0 00        	cpx	#$0
    182f: a6 4a        	ldx	$4a                     ; 0x204a <__umodsi3+0x84>
    1831: 86 12        	stx	$12                     ; 0x2012 <__umodsi3+0x4c>
    1833: a6 4b        	ldx	$4b                     ; 0x204b <__umodsi3+0x85>
    1835: 86 13        	stx	$13                     ; 0x2013 <__umodsi3+0x4d>
    1837: a4 42        	ldy	$42                     ; 0x2042 <__umodsi3+0x7c>
    1839: 90 cd        	bcc	$1808 <printf+0x700>
    183b: 80 cf        	bra	$180c <printf+0x704>
    183d: a6 4c        	ldx	$4c                     ; 0x204c <__umodsi3+0x86>
    183f: 5a           	phy
    1840: a4 1a        	ldy	$1a                     ; 0x201a <__umodsi3+0x54>
    1842: 84 17        	sty	$17                     ; 0x2017 <__umodsi3+0x51>
    1844: 7a           	ply
    1845: c5 1a        	cmp	$1a                     ; 0x201a <__umodsi3+0x54>
    1847: 64 4d        	stz	$4d                     ; 0x204d <__umodsi3+0x87>
    1849: 64 4c        	stz	$4c                     ; 0x204c <__umodsi3+0x86>
    184b: 90 03        	bcc	$1850 <printf+0x748>
    184d: 4c e3 18     	jmp	$18e3 <printf+0x7db>
    1850: a5 43        	lda	$43                     ; 0x2043 <__umodsi3+0x7d>
    1852: 29 11        	and	#$11
    1854: 86 16        	stx	$16                     ; 0x2016 <__umodsi3+0x50>
    1856: f0 0f        	beq	$1867 <printf+0x75f>
    1858: 8a           	txa
    1859: 38           	sec
    185a: e5 14        	sbc	$14                     ; 0x2014 <__umodsi3+0x4e>
    185c: 85 4d        	sta	$4d                     ; 0x204d <__umodsi3+0x87>
    185e: a5 1a        	lda	$1a                     ; 0x201a <__umodsi3+0x54>
    1860: e5 15        	sbc	$15                     ; 0x2015 <__umodsi3+0x4f>
    1862: 85 4c        	sta	$4c                     ; 0x204c <__umodsi3+0x86>
    1864: 4c e3 18     	jmp	$18e3 <printf+0x7db>
    1867: a6 77        	ldx	$77                     ; 0x2077 <__umodsi3+0xb1>
    1869: 86 14        	stx	$14                     ; 0x2014 <__umodsi3+0x4e>
    186b: 38           	sec
    186c: a5 18        	lda	$18                     ; 0x2018 <__umodsi3+0x52>
    186e: e5 16        	sbc	$16                     ; 0x2016 <__umodsi3+0x50>
    1870: aa           	tax
    1871: a9 00        	lda	#$0
    1873: e5 17        	sbc	$17                     ; 0x2017 <__umodsi3+0x51>
    1875: a8           	tay
    1876: 18           	clc
    1877: 8a           	txa
    1878: 65 12        	adc	$12                     ; 0x2012 <__umodsi3+0x4c>
    187a: 85 43        	sta	$43                     ; 0x2043 <__umodsi3+0x7d>
    187c: 98           	tya
    187d: 65 13        	adc	$13                     ; 0x2013 <__umodsi3+0x4d>
    187f: a4 78        	ldy	$78                     ; 0x2078 <__umodsi3+0xb2>
    1881: 80 47        	bra	$18ca <printf+0x7c2>
    1883: c4 76        	cpy	$76                     ; 0x2076 <__umodsi3+0xb0>
    1885: b0 25        	bcs	$18ac <printf+0x7a4>
    1887: a6 82        	ldx	$82                     ; 0x2082 <__umodsi3+0xbc>
    1889: e4 47        	cpx	$47                     ; 0x2047 <__umodsi3+0x81>
    188b: d0 18        	bne	$18a5 <printf+0x79d>
    188d: a6 81        	ldx	$81                     ; 0x2081 <__umodsi3+0xbb>
    188f: e4 46        	cpx	$46                     ; 0x2046 <__umodsi3+0x80>
    1891: d0 12        	bne	$18a5 <printf+0x79d>
    1893: 18           	clc
    1894: a5 14        	lda	$14                     ; 0x2014 <__umodsi3+0x4e>
    1896: 65 7b        	adc	$7b                     ; 0x207b <__umodsi3+0xb5>
    1898: 85 12        	sta	$12                     ; 0x2012 <__umodsi3+0x4c>
    189a: 98           	tya
    189b: 65 7c        	adc	$7c                     ; 0x207c <__umodsi3+0xb6>
    189d: 85 13        	sta	$13                     ; 0x2013 <__umodsi3+0x4d>
    189f: a9 20        	lda	#$20
    18a1: 92 12        	sta	($12)                   ; 0x2012 <__umodsi3+0x4c>
    18a3: 80 05        	bra	$18aa <printf+0x7a2>
    18a5: a9 20        	lda	#$20
    18a7: 20 18 0f     	jsr	$f18 <__putchar>
    18aa: a5 4c        	lda	$4c                     ; 0x204c <__umodsi3+0x86>
    18ac: a6 77        	ldx	$77                     ; 0x2077 <__umodsi3+0xb1>
    18ae: a4 78        	ldy	$78                     ; 0x2078 <__umodsi3+0xb2>
    18b0: e8           	inx
    18b1: d0 01        	bne	$18b4 <printf+0x7ac>
    18b3: c8           	iny
    18b4: 86 14        	stx	$14                     ; 0x2014 <__umodsi3+0x4e>
    18b6: 86 77        	stx	$77                     ; 0x2077 <__umodsi3+0xb1>
    18b8: 84 78        	sty	$78                     ; 0x2078 <__umodsi3+0xb2>
    18ba: a6 43        	ldx	$43                     ; 0x2043 <__umodsi3+0x7d>
    18bc: e8           	inx
    18bd: d0 01        	bne	$18c0 <printf+0x7b8>
    18bf: 1a           	inc
    18c0: 86 43        	stx	$43                     ; 0x2043 <__umodsi3+0x7d>
    18c2: c9 00        	cmp	#$0
    18c4: d0 04        	bne	$18ca <printf+0x7c2>
    18c6: e0 00        	cpx	#$0
    18c8: f0 13        	beq	$18dd <printf+0x7d5>
    18ca: 85 4c        	sta	$4c                     ; 0x204c <__umodsi3+0x86>
    18cc: c4 76        	cpy	$76                     ; 0x2076 <__umodsi3+0xb0>
    18ce: d0 b3        	bne	$1883 <printf+0x77b>
    18d0: a6 75        	ldx	$75                     ; 0x2075 <__umodsi3+0xaf>
    18d2: 86 12        	stx	$12                     ; 0x2012 <__umodsi3+0x4c>
    18d4: a6 14        	ldx	$14                     ; 0x2014 <__umodsi3+0x4e>
    18d6: e4 12        	cpx	$12                     ; 0x2012 <__umodsi3+0x4c>
    18d8: b0 d2        	bcs	$18ac <printf+0x7a4>
    18da: 4c 87 18     	jmp	$1887 <printf+0x77f>
    18dd: 64 4d        	stz	$4d                     ; 0x204d <__umodsi3+0x87>
    18df: 64 4c        	stz	$4c                     ; 0x204c <__umodsi3+0x86>
    18e1: a4 42        	ldy	$42                     ; 0x2042 <__umodsi3+0x7c>
    18e3: a6 88        	ldx	$88                     ; 0x2088 <__umodsi3+0xc2>
    18e5: d0 4d        	bne	$1934 <printf+0x82c>
    18e7: a6 77        	ldx	$77                     ; 0x2077 <__umodsi3+0xb1>
    18e9: a5 78        	lda	$78                     ; 0x2078 <__umodsi3+0xb2>
    18eb: c5 76        	cmp	$76                     ; 0x2076 <__umodsi3+0xb0>
    18ed: d0 10        	bne	$18ff <printf+0x7f7>
    18ef: 86 13        	stx	$13                     ; 0x2013 <__umodsi3+0x4d>
    18f1: a6 75        	ldx	$75                     ; 0x2075 <__umodsi3+0xaf>
    18f3: 86 12        	stx	$12                     ; 0x2012 <__umodsi3+0x4c>
    18f5: a4 42        	ldy	$42                     ; 0x2042 <__umodsi3+0x7c>
    18f7: a6 13        	ldx	$13                     ; 0x2013 <__umodsi3+0x4d>
    18f9: e4 12        	cpx	$12                     ; 0x2012 <__umodsi3+0x4c>
    18fb: 90 08        	bcc	$1905 <printf+0x7fd>
    18fd: 80 2f        	bra	$192e <printf+0x826>
    18ff: 86 13        	stx	$13                     ; 0x2013 <__umodsi3+0x4d>
    1901: c5 76        	cmp	$76                     ; 0x2076 <__umodsi3+0xb0>
    1903: b0 29        	bcs	$192e <printf+0x826>
    1905: a6 82        	ldx	$82                     ; 0x2082 <__umodsi3+0xbc>
    1907: e4 47        	cpx	$47                     ; 0x2047 <__umodsi3+0x81>
    1909: d0 1c        	bne	$1927 <printf+0x81f>
    190b: a6 81        	ldx	$81                     ; 0x2081 <__umodsi3+0xbb>
    190d: e4 46        	cpx	$46                     ; 0x2046 <__umodsi3+0x80>
    190f: d0 16        	bne	$1927 <printf+0x81f>
    1911: 18           	clc
    1912: 85 12        	sta	$12                     ; 0x2012 <__umodsi3+0x4c>
    1914: a5 13        	lda	$13                     ; 0x2013 <__umodsi3+0x4d>
    1916: 65 7b        	adc	$7b                     ; 0x207b <__umodsi3+0xb5>
    1918: aa           	tax
    1919: a5 12        	lda	$12                     ; 0x2012 <__umodsi3+0x4c>
    191b: 65 7c        	adc	$7c                     ; 0x207c <__umodsi3+0xb6>
    191d: 86 12        	stx	$12                     ; 0x2012 <__umodsi3+0x4c>
    191f: 85 13        	sta	$13                     ; 0x2013 <__umodsi3+0x4d>
    1921: a5 89        	lda	$89                     ; 0x2089 <__umodsi3+0xc3>
    1923: 92 12        	sta	($12)                   ; 0x2012 <__umodsi3+0x4c>
    1925: 80 05        	bra	$192c <printf+0x824>
    1927: a5 89        	lda	$89                     ; 0x2089 <__umodsi3+0xc3>
    1929: 20 18 0f     	jsr	$f18 <__putchar>
    192c: a4 42        	ldy	$42                     ; 0x2042 <__umodsi3+0x7c>
    192e: e6 77        	inc	$77                     ; 0x2077 <__umodsi3+0xb1>
    1930: d0 02        	bne	$1934 <printf+0x82c>
    1932: e6 78        	inc	$78                     ; 0x2078 <__umodsi3+0xb2>
    1934: a6 87        	ldx	$87                     ; 0x2087 <__umodsi3+0xc1>
    1936: f0 4d        	beq	$1985 <printf+0x87d>
    1938: a6 77        	ldx	$77                     ; 0x2077 <__umodsi3+0xb1>
    193a: a5 78        	lda	$78                     ; 0x2078 <__umodsi3+0xb2>
    193c: c5 76        	cmp	$76                     ; 0x2076 <__umodsi3+0xb0>
    193e: d0 10        	bne	$1950 <printf+0x848>
    1940: 86 13        	stx	$13                     ; 0x2013 <__umodsi3+0x4d>
    1942: a6 75        	ldx	$75                     ; 0x2075 <__umodsi3+0xaf>
    1944: 86 12        	stx	$12                     ; 0x2012 <__umodsi3+0x4c>
    1946: a4 42        	ldy	$42                     ; 0x2042 <__umodsi3+0x7c>
    1948: a6 13        	ldx	$13                     ; 0x2013 <__umodsi3+0x4d>
    194a: e4 12        	cpx	$12                     ; 0x2012 <__umodsi3+0x4c>
    194c: 90 08        	bcc	$1956 <printf+0x84e>
    194e: 80 2f        	bra	$197f <printf+0x877>
    1950: 86 13        	stx	$13                     ; 0x2013 <__umodsi3+0x4d>
    1952: c5 76        	cmp	$76                     ; 0x2076 <__umodsi3+0xb0>
    1954: b0 29        	bcs	$197f <printf+0x877>
    1956: a6 82        	ldx	$82                     ; 0x2082 <__umodsi3+0xbc>
    1958: e4 47        	cpx	$47                     ; 0x2047 <__umodsi3+0x81>
    195a: d0 1c        	bne	$1978 <printf+0x870>
    195c: a6 81        	ldx	$81                     ; 0x2081 <__umodsi3+0xbb>
    195e: e4 46        	cpx	$46                     ; 0x2046 <__umodsi3+0x80>
    1960: d0 16        	bne	$1978 <printf+0x870>
    1962: 18           	clc
    1963: 85 12        	sta	$12                     ; 0x2012 <__umodsi3+0x4c>
    1965: a5 13        	lda	$13                     ; 0x2013 <__umodsi3+0x4d>
    1967: 65 7b        	adc	$7b                     ; 0x207b <__umodsi3+0xb5>
    1969: aa           	tax
    196a: a5 12        	lda	$12                     ; 0x2012 <__umodsi3+0x4c>
    196c: 65 7c        	adc	$7c                     ; 0x207c <__umodsi3+0xb6>
    196e: 86 12        	stx	$12                     ; 0x2012 <__umodsi3+0x4c>
    1970: 85 13        	sta	$13                     ; 0x2013 <__umodsi3+0x4d>
    1972: a5 8c        	lda	$8c                     ; 0x208c <__umodsi3+0xc6>
    1974: 92 12        	sta	($12)                   ; 0x2012 <__umodsi3+0x4c>
    1976: 80 05        	bra	$197d <printf+0x875>
    1978: a5 8c        	lda	$8c                     ; 0x208c <__umodsi3+0xc6>
    197a: 20 18 0f     	jsr	$f18 <__putchar>
    197d: a4 42        	ldy	$42                     ; 0x2042 <__umodsi3+0x7c>
    197f: e6 77        	inc	$77                     ; 0x2077 <__umodsi3+0xb1>
    1981: d0 02        	bne	$1985 <printf+0x87d>
    1983: e6 78        	inc	$78                     ; 0x2078 <__umodsi3+0xb2>
    1985: a9 10        	lda	#$10
    1987: 25 73        	and	$73                     ; 0x2073 <__umodsi3+0xad>
    1989: d0 03        	bne	$198e <printf+0x886>
    198b: 4c 16 1a     	jmp	$1a16 <printf+0x90e>
    198e: a5 73        	lda	$73                     ; 0x2073 <__umodsi3+0xad>
    1990: 29 01        	and	#$1
    1992: 29 01        	and	#$1
    1994: f0 03        	beq	$1999 <printf+0x891>
    1996: 4c 16 1a     	jmp	$1a16 <printf+0x90e>
    1999: a6 4d        	ldx	$4d                     ; 0x204d <__umodsi3+0x87>
    199b: a5 4c        	lda	$4c                     ; 0x204c <__umodsi3+0x86>
    199d: d0 06        	bne	$19a5 <printf+0x89d>
    199f: 8a           	txa
    19a0: d0 03        	bne	$19a5 <printf+0x89d>
    19a2: 4c b6 1c     	jmp	$1cb6 <printf+0xbae>
    19a5: a6 77        	ldx	$77                     ; 0x2077 <__umodsi3+0xb1>
    19a7: 86 13        	stx	$13                     ; 0x2013 <__umodsi3+0x4d>
    19a9: a5 78        	lda	$78                     ; 0x2078 <__umodsi3+0xb2>
    19ab: 80 4f        	bra	$19fc <printf+0x8f4>
    19ad: c5 76        	cmp	$76                     ; 0x2076 <__umodsi3+0xb0>
    19af: b0 24        	bcs	$19d5 <printf+0x8cd>
    19b1: a6 82        	ldx	$82                     ; 0x2082 <__umodsi3+0xbc>
    19b3: e4 47        	cpx	$47                     ; 0x2047 <__umodsi3+0x81>
    19b5: d0 19        	bne	$19d0 <printf+0x8c8>
    19b7: a6 81        	ldx	$81                     ; 0x2081 <__umodsi3+0xbb>
    19b9: e4 46        	cpx	$46                     ; 0x2046 <__umodsi3+0x80>
    19bb: d0 13        	bne	$19d0 <printf+0x8c8>
    19bd: 18           	clc
    19be: aa           	tax
    19bf: a5 13        	lda	$13                     ; 0x2013 <__umodsi3+0x4d>
    19c1: 65 7b        	adc	$7b                     ; 0x207b <__umodsi3+0xb5>
    19c3: 85 12        	sta	$12                     ; 0x2012 <__umodsi3+0x4c>
    19c5: 8a           	txa
    19c6: 65 7c        	adc	$7c                     ; 0x207c <__umodsi3+0xb6>
    19c8: 85 13        	sta	$13                     ; 0x2013 <__umodsi3+0x4d>
    19ca: a9 30        	lda	#$30
    19cc: 92 12        	sta	($12)                   ; 0x2012 <__umodsi3+0x4c>
    19ce: 80 05        	bra	$19d5 <printf+0x8cd>
    19d0: a9 30        	lda	#$30
    19d2: 20 18 0f     	jsr	$f18 <__putchar>
    19d5: a6 77        	ldx	$77                     ; 0x2077 <__umodsi3+0xb1>
    19d7: a5 78        	lda	$78                     ; 0x2078 <__umodsi3+0xb2>
    19d9: e8           	inx
    19da: d0 01        	bne	$19dd <printf+0x8d5>
    19dc: 1a           	inc
    19dd: 86 13        	stx	$13                     ; 0x2013 <__umodsi3+0x4d>
    19df: 86 77        	stx	$77                     ; 0x2077 <__umodsi3+0xb1>
    19e1: 85 78        	sta	$78                     ; 0x2078 <__umodsi3+0xb2>
    19e3: a4 4d        	ldy	$4d                     ; 0x204d <__umodsi3+0x87>
    19e5: a6 4c        	ldx	$4c                     ; 0x204c <__umodsi3+0x86>
    19e7: 86 12        	stx	$12                     ; 0x2012 <__umodsi3+0x4c>
    19e9: 88           	dey
    19ea: c0 ff        	cpy	#$ff
    19ec: d0 02        	bne	$19f0 <printf+0x8e8>
    19ee: c6 12        	dec	$12                     ; 0x2012 <__umodsi3+0x4c>
    19f0: 84 4d        	sty	$4d                     ; 0x204d <__umodsi3+0x87>
    19f2: a6 12        	ldx	$12                     ; 0x2012 <__umodsi3+0x4c>
    19f4: 86 4c        	stx	$4c                     ; 0x204c <__umodsi3+0x86>
    19f6: d0 04        	bne	$19fc <printf+0x8f4>
    19f8: c0 00        	cpy	#$0
    19fa: f0 14        	beq	$1a10 <printf+0x908>
    19fc: c5 76        	cmp	$76                     ; 0x2076 <__umodsi3+0xb0>
    19fe: f0 03        	beq	$1a03 <printf+0x8fb>
    1a00: 4c ad 19     	jmp	$19ad <printf+0x8a5>
    1a03: a6 75        	ldx	$75                     ; 0x2075 <__umodsi3+0xaf>
    1a05: 86 12        	stx	$12                     ; 0x2012 <__umodsi3+0x4c>
    1a07: a6 13        	ldx	$13                     ; 0x2013 <__umodsi3+0x4d>
    1a09: e4 12        	cpx	$12                     ; 0x2012 <__umodsi3+0x4c>
    1a0b: b0 c8        	bcs	$19d5 <printf+0x8cd>
    1a0d: 4c b1 19     	jmp	$19b1 <printf+0x8a9>
    1a10: 64 4d        	stz	$4d                     ; 0x204d <__umodsi3+0x87>
    1a12: 64 4c        	stz	$4c                     ; 0x204c <__umodsi3+0x86>
    1a14: a4 42        	ldy	$42                     ; 0x2042 <__umodsi3+0x7c>
    1a16: a2 00        	ldx	#$0
    1a18: e4 4b        	cpx	$4b                     ; 0x204b <__umodsi3+0x85>
    1a1a: d0 07        	bne	$1a23 <printf+0x91b>
    1a1c: c4 4a        	cpy	$4a                     ; 0x204a <__umodsi3+0x84>
    1a1e: 90 0a        	bcc	$1a2a <printf+0x922>
    1a20: 4c 98 1a     	jmp	$1a98 <printf+0x990>
    1a23: e4 4b        	cpx	$4b                     ; 0x204b <__umodsi3+0x85>
    1a25: 90 03        	bcc	$1a2a <printf+0x922>
    1a27: 4c 98 1a     	jmp	$1a98 <printf+0x990>
    1a2a: a6 77        	ldx	$77                     ; 0x2077 <__umodsi3+0xb1>
    1a2c: 86 13        	stx	$13                     ; 0x2013 <__umodsi3+0x4d>
    1a2e: a5 78        	lda	$78                     ; 0x2078 <__umodsi3+0xb2>
    1a30: a2 ff        	ldx	#$ff
    1a32: c6 4a        	dec	$4a                     ; 0x204a <__umodsi3+0x84>
    1a34: e4 4a        	cpx	$4a                     ; 0x204a <__umodsi3+0x84>
    1a36: d0 02        	bne	$1a3a <printf+0x932>
    1a38: c6 4b        	dec	$4b                     ; 0x204b <__umodsi3+0x85>
    1a3a: c5 76        	cmp	$76                     ; 0x2076 <__umodsi3+0xb0>
    1a3c: d0 0c        	bne	$1a4a <printf+0x942>
    1a3e: a6 75        	ldx	$75                     ; 0x2075 <__umodsi3+0xaf>
    1a40: 86 12        	stx	$12                     ; 0x2012 <__umodsi3+0x4c>
    1a42: a6 13        	ldx	$13                     ; 0x2013 <__umodsi3+0x4d>
    1a44: e4 12        	cpx	$12                     ; 0x2012 <__umodsi3+0x4c>
    1a46: 90 06        	bcc	$1a4e <printf+0x946>
    1a48: 80 28        	bra	$1a72 <printf+0x96a>
    1a4a: c5 76        	cmp	$76                     ; 0x2076 <__umodsi3+0xb0>
    1a4c: b0 24        	bcs	$1a72 <printf+0x96a>
    1a4e: a6 82        	ldx	$82                     ; 0x2082 <__umodsi3+0xbc>
    1a50: e4 47        	cpx	$47                     ; 0x2047 <__umodsi3+0x81>
    1a52: d0 19        	bne	$1a6d <printf+0x965>
    1a54: a6 81        	ldx	$81                     ; 0x2081 <__umodsi3+0xbb>
    1a56: e4 46        	cpx	$46                     ; 0x2046 <__umodsi3+0x80>
    1a58: d0 13        	bne	$1a6d <printf+0x965>
    1a5a: 18           	clc
    1a5b: aa           	tax
    1a5c: a5 13        	lda	$13                     ; 0x2013 <__umodsi3+0x4d>
    1a5e: 65 7b        	adc	$7b                     ; 0x207b <__umodsi3+0xb5>
    1a60: 85 12        	sta	$12                     ; 0x2012 <__umodsi3+0x4c>
    1a62: 8a           	txa
    1a63: 65 7c        	adc	$7c                     ; 0x207c <__umodsi3+0xb6>
    1a65: 85 13        	sta	$13                     ; 0x2013 <__umodsi3+0x4d>
    1a67: a9 30        	lda	#$30
    1a69: 92 12        	sta	($12)                   ; 0x2012 <__umodsi3+0x4c>
    1a6b: 80 05        	bra	$1a72 <printf+0x96a>
    1a6d: a9 30        	lda	#$30
    1a6f: 20 18 0f     	jsr	$f18 <__putchar>
    1a72: a6 77        	ldx	$77                     ; 0x2077 <__umodsi3+0xb1>
    1a74: a5 78        	lda	$78                     ; 0x2078 <__umodsi3+0xb2>
    1a76: e8           	inx
    1a77: d0 01        	bne	$1a7a <printf+0x972>
    1a79: 1a           	inc
    1a7a: 86 13        	stx	$13                     ; 0x2013 <__umodsi3+0x4d>
    1a7c: 86 77        	stx	$77                     ; 0x2077 <__umodsi3+0xb1>
    1a7e: 85 78        	sta	$78                     ; 0x2078 <__umodsi3+0xb2>
    1a80: a2 00        	ldx	#$0
    1a82: e4 4b        	cpx	$4b                     ; 0x204b <__umodsi3+0x85>
    1a84: d0 09        	bne	$1a8f <printf+0x987>
    1a86: a4 42        	ldy	$42                     ; 0x2042 <__umodsi3+0x7c>
    1a88: c4 4a        	cpy	$4a                     ; 0x204a <__umodsi3+0x84>
    1a8a: b0 0c        	bcs	$1a98 <printf+0x990>
    1a8c: 4c 30 1a     	jmp	$1a30 <printf+0x928>
    1a8f: e4 4b        	cpx	$4b                     ; 0x204b <__umodsi3+0x85>
    1a91: a4 42        	ldy	$42                     ; 0x2042 <__umodsi3+0x7c>
    1a93: b0 03        	bcs	$1a98 <printf+0x990>
    1a95: 4c 30 1a     	jmp	$1a30 <printf+0x928>
    1a98: 98           	tya
    1a99: d0 03        	bne	$1a9e <printf+0x996>
    1a9b: 4c 8d 1b     	jmp	$1b8d <printf+0xa85>
    1a9e: 88           	dey
    1a9f: d0 03        	bne	$1aa4 <printf+0x99c>
    1aa1: 4c 2c 1b     	jmp	$1b2c <printf+0xa24>
    1aa4: 84 4a        	sty	$4a                     ; 0x204a <__umodsi3+0x84>
    1aa6: a6 8d        	ldx	$8d                     ; 0x208d <__umodsi3+0xc7>
    1aa8: 8a           	txa
    1aa9: 18           	clc
    1aaa: 65 4a        	adc	$4a                     ; 0x204a <__umodsi3+0x84>
    1aac: 85 42        	sta	$42                     ; 0x2042 <__umodsi3+0x7c>
    1aae: a5 8e        	lda	$8e                     ; 0x208e <__umodsi3+0xc8>
    1ab0: 69 00        	adc	#$0
    1ab2: 85 43        	sta	$43                     ; 0x2043 <__umodsi3+0x7d>
    1ab4: 4c 1e 1b     	jmp	$1b1e <printf+0xa16>
    1ab7: a8           	tay
    1ab8: a9 80        	lda	#$80
    1aba: 25 73        	and	$73                     ; 0x2073 <__umodsi3+0xad>
    1abc: f0 04        	beq	$1ac2 <printf+0x9ba>
    1abe: a2 61        	ldx	#$61
    1ac0: 80 02        	bra	$1ac4 <printf+0x9bc>
    1ac2: a2 41        	ldx	#$41
    1ac4: 86 12        	stx	$12                     ; 0x2012 <__umodsi3+0x4c>
    1ac6: 18           	clc
    1ac7: 98           	tya
    1ac8: 65 12        	adc	$12                     ; 0x2012 <__umodsi3+0x4c>
    1aca: 18           	clc
    1acb: 69 f6        	adc	#$f6
    1acd: a4 77        	ldy	$77                     ; 0x2077 <__umodsi3+0xb1>
    1acf: a6 78        	ldx	$78                     ; 0x2078 <__umodsi3+0xb2>
    1ad1: e4 76        	cpx	$76                     ; 0x2076 <__umodsi3+0xb0>
    1ad3: d0 0c        	bne	$1ae1 <printf+0x9d9>
    1ad5: 86 14        	stx	$14                     ; 0x2014 <__umodsi3+0x4e>
    1ad7: a6 75        	ldx	$75                     ; 0x2075 <__umodsi3+0xaf>
    1ad9: 86 12        	stx	$12                     ; 0x2012 <__umodsi3+0x4c>
    1adb: c4 12        	cpy	$12                     ; 0x2012 <__umodsi3+0x4c>
    1add: 90 08        	bcc	$1ae7 <printf+0x9df>
    1adf: 80 27        	bra	$1b08 <printf+0xa00>
    1ae1: 86 14        	stx	$14                     ; 0x2014 <__umodsi3+0x4e>
    1ae3: e4 76        	cpx	$76                     ; 0x2076 <__umodsi3+0xb0>
    1ae5: b0 21        	bcs	$1b08 <printf+0xa00>
    1ae7: a6 82        	ldx	$82                     ; 0x2082 <__umodsi3+0xbc>
    1ae9: e4 47        	cpx	$47                     ; 0x2047 <__umodsi3+0x81>
    1aeb: d0 18        	bne	$1b05 <printf+0x9fd>
    1aed: a6 81        	ldx	$81                     ; 0x2081 <__umodsi3+0xbb>
    1aef: e4 46        	cpx	$46                     ; 0x2046 <__umodsi3+0x80>
    1af1: d0 12        	bne	$1b05 <printf+0x9fd>
    1af3: 18           	clc
    1af4: aa           	tax
    1af5: 98           	tya
    1af6: 65 7b        	adc	$7b                     ; 0x207b <__umodsi3+0xb5>
    1af8: 85 12        	sta	$12                     ; 0x2012 <__umodsi3+0x4c>
    1afa: a5 14        	lda	$14                     ; 0x2014 <__umodsi3+0x4e>
    1afc: 65 7c        	adc	$7c                     ; 0x207c <__umodsi3+0xb6>
    1afe: 85 13        	sta	$13                     ; 0x2013 <__umodsi3+0x4d>
    1b00: 8a           	txa
    1b01: 92 12        	sta	($12)                   ; 0x2012 <__umodsi3+0x4c>
    1b03: 80 03        	bra	$1b08 <printf+0xa00>
    1b05: 20 18 0f     	jsr	$f18 <__putchar>
    1b08: e6 77        	inc	$77                     ; 0x2077 <__umodsi3+0xb1>
    1b0a: d0 02        	bne	$1b0e <printf+0xa06>
    1b0c: e6 78        	inc	$78                     ; 0x2078 <__umodsi3+0xb2>
    1b0e: c6 4a        	dec	$4a                     ; 0x204a <__umodsi3+0x84>
    1b10: a2 ff        	ldx	#$ff
    1b12: c6 42        	dec	$42                     ; 0x2042 <__umodsi3+0x7c>
    1b14: e4 42        	cpx	$42                     ; 0x2042 <__umodsi3+0x7c>
    1b16: d0 02        	bne	$1b1a <printf+0xa12>
    1b18: c6 43        	dec	$43                     ; 0x2043 <__umodsi3+0x7d>
    1b1a: a5 4a        	lda	$4a                     ; 0x204a <__umodsi3+0x84>
    1b1c: f0 0e        	beq	$1b2c <printf+0xa24>
    1b1e: b2 42        	lda	($42)                   ; 0x2042 <__umodsi3+0x7c>
    1b20: c9 0a        	cmp	#$a
    1b22: 90 03        	bcc	$1b27 <printf+0xa1f>
    1b24: 4c b7 1a     	jmp	$1ab7 <printf+0x9af>
    1b27: 09 30        	ora	#$30
    1b29: 4c cd 1a     	jmp	$1acd <printf+0x9c5>
    1b2c: a5 50        	lda	$50                     ; 0x2050 <__umodsi3+0x8a>
    1b2e: c9 0a        	cmp	#$a
    1b30: b0 04        	bcs	$1b36 <printf+0xa2e>
    1b32: 09 30        	ora	#$30
    1b34: 80 16        	bra	$1b4c <printf+0xa44>
    1b36: a8           	tay
    1b37: a9 80        	lda	#$80
    1b39: 25 73        	and	$73                     ; 0x2073 <__umodsi3+0xad>
    1b3b: f0 04        	beq	$1b41 <printf+0xa39>
    1b3d: a2 61        	ldx	#$61
    1b3f: 80 02        	bra	$1b43 <printf+0xa3b>
    1b41: a2 41        	ldx	#$41
    1b43: 86 12        	stx	$12                     ; 0x2012 <__umodsi3+0x4c>
    1b45: 18           	clc
    1b46: 98           	tya
    1b47: 65 12        	adc	$12                     ; 0x2012 <__umodsi3+0x4c>
    1b49: 18           	clc
    1b4a: 69 f6        	adc	#$f6
    1b4c: a4 77        	ldy	$77                     ; 0x2077 <__umodsi3+0xb1>
    1b4e: a6 78        	ldx	$78                     ; 0x2078 <__umodsi3+0xb2>
    1b50: e4 76        	cpx	$76                     ; 0x2076 <__umodsi3+0xb0>
    1b52: d0 0c        	bne	$1b60 <printf+0xa58>
    1b54: 86 14        	stx	$14                     ; 0x2014 <__umodsi3+0x4e>
    1b56: a6 75        	ldx	$75                     ; 0x2075 <__umodsi3+0xaf>
    1b58: 86 12        	stx	$12                     ; 0x2012 <__umodsi3+0x4c>
    1b5a: c4 12        	cpy	$12                     ; 0x2012 <__umodsi3+0x4c>
    1b5c: 90 08        	bcc	$1b66 <printf+0xa5e>
    1b5e: 80 27        	bra	$1b87 <printf+0xa7f>
    1b60: 86 14        	stx	$14                     ; 0x2014 <__umodsi3+0x4e>
    1b62: e4 76        	cpx	$76                     ; 0x2076 <__umodsi3+0xb0>
    1b64: b0 21        	bcs	$1b87 <printf+0xa7f>
    1b66: a6 82        	ldx	$82                     ; 0x2082 <__umodsi3+0xbc>
    1b68: e4 47        	cpx	$47                     ; 0x2047 <__umodsi3+0x81>
    1b6a: d0 18        	bne	$1b84 <printf+0xa7c>
    1b6c: a6 81        	ldx	$81                     ; 0x2081 <__umodsi3+0xbb>
    1b6e: e4 46        	cpx	$46                     ; 0x2046 <__umodsi3+0x80>
    1b70: d0 12        	bne	$1b84 <printf+0xa7c>
    1b72: 18           	clc
    1b73: aa           	tax
    1b74: 98           	tya
    1b75: 65 7b        	adc	$7b                     ; 0x207b <__umodsi3+0xb5>
    1b77: 85 12        	sta	$12                     ; 0x2012 <__umodsi3+0x4c>
    1b79: a5 14        	lda	$14                     ; 0x2014 <__umodsi3+0x4e>
    1b7b: 65 7c        	adc	$7c                     ; 0x207c <__umodsi3+0xb6>
    1b7d: 85 13        	sta	$13                     ; 0x2013 <__umodsi3+0x4d>
    1b7f: 8a           	txa
    1b80: 92 12        	sta	($12)                   ; 0x2012 <__umodsi3+0x4c>
    1b82: 80 03        	bra	$1b87 <printf+0xa7f>
    1b84: 20 18 0f     	jsr	$f18 <__putchar>
    1b87: e6 77        	inc	$77                     ; 0x2077 <__umodsi3+0xb1>
    1b89: d0 02        	bne	$1b8d <printf+0xa85>
    1b8b: e6 78        	inc	$78                     ; 0x2078 <__umodsi3+0xb2>
    1b8d: a9 01        	lda	#$1
    1b8f: 25 73        	and	$73                     ; 0x2073 <__umodsi3+0xad>
    1b91: 29 01        	and	#$1
    1b93: d0 1e        	bne	$1bb3 <printf+0xaab>
    1b95: a6 77        	ldx	$77                     ; 0x2077 <__umodsi3+0xb1>
    1b97: 86 14        	stx	$14                     ; 0x2014 <__umodsi3+0x4e>
    1b99: a5 78        	lda	$78                     ; 0x2078 <__umodsi3+0xb2>
    1b9b: a4 75        	ldy	$75                     ; 0x2075 <__umodsi3+0xaf>
    1b9d: a6 76        	ldx	$76                     ; 0x2076 <__umodsi3+0xb0>
    1b9f: 86 12        	stx	$12                     ; 0x2012 <__umodsi3+0x4c>
    1ba1: 86 13        	stx	$13                     ; 0x2013 <__umodsi3+0x4d>
    1ba3: c5 12        	cmp	$12                     ; 0x2012 <__umodsi3+0x4c>
    1ba5: f0 03        	beq	$1baa <printf+0xaa2>
    1ba7: 4c 36 1c     	jmp	$1c36 <printf+0xb2e>
    1baa: 84 12        	sty	$12                     ; 0x2012 <__umodsi3+0x4c>
    1bac: a6 14        	ldx	$14                     ; 0x2014 <__umodsi3+0x4e>
    1bae: e4 12        	cpx	$12                     ; 0x2012 <__umodsi3+0x4c>
    1bb0: 4c 3a 1c     	jmp	$1c3a <printf+0xb32>
    1bb3: a6 77        	ldx	$77                     ; 0x2077 <__umodsi3+0xb1>
    1bb5: 86 14        	stx	$14                     ; 0x2014 <__umodsi3+0x4e>
    1bb7: a5 78        	lda	$78                     ; 0x2078 <__umodsi3+0xb2>
    1bb9: a6 4d        	ldx	$4d                     ; 0x204d <__umodsi3+0x87>
    1bbb: a4 4c        	ldy	$4c                     ; 0x204c <__umodsi3+0x86>
    1bbd: f0 03        	beq	$1bc2 <printf+0xaba>
    1bbf: 4c 22 1c     	jmp	$1c22 <printf+0xb1a>
    1bc2: e0 00        	cpx	#$0
    1bc4: f0 d5        	beq	$1b9b <printf+0xa93>
    1bc6: 4c 22 1c     	jmp	$1c22 <printf+0xb1a>
    1bc9: c5 76        	cmp	$76                     ; 0x2076 <__umodsi3+0xb0>
    1bcb: b0 24        	bcs	$1bf1 <printf+0xae9>
    1bcd: a6 82        	ldx	$82                     ; 0x2082 <__umodsi3+0xbc>
    1bcf: e4 47        	cpx	$47                     ; 0x2047 <__umodsi3+0x81>
    1bd1: d0 19        	bne	$1bec <printf+0xae4>
    1bd3: a6 81        	ldx	$81                     ; 0x2081 <__umodsi3+0xbb>
    1bd5: e4 46        	cpx	$46                     ; 0x2046 <__umodsi3+0x80>
    1bd7: d0 13        	bne	$1bec <printf+0xae4>
    1bd9: 18           	clc
    1bda: aa           	tax
    1bdb: a5 14        	lda	$14                     ; 0x2014 <__umodsi3+0x4e>
    1bdd: 65 7b        	adc	$7b                     ; 0x207b <__umodsi3+0xb5>
    1bdf: 85 12        	sta	$12                     ; 0x2012 <__umodsi3+0x4c>
    1be1: 8a           	txa
    1be2: 65 7c        	adc	$7c                     ; 0x207c <__umodsi3+0xb6>
    1be4: 85 13        	sta	$13                     ; 0x2013 <__umodsi3+0x4d>
    1be6: a9 20        	lda	#$20
    1be8: 92 12        	sta	($12)                   ; 0x2012 <__umodsi3+0x4c>
    1bea: 80 05        	bra	$1bf1 <printf+0xae9>
    1bec: a9 20        	lda	#$20
    1bee: 20 18 0f     	jsr	$f18 <__putchar>
    1bf1: a6 77        	ldx	$77                     ; 0x2077 <__umodsi3+0xb1>
    1bf3: a5 78        	lda	$78                     ; 0x2078 <__umodsi3+0xb2>
    1bf5: e8           	inx
    1bf6: d0 01        	bne	$1bf9 <printf+0xaf1>
    1bf8: 1a           	inc
    1bf9: 86 14        	stx	$14                     ; 0x2014 <__umodsi3+0x4e>
    1bfb: 86 77        	stx	$77                     ; 0x2077 <__umodsi3+0xb1>
    1bfd: 85 78        	sta	$78                     ; 0x2078 <__umodsi3+0xb2>
    1bff: a6 4d        	ldx	$4d                     ; 0x204d <__umodsi3+0x87>
    1c01: 86 12        	stx	$12                     ; 0x2012 <__umodsi3+0x4c>
    1c03: a6 4c        	ldx	$4c                     ; 0x204c <__umodsi3+0x86>
    1c05: 86 13        	stx	$13                     ; 0x2013 <__umodsi3+0x4d>
    1c07: a2 ff        	ldx	#$ff
    1c09: c6 12        	dec	$12                     ; 0x2012 <__umodsi3+0x4c>
    1c0b: e4 12        	cpx	$12                     ; 0x2012 <__umodsi3+0x4c>
    1c0d: d0 02        	bne	$1c11 <printf+0xb09>
    1c0f: c6 13        	dec	$13                     ; 0x2013 <__umodsi3+0x4d>
    1c11: a6 12        	ldx	$12                     ; 0x2012 <__umodsi3+0x4c>
    1c13: 86 4d        	stx	$4d                     ; 0x204d <__umodsi3+0x87>
    1c15: a6 13        	ldx	$13                     ; 0x2013 <__umodsi3+0x4d>
    1c17: 86 4c        	stx	$4c                     ; 0x204c <__umodsi3+0x86>
    1c19: d0 07        	bne	$1c22 <printf+0xb1a>
    1c1b: a6 12        	ldx	$12                     ; 0x2012 <__umodsi3+0x4c>
    1c1d: d0 03        	bne	$1c22 <printf+0xb1a>
    1c1f: 4c 9b 1b     	jmp	$1b9b <printf+0xa93>
    1c22: c5 76        	cmp	$76                     ; 0x2076 <__umodsi3+0xb0>
    1c24: f0 03        	beq	$1c29 <printf+0xb21>
    1c26: 4c c9 1b     	jmp	$1bc9 <printf+0xac1>
    1c29: a6 75        	ldx	$75                     ; 0x2075 <__umodsi3+0xaf>
    1c2b: 86 12        	stx	$12                     ; 0x2012 <__umodsi3+0x4c>
    1c2d: a6 14        	ldx	$14                     ; 0x2014 <__umodsi3+0x4e>
    1c2f: e4 12        	cpx	$12                     ; 0x2012 <__umodsi3+0x4c>
    1c31: b0 be        	bcs	$1bf1 <printf+0xae9>
    1c33: 4c cd 1b     	jmp	$1bcd <printf+0xac5>
    1c36: 86 12        	stx	$12                     ; 0x2012 <__umodsi3+0x4c>
    1c38: c5 12        	cmp	$12                     ; 0x2012 <__umodsi3+0x4c>
    1c3a: 98           	tya
    1c3b: a0 01        	ldy	#$1
    1c3d: 90 20        	bcc	$1c5f <printf+0xb57>
    1c3f: a6 13        	ldx	$13                     ; 0x2013 <__umodsi3+0x4d>
    1c41: d0 03        	bne	$1c46 <printf+0xb3e>
    1c43: aa           	tax
    1c44: f0 19        	beq	$1c5f <printf+0xb57>
    1c46: 18           	clc
    1c47: 65 7b        	adc	$7b                     ; 0x207b <__umodsi3+0xb5>
    1c49: 85 12        	sta	$12                     ; 0x2012 <__umodsi3+0x4c>
    1c4b: a5 13        	lda	$13                     ; 0x2013 <__umodsi3+0x4d>
    1c4d: 65 7c        	adc	$7c                     ; 0x207c <__umodsi3+0xb6>
    1c4f: 85 13        	sta	$13                     ; 0x2013 <__umodsi3+0x4d>
    1c51: a2 ff        	ldx	#$ff
    1c53: c6 12        	dec	$12                     ; 0x2012 <__umodsi3+0x4c>
    1c55: e4 12        	cpx	$12                     ; 0x2012 <__umodsi3+0x4c>
    1c57: d0 02        	bne	$1c5b <printf+0xb53>
    1c59: c6 13        	dec	$13                     ; 0x2013 <__umodsi3+0x4d>
    1c5b: a9 00        	lda	#$0
    1c5d: 92 12        	sta	($12)                   ; 0x2012 <__umodsi3+0x4c>
    1c5f: e6 44        	inc	$44                     ; 0x2044 <__umodsi3+0x7e>
    1c61: d0 02        	bne	$1c65 <printf+0xb5d>
    1c63: e6 45        	inc	$45                     ; 0x2045 <__umodsi3+0x7f>
    1c65: a6 45        	ldx	$45                     ; 0x2045 <__umodsi3+0x7f>
    1c67: e4 49        	cpx	$49                     ; 0x2049 <__umodsi3+0x83>
    1c69: f0 03        	beq	$1c6e <printf+0xb66>
    1c6b: 4c 6d 11     	jmp	$116d <printf+0x65>
    1c6e: a6 44        	ldx	$44                     ; 0x2044 <__umodsi3+0x7e>
    1c70: e4 48        	cpx	$48                     ; 0x2048 <__umodsi3+0x82>
    1c72: f0 03        	beq	$1c77 <printf+0xb6f>
    1c74: 4c 6d 11     	jmp	$116d <printf+0x65>
    1c77: b2 48        	lda	($48)                   ; 0x2048 <__umodsi3+0x82>
    1c79: a2 00        	ldx	#$0
    1c7b: 86 46        	stx	$46                     ; 0x2046 <__umodsi3+0x80>
    1c7d: a2 00        	ldx	#$0
    1c7f: 86 47        	stx	$47                     ; 0x2047 <__umodsi3+0x81>
    1c81: 4c 81 11     	jmp	$1181 <printf+0x79>
    1c84: e4 4b        	cpx	$4b                     ; 0x204b <__umodsi3+0x85>
    1c86: a6 43        	ldx	$43                     ; 0x2043 <__umodsi3+0x7d>
    1c88: b0 03        	bcs	$1c8d <printf+0xb85>
    1c8a: 4c ae 17     	jmp	$17ae <printf+0x6a6>
    1c8d: a5 42        	lda	$42                     ; 0x2042 <__umodsi3+0x7c>
    1c8f: 85 4a        	sta	$4a                     ; 0x204a <__umodsi3+0x84>
    1c91: 64 4b        	stz	$4b                     ; 0x204b <__umodsi3+0x85>
    1c93: e6 4a        	inc	$4a                     ; 0x204a <__umodsi3+0x84>
    1c95: f0 03        	beq	$1c9a <printf+0xb92>
    1c97: 4c ae 17     	jmp	$17ae <printf+0x6a6>
    1c9a: e6 4b        	inc	$4b                     ; 0x204b <__umodsi3+0x85>
    1c9c: 4c ae 17     	jmp	$17ae <printf+0x6a6>
    1c9f: a2 58        	ldx	#$58
    1ca1: 86 8c        	stx	$8c                     ; 0x208c <__umodsi3+0xc6>
    1ca3: 38           	sec
    1ca4: a2 01        	ldx	#$1
    1ca6: 86 87        	stx	$87                     ; 0x2087 <__umodsi3+0xc1>
    1ca8: a2 30        	ldx	#$30
    1caa: 86 89        	stx	$89                     ; 0x2089 <__umodsi3+0xc3>
    1cac: a9 02        	lda	#$2
    1cae: 18           	clc
    1caf: a2 00        	ldx	#$0
    1cb1: 86 88        	stx	$88                     ; 0x2088 <__umodsi3+0xc2>
    1cb3: 4c f2 17     	jmp	$17f2 <printf+0x6ea>
    1cb6: 64 4d        	stz	$4d                     ; 0x204d <__umodsi3+0x87>
    1cb8: 64 4c        	stz	$4c                     ; 0x204c <__umodsi3+0x86>
    1cba: 4c 16 1a     	jmp	$1a16 <printf+0x90e>
    1cbd: 60           	rts

00001cbe <malloc>:
    1cbe: a8           	tay
    1cbf: 8a           	txa
    1cc0: a2 00        	ldx	#$0
    1cc2: 86 12        	stx	$12                     ; 0x2012 <__umodsi3+0x4c>
    1cc4: a2 00        	ldx	#$0
    1cc6: 86 13        	stx	$13                     ; 0x2013 <__umodsi3+0x4d>
    1cc8: aa           	tax
    1cc9: d0 07        	bne	$1cd2 <malloc+0x14>
    1ccb: c0 00        	cpy	#$0
    1ccd: d0 03        	bne	$1cd2 <malloc+0x14>
    1ccf: 4c ce 1d     	jmp	$1dce <malloc+0x110>
    1cd2: 84 16        	sty	$16                     ; 0x2016 <__umodsi3+0x50>
    1cd4: aa           	tax
    1cd5: d0 0e        	bne	$1ce5 <malloc+0x27>
    1cd7: a6 16        	ldx	$16                     ; 0x2016 <__umodsi3+0x50>
    1cd9: e0 07        	cpx	#$7
    1cdb: b0 0c        	bcs	$1ce9 <malloc+0x2b>
    1cdd: a2 08        	ldx	#$8
    1cdf: 86 42        	stx	$42                     ; 0x2042 <__umodsi3+0x7c>
    1ce1: a9 00        	lda	#$0
    1ce3: 80 2f        	bra	$1d14 <malloc+0x56>
    1ce5: c9 00        	cmp	#$0
    1ce7: 90 f4        	bcc	$1cdd <malloc+0x1f>
    1ce9: a8           	tay
    1cea: a5 16        	lda	$16                     ; 0x2016 <__umodsi3+0x50>
    1cec: 29 01        	and	#$1
    1cee: a2 02        	ldx	#$2
    1cf0: 64 14        	stz	$14                     ; 0x2014 <__umodsi3+0x4e>
    1cf2: c9 00        	cmp	#$0
    1cf4: f0 02        	beq	$1cf8 <malloc+0x3a>
    1cf6: a2 03        	ldx	#$3
    1cf8: 86 15        	stx	$15                     ; 0x2015 <__umodsi3+0x4f>
    1cfa: 18           	clc
    1cfb: a5 16        	lda	$16                     ; 0x2016 <__umodsi3+0x50>
    1cfd: 65 15        	adc	$15                     ; 0x2015 <__umodsi3+0x4f>
    1cff: aa           	tax
    1d00: 98           	tya
    1d01: 65 14        	adc	$14                     ; 0x2014 <__umodsi3+0x4e>
    1d03: 90 03        	bcc	$1d08 <malloc+0x4a>
    1d05: 4c ce 1d     	jmp	$1dce <malloc+0x110>
    1d08: 86 42        	stx	$42                     ; 0x2042 <__umodsi3+0x7c>
    1d0a: a8           	tay
    1d0b: d0 07        	bne	$1d14 <malloc+0x56>
    1d0d: e0 00        	cpx	#$0
    1d0f: d0 03        	bne	$1d14 <malloc+0x56>
    1d11: 4c ce 1d     	jmp	$1dce <malloc+0x110>
    1d14: 85 43        	sta	$43                     ; 0x2043 <__umodsi3+0x7d>
    1d16: ad 6e 22     	lda	$226e                   ; 0x226e <__bss_start>
    1d19: 29 01        	and	#$1
    1d1b: d0 2a        	bne	$1d47 <malloc+0x89>
    1d1d: a9 00        	lda	#$0
    1d1f: a2 10        	ldx	#$10
    1d21: a0 74        	ldy	#$74
    1d23: 84 12        	sty	$12                     ; 0x2012 <__umodsi3+0x4c>
    1d25: a0 42        	ldy	#$42
    1d27: 84 13        	sty	$13                     ; 0x2013 <__umodsi3+0x4d>
    1d29: 20 16 03     	jsr	$316 <_ZN12_GLOBAL__N_19FreeChunk6insertEPvj>
    1d2c: a2 00        	ldx	#$0
    1d2e: 86 12        	stx	$12                     ; 0x2012 <__umodsi3+0x4c>
    1d30: a2 00        	ldx	#$0
    1d32: 86 13        	stx	$13                     ; 0x2013 <__umodsi3+0x4d>
    1d34: ae 75 42     	ldx	$4275                   ; 0x4275 <__heap_start+0x1>
    1d37: a9 fe        	lda	#$fe
    1d39: 2d 74 42     	and	$4274                   ; 0x4274 <__heap_start>
    1d3c: 8d 74 42     	sta	$4274                   ; 0x4274 <__heap_start>
    1d3f: 8e 75 42     	stx	$4275                   ; 0x4275 <__heap_start+0x1>
    1d42: a2 01        	ldx	#$1
    1d44: 8e 6e 22     	stx	$226e                   ; 0x226e <__bss_start>
    1d47: ad 71 22     	lda	$2271                   ; 0x2271 <_ZN12_GLOBAL__N_19free_listE>
    1d4a: ae 72 22     	ldx	$2272                   ; 0x2272 <_ZN12_GLOBAL__N_19free_listE+0x1>
    1d4d: a0 00        	ldy	#$0
    1d4f: 84 14        	sty	$14                     ; 0x2014 <__umodsi3+0x4e>
    1d51: a0 00        	ldy	#$0
    1d53: 84 15        	sty	$15                     ; 0x2015 <__umodsi3+0x4f>
    1d55: 86 1d        	stx	$1d                     ; 0x201d <__umodsi3+0x57>
    1d57: e4 15        	cpx	$15                     ; 0x2015 <__umodsi3+0x4f>
    1d59: d0 07        	bne	$1d62 <malloc+0xa4>
    1d5b: c5 14        	cmp	$14                     ; 0x2014 <__umodsi3+0x4e>
    1d5d: d0 03        	bne	$1d62 <malloc+0xa4>
    1d5f: 4c ce 1d     	jmp	$1dce <malloc+0x110>
    1d62: a0 00        	ldy	#$0
    1d64: a2 10        	ldx	#$10
    1d66: 85 18        	sta	$18                     ; 0x2018 <__umodsi3+0x52>
    1d68: 84 14        	sty	$14                     ; 0x2014 <__umodsi3+0x4e>
    1d6a: 86 15        	stx	$15                     ; 0x2015 <__umodsi3+0x4f>
    1d6c: 18           	clc
    1d6d: a9 74        	lda	#$74
    1d6f: 65 14        	adc	$14                     ; 0x2014 <__umodsi3+0x4e>
    1d71: 85 14        	sta	$14                     ; 0x2014 <__umodsi3+0x4e>
    1d73: a9 42        	lda	#$42
    1d75: 65 15        	adc	$15                     ; 0x2015 <__umodsi3+0x4f>
    1d77: a6 14        	ldx	$14                     ; 0x2014 <__umodsi3+0x4e>
    1d79: 86 44        	stx	$44                     ; 0x2044 <__umodsi3+0x7e>
    1d7b: 85 17        	sta	$17                     ; 0x2017 <__umodsi3+0x51>
    1d7d: a6 18        	ldx	$18                     ; 0x2018 <__umodsi3+0x52>
    1d7f: 86 1c        	stx	$1c                     ; 0x201c <__umodsi3+0x56>
    1d81: a6 18        	ldx	$18                     ; 0x2018 <__umodsi3+0x52>
    1d83: 86 14        	stx	$14                     ; 0x2014 <__umodsi3+0x4e>
    1d85: a6 1d        	ldx	$1d                     ; 0x201d <__umodsi3+0x57>
    1d87: 86 15        	stx	$15                     ; 0x2015 <__umodsi3+0x4f>
    1d89: a0 01        	ldy	#$1
    1d8b: a6 43        	ldx	$43                     ; 0x2043 <__umodsi3+0x7d>
    1d8d: 86 18        	stx	$18                     ; 0x2018 <__umodsi3+0x52>
    1d8f: b1 14        	lda	($14),y                 ; 0x2014 <__umodsi3+0x4e>
    1d91: 85 19        	sta	$19                     ; 0x2019 <__umodsi3+0x53>
    1d93: aa           	tax
    1d94: a9 fe        	lda	#$fe
    1d96: 32 14        	and	($14)                   ; 0x2014 <__umodsi3+0x4e>
    1d98: 85 1a        	sta	$1a                     ; 0x201a <__umodsi3+0x54>
    1d9a: e4 18        	cpx	$18                     ; 0x2018 <__umodsi3+0x52>
    1d9c: d0 0a        	bne	$1da8 <malloc+0xea>
    1d9e: a6 42        	ldx	$42                     ; 0x2042 <__umodsi3+0x7c>
    1da0: 86 1b        	stx	$1b                     ; 0x201b <__umodsi3+0x55>
    1da2: c5 1b        	cmp	$1b                     ; 0x201b <__umodsi3+0x55>
    1da4: b0 29        	bcs	$1dcf <malloc+0x111>
    1da6: 80 04        	bra	$1dac <malloc+0xee>
    1da8: e4 18        	cpx	$18                     ; 0x2018 <__umodsi3+0x52>
    1daa: b0 23        	bcs	$1dcf <malloc+0x111>
    1dac: a5 14        	lda	$14                     ; 0x2014 <__umodsi3+0x4e>
    1dae: 18           	clc
    1daf: 69 02        	adc	#$2
    1db1: 85 1a        	sta	$1a                     ; 0x201a <__umodsi3+0x54>
    1db3: a5 15        	lda	$15                     ; 0x2015 <__umodsi3+0x4f>
    1db5: 69 00        	adc	#$0
    1db7: 85 1b        	sta	$1b                     ; 0x201b <__umodsi3+0x55>
    1db9: a0 02        	ldy	#$2
    1dbb: b1 14        	lda	($14),y                 ; 0x2014 <__umodsi3+0x4e>
    1dbd: 85 14        	sta	$14                     ; 0x2014 <__umodsi3+0x4e>
    1dbf: 88           	dey
    1dc0: b1 1a        	lda	($1a),y                 ; 0x201a <__umodsi3+0x54>
    1dc2: 85 15        	sta	$15                     ; 0x2015 <__umodsi3+0x4f>
    1dc4: c5 1d        	cmp	$1d                     ; 0x201d <__umodsi3+0x57>
    1dc6: d0 c7        	bne	$1d8f <malloc+0xd1>
    1dc8: a5 14        	lda	$14                     ; 0x2014 <__umodsi3+0x4e>
    1dca: c5 1c        	cmp	$1c                     ; 0x201c <__umodsi3+0x56>
    1dcc: d0 c1        	bne	$1d8f <malloc+0xd1>
    1dce: 60           	rts
    1dcf: ad 6f 22     	lda	$226f                   ; 0x226f <_ZN12_GLOBAL__N_19free_sizeE>
    1dd2: ae 70 22     	ldx	$2270                   ; 0x2270 <_ZN12_GLOBAL__N_19free_sizeE+0x1>
    1dd5: 86 12        	stx	$12                     ; 0x2012 <__umodsi3+0x4c>
    1dd7: 38           	sec
    1dd8: e5 1a        	sbc	$1a                     ; 0x201a <__umodsi3+0x54>
    1dda: aa           	tax
    1ddb: a5 12        	lda	$12                     ; 0x2012 <__umodsi3+0x4c>
    1ddd: e5 19        	sbc	$19                     ; 0x2019 <__umodsi3+0x53>
    1ddf: 85 12        	sta	$12                     ; 0x2012 <__umodsi3+0x4c>
    1de1: 18           	clc
    1de2: 8a           	txa
    1de3: 69 02        	adc	#$2
    1de5: 85 13        	sta	$13                     ; 0x2013 <__umodsi3+0x4d>
    1de7: a5 12        	lda	$12                     ; 0x2012 <__umodsi3+0x4c>
    1de9: 69 00        	adc	#$0
    1deb: a6 13        	ldx	$13                     ; 0x2013 <__umodsi3+0x4d>
    1ded: 8e 6f 22     	stx	$226f                   ; 0x226f <_ZN12_GLOBAL__N_19free_sizeE>
    1df0: 8d 70 22     	sta	$2270                   ; 0x2270 <_ZN12_GLOBAL__N_19free_sizeE+0x1>
    1df3: a0 02        	ldy	#$2
    1df5: a5 14        	lda	$14                     ; 0x2014 <__umodsi3+0x4e>
    1df7: 18           	clc
    1df8: 69 02        	adc	#$2
    1dfa: 85 12        	sta	$12                     ; 0x2012 <__umodsi3+0x4c>
    1dfc: a5 15        	lda	$15                     ; 0x2015 <__umodsi3+0x4f>
    1dfe: 69 00        	adc	#$0
    1e00: 85 13        	sta	$13                     ; 0x2013 <__umodsi3+0x4d>
    1e02: b1 14        	lda	($14),y                 ; 0x2014 <__umodsi3+0x4e>
    1e04: 85 1e        	sta	$1e                     ; 0x201e <__umodsi3+0x58>
    1e06: 88           	dey
    1e07: b1 12        	lda	($12),y                 ; 0x2012 <__umodsi3+0x4c>
    1e09: 85 1f        	sta	$1f                     ; 0x201f <__umodsi3+0x59>
    1e0b: c5 15        	cmp	$15                     ; 0x2015 <__umodsi3+0x4f>
    1e0d: d0 15        	bne	$1e24 <malloc+0x166>
    1e0f: a5 43        	lda	$43                     ; 0x2043 <__umodsi3+0x7d>
    1e11: a6 1e        	ldx	$1e                     ; 0x201e <__umodsi3+0x58>
    1e13: e4 14        	cpx	$14                     ; 0x2014 <__umodsi3+0x4e>
    1e15: d0 0d        	bne	$1e24 <malloc+0x166>
    1e17: 85 1a        	sta	$1a                     ; 0x201a <__umodsi3+0x54>
    1e19: a2 00        	ldx	#$0
    1e1b: 86 18        	stx	$18                     ; 0x2018 <__umodsi3+0x52>
    1e1d: a2 00        	ldx	#$0
    1e1f: 86 19        	stx	$19                     ; 0x2019 <__umodsi3+0x53>
    1e21: 4c 9e 1e     	jmp	$1e9e <malloc+0x1e0>
    1e24: 18           	clc
    1e25: a5 14        	lda	$14                     ; 0x2014 <__umodsi3+0x4e>
    1e27: 69 04        	adc	#$4
    1e29: 85 18        	sta	$18                     ; 0x2018 <__umodsi3+0x52>
    1e2b: a5 15        	lda	$15                     ; 0x2015 <__umodsi3+0x4f>
    1e2d: 69 00        	adc	#$0
    1e2f: 85 19        	sta	$19                     ; 0x2019 <__umodsi3+0x53>
    1e31: a0 04        	ldy	#$4
    1e33: b1 14        	lda	($14),y                 ; 0x2014 <__umodsi3+0x4e>
    1e35: 85 23        	sta	$23                     ; 0x2023 <__umodsi3+0x5d>
    1e37: 18           	clc
    1e38: 69 02        	adc	#$2
    1e3a: 85 1a        	sta	$1a                     ; 0x201a <__umodsi3+0x54>
    1e3c: a0 01        	ldy	#$1
    1e3e: b1 18        	lda	($18),y                 ; 0x2018 <__umodsi3+0x52>
    1e40: 85 22        	sta	$22                     ; 0x2022 <__umodsi3+0x5c>
    1e42: 69 00        	adc	#$0
    1e44: a6 1a        	ldx	$1a                     ; 0x201a <__umodsi3+0x54>
    1e46: 86 18        	stx	$18                     ; 0x2018 <__umodsi3+0x52>
    1e48: 85 19        	sta	$19                     ; 0x2019 <__umodsi3+0x53>
    1e4a: a6 23        	ldx	$23                     ; 0x2023 <__umodsi3+0x5d>
    1e4c: 86 1a        	stx	$1a                     ; 0x201a <__umodsi3+0x54>
    1e4e: a6 22        	ldx	$22                     ; 0x2022 <__umodsi3+0x5c>
    1e50: 86 1b        	stx	$1b                     ; 0x201b <__umodsi3+0x55>
    1e52: c8           	iny
    1e53: a5 1e        	lda	$1e                     ; 0x201e <__umodsi3+0x58>
    1e55: 91 1a        	sta	($1a),y                 ; 0x201a <__umodsi3+0x54>
    1e57: a5 1f        	lda	$1f                     ; 0x201f <__umodsi3+0x59>
    1e59: 88           	dey
    1e5a: 91 18        	sta	($18),y                 ; 0x2018 <__umodsi3+0x52>
    1e5c: 18           	clc
    1e5d: a5 14        	lda	$14                     ; 0x2014 <__umodsi3+0x4e>
    1e5f: 69 02        	adc	#$2
    1e61: 85 1a        	sta	$1a                     ; 0x201a <__umodsi3+0x54>
    1e63: a5 15        	lda	$15                     ; 0x2015 <__umodsi3+0x4f>
    1e65: 69 00        	adc	#$0
    1e67: 85 1b        	sta	$1b                     ; 0x201b <__umodsi3+0x55>
    1e69: c8           	iny
    1e6a: b1 14        	lda	($14),y                 ; 0x2014 <__umodsi3+0x4e>
    1e6c: 85 18        	sta	$18                     ; 0x2018 <__umodsi3+0x52>
    1e6e: aa           	tax
    1e6f: 88           	dey
    1e70: b1 1a        	lda	($1a),y                 ; 0x201a <__umodsi3+0x54>
    1e72: 85 19        	sta	$19                     ; 0x2019 <__umodsi3+0x53>
    1e74: 85 16        	sta	$16                     ; 0x2016 <__umodsi3+0x50>
    1e76: a0 04        	ldy	#$4
    1e78: a5 23        	lda	$23                     ; 0x2023 <__umodsi3+0x5d>
    1e7a: 91 18        	sta	($18),y                 ; 0x2018 <__umodsi3+0x52>
    1e7c: 18           	clc
    1e7d: 8a           	txa
    1e7e: 69 04        	adc	#$4
    1e80: 85 1a        	sta	$1a                     ; 0x201a <__umodsi3+0x54>
    1e82: a5 16        	lda	$16                     ; 0x2016 <__umodsi3+0x50>
    1e84: 69 00        	adc	#$0
    1e86: 85 1b        	sta	$1b                     ; 0x201b <__umodsi3+0x55>
    1e88: a5 22        	lda	$22                     ; 0x2022 <__umodsi3+0x5c>
    1e8a: a0 01        	ldy	#$1
    1e8c: 91 1a        	sta	($1a),y                 ; 0x201a <__umodsi3+0x54>
    1e8e: a5 43        	lda	$43                     ; 0x2043 <__umodsi3+0x7d>
    1e90: 85 1a        	sta	$1a                     ; 0x201a <__umodsi3+0x54>
    1e92: a6 1d        	ldx	$1d                     ; 0x201d <__umodsi3+0x57>
    1e94: e4 15        	cpx	$15                     ; 0x2015 <__umodsi3+0x4f>
    1e96: d0 10        	bne	$1ea8 <malloc+0x1ea>
    1e98: a6 1c        	ldx	$1c                     ; 0x201c <__umodsi3+0x56>
    1e9a: e4 14        	cpx	$14                     ; 0x2014 <__umodsi3+0x4e>
    1e9c: d0 0a        	bne	$1ea8 <malloc+0x1ea>
    1e9e: a6 18        	ldx	$18                     ; 0x2018 <__umodsi3+0x52>
    1ea0: a4 19        	ldy	$19                     ; 0x2019 <__umodsi3+0x53>
    1ea2: 8e 71 22     	stx	$2271                   ; 0x2271 <_ZN12_GLOBAL__N_19free_listE>
    1ea5: 8c 72 22     	sty	$2272                   ; 0x2272 <_ZN12_GLOBAL__N_19free_listE+0x1>
    1ea8: a0 01        	ldy	#$1
    1eaa: b1 14        	lda	($14),y                 ; 0x2014 <__umodsi3+0x4e>
    1eac: 85 16        	sta	$16                     ; 0x2016 <__umodsi3+0x50>
    1eae: a9 fe        	lda	#$fe
    1eb0: 32 14        	and	($14)                   ; 0x2014 <__umodsi3+0x4e>
    1eb2: 38           	sec
    1eb3: a6 42        	ldx	$42                     ; 0x2042 <__umodsi3+0x7c>
    1eb5: 86 18        	stx	$18                     ; 0x2018 <__umodsi3+0x52>
    1eb7: a8           	tay
    1eb8: e5 18        	sbc	$18                     ; 0x2018 <__umodsi3+0x52>
    1eba: 85 19        	sta	$19                     ; 0x2019 <__umodsi3+0x53>
    1ebc: a5 16        	lda	$16                     ; 0x2016 <__umodsi3+0x50>
    1ebe: a6 16        	ldx	$16                     ; 0x2016 <__umodsi3+0x50>
    1ec0: e5 1a        	sbc	$1a                     ; 0x201a <__umodsi3+0x54>
    1ec2: f0 03        	beq	$1ec7 <malloc+0x209>
    1ec4: 4c 53 1f     	jmp	$1f53 <malloc+0x295>
    1ec7: 85 16        	sta	$16                     ; 0x2016 <__umodsi3+0x50>
    1ec9: a5 19        	lda	$19                     ; 0x2019 <__umodsi3+0x53>
    1ecb: c9 08        	cmp	#$8
    1ecd: 86 18        	stx	$18                     ; 0x2018 <__umodsi3+0x52>
    1ecf: b0 03        	bcs	$1ed4 <malloc+0x216>
    1ed1: 4c 36 1f     	jmp	$1f36 <malloc+0x278>
    1ed4: a6 17        	ldx	$17                     ; 0x2017 <__umodsi3+0x51>
    1ed6: 86 49        	stx	$49                     ; 0x2049 <__umodsi3+0x83>
    1ed8: a6 44        	ldx	$44                     ; 0x2044 <__umodsi3+0x7e>
    1eda: 86 44        	stx	$44                     ; 0x2044 <__umodsi3+0x7e>
    1edc: a6 12        	ldx	$12                     ; 0x2012 <__umodsi3+0x4c>
    1ede: 86 45        	stx	$45                     ; 0x2045 <__umodsi3+0x7f>
    1ee0: a6 13        	ldx	$13                     ; 0x2013 <__umodsi3+0x4d>
    1ee2: 86 46        	stx	$46                     ; 0x2046 <__umodsi3+0x80>
    1ee4: a8           	tay
    1ee5: 18           	clc
    1ee6: a6 42        	ldx	$42                     ; 0x2042 <__umodsi3+0x7c>
    1ee8: 86 42        	stx	$42                     ; 0x2042 <__umodsi3+0x7c>
    1eea: 8a           	txa
    1eeb: 65 14        	adc	$14                     ; 0x2014 <__umodsi3+0x4e>
    1eed: 85 12        	sta	$12                     ; 0x2012 <__umodsi3+0x4c>
    1eef: a5 1a        	lda	$1a                     ; 0x201a <__umodsi3+0x54>
    1ef1: a6 1a        	ldx	$1a                     ; 0x201a <__umodsi3+0x54>
    1ef3: 86 43        	stx	$43                     ; 0x2043 <__umodsi3+0x7d>
    1ef5: 65 15        	adc	$15                     ; 0x2015 <__umodsi3+0x4f>
    1ef7: 85 13        	sta	$13                     ; 0x2013 <__umodsi3+0x4d>
    1ef9: a6 16        	ldx	$16                     ; 0x2016 <__umodsi3+0x50>
    1efb: 98           	tya
    1efc: a4 14        	ldy	$14                     ; 0x2014 <__umodsi3+0x4e>
    1efe: 84 47        	sty	$47                     ; 0x2047 <__umodsi3+0x81>
    1f00: a4 15        	ldy	$15                     ; 0x2015 <__umodsi3+0x4f>
    1f02: 84 48        	sty	$48                     ; 0x2048 <__umodsi3+0x82>
    1f04: 20 16 03     	jsr	$316 <_ZN12_GLOBAL__N_19FreeChunk6insertEPvj>
    1f07: a6 47        	ldx	$47                     ; 0x2047 <__umodsi3+0x81>
    1f09: 86 14        	stx	$14                     ; 0x2014 <__umodsi3+0x4e>
    1f0b: a6 48        	ldx	$48                     ; 0x2048 <__umodsi3+0x82>
    1f0d: 86 15        	stx	$15                     ; 0x2015 <__umodsi3+0x4f>
    1f0f: a5 42        	lda	$42                     ; 0x2042 <__umodsi3+0x7c>
    1f11: 29 fe        	and	#$fe
    1f13: 85 12        	sta	$12                     ; 0x2012 <__umodsi3+0x4c>
    1f15: a0 01        	ldy	#$1
    1f17: 98           	tya
    1f18: 32 14        	and	($14)                   ; 0x2014 <__umodsi3+0x4e>
    1f1a: 05 12        	ora	$12                     ; 0x2012 <__umodsi3+0x4c>
    1f1c: 92 14        	sta	($14)                   ; 0x2014 <__umodsi3+0x4e>
    1f1e: a5 43        	lda	$43                     ; 0x2043 <__umodsi3+0x7d>
    1f20: 91 14        	sta	($14),y                 ; 0x2014 <__umodsi3+0x4e>
    1f22: a4 12        	ldy	$12                     ; 0x2012 <__umodsi3+0x4c>
    1f24: 85 18        	sta	$18                     ; 0x2018 <__umodsi3+0x52>
    1f26: a6 45        	ldx	$45                     ; 0x2045 <__umodsi3+0x7f>
    1f28: 86 12        	stx	$12                     ; 0x2012 <__umodsi3+0x4c>
    1f2a: a6 46        	ldx	$46                     ; 0x2046 <__umodsi3+0x80>
    1f2c: 86 13        	stx	$13                     ; 0x2013 <__umodsi3+0x4d>
    1f2e: a6 44        	ldx	$44                     ; 0x2044 <__umodsi3+0x7e>
    1f30: 86 44        	stx	$44                     ; 0x2044 <__umodsi3+0x7e>
    1f32: a6 49        	ldx	$49                     ; 0x2049 <__umodsi3+0x83>
    1f34: 86 17        	stx	$17                     ; 0x2017 <__umodsi3+0x51>
    1f36: 18           	clc
    1f37: 98           	tya
    1f38: 65 14        	adc	$14                     ; 0x2014 <__umodsi3+0x4e>
    1f3a: 85 16        	sta	$16                     ; 0x2016 <__umodsi3+0x50>
    1f3c: a5 15        	lda	$15                     ; 0x2015 <__umodsi3+0x4f>
    1f3e: 65 18        	adc	$18                     ; 0x2018 <__umodsi3+0x52>
    1f40: 85 15        	sta	$15                     ; 0x2015 <__umodsi3+0x4f>
    1f42: c5 17        	cmp	$17                     ; 0x2017 <__umodsi3+0x51>
    1f44: d0 1a        	bne	$1f60 <malloc+0x2a2>
    1f46: a6 44        	ldx	$44                     ; 0x2044 <__umodsi3+0x7e>
    1f48: 86 14        	stx	$14                     ; 0x2014 <__umodsi3+0x4e>
    1f4a: a6 16        	ldx	$16                     ; 0x2016 <__umodsi3+0x50>
    1f4c: e4 14        	cpx	$14                     ; 0x2014 <__umodsi3+0x4e>
    1f4e: d0 12        	bne	$1f62 <malloc+0x2a4>
    1f50: 4c ce 1d     	jmp	$1dce <malloc+0x110>
    1f53: 85 16        	sta	$16                     ; 0x2016 <__umodsi3+0x50>
    1f55: c9 00        	cmp	#$0
    1f57: 86 18        	stx	$18                     ; 0x2018 <__umodsi3+0x52>
    1f59: a5 19        	lda	$19                     ; 0x2019 <__umodsi3+0x53>
    1f5b: 90 d9        	bcc	$1f36 <malloc+0x278>
    1f5d: 4c d4 1e     	jmp	$1ed4 <malloc+0x216>
    1f60: a6 16        	ldx	$16                     ; 0x2016 <__umodsi3+0x50>
    1f62: 86 14        	stx	$14                     ; 0x2014 <__umodsi3+0x4e>
    1f64: a0 01        	ldy	#$1
    1f66: b1 14        	lda	($14),y                 ; 0x2014 <__umodsi3+0x4e>
    1f68: 85 16        	sta	$16                     ; 0x2016 <__umodsi3+0x50>
    1f6a: a9 fe        	lda	#$fe
    1f6c: 32 14        	and	($14)                   ; 0x2014 <__umodsi3+0x4e>
    1f6e: 92 14        	sta	($14)                   ; 0x2014 <__umodsi3+0x4e>
    1f70: a5 16        	lda	$16                     ; 0x2016 <__umodsi3+0x50>
    1f72: 91 14        	sta	($14),y                 ; 0x2014 <__umodsi3+0x4e>
    1f74: 60           	rts

00001f75 <memcpy>:
    1f75: a8           	tay
    1f76: 8a           	txa
    1f77: d0 03        	bne	$1f7c <memcpy+0x7>
    1f79: 98           	tya
    1f7a: f0 24        	beq	$1fa0 <memcpy+0x2b>
    1f7c: a5 12        	lda	$12                     ; 0x2012 <__umodsi3+0x4c>
    1f7e: 85 16        	sta	$16                     ; 0x2016 <__umodsi3+0x50>
    1f80: a5 13        	lda	$13                     ; 0x2013 <__umodsi3+0x4d>
    1f82: 85 17        	sta	$17                     ; 0x2017 <__umodsi3+0x51>
    1f84: b2 14        	lda	($14)                   ; 0x2014 <__umodsi3+0x4e>
    1f86: 92 16        	sta	($16)                   ; 0x2016 <__umodsi3+0x50>
    1f88: e6 16        	inc	$16                     ; 0x2016 <__umodsi3+0x50>
    1f8a: d0 02        	bne	$1f8e <memcpy+0x19>
    1f8c: e6 17        	inc	$17                     ; 0x2017 <__umodsi3+0x51>
    1f8e: e6 14        	inc	$14                     ; 0x2014 <__umodsi3+0x4e>
    1f90: d0 02        	bne	$1f94 <memcpy+0x1f>
    1f92: e6 15        	inc	$15                     ; 0x2015 <__umodsi3+0x4f>
    1f94: 88           	dey
    1f95: c0 ff        	cpy	#$ff
    1f97: d0 01        	bne	$1f9a <memcpy+0x25>
    1f99: ca           	dex
    1f9a: 8a           	txa
    1f9b: d0 e7        	bne	$1f84 <memcpy+0xf>
    1f9d: 98           	tya
    1f9e: d0 e4        	bne	$1f84 <memcpy+0xf>
    1fa0: 60           	rts

00001fa1 <__memset>:
    1fa1: a4 14        	ldy	$14                     ; 0x2014 <__umodsi3+0x4e>
    1fa3: d0 04        	bne	$1fa9 <__memset+0x8>
    1fa5: e0 00        	cpx	#$0
    1fa7: f0 17        	beq	$1fc0 <__memset+0x1f>
    1fa9: 92 12        	sta	($12)                   ; 0x2012 <__umodsi3+0x4c>
    1fab: e6 12        	inc	$12                     ; 0x2012 <__umodsi3+0x4c>
    1fad: d0 02        	bne	$1fb1 <__memset+0x10>
    1faf: e6 13        	inc	$13                     ; 0x2013 <__umodsi3+0x4d>
    1fb1: ca           	dex
    1fb2: e0 ff        	cpx	#$ff
    1fb4: d0 02        	bne	$1fb8 <__memset+0x17>
    1fb6: c6 14        	dec	$14                     ; 0x2014 <__umodsi3+0x4e>
    1fb8: a4 14        	ldy	$14                     ; 0x2014 <__umodsi3+0x4e>
    1fba: d0 ed        	bne	$1fa9 <__memset+0x8>
    1fbc: e0 00        	cpx	#$0
    1fbe: d0 e9        	bne	$1fa9 <__memset+0x8>
    1fc0: 60           	rts

00001fc1 <strlen>:
    1fc1: a9 0a        	lda	#$a
    1fc3: a2 00        	ldx	#$0
    1fc5: 60           	rts

00001fc6 <__umodsi3>:
    1fc6: 85 1c        	sta	$1c                     ; 0x201c <__umodsi3+0x56>
    1fc8: 86 1a        	stx	$1a                     ; 0x201a <__umodsi3+0x54>
    1fca: a5 13        	lda	$13                     ; 0x2013 <__umodsi3+0x4d>
    1fcc: a6 17        	ldx	$17                     ; 0x2017 <__umodsi3+0x51>
    1fce: d0 0f        	bne	$1fdf <__umodsi3+0x19>
    1fd0: a6 16        	ldx	$16                     ; 0x2016 <__umodsi3+0x50>
    1fd2: d0 0b        	bne	$1fdf <__umodsi3+0x19>
    1fd4: a6 15        	ldx	$15                     ; 0x2015 <__umodsi3+0x4f>
    1fd6: d0 07        	bne	$1fdf <__umodsi3+0x19>
    1fd8: a6 14        	ldx	$14                     ; 0x2014 <__umodsi3+0x4e>
    1fda: d0 03        	bne	$1fdf <__umodsi3+0x19>
    1fdc: 4c 06 21     	jmp	$2106 <__umodsi3+0x140>
    1fdf: c5 17        	cmp	$17                     ; 0x2017 <__umodsi3+0x51>
    1fe1: d0 15        	bne	$1ff8 <__umodsi3+0x32>
    1fe3: a6 12        	ldx	$12                     ; 0x2012 <__umodsi3+0x4c>
    1fe5: e4 16        	cpx	$16                     ; 0x2016 <__umodsi3+0x50>
    1fe7: d0 16        	bne	$1fff <__umodsi3+0x39>
    1fe9: a6 1a        	ldx	$1a                     ; 0x201a <__umodsi3+0x54>
    1feb: e4 15        	cpx	$15                     ; 0x2015 <__umodsi3+0x4f>
    1fed: d0 17        	bne	$2006 <__umodsi3+0x40>
    1fef: a6 1c        	ldx	$1c                     ; 0x201c <__umodsi3+0x56>
    1ff1: e4 14        	cpx	$14                     ; 0x2014 <__umodsi3+0x4e>
    1ff3: b0 1a        	bcs	$200f <__umodsi3+0x49>
    1ff5: 4c 06 21     	jmp	$2106 <__umodsi3+0x140>
    1ff8: c5 17        	cmp	$17                     ; 0x2017 <__umodsi3+0x51>
    1ffa: b0 13        	bcs	$200f <__umodsi3+0x49>
    1ffc: 4c 06 21     	jmp	$2106 <__umodsi3+0x140>
    1fff: e4 16        	cpx	$16                     ; 0x2016 <__umodsi3+0x50>
    2001: b0 0c        	bcs	$200f <__umodsi3+0x49>
    2003: 4c 06 21     	jmp	$2106 <__umodsi3+0x140>
    2006: a6 1a        	ldx	$1a                     ; 0x201a <__umodsi3+0x54>
    2008: e4 15        	cpx	$15                     ; 0x2015 <__umodsi3+0x4f>
    200a: b0 03        	bcs	$200f <__umodsi3+0x49>
    200c: 4c 06 21     	jmp	$2106 <__umodsi3+0x140>
    200f: a6 17        	ldx	$17                     ; 0x2017 <__umodsi3+0x51>
    2011: 10 03        	bpl	$2016 <__umodsi3+0x50>
    2013: 4c ef 20     	jmp	$20ef <__umodsi3+0x129>
    2016: a2 00        	ldx	#$0
    2018: a4 14        	ldy	$14                     ; 0x2014 <__umodsi3+0x4e>
    201a: 84 1b        	sty	$1b                     ; 0x201b <__umodsi3+0x55>
    201c: a4 15        	ldy	$15                     ; 0x2015 <__umodsi3+0x4f>
    201e: 84 13        	sty	$13                     ; 0x2013 <__umodsi3+0x4d>
    2020: a4 16        	ldy	$16                     ; 0x2016 <__umodsi3+0x50>
    2022: 84 18        	sty	$18                     ; 0x2018 <__umodsi3+0x52>
    2024: a4 17        	ldy	$17                     ; 0x2017 <__umodsi3+0x51>
    2026: 84 19        	sty	$19                     ; 0x2019 <__umodsi3+0x53>
    2028: 06 1b        	asl	$1b                     ; 0x201b <__umodsi3+0x55>
    202a: 26 13        	rol	$13                     ; 0x2013 <__umodsi3+0x4d>
    202c: 26 18        	rol	$18                     ; 0x2018 <__umodsi3+0x52>
    202e: 26 19        	rol	$19                     ; 0x2019 <__umodsi3+0x53>
    2030: c5 19        	cmp	$19                     ; 0x2019 <__umodsi3+0x53>
    2032: d0 16        	bne	$204a <__umodsi3+0x84>
    2034: a4 12        	ldy	$12                     ; 0x2012 <__umodsi3+0x4c>
    2036: c4 18        	cpy	$18                     ; 0x2018 <__umodsi3+0x52>
    2038: d0 16        	bne	$2050 <__umodsi3+0x8a>
    203a: a4 1a        	ldy	$1a                     ; 0x201a <__umodsi3+0x54>
    203c: c4 13        	cpy	$13                     ; 0x2013 <__umodsi3+0x4d>
    203e: d0 16        	bne	$2056 <__umodsi3+0x90>
    2040: a8           	tay
    2041: a5 1c        	lda	$1c                     ; 0x201c <__umodsi3+0x56>
    2043: c5 1b        	cmp	$1b                     ; 0x201b <__umodsi3+0x55>
    2045: 98           	tya
    2046: 90 29        	bcc	$2071 <__umodsi3+0xab>
    2048: 80 12        	bra	$205c <__umodsi3+0x96>
    204a: c5 19        	cmp	$19                     ; 0x2019 <__umodsi3+0x53>
    204c: 90 23        	bcc	$2071 <__umodsi3+0xab>
    204e: 80 0c        	bra	$205c <__umodsi3+0x96>
    2050: c4 18        	cpy	$18                     ; 0x2018 <__umodsi3+0x52>
    2052: 90 1d        	bcc	$2071 <__umodsi3+0xab>
    2054: 80 06        	bra	$205c <__umodsi3+0x96>
    2056: a4 1a        	ldy	$1a                     ; 0x201a <__umodsi3+0x54>
    2058: c4 13        	cpy	$13                     ; 0x2013 <__umodsi3+0x4d>
    205a: 90 15        	bcc	$2071 <__umodsi3+0xab>
    205c: e8           	inx
    205d: a4 1b        	ldy	$1b                     ; 0x201b <__umodsi3+0x55>
    205f: 84 14        	sty	$14                     ; 0x2014 <__umodsi3+0x4e>
    2061: a4 13        	ldy	$13                     ; 0x2013 <__umodsi3+0x4d>
    2063: 84 15        	sty	$15                     ; 0x2015 <__umodsi3+0x4f>
    2065: a4 18        	ldy	$18                     ; 0x2018 <__umodsi3+0x52>
    2067: 84 16        	sty	$16                     ; 0x2016 <__umodsi3+0x50>
    2069: a4 19        	ldy	$19                     ; 0x2019 <__umodsi3+0x53>
    206b: 84 17        	sty	$17                     ; 0x2017 <__umodsi3+0x51>
    206d: 10 b9        	bpl	$2028 <__umodsi3+0x62>
    206f: 80 10        	bra	$2081 <__umodsi3+0xbb>
    2071: a4 14        	ldy	$14                     ; 0x2014 <__umodsi3+0x4e>
    2073: 84 1b        	sty	$1b                     ; 0x201b <__umodsi3+0x55>
    2075: a4 15        	ldy	$15                     ; 0x2015 <__umodsi3+0x4f>
    2077: 84 13        	sty	$13                     ; 0x2013 <__umodsi3+0x4d>
    2079: a4 16        	ldy	$16                     ; 0x2016 <__umodsi3+0x50>
    207b: 84 18        	sty	$18                     ; 0x2018 <__umodsi3+0x52>
    207d: a4 17        	ldy	$17                     ; 0x2017 <__umodsi3+0x51>
    207f: 84 19        	sty	$19                     ; 0x2019 <__umodsi3+0x53>
    2081: 38           	sec
    2082: a8           	tay
    2083: a5 1c        	lda	$1c                     ; 0x201c <__umodsi3+0x56>
    2085: e5 1b        	sbc	$1b                     ; 0x201b <__umodsi3+0x55>
    2087: 85 1c        	sta	$1c                     ; 0x201c <__umodsi3+0x56>
    2089: a5 1a        	lda	$1a                     ; 0x201a <__umodsi3+0x54>
    208b: e5 13        	sbc	$13                     ; 0x2013 <__umodsi3+0x4d>
    208d: 85 1a        	sta	$1a                     ; 0x201a <__umodsi3+0x54>
    208f: a5 12        	lda	$12                     ; 0x2012 <__umodsi3+0x4c>
    2091: e5 18        	sbc	$18                     ; 0x2018 <__umodsi3+0x52>
    2093: 85 12        	sta	$12                     ; 0x2012 <__umodsi3+0x4c>
    2095: 98           	tya
    2096: e5 19        	sbc	$19                     ; 0x2019 <__umodsi3+0x53>
    2098: e0 00        	cpx	#$0
    209a: d0 11        	bne	$20ad <__umodsi3+0xe7>
    209c: 4c 06 21     	jmp	$2106 <__umodsi3+0x140>
    209f: c4 18        	cpy	$18                     ; 0x2018 <__umodsi3+0x52>
    20a1: b0 30        	bcs	$20d3 <__umodsi3+0x10d>
    20a3: 80 45        	bra	$20ea <__umodsi3+0x124>
    20a5: a4 1a        	ldy	$1a                     ; 0x201a <__umodsi3+0x54>
    20a7: c4 13        	cpy	$13                     ; 0x2013 <__umodsi3+0x4d>
    20a9: b0 28        	bcs	$20d3 <__umodsi3+0x10d>
    20ab: 80 3d        	bra	$20ea <__umodsi3+0x124>
    20ad: 46 19        	lsr	$19                     ; 0x2019 <__umodsi3+0x53>
    20af: 66 18        	ror	$18                     ; 0x2018 <__umodsi3+0x52>
    20b1: 66 13        	ror	$13                     ; 0x2013 <__umodsi3+0x4d>
    20b3: 66 1b        	ror	$1b                     ; 0x201b <__umodsi3+0x55>
    20b5: c5 19        	cmp	$19                     ; 0x2019 <__umodsi3+0x53>
    20b7: d0 16        	bne	$20cf <__umodsi3+0x109>
    20b9: a4 12        	ldy	$12                     ; 0x2012 <__umodsi3+0x4c>
    20bb: c4 18        	cpy	$18                     ; 0x2018 <__umodsi3+0x52>
    20bd: d0 e0        	bne	$209f <__umodsi3+0xd9>
    20bf: a4 1a        	ldy	$1a                     ; 0x201a <__umodsi3+0x54>
    20c1: c4 13        	cpy	$13                     ; 0x2013 <__umodsi3+0x4d>
    20c3: d0 e0        	bne	$20a5 <__umodsi3+0xdf>
    20c5: a8           	tay
    20c6: a5 1c        	lda	$1c                     ; 0x201c <__umodsi3+0x56>
    20c8: c5 1b        	cmp	$1b                     ; 0x201b <__umodsi3+0x55>
    20ca: 98           	tya
    20cb: b0 06        	bcs	$20d3 <__umodsi3+0x10d>
    20cd: 80 1b        	bra	$20ea <__umodsi3+0x124>
    20cf: c5 19        	cmp	$19                     ; 0x2019 <__umodsi3+0x53>
    20d1: 90 17        	bcc	$20ea <__umodsi3+0x124>
    20d3: a8           	tay
    20d4: 38           	sec
    20d5: a5 1c        	lda	$1c                     ; 0x201c <__umodsi3+0x56>
    20d7: e5 1b        	sbc	$1b                     ; 0x201b <__umodsi3+0x55>
    20d9: 85 1c        	sta	$1c                     ; 0x201c <__umodsi3+0x56>
    20db: a5 1a        	lda	$1a                     ; 0x201a <__umodsi3+0x54>
    20dd: e5 13        	sbc	$13                     ; 0x2013 <__umodsi3+0x4d>
    20df: 85 1a        	sta	$1a                     ; 0x201a <__umodsi3+0x54>
    20e1: a5 12        	lda	$12                     ; 0x2012 <__umodsi3+0x4c>
    20e3: e5 18        	sbc	$18                     ; 0x2018 <__umodsi3+0x52>
    20e5: 85 12        	sta	$12                     ; 0x2012 <__umodsi3+0x4c>
    20e7: 98           	tya
    20e8: e5 19        	sbc	$19                     ; 0x2019 <__umodsi3+0x53>
    20ea: ca           	dex
    20eb: d0 c0        	bne	$20ad <__umodsi3+0xe7>
    20ed: 80 17        	bra	$2106 <__umodsi3+0x140>
    20ef: 38           	sec
    20f0: a8           	tay
    20f1: a5 1c        	lda	$1c                     ; 0x201c <__umodsi3+0x56>
    20f3: e5 14        	sbc	$14                     ; 0x2014 <__umodsi3+0x4e>
    20f5: 85 1c        	sta	$1c                     ; 0x201c <__umodsi3+0x56>
    20f7: a5 1a        	lda	$1a                     ; 0x201a <__umodsi3+0x54>
    20f9: e5 15        	sbc	$15                     ; 0x2015 <__umodsi3+0x4f>
    20fb: 85 1a        	sta	$1a                     ; 0x201a <__umodsi3+0x54>
    20fd: a5 12        	lda	$12                     ; 0x2012 <__umodsi3+0x4c>
    20ff: e5 16        	sbc	$16                     ; 0x2016 <__umodsi3+0x50>
    2101: 85 12        	sta	$12                     ; 0x2012 <__umodsi3+0x4c>
    2103: 98           	tya
    2104: e5 17        	sbc	$17                     ; 0x2017 <__umodsi3+0x51>
    2106: 85 13        	sta	$13                     ; 0x2013 <__umodsi3+0x4d>
    2108: a6 1a        	ldx	$1a                     ; 0x201a <__umodsi3+0x54>
    210a: a5 1c        	lda	$1c                     ; 0x201c <__umodsi3+0x56>
    210c: 60           	rts
