
mp3wSA.elf:	file format elf32-mos

SYMBOL TABLE:
00000000 l    df *ABS*	00000000 zero-bss.c
00000000 l    df *ABS*	00000000 zero-zp-bss.c
00000000 l    df *ABS*	00000000 copy-zp-data.c
00000000 l    df *ABS*	00000000 ld-temp.o
000075eb l     O .bss	00000d38 fpr
0000003a l     O .zp.bss	00000007 kernelEventData
00000032 l     O .zp.bss	00000001 _ccolor
000046b2 l     O .rodata	00000030 textColors
00000033 l     O .zp.bss	00000001 _col
00000034 l     O .zp.bss	00000001 _row
000074dd l     O .bss	00000004 _BITMAP_BASE.0
000074e1 l     O .bss	00000008 _dirStream
00000039 l     O .zp.bss	00000001 kernelError
00004154 l     F .text	00000088 printf
00002ed1 l     F .text	000000df fileReadDir
00000035 l     O .zp.bss	00000002 __putchar.s
00002cc5 l     F .text	000001f8 textPrint
00002fb0 l     F .text	00000484 pickFile
000041dc l     F .text	000000d2 sprintf
00008323 l     O .bss	00000040 finalName
00000037 l     O .zp.bss	00000002 theMP3file
00004897 l     O .rodata	00002476 bigpatch
00006d0d l     O .rodata	000007d0 saplugin2
00002b7c l     F .text	00000149 fileRead
00004483 l     F .text	00000192 free
000042ae l     F .text	000001d5 malloc
00002ebd l     F .text	00000011 textGotoXY
00002ece l     F .text	00000003 textSetColor
000074e9 l     O .bss	00000102 fileReadDir.fileDirEntS
00003439 l     F .text	00000b34 _ZN12_GLOBAL__N_15printEPKcP6Status
00003f6d l     F .text	000000db _ZN12_GLOBAL__N_13putEcP6Status
00004048 l     F .text	0000010c _ZN12_GLOBAL__N_112print_stringEPKcP6Status
00008363 l     O .bss	00000001 _ZN12_GLOBAL__N_111initializedE
0000031a l     F .text	0000013d _ZN12_GLOBAL__N_19FreeChunk6insertEPvj
00008364 l     O .bss	00000001 _ZN12_GLOBAL__N_19last_freeE
00008367 l     O .bss	00000002 _ZN12_GLOBAL__N_19free_listE
00000458 l     F .text	000000df _ZN12_GLOBAL__N_19FreeChunk6removeEv
00008365 l     O .bss	00000002 _ZN12_GLOBAL__N_19free_sizeE
00000574 g     F .text	00002608 main
00040d00 g       .mac	00000000 mac_end
00052400 g       .logoy	00000000 logoy_start
00068476 g       .patch	00000000 patch_end
00052000 g       .pally	00000000 pally_start
00020000 g       .mac	00000000 mac_start
00052400 g       .pally	00000000 pally_end
00069000 g       .saplug	00000000 saplug_start
00065000 g       .logoy	00000000 logoy_end
000697d0 g       .saplug	00000000 saplug_end
00066000 g       .patch	00000000 patch_start
00000316 g       .text	00000000 __after_main
00000302 g       .text	00000000 __do_init_stack
00000310 g       .text	00000000 __do_copy_zp_data
0000055d g     F .text	00000017 __copy_zp_data
0000030a g       .text	00000000 __do_zero_bss
00000537 g     F .text	00000013 __zero_bss
0000030d g       .text	00000000 __do_zero_zp_bss
0000054a g     F .text	00000013 __zero_zp_bss
00003434 g     F .text	00000005 exit
00000319 g       .text	00000000 _fini
00004661 g       .rodata	00000000 __set_v
00004641  w    F .text	00000020 __memset
00001000  w      *ABS*	00000000 __heap_default_limit
0000836a g       .noinit	00000000 __heap_start
00004615  w    F .text	0000002c memcpy
00000010 g       *ABS*	00000000 __rc0
00000012 g       *ABS*	00000000 __rc2
00000014 g       *ABS*	00000000 __rc4
00000016 g       *ABS*	00000000 __rc6
00000018 g       *ABS*	00000000 __rc8
0000001a g       *ABS*	00000000 __rc10
0000001c g       *ABS*	00000000 __rc12
0000001e g       *ABS*	00000000 __rc14
00000020 g       *ABS*	00000000 __rc16
00000022 g       *ABS*	00000000 __rc18
00000024 g       *ABS*	00000000 __rc20
00000026 g       *ABS*	00000000 __rc22
00000028 g       *ABS*	00000000 __rc24
0000002a g       *ABS*	00000000 __rc26
0000002c g       *ABS*	00000000 __rc28
0000002e g       *ABS*	00000000 __rc30
0000002f g       *ABS*	00000000 __rc31
00000300 g       *ABS*	00000000 __f256_start
0000c000 g       *ABS*	00000000 __stack
0000c000 g       *ABS*	00000000 __SLOT_ADDR
0800c000 g       *ABS*	00000000 __block8_lma
00002000 g       *ABS*	00000000 __BLOCK_SIZE
0900c000 g       *ABS*	00000000 __block9_lma
0a00c000 g       *ABS*	00000000 __block10_lma
0b00c000 g       *ABS*	00000000 __block11_lma
0c00c000 g       *ABS*	00000000 __block12_lma
0d00c000 g       *ABS*	00000000 __block13_lma
0e00c000 g       *ABS*	00000000 __block14_lma
0f00c000 g       *ABS*	00000000 __block15_lma
1000c000 g       *ABS*	00000000 __block16_lma
1100c000 g       *ABS*	00000000 __block17_lma
1200c000 g       *ABS*	00000000 __block18_lma
1300c000 g       *ABS*	00000000 __block19_lma
1400c000 g       *ABS*	00000000 __block20_lma
1500c000 g       *ABS*	00000000 __block21_lma
1600c000 g       *ABS*	00000000 __block22_lma
1700c000 g       *ABS*	00000000 __block23_lma
00020000 g       *ABS*	00000000 __mac_lma
00020d00 g       *ABS*	00000000 __mac_size
00052000 g       *ABS*	00000000 __pally_lma
00000400 g       *ABS*	00000000 __pally_size
00052400 g       *ABS*	00000000 __logoy_lma
00012c00 g       *ABS*	00000000 __logoy_size
00066000 g       *ABS*	00000000 __patch_lma
00002476 g       *ABS*	00000000 __patch_size
00069000 g       *ABS*	00000000 __saplug_lma
000007d0 g       *ABS*	00000000 __saplug_size
000074dd g       .bss	00000000 __bss_start
00040d00 g       .mac	00000000 end_mac
00052400 g       .pally	00000000 end_pally
00065000 g       .logoy	00000000 end_logoy
00068476 g       .patch	00000000 end_patch
000697d0 g       .saplug	00000000 end_saplug
00000302 g       .text	00000000 _start
0000002d g       *ABS*	00000000 __rc29
0000002b g       *ABS*	00000000 __rc27
00000029 g       *ABS*	00000000 __rc25
00000027 g       *ABS*	00000000 __rc23
00000025 g       *ABS*	00000000 __rc21
00000023 g       *ABS*	00000000 __rc19
00000021 g       *ABS*	00000000 __rc17
0000001f g       *ABS*	00000000 __rc15
0000001d g       *ABS*	00000000 __rc13
0000001b g       *ABS*	00000000 __rc11
00000019 g       *ABS*	00000000 __rc9
00000017 g       *ABS*	00000000 __rc7
00000015 g       *ABS*	00000000 __rc5
00000013 g       *ABS*	00000000 __rc3
00000011 g       *ABS*	00000000 __rc1
00000030 g       .zp.data	00000000 __zp_data_start
00000300 g       *ABS*	00000000 __zp_data_load_start
00000002 g       *ABS*	00000000 __zp_data_size
00000032 g       .zp.bss	00000000 __zp_bss_start
0000000f g       *ABS*	00000000 __zp_bss_size
00000302 g       .text	00000000 _init
00004661 g       .text	00000000 __init_array_start
00004661 g       .text	00000000 __init_array_end
00004661 g       .text	00000000 __fini_array_start
00004661 g       .text	00000000 __fini_array_end
000074dd g       .data	00000000 __data_start
000074dd g       .data	00000000 __data_end
000074dd g       *ABS*	00000000 __data_load_start
00000000 g       *ABS*	00000000 __data_size
00008369 g       .bss	00000000 __bss_end
00000e8c g       *ABS*	00000000 __bss_size
00008369 g       .noinit	00000000 end_block8
00008369 g       .noinit	00000000 end_block9
00008369 g       .noinit	00000000 end_block10
00008369 g       .noinit	00000000 end_block11
00008369 g       .noinit	00000000 end_block12
00008369 g       .noinit	00000000 end_block13
00008369 g       .noinit	00000000 end_block14
00008369 g       .noinit	00000000 end_block15
00008369 g       .noinit	00000000 end_block16
00008369 g       .noinit	00000000 end_block17
00008369 g       .noinit	00000000 end_block18
00008369 g       .noinit	00000000 end_block19
00008369 g       .noinit	00000000 end_block20
00008369 g       .noinit	00000000 end_block21
00008369 g       .noinit	00000000 end_block22
00008369 g       .noinit	00000000 end_block23

Disassembly of section .text:

00000302 <_start>:
     302: a9 00        	lda	#$0
     304: 85 10        	sta	$10                     ; 0x2010 <main+0x1a9c>
     306: a9 c0        	lda	#$c0
     308: 85 11        	sta	$11                     ; 0x2011 <main+0x1a9d>

0000030a <__do_zero_bss>:
     30a: 20 37 05     	jsr	$537 <__zero_bss>

0000030d <__do_zero_zp_bss>:
     30d: 20 4a 05     	jsr	$54a <__zero_zp_bss>

00000310 <__do_copy_zp_data>:
     310: 20 5d 05     	jsr	$55d <__copy_zp_data>
     313: 20 74 05     	jsr	$574 <main>

00000316 <__after_main>:
     316: 4c 34 34     	jmp	$3434 <exit>

00000319 <_fini>:
     319: 60           	rts

0000031a <_ZN12_GLOBAL__N_19FreeChunk6insertEPvj>:
     31a: 85 16        	sta	$16                     ; 0x2016 <main+0x1aa2>
     31c: 29 fe        	and	#$fe
     31e: 85 14        	sta	$14                     ; 0x2014 <main+0x1aa0>
     320: a0 01        	ldy	#$1
     322: 98           	tya
     323: 32 12        	and	($12)                   ; 0x2012 <main+0x1a9e>
     325: 05 14        	ora	$14                     ; 0x2014 <main+0x1aa0>
     327: 92 12        	sta	($12)                   ; 0x2012 <main+0x1a9e>
     329: a5 12        	lda	$12                     ; 0x2012 <main+0x1a9e>
     32b: 18           	clc
     32c: 65 14        	adc	$14                     ; 0x2014 <main+0x1aa0>
     32e: 85 15        	sta	$15                     ; 0x2015 <main+0x1aa1>
     330: 8a           	txa
     331: 65 13        	adc	$13                     ; 0x2013 <main+0x1a9f>
     333: 85 14        	sta	$14                     ; 0x2014 <main+0x1aa0>
     335: 18           	clc
     336: a5 15        	lda	$15                     ; 0x2015 <main+0x1aa1>
     338: 69 fe        	adc	#$fe
     33a: 85 17        	sta	$17                     ; 0x2017 <main+0x1aa3>
     33c: a5 14        	lda	$14                     ; 0x2014 <main+0x1aa0>
     33e: 69 ff        	adc	#$ff
     340: 85 15        	sta	$15                     ; 0x2015 <main+0x1aa1>
     342: a5 17        	lda	$17                     ; 0x2017 <main+0x1aa3>
     344: 85 14        	sta	$14                     ; 0x2014 <main+0x1aa0>
     346: 8a           	txa
     347: 91 12        	sta	($12),y                 ; 0x2012 <main+0x1a9e>
     349: a5 16        	lda	$16                     ; 0x2016 <main+0x1aa2>
     34b: 92 14        	sta	($14)                   ; 0x2014 <main+0x1aa0>
     34d: 8a           	txa
     34e: 91 14        	sta	($14),y                 ; 0x2014 <main+0x1aa0>
     350: b1 12        	lda	($12),y                 ; 0x2012 <main+0x1a9e>
     352: 85 14        	sta	$14                     ; 0x2014 <main+0x1aa0>
     354: a9 fe        	lda	#$fe
     356: 32 12        	and	($12)                   ; 0x2012 <main+0x1a9e>
     358: 18           	clc
     359: 6d 65 83     	adc	$8365                   ; 0x8365 <_ZN12_GLOBAL__N_19free_sizeE>
     35c: aa           	tax
     35d: a5 14        	lda	$14                     ; 0x2014 <main+0x1aa0>
     35f: 6d 66 83     	adc	$8366                   ; 0x8366 <_ZN12_GLOBAL__N_19free_sizeE+0x1>
     362: a8           	tay
     363: 18           	clc
     364: 8a           	txa
     365: 69 fe        	adc	#$fe
     367: aa           	tax
     368: 98           	tya
     369: 69 ff        	adc	#$ff
     36b: 8e 65 83     	stx	$8365                   ; 0x8365 <_ZN12_GLOBAL__N_19free_sizeE>
     36e: 8d 66 83     	sta	$8366                   ; 0x8366 <_ZN12_GLOBAL__N_19free_sizeE+0x1>
     371: ae 67 83     	ldx	$8367                   ; 0x8367 <_ZN12_GLOBAL__N_19free_listE>
     374: 86 16        	stx	$16                     ; 0x2016 <main+0x1aa2>
     376: ac 68 83     	ldy	$8368                   ; 0x8368 <_ZN12_GLOBAL__N_19free_listE+0x1>
     379: a2 00        	ldx	#$0
     37b: 86 14        	stx	$14                     ; 0x2014 <main+0x1aa0>
     37d: a2 00        	ldx	#$0
     37f: 86 15        	stx	$15                     ; 0x2015 <main+0x1aa1>
     381: c4 15        	cpy	$15                     ; 0x2015 <main+0x1aa1>
     383: d0 3e        	bne	$3c3 <_ZN12_GLOBAL__N_19FreeChunk6insertEPvj+0xa9>
     385: a6 16        	ldx	$16                     ; 0x2016 <main+0x1aa2>
     387: e4 14        	cpx	$14                     ; 0x2014 <main+0x1aa0>
     389: d0 38        	bne	$3c3 <_ZN12_GLOBAL__N_19FreeChunk6insertEPvj+0xa9>
     38b: a0 04        	ldy	#$4
     38d: a5 12        	lda	$12                     ; 0x2012 <main+0x1a9e>
     38f: 18           	clc
     390: 69 04        	adc	#$4
     392: 85 14        	sta	$14                     ; 0x2014 <main+0x1aa0>
     394: a5 13        	lda	$13                     ; 0x2013 <main+0x1a9f>
     396: 69 00        	adc	#$0
     398: 18           	clc
     399: 85 15        	sta	$15                     ; 0x2015 <main+0x1aa1>
     39b: a5 12        	lda	$12                     ; 0x2012 <main+0x1a9e>
     39d: 91 12        	sta	($12),y                 ; 0x2012 <main+0x1a9e>
     39f: a0 02        	ldy	#$2
     3a1: 85 17        	sta	$17                     ; 0x2017 <main+0x1aa3>
     3a3: 69 02        	adc	#$2
     3a5: 85 16        	sta	$16                     ; 0x2016 <main+0x1aa2>
     3a7: a5 17        	lda	$17                     ; 0x2017 <main+0x1aa3>
     3a9: 91 12        	sta	($12),y                 ; 0x2012 <main+0x1a9e>
     3ab: a5 13        	lda	$13                     ; 0x2013 <main+0x1a9f>
     3ad: 69 00        	adc	#$0
     3af: 85 17        	sta	$17                     ; 0x2017 <main+0x1aa3>
     3b1: 88           	dey
     3b2: a5 13        	lda	$13                     ; 0x2013 <main+0x1a9f>
     3b4: 91 14        	sta	($14),y                 ; 0x2014 <main+0x1aa0>
     3b6: 91 16        	sta	($16),y                 ; 0x2016 <main+0x1aa2>
     3b8: a6 12        	ldx	$12                     ; 0x2012 <main+0x1a9e>
     3ba: 8e 67 83     	stx	$8367                   ; 0x8367 <_ZN12_GLOBAL__N_19free_listE>
     3bd: a6 13        	ldx	$13                     ; 0x2013 <main+0x1a9f>
     3bf: 8e 68 83     	stx	$8368                   ; 0x8368 <_ZN12_GLOBAL__N_19free_listE+0x1>
     3c2: 60           	rts
     3c3: a6 12        	ldx	$12                     ; 0x2012 <main+0x1a9e>
     3c5: a5 12        	lda	$12                     ; 0x2012 <main+0x1a9e>
     3c7: 18           	clc
     3c8: 69 02        	adc	#$2
     3ca: 85 14        	sta	$14                     ; 0x2014 <main+0x1aa0>
     3cc: 84 18        	sty	$18                     ; 0x2018 <main+0x1aa4>
     3ce: a5 13        	lda	$13                     ; 0x2013 <main+0x1a9f>
     3d0: 69 00        	adc	#$0
     3d2: 85 15        	sta	$15                     ; 0x2015 <main+0x1aa1>
     3d4: a5 16        	lda	$16                     ; 0x2016 <main+0x1aa2>
     3d6: 84 17        	sty	$17                     ; 0x2017 <main+0x1aa3>
     3d8: a0 02        	ldy	#$2
     3da: 91 12        	sta	($12),y                 ; 0x2012 <main+0x1a9e>
     3dc: 85 19        	sta	$19                     ; 0x2019 <main+0x1aa5>
     3de: 88           	dey
     3df: a5 18        	lda	$18                     ; 0x2018 <main+0x1aa4>
     3e1: 91 14        	sta	($14),y                 ; 0x2014 <main+0x1aa0>
     3e3: 18           	clc
     3e4: a5 19        	lda	$19                     ; 0x2019 <main+0x1aa5>
     3e6: 69 04        	adc	#$4
     3e8: a8           	tay
     3e9: a5 18        	lda	$18                     ; 0x2018 <main+0x1aa4>
     3eb: 69 00        	adc	#$0
     3ed: 85 19        	sta	$19                     ; 0x2019 <main+0x1aa5>
     3ef: 84 18        	sty	$18                     ; 0x2018 <main+0x1aa4>
     3f1: 8a           	txa
     3f2: 18           	clc
     3f3: 69 04        	adc	#$4
     3f5: 85 1a        	sta	$1a                     ; 0x201a <main+0x1aa6>
     3f7: a5 13        	lda	$13                     ; 0x2013 <main+0x1a9f>
     3f9: 69 00        	adc	#$0
     3fb: 85 1b        	sta	$1b                     ; 0x201b <main+0x1aa7>
     3fd: a0 04        	ldy	#$4
     3ff: b1 16        	lda	($16),y                 ; 0x2016 <main+0x1aa2>
     401: 85 16        	sta	$16                     ; 0x2016 <main+0x1aa2>
     403: 85 1d        	sta	$1d                     ; 0x201d <main+0x1aa9>
     405: a0 01        	ldy	#$1
     407: b1 18        	lda	($18),y                 ; 0x2018 <main+0x1aa4>
     409: 85 17        	sta	$17                     ; 0x2017 <main+0x1aa3>
     40b: 85 19        	sta	$19                     ; 0x2019 <main+0x1aa5>
     40d: a0 04        	ldy	#$4
     40f: a5 1d        	lda	$1d                     ; 0x201d <main+0x1aa9>
     411: 91 12        	sta	($12),y                 ; 0x2012 <main+0x1a9e>
     413: a5 19        	lda	$19                     ; 0x2019 <main+0x1aa5>
     415: a0 01        	ldy	#$1
     417: 91 1a        	sta	($1a),y                 ; 0x201a <main+0x1aa6>
     419: 18           	clc
     41a: a5 1d        	lda	$1d                     ; 0x201d <main+0x1aa9>
     41c: 69 02        	adc	#$2
     41e: 85 18        	sta	$18                     ; 0x2018 <main+0x1aa4>
     420: a5 19        	lda	$19                     ; 0x2019 <main+0x1aa5>
     422: 69 00        	adc	#$0
     424: 85 19        	sta	$19                     ; 0x2019 <main+0x1aa5>
     426: 8a           	txa
     427: c8           	iny
     428: 91 16        	sta	($16),y                 ; 0x2016 <main+0x1aa2>
     42a: a5 13        	lda	$13                     ; 0x2013 <main+0x1a9f>
     42c: 88           	dey
     42d: 91 18        	sta	($18),y                 ; 0x2018 <main+0x1aa4>
     42f: c8           	iny
     430: b1 12        	lda	($12),y                 ; 0x2012 <main+0x1a9e>
     432: 85 16        	sta	$16                     ; 0x2016 <main+0x1aa2>
     434: 85 18        	sta	$18                     ; 0x2018 <main+0x1aa4>
     436: 88           	dey
     437: b1 14        	lda	($14),y                 ; 0x2014 <main+0x1aa0>
     439: 85 17        	sta	$17                     ; 0x2017 <main+0x1aa3>
     43b: 85 14        	sta	$14                     ; 0x2014 <main+0x1aa0>
     43d: 8a           	txa
     43e: a0 04        	ldy	#$4
     440: 91 16        	sta	($16),y                 ; 0x2016 <main+0x1aa2>
     442: 18           	clc
     443: a5 18        	lda	$18                     ; 0x2018 <main+0x1aa4>
     445: 69 04        	adc	#$4
     447: a8           	tay
     448: a5 14        	lda	$14                     ; 0x2014 <main+0x1aa0>
     44a: 69 00        	adc	#$0
     44c: 84 14        	sty	$14                     ; 0x2014 <main+0x1aa0>
     44e: 85 15        	sta	$15                     ; 0x2015 <main+0x1aa1>
     450: a5 13        	lda	$13                     ; 0x2013 <main+0x1a9f>
     452: a0 01        	ldy	#$1
     454: 91 14        	sta	($14),y                 ; 0x2014 <main+0x1aa0>
     456: 60           	rts
     457: 00           	brk

00000458 <_ZN12_GLOBAL__N_19FreeChunk6removeEv>:
     458: a0 01        	ldy	#$1
     45a: a9 fe        	lda	#$fe
     45c: 32 12        	and	($12)                   ; 0x2012 <main+0x1a9e>
     45e: 85 14        	sta	$14                     ; 0x2014 <main+0x1aa0>
     460: ad 65 83     	lda	$8365                   ; 0x8365 <_ZN12_GLOBAL__N_19free_sizeE>
     463: ae 66 83     	ldx	$8366                   ; 0x8366 <_ZN12_GLOBAL__N_19free_sizeE+0x1>
     466: 86 15        	stx	$15                     ; 0x2015 <main+0x1aa1>
     468: 38           	sec
     469: e5 14        	sbc	$14                     ; 0x2014 <main+0x1aa0>
     46b: aa           	tax
     46c: a5 15        	lda	$15                     ; 0x2015 <main+0x1aa1>
     46e: f1 12        	sbc	($12),y                 ; 0x2012 <main+0x1a9e>
     470: 85 14        	sta	$14                     ; 0x2014 <main+0x1aa0>
     472: 18           	clc
     473: 8a           	txa
     474: 69 02        	adc	#$2
     476: 85 15        	sta	$15                     ; 0x2015 <main+0x1aa1>
     478: a5 14        	lda	$14                     ; 0x2014 <main+0x1aa0>
     47a: 69 00        	adc	#$0
     47c: a6 15        	ldx	$15                     ; 0x2015 <main+0x1aa1>
     47e: 8e 65 83     	stx	$8365                   ; 0x8365 <_ZN12_GLOBAL__N_19free_sizeE>
     481: 8d 66 83     	sta	$8366                   ; 0x8366 <_ZN12_GLOBAL__N_19free_sizeE+0x1>
     484: a5 12        	lda	$12                     ; 0x2012 <main+0x1a9e>
     486: 18           	clc
     487: 69 02        	adc	#$2
     489: 85 14        	sta	$14                     ; 0x2014 <main+0x1aa0>
     48b: a5 13        	lda	$13                     ; 0x2013 <main+0x1a9f>
     48d: 69 00        	adc	#$0
     48f: c8           	iny
     490: 85 15        	sta	$15                     ; 0x2015 <main+0x1aa1>
     492: b1 12        	lda	($12),y                 ; 0x2012 <main+0x1a9e>
     494: aa           	tax
     495: 88           	dey
     496: b1 14        	lda	($14),y                 ; 0x2014 <main+0x1aa0>
     498: 85 19        	sta	$19                     ; 0x2019 <main+0x1aa5>
     49a: c5 13        	cmp	$13                     ; 0x2013 <main+0x1a9f>
     49c: d0 0f        	bne	$4ad <_ZN12_GLOBAL__N_19FreeChunk6removeEv+0x55>
     49e: e4 12        	cpx	$12                     ; 0x2012 <main+0x1a9e>
     4a0: d0 0b        	bne	$4ad <_ZN12_GLOBAL__N_19FreeChunk6removeEv+0x55>
     4a2: a2 00        	ldx	#$0
     4a4: 86 14        	stx	$14                     ; 0x2014 <main+0x1aa0>
     4a6: a2 00        	ldx	#$0
     4a8: 86 15        	stx	$15                     ; 0x2015 <main+0x1aa1>
     4aa: 4c 2c 05     	jmp	$52c <_ZN12_GLOBAL__N_19FreeChunk6removeEv+0xd4>
     4ad: 86 18        	stx	$18                     ; 0x2018 <main+0x1aa4>
     4af: a6 12        	ldx	$12                     ; 0x2012 <main+0x1a9e>
     4b1: a5 12        	lda	$12                     ; 0x2012 <main+0x1a9e>
     4b3: 86 1b        	stx	$1b                     ; 0x201b <main+0x1aa7>
     4b5: 18           	clc
     4b6: 69 04        	adc	#$4
     4b8: 85 14        	sta	$14                     ; 0x2014 <main+0x1aa0>
     4ba: a5 13        	lda	$13                     ; 0x2013 <main+0x1a9f>
     4bc: 69 00        	adc	#$0
     4be: a0 04        	ldy	#$4
     4c0: 85 15        	sta	$15                     ; 0x2015 <main+0x1aa1>
     4c2: b1 12        	lda	($12),y                 ; 0x2012 <main+0x1a9e>
     4c4: 85 1c        	sta	$1c                     ; 0x201c <main+0x1aa8>
     4c6: 18           	clc
     4c7: 69 02        	adc	#$2
     4c9: 85 16        	sta	$16                     ; 0x2016 <main+0x1aa2>
     4cb: a0 01        	ldy	#$1
     4cd: b1 14        	lda	($14),y                 ; 0x2014 <main+0x1aa0>
     4cf: aa           	tax
     4d0: 69 00        	adc	#$0
     4d2: a4 16        	ldy	$16                     ; 0x2016 <main+0x1aa2>
     4d4: 84 14        	sty	$14                     ; 0x2014 <main+0x1aa0>
     4d6: 85 15        	sta	$15                     ; 0x2015 <main+0x1aa1>
     4d8: a4 1c        	ldy	$1c                     ; 0x201c <main+0x1aa8>
     4da: 84 16        	sty	$16                     ; 0x2016 <main+0x1aa2>
     4dc: 86 17        	stx	$17                     ; 0x2017 <main+0x1aa3>
     4de: a0 02        	ldy	#$2
     4e0: a5 18        	lda	$18                     ; 0x2018 <main+0x1aa4>
     4e2: 91 16        	sta	($16),y                 ; 0x2016 <main+0x1aa2>
     4e4: a5 19        	lda	$19                     ; 0x2019 <main+0x1aa5>
     4e6: 88           	dey
     4e7: 91 14        	sta	($14),y                 ; 0x2014 <main+0x1aa0>
     4e9: 18           	clc
     4ea: a5 1b        	lda	$1b                     ; 0x201b <main+0x1aa7>
     4ec: 69 02        	adc	#$2
     4ee: 85 14        	sta	$14                     ; 0x2014 <main+0x1aa0>
     4f0: a5 13        	lda	$13                     ; 0x2013 <main+0x1a9f>
     4f2: 69 00        	adc	#$0
     4f4: 85 15        	sta	$15                     ; 0x2015 <main+0x1aa1>
     4f6: c8           	iny
     4f7: b1 12        	lda	($12),y                 ; 0x2012 <main+0x1a9e>
     4f9: 85 16        	sta	$16                     ; 0x2016 <main+0x1aa2>
     4fb: 88           	dey
     4fc: b1 14        	lda	($14),y                 ; 0x2014 <main+0x1aa0>
     4fe: a4 16        	ldy	$16                     ; 0x2016 <main+0x1aa2>
     500: 84 14        	sty	$14                     ; 0x2014 <main+0x1aa0>
     502: 85 15        	sta	$15                     ; 0x2015 <main+0x1aa1>
     504: 85 17        	sta	$17                     ; 0x2017 <main+0x1aa3>
     506: a0 04        	ldy	#$4
     508: a5 1c        	lda	$1c                     ; 0x201c <main+0x1aa8>
     50a: 91 14        	sta	($14),y                 ; 0x2014 <main+0x1aa0>
     50c: 18           	clc
     50d: a5 16        	lda	$16                     ; 0x2016 <main+0x1aa2>
     50f: 69 04        	adc	#$4
     511: 85 16        	sta	$16                     ; 0x2016 <main+0x1aa2>
     513: a5 17        	lda	$17                     ; 0x2017 <main+0x1aa3>
     515: 69 00        	adc	#$0
     517: 85 17        	sta	$17                     ; 0x2017 <main+0x1aa3>
     519: 8a           	txa
     51a: a0 01        	ldy	#$1
     51c: 91 16        	sta	($16),y                 ; 0x2016 <main+0x1aa2>
     51e: ae 68 83     	ldx	$8368                   ; 0x8368 <_ZN12_GLOBAL__N_19free_listE+0x1>
     521: e4 13        	cpx	$13                     ; 0x2013 <main+0x1a9f>
     523: d0 11        	bne	$536 <_ZN12_GLOBAL__N_19FreeChunk6removeEv+0xde>
     525: ae 67 83     	ldx	$8367                   ; 0x8367 <_ZN12_GLOBAL__N_19free_listE>
     528: e4 12        	cpx	$12                     ; 0x2012 <main+0x1a9e>
     52a: d0 0a        	bne	$536 <_ZN12_GLOBAL__N_19FreeChunk6removeEv+0xde>
     52c: a6 14        	ldx	$14                     ; 0x2014 <main+0x1aa0>
     52e: a4 15        	ldy	$15                     ; 0x2015 <main+0x1aa1>
     530: 8e 67 83     	stx	$8367                   ; 0x8367 <_ZN12_GLOBAL__N_19free_listE>
     533: 8c 68 83     	sty	$8368                   ; 0x8368 <_ZN12_GLOBAL__N_19free_listE+0x1>
     536: 60           	rts

00000537 <__zero_bss>:
     537: a2 8c        	ldx	#$8c
     539: a0 0e        	ldy	#$e
     53b: a9 dd        	lda	#$dd
     53d: 85 12        	sta	$12                     ; 0x2012 <main+0x1a9e>
     53f: a9 74        	lda	#$74
     541: 85 13        	sta	$13                     ; 0x2013 <main+0x1a9f>
     543: a9 00        	lda	#$0
     545: 84 14        	sty	$14                     ; 0x2014 <main+0x1aa0>
     547: 4c 41 46     	jmp	$4641 <__memset>

0000054a <__zero_zp_bss>:
     54a: a2 0f        	ldx	#$f
     54c: a0 00        	ldy	#$0
     54e: a9 32        	lda	#$32
     550: 85 12        	sta	$12                     ; 0x2012 <main+0x1a9e>
     552: a9 00        	lda	#$0
     554: 85 13        	sta	$13                     ; 0x2013 <main+0x1a9f>
     556: a9 00        	lda	#$0
     558: 84 14        	sty	$14                     ; 0x2014 <main+0x1aa0>
     55a: 4c 41 46     	jmp	$4641 <__memset>

0000055d <__copy_zp_data>:
     55d: a9 02        	lda	#$2
     55f: a2 00        	ldx	#$0
     561: a0 30        	ldy	#$30
     563: 84 12        	sty	$12                     ; 0x2012 <main+0x1a9e>
     565: a0 00        	ldy	#$0
     567: 84 13        	sty	$13                     ; 0x2013 <main+0x1a9f>
     569: a0 00        	ldy	#$0
     56b: 84 14        	sty	$14                     ; 0x2014 <main+0x1aa0>
     56d: a0 03        	ldy	#$3
     56f: 84 15        	sty	$15                     ; 0x2015 <main+0x1aa1>
     571: 4c 15 46     	jmp	$4615 <memcpy>

00000574 <main>:
     574: 18           	clc
     575: a5 10        	lda	$10                     ; 0x2010 <main+0x1a9c>
     577: 69 4e        	adc	#$4e
     579: 85 10        	sta	$10                     ; 0x2010 <main+0x1a9c>
     57b: a5 11        	lda	$11                     ; 0x2011 <main+0x1a9d>
     57d: 69 df        	adc	#$df
     57f: 85 11        	sta	$11                     ; 0x2011 <main+0x1a9d>
     581: a6 24        	ldx	$24                     ; 0x2024 <main+0x1ab0>
     583: da           	phx
     584: a6 25        	ldx	$25                     ; 0x2025 <main+0x1ab1>
     586: da           	phx
     587: a6 26        	ldx	$26                     ; 0x2026 <main+0x1ab2>
     589: da           	phx
     58a: a6 27        	ldx	$27                     ; 0x2027 <main+0x1ab3>
     58c: da           	phx
     58d: a5 28        	lda	$28                     ; 0x2028 <main+0x1ab4>
     58f: a0 0f        	ldy	#$f
     591: 91 10        	sta	($10),y                 ; 0x2010 <main+0x1a9c>
     593: a5 29        	lda	$29                     ; 0x2029 <main+0x1ab5>
     595: 88           	dey
     596: 91 10        	sta	($10),y                 ; 0x2010 <main+0x1a9c>
     598: a5 2a        	lda	$2a                     ; 0x202a <main+0x1ab6>
     59a: 88           	dey
     59b: 91 10        	sta	($10),y                 ; 0x2010 <main+0x1a9c>
     59d: a5 2b        	lda	$2b                     ; 0x202b <main+0x1ab7>
     59f: 88           	dey
     5a0: 91 10        	sta	($10),y                 ; 0x2010 <main+0x1a9c>
     5a2: a5 2c        	lda	$2c                     ; 0x202c <main+0x1ab8>
     5a4: 88           	dey
     5a5: 91 10        	sta	($10),y                 ; 0x2010 <main+0x1a9c>
     5a7: a5 2d        	lda	$2d                     ; 0x202d <main+0x1ab9>
     5a9: 88           	dey
     5aa: 91 10        	sta	($10),y                 ; 0x2010 <main+0x1a9c>
     5ac: a5 2e        	lda	$2e                     ; 0x202e <main+0x1aba>
     5ae: 88           	dey
     5af: 91 10        	sta	($10),y                 ; 0x2010 <main+0x1a9c>
     5b1: a5 2f        	lda	$2f                     ; 0x202f <main+0x1abb>
     5b3: 88           	dey
     5b4: 91 10        	sta	($10),y                 ; 0x2010 <main+0x1a9c>
     5b6: 64 12        	stz	$12                     ; 0x2012 <main+0x1a9e>
     5b8: a9 00        	lda	#$0
     5ba: a0 32        	ldy	#$32
     5bc: 91 10        	sta	($10),y                 ; 0x2010 <main+0x1a9c>
     5be: aa           	tax
     5bf: 86 1a        	stx	$1a                     ; 0x201a <main+0x1aa6>
     5c1: a2 d0        	ldx	#$d0
     5c3: 86 1b        	stx	$1b                     ; 0x201b <main+0x1aa7>
     5c5: aa           	tax
     5c6: 86 16        	stx	$16                     ; 0x2016 <main+0x1aa2>
     5c8: a2 d8        	ldx	#$d8
     5ca: 86 17        	stx	$17                     ; 0x2017 <main+0x1aa3>
     5cc: a2 ed        	ldx	#$ed
     5ce: 86 2c        	stx	$2c                     ; 0x202c <main+0x1ab8>
     5d0: a2 75        	ldx	#$75
     5d2: 86 2d        	stx	$2d                     ; 0x202d <main+0x1ab9>
     5d4: aa           	tax
     5d5: 86 18        	stx	$18                     ; 0x2018 <main+0x1aa4>
     5d7: a2 d4        	ldx	#$d4
     5d9: 86 19        	stx	$19                     ; 0x2019 <main+0x1aa5>
     5db: aa           	tax
     5dc: 86 14        	stx	$14                     ; 0x2014 <main+0x1aa0>
     5de: a2 dc        	ldx	#$dc
     5e0: 86 15        	stx	$15                     ; 0x2015 <main+0x1aa1>
     5e2: aa           	tax
     5e3: 86 12        	stx	$12                     ; 0x2012 <main+0x1a9e>
     5e5: a2 c0        	ldx	#$c0
     5e7: 86 13        	stx	$13                     ; 0x2013 <main+0x1a9f>
     5e9: 64 01        	stz	$1                      ; 0x2001 <main+0x1a8d>
     5eb: a2 3f        	ldx	#$3f
     5ed: 8e 00 d0     	stx	$d000                   ; 0xd000 <__heap_start+0x4c96>
     5f0: a2 b3        	ldx	#$b3
     5f2: 86 00        	stx	$0                      ; 0x2000 <main+0x1a8c>
     5f4: 64 08        	stz	$8                      ; 0x2008 <main+0x1a94>
     5f6: a2 01        	ldx	#$1
     5f8: 86 09        	stx	$9                      ; 0x2009 <main+0x1a95>
     5fa: e8           	inx
     5fb: 86 0a        	stx	$a                      ; 0x200a <main+0x1a96>
     5fd: e8           	inx
     5fe: 86 0b        	stx	$b                      ; 0x200b <main+0x1a97>
     600: e8           	inx
     601: 86 0c        	stx	$c                      ; 0x200c <main+0x1a98>
     603: e8           	inx
     604: 86 0d        	stx	$d                      ; 0x200d <main+0x1a99>
     606: a2 3a        	ldx	#$3a
     608: a9 00        	lda	#$0
     60a: 86 f0        	stx	$f0                     ; 0x20f0 <main+0x1b7c>
     60c: 85 f1        	sta	$f1                     ; 0x20f1 <main+0x1b7d>
     60e: a9 00        	lda	#$0
     610: a6 01        	ldx	$1                      ; 0x2001 <main+0x1a8d>
     612: a0 01        	ldy	#$1
     614: 84 01        	sty	$1                      ; 0x2001 <main+0x1a8d>
     616: 92 1a        	sta	($1a)                   ; 0x201a <main+0x1aa6>
     618: 91 1a        	sta	($1a),y                 ; 0x201a <main+0x1aa6>
     61a: c8           	iny
     61b: 91 1a        	sta	($1a),y                 ; 0x201a <main+0x1aa6>
     61d: c8           	iny
     61e: 85 1c        	sta	$1c                     ; 0x201c <main+0x1aa8>
     620: a9 ff        	lda	#$ff
     622: 91 1a        	sta	($1a),y                 ; 0x201a <main+0x1aa6>
     624: 86 01        	stx	$1                      ; 0x2001 <main+0x1a8d>
     626: a5 1a        	lda	$1a                     ; 0x201a <main+0x1aa6>
     628: 18           	clc
     629: 69 04        	adc	#$4
     62b: 85 1a        	sta	$1a                     ; 0x201a <main+0x1aa6>
     62d: a5 1b        	lda	$1b                     ; 0x201b <main+0x1aa7>
     62f: 69 00        	adc	#$0
     631: e6 1c        	inc	$1c                     ; 0x201c <main+0x1aa8>
     633: 85 1b        	sta	$1b                     ; 0x201b <main+0x1aa7>
     635: a5 1c        	lda	$1c                     ; 0x201c <main+0x1aa8>
     637: d0 d7        	bne	$610 <main+0x9c>
     639: a9 00        	lda	#$0
     63b: a6 01        	ldx	$1                      ; 0x2001 <main+0x1a8d>
     63d: a0 01        	ldy	#$1
     63f: 84 01        	sty	$1                      ; 0x2001 <main+0x1a8d>
     641: 92 18        	sta	($18)                   ; 0x2018 <main+0x1aa4>
     643: 91 18        	sta	($18),y                 ; 0x2018 <main+0x1aa4>
     645: c8           	iny
     646: 91 18        	sta	($18),y                 ; 0x2018 <main+0x1aa4>
     648: c8           	iny
     649: 85 1a        	sta	$1a                     ; 0x201a <main+0x1aa6>
     64b: a9 ff        	lda	#$ff
     64d: 91 18        	sta	($18),y                 ; 0x2018 <main+0x1aa4>
     64f: 86 01        	stx	$1                      ; 0x2001 <main+0x1a8d>
     651: a5 18        	lda	$18                     ; 0x2018 <main+0x1aa4>
     653: 18           	clc
     654: 69 04        	adc	#$4
     656: 85 18        	sta	$18                     ; 0x2018 <main+0x1aa4>
     658: a5 19        	lda	$19                     ; 0x2019 <main+0x1aa5>
     65a: 69 00        	adc	#$0
     65c: e6 1a        	inc	$1a                     ; 0x201a <main+0x1aa6>
     65e: 85 19        	sta	$19                     ; 0x2019 <main+0x1aa5>
     660: a5 1a        	lda	$1a                     ; 0x201a <main+0x1aa6>
     662: d0 d7        	bne	$63b <main+0xc7>
     664: a9 00        	lda	#$0
     666: a6 01        	ldx	$1                      ; 0x2001 <main+0x1a8d>
     668: a0 01        	ldy	#$1
     66a: 84 01        	sty	$1                      ; 0x2001 <main+0x1a8d>
     66c: 92 16        	sta	($16)                   ; 0x2016 <main+0x1aa2>
     66e: 91 16        	sta	($16),y                 ; 0x2016 <main+0x1aa2>
     670: c8           	iny
     671: 91 16        	sta	($16),y                 ; 0x2016 <main+0x1aa2>
     673: c8           	iny
     674: 85 18        	sta	$18                     ; 0x2018 <main+0x1aa4>
     676: a9 ff        	lda	#$ff
     678: 91 16        	sta	($16),y                 ; 0x2016 <main+0x1aa2>
     67a: 86 01        	stx	$1                      ; 0x2001 <main+0x1a8d>
     67c: a5 16        	lda	$16                     ; 0x2016 <main+0x1aa2>
     67e: 18           	clc
     67f: 69 04        	adc	#$4
     681: 85 16        	sta	$16                     ; 0x2016 <main+0x1aa2>
     683: a5 17        	lda	$17                     ; 0x2017 <main+0x1aa3>
     685: 69 00        	adc	#$0
     687: e6 18        	inc	$18                     ; 0x2018 <main+0x1aa4>
     689: 85 17        	sta	$17                     ; 0x2017 <main+0x1aa3>
     68b: a5 18        	lda	$18                     ; 0x2018 <main+0x1aa4>
     68d: d0 d7        	bne	$666 <main+0xf2>
     68f: a9 00        	lda	#$0
     691: a6 01        	ldx	$1                      ; 0x2001 <main+0x1a8d>
     693: a0 01        	ldy	#$1
     695: 84 01        	sty	$1                      ; 0x2001 <main+0x1a8d>
     697: 92 14        	sta	($14)                   ; 0x2014 <main+0x1aa0>
     699: 91 14        	sta	($14),y                 ; 0x2014 <main+0x1aa0>
     69b: c8           	iny
     69c: 91 14        	sta	($14),y                 ; 0x2014 <main+0x1aa0>
     69e: c8           	iny
     69f: 85 16        	sta	$16                     ; 0x2016 <main+0x1aa2>
     6a1: a9 ff        	lda	#$ff
     6a3: 91 14        	sta	($14),y                 ; 0x2014 <main+0x1aa0>
     6a5: 86 01        	stx	$1                      ; 0x2001 <main+0x1a8d>
     6a7: a5 14        	lda	$14                     ; 0x2014 <main+0x1aa0>
     6a9: 18           	clc
     6aa: 69 04        	adc	#$4
     6ac: 85 14        	sta	$14                     ; 0x2014 <main+0x1aa0>
     6ae: a5 15        	lda	$15                     ; 0x2015 <main+0x1aa1>
     6b0: 69 00        	adc	#$0
     6b2: e6 16        	inc	$16                     ; 0x2016 <main+0x1aa2>
     6b4: 85 15        	sta	$15                     ; 0x2015 <main+0x1aa1>
     6b6: a5 16        	lda	$16                     ; 0x2016 <main+0x1aa2>
     6b8: d0 d7        	bne	$691 <main+0x11d>
     6ba: ad 02 d0     	lda	$d002                   ; 0xd002 <__heap_start+0x4c98>
     6bd: 29 f0        	and	#$f0
     6bf: 8d 02 d0     	sta	$d002                   ; 0xd002 <__heap_start+0x4c98>
     6c2: ad 02 d0     	lda	$d002                   ; 0xd002 <__heap_start+0x4c98>
     6c5: 29 0f        	and	#$f
     6c7: 09 10        	ora	#$10
     6c9: 8d 02 d0     	sta	$d002                   ; 0xd002 <__heap_start+0x4c98>
     6cc: a2 02        	ldx	#$2
     6ce: 8e 03 d0     	stx	$d003                   ; 0xd003 <__heap_start+0x4c99>
     6d1: 64 32        	stz	$32                     ; 0x2032 <main+0x1abe>
     6d3: ad 01 d0     	lda	$d001                   ; 0xd001 <__heap_start+0x4c97>
     6d6: 29 f9        	and	#$f9
     6d8: 09 04        	ora	#$4
     6da: 8d 01 d0     	sta	$d001                   ; 0xd001 <__heap_start+0x4c97>
     6dd: 64 14        	stz	$14                     ; 0x2014 <main+0x1aa0>
     6df: 9c 10 d0     	stz	$d010                   ; 0xd010 <__heap_start+0x4ca6>
     6e2: a2 00        	ldx	#$0
     6e4: 64 15        	stz	$15                     ; 0x2015 <main+0x1aa1>
     6e6: 86 18        	stx	$18                     ; 0x2018 <main+0x1aa4>
     6e8: a4 18        	ldy	$18                     ; 0x2018 <main+0x1aa4>
     6ea: be b2 46     	ldx	$46b2,y                 ; 0x46b2 <textColors>
     6ed: 86 19        	stx	$19                     ; 0x2019 <main+0x1aa5>
     6ef: be b3 46     	ldx	$46b3,y                 ; 0x46b3 <textColors+0x1>
     6f2: 86 1a        	stx	$1a                     ; 0x201a <main+0x1aa6>
     6f4: be b4 46     	ldx	$46b4,y                 ; 0x46b4 <textColors+0x2>
     6f7: 86 1b        	stx	$1b                     ; 0x201b <main+0x1aa7>
     6f9: a6 15        	ldx	$15                     ; 0x2015 <main+0x1aa1>
     6fb: 8e 00 de     	stx	$de00                   ; 0xde00 <__heap_start+0x5a96>
     6fe: 86 17        	stx	$17                     ; 0x2017 <main+0x1aa3>
     700: 9c 01 de     	stz	$de01                   ; 0xde01 <__heap_start+0x5a97>
     703: a2 04        	ldx	#$4
     705: 8e 02 de     	stx	$de02                   ; 0xde02 <__heap_start+0x5a98>
     708: 9c 03 de     	stz	$de03                   ; 0xde03 <__heap_start+0x5a99>
     70b: ad 10 de     	lda	$de10                   ; 0xde10 <__heap_start+0x5aa6>
     70e: ac 11 de     	ldy	$de11                   ; 0xde11 <__heap_start+0x5aa7>
     711: 84 15        	sty	$15                     ; 0x2015 <main+0x1aa1>
     713: ac 12 de     	ldy	$de12                   ; 0xde12 <__heap_start+0x5aa8>
     716: ac 13 de     	ldy	$de13                   ; 0xde13 <__heap_start+0x5aa9>
     719: 18           	clc
     71a: 65 14        	adc	$14                     ; 0x2014 <main+0x1aa0>
     71c: 85 16        	sta	$16                     ; 0x2016 <main+0x1aa2>
     71e: a6 17        	ldx	$17                     ; 0x2017 <main+0x1aa3>
     720: a9 d8        	lda	#$d8
     722: 65 15        	adc	$15                     ; 0x2015 <main+0x1aa1>
     724: 85 17        	sta	$17                     ; 0x2017 <main+0x1aa3>
     726: a5 1b        	lda	$1b                     ; 0x201b <main+0x1aa7>
     728: 92 16        	sta	($16)                   ; 0x2016 <main+0x1aa2>
     72a: a0 01        	ldy	#$1
     72c: a5 1a        	lda	$1a                     ; 0x201a <main+0x1aa6>
     72e: 91 16        	sta	($16),y                 ; 0x2016 <main+0x1aa2>
     730: c8           	iny
     731: a5 19        	lda	$19                     ; 0x2019 <main+0x1aa5>
     733: 91 16        	sta	($16),y                 ; 0x2016 <main+0x1aa2>
     735: c8           	iny
     736: a9 ff        	lda	#$ff
     738: 91 16        	sta	($16),y                 ; 0x2016 <main+0x1aa2>
     73a: 8e 00 de     	stx	$de00                   ; 0xde00 <__heap_start+0x5a96>
     73d: 9c 01 de     	stz	$de01                   ; 0xde01 <__heap_start+0x5a97>
     740: c8           	iny
     741: 8c 02 de     	sty	$de02                   ; 0xde02 <__heap_start+0x5a98>
     744: 9c 03 de     	stz	$de03                   ; 0xde03 <__heap_start+0x5a99>
     747: ad 10 de     	lda	$de10                   ; 0xde10 <__heap_start+0x5aa6>
     74a: 85 15        	sta	$15                     ; 0x2015 <main+0x1aa1>
     74c: ad 11 de     	lda	$de11                   ; 0xde11 <__heap_start+0x5aa7>
     74f: 85 16        	sta	$16                     ; 0x2016 <main+0x1aa2>
     751: a9 40        	lda	#$40
     753: 18           	clc
     754: 65 15        	adc	$15                     ; 0x2015 <main+0x1aa1>
     756: a8           	tay
     757: a9 d8        	lda	#$d8
     759: 65 16        	adc	$16                     ; 0x2016 <main+0x1aa2>
     75b: 85 17        	sta	$17                     ; 0x2017 <main+0x1aa3>
     75d: 84 16        	sty	$16                     ; 0x2016 <main+0x1aa2>
     75f: ad 12 de     	lda	$de12                   ; 0xde12 <__heap_start+0x5aa8>
     762: ad 13 de     	lda	$de13                   ; 0xde13 <__heap_start+0x5aa9>
     765: a5 1b        	lda	$1b                     ; 0x201b <main+0x1aa7>
     767: 92 16        	sta	($16)                   ; 0x2016 <main+0x1aa2>
     769: a5 1a        	lda	$1a                     ; 0x201a <main+0x1aa6>
     76b: a0 01        	ldy	#$1
     76d: 91 16        	sta	($16),y                 ; 0x2016 <main+0x1aa2>
     76f: a5 19        	lda	$19                     ; 0x2019 <main+0x1aa5>
     771: c8           	iny
     772: 91 16        	sta	($16),y                 ; 0x2016 <main+0x1aa2>
     774: c8           	iny
     775: a9 ff        	lda	#$ff
     777: 91 16        	sta	($16),y                 ; 0x2016 <main+0x1aa2>
     779: e8           	inx
     77a: 86 15        	stx	$15                     ; 0x2015 <main+0x1aa1>
     77c: 18           	clc
     77d: a5 18        	lda	$18                     ; 0x2018 <main+0x1aa4>
     77f: 69 03        	adc	#$3
     781: aa           	tax
     782: c9 30        	cmp	#$30
     784: f0 03        	beq	$789 <main+0x215>
     786: 4c e6 06     	jmp	$6e6 <main+0x172>
     789: a6 01        	ldx	$1                      ; 0x2001 <main+0x1a8d>
     78b: 86 18        	stx	$18                     ; 0x2018 <main+0x1aa4>
     78d: a2 50        	ldx	#$50
     78f: 8e 00 de     	stx	$de00                   ; 0xde00 <__heap_start+0x5a96>
     792: 9c 01 de     	stz	$de01                   ; 0xde01 <__heap_start+0x5a97>
     795: a2 1e        	ldx	#$1e
     797: 8e 02 de     	stx	$de02                   ; 0xde02 <__heap_start+0x5a98>
     79a: 9c 03 de     	stz	$de03                   ; 0xde03 <__heap_start+0x5a99>
     79d: ae 10 de     	ldx	$de10                   ; 0xde10 <__heap_start+0x5aa6>
     7a0: ac 11 de     	ldy	$de11                   ; 0xde11 <__heap_start+0x5aa7>
     7a3: ad 12 de     	lda	$de12                   ; 0xde12 <__heap_start+0x5aa8>
     7a6: ad 13 de     	lda	$de13                   ; 0xde13 <__heap_start+0x5aa9>
     7a9: a9 02        	lda	#$2
     7ab: 85 01        	sta	$1                      ; 0x2001 <main+0x1a8d>
     7ad: e0 01        	cpx	#$1
     7af: 98           	tya
     7b0: e9 00        	sbc	#$0
     7b2: 50 02        	bvc	$7b6 <main+0x242>
     7b4: 49 80        	eor	#$80
     7b6: c9 00        	cmp	#$0
     7b8: 10 03        	bpl	$7bd <main+0x249>
     7ba: 4c 1e 08     	jmp	$81e <main+0x2aa>
     7bd: a9 20        	lda	#$20
     7bf: 86 19        	stx	$19                     ; 0x2019 <main+0x1aa5>
     7c1: 86 14        	stx	$14                     ; 0x2014 <main+0x1aa0>
     7c3: 84 15        	sty	$15                     ; 0x2015 <main+0x1aa1>
     7c5: a2 00        	ldx	#$0
     7c7: 86 16        	stx	$16                     ; 0x2016 <main+0x1aa2>
     7c9: a2 c0        	ldx	#$c0
     7cb: 86 17        	stx	$17                     ; 0x2017 <main+0x1aa3>
     7cd: 80 04        	bra	$7d3 <main+0x25f>
     7cf: a6 15        	ldx	$15                     ; 0x2015 <main+0x1aa1>
     7d1: f0 14        	beq	$7e7 <main+0x273>
     7d3: 92 16        	sta	($16)                   ; 0x2016 <main+0x1aa2>
     7d5: e6 16        	inc	$16                     ; 0x2016 <main+0x1aa2>
     7d7: d0 02        	bne	$7db <main+0x267>
     7d9: e6 17        	inc	$17                     ; 0x2017 <main+0x1aa3>
     7db: a2 ff        	ldx	#$ff
     7dd: c6 14        	dec	$14                     ; 0x2014 <main+0x1aa0>
     7df: e4 14        	cpx	$14                     ; 0x2014 <main+0x1aa0>
     7e1: d0 ec        	bne	$7cf <main+0x25b>
     7e3: c6 15        	dec	$15                     ; 0x2015 <main+0x1aa1>
     7e5: 80 e8        	bra	$7cf <main+0x25b>
     7e7: a6 14        	ldx	$14                     ; 0x2014 <main+0x1aa0>
     7e9: d0 e8        	bne	$7d3 <main+0x25f>
     7eb: a2 03        	ldx	#$3
     7ed: 86 01        	stx	$1                      ; 0x2001 <main+0x1a8d>
     7ef: a5 32        	lda	$32                     ; 0x2032 <main+0x1abe>
     7f1: 29 01        	and	#$1
     7f3: aa           	tax
     7f4: a9 50        	lda	#$50
     7f6: e0 00        	cpx	#$0
     7f8: d0 02        	bne	$7fc <main+0x288>
     7fa: a9 f0        	lda	#$f0
     7fc: a6 19        	ldx	$19                     ; 0x2019 <main+0x1aa5>
     7fe: 80 06        	bra	$806 <main+0x292>
     800: a5 14        	lda	$14                     ; 0x2014 <main+0x1aa0>
     802: c0 00        	cpy	#$0
     804: f0 12        	beq	$818 <main+0x2a4>
     806: 92 12        	sta	($12)                   ; 0x2012 <main+0x1a9e>
     808: e6 12        	inc	$12                     ; 0x2012 <main+0x1a9e>
     80a: d0 02        	bne	$80e <main+0x29a>
     80c: e6 13        	inc	$13                     ; 0x2013 <main+0x1a9f>
     80e: 85 14        	sta	$14                     ; 0x2014 <main+0x1aa0>
     810: ca           	dex
     811: e0 ff        	cpx	#$ff
     813: d0 eb        	bne	$800 <main+0x28c>
     815: 88           	dey
     816: 80 e8        	bra	$800 <main+0x28c>
     818: e0 00        	cpx	#$0
     81a: d0 ea        	bne	$806 <main+0x292>
     81c: 80 04        	bra	$822 <main+0x2ae>
     81e: a2 03        	ldx	#$3
     820: 86 01        	stx	$1                      ; 0x2001 <main+0x1a8d>
     822: a6 18        	ldx	$18                     ; 0x2018 <main+0x1aa4>
     824: 86 01        	stx	$1                      ; 0x2001 <main+0x1a8d>
     826: 64 33        	stz	$33                     ; 0x2033 <main+0x1abf>
     828: 9c 14 d0     	stz	$d014                   ; 0xd014 <__heap_start+0x4caa>
     82b: 9c 15 d0     	stz	$d015                   ; 0xd015 <__heap_start+0x4cab>
     82e: 64 34        	stz	$34                     ; 0x2034 <main+0x1ac0>
     830: 9c 16 d0     	stz	$d016                   ; 0xd016 <__heap_start+0x4cac>
     833: 9c 17 d0     	stz	$d017                   ; 0xd017 <__heap_start+0x4cad>
     836: a2 40        	ldx	#$40
     838: 8e 00 de     	stx	$de00                   ; 0xde00 <__heap_start+0x5a96>
     83b: a2 01        	ldx	#$1
     83d: 8e 01 de     	stx	$de01                   ; 0xde01 <__heap_start+0x5a97>
     840: a2 f0        	ldx	#$f0
     842: 8e 02 de     	stx	$de02                   ; 0xde02 <__heap_start+0x5a98>
     845: 9c 03 de     	stz	$de03                   ; 0xde03 <__heap_start+0x5a99>
     848: ae 10 de     	ldx	$de10                   ; 0xde10 <__heap_start+0x5aa6>
     84b: 86 17        	stx	$17                     ; 0x2017 <main+0x1aa3>
     84d: ae 11 de     	ldx	$de11                   ; 0xde11 <__heap_start+0x5aa7>
     850: 86 12        	stx	$12                     ; 0x2012 <main+0x1a9e>
     852: ae 12 de     	ldx	$de12                   ; 0xde12 <__heap_start+0x5aa8>
     855: 86 13        	stx	$13                     ; 0x2013 <main+0x1a9f>
     857: ae 13 de     	ldx	$de13                   ; 0xde13 <__heap_start+0x5aa9>
     85a: 86 14        	stx	$14                     ; 0x2014 <main+0x1aa0>
     85c: a4 12        	ldy	$12                     ; 0x2012 <main+0x1a9e>
     85e: 84 15        	sty	$15                     ; 0x2015 <main+0x1aa1>
     860: 06 15        	asl	$15                     ; 0x2015 <main+0x1aa1>
     862: a5 13        	lda	$13                     ; 0x2013 <main+0x1a9f>
     864: 2a           	rol
     865: 86 16        	stx	$16                     ; 0x2016 <main+0x1aa2>
     867: 26 16        	rol	$16                     ; 0x2016 <main+0x1aa2>
     869: 06 15        	asl	$15                     ; 0x2015 <main+0x1aa1>
     86b: 2a           	rol
     86c: 26 16        	rol	$16                     ; 0x2016 <main+0x1aa2>
     86e: 06 15        	asl	$15                     ; 0x2015 <main+0x1aa1>
     870: 2a           	rol
     871: 26 16        	rol	$16                     ; 0x2016 <main+0x1aa2>
     873: 85 15        	sta	$15                     ; 0x2015 <main+0x1aa1>
     875: 8d 00 de     	sta	$de00                   ; 0xde00 <__heap_start+0x5a96>
     878: a5 16        	lda	$16                     ; 0x2016 <main+0x1aa2>
     87a: 8d 01 de     	sta	$de01                   ; 0xde01 <__heap_start+0x5a97>
     87d: 9c 02 de     	stz	$de02                   ; 0xde02 <__heap_start+0x5a98>
     880: a2 20        	ldx	#$20
     882: 8e 03 de     	stx	$de03                   ; 0xde03 <__heap_start+0x5a99>
     885: ae 10 de     	ldx	$de10                   ; 0xde10 <__heap_start+0x5aa6>
     888: 86 16        	stx	$16                     ; 0x2016 <main+0x1aa2>
     88a: ae 11 de     	ldx	$de11                   ; 0xde11 <__heap_start+0x5aa7>
     88d: 86 18        	stx	$18                     ; 0x2018 <main+0x1aa4>
     88f: ac 12 de     	ldy	$de12                   ; 0xde12 <__heap_start+0x5aa8>
     892: ae 13 de     	ldx	$de13                   ; 0xde13 <__heap_start+0x5aa9>
     895: e4 14        	cpx	$14                     ; 0x2014 <main+0x1aa0>
     897: d0 14        	bne	$8ad <main+0x339>
     899: c4 13        	cpy	$13                     ; 0x2013 <main+0x1a9f>
     89b: d0 10        	bne	$8ad <main+0x339>
     89d: a6 18        	ldx	$18                     ; 0x2018 <main+0x1aa4>
     89f: e4 12        	cpx	$12                     ; 0x2012 <main+0x1a9e>
     8a1: d0 0a        	bne	$8ad <main+0x339>
     8a3: a6 16        	ldx	$16                     ; 0x2016 <main+0x1aa2>
     8a5: e4 17        	cpx	$17                     ; 0x2017 <main+0x1aa3>
     8a7: d0 04        	bne	$8ad <main+0x339>
     8a9: a6 15        	ldx	$15                     ; 0x2015 <main+0x1aa1>
     8ab: 80 06        	bra	$8b3 <main+0x33f>
     8ad: a6 15        	ldx	$15                     ; 0x2015 <main+0x1aa1>
     8af: e8           	inx
     8b0: d0 01        	bne	$8b3 <main+0x33f>
     8b2: 1a           	inc
     8b3: 8e 00 de     	stx	$de00                   ; 0xde00 <__heap_start+0x5a96>
     8b6: 8d 01 de     	sta	$de01                   ; 0xde01 <__heap_start+0x5a97>
     8b9: 9c 02 de     	stz	$de02                   ; 0xde02 <__heap_start+0x5a98>
     8bc: a2 20        	ldx	#$20
     8be: 8e 03 de     	stx	$de03                   ; 0xde03 <__heap_start+0x5a99>
     8c1: ae 10 de     	ldx	$de10                   ; 0xde10 <__heap_start+0x5aa6>
     8c4: 86 12        	stx	$12                     ; 0x2012 <main+0x1a9e>
     8c6: ae 11 de     	ldx	$de11                   ; 0xde11 <__heap_start+0x5aa7>
     8c9: 86 13        	stx	$13                     ; 0x2013 <main+0x1a9f>
     8cb: ae 12 de     	ldx	$de12                   ; 0xde12 <__heap_start+0x5aa8>
     8ce: 86 14        	stx	$14                     ; 0x2014 <main+0x1aa0>
     8d0: ae 13 de     	ldx	$de13                   ; 0xde13 <__heap_start+0x5aa9>
     8d3: 86 15        	stx	$15                     ; 0x2015 <main+0x1aa1>
     8d5: a9 00        	lda	#$0
     8d7: 38           	sec
     8d8: e5 12        	sbc	$12                     ; 0x2012 <main+0x1a9e>
     8da: 85 16        	sta	$16                     ; 0x2016 <main+0x1aa2>
     8dc: a9 00        	lda	#$0
     8de: e5 13        	sbc	$13                     ; 0x2013 <main+0x1a9f>
     8e0: 85 17        	sta	$17                     ; 0x2017 <main+0x1aa3>
     8e2: a9 08        	lda	#$8
     8e4: e5 14        	sbc	$14                     ; 0x2014 <main+0x1aa0>
     8e6: aa           	tax
     8e7: a9 00        	lda	#$0
     8e9: e5 15        	sbc	$15                     ; 0x2015 <main+0x1aa1>
     8eb: a8           	tay
     8ec: a5 17        	lda	$17                     ; 0x2017 <main+0x1aa3>
     8ee: 8d de 74     	sta	$74de                   ; 0x74de <__bss_start+0x1>
     8f1: 8e df 74     	stx	$74df                   ; 0x74df <__bss_start+0x2>
     8f4: 8c e0 74     	sty	$74e0                   ; 0x74e0 <__bss_start+0x3>
     8f7: a5 16        	lda	$16                     ; 0x2016 <main+0x1aa2>
     8f9: 38           	sec
     8fa: e5 12        	sbc	$12                     ; 0x2012 <main+0x1a9e>
     8fc: a8           	tay
     8fd: a5 17        	lda	$17                     ; 0x2017 <main+0x1aa3>
     8ff: e5 13        	sbc	$13                     ; 0x2013 <main+0x1a9f>
     901: 85 15        	sta	$15                     ; 0x2015 <main+0x1aa1>
     903: 8a           	txa
     904: e5 14        	sbc	$14                     ; 0x2014 <main+0x1aa0>
     906: aa           	tax
     907: 98           	tya
     908: 38           	sec
     909: e5 12        	sbc	$12                     ; 0x2012 <main+0x1a9e>
     90b: 85 12        	sta	$12                     ; 0x2012 <main+0x1a9e>
     90d: a5 15        	lda	$15                     ; 0x2015 <main+0x1aa1>
     90f: e5 13        	sbc	$13                     ; 0x2013 <main+0x1a9f>
     911: 85 13        	sta	$13                     ; 0x2013 <main+0x1a9f>
     913: 8a           	txa
     914: 86 17        	stx	$17                     ; 0x2017 <main+0x1aa3>
     916: e5 14        	sbc	$14                     ; 0x2014 <main+0x1aa0>
     918: a6 16        	ldx	$16                     ; 0x2016 <main+0x1aa2>
     91a: 8e dd 74     	stx	$74dd                   ; 0x74dd <__bss_start>
     91d: 8e 01 d1     	stx	$d101                   ; 0xd101 <__heap_start+0x4d97>
     920: ae de 74     	ldx	$74de                   ; 0x74de <__bss_start+0x1>
     923: 8e 02 d1     	stx	$d102                   ; 0xd102 <__heap_start+0x4d98>
     926: ae df 74     	ldx	$74df                   ; 0x74df <__bss_start+0x2>
     929: 8e 03 d1     	stx	$d103                   ; 0xd103 <__heap_start+0x4d99>
     92c: 8c 09 d1     	sty	$d109                   ; 0xd109 <__heap_start+0x4d9f>
     92f: a6 15        	ldx	$15                     ; 0x2015 <main+0x1aa1>
     931: 8e 0a d1     	stx	$d10a                   ; 0xd10a <__heap_start+0x4da0>
     934: a6 17        	ldx	$17                     ; 0x2017 <main+0x1aa3>
     936: 8e 0b d1     	stx	$d10b                   ; 0xd10b <__heap_start+0x4da1>
     939: a6 12        	ldx	$12                     ; 0x2012 <main+0x1a9e>
     93b: 8e 11 d1     	stx	$d111                   ; 0xd111 <__heap_start+0x4da7>
     93e: a6 13        	ldx	$13                     ; 0x2013 <main+0x1a9f>
     940: 8e 12 d1     	stx	$d112                   ; 0xd112 <__heap_start+0x4da8>
     943: 8d 13 d1     	sta	$d113                   ; 0xd113 <__heap_start+0x4da9>
     946: 9c 00 d1     	stz	$d100                   ; 0xd100 <__heap_start+0x4d96>
     949: 9c 08 d1     	stz	$d108                   ; 0xd108 <__heap_start+0x4d9e>
     94c: 9c 10 d1     	stz	$d110                   ; 0xd110 <__heap_start+0x4da6>
     94f: a2 10        	ldx	#$10
     951: 8e 00 d2     	stx	$d200                   ; 0xd200 <__heap_start+0x4e96>
     954: 8e 0c d2     	stx	$d20c                   ; 0xd20c <__heap_start+0x4ea2>
     957: 8e 18 d2     	stx	$d218                   ; 0xd218 <__heap_start+0x4eae>
     95a: a0 d9        	ldy	#$d9
     95c: a2 40        	ldx	#$40
     95e: 64 12        	stz	$12                     ; 0x2012 <main+0x1a9e>
     960: 84 13        	sty	$13                     ; 0x2013 <main+0x1a9f>
     962: a9 00        	lda	#$0
     964: 92 12        	sta	($12)                   ; 0x2012 <main+0x1a9e>
     966: ca           	dex
     967: 18           	clc
     968: a5 12        	lda	$12                     ; 0x2012 <main+0x1a9e>
     96a: 69 08        	adc	#$8
     96c: 85 12        	sta	$12                     ; 0x2012 <main+0x1a9e>
     96e: 98           	tya
     96f: 69 00        	adc	#$0
     971: a8           	tay
     972: 8a           	txa
     973: d0 eb        	bne	$960 <main+0x3ec>
     975: 9c e1 74     	stz	$74e1                   ; 0x74e1 <_dirStream>
     978: 9c e2 74     	stz	$74e2                   ; 0x74e2 <_dirStream+0x1>
     97b: 9c e3 74     	stz	$74e3                   ; 0x74e3 <_dirStream+0x2>
     97e: 9c e4 74     	stz	$74e4                   ; 0x74e4 <_dirStream+0x3>
     981: 9c e5 74     	stz	$74e5                   ; 0x74e5 <_dirStream+0x4>
     984: 9c e6 74     	stz	$74e6                   ; 0x74e6 <_dirStream+0x5>
     987: 9c e7 74     	stz	$74e7                   ; 0x74e7 <_dirStream+0x6>
     98a: 9c e8 74     	stz	$74e8                   ; 0x74e8 <_dirStream+0x7>
     98d: 18           	clc
     98e: a5 10        	lda	$10                     ; 0x2010 <main+0x1a9c>
     990: 69 75        	adc	#$75
     992: 85 2a        	sta	$2a                     ; 0x202a <main+0x1ab6>
     994: a5 11        	lda	$11                     ; 0x2011 <main+0x1a9d>
     996: 69 00        	adc	#$0
     998: 85 2b        	sta	$2b                     ; 0x202b <main+0x1ab7>
     99a: a6 2a        	ldx	$2a                     ; 0x202a <main+0x1ab6>
     99c: 86 fb        	stx	$fb                     ; 0x20fb <main+0x1b87>
     99e: 85 fc        	sta	$fc                     ; 0x20fc <main+0x1b88>
     9a0: a2 08        	ldx	#$8
     9a2: 86 fd        	stx	$fd                     ; 0x20fd <main+0x1b89>
     9a4: 18           	clc
     9a5: a5 10        	lda	$10                     ; 0x2010 <main+0x1a9c>
     9a7: 69 35        	adc	#$35
     9a9: 85 24        	sta	$24                     ; 0x2024 <main+0x1ab0>
     9ab: a5 11        	lda	$11                     ; 0x2011 <main+0x1a9d>
     9ad: 69 00        	adc	#$0
     9af: 85 25        	sta	$25                     ; 0x2025 <main+0x1ab1>
     9b1: a2 39        	ldx	#$39
     9b3: 86 12        	stx	$12                     ; 0x2012 <main+0x1a9e>
     9b5: a2 00        	ldx	#$0
     9b7: 86 13        	stx	$13                     ; 0x2013 <main+0x1a9f>
     9b9: a0 06        	ldy	#$6
     9bb: 20 dc ff     	jsr	$ffdc <__heap_start+0x7c72>
     9be: 92 24        	sta	($24)                   ; 0x2024 <main+0x1ab0>
     9c0: a9 00        	lda	#$0
     9c2: 6a           	ror
     9c3: 85 12        	sta	$12                     ; 0x2012 <main+0x1a9e>
     9c5: b1 2a        	lda	($2a),y                 ; 0x202a <main+0x1ab6>
     9c7: 85 12        	sta	$12                     ; 0x2012 <main+0x1a9e>
     9c9: c8           	iny
     9ca: b1 2a        	lda	($2a),y                 ; 0x202a <main+0x1ab6>
     9cc: a6 12        	ldx	$12                     ; 0x2012 <main+0x1a9e>
     9ce: 8e 00 de     	stx	$de00                   ; 0xde00 <__heap_start+0x5a96>
     9d1: 9c 01 de     	stz	$de01                   ; 0xde01 <__heap_start+0x5a97>
     9d4: 8d 02 de     	sta	$de02                   ; 0xde02 <__heap_start+0x5a98>
     9d7: 9c 03 de     	stz	$de03                   ; 0xde03 <__heap_start+0x5a99>
     9da: ae 10 de     	ldx	$de10                   ; 0xde10 <__heap_start+0x5aa6>
     9dd: ac 11 de     	ldy	$de11                   ; 0xde11 <__heap_start+0x5aa7>
     9e0: ad 12 de     	lda	$de12                   ; 0xde12 <__heap_start+0x5aa8>
     9e3: ad 13 de     	lda	$de13                   ; 0xde13 <__heap_start+0x5aa9>
     9e6: 8e a4 d6     	stx	$d6a4                   ; 0xd6a4 <__heap_start+0x533a>
     9e9: 8c a5 d6     	sty	$d6a5                   ; 0xd6a5 <__heap_start+0x533b>
     9ec: a2 03        	ldx	#$3
     9ee: 8e a6 d6     	stx	$d6a6                   ; 0xd6a6 <__heap_start+0x533c>
     9f1: 18           	clc
     9f2: a5 10        	lda	$10                     ; 0x2010 <main+0x1a9c>
     9f4: 69 93        	adc	#$93
     9f6: 85 12        	sta	$12                     ; 0x2012 <main+0x1a9e>
     9f8: a5 11        	lda	$11                     ; 0x2011 <main+0x1a9d>
     9fa: 69 20        	adc	#$20
     9fc: 85 13        	sta	$13                     ; 0x2013 <main+0x1a9f>
     9fe: 64 14        	stz	$14                     ; 0x2014 <main+0x1aa0>
     a00: a2 1e        	ldx	#$1e
     a02: a9 00        	lda	#$0
     a04: 20 41 46     	jsr	$4641 <__memset>
     a07: 18           	clc
     a08: a5 10        	lda	$10                     ; 0x2010 <main+0x1a9c>
     a0a: 69 75        	adc	#$75
     a0c: 85 12        	sta	$12                     ; 0x2012 <main+0x1a9e>
     a0e: a5 11        	lda	$11                     ; 0x2011 <main+0x1a9d>
     a10: 69 20        	adc	#$20
     a12: 85 13        	sta	$13                     ; 0x2013 <main+0x1a9f>
     a14: 64 14        	stz	$14                     ; 0x2014 <main+0x1aa0>
     a16: a2 1e        	ldx	#$1e
     a18: a9 00        	lda	#$0
     a1a: 20 41 46     	jsr	$4641 <__memset>
     a1d: a6 24        	ldx	$24                     ; 0x2024 <main+0x1ab0>
     a1f: 86 12        	stx	$12                     ; 0x2012 <main+0x1a9e>
     a21: a6 25        	ldx	$25                     ; 0x2025 <main+0x1ab1>
     a23: 86 13        	stx	$13                     ; 0x2013 <main+0x1a9f>
     a25: a2 40        	ldx	#$40
     a27: 64 14        	stz	$14                     ; 0x2014 <main+0x1aa0>
     a29: a9 00        	lda	#$0
     a2b: 20 41 46     	jsr	$4641 <__memset>
     a2e: 64 14        	stz	$14                     ; 0x2014 <main+0x1aa0>
     a30: 64 01        	stz	$1                      ; 0x2001 <main+0x1a8d>
     a32: a2 2f        	ldx	#$2f
     a34: 8e 00 d0     	stx	$d000                   ; 0xd000 <__heap_start+0x4c96>
     a37: a2 04        	ldx	#$4
     a39: 8e 01 d0     	stx	$d001                   ; 0xd001 <__heap_start+0x4c97>
     a3c: a2 01        	ldx	#$1
     a3e: 8e 02 d0     	stx	$d002                   ; 0xd002 <__heap_start+0x4c98>
     a41: a0 02        	ldy	#$2
     a43: 8c 03 d0     	sty	$d003                   ; 0xd003 <__heap_start+0x4c99>
     a46: 9c 0d d0     	stz	$d00d                   ; 0xd00d <__heap_start+0x4ca3>
     a49: 9c 0e d0     	stz	$d00e                   ; 0xd00e <__heap_start+0x4ca4>
     a4c: 9c 0f d0     	stz	$d00f                   ; 0xd00f <__heap_start+0x4ca5>
     a4f: 86 01        	stx	$1                      ; 0x2001 <main+0x1a8d>
     a51: a2 f0        	ldx	#$f0
     a53: a5 14        	lda	$14                     ; 0x2014 <main+0x1aa0>
     a55: 85 12        	sta	$12                     ; 0x2012 <main+0x1a9e>
     a57: 86 13        	stx	$13                     ; 0x2013 <main+0x1a9f>
     a59: a4 0f        	ldy	$f                      ; 0x200f <main+0x1a9b>
     a5b: 78           	sei
     a5c: a9 29        	lda	#$29
     a5e: 85 0f        	sta	$f                      ; 0x200f <main+0x1a9b>
     a60: b2 12        	lda	($12)                   ; 0x2012 <main+0x1a9e>
     a62: 85 15        	sta	$15                     ; 0x2015 <main+0x1aa1>
     a64: 84 0f        	sty	$f                      ; 0x200f <main+0x1a9b>
     a66: a5 14        	lda	$14                     ; 0x2014 <main+0x1aa0>
     a68: 18           	clc
     a69: 69 00        	adc	#$0
     a6b: 85 12        	sta	$12                     ; 0x2012 <main+0x1a9e>
     a6d: 8a           	txa
     a6e: 69 e0        	adc	#$e0
     a70: 58           	cli
     a71: 85 13        	sta	$13                     ; 0x2013 <main+0x1a9f>
     a73: a5 15        	lda	$15                     ; 0x2015 <main+0x1aa1>
     a75: 92 12        	sta	($12)                   ; 0x2012 <main+0x1a9e>
     a77: e6 14        	inc	$14                     ; 0x2014 <main+0x1aa0>
     a79: d0 01        	bne	$a7c <main+0x508>
     a7b: e8           	inx
     a7c: e0 f3        	cpx	#$f3
     a7e: d0 d3        	bne	$a53 <main+0x4df>
     a80: a4 14        	ldy	$14                     ; 0x2014 <main+0x1aa0>
     a82: c0 ff        	cpy	#$ff
     a84: d0 cd        	bne	$a53 <main+0x4df>
     a86: 64 01        	stz	$1                      ; 0x2001 <main+0x1a8d>
     a88: 9c dd 74     	stz	$74dd                   ; 0x74dd <__bss_start>
     a8b: a2 34        	ldx	#$34
     a8d: 8e de 74     	stx	$74de                   ; 0x74de <__bss_start+0x1>
     a90: a0 05        	ldy	#$5
     a92: 8c df 74     	sty	$74df                   ; 0x74df <__bss_start+0x2>
     a95: 9c e0 74     	stz	$74e0                   ; 0x74e0 <__bss_start+0x3>
     a98: 9c 01 d1     	stz	$d101                   ; 0xd101 <__heap_start+0x4d97>
     a9b: 8e 02 d1     	stx	$d102                   ; 0xd102 <__heap_start+0x4d98>
     a9e: 8c 03 d1     	sty	$d103                   ; 0xd103 <__heap_start+0x4d99>
     aa1: ad 00 d1     	lda	$d100                   ; 0xd100 <__heap_start+0x4d96>
     aa4: 29 f9        	and	#$f9
     aa6: 8d 00 d1     	sta	$d100                   ; 0xd100 <__heap_start+0x4d96>
     aa9: a0 00        	ldy	#$0
     aab: a2 01        	ldx	#$1
     aad: 8e 00 d1     	stx	$d100                   ; 0xd100 <__heap_start+0x4d96>
     ab0: 9c 08 d1     	stz	$d108                   ; 0xd108 <__heap_start+0x4d9e>
     ab3: 9c 10 d1     	stz	$d110                   ; 0xd110 <__heap_start+0x4da6>
     ab6: 9c 00 d8     	stz	$d800                   ; 0xd800 <__heap_start+0x5496>
     ab9: a9 ff        	lda	#$ff
     abb: 8d 01 d8     	sta	$d801                   ; 0xd801 <__heap_start+0x5497>
     abe: 9c 02 d8     	stz	$d802                   ; 0xd802 <__heap_start+0x5498>
     ac1: 9c 04 d8     	stz	$d804                   ; 0xd804 <__heap_start+0x549a>
     ac4: 8d 05 d8     	sta	$d805                   ; 0xd805 <__heap_start+0x549b>
     ac7: a2 20        	ldx	#$20
     ac9: 8e 06 d8     	stx	$d806                   ; 0xd806 <__heap_start+0x549c>
     acc: 9c 08 d8     	stz	$d808                   ; 0xd808 <__heap_start+0x549e>
     acf: 8d 09 d8     	sta	$d809                   ; 0xd809 <__heap_start+0x549f>
     ad2: a2 40        	ldx	#$40
     ad4: 8e 0a d8     	stx	$d80a                   ; 0xd80a <__heap_start+0x54a0>
     ad7: 9c 0c d8     	stz	$d80c                   ; 0xd80c <__heap_start+0x54a2>
     ada: 8d 0d d8     	sta	$d80d                   ; 0xd80d <__heap_start+0x54a3>
     add: a2 60        	ldx	#$60
     adf: 8e 0e d8     	stx	$d80e                   ; 0xd80e <__heap_start+0x54a4>
     ae2: 9c 10 d8     	stz	$d810                   ; 0xd810 <__heap_start+0x54a6>
     ae5: 8d 11 d8     	sta	$d811                   ; 0xd811 <__heap_start+0x54a7>
     ae8: a2 80        	ldx	#$80
     aea: 8e 12 d8     	stx	$d812                   ; 0xd812 <__heap_start+0x54a8>
     aed: 9c 14 d8     	stz	$d814                   ; 0xd814 <__heap_start+0x54aa>
     af0: 8d 15 d8     	sta	$d815                   ; 0xd815 <__heap_start+0x54ab>
     af3: a2 a0        	ldx	#$a0
     af5: 8e 16 d8     	stx	$d816                   ; 0xd816 <__heap_start+0x54ac>
     af8: 9c 18 d8     	stz	$d818                   ; 0xd818 <__heap_start+0x54ae>
     afb: 8d 19 d8     	sta	$d819                   ; 0xd819 <__heap_start+0x54af>
     afe: a2 c0        	ldx	#$c0
     b00: 8e 1a d8     	stx	$d81a                   ; 0xd81a <__heap_start+0x54b0>
     b03: 9c 1c d8     	stz	$d81c                   ; 0xd81c <__heap_start+0x54b2>
     b06: 8d 1d d8     	sta	$d81d                   ; 0xd81d <__heap_start+0x54b3>
     b09: a2 e0        	ldx	#$e0
     b0b: 8e 1e d8     	stx	$d81e                   ; 0xd81e <__heap_start+0x54b4>
     b0e: 9c 20 d8     	stz	$d820                   ; 0xd820 <__heap_start+0x54b6>
     b11: 8d 21 d8     	sta	$d821                   ; 0xd821 <__heap_start+0x54b7>
     b14: 8d 22 d8     	sta	$d822                   ; 0xd822 <__heap_start+0x54b8>
     b17: 9c 24 d8     	stz	$d824                   ; 0xd824 <__heap_start+0x54ba>
     b1a: ca           	dex
     b1b: 8e 25 d8     	stx	$d825                   ; 0xd825 <__heap_start+0x54bb>
     b1e: 8d 26 d8     	sta	$d826                   ; 0xd826 <__heap_start+0x54bc>
     b21: 9c 28 d8     	stz	$d828                   ; 0xd828 <__heap_start+0x54be>
     b24: a2 bf        	ldx	#$bf
     b26: 8e 29 d8     	stx	$d829                   ; 0xd829 <__heap_start+0x54bf>
     b29: 8d 2a d8     	sta	$d82a                   ; 0xd82a <__heap_start+0x54c0>
     b2c: 9c 2c d8     	stz	$d82c                   ; 0xd82c <__heap_start+0x54c2>
     b2f: a2 9f        	ldx	#$9f
     b31: 8e 2d d8     	stx	$d82d                   ; 0xd82d <__heap_start+0x54c3>
     b34: 8d 2e d8     	sta	$d82e                   ; 0xd82e <__heap_start+0x54c4>
     b37: 9c 30 d8     	stz	$d830                   ; 0xd830 <__heap_start+0x54c6>
     b3a: a2 7f        	ldx	#$7f
     b3c: 8e 31 d8     	stx	$d831                   ; 0xd831 <__heap_start+0x54c7>
     b3f: 8d 32 d8     	sta	$d832                   ; 0xd832 <__heap_start+0x54c8>
     b42: 9c 34 d8     	stz	$d834                   ; 0xd834 <__heap_start+0x54ca>
     b45: a2 5f        	ldx	#$5f
     b47: 8e 35 d8     	stx	$d835                   ; 0xd835 <__heap_start+0x54cb>
     b4a: 8d 36 d8     	sta	$d836                   ; 0xd836 <__heap_start+0x54cc>
     b4d: 9c 38 d8     	stz	$d838                   ; 0xd838 <__heap_start+0x54ce>
     b50: a2 3f        	ldx	#$3f
     b52: 8e 39 d8     	stx	$d839                   ; 0xd839 <__heap_start+0x54cf>
     b55: 8d 3a d8     	sta	$d83a                   ; 0xd83a <__heap_start+0x54d0>
     b58: 9c 3c d8     	stz	$d83c                   ; 0xd83c <__heap_start+0x54d2>
     b5b: a2 1f        	ldx	#$1f
     b5d: 8e 3d d8     	stx	$d83d                   ; 0xd83d <__heap_start+0x54d3>
     b60: 8d 3e d8     	sta	$d83e                   ; 0xd83e <__heap_start+0x54d4>
     b63: a2 03        	ldx	#$3
     b65: 86 01        	stx	$1                      ; 0x2001 <main+0x1a8d>
     b67: a9 c9        	lda	#$c9
     b69: a2 10        	ldx	#$10
     b6b: 48           	pha
     b6c: 8a           	txa
     b6d: 5a           	phy
     b6e: a0 33        	ldy	#$33
     b70: 91 10        	sta	($10),y                 ; 0x2010 <main+0x1a9c>
     b72: 7a           	ply
     b73: 68           	pla
     b74: 64 17        	stz	$17                     ; 0x2017 <main+0x1aa3>
     b76: 84 14        	sty	$14                     ; 0x2014 <main+0x1aa0>
     b78: 85 13        	sta	$13                     ; 0x2013 <main+0x1a9f>
     b7a: 98           	tya
     b7b: 0a           	asl
     b7c: 0a           	asl
     b7d: 85 12        	sta	$12                     ; 0x2012 <main+0x1a9e>
     b7f: 0a           	asl
     b80: 18           	clc
     b81: 65 12        	adc	$12                     ; 0x2012 <main+0x1a9e>
     b83: 18           	clc
     b84: 69 0f        	adc	#$f
     b86: a2 50        	ldx	#$50
     b88: 48           	pha
     b89: a0 33        	ldy	#$33
     b8b: b1 10        	lda	($10),y                 ; 0x2010 <main+0x1a9c>
     b8d: 85 12        	sta	$12                     ; 0x2012 <main+0x1a9e>
     b8f: 68           	pla
     b90: a4 12        	ldy	$12                     ; 0x2012 <main+0x1a9e>
     b92: 84 16        	sty	$16                     ; 0x2016 <main+0x1aa2>
     b94: a4 13        	ldy	$13                     ; 0x2013 <main+0x1a9f>
     b96: 84 15        	sty	$15                     ; 0x2015 <main+0x1aa1>
     b98: 92 12        	sta	($12)                   ; 0x2012 <main+0x1a9e>
     b9a: ca           	dex
     b9b: e6 12        	inc	$12                     ; 0x2012 <main+0x1a9e>
     b9d: d0 02        	bne	$ba1 <main+0x62d>
     b9f: e6 13        	inc	$13                     ; 0x2013 <main+0x1a9f>
     ba1: e0 00        	cpx	#$0
     ba3: d0 f3        	bne	$b98 <main+0x624>
     ba5: a4 14        	ldy	$14                     ; 0x2014 <main+0x1aa0>
     ba7: c8           	iny
     ba8: d0 02        	bne	$bac <main+0x638>
     baa: e6 17        	inc	$17                     ; 0x2017 <main+0x1aa3>
     bac: 18           	clc
     bad: a5 16        	lda	$16                     ; 0x2016 <main+0x1aa2>
     baf: 69 b0        	adc	#$b0
     bb1: 5a           	phy
     bb2: a0 33        	ldy	#$33
     bb4: 91 10        	sta	($10),y                 ; 0x2010 <main+0x1a9c>
     bb6: 7a           	ply
     bb7: a5 15        	lda	$15                     ; 0x2015 <main+0x1aa1>
     bb9: 69 ff        	adc	#$ff
     bbb: a6 17        	ldx	$17                     ; 0x2017 <main+0x1aa3>
     bbd: d0 b7        	bne	$b76 <main+0x602>
     bbf: c0 14        	cpy	#$14
     bc1: f0 03        	beq	$bc6 <main+0x652>
     bc3: 4c 76 0b     	jmp	$b76 <main+0x602>
     bc6: 64 01        	stz	$1                      ; 0x2001 <main+0x1a8d>
     bc8: ad a7 d6     	lda	$d6a7                   ; 0xd6a7 <__heap_start+0x533d>
     bcb: 29 3f        	and	#$3f
     bcd: c9 11        	cmp	#$11
     bcf: f0 07        	beq	$bd8 <main+0x664>
     bd1: c9 22        	cmp	#$22
     bd3: f0 03        	beq	$bd8 <main+0x664>
     bd5: 4c 0a 0d     	jmp	$d0a <main+0x796>
     bd8: 64 26        	stz	$26                     ; 0x2026 <main+0x1ab2>
     bda: 9c 01 d0     	stz	$d001                   ; 0xd001 <__heap_start+0x4c97>
     bdd: a2 14        	ldx	#$14
     bdf: 86 12        	stx	$12                     ; 0x2012 <main+0x1a9e>
     be1: a2 48        	ldx	#$48
     be3: 86 13        	stx	$13                     ; 0x2013 <main+0x1a9f>
     be5: 20 54 41     	jsr	$4154 <printf>
     be8: a2 36        	ldx	#$36
     bea: a0 0d        	ldy	#$d
     bec: a9 ed        	lda	#$ed
     bee: 85 12        	sta	$12                     ; 0x2012 <main+0x1a9e>
     bf0: a9 75        	lda	#$75
     bf2: 85 13        	sta	$13                     ; 0x2013 <main+0x1a9f>
     bf4: 84 14        	sty	$14                     ; 0x2014 <main+0x1aa0>
     bf6: a9 00        	lda	#$0
     bf8: 20 41 46     	jsr	$4641 <__memset>
     bfb: a2 01        	ldx	#$1
     bfd: 8e eb 75     	stx	$75eb                   ; 0x75eb <fpr>
     c00: a2 07        	ldx	#$7
     c02: 8e ec 75     	stx	$75ec                   ; 0x75ec <fpr+0x1>
     c05: a2 43        	ldx	#$43
     c07: 86 12        	stx	$12                     ; 0x2012 <main+0x1a9e>
     c09: a2 47        	ldx	#$47
     c0b: 86 13        	stx	$13                     ; 0x2013 <main+0x1a9f>
     c0d: 20 54 41     	jsr	$4154 <printf>
     c10: a2 6d        	ldx	#$6d
     c12: 8e ed 75     	stx	$75ed                   ; 0x75ed <fpr+0x2>
     c15: a2 70        	ldx	#$70
     c17: 8e ee 75     	stx	$75ee                   ; 0x75ee <fpr+0x3>
     c1a: a2 33        	ldx	#$33
     c1c: 8e ef 75     	stx	$75ef                   ; 0x75ef <fpr+0x4>
     c1f: 9c f0 75     	stz	$75f0                   ; 0x75f0 <fpr+0x5>
     c22: a2 f1        	ldx	#$f1
     c24: 86 12        	stx	$12                     ; 0x2012 <main+0x1a9e>
     c26: a2 75        	ldx	#$75
     c28: 86 13        	stx	$13                     ; 0x2013 <main+0x1a9f>
     c2a: a2 1c        	ldx	#$1c
     c2c: 64 14        	stz	$14                     ; 0x2014 <main+0x1aa0>
     c2e: a9 00        	lda	#$0
     c30: 20 41 46     	jsr	$4641 <__memset>
     c33: ae 8a 47     	ldx	$478a                   ; 0x478a <textColors+0xd8>
     c36: 8e 17 83     	stx	$8317                   ; 0x8317 <fpr+0xd2c>
     c39: ae 8b 47     	ldx	$478b                   ; 0x478b <textColors+0xd9>
     c3c: 8e 18 83     	stx	$8318                   ; 0x8318 <fpr+0xd2d>
     c3f: ae 8c 47     	ldx	$478c                   ; 0x478c <textColors+0xda>
     c42: 8e 19 83     	stx	$8319                   ; 0x8319 <fpr+0xd2e>
     c45: ae 3f 47     	ldx	$473f                   ; 0x473f <textColors+0x8d>
     c48: 8e 1a 83     	stx	$831a                   ; 0x831a <fpr+0xd2f>
     c4b: ae 40 47     	ldx	$4740                   ; 0x4740 <textColors+0x8e>
     c4e: 8e 1b 83     	stx	$831b                   ; 0x831b <fpr+0xd30>
     c51: ae 41 47     	ldx	$4741                   ; 0x4741 <textColors+0x8f>
     c54: 8e 1c 83     	stx	$831c                   ; 0x831c <fpr+0xd31>
     c57: ae 3f 48     	ldx	$483f                   ; 0x483f <textColors+0x18d>
     c5a: 8e 1d 83     	stx	$831d                   ; 0x831d <fpr+0xd32>
     c5d: ae 40 48     	ldx	$4840                   ; 0x4840 <textColors+0x18e>
     c60: 8e 1e 83     	stx	$831e                   ; 0x831e <fpr+0xd33>
     c63: ae 41 48     	ldx	$4841                   ; 0x4841 <textColors+0x18f>
     c66: 8e 1f 83     	stx	$831f                   ; 0x831f <fpr+0xd34>
     c69: ae 6a 47     	ldx	$476a                   ; 0x476a <textColors+0xb8>
     c6c: 8e 20 83     	stx	$8320                   ; 0x8320 <fpr+0xd35>
     c6f: ae 6b 47     	ldx	$476b                   ; 0x476b <textColors+0xb9>
     c72: 8e 21 83     	stx	$8321                   ; 0x8321 <fpr+0xd36>
     c75: ae 6c 47     	ldx	$476c                   ; 0x476c <textColors+0xba>
     c78: 8e 22 83     	stx	$8322                   ; 0x8322 <fpr+0xd37>
     c7b: ae ed 75     	ldx	$75ed                   ; 0x75ed <fpr+0x2>
     c7e: f0 34        	beq	$cb4 <main+0x740>
     c80: 86 14        	stx	$14                     ; 0x2014 <main+0x1aa0>
     c82: 64 12        	stz	$12                     ; 0x2012 <main+0x1a9e>
     c84: a6 26        	ldx	$26                     ; 0x2026 <main+0x1ab2>
     c86: a4 12        	ldy	$12                     ; 0x2012 <main+0x1a9e>
     c88: e8           	inx
     c89: d0 01        	bne	$c8c <main+0x718>
     c8b: c8           	iny
     c8c: a9 ee        	lda	#$ee
     c8e: 18           	clc
     c8f: 65 26        	adc	$26                     ; 0x2026 <main+0x1ab2>
     c91: 85 15        	sta	$15                     ; 0x2015 <main+0x1aa1>
     c93: a9 75        	lda	#$75
     c95: 65 12        	adc	$12                     ; 0x2012 <main+0x1a9e>
     c97: 5a           	phy
     c98: a4 15        	ldy	$15                     ; 0x2015 <main+0x1aa1>
     c9a: 84 12        	sty	$12                     ; 0x2012 <main+0x1a9e>
     c9c: 7a           	ply
     c9d: 85 13        	sta	$13                     ; 0x2013 <main+0x1a9f>
     c9f: b2 12        	lda	($12)                   ; 0x2012 <main+0x1a9e>
     ca1: 86 26        	stx	$26                     ; 0x2026 <main+0x1ab2>
     ca3: 84 12        	sty	$12                     ; 0x2012 <main+0x1a9e>
     ca5: d0 dd        	bne	$c84 <main+0x710>
     ca7: 98           	tya
     ca8: f0 03        	beq	$cad <main+0x739>
     caa: 4c 6d 0d     	jmp	$d6d <main+0x7f9>
     cad: e0 02        	cpx	#$2
     caf: 90 03        	bcc	$cb4 <main+0x740>
     cb1: 4c 74 0d     	jmp	$d74 <main+0x800>
     cb4: a5 24        	lda	$24                     ; 0x2024 <main+0x1ab0>
     cb6: a0 10        	ldy	#$10
     cb8: 91 10        	sta	($10),y                 ; 0x2010 <main+0x1a9c>
     cba: a5 25        	lda	$25                     ; 0x2025 <main+0x1ab1>
     cbc: c8           	iny
     cbd: 91 10        	sta	($10),y                 ; 0x2010 <main+0x1a9c>
     cbf: a0 00        	ldy	#$0
     cc1: be e1 74     	ldx	$74e1,y                 ; 0x74e1 <_dirStream>
     cc4: f0 03        	beq	$cc9 <main+0x755>
     cc6: 4c e4 11     	jmp	$11e4 <main+0xc70>
     cc9: 84 2e        	sty	$2e                     ; 0x202e <main+0x1aba>
     ccb: a6 2e        	ldx	$2e                     ; 0x202e <main+0x1aba>
     ccd: 86 f3        	stx	$f3                     ; 0x20f3 <main+0x1b7f>
     ccf: a6 2c        	ldx	$2c                     ; 0x202c <main+0x1ab8>
     cd1: a4 2d        	ldy	$2d                     ; 0x202d <main+0x1ab9>
     cd3: 86 fb        	stx	$fb                     ; 0x20fb <main+0x1b87>
     cd5: 84 fc        	sty	$fc                     ; 0x20fc <main+0x1b88>
     cd7: b2 2c        	lda	($2c)                   ; 0x202c <main+0x1ab8>
     cd9: d0 03        	bne	$cde <main+0x76a>
     cdb: 4c a4 0d     	jmp	$da4 <main+0x830>
     cde: a2 00        	ldx	#$0
     ce0: a0 01        	ldy	#$1
     ce2: 8a           	txa
     ce3: 64 12        	stz	$12                     ; 0x2012 <main+0x1a9e>
     ce5: 86 13        	stx	$13                     ; 0x2013 <main+0x1a9f>
     ce7: e8           	inx
     ce8: d0 02        	bne	$cec <main+0x778>
     cea: e6 12        	inc	$12                     ; 0x2012 <main+0x1a9e>
     cec: 18           	clc
     ced: 85 15        	sta	$15                     ; 0x2015 <main+0x1aa1>
     cef: a5 13        	lda	$13                     ; 0x2013 <main+0x1a9f>
     cf1: 65 2c        	adc	$2c                     ; 0x202c <main+0x1ab8>
     cf3: 85 14        	sta	$14                     ; 0x2014 <main+0x1aa0>
     cf5: a5 15        	lda	$15                     ; 0x2015 <main+0x1aa1>
     cf7: 65 2d        	adc	$2d                     ; 0x202d <main+0x1ab9>
     cf9: 85 15        	sta	$15                     ; 0x2015 <main+0x1aa1>
     cfb: b1 14        	lda	($14),y                 ; 0x2014 <main+0x1aa0>
     cfd: 85 13        	sta	$13                     ; 0x2013 <main+0x1a9f>
     cff: a5 12        	lda	$12                     ; 0x2012 <main+0x1a9e>
     d01: e6 13        	inc	$13                     ; 0x2013 <main+0x1a9f>
     d03: c6 13        	dec	$13                     ; 0x2013 <main+0x1a9f>
     d05: d0 de        	bne	$ce5 <main+0x771>
     d07: 4c a6 0d     	jmp	$da6 <main+0x832>
     d0a: ad a7 d6     	lda	$d6a7                   ; 0xd6a7 <__heap_start+0x533d>
     d0d: 29 3f        	and	#$3f
     d0f: 92 10        	sta	($10)                   ; 0x2010 <main+0x1a9c>
     d11: a0 01        	ldy	#$1
     d13: a9 00        	lda	#$0
     d15: 91 10        	sta	($10),y                 ; 0x2010 <main+0x1a9c>
     d17: a2 43        	ldx	#$43
     d19: 86 12        	stx	$12                     ; 0x2012 <main+0x1a9e>
     d1b: a2 48        	ldx	#$48
     d1d: 86 13        	stx	$13                     ; 0x2013 <main+0x1a9f>
     d1f: 20 54 41     	jsr	$4154 <printf>
     d22: a2 08        	ldx	#$8
     d24: 86 12        	stx	$12                     ; 0x2012 <main+0x1a9e>
     d26: a2 47        	ldx	#$47
     d28: 86 13        	stx	$13                     ; 0x2013 <main+0x1a9f>
     d2a: 20 54 41     	jsr	$4154 <printf>
     d2d: a2 a7        	ldx	#$a7
     d2f: 86 12        	stx	$12                     ; 0x2012 <main+0x1a9e>
     d31: a2 47        	ldx	#$47
     d33: 86 13        	stx	$13                     ; 0x2013 <main+0x1a9f>
     d35: 20 54 41     	jsr	$4154 <printf>
     d38: a2 e2        	ldx	#$e2
     d3a: 86 12        	stx	$12                     ; 0x2012 <main+0x1a9e>
     d3c: a2 46        	ldx	#$46
     d3e: 86 13        	stx	$13                     ; 0x2013 <main+0x1a9f>
     d40: 20 54 41     	jsr	$4154 <printf>
     d43: a2 39        	ldx	#$39
     d45: 86 12        	stx	$12                     ; 0x2012 <main+0x1a9e>
     d47: a2 00        	ldx	#$0
     d49: 86 13        	stx	$13                     ; 0x2013 <main+0x1a9f>
     d4b: 64 3a        	stz	$3a                     ; 0x203a <main+0x1ac6>
     d4d: 20 00 ff     	jsr	$ff00 <__heap_start+0x7b96>
     d50: 92 2a        	sta	($2a)                   ; 0x202a <main+0x1ab6>
     d52: a9 00        	lda	#$0
     d54: 6a           	ror
     d55: 85 12        	sta	$12                     ; 0x2012 <main+0x1a9e>
     d57: a6 3a        	ldx	$3a                     ; 0x203a <main+0x1ac6>
     d59: e0 08        	cpx	#$8
     d5b: d0 ee        	bne	$d4b <main+0x7d7>
     d5d: a6 3e        	ldx	$3e                     ; 0x203e <main+0x1aca>
     d5f: e0 94        	cpx	#$94
     d61: d0 03        	bne	$d66 <main+0x7f2>
     d63: 4c f7 2a     	jmp	$2af7 <main+0x2583>
     d66: e0 20        	cpx	#$20
     d68: d0 e1        	bne	$d4b <main+0x7d7>
     d6a: 4c f7 2a     	jmp	$2af7 <main+0x2583>
     d6d: c0 00        	cpy	#$0
     d6f: b0 03        	bcs	$d74 <main+0x800>
     d71: 4c b4 0c     	jmp	$cb4 <main+0x740>
     d74: a5 24        	lda	$24                     ; 0x2024 <main+0x1ab0>
     d76: a0 10        	ldy	#$10
     d78: 91 10        	sta	($10),y                 ; 0x2010 <main+0x1a9c>
     d7a: a5 25        	lda	$25                     ; 0x2025 <main+0x1ab1>
     d7c: c8           	iny
     d7d: 91 10        	sta	($10),y                 ; 0x2010 <main+0x1a9c>
     d7f: ae ee 75     	ldx	$75ee                   ; 0x75ee <fpr+0x3>
     d82: a0 00        	ldy	#$0
     d84: e0 3a        	cpx	#$3a
     d86: f0 03        	beq	$d8b <main+0x817>
     d88: 4c c1 0c     	jmp	$cc1 <main+0x74d>
     d8b: a5 14        	lda	$14                     ; 0x2014 <main+0x1aa0>
     d8d: c9 30        	cmp	#$30
     d8f: 90 08        	bcc	$d99 <main+0x825>
     d91: c9 38        	cmp	#$38
     d93: b0 04        	bcs	$d99 <main+0x825>
     d95: 18           	clc
     d96: 69 d0        	adc	#$d0
     d98: a8           	tay
     d99: a2 ef        	ldx	#$ef
     d9b: 86 2c        	stx	$2c                     ; 0x202c <main+0x1ab8>
     d9d: a2 75        	ldx	#$75
     d9f: 86 2d        	stx	$2d                     ; 0x202d <main+0x1ab9>
     da1: 4c c1 0c     	jmp	$cc1 <main+0x74d>
     da4: a2 00        	ldx	#$0
     da6: 86 fd        	stx	$fd                     ; 0x20fd <main+0x1b89>
     da8: a2 39        	ldx	#$39
     daa: 86 12        	stx	$12                     ; 0x2012 <main+0x1a9e>
     dac: a2 00        	ldx	#$0
     dae: 86 13        	stx	$13                     ; 0x2013 <main+0x1a9f>
     db0: 20 78 ff     	jsr	$ff78 <__heap_start+0x7c0e>
     db3: 92 2a        	sta	($2a)                   ; 0x202a <main+0x1ab6>
     db5: a9 00        	lda	#$0
     db7: 6a           	ror
     db8: 85 12        	sta	$12                     ; 0x2012 <main+0x1a9e>
     dba: a6 39        	ldx	$39                     ; 0x2039 <main+0x1ac5>
     dbc: f0 03        	beq	$dc1 <main+0x84d>
     dbe: 4c e4 11     	jmp	$11e4 <main+0xc70>
     dc1: a9 e1        	lda	#$e1
     dc3: 18           	clc
     dc4: 65 2e        	adc	$2e                     ; 0x202e <main+0x1aba>
     dc6: 85 26        	sta	$26                     ; 0x2026 <main+0x1ab2>
     dc8: a9 74        	lda	#$74
     dca: 69 00        	adc	#$0
     dcc: 85 27        	sta	$27                     ; 0x2027 <main+0x1ab3>
     dce: b2 2a        	lda	($2a)                   ; 0x202a <main+0x1ab6>
     dd0: 85 14        	sta	$14                     ; 0x2014 <main+0x1aa0>
     dd2: 64 3a        	stz	$3a                     ; 0x203a <main+0x1ac6>
     dd4: 20 00 ff     	jsr	$ff00 <__heap_start+0x7b96>
     dd7: 92 2a        	sta	($2a)                   ; 0x202a <main+0x1ab6>
     dd9: a9 00        	lda	#$0
     ddb: 6a           	ror
     ddc: 85 12        	sta	$12                     ; 0x2012 <main+0x1a9e>
     dde: a6 3a        	ldx	$3a                     ; 0x203a <main+0x1ac6>
     de0: e0 48        	cpx	#$48
     de2: d0 03        	bne	$de7 <main+0x873>
     de4: 4c e4 11     	jmp	$11e4 <main+0xc70>
     de7: e0 3c        	cpx	#$3c
     de9: d0 e7        	bne	$dd2 <main+0x85e>
     deb: a6 2e        	ldx	$2e                     ; 0x202e <main+0x1aba>
     ded: a5 14        	lda	$14                     ; 0x2014 <main+0x1aa0>
     def: 9d e1 74     	sta	$74e1,x                 ; 0x74e1 <_dirStream>
     df2: a6 26        	ldx	$26                     ; 0x2026 <main+0x1ab2>
     df4: 86 12        	stx	$12                     ; 0x2012 <main+0x1a9e>
     df6: a6 27        	ldx	$27                     ; 0x2027 <main+0x1ab3>
     df8: 86 13        	stx	$13                     ; 0x2013 <main+0x1a9f>
     dfa: 20 d1 2e     	jsr	$2ed1 <fileReadDir>
     dfd: a2 4d        	ldx	#$4d
     dff: 86 12        	stx	$12                     ; 0x2012 <main+0x1a9e>
     e01: a2 76        	ldx	#$76
     e03: 86 13        	stx	$13                     ; 0x2013 <main+0x1a9f>
     e05: a5 12        	lda	$12                     ; 0x2012 <main+0x1a9e>
     e07: a0 2f        	ldy	#$2f
     e09: 91 10        	sta	($10),y                 ; 0x2010 <main+0x1a9c>
     e0b: a5 13        	lda	$13                     ; 0x2013 <main+0x1a9f>
     e0d: c8           	iny
     e0e: 91 10        	sta	($10),y                 ; 0x2010 <main+0x1a9c>
     e10: a0 00        	ldy	#$0
     e12: a2 00        	ldx	#$0
     e14: 86 2c        	stx	$2c                     ; 0x202c <main+0x1ab8>
     e16: a2 00        	ldx	#$0
     e18: 86 2d        	stx	$2d                     ; 0x202d <main+0x1ab9>
     e1a: e8           	inx
     e1b: 8a           	txa
     e1c: 5a           	phy
     e1d: a0 31        	ldy	#$31
     e1f: 91 10        	sta	($10),y                 ; 0x2010 <main+0x1a9c>
     e21: 7a           	ply
     e22: 64 2f        	stz	$2f                     ; 0x202f <main+0x1abb>
     e24: 98           	tya
     e25: a0 2e        	ldy	#$2e
     e27: 91 10        	sta	($10),y                 ; 0x2010 <main+0x1a9c>
     e29: a5 2f        	lda	$2f                     ; 0x202f <main+0x1abb>
     e2b: d0 0f        	bne	$e3c <main+0x8c8>
     e2d: a0 31        	ldy	#$31
     e2f: b1 10        	lda	($10),y                 ; 0x2010 <main+0x1a9c>
     e31: c9 64        	cmp	#$64
     e33: 90 0d        	bcc	$e42 <main+0x8ce>
     e35: 18           	clc
     e36: a9 01        	lda	#$1
     e38: 90 0d        	bcc	$e47 <main+0x8d3>
     e3a: 80 0d        	bra	$e49 <main+0x8d5>
     e3c: a6 2f        	ldx	$2f                     ; 0x202f <main+0x1abb>
     e3e: e0 00        	cpx	#$0
     e40: b0 f3        	bcs	$e35 <main+0x8c1>
     e42: 38           	sec
     e43: a9 01        	lda	#$1
     e45: b0 02        	bcs	$e49 <main+0x8d5>
     e47: a9 00        	lda	#$0
     e49: a0 33        	ldy	#$33
     e4b: 91 10        	sta	($10),y                 ; 0x2010 <main+0x1a9c>
     e4d: a6 26        	ldx	$26                     ; 0x2026 <main+0x1ab2>
     e4f: 86 12        	stx	$12                     ; 0x2012 <main+0x1a9e>
     e51: a6 27        	ldx	$27                     ; 0x2027 <main+0x1ab3>
     e53: 86 13        	stx	$13                     ; 0x2013 <main+0x1a9f>
     e55: 20 d1 2e     	jsr	$2ed1 <fileReadDir>
     e58: a6 13        	ldx	$13                     ; 0x2013 <main+0x1a9f>
     e5a: e4 2d        	cpx	$2d                     ; 0x202d <main+0x1ab9>
     e5c: d0 12        	bne	$e70 <main+0x8fc>
     e5e: a6 12        	ldx	$12                     ; 0x2012 <main+0x1a9e>
     e60: a0 02        	ldy	#$2
     e62: 5a           	phy
     e63: a0 33        	ldy	#$33
     e65: b1 10        	lda	($10),y                 ; 0x2010 <main+0x1a9c>
     e67: 7a           	ply
     e68: e4 2c        	cpx	$2c                     ; 0x202c <main+0x1ab8>
     e6a: d0 0c        	bne	$e78 <main+0x904>
     e6c: a9 00        	lda	#$0
     e6e: 80 08        	bra	$e78 <main+0x904>
     e70: a0 02        	ldy	#$2
     e72: 5a           	phy
     e73: a0 33        	ldy	#$33
     e75: b1 10        	lda	($10),y                 ; 0x2010 <main+0x1a9c>
     e77: 7a           	ply
     e78: aa           	tax
     e79: d0 03        	bne	$e7e <main+0x90a>
     e7b: 4c 8a 11     	jmp	$118a <main+0xc16>
     e7e: b1 12        	lda	($12),y                 ; 0x2012 <main+0x1a9e>
     e80: a0 03        	ldy	#$3
     e82: 85 1e        	sta	$1e                     ; 0x201e <main+0x1aaa>
     e84: c9 2e        	cmp	#$2e
     e86: d0 14        	bne	$e9c <main+0x928>
     e88: b1 12        	lda	($12),y                 ; 0x2012 <main+0x1a9e>
     e8a: d0 03        	bne	$e8f <main+0x91b>
     e8c: 4c 29 0e     	jmp	$e29 <main+0x8b5>
     e8f: c9 2e        	cmp	#$2e
     e91: d0 09        	bne	$e9c <main+0x928>
     e93: a0 04        	ldy	#$4
     e95: b1 12        	lda	($12),y                 ; 0x2012 <main+0x1a9e>
     e97: d0 03        	bne	$e9c <main+0x928>
     e99: 4c 29 0e     	jmp	$e29 <main+0x8b5>
     e9c: a5 12        	lda	$12                     ; 0x2012 <main+0x1a9e>
     e9e: 18           	clc
     e9f: 69 02        	adc	#$2
     ea1: 85 1c        	sta	$1c                     ; 0x201c <main+0x1aa8>
     ea3: a5 13        	lda	$13                     ; 0x2013 <main+0x1a9f>
     ea5: 69 00        	adc	#$0
     ea7: 85 1d        	sta	$1d                     ; 0x201d <main+0x1aa9>
     ea9: a9 00        	lda	#$0
     eab: a6 1e        	ldx	$1e                     ; 0x201e <main+0x1aaa>
     ead: 86 18        	stx	$18                     ; 0x2018 <main+0x1aa4>
     eaf: a8           	tay
     eb0: 64 19        	stz	$19                     ; 0x2019 <main+0x1aa5>
     eb2: aa           	tax
     eb3: 48           	pha
     eb4: bd 17 83     	lda	$8317,x                 ; 0x8317 <fpr+0xd2c>
     eb7: aa           	tax
     eb8: 68           	pla
     eb9: e0 00        	cpx	#$0
     ebb: f0 3f        	beq	$efc <main+0x988>
     ebd: 84 22        	sty	$22                     ; 0x2022 <main+0x1aae>
     ebf: a4 18        	ldy	$18                     ; 0x2018 <main+0x1aa4>
     ec1: f0 40        	beq	$f03 <main+0x98f>
     ec3: 86 23        	stx	$23                     ; 0x2023 <main+0x1aaf>
     ec5: 85 1f        	sta	$1f                     ; 0x201f <main+0x1aab>
     ec7: a0 00        	ldy	#$0
     ec9: a2 00        	ldx	#$0
     ecb: 86 14        	stx	$14                     ; 0x2014 <main+0x1aa0>
     ecd: 98           	tya
     ece: c8           	iny
     ecf: d0 01        	bne	$ed2 <main+0x95e>
     ed1: e8           	inx
     ed2: 18           	clc
     ed3: 65 12        	adc	$12                     ; 0x2012 <main+0x1a9e>
     ed5: 85 17        	sta	$17                     ; 0x2017 <main+0x1aa3>
     ed7: a5 14        	lda	$14                     ; 0x2014 <main+0x1aa0>
     ed9: 65 13        	adc	$13                     ; 0x2013 <main+0x1a9f>
     edb: 84 16        	sty	$16                     ; 0x2016 <main+0x1aa2>
     edd: a4 17        	ldy	$17                     ; 0x2017 <main+0x1aa3>
     edf: 84 14        	sty	$14                     ; 0x2014 <main+0x1aa0>
     ee1: 85 15        	sta	$15                     ; 0x2015 <main+0x1aa1>
     ee3: a0 03        	ldy	#$3
     ee5: b1 14        	lda	($14),y                 ; 0x2014 <main+0x1aa0>
     ee7: a4 16        	ldy	$16                     ; 0x2016 <main+0x1aa2>
     ee9: c9 00        	cmp	#$0
     eeb: d0 de        	bne	$ecb <main+0x957>
     eed: 2c 61 46     	bit	$4661                   ; 0x4661 <__set_v>
     ef0: a5 1e        	lda	$1e                     ; 0x201e <main+0x1aaa>
     ef2: f0 01        	beq	$ef5 <main+0x981>
     ef4: b8           	clv
     ef5: 8a           	txa
     ef6: d0 12        	bne	$f0a <main+0x996>
     ef8: c0 04        	cpy	#$4
     efa: 80 10        	bra	$f0c <main+0x998>
     efc: 85 15        	sta	$15                     ; 0x2015 <main+0x1aa1>
     efe: 84 22        	sty	$22                     ; 0x2022 <main+0x1aae>
     f00: 4c b1 0f     	jmp	$fb1 <main+0xa3d>
     f03: 85 15        	sta	$15                     ; 0x2015 <main+0x1aa1>
     f05: 64 18        	stz	$18                     ; 0x2018 <main+0x1aa4>
     f07: 4c b1 0f     	jmp	$fb1 <main+0xa3d>
     f0a: e0 00        	cpx	#$0
     f0c: a2 01        	ldx	#$1
     f0e: a9 00        	lda	#$0
     f10: b0 02        	bcs	$f14 <main+0x9a0>
     f12: a9 01        	lda	#$1
     f14: 86 16        	stx	$16                     ; 0x2016 <main+0x1aa2>
     f16: 70 02        	bvs	$f1a <main+0x9a6>
     f18: 64 16        	stz	$16                     ; 0x2016 <main+0x1aa2>
     f1a: aa           	tax
     f1b: 29 01        	and	#$1
     f1d: d0 02        	bne	$f21 <main+0x9ad>
     f1f: 64 18        	stz	$18                     ; 0x2018 <main+0x1aa4>
     f21: 8a           	txa
     f22: 05 16        	ora	$16                     ; 0x2016 <main+0x1aa2>
     f24: 29 01        	and	#$1
     f26: a6 1f        	ldx	$1f                     ; 0x201f <main+0x1aab>
     f28: 86 15        	stx	$15                     ; 0x2015 <main+0x1aa1>
     f2a: aa           	tax
     f2b: f0 03        	beq	$f30 <main+0x9bc>
     f2d: 4c b1 0f     	jmp	$fb1 <main+0xa3d>
     f30: a2 00        	ldx	#$0
     f32: 86 16        	stx	$16                     ; 0x2016 <main+0x1aa2>
     f34: a2 00        	ldx	#$0
     f36: 86 17        	stx	$17                     ; 0x2017 <main+0x1aa3>
     f38: a5 1e        	lda	$1e                     ; 0x201e <main+0x1aaa>
     f3a: a6 1c        	ldx	$1c                     ; 0x201c <main+0x1aa8>
     f3c: 86 1a        	stx	$1a                     ; 0x201a <main+0x1aa6>
     f3e: a6 1d        	ldx	$1d                     ; 0x201d <main+0x1aa9>
     f40: 86 1b        	stx	$1b                     ; 0x201b <main+0x1aa7>
     f42: a0 01        	ldy	#$1
     f44: c9 2e        	cmp	#$2e
     f46: d0 08        	bne	$f50 <main+0x9dc>
     f48: a6 1a        	ldx	$1a                     ; 0x201a <main+0x1aa6>
     f4a: 86 16        	stx	$16                     ; 0x2016 <main+0x1aa2>
     f4c: a6 1b        	ldx	$1b                     ; 0x201b <main+0x1aa7>
     f4e: 86 17        	stx	$17                     ; 0x2017 <main+0x1aa3>
     f50: b1 1a        	lda	($1a),y                 ; 0x201a <main+0x1aa6>
     f52: e6 1a        	inc	$1a                     ; 0x201a <main+0x1aa6>
     f54: d0 02        	bne	$f58 <main+0x9e4>
     f56: e6 1b        	inc	$1b                     ; 0x201b <main+0x1aa7>
     f58: aa           	tax
     f59: d0 e9        	bne	$f44 <main+0x9d0>
     f5b: a6 17        	ldx	$17                     ; 0x2017 <main+0x1aa3>
     f5d: e4 2d        	cpx	$2d                     ; 0x202d <main+0x1ab9>
     f5f: d0 10        	bne	$f71 <main+0x9fd>
     f61: a6 16        	ldx	$16                     ; 0x2016 <main+0x1aa2>
     f63: a4 1e        	ldy	$1e                     ; 0x201e <main+0x1aaa>
     f65: 84 18        	sty	$18                     ; 0x2018 <main+0x1aa4>
     f67: a4 1f        	ldy	$1f                     ; 0x201f <main+0x1aab>
     f69: 84 15        	sty	$15                     ; 0x2015 <main+0x1aa1>
     f6b: e4 2c        	cpx	$2c                     ; 0x202c <main+0x1ab8>
     f6d: d0 06        	bne	$f75 <main+0xa01>
     f6f: 80 40        	bra	$fb1 <main+0xa3d>
     f71: a6 1f        	ldx	$1f                     ; 0x201f <main+0x1aab>
     f73: 86 15        	stx	$15                     ; 0x2015 <main+0x1aa1>
     f75: a0 01        	ldy	#$1
     f77: b1 16        	lda	($16),y                 ; 0x2016 <main+0x1aa2>
     f79: a6 1e        	ldx	$1e                     ; 0x201e <main+0x1aaa>
     f7b: 86 18        	stx	$18                     ; 0x2018 <main+0x1aa4>
     f7d: aa           	tax
     f7e: f0 31        	beq	$fb1 <main+0xa3d>
     f80: 85 1b        	sta	$1b                     ; 0x201b <main+0x1aa7>
     f82: a2 00        	ldx	#$0
     f84: 64 1a        	stz	$1a                     ; 0x201a <main+0x1aa6>
     f86: a0 02        	ldy	#$2
     f88: 8a           	txa
     f89: 18           	clc
     f8a: 65 16        	adc	$16                     ; 0x2016 <main+0x1aa2>
     f8c: 85 14        	sta	$14                     ; 0x2014 <main+0x1aa0>
     f8e: a5 1a        	lda	$1a                     ; 0x201a <main+0x1aa6>
     f90: 65 17        	adc	$17                     ; 0x2017 <main+0x1aa3>
     f92: e8           	inx
     f93: d0 02        	bne	$f97 <main+0xa23>
     f95: e6 1a        	inc	$1a                     ; 0x201a <main+0x1aa6>
     f97: 85 15        	sta	$15                     ; 0x2015 <main+0x1aa1>
     f99: b1 14        	lda	($14),y                 ; 0x2014 <main+0x1aa0>
     f9b: d0 eb        	bne	$f88 <main+0xa14>
     f9d: a4 1e        	ldy	$1e                     ; 0x201e <main+0x1aaa>
     f9f: 84 18        	sty	$18                     ; 0x2018 <main+0x1aa4>
     fa1: a4 1f        	ldy	$1f                     ; 0x201f <main+0x1aab>
     fa3: 84 15        	sty	$15                     ; 0x2015 <main+0x1aa1>
     fa5: a5 1a        	lda	$1a                     ; 0x201a <main+0x1aa6>
     fa7: d0 08        	bne	$fb1 <main+0xa3d>
     fa9: a4 1e        	ldy	$1e                     ; 0x201e <main+0x1aaa>
     fab: 84 18        	sty	$18                     ; 0x2018 <main+0x1aa4>
     fad: e0 03        	cpx	#$3
     faf: f0 28        	beq	$fd9 <main+0xa65>
     fb1: a6 22        	ldx	$22                     ; 0x2022 <main+0x1aae>
     fb3: e8           	inx
     fb4: d0 02        	bne	$fb8 <main+0xa44>
     fb6: e6 19        	inc	$19                     ; 0x2019 <main+0x1aa5>
     fb8: da           	phx
     fb9: 7a           	ply
     fba: 18           	clc
     fbb: a5 15        	lda	$15                     ; 0x2015 <main+0x1aa1>
     fbd: 69 03        	adc	#$3
     fbf: a6 19        	ldx	$19                     ; 0x2019 <main+0x1aa5>
     fc1: f0 03        	beq	$fc6 <main+0xa52>
     fc3: 4c b2 0e     	jmp	$eb2 <main+0x93e>
     fc6: c0 04        	cpy	#$4
     fc8: f0 03        	beq	$fcd <main+0xa59>
     fca: 4c b2 0e     	jmp	$eb2 <main+0x93e>
     fcd: a0 01        	ldy	#$1
     fcf: b1 12        	lda	($12),y                 ; 0x2012 <main+0x1a9e>
     fd1: d0 03        	bne	$fd6 <main+0xa62>
     fd3: 4c 29 0e     	jmp	$e29 <main+0x8b5>
     fd6: 4c 70 10     	jmp	$1070 <main+0xafc>
     fd9: a5 1b        	lda	$1b                     ; 0x201b <main+0x1aa7>
     fdb: c9 41        	cmp	#$41
     fdd: 90 08        	bcc	$fe7 <main+0xa73>
     fdf: c9 5b        	cmp	#$5b
     fe1: b0 04        	bcs	$fe7 <main+0xa73>
     fe3: 09 20        	ora	#$20
     fe5: 85 1b        	sta	$1b                     ; 0x201b <main+0x1aa7>
     fe7: a5 23        	lda	$23                     ; 0x2023 <main+0x1aaf>
     fe9: c9 41        	cmp	#$41
     feb: 90 06        	bcc	$ff3 <main+0xa7f>
     fed: c9 5b        	cmp	#$5b
     fef: b0 02        	bcs	$ff3 <main+0xa7f>
     ff1: 09 20        	ora	#$20
     ff3: 85 1a        	sta	$1a                     ; 0x201a <main+0x1aa6>
     ff5: a6 1e        	ldx	$1e                     ; 0x201e <main+0x1aaa>
     ff7: 86 18        	stx	$18                     ; 0x2018 <main+0x1aa4>
     ff9: a6 1b        	ldx	$1b                     ; 0x201b <main+0x1aa7>
     ffb: e4 1a        	cpx	$1a                     ; 0x201a <main+0x1aa6>
     ffd: d0 b2        	bne	$fb1 <main+0xa3d>
     fff: a0 02        	ldy	#$2
    1001: b1 16        	lda	($16),y                 ; 0x2016 <main+0x1aa2>
    1003: c9 41        	cmp	#$41
    1005: 90 2c        	bcc	$1033 <main+0xabf>
    1007: c9 5b        	cmp	#$5b
    1009: a6 1f        	ldx	$1f                     ; 0x201f <main+0x1aab>
    100b: b0 03        	bcs	$1010 <main+0xa9c>
    100d: 4c 6f 11     	jmp	$116f <main+0xbfb>
    1010: 85 14        	sta	$14                     ; 0x2014 <main+0x1aa0>
    1012: a0 03        	ldy	#$3
    1014: 80 23        	bra	$1039 <main+0xac5>
    1016: bd 19 83     	lda	$8319,x                 ; 0x8319 <fpr+0xd2e>
    1019: c9 41        	cmp	#$41
    101b: 90 03        	bcc	$1020 <main+0xaac>
    101d: 4c 74 11     	jmp	$1174 <main+0xc00>
    1020: 85 16        	sta	$16                     ; 0x2016 <main+0x1aa2>
    1022: a6 1e        	ldx	$1e                     ; 0x201e <main+0x1aaa>
    1024: 86 18        	stx	$18                     ; 0x2018 <main+0x1aa4>
    1026: a6 1f        	ldx	$1f                     ; 0x201f <main+0x1aab>
    1028: 86 15        	stx	$15                     ; 0x2015 <main+0x1aa1>
    102a: a6 14        	ldx	$14                     ; 0x2014 <main+0x1aa0>
    102c: e4 16        	cpx	$16                     ; 0x2016 <main+0x1aa2>
    102e: f0 40        	beq	$1070 <main+0xafc>
    1030: 4c b1 0f     	jmp	$fb1 <main+0xa3d>
    1033: 85 14        	sta	$14                     ; 0x2014 <main+0x1aa0>
    1035: a0 03        	ldy	#$3
    1037: a6 1f        	ldx	$1f                     ; 0x201f <main+0x1aab>
    1039: bd 18 83     	lda	$8318,x                 ; 0x8318 <fpr+0xd2d>
    103c: c9 41        	cmp	#$41
    103e: 90 07        	bcc	$1047 <main+0xad3>
    1040: c9 5b        	cmp	#$5b
    1042: b0 03        	bcs	$1047 <main+0xad3>
    1044: 4c 7e 11     	jmp	$117e <main+0xc0a>
    1047: 85 1a        	sta	$1a                     ; 0x201a <main+0x1aa6>
    1049: a6 1e        	ldx	$1e                     ; 0x201e <main+0x1aaa>
    104b: 86 18        	stx	$18                     ; 0x2018 <main+0x1aa4>
    104d: a6 1f        	ldx	$1f                     ; 0x201f <main+0x1aab>
    104f: 86 15        	stx	$15                     ; 0x2015 <main+0x1aa1>
    1051: a6 14        	ldx	$14                     ; 0x2014 <main+0x1aa0>
    1053: e4 1a        	cpx	$1a                     ; 0x201a <main+0x1aa6>
    1055: f0 03        	beq	$105a <main+0xae6>
    1057: 4c b1 0f     	jmp	$fb1 <main+0xa3d>
    105a: b1 16        	lda	($16),y                 ; 0x2016 <main+0x1aa2>
    105c: c9 41        	cmp	#$41
    105e: b0 03        	bcs	$1063 <main+0xaef>
    1060: 4c 83 11     	jmp	$1183 <main+0xc0f>
    1063: c9 5b        	cmp	#$5b
    1065: a6 1f        	ldx	$1f                     ; 0x201f <main+0x1aab>
    1067: b0 03        	bcs	$106c <main+0xaf8>
    1069: 4c 72 2b     	jmp	$2b72 <main+0x25fe>
    106c: 85 14        	sta	$14                     ; 0x2014 <main+0x1aa0>
    106e: 80 a6        	bra	$1016 <main+0xaa2>
    1070: a5 2f        	lda	$2f                     ; 0x202f <main+0x1abb>
    1072: 4a           	lsr
    1073: 48           	pha
    1074: a0 31        	ldy	#$31
    1076: b1 10        	lda	($10),y                 ; 0x2010 <main+0x1a9c>
    1078: 85 14        	sta	$14                     ; 0x2014 <main+0x1aa0>
    107a: 68           	pla
    107b: 66 14        	ror	$14                     ; 0x2014 <main+0x1aa0>
    107d: 64 15        	stz	$15                     ; 0x2015 <main+0x1aa1>
    107f: 66 15        	ror	$15                     ; 0x2015 <main+0x1aa1>
    1081: 4a           	lsr
    1082: 66 14        	ror	$14                     ; 0x2014 <main+0x1aa0>
    1084: 66 15        	ror	$15                     ; 0x2015 <main+0x1aa1>
    1086: 4a           	lsr
    1087: 66 14        	ror	$14                     ; 0x2014 <main+0x1aa0>
    1089: 66 15        	ror	$15                     ; 0x2015 <main+0x1aa1>
    108b: a9 2d        	lda	#$2d
    108d: 18           	clc
    108e: 65 15        	adc	$15                     ; 0x2015 <main+0x1aa1>
    1090: a8           	tay
    1091: a9 76        	lda	#$76
    1093: 65 14        	adc	$14                     ; 0x2014 <main+0x1aa0>
    1095: a2 1f        	ldx	#$1f
    1097: 84 15        	sty	$15                     ; 0x2015 <main+0x1aa1>
    1099: 84 24        	sty	$24                     ; 0x2024 <main+0x1ab0>
    109b: 85 17        	sta	$17                     ; 0x2017 <main+0x1aa3>
    109d: 85 25        	sta	$25                     ; 0x2025 <main+0x1ab1>
    109f: 64 16        	stz	$16                     ; 0x2016 <main+0x1aa2>
    10a1: 64 14        	stz	$14                     ; 0x2014 <main+0x1aa0>
    10a3: a0 2f        	ldy	#$2f
    10a5: b1 10        	lda	($10),y                 ; 0x2010 <main+0x1a9c>
    10a7: 85 18        	sta	$18                     ; 0x2018 <main+0x1aa4>
    10a9: c8           	iny
    10aa: b1 10        	lda	($10),y                 ; 0x2010 <main+0x1a9c>
    10ac: 85 19        	sta	$19                     ; 0x2019 <main+0x1aa5>
    10ae: 80 06        	bra	$10b6 <main+0xb42>
    10b0: e6 16        	inc	$16                     ; 0x2016 <main+0x1aa2>
    10b2: a5 14        	lda	$14                     ; 0x2014 <main+0x1aa0>
    10b4: f0 17        	beq	$10cd <main+0xb59>
    10b6: a4 16        	ldy	$16                     ; 0x2016 <main+0x1aa2>
    10b8: b1 1c        	lda	($1c),y                 ; 0x201c <main+0x1aa8>
    10ba: 85 1a        	sta	$1a                     ; 0x201a <main+0x1aa6>
    10bc: b1 1c        	lda	($1c),y                 ; 0x201c <main+0x1aa8>
    10be: 91 18        	sta	($18),y                 ; 0x2018 <main+0x1aa4>
    10c0: a5 1a        	lda	$1a                     ; 0x201a <main+0x1aa6>
    10c2: f0 0f        	beq	$10d3 <main+0xb5f>
    10c4: ca           	dex
    10c5: e0 ff        	cpx	#$ff
    10c7: d0 e7        	bne	$10b0 <main+0xb3c>
    10c9: c6 14        	dec	$14                     ; 0x2014 <main+0x1aa0>
    10cb: 80 e3        	bra	$10b0 <main+0xb3c>
    10cd: 8a           	txa
    10ce: d0 e6        	bne	$10b6 <main+0xb42>
    10d0: 4c 22 11     	jmp	$1122 <main+0xbae>
    10d3: ca           	dex
    10d4: e0 ff        	cpx	#$ff
    10d6: d0 02        	bne	$10da <main+0xb66>
    10d8: c6 14        	dec	$14                     ; 0x2014 <main+0x1aa0>
    10da: a5 14        	lda	$14                     ; 0x2014 <main+0x1aa0>
    10dc: d0 03        	bne	$10e1 <main+0xb6d>
    10de: 8a           	txa
    10df: f0 41        	beq	$1122 <main+0xbae>
    10e1: 18           	clc
    10e2: a5 15        	lda	$15                     ; 0x2015 <main+0x1aa1>
    10e4: 65 16        	adc	$16                     ; 0x2016 <main+0x1aa2>
    10e6: 85 16        	sta	$16                     ; 0x2016 <main+0x1aa2>
    10e8: a5 17        	lda	$17                     ; 0x2017 <main+0x1aa3>
    10ea: 69 00        	adc	#$0
    10ec: 85 17        	sta	$17                     ; 0x2017 <main+0x1aa3>
    10ee: e6 16        	inc	$16                     ; 0x2016 <main+0x1aa2>
    10f0: d0 02        	bne	$10f4 <main+0xb80>
    10f2: e6 17        	inc	$17                     ; 0x2017 <main+0x1aa3>
    10f4: a5 12        	lda	$12                     ; 0x2012 <main+0x1a9e>
    10f6: a0 33        	ldy	#$33
    10f8: 91 10        	sta	($10),y                 ; 0x2010 <main+0x1a9c>
    10fa: a5 13        	lda	$13                     ; 0x2013 <main+0x1a9f>
    10fc: c8           	iny
    10fd: 91 10        	sta	($10),y                 ; 0x2010 <main+0x1a9c>
    10ff: a4 16        	ldy	$16                     ; 0x2016 <main+0x1aa2>
    1101: 84 12        	sty	$12                     ; 0x2012 <main+0x1a9e>
    1103: a4 17        	ldy	$17                     ; 0x2017 <main+0x1aa3>
    1105: 84 13        	sty	$13                     ; 0x2013 <main+0x1a9f>
    1107: a9 00        	lda	#$0
    1109: 20 41 46     	jsr	$4641 <__memset>
    110c: a0 2f        	ldy	#$2f
    110e: b1 10        	lda	($10),y                 ; 0x2010 <main+0x1a9c>
    1110: 85 18        	sta	$18                     ; 0x2018 <main+0x1aa4>
    1112: c8           	iny
    1113: b1 10        	lda	($10),y                 ; 0x2010 <main+0x1a9c>
    1115: 85 19        	sta	$19                     ; 0x2019 <main+0x1aa5>
    1117: a0 33        	ldy	#$33
    1119: b1 10        	lda	($10),y                 ; 0x2010 <main+0x1a9c>
    111b: 85 12        	sta	$12                     ; 0x2012 <main+0x1a9e>
    111d: c8           	iny
    111e: b1 10        	lda	($10),y                 ; 0x2010 <main+0x1a9c>
    1120: 85 13        	sta	$13                     ; 0x2013 <main+0x1a9f>
    1122: a9 00        	lda	#$0
    1124: a0 1f        	ldy	#$1f
    1126: 91 24        	sta	($24),y                 ; 0x2024 <main+0x1ab0>
    1128: a0 01        	ldy	#$1
    112a: b1 12        	lda	($12),y                 ; 0x2012 <main+0x1a9e>
    112c: a2 01        	ldx	#$1
    112e: c9 01        	cmp	#$1
    1130: f0 02        	beq	$1134 <main+0xbc0>
    1132: a2 00        	ldx	#$0
    1134: 98           	tya
    1135: 48           	pha
    1136: a0 2e        	ldy	#$2e
    1138: b1 10        	lda	($10),y                 ; 0x2010 <main+0x1a9c>
    113a: a8           	tay
    113b: 68           	pla
    113c: e0 00        	cpx	#$0
    113e: d0 02        	bne	$1142 <main+0xbce>
    1140: a9 00        	lda	#$0
    1142: 99 ae 82     	sta	$82ae,y                 ; 0x82ae <fpr+0xcc3>
    1145: a5 18        	lda	$18                     ; 0x2018 <main+0x1aa4>
    1147: 18           	clc
    1148: 69 20        	adc	#$20
    114a: 85 14        	sta	$14                     ; 0x2014 <main+0x1aa0>
    114c: a5 19        	lda	$19                     ; 0x2019 <main+0x1aa5>
    114e: 69 00        	adc	#$0
    1150: 85 15        	sta	$15                     ; 0x2015 <main+0x1aa1>
    1152: 5a           	phy
    1153: a5 14        	lda	$14                     ; 0x2014 <main+0x1aa0>
    1155: a0 2f        	ldy	#$2f
    1157: 91 10        	sta	($10),y                 ; 0x2010 <main+0x1a9c>
    1159: a5 15        	lda	$15                     ; 0x2015 <main+0x1aa1>
    115b: c8           	iny
    115c: 91 10        	sta	($10),y                 ; 0x2010 <main+0x1a9c>
    115e: c8           	iny
    115f: b1 10        	lda	($10),y                 ; 0x2010 <main+0x1a9c>
    1161: aa           	tax
    1162: e8           	inx
    1163: d0 02        	bne	$1167 <main+0xbf3>
    1165: e6 2f        	inc	$2f                     ; 0x202f <main+0x1abb>
    1167: 8a           	txa
    1168: 91 10        	sta	($10),y                 ; 0x2010 <main+0x1a9c>
    116a: 7a           	ply
    116b: c8           	iny
    116c: 4c 24 0e     	jmp	$e24 <main+0x8b0>
    116f: 09 20        	ora	#$20
    1171: 4c 10 10     	jmp	$1010 <main+0xa9c>
    1174: c9 5b        	cmp	#$5b
    1176: 90 03        	bcc	$117b <main+0xc07>
    1178: 4c 20 10     	jmp	$1020 <main+0xaac>
    117b: 4c 77 2b     	jmp	$2b77 <main+0x2603>
    117e: 09 20        	ora	#$20
    1180: 4c 47 10     	jmp	$1047 <main+0xad3>
    1183: 85 14        	sta	$14                     ; 0x2014 <main+0x1aa0>
    1185: a6 1f        	ldx	$1f                     ; 0x201f <main+0x1aab>
    1187: 4c 16 10     	jmp	$1016 <main+0xaa2>
    118a: a0 31        	ldy	#$31
    118c: b1 10        	lda	($10),y                 ; 0x2010 <main+0x1a9c>
    118e: 8d 11 83     	sta	$8311                   ; 0x8311 <fpr+0xd26>
    1191: a6 2f        	ldx	$2f                     ; 0x202f <main+0x1abb>
    1193: 8e 12 83     	stx	$8312                   ; 0x8312 <fpr+0xd27>
    1196: a2 2d        	ldx	#$2d
    1198: 86 12        	stx	$12                     ; 0x2012 <main+0x1a9e>
    119a: a2 76        	ldx	#$76
    119c: 86 13        	stx	$13                     ; 0x2013 <main+0x1a9f>
    119e: a2 77        	ldx	#$77
    11a0: 86 14        	stx	$14                     ; 0x2014 <main+0x1aa0>
    11a2: a2 48        	ldx	#$48
    11a4: 86 15        	stx	$15                     ; 0x2015 <main+0x1aa1>
    11a6: a9 20        	lda	#$20
    11a8: a2 00        	ldx	#$0
    11aa: 20 15 46     	jsr	$4615 <memcpy>
    11ad: a2 39        	ldx	#$39
    11af: 86 12        	stx	$12                     ; 0x2012 <main+0x1a9e>
    11b1: a2 00        	ldx	#$0
    11b3: 86 13        	stx	$13                     ; 0x2013 <main+0x1a9f>
    11b5: a6 2e        	ldx	$2e                     ; 0x202e <main+0x1aba>
    11b7: bd e1 74     	lda	$74e1,x                 ; 0x74e1 <_dirStream>
    11ba: aa           	tax
    11bb: f0 15        	beq	$11d2 <main+0xc5e>
    11bd: 86 f3        	stx	$f3                     ; 0x20f3 <main+0x1b7f>
    11bf: 20 80 ff     	jsr	$ff80 <__heap_start+0x7c16>
    11c2: 92 2a        	sta	($2a)                   ; 0x202a <main+0x1ab6>
    11c4: a9 00        	lda	#$0
    11c6: 6a           	ror
    11c7: 85 12        	sta	$12                     ; 0x2012 <main+0x1a9e>
    11c9: a6 39        	ldx	$39                     ; 0x2039 <main+0x1ac5>
    11cb: d0 05        	bne	$11d2 <main+0xc5e>
    11cd: a6 2e        	ldx	$2e                     ; 0x202e <main+0x1aba>
    11cf: 9e e1 74     	stz	$74e1,x                 ; 0x74e1 <_dirStream>
    11d2: 64 3a        	stz	$3a                     ; 0x203a <main+0x1ac6>
    11d4: 20 00 ff     	jsr	$ff00 <__heap_start+0x7b96>
    11d7: 92 2a        	sta	($2a)                   ; 0x202a <main+0x1ab6>
    11d9: a9 00        	lda	#$0
    11db: 6a           	ror
    11dc: 85 12        	sta	$12                     ; 0x2012 <main+0x1a9e>
    11de: a6 3a        	ldx	$3a                     ; 0x203a <main+0x1ac6>
    11e0: e0 46        	cpx	#$46
    11e2: d0 d1        	bne	$11b5 <main+0xc41>
    11e4: ae 8e 47     	ldx	$478e                   ; 0x478e <textColors+0xdc>
    11e7: 8e 2d 76     	stx	$762d                   ; 0x762d <fpr+0x42>
    11ea: ae 8f 47     	ldx	$478f                   ; 0x478f <textColors+0xdd>
    11ed: 8e 2e 76     	stx	$762e                   ; 0x762e <fpr+0x43>
    11f0: ae 90 47     	ldx	$4790                   ; 0x4790 <textColors+0xde>
    11f3: 8e 2f 76     	stx	$762f                   ; 0x762f <fpr+0x44>
    11f6: a2 01        	ldx	#$1
    11f8: 8e ad 82     	stx	$82ad                   ; 0x82ad <fpr+0xcc2>
    11fb: ae 11 83     	ldx	$8311                   ; 0x8311 <fpr+0xd26>
    11fe: ac 12 83     	ldy	$8312                   ; 0x8312 <fpr+0xd27>
    1201: 86 16        	stx	$16                     ; 0x2016 <main+0x1aa2>
    1203: e0 03        	cpx	#$3
    1205: 98           	tya
    1206: e9 00        	sbc	#$0
    1208: 50 02        	bvc	$120c <main+0xc98>
    120a: 49 80        	eor	#$80
    120c: aa           	tax
    120d: 10 03        	bpl	$1212 <main+0xc9e>
    120f: 4c e8 14     	jmp	$14e8 <main+0xf74>
    1212: a6 2a        	ldx	$2a                     ; 0x202a <main+0x1ab6>
    1214: 86 12        	stx	$12                     ; 0x2012 <main+0x1a9e>
    1216: a6 2b        	ldx	$2b                     ; 0x202b <main+0x1ab7>
    1218: 86 13        	stx	$13                     ; 0x2013 <main+0x1a9f>
    121a: e6 12        	inc	$12                     ; 0x2012 <main+0x1a9e>
    121c: d0 02        	bne	$1220 <main+0xcac>
    121e: e6 13        	inc	$13                     ; 0x2013 <main+0x1a9f>
    1220: a2 01        	ldx	#$1
    1222: 64 14        	stz	$14                     ; 0x2014 <main+0x1aa0>
    1224: 86 15        	stx	$15                     ; 0x2015 <main+0x1aa1>
    1226: 84 18        	sty	$18                     ; 0x2018 <main+0x1aa4>
    1228: a4 16        	ldy	$16                     ; 0x2016 <main+0x1aa2>
    122a: 4c b2 14     	jmp	$14b2 <main+0xf3e>
    122d: a4 28        	ldy	$28                     ; 0x2028 <main+0x1ab4>
    122f: c4 23        	cpy	$23                     ; 0x2023 <main+0x1aaf>
    1231: f0 03        	beq	$1236 <main+0xcc2>
    1233: 4c aa 12     	jmp	$12aa <main+0xd36>
    1236: 86 24        	stx	$24                     ; 0x2024 <main+0x1ab0>
    1238: a9 2d        	lda	#$2d
    123a: 18           	clc
    123b: 65 22        	adc	$22                     ; 0x2022 <main+0x1aae>
    123d: 85 26        	sta	$26                     ; 0x2026 <main+0x1ab2>
    123f: a9 76        	lda	#$76
    1241: 65 1f        	adc	$1f                     ; 0x201f <main+0x1aab>
    1243: 85 27        	sta	$27                     ; 0x2027 <main+0x1ab3>
    1245: b2 26        	lda	($26)                   ; 0x2026 <main+0x1ab2>
    1247: 64 23        	stz	$23                     ; 0x2023 <main+0x1aaf>
    1249: d0 03        	bne	$124e <main+0xcda>
    124b: 4c b3 12     	jmp	$12b3 <main+0xd3f>
    124e: a6 16        	ldx	$16                     ; 0x2016 <main+0x1aa2>
    1250: 86 2c        	stx	$2c                     ; 0x202c <main+0x1ab8>
    1252: a6 17        	ldx	$17                     ; 0x2017 <main+0x1aa3>
    1254: 86 2d        	stx	$2d                     ; 0x202d <main+0x1ab9>
    1256: 85 29        	sta	$29                     ; 0x2029 <main+0x1ab5>
    1258: 80 2f        	bra	$1289 <main+0xd15>
    125a: a0 20        	ldy	#$20
    125c: a5 25        	lda	$25                     ; 0x2025 <main+0x1ab1>
    125e: c9 41        	cmp	#$41
    1260: 90 06        	bcc	$1268 <main+0xcf4>
    1262: c9 5b        	cmp	#$5b
    1264: b0 02        	bcs	$1268 <main+0xcf4>
    1266: 09 20        	ora	#$20
    1268: 85 2d        	sta	$2d                     ; 0x202d <main+0x1ab9>
    126a: 86 2c        	stx	$2c                     ; 0x202c <main+0x1ab8>
    126c: e4 2d        	cpx	$2d                     ; 0x202d <main+0x1ab9>
    126e: f0 03        	beq	$1273 <main+0xcff>
    1270: 4c 0f 13     	jmp	$130f <main+0xd9b>
    1273: b2 26        	lda	($26)                   ; 0x2026 <main+0x1ab2>
    1275: a6 26        	ldx	$26                     ; 0x2026 <main+0x1ab2>
    1277: 86 2c        	stx	$2c                     ; 0x202c <main+0x1ab8>
    1279: a6 27        	ldx	$27                     ; 0x2027 <main+0x1ab3>
    127b: 86 2d        	stx	$2d                     ; 0x202d <main+0x1ab9>
    127d: e6 2c        	inc	$2c                     ; 0x202c <main+0x1ab8>
    127f: d0 02        	bne	$1283 <main+0xd0f>
    1281: e6 2d        	inc	$2d                     ; 0x202d <main+0x1ab9>
    1283: aa           	tax
    1284: d0 03        	bne	$1289 <main+0xd15>
    1286: 4c ec 12     	jmp	$12ec <main+0xd78>
    1289: aa           	tax
    128a: a4 2c        	ldy	$2c                     ; 0x202c <main+0x1ab8>
    128c: 84 26        	sty	$26                     ; 0x2026 <main+0x1ab2>
    128e: a4 2d        	ldy	$2d                     ; 0x202d <main+0x1ab9>
    1290: 84 27        	sty	$27                     ; 0x2027 <main+0x1ab3>
    1292: a0 1f        	ldy	#$1f
    1294: b1 2c        	lda	($2c),y                 ; 0x202c <main+0x1ab8>
    1296: f0 2c        	beq	$12c4 <main+0xd50>
    1298: 85 25        	sta	$25                     ; 0x2025 <main+0x1ab1>
    129a: e0 41        	cpx	#$41
    129c: 90 bc        	bcc	$125a <main+0xce6>
    129e: 8a           	txa
    129f: c9 5b        	cmp	#$5b
    12a1: a0 20        	ldy	#$20
    12a3: b0 b7        	bcs	$125c <main+0xce8>
    12a5: 09 20        	ora	#$20
    12a7: aa           	tax
    12a8: 80 b2        	bra	$125c <main+0xce8>
    12aa: a4 23        	ldy	$23                     ; 0x2023 <main+0x1aaf>
    12ac: 84 28        	sty	$28                     ; 0x2028 <main+0x1ab4>
    12ae: a5 2e        	lda	$2e                     ; 0x202e <main+0x1aba>
    12b0: 4c ca 13     	jmp	$13ca <main+0xe56>
    12b3: 85 29        	sta	$29                     ; 0x2029 <main+0x1ab5>
    12b5: a9 2d        	lda	#$2d
    12b7: 18           	clc
    12b8: 65 1e        	adc	$1e                     ; 0x201e <main+0x1aaa>
    12ba: 85 26        	sta	$26                     ; 0x2026 <main+0x1ab2>
    12bc: a9 76        	lda	#$76
    12be: 65 1b        	adc	$1b                     ; 0x201b <main+0x1aa7>
    12c0: 85 27        	sta	$27                     ; 0x2027 <main+0x1ab3>
    12c2: 80 39        	bra	$12fd <main+0xd89>
    12c4: e0 41        	cpx	#$41
    12c6: a0 01        	ldy	#$1
    12c8: b0 02        	bcs	$12cc <main+0xd58>
    12ca: a0 00        	ldy	#$0
    12cc: 84 23        	sty	$23                     ; 0x2023 <main+0x1aaf>
    12ce: a5 26        	lda	$26                     ; 0x2026 <main+0x1ab2>
    12d0: 18           	clc
    12d1: 69 1f        	adc	#$1f
    12d3: 85 26        	sta	$26                     ; 0x2026 <main+0x1ab2>
    12d5: a5 27        	lda	$27                     ; 0x2027 <main+0x1ab3>
    12d7: 69 00        	adc	#$0
    12d9: 85 27        	sta	$27                     ; 0x2027 <main+0x1ab3>
    12db: a5 23        	lda	$23                     ; 0x2023 <main+0x1aaf>
    12dd: f0 1c        	beq	$12fb <main+0xd87>
    12df: e0 5b        	cpx	#$5b
    12e1: a0 20        	ldy	#$20
    12e3: 8a           	txa
    12e4: b0 02        	bcs	$12e8 <main+0xd74>
    12e6: 09 20        	ora	#$20
    12e8: 85 23        	sta	$23                     ; 0x2023 <main+0x1aaf>
    12ea: 80 13        	bra	$12ff <main+0xd8b>
    12ec: a5 26        	lda	$26                     ; 0x2026 <main+0x1ab2>
    12ee: 18           	clc
    12ef: 69 20        	adc	#$20
    12f1: 85 26        	sta	$26                     ; 0x2026 <main+0x1ab2>
    12f3: a5 27        	lda	$27                     ; 0x2027 <main+0x1ab3>
    12f5: 69 00        	adc	#$0
    12f7: 85 27        	sta	$27                     ; 0x2027 <main+0x1ab3>
    12f9: 80 04        	bra	$12ff <main+0xd8b>
    12fb: 86 23        	stx	$23                     ; 0x2023 <main+0x1aaf>
    12fd: a0 20        	ldy	#$20
    12ff: b2 26        	lda	($26)                   ; 0x2026 <main+0x1ab2>
    1301: c9 41        	cmp	#$41
    1303: 90 06        	bcc	$130b <main+0xd97>
    1305: c9 5b        	cmp	#$5b
    1307: b0 02        	bcs	$130b <main+0xd97>
    1309: 09 20        	ora	#$20
    130b: a6 23        	ldx	$23                     ; 0x2023 <main+0x1aaf>
    130d: 86 2c        	stx	$2c                     ; 0x202c <main+0x1ab8>
    130f: c5 2c        	cmp	$2c                     ; 0x202c <main+0x1ab8>
    1311: a5 2e        	lda	$2e                     ; 0x202e <main+0x1aba>
    1313: a6 24        	ldx	$24                     ; 0x2024 <main+0x1ab0>
    1315: 90 03        	bcc	$131a <main+0xda6>
    1317: 4c ca 13     	jmp	$13ca <main+0xe56>
    131a: a9 2d        	lda	#$2d
    131c: 18           	clc
    131d: 65 22        	adc	$22                     ; 0x2022 <main+0x1aae>
    131f: 85 22        	sta	$22                     ; 0x2022 <main+0x1aae>
    1321: a9 76        	lda	#$76
    1323: 65 1f        	adc	$1f                     ; 0x201f <main+0x1aab>
    1325: 85 23        	sta	$23                     ; 0x2023 <main+0x1aaf>
    1327: a5 29        	lda	$29                     ; 0x2029 <main+0x1ab5>
    1329: f0 28        	beq	$1353 <main+0xddf>
    132b: a5 16        	lda	$16                     ; 0x2016 <main+0x1aa2>
    132d: 85 26        	sta	$26                     ; 0x2026 <main+0x1ab2>
    132f: a5 17        	lda	$17                     ; 0x2017 <main+0x1aa3>
    1331: 85 27        	sta	$27                     ; 0x2027 <main+0x1ab3>
    1333: a5 12        	lda	$12                     ; 0x2012 <main+0x1a9e>
    1335: 85 2c        	sta	$2c                     ; 0x202c <main+0x1ab8>
    1337: a5 13        	lda	$13                     ; 0x2013 <main+0x1a9f>
    1339: 85 2d        	sta	$2d                     ; 0x202d <main+0x1ab9>
    133b: b2 26        	lda	($26)                   ; 0x2026 <main+0x1ab2>
    133d: 85 1f        	sta	$1f                     ; 0x201f <main+0x1aab>
    133f: b2 26        	lda	($26)                   ; 0x2026 <main+0x1ab2>
    1341: 92 2c        	sta	($2c)                   ; 0x202c <main+0x1ab8>
    1343: e6 2c        	inc	$2c                     ; 0x202c <main+0x1ab8>
    1345: d0 02        	bne	$1349 <main+0xdd5>
    1347: e6 2d        	inc	$2d                     ; 0x202d <main+0x1ab9>
    1349: e6 26        	inc	$26                     ; 0x2026 <main+0x1ab2>
    134b: d0 02        	bne	$134f <main+0xddb>
    134d: e6 27        	inc	$27                     ; 0x2027 <main+0x1ab3>
    134f: a5 1f        	lda	$1f                     ; 0x201f <main+0x1aab>
    1351: d0 e8        	bne	$133b <main+0xdc7>
    1353: a9 2d        	lda	#$2d
    1355: 18           	clc
    1356: 65 1e        	adc	$1e                     ; 0x201e <main+0x1aaa>
    1358: 85 1e        	sta	$1e                     ; 0x201e <main+0x1aaa>
    135a: a9 76        	lda	#$76
    135c: 65 1b        	adc	$1b                     ; 0x201b <main+0x1aa7>
    135e: 85 1f        	sta	$1f                     ; 0x201f <main+0x1aab>
    1360: b2 1e        	lda	($1e)                   ; 0x201e <main+0x1aaa>
    1362: 85 1b        	sta	$1b                     ; 0x201b <main+0x1aa7>
    1364: b2 1e        	lda	($1e)                   ; 0x201e <main+0x1aaa>
    1366: 92 22        	sta	($22)                   ; 0x2022 <main+0x1aae>
    1368: a5 1b        	lda	$1b                     ; 0x201b <main+0x1aa7>
    136a: f0 1a        	beq	$1386 <main+0xe12>
    136c: a5 16        	lda	$16                     ; 0x2016 <main+0x1aa2>
    136e: 85 22        	sta	$22                     ; 0x2022 <main+0x1aae>
    1370: a5 17        	lda	$17                     ; 0x2017 <main+0x1aa3>
    1372: 85 23        	sta	$23                     ; 0x2023 <main+0x1aaf>
    1374: b1 22        	lda	($22),y                 ; 0x2022 <main+0x1aae>
    1376: 85 1b        	sta	$1b                     ; 0x201b <main+0x1aa7>
    1378: b1 22        	lda	($22),y                 ; 0x2022 <main+0x1aae>
    137a: 92 22        	sta	($22)                   ; 0x2022 <main+0x1aae>
    137c: e6 22        	inc	$22                     ; 0x2022 <main+0x1aae>
    137e: d0 02        	bne	$1382 <main+0xe0e>
    1380: e6 23        	inc	$23                     ; 0x2023 <main+0x1aaf>
    1382: a5 1b        	lda	$1b                     ; 0x201b <main+0x1aa7>
    1384: d0 ee        	bne	$1374 <main+0xe00>
    1386: a5 29        	lda	$29                     ; 0x2029 <main+0x1ab5>
    1388: 92 1e        	sta	($1e)                   ; 0x201e <main+0x1aaa>
    138a: f0 26        	beq	$13b2 <main+0xe3e>
    138c: a4 12        	ldy	$12                     ; 0x2012 <main+0x1a9e>
    138e: 84 1e        	sty	$1e                     ; 0x201e <main+0x1aaa>
    1390: a4 13        	ldy	$13                     ; 0x2013 <main+0x1a9f>
    1392: 84 1f        	sty	$1f                     ; 0x201f <main+0x1aab>
    1394: a4 18        	ldy	$18                     ; 0x2018 <main+0x1aa4>
    1396: 84 22        	sty	$22                     ; 0x2022 <main+0x1aae>
    1398: a4 19        	ldy	$19                     ; 0x2019 <main+0x1aa5>
    139a: 84 23        	sty	$23                     ; 0x2023 <main+0x1aaf>
    139c: b2 1e        	lda	($1e)                   ; 0x201e <main+0x1aaa>
    139e: a8           	tay
    139f: b2 1e        	lda	($1e)                   ; 0x201e <main+0x1aaa>
    13a1: 92 22        	sta	($22)                   ; 0x2022 <main+0x1aae>
    13a3: e6 22        	inc	$22                     ; 0x2022 <main+0x1aae>
    13a5: d0 02        	bne	$13a9 <main+0xe35>
    13a7: e6 23        	inc	$23                     ; 0x2023 <main+0x1aaf>
    13a9: e6 1e        	inc	$1e                     ; 0x201e <main+0x1aaa>
    13ab: d0 02        	bne	$13af <main+0xe3b>
    13ad: e6 1f        	inc	$1f                     ; 0x201f <main+0x1aab>
    13af: 98           	tya
    13b0: d0 ea        	bne	$139c <main+0xe28>
    13b2: b2 1c        	lda	($1c)                   ; 0x201c <main+0x1aa8>
    13b4: 85 1b        	sta	$1b                     ; 0x201b <main+0x1aa7>
    13b6: a0 01        	ldy	#$1
    13b8: b1 1c        	lda	($1c),y                 ; 0x201c <main+0x1aa8>
    13ba: 92 1c        	sta	($1c)                   ; 0x201c <main+0x1aa8>
    13bc: a5 1b        	lda	$1b                     ; 0x201b <main+0x1aa7>
    13be: 85 28        	sta	$28                     ; 0x2028 <main+0x1ab4>
    13c0: 91 1c        	sta	($1c),y                 ; 0x201c <main+0x1aa8>
    13c2: ad 11 83     	lda	$8311                   ; 0x8311 <fpr+0xd26>
    13c5: ac 12 83     	ldy	$8312                   ; 0x8312 <fpr+0xd27>
    13c8: 84 2f        	sty	$2f                     ; 0x202f <main+0x1abb>
    13ca: 85 2e        	sta	$2e                     ; 0x202e <main+0x1aba>
    13cc: 38           	sec
    13cd: e5 15        	sbc	$15                     ; 0x2015 <main+0x1aa1>
    13cf: 85 1b        	sta	$1b                     ; 0x201b <main+0x1aa7>
    13d1: a4 2f        	ldy	$2f                     ; 0x202f <main+0x1abb>
    13d3: a5 2f        	lda	$2f                     ; 0x202f <main+0x1abb>
    13d5: e5 14        	sbc	$14                     ; 0x2014 <main+0x1aa0>
    13d7: 85 1c        	sta	$1c                     ; 0x201c <main+0x1aa8>
    13d9: a5 16        	lda	$16                     ; 0x2016 <main+0x1aa2>
    13db: 18           	clc
    13dc: 69 20        	adc	#$20
    13de: 85 16        	sta	$16                     ; 0x2016 <main+0x1aa2>
    13e0: a5 17        	lda	$17                     ; 0x2017 <main+0x1aa3>
    13e2: 69 00        	adc	#$0
    13e4: 85 17        	sta	$17                     ; 0x2017 <main+0x1aa3>
    13e6: a5 18        	lda	$18                     ; 0x2018 <main+0x1aa4>
    13e8: 18           	clc
    13e9: 69 20        	adc	#$20
    13eb: 85 18        	sta	$18                     ; 0x2018 <main+0x1aa4>
    13ed: a5 19        	lda	$19                     ; 0x2019 <main+0x1aa5>
    13ef: 69 00        	adc	#$0
    13f1: 85 19        	sta	$19                     ; 0x2019 <main+0x1aa5>
    13f3: e4 1b        	cpx	$1b                     ; 0x201b <main+0x1aa7>
    13f5: a5 1a        	lda	$1a                     ; 0x201a <main+0x1aa6>
    13f7: e5 1c        	sbc	$1c                     ; 0x201c <main+0x1aa8>
    13f9: 50 02        	bvc	$13fd <main+0xe89>
    13fb: 49 80        	eor	#$80
    13fd: 86 1e        	stx	$1e                     ; 0x201e <main+0x1aaa>
    13ff: 5a           	phy
    1400: a4 1a        	ldy	$1a                     ; 0x201a <main+0x1aa6>
    1402: 84 1b        	sty	$1b                     ; 0x201b <main+0x1aa7>
    1404: 7a           	ply
    1405: c9 00        	cmp	#$0
    1407: 30 03        	bmi	$140c <main+0xe98>
    1409: 4c 84 14     	jmp	$1484 <main+0xf10>
    140c: 84 2f        	sty	$2f                     ; 0x202f <main+0x1abb>
    140e: a9 ad        	lda	#$ad
    1410: 18           	clc
    1411: 65 1e        	adc	$1e                     ; 0x201e <main+0x1aaa>
    1413: 85 1c        	sta	$1c                     ; 0x201c <main+0x1aa8>
    1415: a9 82        	lda	#$82
    1417: 65 1b        	adc	$1b                     ; 0x201b <main+0x1aa7>
    1419: 85 1d        	sta	$1d                     ; 0x201d <main+0x1aa9>
    141b: a5 28        	lda	$28                     ; 0x2028 <main+0x1ab4>
    141d: 29 01        	and	#$1
    141f: 85 24        	sta	$24                     ; 0x2024 <main+0x1ab0>
    1421: a4 1b        	ldy	$1b                     ; 0x201b <main+0x1aa7>
    1423: 84 1a        	sty	$1a                     ; 0x201a <main+0x1aa6>
    1425: e8           	inx
    1426: d0 02        	bne	$142a <main+0xeb6>
    1428: e6 1a        	inc	$1a                     ; 0x201a <main+0x1aa6>
    142a: a5 1b        	lda	$1b                     ; 0x201b <main+0x1aa7>
    142c: 4a           	lsr
    142d: 66 1e        	ror	$1e                     ; 0x201e <main+0x1aaa>
    142f: 64 22        	stz	$22                     ; 0x2022 <main+0x1aae>
    1431: 66 22        	ror	$22                     ; 0x2022 <main+0x1aae>
    1433: 4a           	lsr
    1434: 66 1e        	ror	$1e                     ; 0x201e <main+0x1aaa>
    1436: 66 22        	ror	$22                     ; 0x2022 <main+0x1aae>
    1438: 4a           	lsr
    1439: 66 1e        	ror	$1e                     ; 0x201e <main+0x1aaa>
    143b: 66 22        	ror	$22                     ; 0x2022 <main+0x1aae>
    143d: a5 1a        	lda	$1a                     ; 0x201a <main+0x1aa6>
    143f: 4a           	lsr
    1440: 86 1b        	stx	$1b                     ; 0x201b <main+0x1aa7>
    1442: 66 1b        	ror	$1b                     ; 0x201b <main+0x1aa7>
    1444: 64 26        	stz	$26                     ; 0x2026 <main+0x1ab2>
    1446: 66 26        	ror	$26                     ; 0x2026 <main+0x1ab2>
    1448: 4a           	lsr
    1449: 66 1b        	ror	$1b                     ; 0x201b <main+0x1aa7>
    144b: 66 26        	ror	$26                     ; 0x2026 <main+0x1ab2>
    144d: 4a           	lsr
    144e: 66 1b        	ror	$1b                     ; 0x201b <main+0x1aa7>
    1450: 66 26        	ror	$26                     ; 0x2026 <main+0x1ab2>
    1452: a0 01        	ldy	#$1
    1454: b1 1c        	lda	($1c),y                 ; 0x201c <main+0x1aa8>
    1456: 85 23        	sta	$23                     ; 0x2023 <main+0x1aaf>
    1458: a4 1e        	ldy	$1e                     ; 0x201e <main+0x1aaa>
    145a: 84 1f        	sty	$1f                     ; 0x201f <main+0x1aab>
    145c: a4 26        	ldy	$26                     ; 0x2026 <main+0x1ab2>
    145e: 84 1e        	sty	$1e                     ; 0x201e <main+0x1aaa>
    1460: a4 24        	ldy	$24                     ; 0x2024 <main+0x1ab0>
    1462: f0 03        	beq	$1467 <main+0xef3>
    1464: 4c 2d 12     	jmp	$122d <main+0xcb9>
    1467: 29 01        	and	#$1
    1469: d0 03        	bne	$146e <main+0xefa>
    146b: 4c 2d 12     	jmp	$122d <main+0xcb9>
    146e: a9 2d        	lda	#$2d
    1470: 18           	clc
    1471: 65 22        	adc	$22                     ; 0x2022 <main+0x1aae>
    1473: 85 26        	sta	$26                     ; 0x2026 <main+0x1ab2>
    1475: a9 76        	lda	#$76
    1477: 65 1f        	adc	$1f                     ; 0x201f <main+0x1aab>
    1479: 85 27        	sta	$27                     ; 0x2027 <main+0x1ab3>
    147b: b2 26        	lda	($26)                   ; 0x2026 <main+0x1ab2>
    147d: 85 29        	sta	$29                     ; 0x2029 <main+0x1ab5>
    147f: a0 20        	ldy	#$20
    1481: 4c 1a 13     	jmp	$131a <main+0xda6>
    1484: a6 15        	ldx	$15                     ; 0x2015 <main+0x1aa1>
    1486: e8           	inx
    1487: d0 02        	bne	$148b <main+0xf17>
    1489: e6 14        	inc	$14                     ; 0x2014 <main+0x1aa0>
    148b: 84 16        	sty	$16                     ; 0x2016 <main+0x1aa2>
    148d: 84 18        	sty	$18                     ; 0x2018 <main+0x1aa4>
    148f: a4 2e        	ldy	$2e                     ; 0x202e <main+0x1aba>
    1491: 84 15        	sty	$15                     ; 0x2015 <main+0x1aa1>
    1493: a9 ff        	lda	#$ff
    1495: c6 15        	dec	$15                     ; 0x2015 <main+0x1aa1>
    1497: c5 15        	cmp	$15                     ; 0x2015 <main+0x1aa1>
    1499: d0 02        	bne	$149d <main+0xf29>
    149b: c6 16        	dec	$16                     ; 0x2016 <main+0x1aa2>
    149d: e4 15        	cpx	$15                     ; 0x2015 <main+0x1aa1>
    149f: a5 14        	lda	$14                     ; 0x2014 <main+0x1aa0>
    14a1: e5 16        	sbc	$16                     ; 0x2016 <main+0x1aa2>
    14a3: 50 02        	bvc	$14a7 <main+0xf33>
    14a5: 49 80        	eor	#$80
    14a7: 86 15        	stx	$15                     ; 0x2015 <main+0x1aa1>
    14a9: 84 16        	sty	$16                     ; 0x2016 <main+0x1aa2>
    14ab: a6 18        	ldx	$18                     ; 0x2018 <main+0x1aa4>
    14ad: 86 17        	stx	$17                     ; 0x2017 <main+0x1aa3>
    14af: aa           	tax
    14b0: 10 38        	bpl	$14ea <main+0xf76>
    14b2: 84 2e        	sty	$2e                     ; 0x202e <main+0x1aba>
    14b4: 98           	tya
    14b5: 38           	sec
    14b6: e5 15        	sbc	$15                     ; 0x2015 <main+0x1aa1>
    14b8: aa           	tax
    14b9: a5 18        	lda	$18                     ; 0x2018 <main+0x1aa4>
    14bb: e5 14        	sbc	$14                     ; 0x2014 <main+0x1aa0>
    14bd: e0 02        	cpx	#$2
    14bf: e9 00        	sbc	#$0
    14c1: a4 18        	ldy	$18                     ; 0x2018 <main+0x1aa4>
    14c3: 50 02        	bvc	$14c7 <main+0xf53>
    14c5: 49 80        	eor	#$80
    14c7: aa           	tax
    14c8: 30 ba        	bmi	$1484 <main+0xf10>
    14ca: ae ae 82     	ldx	$82ae                   ; 0x82ae <fpr+0xcc3>
    14cd: 86 28        	stx	$28                     ; 0x2028 <main+0x1ab4>
    14cf: a2 4e        	ldx	#$4e
    14d1: 86 16        	stx	$16                     ; 0x2016 <main+0x1aa2>
    14d3: a2 76        	ldx	#$76
    14d5: 86 17        	stx	$17                     ; 0x2017 <main+0x1aa3>
    14d7: a2 6e        	ldx	#$6e
    14d9: 86 18        	stx	$18                     ; 0x2018 <main+0x1aa4>
    14db: a2 76        	ldx	#$76
    14dd: 86 19        	stx	$19                     ; 0x2019 <main+0x1aa5>
    14df: a2 01        	ldx	#$1
    14e1: 64 1b        	stz	$1b                     ; 0x201b <main+0x1aa7>
    14e3: 86 1e        	stx	$1e                     ; 0x201e <main+0x1aaa>
    14e5: 4c 0c 14     	jmp	$140c <main+0xe98>
    14e8: 84 17        	sty	$17                     ; 0x2017 <main+0x1aa3>
    14ea: ad 15 83     	lda	$8315                   ; 0x8315 <fpr+0xd2a>
    14ed: 85 26        	sta	$26                     ; 0x2026 <main+0x1ab2>
    14ef: ac 16 83     	ldy	$8316                   ; 0x8316 <fpr+0xd2b>
    14f2: 84 27        	sty	$27                     ; 0x2027 <main+0x1ab3>
    14f4: 18           	clc
    14f5: 69 14        	adc	#$14
    14f7: aa           	tax
    14f8: 98           	tya
    14f9: 69 00        	adc	#$0
    14fb: 86 28        	stx	$28                     ; 0x2028 <main+0x1ab4>
    14fd: e4 16        	cpx	$16                     ; 0x2016 <main+0x1aa2>
    14ff: 85 29        	sta	$29                     ; 0x2029 <main+0x1ab5>
    1501: e5 17        	sbc	$17                     ; 0x2017 <main+0x1aa3>
    1503: 50 02        	bvc	$1507 <main+0xf93>
    1505: 49 80        	eor	#$80
    1507: aa           	tax
    1508: 30 08        	bmi	$1512 <main+0xf9e>
    150a: a6 16        	ldx	$16                     ; 0x2016 <main+0x1aa2>
    150c: 86 28        	stx	$28                     ; 0x2028 <main+0x1ab4>
    150e: a6 17        	ldx	$17                     ; 0x2017 <main+0x1aa3>
    1510: 86 29        	stx	$29                     ; 0x2029 <main+0x1ab5>
    1512: ae eb 75     	ldx	$75eb                   ; 0x75eb <fpr>
    1515: ac ec 75     	ldy	$75ec                   ; 0x75ec <fpr+0x1>
    1518: 86 33        	stx	$33                     ; 0x2033 <main+0x1abf>
    151a: 8e 14 d0     	stx	$d014                   ; 0xd014 <__heap_start+0x4caa>
    151d: 9c 15 d0     	stz	$d015                   ; 0xd015 <__heap_start+0x4cab>
    1520: 84 34        	sty	$34                     ; 0x2034 <main+0x1ac0>
    1522: 8c 16 d0     	sty	$d016                   ; 0xd016 <__heap_start+0x4cac>
    1525: 9c 17 d0     	stz	$d017                   ; 0xd017 <__heap_start+0x4cad>
    1528: ae 13 83     	ldx	$8313                   ; 0x8313 <fpr+0xd28>
    152b: ac 14 83     	ldy	$8314                   ; 0x8314 <fpr+0xd29>
    152e: d0 06        	bne	$1536 <main+0xfc2>
    1530: 8a           	txa
    1531: d0 03        	bne	$1536 <main+0xfc2>
    1533: 4c 5b 2b     	jmp	$2b5b <main+0x25e7>
    1536: 64 14        	stz	$14                     ; 0x2014 <main+0x1aa0>
    1538: a0 20        	ldy	#$20
    153a: ad ad 82     	lda	$82ad                   ; 0x82ad <fpr+0xcc2>
    153d: 29 01        	and	#$1
    153f: a2 68        	ldx	#$68
    1541: 86 12        	stx	$12                     ; 0x2012 <main+0x1a9e>
    1543: a2 47        	ldx	#$47
    1545: 86 13        	stx	$13                     ; 0x2013 <main+0x1a9f>
    1547: aa           	tax
    1548: d0 08        	bne	$1552 <main+0xfde>
    154a: a2 06        	ldx	#$6
    154c: 86 12        	stx	$12                     ; 0x2012 <main+0x1a9e>
    154e: a2 47        	ldx	#$47
    1550: 86 13        	stx	$13                     ; 0x2013 <main+0x1a9f>
    1552: a6 10        	ldx	$10                     ; 0x2010 <main+0x1a9c>
    1554: 98           	tya
    1555: 92 10        	sta	($10)                   ; 0x2010 <main+0x1a9c>
    1557: a0 01        	ldy	#$1
    1559: a9 00        	lda	#$0
    155b: 91 10        	sta	($10),y                 ; 0x2010 <main+0x1a9c>
    155d: a9 2d        	lda	#$2d
    155f: c8           	iny
    1560: 91 10        	sta	($10),y                 ; 0x2010 <main+0x1a9c>
    1562: 18           	clc
    1563: 8a           	txa
    1564: 69 02        	adc	#$2
    1566: 85 14        	sta	$14                     ; 0x2014 <main+0x1aa0>
    1568: a5 11        	lda	$11                     ; 0x2011 <main+0x1a9d>
    156a: 69 00        	adc	#$0
    156c: 18           	clc
    156d: 85 15        	sta	$15                     ; 0x2015 <main+0x1aa1>
    156f: a9 76        	lda	#$76
    1571: 88           	dey
    1572: 91 14        	sta	($14),y                 ; 0x2014 <main+0x1aa0>
    1574: 8a           	txa
    1575: 69 04        	adc	#$4
    1577: 85 14        	sta	$14                     ; 0x2014 <main+0x1aa0>
    1579: a5 11        	lda	$11                     ; 0x2011 <main+0x1a9d>
    157b: 69 00        	adc	#$0
    157d: a0 04        	ldy	#$4
    157f: 85 15        	sta	$15                     ; 0x2015 <main+0x1aa1>
    1581: a5 12        	lda	$12                     ; 0x2012 <main+0x1a9e>
    1583: 91 10        	sta	($10),y                 ; 0x2010 <main+0x1a9c>
    1585: a0 01        	ldy	#$1
    1587: a5 13        	lda	$13                     ; 0x2013 <main+0x1a9f>
    1589: 91 14        	sta	($14),y                 ; 0x2014 <main+0x1aa0>
    158b: a2 2c        	ldx	#$2c
    158d: 86 12        	stx	$12                     ; 0x2012 <main+0x1a9e>
    158f: a2 48        	ldx	#$48
    1591: 86 13        	stx	$13                     ; 0x2013 <main+0x1a9f>
    1593: 20 54 41     	jsr	$4154 <printf>
    1596: a6 26        	ldx	$26                     ; 0x2026 <main+0x1ab2>
    1598: a4 27        	ldy	$27                     ; 0x2027 <main+0x1ab3>
    159a: e8           	inx
    159b: d0 01        	bne	$159e <main+0x102a>
    159d: c8           	iny
    159e: 86 13        	stx	$13                     ; 0x2013 <main+0x1a9f>
    15a0: e4 28        	cpx	$28                     ; 0x2028 <main+0x1ab4>
    15a2: 98           	tya
    15a3: e5 29        	sbc	$29                     ; 0x2029 <main+0x1ab5>
    15a5: 50 02        	bvc	$15a9 <main+0x1035>
    15a7: 49 80        	eor	#$80
    15a9: aa           	tax
    15aa: 30 03        	bmi	$15af <main+0x103b>
    15ac: 4c a4 16     	jmp	$16a4 <main+0x1130>
    15af: a9 eb        	lda	#$eb
    15b1: 18           	clc
    15b2: 65 26        	adc	$26                     ; 0x2026 <main+0x1ab2>
    15b4: aa           	tax
    15b5: a9 75        	lda	#$75
    15b7: 65 27        	adc	$27                     ; 0x2027 <main+0x1ab3>
    15b9: 85 12        	sta	$12                     ; 0x2012 <main+0x1a9e>
    15bb: 18           	clc
    15bc: 8a           	txa
    15bd: 69 c3        	adc	#$c3
    15bf: 85 2c        	sta	$2c                     ; 0x202c <main+0x1ab8>
    15c1: a5 12        	lda	$12                     ; 0x2012 <main+0x1a9e>
    15c3: 69 0c        	adc	#$c
    15c5: 85 2d        	sta	$2d                     ; 0x202d <main+0x1ab9>
    15c7: a9 00        	lda	#$0
    15c9: 46 27        	lsr	$27                     ; 0x2027 <main+0x1ab3>
    15cb: 66 26        	ror	$26                     ; 0x2026 <main+0x1ab2>
    15cd: 6a           	ror
    15ce: 46 27        	lsr	$27                     ; 0x2027 <main+0x1ab3>
    15d0: 66 26        	ror	$26                     ; 0x2026 <main+0x1ab2>
    15d2: 6a           	ror
    15d3: 46 27        	lsr	$27                     ; 0x2027 <main+0x1ab3>
    15d5: 66 26        	ror	$26                     ; 0x2026 <main+0x1ab2>
    15d7: 6a           	ror
    15d8: 85 12        	sta	$12                     ; 0x2012 <main+0x1a9e>
    15da: a9 eb        	lda	#$eb
    15dc: 18           	clc
    15dd: 65 12        	adc	$12                     ; 0x2012 <main+0x1a9e>
    15df: 85 12        	sta	$12                     ; 0x2012 <main+0x1a9e>
    15e1: a9 75        	lda	#$75
    15e3: 65 26        	adc	$26                     ; 0x2026 <main+0x1ab2>
    15e5: aa           	tax
    15e6: 18           	clc
    15e7: a5 12        	lda	$12                     ; 0x2012 <main+0x1a9e>
    15e9: 69 62        	adc	#$62
    15eb: 85 26        	sta	$26                     ; 0x2026 <main+0x1ab2>
    15ed: 8a           	txa
    15ee: 69 00        	adc	#$0
    15f0: 85 27        	sta	$27                     ; 0x2027 <main+0x1ab3>
    15f2: a5 13        	lda	$13                     ; 0x2013 <main+0x1a9f>
    15f4: cc 14 83     	cpy	$8314                   ; 0x8314 <fpr+0xd29>
    15f7: d0 1e        	bne	$1617 <main+0x10a3>
    15f9: ae 13 83     	ldx	$8313                   ; 0x8313 <fpr+0xd28>
    15fc: 86 12        	stx	$12                     ; 0x2012 <main+0x1a9e>
    15fe: c5 12        	cmp	$12                     ; 0x2012 <main+0x1a9e>
    1600: d0 15        	bne	$1617 <main+0x10a3>
    1602: 85 25        	sta	$25                     ; 0x2025 <main+0x1ab1>
    1604: 84 24        	sty	$24                     ; 0x2024 <main+0x1ab0>
    1606: a2 fa        	ldx	#$fa
    1608: 86 35        	stx	$35                     ; 0x2035 <main+0x1ac1>
    160a: a2 35        	ldx	#$35
    160c: 86 12        	stx	$12                     ; 0x2012 <main+0x1a9e>
    160e: a2 00        	ldx	#$0
    1610: 86 13        	stx	$13                     ; 0x2013 <main+0x1a9f>
    1612: 20 c5 2c     	jsr	$2cc5 <textPrint>
    1615: 80 0f        	bra	$1626 <main+0x10b2>
    1617: 85 25        	sta	$25                     ; 0x2025 <main+0x1ab1>
    1619: 84 24        	sty	$24                     ; 0x2024 <main+0x1ab0>
    161b: a2 34        	ldx	#$34
    161d: 86 12        	stx	$12                     ; 0x2012 <main+0x1a9e>
    161f: a2 48        	ldx	#$48
    1621: 86 13        	stx	$13                     ; 0x2013 <main+0x1a9f>
    1623: 20 54 41     	jsr	$4154 <printf>
    1626: b2 2c        	lda	($2c)                   ; 0x202c <main+0x1ab8>
    1628: 29 01        	and	#$1
    162a: a2 68        	ldx	#$68
    162c: 86 12        	stx	$12                     ; 0x2012 <main+0x1a9e>
    162e: a2 47        	ldx	#$47
    1630: 86 13        	stx	$13                     ; 0x2013 <main+0x1a9f>
    1632: aa           	tax
    1633: d0 08        	bne	$163d <main+0x10c9>
    1635: a2 06        	ldx	#$6
    1637: 86 12        	stx	$12                     ; 0x2012 <main+0x1a9e>
    1639: a2 47        	ldx	#$47
    163b: 86 13        	stx	$13                     ; 0x2013 <main+0x1a9f>
    163d: a5 10        	lda	$10                     ; 0x2010 <main+0x1a9c>
    163f: a6 11        	ldx	$11                     ; 0x2011 <main+0x1a9d>
    1641: 18           	clc
    1642: 69 02        	adc	#$2
    1644: 85 14        	sta	$14                     ; 0x2014 <main+0x1aa0>
    1646: 8a           	txa
    1647: 69 00        	adc	#$0
    1649: 85 15        	sta	$15                     ; 0x2015 <main+0x1aa1>
    164b: a5 12        	lda	$12                     ; 0x2012 <main+0x1a9e>
    164d: a0 02        	ldy	#$2
    164f: 91 10        	sta	($10),y                 ; 0x2010 <main+0x1a9c>
    1651: a5 13        	lda	$13                     ; 0x2013 <main+0x1a9f>
    1653: 88           	dey
    1654: 91 14        	sta	($14),y                 ; 0x2014 <main+0x1aa0>
    1656: a5 26        	lda	$26                     ; 0x2026 <main+0x1ab2>
    1658: 92 10        	sta	($10)                   ; 0x2010 <main+0x1a9c>
    165a: a5 27        	lda	$27                     ; 0x2027 <main+0x1ab3>
    165c: 91 10        	sta	($10),y                 ; 0x2010 <main+0x1a9c>
    165e: a2 d0        	ldx	#$d0
    1660: 86 12        	stx	$12                     ; 0x2012 <main+0x1a9e>
    1662: a2 47        	ldx	#$47
    1664: 86 13        	stx	$13                     ; 0x2013 <main+0x1a9f>
    1666: 20 54 41     	jsr	$4154 <printf>
    1669: a6 25        	ldx	$25                     ; 0x2025 <main+0x1ab1>
    166b: 86 12        	stx	$12                     ; 0x2012 <main+0x1a9e>
    166d: a6 24        	ldx	$24                     ; 0x2024 <main+0x1ab0>
    166f: 86 13        	stx	$13                     ; 0x2013 <main+0x1a9f>
    1671: e6 12        	inc	$12                     ; 0x2012 <main+0x1a9e>
    1673: d0 02        	bne	$1677 <main+0x1103>
    1675: e6 13        	inc	$13                     ; 0x2013 <main+0x1a9f>
    1677: e6 2c        	inc	$2c                     ; 0x202c <main+0x1ab8>
    1679: d0 02        	bne	$167d <main+0x1109>
    167b: e6 2d        	inc	$2d                     ; 0x202d <main+0x1ab9>
    167d: 18           	clc
    167e: a5 26        	lda	$26                     ; 0x2026 <main+0x1ab2>
    1680: 69 20        	adc	#$20
    1682: 85 26        	sta	$26                     ; 0x2026 <main+0x1ab2>
    1684: a5 27        	lda	$27                     ; 0x2027 <main+0x1ab3>
    1686: 69 00        	adc	#$0
    1688: 85 27        	sta	$27                     ; 0x2027 <main+0x1ab3>
    168a: a5 12        	lda	$12                     ; 0x2012 <main+0x1a9e>
    168c: a4 13        	ldy	$13                     ; 0x2013 <main+0x1a9f>
    168e: a6 29        	ldx	$29                     ; 0x2029 <main+0x1ab5>
    1690: e4 13        	cpx	$13                     ; 0x2013 <main+0x1a9f>
    1692: f0 03        	beq	$1697 <main+0x1123>
    1694: 4c f4 15     	jmp	$15f4 <main+0x1080>
    1697: a5 12        	lda	$12                     ; 0x2012 <main+0x1a9e>
    1699: a4 13        	ldy	$13                     ; 0x2013 <main+0x1a9f>
    169b: a6 28        	ldx	$28                     ; 0x2028 <main+0x1ab4>
    169d: e4 12        	cpx	$12                     ; 0x2012 <main+0x1a9e>
    169f: f0 03        	beq	$16a4 <main+0x1130>
    16a1: 4c f4 15     	jmp	$15f4 <main+0x1080>
    16a4: a2 00        	ldx	#$0
    16a6: 86 26        	stx	$26                     ; 0x2026 <main+0x1ab2>
    16a8: a2 00        	ldx	#$0
    16aa: 86 27        	stx	$27                     ; 0x2027 <main+0x1ab3>
    16ac: a2 ed        	ldx	#$ed
    16ae: a0 75        	ldy	#$75
    16b0: 86 2c        	stx	$2c                     ; 0x202c <main+0x1ab8>
    16b2: 84 2d        	sty	$2d                     ; 0x202d <main+0x1ab9>
    16b4: 80 07        	bra	$16bd <main+0x1149>
    16b6: c9 02        	cmp	#$2
    16b8: d0 03        	bne	$16bd <main+0x1149>
    16ba: 4c 5e 18     	jmp	$185e <main+0x12ea>
    16bd: 20 b0 2f     	jsr	$2fb0 <pickFile>
    16c0: aa           	tax
    16c1: f0 5c        	beq	$171f <main+0x11ab>
    16c3: c9 01        	cmp	#$1
    16c5: d0 ef        	bne	$16b6 <main+0x1142>
    16c7: 64 2e        	stz	$2e                     ; 0x202e <main+0x1aba>
    16c9: 64 33        	stz	$33                     ; 0x2033 <main+0x1abf>
    16cb: 9c 14 d0     	stz	$d014                   ; 0xd014 <__heap_start+0x4caa>
    16ce: 9c 15 d0     	stz	$d015                   ; 0xd015 <__heap_start+0x4cab>
    16d1: a2 14        	ldx	#$14
    16d3: 86 34        	stx	$34                     ; 0x2034 <main+0x1ac0>
    16d5: 8e 16 d0     	stx	$d016                   ; 0xd016 <__heap_start+0x4cac>
    16d8: 9c 17 d0     	stz	$d017                   ; 0xd017 <__heap_start+0x4cad>
    16db: a9 0d        	lda	#$d
    16dd: 92 10        	sta	($10)                   ; 0x2010 <main+0x1a9c>
    16df: a0 01        	ldy	#$1
    16e1: a9 76        	lda	#$76
    16e3: 91 10        	sta	($10),y                 ; 0x2010 <main+0x1a9c>
    16e5: a2 f0        	ldx	#$f0
    16e7: 86 12        	stx	$12                     ; 0x2012 <main+0x1a9e>
    16e9: a2 47        	ldx	#$47
    16eb: 86 13        	stx	$13                     ; 0x2013 <main+0x1a9f>
    16ed: 20 54 41     	jsr	$4154 <printf>
    16f0: a2 20        	ldx	#$20
    16f2: 64 14        	stz	$14                     ; 0x2014 <main+0x1aa0>
    16f4: 80 06        	bra	$16fc <main+0x1188>
    16f6: e6 2e        	inc	$2e                     ; 0x202e <main+0x1aba>
    16f8: a5 14        	lda	$14                     ; 0x2014 <main+0x1aa0>
    16fa: f0 1d        	beq	$1719 <main+0x11a5>
    16fc: a4 2e        	ldy	$2e                     ; 0x202e <main+0x1aba>
    16fe: b9 0d 76     	lda	$760d,y                 ; 0x760d <fpr+0x22>
    1701: 85 12        	sta	$12                     ; 0x2012 <main+0x1a9e>
    1703: b9 0d 76     	lda	$760d,y                 ; 0x760d <fpr+0x22>
    1706: 99 ed 75     	sta	$75ed,y                 ; 0x75ed <fpr+0x2>
    1709: a5 12        	lda	$12                     ; 0x2012 <main+0x1a9e>
    170b: d0 03        	bne	$1710 <main+0x119c>
    170d: 4c 6d 17     	jmp	$176d <main+0x11f9>
    1710: ca           	dex
    1711: e0 ff        	cpx	#$ff
    1713: d0 e1        	bne	$16f6 <main+0x1182>
    1715: c6 14        	dec	$14                     ; 0x2014 <main+0x1aa0>
    1717: 80 dd        	bra	$16f6 <main+0x1182>
    1719: 8a           	txa
    171a: d0 e0        	bne	$16fc <main+0x1188>
    171c: 4c 8d 17     	jmp	$178d <main+0x1219>
    171f: 64 2e        	stz	$2e                     ; 0x202e <main+0x1aba>
    1721: 64 33        	stz	$33                     ; 0x2033 <main+0x1abf>
    1723: 9c 14 d0     	stz	$d014                   ; 0xd014 <__heap_start+0x4caa>
    1726: 9c 15 d0     	stz	$d015                   ; 0xd015 <__heap_start+0x4cab>
    1729: a2 14        	ldx	#$14
    172b: 86 34        	stx	$34                     ; 0x2034 <main+0x1ac0>
    172d: 8e 16 d0     	stx	$d016                   ; 0xd016 <__heap_start+0x4cac>
    1730: 9c 17 d0     	stz	$d017                   ; 0xd017 <__heap_start+0x4cad>
    1733: a2 67        	ldx	#$67
    1735: 86 12        	stx	$12                     ; 0x2012 <main+0x1a9e>
    1737: a2 48        	ldx	#$48
    1739: 86 13        	stx	$13                     ; 0x2013 <main+0x1a9f>
    173b: 20 54 41     	jsr	$4154 <printf>
    173e: a2 20        	ldx	#$20
    1740: 64 14        	stz	$14                     ; 0x2014 <main+0x1aa0>
    1742: 80 06        	bra	$174a <main+0x11d6>
    1744: e6 2e        	inc	$2e                     ; 0x202e <main+0x1aba>
    1746: a5 14        	lda	$14                     ; 0x2014 <main+0x1aa0>
    1748: f0 1d        	beq	$1767 <main+0x11f3>
    174a: a4 2e        	ldy	$2e                     ; 0x202e <main+0x1aba>
    174c: b9 0d 76     	lda	$760d,y                 ; 0x760d <fpr+0x22>
    174f: 85 12        	sta	$12                     ; 0x2012 <main+0x1a9e>
    1751: b9 0d 76     	lda	$760d,y                 ; 0x760d <fpr+0x22>
    1754: 99 ed 75     	sta	$75ed,y                 ; 0x75ed <fpr+0x2>
    1757: a5 12        	lda	$12                     ; 0x2012 <main+0x1a9e>
    1759: d0 03        	bne	$175e <main+0x11ea>
    175b: 4c d1 17     	jmp	$17d1 <main+0x125d>
    175e: ca           	dex
    175f: e0 ff        	cpx	#$ff
    1761: d0 e1        	bne	$1744 <main+0x11d0>
    1763: c6 14        	dec	$14                     ; 0x2014 <main+0x1aa0>
    1765: 80 dd        	bra	$1744 <main+0x11d0>
    1767: 8a           	txa
    1768: d0 e0        	bne	$174a <main+0x11d6>
    176a: 4c f1 17     	jmp	$17f1 <main+0x127d>
    176d: ca           	dex
    176e: e0 ff        	cpx	#$ff
    1770: d0 02        	bne	$1774 <main+0x1200>
    1772: c6 14        	dec	$14                     ; 0x2014 <main+0x1aa0>
    1774: a5 14        	lda	$14                     ; 0x2014 <main+0x1aa0>
    1776: d0 03        	bne	$177b <main+0x1207>
    1778: 8a           	txa
    1779: f0 12        	beq	$178d <main+0x1219>
    177b: a9 ee        	lda	#$ee
    177d: 18           	clc
    177e: 65 2e        	adc	$2e                     ; 0x202e <main+0x1aba>
    1780: 85 12        	sta	$12                     ; 0x2012 <main+0x1a9e>
    1782: a9 75        	lda	#$75
    1784: 69 00        	adc	#$0
    1786: 85 13        	sta	$13                     ; 0x2013 <main+0x1a9f>
    1788: a9 00        	lda	#$0
    178a: 20 41 46     	jsr	$4641 <__memset>
    178d: ad ed 75     	lda	$75ed                   ; 0x75ed <fpr+0x2>
    1790: d0 03        	bne	$1795 <main+0x1221>
    1792: 4c bd 16     	jmp	$16bd <main+0x1149>
    1795: c9 2f        	cmp	#$2f
    1797: d0 0c        	bne	$17a5 <main+0x1231>
    1799: ae ee 75     	ldx	$75ee                   ; 0x75ee <fpr+0x3>
    179c: a9 2f        	lda	#$2f
    179e: e0 00        	cpx	#$0
    17a0: d0 03        	bne	$17a5 <main+0x1231>
    17a2: 4c bd 16     	jmp	$16bd <main+0x1149>
    17a5: a2 ed        	ldx	#$ed
    17a7: 86 14        	stx	$14                     ; 0x2014 <main+0x1aa0>
    17a9: a2 75        	ldx	#$75
    17ab: 86 15        	stx	$15                     ; 0x2015 <main+0x1aa1>
    17ad: a2 00        	ldx	#$0
    17af: 86 12        	stx	$12                     ; 0x2012 <main+0x1a9e>
    17b1: a2 00        	ldx	#$0
    17b3: 86 13        	stx	$13                     ; 0x2013 <main+0x1a9f>
    17b5: a0 01        	ldy	#$1
    17b7: c9 2f        	cmp	#$2f
    17b9: d0 08        	bne	$17c3 <main+0x124f>
    17bb: a6 14        	ldx	$14                     ; 0x2014 <main+0x1aa0>
    17bd: 86 12        	stx	$12                     ; 0x2012 <main+0x1a9e>
    17bf: a6 15        	ldx	$15                     ; 0x2015 <main+0x1aa1>
    17c1: 86 13        	stx	$13                     ; 0x2013 <main+0x1a9f>
    17c3: b1 14        	lda	($14),y                 ; 0x2014 <main+0x1aa0>
    17c5: e6 14        	inc	$14                     ; 0x2014 <main+0x1aa0>
    17c7: d0 02        	bne	$17cb <main+0x1257>
    17c9: e6 15        	inc	$15                     ; 0x2015 <main+0x1aa1>
    17cb: aa           	tax
    17cc: d0 e9        	bne	$17b7 <main+0x1243>
    17ce: 4c 32 18     	jmp	$1832 <main+0x12be>
    17d1: ca           	dex
    17d2: e0 ff        	cpx	#$ff
    17d4: d0 02        	bne	$17d8 <main+0x1264>
    17d6: c6 14        	dec	$14                     ; 0x2014 <main+0x1aa0>
    17d8: a5 14        	lda	$14                     ; 0x2014 <main+0x1aa0>
    17da: d0 03        	bne	$17df <main+0x126b>
    17dc: 8a           	txa
    17dd: f0 12        	beq	$17f1 <main+0x127d>
    17df: a9 ee        	lda	#$ee
    17e1: 18           	clc
    17e2: 65 2e        	adc	$2e                     ; 0x202e <main+0x1aba>
    17e4: 85 12        	sta	$12                     ; 0x2012 <main+0x1a9e>
    17e6: a9 75        	lda	#$75
    17e8: 69 00        	adc	#$0
    17ea: 85 13        	sta	$13                     ; 0x2013 <main+0x1a9f>
    17ec: a9 00        	lda	#$0
    17ee: 20 41 46     	jsr	$4641 <__memset>
    17f1: ad ed 75     	lda	$75ed                   ; 0x75ed <fpr+0x2>
    17f4: d0 03        	bne	$17f9 <main+0x1285>
    17f6: 4c bd 16     	jmp	$16bd <main+0x1149>
    17f9: c9 2f        	cmp	#$2f
    17fb: d0 0c        	bne	$1809 <main+0x1295>
    17fd: ae ee 75     	ldx	$75ee                   ; 0x75ee <fpr+0x3>
    1800: a9 2f        	lda	#$2f
    1802: e0 00        	cpx	#$0
    1804: d0 03        	bne	$1809 <main+0x1295>
    1806: 4c bd 16     	jmp	$16bd <main+0x1149>
    1809: a2 ed        	ldx	#$ed
    180b: 86 14        	stx	$14                     ; 0x2014 <main+0x1aa0>
    180d: a2 75        	ldx	#$75
    180f: 86 15        	stx	$15                     ; 0x2015 <main+0x1aa1>
    1811: a2 00        	ldx	#$0
    1813: 86 12        	stx	$12                     ; 0x2012 <main+0x1a9e>
    1815: a2 00        	ldx	#$0
    1817: 86 13        	stx	$13                     ; 0x2013 <main+0x1a9f>
    1819: a0 01        	ldy	#$1
    181b: c9 2f        	cmp	#$2f
    181d: d0 08        	bne	$1827 <main+0x12b3>
    181f: a6 14        	ldx	$14                     ; 0x2014 <main+0x1aa0>
    1821: 86 12        	stx	$12                     ; 0x2012 <main+0x1a9e>
    1823: a6 15        	ldx	$15                     ; 0x2015 <main+0x1aa1>
    1825: 86 13        	stx	$13                     ; 0x2013 <main+0x1a9f>
    1827: b1 14        	lda	($14),y                 ; 0x2014 <main+0x1aa0>
    1829: e6 14        	inc	$14                     ; 0x2014 <main+0x1aa0>
    182b: d0 02        	bne	$182f <main+0x12bb>
    182d: e6 15        	inc	$15                     ; 0x2015 <main+0x1aa1>
    182f: aa           	tax
    1830: d0 e9        	bne	$181b <main+0x12a7>
    1832: a6 13        	ldx	$13                     ; 0x2013 <main+0x1a9f>
    1834: e4 27        	cpx	$27                     ; 0x2027 <main+0x1ab3>
    1836: d0 06        	bne	$183e <main+0x12ca>
    1838: a6 12        	ldx	$12                     ; 0x2012 <main+0x1a9e>
    183a: e4 26        	cpx	$26                     ; 0x2026 <main+0x1ab2>
    183c: f0 0c        	beq	$184a <main+0x12d6>
    183e: a6 13        	ldx	$13                     ; 0x2013 <main+0x1a9f>
    1840: e4 2d        	cpx	$2d                     ; 0x202d <main+0x1ab9>
    1842: d0 13        	bne	$1857 <main+0x12e3>
    1844: a6 12        	ldx	$12                     ; 0x2012 <main+0x1a9e>
    1846: e4 2c        	cpx	$2c                     ; 0x202c <main+0x1ab8>
    1848: d0 0d        	bne	$1857 <main+0x12e3>
    184a: a6 30        	ldx	$30                     ; 0x2030 <main+0x1abc>
    184c: 8e ed 75     	stx	$75ed                   ; 0x75ed <fpr+0x2>
    184f: a6 31        	ldx	$31                     ; 0x2031 <main+0x1abd>
    1851: 8e ee 75     	stx	$75ee                   ; 0x75ee <fpr+0x3>
    1854: 4c bd 16     	jmp	$16bd <main+0x1149>
    1857: a9 00        	lda	#$0
    1859: 92 12        	sta	($12)                   ; 0x2012 <main+0x1a9e>
    185b: 4c bd 16     	jmp	$16bd <main+0x1149>
    185e: 64 33        	stz	$33                     ; 0x2033 <main+0x1abf>
    1860: 9c 14 d0     	stz	$d014                   ; 0xd014 <__heap_start+0x4caa>
    1863: 9c 15 d0     	stz	$d015                   ; 0xd015 <__heap_start+0x4cab>
    1866: a2 14        	ldx	#$14
    1868: 86 34        	stx	$34                     ; 0x2034 <main+0x1ac0>
    186a: 8e 16 d0     	stx	$d016                   ; 0xd016 <__heap_start+0x4cac>
    186d: 9c 17 d0     	stz	$d017                   ; 0xd017 <__heap_start+0x4cad>
    1870: a9 0d        	lda	#$d
    1872: 92 10        	sta	($10)                   ; 0x2010 <main+0x1a9c>
    1874: a0 01        	ldy	#$1
    1876: a9 76        	lda	#$76
    1878: 91 10        	sta	($10),y                 ; 0x2010 <main+0x1a9c>
    187a: a2 6e        	ldx	#$6e
    187c: 86 12        	stx	$12                     ; 0x2012 <main+0x1a9e>
    187e: a2 47        	ldx	#$47
    1880: 86 13        	stx	$13                     ; 0x2013 <main+0x1a9f>
    1882: 20 54 41     	jsr	$4154 <printf>
    1885: a2 04        	ldx	#$4
    1887: 8e 01 d0     	stx	$d001                   ; 0xd001 <__heap_start+0x4c97>
    188a: a6 10        	ldx	$10                     ; 0x2010 <main+0x1a9c>
    188c: a0 02        	ldy	#$2
    188e: a9 ed        	lda	#$ed
    1890: 91 10        	sta	($10),y                 ; 0x2010 <main+0x1a9c>
    1892: a9 87        	lda	#$87
    1894: 92 10        	sta	($10)                   ; 0x2010 <main+0x1a9c>
    1896: a9 47        	lda	#$47
    1898: 88           	dey
    1899: 91 10        	sta	($10),y                 ; 0x2010 <main+0x1a9c>
    189b: 18           	clc
    189c: 8a           	txa
    189d: 69 02        	adc	#$2
    189f: 85 12        	sta	$12                     ; 0x2012 <main+0x1a9e>
    18a1: a5 11        	lda	$11                     ; 0x2011 <main+0x1a9d>
    18a3: 69 00        	adc	#$0
    18a5: 85 13        	sta	$13                     ; 0x2013 <main+0x1a9f>
    18a7: a9 75        	lda	#$75
    18a9: 91 12        	sta	($12),y                 ; 0x2012 <main+0x1a9e>
    18ab: 18           	clc
    18ac: 8a           	txa
    18ad: 69 04        	adc	#$4
    18af: 85 12        	sta	$12                     ; 0x2012 <main+0x1a9e>
    18b1: a5 11        	lda	$11                     ; 0x2011 <main+0x1a9d>
    18b3: 69 00        	adc	#$0
    18b5: 85 13        	sta	$13                     ; 0x2013 <main+0x1a9f>
    18b7: a9 68        	lda	#$68
    18b9: a0 04        	ldy	#$4
    18bb: 91 10        	sta	($10),y                 ; 0x2010 <main+0x1a9c>
    18bd: a9 47        	lda	#$47
    18bf: a0 01        	ldy	#$1
    18c1: 91 12        	sta	($12),y                 ; 0x2012 <main+0x1a9e>
    18c3: 18           	clc
    18c4: 8a           	txa
    18c5: 69 06        	adc	#$6
    18c7: 85 12        	sta	$12                     ; 0x2012 <main+0x1a9e>
    18c9: a5 11        	lda	$11                     ; 0x2011 <main+0x1a9d>
    18cb: 69 00        	adc	#$0
    18cd: 85 13        	sta	$13                     ; 0x2013 <main+0x1a9f>
    18cf: a9 0d        	lda	#$d
    18d1: a0 06        	ldy	#$6
    18d3: 91 10        	sta	($10),y                 ; 0x2010 <main+0x1a9c>
    18d5: a9 76        	lda	#$76
    18d7: a0 01        	ldy	#$1
    18d9: 91 12        	sta	($12),y                 ; 0x2012 <main+0x1a9e>
    18db: 20 dc 41     	jsr	$41dc <sprintf>
    18de: a9 23        	lda	#$23
    18e0: 92 10        	sta	($10)                   ; 0x2010 <main+0x1a9c>
    18e2: a0 01        	ldy	#$1
    18e4: a9 83        	lda	#$83
    18e6: 91 10        	sta	($10),y                 ; 0x2010 <main+0x1a9c>
    18e8: a2 f8        	ldx	#$f8
    18ea: 86 12        	stx	$12                     ; 0x2012 <main+0x1a9e>
    18ec: a2 46        	ldx	#$46
    18ee: 86 13        	stx	$13                     ; 0x2013 <main+0x1a9f>
    18f0: 20 54 41     	jsr	$4154 <printf>
    18f3: ae 23 83     	ldx	$8323                   ; 0x8323 <finalName>
    18f6: d0 03        	bne	$18fb <main+0x1387>
    18f8: 4c 4d 19     	jmp	$194d <main+0x13d9>
    18fb: 86 14        	stx	$14                     ; 0x2014 <main+0x1aa0>
    18fd: 64 12        	stz	$12                     ; 0x2012 <main+0x1a9e>
    18ff: 64 13        	stz	$13                     ; 0x2013 <main+0x1a9f>
    1901: a4 13        	ldy	$13                     ; 0x2013 <main+0x1a9f>
    1903: a6 12        	ldx	$12                     ; 0x2012 <main+0x1a9e>
    1905: e8           	inx
    1906: d0 01        	bne	$1909 <main+0x1395>
    1908: c8           	iny
    1909: a9 24        	lda	#$24
    190b: 18           	clc
    190c: 65 12        	adc	$12                     ; 0x2012 <main+0x1a9e>
    190e: 85 12        	sta	$12                     ; 0x2012 <main+0x1a9e>
    1910: a9 83        	lda	#$83
    1912: 65 13        	adc	$13                     ; 0x2013 <main+0x1a9f>
    1914: 85 13        	sta	$13                     ; 0x2013 <main+0x1a9f>
    1916: b2 12        	lda	($12)                   ; 0x2012 <main+0x1a9e>
    1918: 86 12        	stx	$12                     ; 0x2012 <main+0x1a9e>
    191a: 84 13        	sty	$13                     ; 0x2013 <main+0x1a9f>
    191c: d0 e3        	bne	$1901 <main+0x138d>
    191e: a9 25        	lda	#$25
    1920: 85 28        	sta	$28                     ; 0x2028 <main+0x1ab4>
    1922: a9 83        	lda	#$83
    1924: 85 29        	sta	$29                     ; 0x2029 <main+0x1ab5>
    1926: 98           	tya
    1927: d0 06        	bne	$192f <main+0x13bb>
    1929: e0 02        	cpx	#$2
    192b: b0 06        	bcs	$1933 <main+0x13bf>
    192d: 80 1e        	bra	$194d <main+0x13d9>
    192f: c0 00        	cpy	#$0
    1931: 90 1a        	bcc	$194d <main+0x13d9>
    1933: ae 24 83     	ldx	$8324                   ; 0x8324 <finalName+0x1>
    1936: e0 3a        	cpx	#$3a
    1938: d0 13        	bne	$194d <main+0x13d9>
    193a: a5 14        	lda	$14                     ; 0x2014 <main+0x1aa0>
    193c: c9 30        	cmp	#$30
    193e: 90 15        	bcc	$1955 <main+0x13e1>
    1940: c9 38        	cmp	#$38
    1942: b0 11        	bcs	$1955 <main+0x13e1>
    1944: 18           	clc
    1945: 69 d0        	adc	#$d0
    1947: a0 32        	ldy	#$32
    1949: 91 10        	sta	($10),y                 ; 0x2010 <main+0x1a9c>
    194b: 80 08        	bra	$1955 <main+0x13e1>
    194d: a2 23        	ldx	#$23
    194f: 86 28        	stx	$28                     ; 0x2028 <main+0x1ab4>
    1951: a2 83        	ldx	#$83
    1953: 86 29        	stx	$29                     ; 0x2029 <main+0x1ab5>
    1955: a2 91        	ldx	#$91
    1957: 86 12        	stx	$12                     ; 0x2012 <main+0x1a9e>
    1959: a2 47        	ldx	#$47
    195b: 86 13        	stx	$13                     ; 0x2013 <main+0x1a9f>
    195d: a2 00        	ldx	#$0
    195f: 80 0a        	bra	$196b <main+0x13f7>
    1961: a0 02        	ldy	#$2
    1963: e6 12        	inc	$12                     ; 0x2012 <main+0x1a9e>
    1965: d0 02        	bne	$1969 <main+0x13f5>
    1967: e6 13        	inc	$13                     ; 0x2013 <main+0x1a9f>
    1969: 5a           	phy
    196a: fa           	plx
    196b: b2 12        	lda	($12)                   ; 0x2012 <main+0x1a9e>
    196d: c9 61        	cmp	#$61
    196f: f0 f0        	beq	$1961 <main+0x13ed>
    1971: a0 01        	ldy	#$1
    1973: c9 77        	cmp	#$77
    1975: f0 05        	beq	$197c <main+0x1408>
    1977: a8           	tay
    1978: f0 08        	beq	$1982 <main+0x140e>
    197a: da           	phx
    197b: 7a           	ply
    197c: e6 12        	inc	$12                     ; 0x2012 <main+0x1a9e>
    197e: d0 e9        	bne	$1969 <main+0x13f5>
    1980: 80 e5        	bra	$1967 <main+0x13f3>
    1982: a4 28        	ldy	$28                     ; 0x2028 <main+0x1ab4>
    1984: a5 29        	lda	$29                     ; 0x2029 <main+0x1ab5>
    1986: 84 fb        	sty	$fb                     ; 0x20fb <main+0x1b87>
    1988: 85 fc        	sta	$fc                     ; 0x20fc <main+0x1b88>
    198a: b2 28        	lda	($28)                   ; 0x2028 <main+0x1ab4>
    198c: f0 33        	beq	$19c1 <main+0x144d>
    198e: 64 13        	stz	$13                     ; 0x2013 <main+0x1a9f>
    1990: a0 01        	ldy	#$1
    1992: a9 00        	lda	#$0
    1994: 64 12        	stz	$12                     ; 0x2012 <main+0x1a9e>
    1996: 5a           	phy
    1997: a4 13        	ldy	$13                     ; 0x2013 <main+0x1a9f>
    1999: 84 14        	sty	$14                     ; 0x2014 <main+0x1aa0>
    199b: 7a           	ply
    199c: e6 13        	inc	$13                     ; 0x2013 <main+0x1a9f>
    199e: d0 02        	bne	$19a2 <main+0x142e>
    19a0: e6 12        	inc	$12                     ; 0x2012 <main+0x1a9e>
    19a2: 18           	clc
    19a3: 85 15        	sta	$15                     ; 0x2015 <main+0x1aa1>
    19a5: a5 14        	lda	$14                     ; 0x2014 <main+0x1aa0>
    19a7: 65 28        	adc	$28                     ; 0x2028 <main+0x1ab4>
    19a9: 85 14        	sta	$14                     ; 0x2014 <main+0x1aa0>
    19ab: a5 15        	lda	$15                     ; 0x2015 <main+0x1aa1>
    19ad: 65 29        	adc	$29                     ; 0x2029 <main+0x1ab5>
    19af: 85 15        	sta	$15                     ; 0x2015 <main+0x1aa1>
    19b1: b1 14        	lda	($14),y                 ; 0x2014 <main+0x1aa0>
    19b3: 85 14        	sta	$14                     ; 0x2014 <main+0x1aa0>
    19b5: a5 12        	lda	$12                     ; 0x2012 <main+0x1a9e>
    19b7: e6 14        	inc	$14                     ; 0x2014 <main+0x1aa0>
    19b9: c6 14        	dec	$14                     ; 0x2014 <main+0x1aa0>
    19bb: d0 d9        	bne	$1996 <main+0x1422>
    19bd: a4 13        	ldy	$13                     ; 0x2013 <main+0x1a9f>
    19bf: 80 02        	bra	$19c3 <main+0x144f>
    19c1: a0 00        	ldy	#$0
    19c3: 84 fd        	sty	$fd                     ; 0x20fd <main+0x1b89>
    19c5: a0 32        	ldy	#$32
    19c7: b1 10        	lda	($10),y                 ; 0x2010 <main+0x1a9c>
    19c9: 85 f3        	sta	$f3                     ; 0x20f3 <main+0x1b7f>
    19cb: 86 f5        	stx	$f5                     ; 0x20f5 <main+0x1b81>
    19cd: a2 39        	ldx	#$39
    19cf: 86 12        	stx	$12                     ; 0x2012 <main+0x1a9e>
    19d1: a2 00        	ldx	#$0
    19d3: 86 13        	stx	$13                     ; 0x2013 <main+0x1a9f>
    19d5: 20 5c ff     	jsr	$ff5c <__heap_start+0x7bf2>
    19d8: 92 2a        	sta	($2a)                   ; 0x202a <main+0x1ab6>
    19da: a9 00        	lda	#$0
    19dc: 6a           	ror
    19dd: 85 12        	sta	$12                     ; 0x2012 <main+0x1a9e>
    19df: a6 39        	ldx	$39                     ; 0x2039 <main+0x1ac5>
    19e1: d0 03        	bne	$19e6 <main+0x1472>
    19e3: 4c 70 2a     	jmp	$2a70 <main+0x24fc>
    19e6: a2 00        	ldx	#$0
    19e8: 86 12        	stx	$12                     ; 0x2012 <main+0x1a9e>
    19ea: a2 00        	ldx	#$0
    19ec: 86 13        	stx	$13                     ; 0x2013 <main+0x1a9f>
    19ee: a6 12        	ldx	$12                     ; 0x2012 <main+0x1a9e>
    19f0: a4 13        	ldy	$13                     ; 0x2013 <main+0x1a9f>
    19f2: 86 37        	stx	$37                     ; 0x2037 <main+0x1ac3>
    19f4: 84 38        	sty	$38                     ; 0x2038 <main+0x1ac4>
    19f6: a2 94        	ldx	#$94
    19f8: 86 12        	stx	$12                     ; 0x2012 <main+0x1a9e>
    19fa: a2 47        	ldx	#$47
    19fc: 86 13        	stx	$13                     ; 0x2013 <main+0x1a9f>
    19fe: 20 54 41     	jsr	$4154 <printf>
    1a01: a2 1f        	ldx	#$1f
    1a03: 8e 20 d6     	stx	$d620                   ; 0xd620 <__heap_start+0x52b6>
    1a06: a2 2a        	ldx	#$2a
    1a08: 8e 21 d6     	stx	$d621                   ; 0xd621 <__heap_start+0x52b7>
    1a0b: a2 01        	ldx	#$1
    1a0d: 8e 22 d6     	stx	$d622                   ; 0xd622 <__heap_start+0x52b8>
    1a10: ad 22 d6     	lda	$d622                   ; 0xd622 <__heap_start+0x52b8>
    1a13: 29 01        	and	#$1
    1a15: d0 f9        	bne	$1a10 <main+0x149c>
    1a17: a2 03        	ldx	#$3
    1a19: 8e 01 d7     	stx	$d701                   ; 0xd701 <__heap_start+0x5397>
    1a1c: 9c 02 d7     	stz	$d702                   ; 0xd702 <__heap_start+0x5398>
    1a1f: 9c 02 d7     	stz	$d702                   ; 0xd702 <__heap_start+0x5398>
    1a22: a2 e0        	ldx	#$e0
    1a24: 8e 03 d7     	stx	$d703                   ; 0xd703 <__heap_start+0x5399>
    1a27: a2 01        	ldx	#$1
    1a29: 8e 00 d7     	stx	$d700                   ; 0xd700 <__heap_start+0x5396>
    1a2c: 9c 00 d7     	stz	$d700                   ; 0xd700 <__heap_start+0x5396>
    1a2f: ae 00 d7     	ldx	$d700                   ; 0xd700 <__heap_start+0x5396>
    1a32: 30 fb        	bmi	$1a2f <main+0x14bb>
    1a34: 64 12        	stz	$12                     ; 0x2012 <main+0x1a9e>
    1a36: a0 01        	ldy	#$1
    1a38: a2 00        	ldx	#$0
    1a3a: a5 12        	lda	$12                     ; 0x2012 <main+0x1a9e>
    1a3c: 85 14        	sta	$14                     ; 0x2014 <main+0x1aa0>
    1a3e: a5 12        	lda	$12                     ; 0x2012 <main+0x1a9e>
    1a40: 0a           	asl
    1a41: 85 12        	sta	$12                     ; 0x2012 <main+0x1a9e>
    1a43: 8a           	txa
    1a44: 2a           	rol
    1a45: 85 13        	sta	$13                     ; 0x2013 <main+0x1a9f>
    1a47: a9 97        	lda	#$97
    1a49: 18           	clc
    1a4a: 65 12        	adc	$12                     ; 0x2012 <main+0x1a9e>
    1a4c: 85 12        	sta	$12                     ; 0x2012 <main+0x1a9e>
    1a4e: a9 48        	lda	#$48
    1a50: 65 13        	adc	$13                     ; 0x2013 <main+0x1a9f>
    1a52: 85 15        	sta	$15                     ; 0x2015 <main+0x1aa1>
    1a54: a5 12        	lda	$12                     ; 0x2012 <main+0x1a9e>
    1a56: 85 17        	sta	$17                     ; 0x2017 <main+0x1aa3>
    1a58: a5 15        	lda	$15                     ; 0x2015 <main+0x1aa1>
    1a5a: 85 13        	sta	$13                     ; 0x2013 <main+0x1a9f>
    1a5c: b2 12        	lda	($12)                   ; 0x2012 <main+0x1a9e>
    1a5e: 85 16        	sta	$16                     ; 0x2016 <main+0x1aa2>
    1a60: 18           	clc
    1a61: a5 14        	lda	$14                     ; 0x2014 <main+0x1aa0>
    1a63: 85 1a        	sta	$1a                     ; 0x201a <main+0x1aa6>
    1a65: a5 14        	lda	$14                     ; 0x2014 <main+0x1aa0>
    1a67: 69 02        	adc	#$2
    1a69: 85 18        	sta	$18                     ; 0x2018 <main+0x1aa4>
    1a6b: 86 19        	stx	$19                     ; 0x2019 <main+0x1aa5>
    1a6d: 8a           	txa
    1a6e: 69 00        	adc	#$0
    1a70: aa           	tax
    1a71: 18           	clc
    1a72: a5 17        	lda	$17                     ; 0x2017 <main+0x1aa3>
    1a74: 69 02        	adc	#$2
    1a76: 85 14        	sta	$14                     ; 0x2014 <main+0x1aa0>
    1a78: a5 15        	lda	$15                     ; 0x2015 <main+0x1aa1>
    1a7a: 69 00        	adc	#$0
    1a7c: 85 15        	sta	$15                     ; 0x2015 <main+0x1aa1>
    1a7e: b1 12        	lda	($12),y                 ; 0x2012 <main+0x1a9e>
    1a80: 85 17        	sta	$17                     ; 0x2017 <main+0x1aa3>
    1a82: a0 02        	ldy	#$2
    1a84: b1 12        	lda	($12),y                 ; 0x2012 <main+0x1a9e>
    1a86: 85 13        	sta	$13                     ; 0x2013 <main+0x1a9f>
    1a88: 88           	dey
    1a89: b1 14        	lda	($14),y                 ; 0x2014 <main+0x1aa0>
    1a8b: 10 03        	bpl	$1a90 <main+0x151c>
    1a8d: 4c 1e 1b     	jmp	$1b1e <main+0x15aa>
    1a90: 85 12        	sta	$12                     ; 0x2012 <main+0x1a9e>
    1a92: 85 15        	sta	$15                     ; 0x2015 <main+0x1aa1>
    1a94: a5 13        	lda	$13                     ; 0x2013 <main+0x1a9f>
    1a96: e6 12        	inc	$12                     ; 0x2012 <main+0x1a9e>
    1a98: c6 12        	dec	$12                     ; 0x2012 <main+0x1a9e>
    1a9a: d0 16        	bne	$1ab2 <main+0x153e>
    1a9c: c9 00        	cmp	#$0
    1a9e: d0 12        	bne	$1ab2 <main+0x153e>
    1aa0: 4c a6 1b     	jmp	$1ba6 <main+0x1632>
    1aa3: a5 12        	lda	$12                     ; 0x2012 <main+0x1a9e>
    1aa5: 85 15        	sta	$15                     ; 0x2015 <main+0x1aa1>
    1aa7: a5 14        	lda	$14                     ; 0x2014 <main+0x1aa0>
    1aa9: 85 13        	sta	$13                     ; 0x2013 <main+0x1a9f>
    1aab: a5 12        	lda	$12                     ; 0x2012 <main+0x1a9e>
    1aad: d0 03        	bne	$1ab2 <main+0x153e>
    1aaf: 4c 14 1b     	jmp	$1b14 <main+0x15a0>
    1ab2: a5 13        	lda	$13                     ; 0x2013 <main+0x1a9f>
    1ab4: 85 14        	sta	$14                     ; 0x2014 <main+0x1aa0>
    1ab6: a5 18        	lda	$18                     ; 0x2018 <main+0x1aa4>
    1ab8: 85 19        	sta	$19                     ; 0x2019 <main+0x1aa5>
    1aba: a5 18        	lda	$18                     ; 0x2018 <main+0x1aa4>
    1abc: 0a           	asl
    1abd: 85 12        	sta	$12                     ; 0x2012 <main+0x1a9e>
    1abf: 86 18        	stx	$18                     ; 0x2018 <main+0x1aa4>
    1ac1: 8a           	txa
    1ac2: 2a           	rol
    1ac3: 85 13        	sta	$13                     ; 0x2013 <main+0x1a9f>
    1ac5: a9 97        	lda	#$97
    1ac7: 18           	clc
    1ac8: 65 12        	adc	$12                     ; 0x2012 <main+0x1a9e>
    1aca: 85 12        	sta	$12                     ; 0x2012 <main+0x1a9e>
    1acc: a9 48        	lda	#$48
    1ace: 65 13        	adc	$13                     ; 0x2013 <main+0x1a9f>
    1ad0: 85 13        	sta	$13                     ; 0x2013 <main+0x1a9f>
    1ad2: b2 12        	lda	($12)                   ; 0x2012 <main+0x1a9e>
    1ad4: 85 1a        	sta	$1a                     ; 0x201a <main+0x1aa6>
    1ad6: b1 12        	lda	($12),y                 ; 0x2012 <main+0x1a9e>
    1ad8: a6 16        	ldx	$16                     ; 0x2016 <main+0x1aa2>
    1ada: 8e 01 d7     	stx	$d701                   ; 0xd701 <__heap_start+0x5397>
    1add: a6 17        	ldx	$17                     ; 0x2017 <main+0x1aa3>
    1adf: 8e 02 d7     	stx	$d702                   ; 0xd702 <__heap_start+0x5398>
    1ae2: a6 1a        	ldx	$1a                     ; 0x201a <main+0x1aa6>
    1ae4: 8e 02 d7     	stx	$d702                   ; 0xd702 <__heap_start+0x5398>
    1ae7: 8d 03 d7     	sta	$d703                   ; 0xd703 <__heap_start+0x5399>
    1aea: 8c 00 d7     	sty	$d700                   ; 0xd700 <__heap_start+0x5396>
    1aed: 9c 00 d7     	stz	$d700                   ; 0xd700 <__heap_start+0x5396>
    1af0: ae 00 d7     	ldx	$d700                   ; 0xd700 <__heap_start+0x5396>
    1af3: 30 fb        	bmi	$1af0 <main+0x157c>
    1af5: a6 15        	ldx	$15                     ; 0x2015 <main+0x1aa1>
    1af7: 86 12        	stx	$12                     ; 0x2012 <main+0x1a9e>
    1af9: a2 ff        	ldx	#$ff
    1afb: c6 14        	dec	$14                     ; 0x2014 <main+0x1aa0>
    1afd: e4 14        	cpx	$14                     ; 0x2014 <main+0x1aa0>
    1aff: d0 02        	bne	$1b03 <main+0x158f>
    1b01: c6 12        	dec	$12                     ; 0x2012 <main+0x1a9e>
    1b03: a6 18        	ldx	$18                     ; 0x2018 <main+0x1aa4>
    1b05: a5 19        	lda	$19                     ; 0x2019 <main+0x1aa5>
    1b07: 85 18        	sta	$18                     ; 0x2018 <main+0x1aa4>
    1b09: e6 18        	inc	$18                     ; 0x2018 <main+0x1aa4>
    1b0b: f0 03        	beq	$1b10 <main+0x159c>
    1b0d: 4c a3 1a     	jmp	$1aa3 <main+0x152f>
    1b10: e8           	inx
    1b11: 4c a3 1a     	jmp	$1aa3 <main+0x152f>
    1b14: a5 14        	lda	$14                     ; 0x2014 <main+0x1aa0>
    1b16: f0 03        	beq	$1b1b <main+0x15a7>
    1b18: 4c b2 1a     	jmp	$1ab2 <main+0x153e>
    1b1b: 4c a6 1b     	jmp	$1ba6 <main+0x1632>
    1b1e: 29 7f        	and	#$7f
    1b20: 85 1b        	sta	$1b                     ; 0x201b <main+0x1aa7>
    1b22: 18           	clc
    1b23: a5 1a        	lda	$1a                     ; 0x201a <main+0x1aa6>
    1b25: 69 03        	adc	#$3
    1b27: 85 15        	sta	$15                     ; 0x2015 <main+0x1aa1>
    1b29: a5 19        	lda	$19                     ; 0x2019 <main+0x1aa5>
    1b2b: 69 00        	adc	#$0
    1b2d: 5a           	phy
    1b2e: a4 13        	ldy	$13                     ; 0x2013 <main+0x1a9f>
    1b30: 84 1a        	sty	$1a                     ; 0x201a <main+0x1aa6>
    1b32: 7a           	ply
    1b33: e6 1b        	inc	$1b                     ; 0x201b <main+0x1aa7>
    1b35: c6 1b        	dec	$1b                     ; 0x201b <main+0x1aa7>
    1b37: d0 09        	bne	$1b42 <main+0x15ce>
    1b39: e6 1a        	inc	$1a                     ; 0x201a <main+0x1aa6>
    1b3b: c6 1a        	dec	$1a                     ; 0x201a <main+0x1aa6>
    1b3d: d0 03        	bne	$1b42 <main+0x15ce>
    1b3f: 4c 62 2b     	jmp	$2b62 <main+0x25ee>
    1b42: 5a           	phy
    1b43: a4 1b        	ldy	$1b                     ; 0x201b <main+0x1aa7>
    1b45: 84 14        	sty	$14                     ; 0x2014 <main+0x1aa0>
    1b47: 7a           	ply
    1b48: 85 19        	sta	$19                     ; 0x2019 <main+0x1aa5>
    1b4a: a5 18        	lda	$18                     ; 0x2018 <main+0x1aa4>
    1b4c: 85 12        	sta	$12                     ; 0x2012 <main+0x1a9e>
    1b4e: 06 12        	asl	$12                     ; 0x2012 <main+0x1a9e>
    1b50: 86 13        	stx	$13                     ; 0x2013 <main+0x1a9f>
    1b52: 26 13        	rol	$13                     ; 0x2013 <main+0x1a9f>
    1b54: 18           	clc
    1b55: a9 97        	lda	#$97
    1b57: 65 12        	adc	$12                     ; 0x2012 <main+0x1a9e>
    1b59: 85 12        	sta	$12                     ; 0x2012 <main+0x1a9e>
    1b5b: a9 48        	lda	#$48
    1b5d: 65 13        	adc	$13                     ; 0x2013 <main+0x1a9f>
    1b5f: 85 13        	sta	$13                     ; 0x2013 <main+0x1a9f>
    1b61: b2 12        	lda	($12)                   ; 0x2012 <main+0x1a9e>
    1b63: 85 18        	sta	$18                     ; 0x2018 <main+0x1aa4>
    1b65: b1 12        	lda	($12),y                 ; 0x2012 <main+0x1a9e>
    1b67: 80 06        	bra	$1b6f <main+0x15fb>
    1b69: a6 12        	ldx	$12                     ; 0x2012 <main+0x1a9e>
    1b6b: 86 14        	stx	$14                     ; 0x2014 <main+0x1aa0>
    1b6d: f0 2d        	beq	$1b9c <main+0x1628>
    1b6f: a6 16        	ldx	$16                     ; 0x2016 <main+0x1aa2>
    1b71: 8e 01 d7     	stx	$d701                   ; 0xd701 <__heap_start+0x5397>
    1b74: a6 17        	ldx	$17                     ; 0x2017 <main+0x1aa3>
    1b76: 8e 02 d7     	stx	$d702                   ; 0xd702 <__heap_start+0x5398>
    1b79: a6 18        	ldx	$18                     ; 0x2018 <main+0x1aa4>
    1b7b: 8e 02 d7     	stx	$d702                   ; 0xd702 <__heap_start+0x5398>
    1b7e: 8d 03 d7     	sta	$d703                   ; 0xd703 <__heap_start+0x5399>
    1b81: 8c 00 d7     	sty	$d700                   ; 0xd700 <__heap_start+0x5396>
    1b84: 9c 00 d7     	stz	$d700                   ; 0xd700 <__heap_start+0x5396>
    1b87: ae 00 d7     	ldx	$d700                   ; 0xd700 <__heap_start+0x5396>
    1b8a: 30 fb        	bmi	$1b87 <main+0x1613>
    1b8c: a6 14        	ldx	$14                     ; 0x2014 <main+0x1aa0>
    1b8e: 86 12        	stx	$12                     ; 0x2012 <main+0x1a9e>
    1b90: a2 ff        	ldx	#$ff
    1b92: c6 1a        	dec	$1a                     ; 0x201a <main+0x1aa6>
    1b94: e4 1a        	cpx	$1a                     ; 0x201a <main+0x1aa6>
    1b96: d0 d1        	bne	$1b69 <main+0x15f5>
    1b98: c6 12        	dec	$12                     ; 0x2012 <main+0x1a9e>
    1b9a: 80 cd        	bra	$1b69 <main+0x15f5>
    1b9c: a6 1a        	ldx	$1a                     ; 0x201a <main+0x1aa6>
    1b9e: d0 cf        	bne	$1b6f <main+0x15fb>
    1ba0: a6 15        	ldx	$15                     ; 0x2015 <main+0x1aa1>
    1ba2: 86 18        	stx	$18                     ; 0x2018 <main+0x1aa4>
    1ba4: a6 19        	ldx	$19                     ; 0x2019 <main+0x1aa5>
    1ba6: a5 18        	lda	$18                     ; 0x2018 <main+0x1aa4>
    1ba8: e0 12        	cpx	#$12
    1baa: d0 09        	bne	$1bb5 <main+0x1641>
    1bac: c9 3b        	cmp	#$3b
    1bae: 85 12        	sta	$12                     ; 0x2012 <main+0x1a9e>
    1bb0: b0 0c        	bcs	$1bbe <main+0x164a>
    1bb2: 4c 3a 1a     	jmp	$1a3a <main+0x14c6>
    1bb5: e0 12        	cpx	#$12
    1bb7: 85 12        	sta	$12                     ; 0x2012 <main+0x1a9e>
    1bb9: b0 03        	bcs	$1bbe <main+0x164a>
    1bbb: 4c 3a 1a     	jmp	$1a3a <main+0x14c6>
    1bbe: 64 12        	stz	$12                     ; 0x2012 <main+0x1a9e>
    1bc0: a0 01        	ldy	#$1
    1bc2: a2 00        	ldx	#$0
    1bc4: a5 12        	lda	$12                     ; 0x2012 <main+0x1a9e>
    1bc6: 85 14        	sta	$14                     ; 0x2014 <main+0x1aa0>
    1bc8: a5 12        	lda	$12                     ; 0x2012 <main+0x1a9e>
    1bca: 0a           	asl
    1bcb: 85 12        	sta	$12                     ; 0x2012 <main+0x1a9e>
    1bcd: 8a           	txa
    1bce: 2a           	rol
    1bcf: 85 13        	sta	$13                     ; 0x2013 <main+0x1a9f>
    1bd1: a9 0d        	lda	#$d
    1bd3: 18           	clc
    1bd4: 65 12        	adc	$12                     ; 0x2012 <main+0x1a9e>
    1bd6: 85 12        	sta	$12                     ; 0x2012 <main+0x1a9e>
    1bd8: a9 6d        	lda	#$6d
    1bda: 65 13        	adc	$13                     ; 0x2013 <main+0x1a9f>
    1bdc: 85 15        	sta	$15                     ; 0x2015 <main+0x1aa1>
    1bde: a5 12        	lda	$12                     ; 0x2012 <main+0x1a9e>
    1be0: 85 17        	sta	$17                     ; 0x2017 <main+0x1aa3>
    1be2: a5 15        	lda	$15                     ; 0x2015 <main+0x1aa1>
    1be4: 85 13        	sta	$13                     ; 0x2013 <main+0x1a9f>
    1be6: b2 12        	lda	($12)                   ; 0x2012 <main+0x1a9e>
    1be8: 85 16        	sta	$16                     ; 0x2016 <main+0x1aa2>
    1bea: a5 14        	lda	$14                     ; 0x2014 <main+0x1aa0>
    1bec: 85 1a        	sta	$1a                     ; 0x201a <main+0x1aa6>
    1bee: a5 14        	lda	$14                     ; 0x2014 <main+0x1aa0>
    1bf0: 18           	clc
    1bf1: 69 02        	adc	#$2
    1bf3: 85 18        	sta	$18                     ; 0x2018 <main+0x1aa4>
    1bf5: 86 19        	stx	$19                     ; 0x2019 <main+0x1aa5>
    1bf7: 8a           	txa
    1bf8: 69 00        	adc	#$0
    1bfa: aa           	tax
    1bfb: 18           	clc
    1bfc: a5 17        	lda	$17                     ; 0x2017 <main+0x1aa3>
    1bfe: 69 02        	adc	#$2
    1c00: 85 14        	sta	$14                     ; 0x2014 <main+0x1aa0>
    1c02: a5 15        	lda	$15                     ; 0x2015 <main+0x1aa1>
    1c04: 69 00        	adc	#$0
    1c06: 85 15        	sta	$15                     ; 0x2015 <main+0x1aa1>
    1c08: b1 12        	lda	($12),y                 ; 0x2012 <main+0x1a9e>
    1c0a: 85 17        	sta	$17                     ; 0x2017 <main+0x1aa3>
    1c0c: a0 02        	ldy	#$2
    1c0e: b1 12        	lda	($12),y                 ; 0x2012 <main+0x1a9e>
    1c10: 85 13        	sta	$13                     ; 0x2013 <main+0x1a9f>
    1c12: 88           	dey
    1c13: b1 14        	lda	($14),y                 ; 0x2014 <main+0x1aa0>
    1c15: 10 03        	bpl	$1c1a <main+0x16a6>
    1c17: 4c a8 1c     	jmp	$1ca8 <main+0x1734>
    1c1a: 85 12        	sta	$12                     ; 0x2012 <main+0x1a9e>
    1c1c: 85 15        	sta	$15                     ; 0x2015 <main+0x1aa1>
    1c1e: a5 13        	lda	$13                     ; 0x2013 <main+0x1a9f>
    1c20: e6 12        	inc	$12                     ; 0x2012 <main+0x1a9e>
    1c22: c6 12        	dec	$12                     ; 0x2012 <main+0x1a9e>
    1c24: d0 16        	bne	$1c3c <main+0x16c8>
    1c26: c9 00        	cmp	#$0
    1c28: d0 12        	bne	$1c3c <main+0x16c8>
    1c2a: 4c 30 1d     	jmp	$1d30 <main+0x17bc>
    1c2d: a5 12        	lda	$12                     ; 0x2012 <main+0x1a9e>
    1c2f: 85 15        	sta	$15                     ; 0x2015 <main+0x1aa1>
    1c31: a5 14        	lda	$14                     ; 0x2014 <main+0x1aa0>
    1c33: 85 13        	sta	$13                     ; 0x2013 <main+0x1a9f>
    1c35: a5 12        	lda	$12                     ; 0x2012 <main+0x1a9e>
    1c37: d0 03        	bne	$1c3c <main+0x16c8>
    1c39: 4c 9e 1c     	jmp	$1c9e <main+0x172a>
    1c3c: a5 13        	lda	$13                     ; 0x2013 <main+0x1a9f>
    1c3e: 85 14        	sta	$14                     ; 0x2014 <main+0x1aa0>
    1c40: a5 18        	lda	$18                     ; 0x2018 <main+0x1aa4>
    1c42: 85 19        	sta	$19                     ; 0x2019 <main+0x1aa5>
    1c44: a5 18        	lda	$18                     ; 0x2018 <main+0x1aa4>
    1c46: 0a           	asl
    1c47: 85 12        	sta	$12                     ; 0x2012 <main+0x1a9e>
    1c49: 86 18        	stx	$18                     ; 0x2018 <main+0x1aa4>
    1c4b: 8a           	txa
    1c4c: 2a           	rol
    1c4d: 85 13        	sta	$13                     ; 0x2013 <main+0x1a9f>
    1c4f: a9 0d        	lda	#$d
    1c51: 18           	clc
    1c52: 65 12        	adc	$12                     ; 0x2012 <main+0x1a9e>
    1c54: 85 12        	sta	$12                     ; 0x2012 <main+0x1a9e>
    1c56: a9 6d        	lda	#$6d
    1c58: 65 13        	adc	$13                     ; 0x2013 <main+0x1a9f>
    1c5a: 85 13        	sta	$13                     ; 0x2013 <main+0x1a9f>
    1c5c: b2 12        	lda	($12)                   ; 0x2012 <main+0x1a9e>
    1c5e: 85 1a        	sta	$1a                     ; 0x201a <main+0x1aa6>
    1c60: b1 12        	lda	($12),y                 ; 0x2012 <main+0x1a9e>
    1c62: a6 16        	ldx	$16                     ; 0x2016 <main+0x1aa2>
    1c64: 8e 01 d7     	stx	$d701                   ; 0xd701 <__heap_start+0x5397>
    1c67: a6 17        	ldx	$17                     ; 0x2017 <main+0x1aa3>
    1c69: 8e 02 d7     	stx	$d702                   ; 0xd702 <__heap_start+0x5398>
    1c6c: a6 1a        	ldx	$1a                     ; 0x201a <main+0x1aa6>
    1c6e: 8e 02 d7     	stx	$d702                   ; 0xd702 <__heap_start+0x5398>
    1c71: 8d 03 d7     	sta	$d703                   ; 0xd703 <__heap_start+0x5399>
    1c74: 8c 00 d7     	sty	$d700                   ; 0xd700 <__heap_start+0x5396>
    1c77: 9c 00 d7     	stz	$d700                   ; 0xd700 <__heap_start+0x5396>
    1c7a: ae 00 d7     	ldx	$d700                   ; 0xd700 <__heap_start+0x5396>
    1c7d: 30 fb        	bmi	$1c7a <main+0x1706>
    1c7f: a6 15        	ldx	$15                     ; 0x2015 <main+0x1aa1>
    1c81: 86 12        	stx	$12                     ; 0x2012 <main+0x1a9e>
    1c83: a2 ff        	ldx	#$ff
    1c85: c6 14        	dec	$14                     ; 0x2014 <main+0x1aa0>
    1c87: e4 14        	cpx	$14                     ; 0x2014 <main+0x1aa0>
    1c89: d0 02        	bne	$1c8d <main+0x1719>
    1c8b: c6 12        	dec	$12                     ; 0x2012 <main+0x1a9e>
    1c8d: a6 18        	ldx	$18                     ; 0x2018 <main+0x1aa4>
    1c8f: a5 19        	lda	$19                     ; 0x2019 <main+0x1aa5>
    1c91: 85 18        	sta	$18                     ; 0x2018 <main+0x1aa4>
    1c93: e6 18        	inc	$18                     ; 0x2018 <main+0x1aa4>
    1c95: f0 03        	beq	$1c9a <main+0x1726>
    1c97: 4c 2d 1c     	jmp	$1c2d <main+0x16b9>
    1c9a: e8           	inx
    1c9b: 4c 2d 1c     	jmp	$1c2d <main+0x16b9>
    1c9e: a5 14        	lda	$14                     ; 0x2014 <main+0x1aa0>
    1ca0: f0 03        	beq	$1ca5 <main+0x1731>
    1ca2: 4c 3c 1c     	jmp	$1c3c <main+0x16c8>
    1ca5: 4c 30 1d     	jmp	$1d30 <main+0x17bc>
    1ca8: 29 7f        	and	#$7f
    1caa: 85 1b        	sta	$1b                     ; 0x201b <main+0x1aa7>
    1cac: 18           	clc
    1cad: a5 1a        	lda	$1a                     ; 0x201a <main+0x1aa6>
    1caf: 69 03        	adc	#$3
    1cb1: 85 15        	sta	$15                     ; 0x2015 <main+0x1aa1>
    1cb3: a5 19        	lda	$19                     ; 0x2019 <main+0x1aa5>
    1cb5: 69 00        	adc	#$0
    1cb7: 5a           	phy
    1cb8: a4 13        	ldy	$13                     ; 0x2013 <main+0x1a9f>
    1cba: 84 1a        	sty	$1a                     ; 0x201a <main+0x1aa6>
    1cbc: 7a           	ply
    1cbd: e6 1b        	inc	$1b                     ; 0x201b <main+0x1aa7>
    1cbf: c6 1b        	dec	$1b                     ; 0x201b <main+0x1aa7>
    1cc1: d0 09        	bne	$1ccc <main+0x1758>
    1cc3: e6 1a        	inc	$1a                     ; 0x201a <main+0x1aa6>
    1cc5: c6 1a        	dec	$1a                     ; 0x201a <main+0x1aa6>
    1cc7: d0 03        	bne	$1ccc <main+0x1758>
    1cc9: 4c 6a 2b     	jmp	$2b6a <main+0x25f6>
    1ccc: 5a           	phy
    1ccd: a4 1b        	ldy	$1b                     ; 0x201b <main+0x1aa7>
    1ccf: 84 14        	sty	$14                     ; 0x2014 <main+0x1aa0>
    1cd1: 7a           	ply
    1cd2: 85 19        	sta	$19                     ; 0x2019 <main+0x1aa5>
    1cd4: a5 18        	lda	$18                     ; 0x2018 <main+0x1aa4>
    1cd6: 85 12        	sta	$12                     ; 0x2012 <main+0x1a9e>
    1cd8: 06 12        	asl	$12                     ; 0x2012 <main+0x1a9e>
    1cda: 86 13        	stx	$13                     ; 0x2013 <main+0x1a9f>
    1cdc: 26 13        	rol	$13                     ; 0x2013 <main+0x1a9f>
    1cde: 18           	clc
    1cdf: a9 0d        	lda	#$d
    1ce1: 65 12        	adc	$12                     ; 0x2012 <main+0x1a9e>
    1ce3: 85 12        	sta	$12                     ; 0x2012 <main+0x1a9e>
    1ce5: a9 6d        	lda	#$6d
    1ce7: 65 13        	adc	$13                     ; 0x2013 <main+0x1a9f>
    1ce9: 85 13        	sta	$13                     ; 0x2013 <main+0x1a9f>
    1ceb: b2 12        	lda	($12)                   ; 0x2012 <main+0x1a9e>
    1ced: 85 18        	sta	$18                     ; 0x2018 <main+0x1aa4>
    1cef: b1 12        	lda	($12),y                 ; 0x2012 <main+0x1a9e>
    1cf1: 80 06        	bra	$1cf9 <main+0x1785>
    1cf3: a6 12        	ldx	$12                     ; 0x2012 <main+0x1a9e>
    1cf5: 86 14        	stx	$14                     ; 0x2014 <main+0x1aa0>
    1cf7: f0 2d        	beq	$1d26 <main+0x17b2>
    1cf9: a6 16        	ldx	$16                     ; 0x2016 <main+0x1aa2>
    1cfb: 8e 01 d7     	stx	$d701                   ; 0xd701 <__heap_start+0x5397>
    1cfe: a6 17        	ldx	$17                     ; 0x2017 <main+0x1aa3>
    1d00: 8e 02 d7     	stx	$d702                   ; 0xd702 <__heap_start+0x5398>
    1d03: a6 18        	ldx	$18                     ; 0x2018 <main+0x1aa4>
    1d05: 8e 02 d7     	stx	$d702                   ; 0xd702 <__heap_start+0x5398>
    1d08: 8d 03 d7     	sta	$d703                   ; 0xd703 <__heap_start+0x5399>
    1d0b: 8c 00 d7     	sty	$d700                   ; 0xd700 <__heap_start+0x5396>
    1d0e: 9c 00 d7     	stz	$d700                   ; 0xd700 <__heap_start+0x5396>
    1d11: ae 00 d7     	ldx	$d700                   ; 0xd700 <__heap_start+0x5396>
    1d14: 30 fb        	bmi	$1d11 <main+0x179d>
    1d16: a6 14        	ldx	$14                     ; 0x2014 <main+0x1aa0>
    1d18: 86 12        	stx	$12                     ; 0x2012 <main+0x1a9e>
    1d1a: a2 ff        	ldx	#$ff
    1d1c: c6 1a        	dec	$1a                     ; 0x201a <main+0x1aa6>
    1d1e: e4 1a        	cpx	$1a                     ; 0x201a <main+0x1aa6>
    1d20: d0 d1        	bne	$1cf3 <main+0x177f>
    1d22: c6 12        	dec	$12                     ; 0x2012 <main+0x1a9e>
    1d24: 80 cd        	bra	$1cf3 <main+0x177f>
    1d26: a6 1a        	ldx	$1a                     ; 0x201a <main+0x1aa6>
    1d28: d0 cf        	bne	$1cf9 <main+0x1785>
    1d2a: a6 15        	ldx	$15                     ; 0x2015 <main+0x1aa1>
    1d2c: 86 18        	stx	$18                     ; 0x2018 <main+0x1aa4>
    1d2e: a6 19        	ldx	$19                     ; 0x2019 <main+0x1aa5>
    1d30: a5 18        	lda	$18                     ; 0x2018 <main+0x1aa4>
    1d32: e0 03        	cpx	#$3
    1d34: d0 09        	bne	$1d3f <main+0x17cb>
    1d36: c9 e8        	cmp	#$e8
    1d38: 85 12        	sta	$12                     ; 0x2012 <main+0x1a9e>
    1d3a: b0 0c        	bcs	$1d48 <main+0x17d4>
    1d3c: 4c c4 1b     	jmp	$1bc4 <main+0x1650>
    1d3f: e0 03        	cpx	#$3
    1d41: 85 12        	sta	$12                     ; 0x2012 <main+0x1a9e>
    1d43: b0 03        	bcs	$1d48 <main+0x17d4>
    1d45: 4c c4 1b     	jmp	$1bc4 <main+0x1650>
    1d48: a2 50        	ldx	#$50
    1d4a: 86 12        	stx	$12                     ; 0x2012 <main+0x1a9e>
    1d4c: a2 47        	ldx	#$47
    1d4e: 86 13        	stx	$13                     ; 0x2013 <main+0x1a9f>
    1d50: 20 54 41     	jsr	$4154 <printf>
    1d53: a6 37        	ldx	$37                     ; 0x2037 <main+0x1ac3>
    1d55: a4 38        	ldy	$38                     ; 0x2038 <main+0x1ac4>
    1d57: 86 26        	stx	$26                     ; 0x2026 <main+0x1ab2>
    1d59: 84 27        	sty	$27                     ; 0x2027 <main+0x1ab3>
    1d5b: a2 40        	ldx	#$40
    1d5d: a4 2a        	ldy	$2a                     ; 0x202a <main+0x1ab6>
    1d5f: 84 28        	sty	$28                     ; 0x2028 <main+0x1ab4>
    1d61: a4 2b        	ldy	$2b                     ; 0x202b <main+0x1ab7>
    1d63: 84 29        	sty	$29                     ; 0x2029 <main+0x1ab5>
    1d65: a4 28        	ldy	$28                     ; 0x2028 <main+0x1ab4>
    1d67: 84 12        	sty	$12                     ; 0x2012 <main+0x1a9e>
    1d69: a4 29        	ldy	$29                     ; 0x2029 <main+0x1ab5>
    1d6b: 84 13        	sty	$13                     ; 0x2013 <main+0x1a9f>
    1d6d: a4 26        	ldy	$26                     ; 0x2026 <main+0x1ab2>
    1d6f: 84 14        	sty	$14                     ; 0x2014 <main+0x1aa0>
    1d71: a4 27        	ldy	$27                     ; 0x2027 <main+0x1ab3>
    1d73: 84 15        	sty	$15                     ; 0x2015 <main+0x1aa1>
    1d75: 86 24        	stx	$24                     ; 0x2024 <main+0x1ab0>
    1d77: a2 00        	ldx	#$0
    1d79: a9 80        	lda	#$80
    1d7b: 20 7c 2b     	jsr	$2b7c <fileRead>
    1d7e: a6 24        	ldx	$24                     ; 0x2024 <main+0x1ab0>
    1d80: ca           	dex
    1d81: a5 28        	lda	$28                     ; 0x2028 <main+0x1ab4>
    1d83: 18           	clc
    1d84: 69 80        	adc	#$80
    1d86: 85 28        	sta	$28                     ; 0x2028 <main+0x1ab4>
    1d88: a5 29        	lda	$29                     ; 0x2029 <main+0x1ab5>
    1d8a: 69 00        	adc	#$0
    1d8c: 85 29        	sta	$29                     ; 0x2029 <main+0x1ab5>
    1d8e: 8a           	txa
    1d8f: d0 d4        	bne	$1d65 <main+0x17f1>
    1d91: a2 d6        	ldx	#$d6
    1d93: 86 12        	stx	$12                     ; 0x2012 <main+0x1a9e>
    1d95: a2 47        	ldx	#$47
    1d97: 86 13        	stx	$13                     ; 0x2013 <main+0x1a9f>
    1d99: 20 54 41     	jsr	$4154 <printf>
    1d9c: a2 01        	ldx	#$1
    1d9e: 86 32        	stx	$32                     ; 0x2032 <main+0x1abe>
    1da0: a0 42        	ldy	#$42
    1da2: 84 33        	sty	$33                     ; 0x2033 <main+0x1abf>
    1da4: 8c 14 d0     	sty	$d014                   ; 0xd014 <__heap_start+0x4caa>
    1da7: 64 26        	stz	$26                     ; 0x2026 <main+0x1ab2>
    1da9: 9c 15 d0     	stz	$d015                   ; 0xd015 <__heap_start+0x4cab>
    1dac: 86 34        	stx	$34                     ; 0x2034 <main+0x1ac0>
    1dae: 8e 16 d0     	stx	$d016                   ; 0xd016 <__heap_start+0x4cac>
    1db1: 9c 17 d0     	stz	$d017                   ; 0xd017 <__heap_start+0x4cad>
    1db4: a2 5a        	ldx	#$5a
    1db6: 86 12        	stx	$12                     ; 0x2012 <main+0x1a9e>
    1db8: a2 48        	ldx	#$48
    1dba: 86 13        	stx	$13                     ; 0x2013 <main+0x1a9f>
    1dbc: 20 c5 2c     	jsr	$2cc5 <textPrint>
    1dbf: a2 44        	ldx	#$44
    1dc1: 86 33        	stx	$33                     ; 0x2033 <main+0x1abf>
    1dc3: 8e 14 d0     	stx	$d014                   ; 0xd014 <__heap_start+0x4caa>
    1dc6: 9c 15 d0     	stz	$d015                   ; 0xd015 <__heap_start+0x4cab>
    1dc9: a2 02        	ldx	#$2
    1dcb: 86 34        	stx	$34                     ; 0x2034 <main+0x1ac0>
    1dcd: 8e 16 d0     	stx	$d016                   ; 0xd016 <__heap_start+0x4cac>
    1dd0: 9c 17 d0     	stz	$d017                   ; 0xd017 <__heap_start+0x4cad>
    1dd3: a2 0a        	ldx	#$a
    1dd5: 86 12        	stx	$12                     ; 0x2012 <main+0x1a9e>
    1dd7: a2 48        	ldx	#$48
    1dd9: 86 13        	stx	$13                     ; 0x2013 <main+0x1a9f>
    1ddb: 20 c5 2c     	jsr	$2cc5 <textPrint>
    1dde: a2 47        	ldx	#$47
    1de0: 86 33        	stx	$33                     ; 0x2033 <main+0x1abf>
    1de2: 8e 14 d0     	stx	$d014                   ; 0xd014 <__heap_start+0x4caa>
    1de5: 9c 15 d0     	stz	$d015                   ; 0xd015 <__heap_start+0x4cab>
    1de8: a2 03        	ldx	#$3
    1dea: 86 34        	stx	$34                     ; 0x2034 <main+0x1ac0>
    1dec: 8e 16 d0     	stx	$d016                   ; 0xd016 <__heap_start+0x4cac>
    1def: 9c 17 d0     	stz	$d017                   ; 0xd017 <__heap_start+0x4cad>
    1df2: a2 37        	ldx	#$37
    1df4: 86 12        	stx	$12                     ; 0x2012 <main+0x1a9e>
    1df6: a2 48        	ldx	#$48
    1df8: 86 13        	stx	$13                     ; 0x2013 <main+0x1a9f>
    1dfa: 20 c5 2c     	jsr	$2cc5 <textPrint>
    1dfd: a2 08        	ldx	#$8
    1dff: 80 03        	bra	$1e04 <main+0x1890>
    1e01: 8a           	txa
    1e02: f0 16        	beq	$1e1a <main+0x18a6>
    1e04: b2 2a        	lda	($2a)                   ; 0x202a <main+0x1ab6>
    1e06: 8d 07 d7     	sta	$d707                   ; 0xd707 <__heap_start+0x539d>
    1e09: a0 ff        	ldy	#$ff
    1e0b: c6 26        	dec	$26                     ; 0x2026 <main+0x1ab2>
    1e0d: c4 26        	cpy	$26                     ; 0x2026 <main+0x1ab2>
    1e0f: d0 01        	bne	$1e12 <main+0x189e>
    1e11: ca           	dex
    1e12: e6 2a        	inc	$2a                     ; 0x202a <main+0x1ab6>
    1e14: d0 eb        	bne	$1e01 <main+0x188d>
    1e16: e6 2b        	inc	$2b                     ; 0x202b <main+0x1ab7>
    1e18: 80 e7        	bra	$1e01 <main+0x188d>
    1e1a: a5 26        	lda	$26                     ; 0x2026 <main+0x1ab2>
    1e1c: d0 e6        	bne	$1e04 <main+0x1890>
    1e1e: 18           	clc
    1e1f: a5 10        	lda	$10                     ; 0x2010 <main+0x1a9c>
    1e21: 69 75        	adc	#$75
    1e23: 48           	pha
    1e24: a5 11        	lda	$11                     ; 0x2011 <main+0x1a9d>
    1e26: 69 00        	adc	#$0
    1e28: 85 12        	sta	$12                     ; 0x2012 <main+0x1a9e>
    1e2a: 68           	pla
    1e2b: 18           	clc
    1e2c: 69 00        	adc	#$0
    1e2e: aa           	tax
    1e2f: a5 12        	lda	$12                     ; 0x2012 <main+0x1a9e>
    1e31: 69 08        	adc	#$8
    1e33: 86 12        	stx	$12                     ; 0x2012 <main+0x1a9e>
    1e35: 85 13        	sta	$13                     ; 0x2013 <main+0x1a9f>
    1e37: a0 08        	ldy	#$8
    1e39: a2 00        	ldx	#$0
    1e3b: 80 03        	bra	$1e40 <main+0x18cc>
    1e3d: 98           	tya
    1e3e: f0 13        	beq	$1e53 <main+0x18df>
    1e40: b2 12        	lda	($12)                   ; 0x2012 <main+0x1a9e>
    1e42: 8d 07 d7     	sta	$d707                   ; 0xd707 <__heap_start+0x539d>
    1e45: ca           	dex
    1e46: e0 ff        	cpx	#$ff
    1e48: d0 01        	bne	$1e4b <main+0x18d7>
    1e4a: 88           	dey
    1e4b: e6 12        	inc	$12                     ; 0x2012 <main+0x1a9e>
    1e4d: d0 ee        	bne	$1e3d <main+0x18c9>
    1e4f: e6 13        	inc	$13                     ; 0x2013 <main+0x1a9f>
    1e51: 80 ea        	bra	$1e3d <main+0x18c9>
    1e53: 8a           	txa
    1e54: d0 ea        	bne	$1e40 <main+0x18cc>
    1e56: a2 10        	ldx	#$10
    1e58: 8a           	txa
    1e59: a0 2e        	ldy	#$2e
    1e5b: 91 10        	sta	($10),y                 ; 0x2010 <main+0x1a9c>
    1e5d: 18           	clc
    1e5e: a5 10        	lda	$10                     ; 0x2010 <main+0x1a9c>
    1e60: 69 b1        	adc	#$b1
    1e62: 85 14        	sta	$14                     ; 0x2014 <main+0x1aa0>
    1e64: a5 11        	lda	$11                     ; 0x2011 <main+0x1a9d>
    1e66: 69 20        	adc	#$20
    1e68: 85 15        	sta	$15                     ; 0x2015 <main+0x1aa1>
    1e6a: a5 14        	lda	$14                     ; 0x2014 <main+0x1aa0>
    1e6c: a0 2a        	ldy	#$2a
    1e6e: 91 10        	sta	($10),y                 ; 0x2010 <main+0x1a9c>
    1e70: a5 15        	lda	$15                     ; 0x2015 <main+0x1aa1>
    1e72: c8           	iny
    1e73: 91 10        	sta	($10),y                 ; 0x2010 <main+0x1a9c>
    1e75: 64 12        	stz	$12                     ; 0x2012 <main+0x1a9e>
    1e77: a9 00        	lda	#$0
    1e79: a0 2d        	ldy	#$2d
    1e7b: 91 10        	sta	($10),y                 ; 0x2010 <main+0x1a9c>
    1e7d: 64 28        	stz	$28                     ; 0x2028 <main+0x1ab4>
    1e7f: 64 2f        	stz	$2f                     ; 0x202f <main+0x1abb>
    1e81: 64 2e        	stz	$2e                     ; 0x202e <main+0x1aba>
    1e83: 64 2c        	stz	$2c                     ; 0x202c <main+0x1ab8>
    1e85: 88           	dey
    1e86: 91 10        	sta	($10),y                 ; 0x2010 <main+0x1a9c>
    1e88: 64 2d        	stz	$2d                     ; 0x202d <main+0x1ab9>
    1e8a: 4c 03 29     	jmp	$2903 <main+0x238f>
    1e8d: a5 28        	lda	$28                     ; 0x2028 <main+0x1ab4>
    1e8f: 29 01        	and	#$1
    1e91: aa           	tax
    1e92: a5 28        	lda	$28                     ; 0x2028 <main+0x1ab4>
    1e94: 09 fe        	ora	#$fe
    1e96: 1a           	inc
    1e97: 85 13        	sta	$13                     ; 0x2013 <main+0x1a9f>
    1e99: 86 12        	stx	$12                     ; 0x2012 <main+0x1a9e>
    1e9b: 38           	sec
    1e9c: a9 00        	lda	#$0
    1e9e: e5 12        	sbc	$12                     ; 0x2012 <main+0x1a9e>
    1ea0: 85 18        	sta	$18                     ; 0x2018 <main+0x1aa4>
    1ea2: 8a           	txa
    1ea3: d0 03        	bne	$1ea8 <main+0x1934>
    1ea5: 4c 5f 1f     	jmp	$1f5f <main+0x19eb>
    1ea8: a2 1f        	ldx	#$1f
    1eaa: 48           	pha
    1eab: 8a           	txa
    1eac: a0 2f        	ldy	#$2f
    1eae: 91 10        	sta	($10),y                 ; 0x2010 <main+0x1a9c>
    1eb0: a2 5f        	ldx	#$5f
    1eb2: 8a           	txa
    1eb3: a0 28        	ldy	#$28
    1eb5: 91 10        	sta	($10),y                 ; 0x2010 <main+0x1a9c>
    1eb7: a2 7f        	ldx	#$7f
    1eb9: 8a           	txa
    1eba: a0 26        	ldy	#$26
    1ebc: 91 10        	sta	($10),y                 ; 0x2010 <main+0x1a9c>
    1ebe: a2 9f        	ldx	#$9f
    1ec0: 8a           	txa
    1ec1: a0 24        	ldy	#$24
    1ec3: 91 10        	sta	($10),y                 ; 0x2010 <main+0x1a9c>
    1ec5: a2 bf        	ldx	#$bf
    1ec7: 8a           	txa
    1ec8: a0 22        	ldy	#$22
    1eca: 91 10        	sta	($10),y                 ; 0x2010 <main+0x1a9c>
    1ecc: a2 df        	ldx	#$df
    1ece: 8a           	txa
    1ecf: a0 32        	ldy	#$32
    1ed1: 91 10        	sta	($10),y                 ; 0x2010 <main+0x1a9c>
    1ed3: a2 c0        	ldx	#$c0
    1ed5: 8a           	txa
    1ed6: a0 1e        	ldy	#$1e
    1ed8: 91 10        	sta	($10),y                 ; 0x2010 <main+0x1a9c>
    1eda: a2 a0        	ldx	#$a0
    1edc: 8a           	txa
    1edd: a0 1c        	ldy	#$1c
    1edf: 91 10        	sta	($10),y                 ; 0x2010 <main+0x1a9c>
    1ee1: a2 80        	ldx	#$80
    1ee3: 8a           	txa
    1ee4: a0 18        	ldy	#$18
    1ee6: 91 10        	sta	($10),y                 ; 0x2010 <main+0x1a9c>
    1ee8: a2 60        	ldx	#$60
    1eea: 8a           	txa
    1eeb: a0 16        	ldy	#$16
    1eed: 91 10        	sta	($10),y                 ; 0x2010 <main+0x1a9c>
    1eef: a2 e0        	ldx	#$e0
    1ef1: 8a           	txa
    1ef2: a0 19        	ldy	#$19
    1ef4: 91 10        	sta	($10),y                 ; 0x2010 <main+0x1a9c>
    1ef6: a2 20        	ldx	#$20
    1ef8: 8a           	txa
    1ef9: a0 14        	ldy	#$14
    1efb: 91 10        	sta	($10),y                 ; 0x2010 <main+0x1a9c>
    1efd: 64 14        	stz	$14                     ; 0x2014 <main+0x1aa0>
    1eff: a9 00        	lda	#$0
    1f01: a0 33        	ldy	#$33
    1f03: 91 10        	sta	($10),y                 ; 0x2010 <main+0x1a9c>
    1f05: a2 40        	ldx	#$40
    1f07: 8a           	txa
    1f08: a0 12        	ldy	#$12
    1f0a: 91 10        	sta	($10),y                 ; 0x2010 <main+0x1a9c>
    1f0c: a0 ff        	ldy	#$ff
    1f0e: 98           	tya
    1f0f: a0 15        	ldy	#$15
    1f11: 91 10        	sta	($10),y                 ; 0x2010 <main+0x1a9c>
    1f13: a0 3f        	ldy	#$3f
    1f15: 98           	tya
    1f16: a0 1f        	ldy	#$1f
    1f18: 91 10        	sta	($10),y                 ; 0x2010 <main+0x1a9c>
    1f1a: a2 ff        	ldx	#$ff
    1f1c: 8a           	txa
    1f1d: a0 13        	ldy	#$13
    1f1f: 91 10        	sta	($10),y                 ; 0x2010 <main+0x1a9c>
    1f21: a0 ff        	ldy	#$ff
    1f23: 98           	tya
    1f24: a0 17        	ldy	#$17
    1f26: 91 10        	sta	($10),y                 ; 0x2010 <main+0x1a9c>
    1f28: a0 ff        	ldy	#$ff
    1f2a: 98           	tya
    1f2b: a0 1a        	ldy	#$1a
    1f2d: 91 10        	sta	($10),y                 ; 0x2010 <main+0x1a9c>
    1f2f: a0 ff        	ldy	#$ff
    1f31: 98           	tya
    1f32: a0 1d        	ldy	#$1d
    1f34: 91 10        	sta	($10),y                 ; 0x2010 <main+0x1a9c>
    1f36: a0 ff        	ldy	#$ff
    1f38: 98           	tya
    1f39: a0 20        	ldy	#$20
    1f3b: 91 10        	sta	($10),y                 ; 0x2010 <main+0x1a9c>
    1f3d: a0 ff        	ldy	#$ff
    1f3f: 98           	tya
    1f40: a0 1b        	ldy	#$1b
    1f42: 91 10        	sta	($10),y                 ; 0x2010 <main+0x1a9c>
    1f44: a9 00        	lda	#$0
    1f46: a0 23        	ldy	#$23
    1f48: 91 10        	sta	($10),y                 ; 0x2010 <main+0x1a9c>
    1f4a: a0 25        	ldy	#$25
    1f4c: 91 10        	sta	($10),y                 ; 0x2010 <main+0x1a9c>
    1f4e: a0 27        	ldy	#$27
    1f50: 91 10        	sta	($10),y                 ; 0x2010 <main+0x1a9c>
    1f52: a0 29        	ldy	#$29
    1f54: 91 10        	sta	($10),y                 ; 0x2010 <main+0x1a9c>
    1f56: a0 21        	ldy	#$21
    1f58: 91 10        	sta	($10),y                 ; 0x2010 <main+0x1a9c>
    1f5a: a0 31        	ldy	#$31
    1f5c: 4c 11 20     	jmp	$2011 <main+0x1a9d>
    1f5f: a2 1f        	ldx	#$1f
    1f61: 48           	pha
    1f62: 8a           	txa
    1f63: a0 31        	ldy	#$31
    1f65: 91 10        	sta	($10),y                 ; 0x2010 <main+0x1a9c>
    1f67: a2 5f        	ldx	#$5f
    1f69: 8a           	txa
    1f6a: a0 29        	ldy	#$29
    1f6c: 91 10        	sta	($10),y                 ; 0x2010 <main+0x1a9c>
    1f6e: a2 7f        	ldx	#$7f
    1f70: 8a           	txa
    1f71: a0 27        	ldy	#$27
    1f73: 91 10        	sta	($10),y                 ; 0x2010 <main+0x1a9c>
    1f75: a2 9f        	ldx	#$9f
    1f77: 8a           	txa
    1f78: a0 25        	ldy	#$25
    1f7a: 91 10        	sta	($10),y                 ; 0x2010 <main+0x1a9c>
    1f7c: a2 bf        	ldx	#$bf
    1f7e: 8a           	txa
    1f7f: a0 23        	ldy	#$23
    1f81: 91 10        	sta	($10),y                 ; 0x2010 <main+0x1a9c>
    1f83: a2 df        	ldx	#$df
    1f85: 8a           	txa
    1f86: a0 33        	ldy	#$33
    1f88: 91 10        	sta	($10),y                 ; 0x2010 <main+0x1a9c>
    1f8a: a2 c0        	ldx	#$c0
    1f8c: 8a           	txa
    1f8d: a0 20        	ldy	#$20
    1f8f: 91 10        	sta	($10),y                 ; 0x2010 <main+0x1a9c>
    1f91: a2 a0        	ldx	#$a0
    1f93: 8a           	txa
    1f94: a0 1d        	ldy	#$1d
    1f96: 91 10        	sta	($10),y                 ; 0x2010 <main+0x1a9c>
    1f98: a2 80        	ldx	#$80
    1f9a: 8a           	txa
    1f9b: a0 1a        	ldy	#$1a
    1f9d: 91 10        	sta	($10),y                 ; 0x2010 <main+0x1a9c>
    1f9f: a2 60        	ldx	#$60
    1fa1: 8a           	txa
    1fa2: a0 17        	ldy	#$17
    1fa4: 91 10        	sta	($10),y                 ; 0x2010 <main+0x1a9c>
    1fa6: a2 e0        	ldx	#$e0
    1fa8: 8a           	txa
    1fa9: a0 1b        	ldy	#$1b
    1fab: 91 10        	sta	($10),y                 ; 0x2010 <main+0x1a9c>
    1fad: a2 20        	ldx	#$20
    1faf: 8a           	txa
    1fb0: a0 15        	ldy	#$15
    1fb2: 91 10        	sta	($10),y                 ; 0x2010 <main+0x1a9c>
    1fb4: a2 40        	ldx	#$40
    1fb6: 8a           	txa
    1fb7: a0 13        	ldy	#$13
    1fb9: 91 10        	sta	($10),y                 ; 0x2010 <main+0x1a9c>
    1fbb: a2 ff        	ldx	#$ff
    1fbd: 8a           	txa
    1fbe: a0 32        	ldy	#$32
    1fc0: 91 10        	sta	($10),y                 ; 0x2010 <main+0x1a9c>
    1fc2: a2 3f        	ldx	#$3f
    1fc4: 8a           	txa
    1fc5: a0 21        	ldy	#$21
    1fc7: 91 10        	sta	($10),y                 ; 0x2010 <main+0x1a9c>
    1fc9: 64 14        	stz	$14                     ; 0x2014 <main+0x1aa0>
    1fcb: a9 00        	lda	#$0
    1fcd: a0 14        	ldy	#$14
    1fcf: 91 10        	sta	($10),y                 ; 0x2010 <main+0x1a9c>
    1fd1: a0 12        	ldy	#$12
    1fd3: 91 10        	sta	($10),y                 ; 0x2010 <main+0x1a9c>
    1fd5: a0 16        	ldy	#$16
    1fd7: 91 10        	sta	($10),y                 ; 0x2010 <main+0x1a9c>
    1fd9: a0 18        	ldy	#$18
    1fdb: 91 10        	sta	($10),y                 ; 0x2010 <main+0x1a9c>
    1fdd: a0 1c        	ldy	#$1c
    1fdf: 91 10        	sta	($10),y                 ; 0x2010 <main+0x1a9c>
    1fe1: a0 1e        	ldy	#$1e
    1fe3: 91 10        	sta	($10),y                 ; 0x2010 <main+0x1a9c>
    1fe5: a0 19        	ldy	#$19
    1fe7: 91 10        	sta	($10),y                 ; 0x2010 <main+0x1a9c>
    1fe9: a0 ff        	ldy	#$ff
    1feb: 98           	tya
    1fec: a0 22        	ldy	#$22
    1fee: 91 10        	sta	($10),y                 ; 0x2010 <main+0x1a9c>
    1ff0: a0 ff        	ldy	#$ff
    1ff2: 98           	tya
    1ff3: a0 24        	ldy	#$24
    1ff5: 91 10        	sta	($10),y                 ; 0x2010 <main+0x1a9c>
    1ff7: a0 ff        	ldy	#$ff
    1ff9: 98           	tya
    1ffa: a0 26        	ldy	#$26
    1ffc: 91 10        	sta	($10),y                 ; 0x2010 <main+0x1a9c>
    1ffe: a0 ff        	ldy	#$ff
    2000: 98           	tya
    2001: a0 28        	ldy	#$28
    2003: 91 10        	sta	($10),y                 ; 0x2010 <main+0x1a9c>
    2005: a0 ff        	ldy	#$ff
    2007: 98           	tya
    2008: a0 1f        	ldy	#$1f
    200a: 91 10        	sta	($10),y                 ; 0x2010 <main+0x1a9c>
    200c: a0 ff        	ldy	#$ff
    200e: 98           	tya
    200f: a0 2f        	ldy	#$2f
    2011: 91 10        	sta	($10),y                 ; 0x2010 <main+0x1a9c>
    2013: 68           	pla
    2014: 49 01        	eor	#$1
    2016: 85 28        	sta	$28                     ; 0x2028 <main+0x1ab4>
    2018: a4 13        	ldy	$13                     ; 0x2013 <main+0x1a9f>
    201a: 8c 00 d8     	sty	$d800                   ; 0xd800 <__heap_start+0x5496>
    201d: a5 18        	lda	$18                     ; 0x2018 <main+0x1aa4>
    201f: 8d 01 d8     	sta	$d801                   ; 0xd801 <__heap_start+0x5497>
    2022: 9c 02 d8     	stz	$d802                   ; 0xd802 <__heap_start+0x5498>
    2025: 8c 04 d8     	sty	$d804                   ; 0xd804 <__heap_start+0x549a>
    2028: 48           	pha
    2029: 5a           	phy
    202a: a0 15        	ldy	#$15
    202c: b1 10        	lda	($10),y                 ; 0x2010 <main+0x1a9c>
    202e: 8d 05 d8     	sta	$d805                   ; 0xd805 <__heap_start+0x549b>
    2031: 88           	dey
    2032: b1 10        	lda	($10),y                 ; 0x2010 <main+0x1a9c>
    2034: 7a           	ply
    2035: 8d 06 d8     	sta	$d806                   ; 0xd806 <__heap_start+0x549c>
    2038: 8c 08 d8     	sty	$d808                   ; 0xd808 <__heap_start+0x549e>
    203b: 5a           	phy
    203c: a0 13        	ldy	#$13
    203e: b1 10        	lda	($10),y                 ; 0x2010 <main+0x1a9c>
    2040: 8d 09 d8     	sta	$d809                   ; 0xd809 <__heap_start+0x549f>
    2043: 88           	dey
    2044: b1 10        	lda	($10),y                 ; 0x2010 <main+0x1a9c>
    2046: 7a           	ply
    2047: 8d 0a d8     	sta	$d80a                   ; 0xd80a <__heap_start+0x54a0>
    204a: 8c 0c d8     	sty	$d80c                   ; 0xd80c <__heap_start+0x54a2>
    204d: 5a           	phy
    204e: a0 17        	ldy	#$17
    2050: b1 10        	lda	($10),y                 ; 0x2010 <main+0x1a9c>
    2052: 8d 0d d8     	sta	$d80d                   ; 0xd80d <__heap_start+0x54a3>
    2055: 88           	dey
    2056: b1 10        	lda	($10),y                 ; 0x2010 <main+0x1a9c>
    2058: 7a           	ply
    2059: 8d 0e d8     	sta	$d80e                   ; 0xd80e <__heap_start+0x54a4>
    205c: 8c 10 d8     	sty	$d810                   ; 0xd810 <__heap_start+0x54a6>
    205f: 5a           	phy
    2060: a0 1a        	ldy	#$1a
    2062: b1 10        	lda	($10),y                 ; 0x2010 <main+0x1a9c>
    2064: 8d 11 d8     	sta	$d811                   ; 0xd811 <__heap_start+0x54a7>
    2067: a0 18        	ldy	#$18
    2069: b1 10        	lda	($10),y                 ; 0x2010 <main+0x1a9c>
    206b: 7a           	ply
    206c: 8d 12 d8     	sta	$d812                   ; 0xd812 <__heap_start+0x54a8>
    206f: 8c 14 d8     	sty	$d814                   ; 0xd814 <__heap_start+0x54aa>
    2072: 5a           	phy
    2073: a0 1d        	ldy	#$1d
    2075: b1 10        	lda	($10),y                 ; 0x2010 <main+0x1a9c>
    2077: 8d 15 d8     	sta	$d815                   ; 0xd815 <__heap_start+0x54ab>
    207a: 88           	dey
    207b: b1 10        	lda	($10),y                 ; 0x2010 <main+0x1a9c>
    207d: 7a           	ply
    207e: 8d 16 d8     	sta	$d816                   ; 0xd816 <__heap_start+0x54ac>
    2081: 8c 18 d8     	sty	$d818                   ; 0xd818 <__heap_start+0x54ae>
    2084: 5a           	phy
    2085: a0 20        	ldy	#$20
    2087: b1 10        	lda	($10),y                 ; 0x2010 <main+0x1a9c>
    2089: 8d 19 d8     	sta	$d819                   ; 0xd819 <__heap_start+0x54af>
    208c: a0 1e        	ldy	#$1e
    208e: b1 10        	lda	($10),y                 ; 0x2010 <main+0x1a9c>
    2090: 7a           	ply
    2091: 8d 1a d8     	sta	$d81a                   ; 0xd81a <__heap_start+0x54b0>
    2094: 8c 1c d8     	sty	$d81c                   ; 0xd81c <__heap_start+0x54b2>
    2097: 5a           	phy
    2098: a0 1b        	ldy	#$1b
    209a: b1 10        	lda	($10),y                 ; 0x2010 <main+0x1a9c>
    209c: 8d 1d d8     	sta	$d81d                   ; 0xd81d <__heap_start+0x54b3>
    209f: a0 19        	ldy	#$19
    20a1: b1 10        	lda	($10),y                 ; 0x2010 <main+0x1a9c>
    20a3: 7a           	ply
    20a4: aa           	tax
    20a5: 68           	pla
    20a6: 8e 1e d8     	stx	$d81e                   ; 0xd81e <__heap_start+0x54b4>
    20a9: 8c 20 d8     	sty	$d820                   ; 0xd820 <__heap_start+0x54b6>
    20ac: a2 ff        	ldx	#$ff
    20ae: 8e 21 d8     	stx	$d821                   ; 0xd821 <__heap_start+0x54b7>
    20b1: 8d 22 d8     	sta	$d822                   ; 0xd822 <__heap_start+0x54b8>
    20b4: 48           	pha
    20b5: a0 33        	ldy	#$33
    20b7: b1 10        	lda	($10),y                 ; 0x2010 <main+0x1a9c>
    20b9: 8d 24 d8     	sta	$d824                   ; 0xd824 <__heap_start+0x54ba>
    20bc: 88           	dey
    20bd: b1 10        	lda	($10),y                 ; 0x2010 <main+0x1a9c>
    20bf: aa           	tax
    20c0: 68           	pla
    20c1: 8e 25 d8     	stx	$d825                   ; 0xd825 <__heap_start+0x54bb>
    20c4: 8d 26 d8     	sta	$d826                   ; 0xd826 <__heap_start+0x54bc>
    20c7: 48           	pha
    20c8: a0 23        	ldy	#$23
    20ca: b1 10        	lda	($10),y                 ; 0x2010 <main+0x1a9c>
    20cc: 8d 28 d8     	sta	$d828                   ; 0xd828 <__heap_start+0x54be>
    20cf: 88           	dey
    20d0: b1 10        	lda	($10),y                 ; 0x2010 <main+0x1a9c>
    20d2: aa           	tax
    20d3: 68           	pla
    20d4: 8e 29 d8     	stx	$d829                   ; 0xd829 <__heap_start+0x54bf>
    20d7: 8d 2a d8     	sta	$d82a                   ; 0xd82a <__heap_start+0x54c0>
    20da: 48           	pha
    20db: a0 25        	ldy	#$25
    20dd: b1 10        	lda	($10),y                 ; 0x2010 <main+0x1a9c>
    20df: 8d 2c d8     	sta	$d82c                   ; 0xd82c <__heap_start+0x54c2>
    20e2: 88           	dey
    20e3: b1 10        	lda	($10),y                 ; 0x2010 <main+0x1a9c>
    20e5: aa           	tax
    20e6: 68           	pla
    20e7: 8e 2d d8     	stx	$d82d                   ; 0xd82d <__heap_start+0x54c3>
    20ea: 8d 2e d8     	sta	$d82e                   ; 0xd82e <__heap_start+0x54c4>
    20ed: 48           	pha
    20ee: a0 27        	ldy	#$27
    20f0: b1 10        	lda	($10),y                 ; 0x2010 <main+0x1a9c>
    20f2: 8d 30 d8     	sta	$d830                   ; 0xd830 <__heap_start+0x54c6>
    20f5: 88           	dey
    20f6: b1 10        	lda	($10),y                 ; 0x2010 <main+0x1a9c>
    20f8: aa           	tax
    20f9: 68           	pla
    20fa: 8e 31 d8     	stx	$d831                   ; 0xd831 <__heap_start+0x54c7>
    20fd: 8d 32 d8     	sta	$d832                   ; 0xd832 <__heap_start+0x54c8>
    2100: 48           	pha
    2101: a0 29        	ldy	#$29
    2103: b1 10        	lda	($10),y                 ; 0x2010 <main+0x1a9c>
    2105: 8d 34 d8     	sta	$d834                   ; 0xd834 <__heap_start+0x54ca>
    2108: 88           	dey
    2109: b1 10        	lda	($10),y                 ; 0x2010 <main+0x1a9c>
    210b: aa           	tax
    210c: 68           	pla
    210d: 8e 35 d8     	stx	$d835                   ; 0xd835 <__heap_start+0x54cb>
    2110: 8d 36 d8     	sta	$d836                   ; 0xd836 <__heap_start+0x54cc>
    2113: 48           	pha
    2114: a0 21        	ldy	#$21
    2116: b1 10        	lda	($10),y                 ; 0x2010 <main+0x1a9c>
    2118: 8d 38 d8     	sta	$d838                   ; 0xd838 <__heap_start+0x54ce>
    211b: a0 1f        	ldy	#$1f
    211d: b1 10        	lda	($10),y                 ; 0x2010 <main+0x1a9c>
    211f: aa           	tax
    2120: 68           	pla
    2121: 8e 39 d8     	stx	$d839                   ; 0xd839 <__heap_start+0x54cf>
    2124: 8d 3a d8     	sta	$d83a                   ; 0xd83a <__heap_start+0x54d0>
    2127: 48           	pha
    2128: a0 31        	ldy	#$31
    212a: b1 10        	lda	($10),y                 ; 0x2010 <main+0x1a9c>
    212c: 8d 3c d8     	sta	$d83c                   ; 0xd83c <__heap_start+0x54d2>
    212f: a0 2f        	ldy	#$2f
    2131: b1 10        	lda	($10),y                 ; 0x2010 <main+0x1a9c>
    2133: aa           	tax
    2134: 68           	pla
    2135: 8e 3d d8     	stx	$d83d                   ; 0xd83d <__heap_start+0x54d3>
    2138: 8d 3e d8     	sta	$d83e                   ; 0xd83e <__heap_start+0x54d4>
    213b: a0 2c        	ldy	#$2c
    213d: b1 10        	lda	($10),y                 ; 0x2010 <main+0x1a9c>
    213f: 29 01        	and	#$1
    2141: d0 03        	bne	$2146 <main+0x1bd2>
    2143: 4c 09 24     	jmp	$2409 <main+0x1e95>
    2146: a6 2c        	ldx	$2c                     ; 0x202c <main+0x1ab8>
    2148: e0 81        	cpx	#$81
    214a: f0 0a        	beq	$2156 <main+0x1be2>
    214c: e0 92        	cpx	#$92
    214e: f0 03        	beq	$2153 <main+0x1bdf>
    2150: 4c 09 24     	jmp	$2409 <main+0x1e95>
    2153: 4c aa 2a     	jmp	$2aaa <main+0x2536>
    2156: a5 28        	lda	$28                     ; 0x2028 <main+0x1ab4>
    2158: 29 01        	and	#$1
    215a: aa           	tax
    215b: a5 28        	lda	$28                     ; 0x2028 <main+0x1ab4>
    215d: 09 fe        	ora	#$fe
    215f: 1a           	inc
    2160: 85 13        	sta	$13                     ; 0x2013 <main+0x1a9f>
    2162: 64 12        	stz	$12                     ; 0x2012 <main+0x1a9e>
    2164: a9 00        	lda	#$0
    2166: 91 10        	sta	($10),y                 ; 0x2010 <main+0x1a9c>
    2168: 86 12        	stx	$12                     ; 0x2012 <main+0x1a9e>
    216a: 38           	sec
    216b: a9 00        	lda	#$0
    216d: e5 12        	sbc	$12                     ; 0x2012 <main+0x1a9e>
    216f: 85 18        	sta	$18                     ; 0x2018 <main+0x1aa4>
    2171: 8a           	txa
    2172: d0 03        	bne	$2177 <main+0x1c03>
    2174: 4c 2c 22     	jmp	$222c <main+0x1cb8>
    2177: a2 1f        	ldx	#$1f
    2179: 48           	pha
    217a: 8a           	txa
    217b: a0 31        	ldy	#$31
    217d: 91 10        	sta	($10),y                 ; 0x2010 <main+0x1a9c>
    217f: a2 5f        	ldx	#$5f
    2181: 8a           	txa
    2182: a0 29        	ldy	#$29
    2184: 91 10        	sta	($10),y                 ; 0x2010 <main+0x1a9c>
    2186: a2 7f        	ldx	#$7f
    2188: 8a           	txa
    2189: a0 27        	ldy	#$27
    218b: 91 10        	sta	($10),y                 ; 0x2010 <main+0x1a9c>
    218d: a2 9f        	ldx	#$9f
    218f: 8a           	txa
    2190: a0 25        	ldy	#$25
    2192: 91 10        	sta	($10),y                 ; 0x2010 <main+0x1a9c>
    2194: a2 bf        	ldx	#$bf
    2196: 8a           	txa
    2197: a0 23        	ldy	#$23
    2199: 91 10        	sta	($10),y                 ; 0x2010 <main+0x1a9c>
    219b: a2 df        	ldx	#$df
    219d: 8a           	txa
    219e: a0 33        	ldy	#$33
    21a0: 91 10        	sta	($10),y                 ; 0x2010 <main+0x1a9c>
    21a2: a2 c0        	ldx	#$c0
    21a4: 8a           	txa
    21a5: a0 1e        	ldy	#$1e
    21a7: 91 10        	sta	($10),y                 ; 0x2010 <main+0x1a9c>
    21a9: a2 a0        	ldx	#$a0
    21ab: 8a           	txa
    21ac: a0 1c        	ldy	#$1c
    21ae: 91 10        	sta	($10),y                 ; 0x2010 <main+0x1a9c>
    21b0: a2 80        	ldx	#$80
    21b2: 8a           	txa
    21b3: a0 18        	ldy	#$18
    21b5: 91 10        	sta	($10),y                 ; 0x2010 <main+0x1a9c>
    21b7: a2 60        	ldx	#$60
    21b9: 8a           	txa
    21ba: a0 16        	ldy	#$16
    21bc: 91 10        	sta	($10),y                 ; 0x2010 <main+0x1a9c>
    21be: a2 e0        	ldx	#$e0
    21c0: 8a           	txa
    21c1: a0 19        	ldy	#$19
    21c3: 91 10        	sta	($10),y                 ; 0x2010 <main+0x1a9c>
    21c5: a2 20        	ldx	#$20
    21c7: 8a           	txa
    21c8: a0 14        	ldy	#$14
    21ca: 91 10        	sta	($10),y                 ; 0x2010 <main+0x1a9c>
    21cc: a2 40        	ldx	#$40
    21ce: 8a           	txa
    21cf: a0 12        	ldy	#$12
    21d1: 91 10        	sta	($10),y                 ; 0x2010 <main+0x1a9c>
    21d3: a0 ff        	ldy	#$ff
    21d5: 98           	tya
    21d6: a0 15        	ldy	#$15
    21d8: 91 10        	sta	($10),y                 ; 0x2010 <main+0x1a9c>
    21da: a0 3f        	ldy	#$3f
    21dc: 98           	tya
    21dd: a0 1f        	ldy	#$1f
    21df: 91 10        	sta	($10),y                 ; 0x2010 <main+0x1a9c>
    21e1: a2 ff        	ldx	#$ff
    21e3: 8a           	txa
    21e4: a0 13        	ldy	#$13
    21e6: 91 10        	sta	($10),y                 ; 0x2010 <main+0x1a9c>
    21e8: a0 ff        	ldy	#$ff
    21ea: 98           	tya
    21eb: a0 17        	ldy	#$17
    21ed: 91 10        	sta	($10),y                 ; 0x2010 <main+0x1a9c>
    21ef: a0 ff        	ldy	#$ff
    21f1: 98           	tya
    21f2: a0 1a        	ldy	#$1a
    21f4: 91 10        	sta	($10),y                 ; 0x2010 <main+0x1a9c>
    21f6: a0 ff        	ldy	#$ff
    21f8: 98           	tya
    21f9: a0 1d        	ldy	#$1d
    21fb: 91 10        	sta	($10),y                 ; 0x2010 <main+0x1a9c>
    21fd: a0 ff        	ldy	#$ff
    21ff: 98           	tya
    2200: a0 20        	ldy	#$20
    2202: 91 10        	sta	($10),y                 ; 0x2010 <main+0x1a9c>
    2204: a0 ff        	ldy	#$ff
    2206: 98           	tya
    2207: a0 1b        	ldy	#$1b
    2209: 91 10        	sta	($10),y                 ; 0x2010 <main+0x1a9c>
    220b: 64 14        	stz	$14                     ; 0x2014 <main+0x1aa0>
    220d: a9 00        	lda	#$0
    220f: a0 22        	ldy	#$22
    2211: 91 10        	sta	($10),y                 ; 0x2010 <main+0x1a9c>
    2213: a0 24        	ldy	#$24
    2215: 91 10        	sta	($10),y                 ; 0x2010 <main+0x1a9c>
    2217: a0 26        	ldy	#$26
    2219: 91 10        	sta	($10),y                 ; 0x2010 <main+0x1a9c>
    221b: a0 28        	ldy	#$28
    221d: 91 10        	sta	($10),y                 ; 0x2010 <main+0x1a9c>
    221f: a0 2f        	ldy	#$2f
    2221: 91 10        	sta	($10),y                 ; 0x2010 <main+0x1a9c>
    2223: a0 21        	ldy	#$21
    2225: 91 10        	sta	($10),y                 ; 0x2010 <main+0x1a9c>
    2227: a0 32        	ldy	#$32
    2229: 4c de 22     	jmp	$22de <main+0x1d6a>
    222c: a2 1f        	ldx	#$1f
    222e: 48           	pha
    222f: 8a           	txa
    2230: a0 32        	ldy	#$32
    2232: 91 10        	sta	($10),y                 ; 0x2010 <main+0x1a9c>
    2234: a2 5f        	ldx	#$5f
    2236: 8a           	txa
    2237: a0 2f        	ldy	#$2f
    2239: 91 10        	sta	($10),y                 ; 0x2010 <main+0x1a9c>
    223b: a2 7f        	ldx	#$7f
    223d: 8a           	txa
    223e: a0 28        	ldy	#$28
    2240: 91 10        	sta	($10),y                 ; 0x2010 <main+0x1a9c>
    2242: a2 9f        	ldx	#$9f
    2244: 8a           	txa
    2245: a0 26        	ldy	#$26
    2247: 91 10        	sta	($10),y                 ; 0x2010 <main+0x1a9c>
    2249: a2 bf        	ldx	#$bf
    224b: 8a           	txa
    224c: a0 24        	ldy	#$24
    224e: 91 10        	sta	($10),y                 ; 0x2010 <main+0x1a9c>
    2250: a2 df        	ldx	#$df
    2252: 8a           	txa
    2253: a0 22        	ldy	#$22
    2255: 91 10        	sta	($10),y                 ; 0x2010 <main+0x1a9c>
    2257: a2 c0        	ldx	#$c0
    2259: 8a           	txa
    225a: a0 20        	ldy	#$20
    225c: 91 10        	sta	($10),y                 ; 0x2010 <main+0x1a9c>
    225e: a2 a0        	ldx	#$a0
    2260: 8a           	txa
    2261: a0 1d        	ldy	#$1d
    2263: 91 10        	sta	($10),y                 ; 0x2010 <main+0x1a9c>
    2265: a2 80        	ldx	#$80
    2267: 8a           	txa
    2268: a0 1a        	ldy	#$1a
    226a: 91 10        	sta	($10),y                 ; 0x2010 <main+0x1a9c>
    226c: a2 60        	ldx	#$60
    226e: 8a           	txa
    226f: a0 17        	ldy	#$17
    2271: 91 10        	sta	($10),y                 ; 0x2010 <main+0x1a9c>
    2273: a2 e0        	ldx	#$e0
    2275: 8a           	txa
    2276: a0 1b        	ldy	#$1b
    2278: 91 10        	sta	($10),y                 ; 0x2010 <main+0x1a9c>
    227a: a2 20        	ldx	#$20
    227c: 8a           	txa
    227d: a0 15        	ldy	#$15
    227f: 91 10        	sta	($10),y                 ; 0x2010 <main+0x1a9c>
    2281: a2 40        	ldx	#$40
    2283: 8a           	txa
    2284: a0 13        	ldy	#$13
    2286: 91 10        	sta	($10),y                 ; 0x2010 <main+0x1a9c>
    2288: a2 ff        	ldx	#$ff
    228a: 8a           	txa
    228b: a0 33        	ldy	#$33
    228d: 91 10        	sta	($10),y                 ; 0x2010 <main+0x1a9c>
    228f: a2 3f        	ldx	#$3f
    2291: 8a           	txa
    2292: a0 21        	ldy	#$21
    2294: 91 10        	sta	($10),y                 ; 0x2010 <main+0x1a9c>
    2296: 64 14        	stz	$14                     ; 0x2014 <main+0x1aa0>
    2298: a9 00        	lda	#$0
    229a: a0 14        	ldy	#$14
    229c: 91 10        	sta	($10),y                 ; 0x2010 <main+0x1a9c>
    229e: a0 12        	ldy	#$12
    22a0: 91 10        	sta	($10),y                 ; 0x2010 <main+0x1a9c>
    22a2: a0 16        	ldy	#$16
    22a4: 91 10        	sta	($10),y                 ; 0x2010 <main+0x1a9c>
    22a6: a0 18        	ldy	#$18
    22a8: 91 10        	sta	($10),y                 ; 0x2010 <main+0x1a9c>
    22aa: a0 1c        	ldy	#$1c
    22ac: 91 10        	sta	($10),y                 ; 0x2010 <main+0x1a9c>
    22ae: a0 1e        	ldy	#$1e
    22b0: 91 10        	sta	($10),y                 ; 0x2010 <main+0x1a9c>
    22b2: a0 19        	ldy	#$19
    22b4: 91 10        	sta	($10),y                 ; 0x2010 <main+0x1a9c>
    22b6: a0 ff        	ldy	#$ff
    22b8: 98           	tya
    22b9: a0 23        	ldy	#$23
    22bb: 91 10        	sta	($10),y                 ; 0x2010 <main+0x1a9c>
    22bd: a0 ff        	ldy	#$ff
    22bf: 98           	tya
    22c0: a0 25        	ldy	#$25
    22c2: 91 10        	sta	($10),y                 ; 0x2010 <main+0x1a9c>
    22c4: a0 ff        	ldy	#$ff
    22c6: 98           	tya
    22c7: a0 27        	ldy	#$27
    22c9: 91 10        	sta	($10),y                 ; 0x2010 <main+0x1a9c>
    22cb: a0 ff        	ldy	#$ff
    22cd: 98           	tya
    22ce: a0 29        	ldy	#$29
    22d0: 91 10        	sta	($10),y                 ; 0x2010 <main+0x1a9c>
    22d2: a0 ff        	ldy	#$ff
    22d4: 98           	tya
    22d5: a0 1f        	ldy	#$1f
    22d7: 91 10        	sta	($10),y                 ; 0x2010 <main+0x1a9c>
    22d9: a0 ff        	ldy	#$ff
    22db: 98           	tya
    22dc: a0 31        	ldy	#$31
    22de: 91 10        	sta	($10),y                 ; 0x2010 <main+0x1a9c>
    22e0: 68           	pla
    22e1: 49 01        	eor	#$1
    22e3: 85 28        	sta	$28                     ; 0x2028 <main+0x1ab4>
    22e5: a4 13        	ldy	$13                     ; 0x2013 <main+0x1a9f>
    22e7: 8c 00 d8     	sty	$d800                   ; 0xd800 <__heap_start+0x5496>
    22ea: a5 18        	lda	$18                     ; 0x2018 <main+0x1aa4>
    22ec: 8d 01 d8     	sta	$d801                   ; 0xd801 <__heap_start+0x5497>
    22ef: 9c 02 d8     	stz	$d802                   ; 0xd802 <__heap_start+0x5498>
    22f2: 8c 04 d8     	sty	$d804                   ; 0xd804 <__heap_start+0x549a>
    22f5: 48           	pha
    22f6: 5a           	phy
    22f7: a0 15        	ldy	#$15
    22f9: b1 10        	lda	($10),y                 ; 0x2010 <main+0x1a9c>
    22fb: 8d 05 d8     	sta	$d805                   ; 0xd805 <__heap_start+0x549b>
    22fe: 88           	dey
    22ff: b1 10        	lda	($10),y                 ; 0x2010 <main+0x1a9c>
    2301: 7a           	ply
    2302: 8d 06 d8     	sta	$d806                   ; 0xd806 <__heap_start+0x549c>
    2305: 8c 08 d8     	sty	$d808                   ; 0xd808 <__heap_start+0x549e>
    2308: 5a           	phy
    2309: a0 13        	ldy	#$13
    230b: b1 10        	lda	($10),y                 ; 0x2010 <main+0x1a9c>
    230d: 8d 09 d8     	sta	$d809                   ; 0xd809 <__heap_start+0x549f>
    2310: 88           	dey
    2311: b1 10        	lda	($10),y                 ; 0x2010 <main+0x1a9c>
    2313: 7a           	ply
    2314: 8d 0a d8     	sta	$d80a                   ; 0xd80a <__heap_start+0x54a0>
    2317: 8c 0c d8     	sty	$d80c                   ; 0xd80c <__heap_start+0x54a2>
    231a: 5a           	phy
    231b: a0 17        	ldy	#$17
    231d: b1 10        	lda	($10),y                 ; 0x2010 <main+0x1a9c>
    231f: 8d 0d d8     	sta	$d80d                   ; 0xd80d <__heap_start+0x54a3>
    2322: 88           	dey
    2323: b1 10        	lda	($10),y                 ; 0x2010 <main+0x1a9c>
    2325: 7a           	ply
    2326: 8d 0e d8     	sta	$d80e                   ; 0xd80e <__heap_start+0x54a4>
    2329: 8c 10 d8     	sty	$d810                   ; 0xd810 <__heap_start+0x54a6>
    232c: 5a           	phy
    232d: a0 1a        	ldy	#$1a
    232f: b1 10        	lda	($10),y                 ; 0x2010 <main+0x1a9c>
    2331: 8d 11 d8     	sta	$d811                   ; 0xd811 <__heap_start+0x54a7>
    2334: a0 18        	ldy	#$18
    2336: b1 10        	lda	($10),y                 ; 0x2010 <main+0x1a9c>
    2338: 7a           	ply
    2339: 8d 12 d8     	sta	$d812                   ; 0xd812 <__heap_start+0x54a8>
    233c: 8c 14 d8     	sty	$d814                   ; 0xd814 <__heap_start+0x54aa>
    233f: 5a           	phy
    2340: a0 1d        	ldy	#$1d
    2342: b1 10        	lda	($10),y                 ; 0x2010 <main+0x1a9c>
    2344: 8d 15 d8     	sta	$d815                   ; 0xd815 <__heap_start+0x54ab>
    2347: 88           	dey
    2348: b1 10        	lda	($10),y                 ; 0x2010 <main+0x1a9c>
    234a: 7a           	ply
    234b: 8d 16 d8     	sta	$d816                   ; 0xd816 <__heap_start+0x54ac>
    234e: 8c 18 d8     	sty	$d818                   ; 0xd818 <__heap_start+0x54ae>
    2351: 5a           	phy
    2352: a0 20        	ldy	#$20
    2354: b1 10        	lda	($10),y                 ; 0x2010 <main+0x1a9c>
    2356: 8d 19 d8     	sta	$d819                   ; 0xd819 <__heap_start+0x54af>
    2359: a0 1e        	ldy	#$1e
    235b: b1 10        	lda	($10),y                 ; 0x2010 <main+0x1a9c>
    235d: 7a           	ply
    235e: 8d 1a d8     	sta	$d81a                   ; 0xd81a <__heap_start+0x54b0>
    2361: 8c 1c d8     	sty	$d81c                   ; 0xd81c <__heap_start+0x54b2>
    2364: 5a           	phy
    2365: a0 1b        	ldy	#$1b
    2367: b1 10        	lda	($10),y                 ; 0x2010 <main+0x1a9c>
    2369: 8d 1d d8     	sta	$d81d                   ; 0xd81d <__heap_start+0x54b3>
    236c: a0 19        	ldy	#$19
    236e: b1 10        	lda	($10),y                 ; 0x2010 <main+0x1a9c>
    2370: 7a           	ply
    2371: aa           	tax
    2372: 68           	pla
    2373: 8e 1e d8     	stx	$d81e                   ; 0xd81e <__heap_start+0x54b4>
    2376: 8c 20 d8     	sty	$d820                   ; 0xd820 <__heap_start+0x54b6>
    2379: a2 ff        	ldx	#$ff
    237b: 8e 21 d8     	stx	$d821                   ; 0xd821 <__heap_start+0x54b7>
    237e: 8d 22 d8     	sta	$d822                   ; 0xd822 <__heap_start+0x54b8>
    2381: 48           	pha
    2382: a0 22        	ldy	#$22
    2384: b1 10        	lda	($10),y                 ; 0x2010 <main+0x1a9c>
    2386: 8d 24 d8     	sta	$d824                   ; 0xd824 <__heap_start+0x54ba>
    2389: a0 33        	ldy	#$33
    238b: b1 10        	lda	($10),y                 ; 0x2010 <main+0x1a9c>
    238d: aa           	tax
    238e: 68           	pla
    238f: 8e 25 d8     	stx	$d825                   ; 0xd825 <__heap_start+0x54bb>
    2392: 8d 26 d8     	sta	$d826                   ; 0xd826 <__heap_start+0x54bc>
    2395: 48           	pha
    2396: a0 24        	ldy	#$24
    2398: b1 10        	lda	($10),y                 ; 0x2010 <main+0x1a9c>
    239a: 8d 28 d8     	sta	$d828                   ; 0xd828 <__heap_start+0x54be>
    239d: 88           	dey
    239e: b1 10        	lda	($10),y                 ; 0x2010 <main+0x1a9c>
    23a0: aa           	tax
    23a1: 68           	pla
    23a2: 8e 29 d8     	stx	$d829                   ; 0xd829 <__heap_start+0x54bf>
    23a5: 8d 2a d8     	sta	$d82a                   ; 0xd82a <__heap_start+0x54c0>
    23a8: 48           	pha
    23a9: a0 26        	ldy	#$26
    23ab: b1 10        	lda	($10),y                 ; 0x2010 <main+0x1a9c>
    23ad: 8d 2c d8     	sta	$d82c                   ; 0xd82c <__heap_start+0x54c2>
    23b0: 88           	dey
    23b1: b1 10        	lda	($10),y                 ; 0x2010 <main+0x1a9c>
    23b3: aa           	tax
    23b4: 68           	pla
    23b5: 8e 2d d8     	stx	$d82d                   ; 0xd82d <__heap_start+0x54c3>
    23b8: 8d 2e d8     	sta	$d82e                   ; 0xd82e <__heap_start+0x54c4>
    23bb: 48           	pha
    23bc: a0 28        	ldy	#$28
    23be: b1 10        	lda	($10),y                 ; 0x2010 <main+0x1a9c>
    23c0: 8d 30 d8     	sta	$d830                   ; 0xd830 <__heap_start+0x54c6>
    23c3: 88           	dey
    23c4: b1 10        	lda	($10),y                 ; 0x2010 <main+0x1a9c>
    23c6: aa           	tax
    23c7: 68           	pla
    23c8: 8e 31 d8     	stx	$d831                   ; 0xd831 <__heap_start+0x54c7>
    23cb: 8d 32 d8     	sta	$d832                   ; 0xd832 <__heap_start+0x54c8>
    23ce: 48           	pha
    23cf: a0 2f        	ldy	#$2f
    23d1: b1 10        	lda	($10),y                 ; 0x2010 <main+0x1a9c>
    23d3: 8d 34 d8     	sta	$d834                   ; 0xd834 <__heap_start+0x54ca>
    23d6: a0 29        	ldy	#$29
    23d8: b1 10        	lda	($10),y                 ; 0x2010 <main+0x1a9c>
    23da: aa           	tax
    23db: 68           	pla
    23dc: 8e 35 d8     	stx	$d835                   ; 0xd835 <__heap_start+0x54cb>
    23df: 8d 36 d8     	sta	$d836                   ; 0xd836 <__heap_start+0x54cc>
    23e2: 48           	pha
    23e3: a0 21        	ldy	#$21
    23e5: b1 10        	lda	($10),y                 ; 0x2010 <main+0x1a9c>
    23e7: 8d 38 d8     	sta	$d838                   ; 0xd838 <__heap_start+0x54ce>
    23ea: a0 1f        	ldy	#$1f
    23ec: b1 10        	lda	($10),y                 ; 0x2010 <main+0x1a9c>
    23ee: aa           	tax
    23ef: 68           	pla
    23f0: 8e 39 d8     	stx	$d839                   ; 0xd839 <__heap_start+0x54cf>
    23f3: 8d 3a d8     	sta	$d83a                   ; 0xd83a <__heap_start+0x54d0>
    23f6: 48           	pha
    23f7: a0 32        	ldy	#$32
    23f9: b1 10        	lda	($10),y                 ; 0x2010 <main+0x1a9c>
    23fb: 8d 3c d8     	sta	$d83c                   ; 0xd83c <__heap_start+0x54d2>
    23fe: 88           	dey
    23ff: b1 10        	lda	($10),y                 ; 0x2010 <main+0x1a9c>
    2401: aa           	tax
    2402: 68           	pla
    2403: 8e 3d d8     	stx	$d83d                   ; 0xd83d <__heap_start+0x54d3>
    2406: 8d 3e d8     	sta	$d83e                   ; 0xd83e <__heap_start+0x54d4>
    2409: a2 25        	ldx	#$25
    240b: 8a           	txa
    240c: a0 33        	ldy	#$33
    240e: 91 10        	sta	($10),y                 ; 0x2010 <main+0x1a9c>
    2410: ca           	dex
    2411: 8a           	txa
    2412: 88           	dey
    2413: 91 10        	sta	($10),y                 ; 0x2010 <main+0x1a9c>
    2415: a2 c9        	ldx	#$c9
    2417: 8a           	txa
    2418: 88           	dey
    2419: 91 10        	sta	($10),y                 ; 0x2010 <main+0x1a9c>
    241b: a2 01        	ldx	#$1
    241d: 64 14        	stz	$14                     ; 0x2014 <main+0x1aa0>
    241f: a0 c9        	ldy	#$c9
    2421: 98           	tya
    2422: a0 2f        	ldy	#$2f
    2424: 91 10        	sta	($10),y                 ; 0x2010 <main+0x1a9c>
    2426: 64 16        	stz	$16                     ; 0x2016 <main+0x1aa2>
    2428: 86 1f        	stx	$1f                     ; 0x201f <main+0x1aab>
    242a: 18           	clc
    242b: a5 10        	lda	$10                     ; 0x2010 <main+0x1a9c>
    242d: 69 93        	adc	#$93
    242f: 48           	pha
    2430: a5 11        	lda	$11                     ; 0x2011 <main+0x1a9d>
    2432: 69 20        	adc	#$20
    2434: 85 13        	sta	$13                     ; 0x2013 <main+0x1a9f>
    2436: 68           	pla
    2437: a6 14        	ldx	$14                     ; 0x2014 <main+0x1aa0>
    2439: 86 22        	stx	$22                     ; 0x2022 <main+0x1aae>
    243b: 86 12        	stx	$12                     ; 0x2012 <main+0x1a9e>
    243d: 18           	clc
    243e: 65 12        	adc	$12                     ; 0x2012 <main+0x1a9e>
    2440: 85 14        	sta	$14                     ; 0x2014 <main+0x1aa0>
    2442: a5 13        	lda	$13                     ; 0x2013 <main+0x1a9f>
    2444: 69 00        	adc	#$0
    2446: 85 15        	sta	$15                     ; 0x2015 <main+0x1aa1>
    2448: a9 1f        	lda	#$1f
    244a: a0 02        	ldy	#$2
    244c: 31 14        	and	($14),y                 ; 0x2014 <main+0x1aa0>
    244e: 85 1d        	sta	$1d                     ; 0x201d <main+0x1aa9>
    2450: 18           	clc
    2451: a5 10        	lda	$10                     ; 0x2010 <main+0x1a9c>
    2453: 69 75        	adc	#$75
    2455: 48           	pha
    2456: a5 11        	lda	$11                     ; 0x2011 <main+0x1a9d>
    2458: 69 20        	adc	#$20
    245a: 85 13        	sta	$13                     ; 0x2013 <main+0x1a9f>
    245c: 68           	pla
    245d: 18           	clc
    245e: 65 12        	adc	$12                     ; 0x2012 <main+0x1a9e>
    2460: 85 12        	sta	$12                     ; 0x2012 <main+0x1a9e>
    2462: a5 13        	lda	$13                     ; 0x2013 <main+0x1a9f>
    2464: 69 00        	adc	#$0
    2466: aa           	tax
    2467: a5 12        	lda	$12                     ; 0x2012 <main+0x1a9e>
    2469: 86 13        	stx	$13                     ; 0x2013 <main+0x1a9f>
    246b: 18           	clc
    246c: 69 02        	adc	#$2
    246e: 85 14        	sta	$14                     ; 0x2014 <main+0x1aa0>
    2470: 8a           	txa
    2471: 69 00        	adc	#$0
    2473: 85 15        	sta	$15                     ; 0x2015 <main+0x1aa1>
    2475: b1 12        	lda	($12),y                 ; 0x2012 <main+0x1a9e>
    2477: 85 29        	sta	$29                     ; 0x2029 <main+0x1ab5>
    2479: 85 19        	sta	$19                     ; 0x2019 <main+0x1aa5>
    247b: 88           	dey
    247c: b1 14        	lda	($14),y                 ; 0x2014 <main+0x1aa0>
    247e: 85 2a        	sta	$2a                     ; 0x202a <main+0x1ab6>
    2480: 85 1a        	sta	$1a                     ; 0x201a <main+0x1aa6>
    2482: a6 1d        	ldx	$1d                     ; 0x201d <main+0x1aa9>
    2484: 86 18        	stx	$18                     ; 0x2018 <main+0x1aa4>
    2486: 06 18        	asl	$18                     ; 0x2018 <main+0x1aa4>
    2488: 64 17        	stz	$17                     ; 0x2017 <main+0x1aa3>
    248a: 26 17        	rol	$17                     ; 0x2017 <main+0x1aa3>
    248c: a4 18        	ldy	$18                     ; 0x2018 <main+0x1aa4>
    248e: 06 18        	asl	$18                     ; 0x2018 <main+0x1aa4>
    2490: 26 17        	rol	$17                     ; 0x2017 <main+0x1aa3>
    2492: 5a           	phy
    2493: a6 19        	ldx	$19                     ; 0x2019 <main+0x1aa5>
    2495: 86 1c        	stx	$1c                     ; 0x201c <main+0x1aa8>
    2497: 06 1c        	asl	$1c                     ; 0x201c <main+0x1aa8>
    2499: 2a           	rol
    249a: a6 1c        	ldx	$1c                     ; 0x201c <main+0x1aa8>
    249c: 86 1e        	stx	$1e                     ; 0x201e <main+0x1aaa>
    249e: 06 1c        	asl	$1c                     ; 0x201c <main+0x1aa8>
    24a0: 2a           	rol
    24a1: a2 00        	ldx	#$0
    24a3: e4 1a        	cpx	$1a                     ; 0x201a <main+0x1aa6>
    24a5: a0 01        	ldy	#$1
    24a7: b0 02        	bcs	$24ab <main+0x1f37>
    24a9: a0 00        	ldy	#$0
    24ab: 84 24        	sty	$24                     ; 0x2024 <main+0x1ab0>
    24ad: 7a           	ply
    24ae: 85 1b        	sta	$1b                     ; 0x201b <main+0x1aa7>
    24b0: a5 1d        	lda	$1d                     ; 0x201d <main+0x1aa9>
    24b2: 85 23        	sta	$23                     ; 0x2023 <main+0x1aaf>
    24b4: e4 1a        	cpx	$1a                     ; 0x201a <main+0x1aa6>
    24b6: d0 1f        	bne	$24d7 <main+0x1f63>
    24b8: c5 19        	cmp	$19                     ; 0x2019 <main+0x1aa5>
    24ba: 90 1f        	bcc	$24db <main+0x1f67>
    24bc: a6 1a        	ldx	$1a                     ; 0x201a <main+0x1aa6>
    24be: f0 03        	beq	$24c3 <main+0x1f4f>
    24c0: 4c 5c 25     	jmp	$255c <main+0x1fe8>
    24c3: a6 29        	ldx	$29                     ; 0x2029 <main+0x1ab5>
    24c5: e4 1d        	cpx	$1d                     ; 0x201d <main+0x1aa9>
    24c7: b0 03        	bcs	$24cc <main+0x1f58>
    24c9: 4c 65 25     	jmp	$2565 <main+0x1ff1>
    24cc: a4 01        	ldy	$1                      ; 0x2001 <main+0x1a8d>
    24ce: a2 02        	ldx	#$2
    24d0: 86 01        	stx	$1                      ; 0x2001 <main+0x1a8d>
    24d2: a6 1f        	ldx	$1f                     ; 0x201f <main+0x1aab>
    24d4: 4c ba 26     	jmp	$26ba <main+0x2146>
    24d7: a6 24        	ldx	$24                     ; 0x2024 <main+0x1ab0>
    24d9: d0 e1        	bne	$24bc <main+0x1f48>
    24db: 18           	clc
    24dc: 98           	tya
    24dd: 69 28        	adc	#$28
    24df: 85 1d        	sta	$1d                     ; 0x201d <main+0x1aa9>
    24e1: a8           	tay
    24e2: a5 1f        	lda	$1f                     ; 0x201f <main+0x1aab>
    24e4: 0a           	asl
    24e5: 0a           	asl
    24e6: 0a           	asl
    24e7: 85 25        	sta	$25                     ; 0x2025 <main+0x1ab1>
    24e9: 18           	clc
    24ea: 69 3c        	adc	#$3c
    24ec: 85 26        	sta	$26                     ; 0x2026 <main+0x1ab2>
    24ee: a5 29        	lda	$29                     ; 0x2029 <main+0x1ab5>
    24f0: 38           	sec
    24f1: e5 23        	sbc	$23                     ; 0x2023 <main+0x1aaf>
    24f3: 85 1e        	sta	$1e                     ; 0x201e <main+0x1aaa>
    24f5: a2 2a        	ldx	#$2a
    24f7: 8e 40 dd     	stx	$dd40                   ; 0xdd40 <__heap_start+0x59d6>
    24fa: 9c 41 dd     	stz	$dd41                   ; 0xdd41 <__heap_start+0x59d7>
    24fd: a6 26        	ldx	$26                     ; 0x2026 <main+0x1ab2>
    24ff: 8e 41 dd     	stx	$dd41                   ; 0xdd41 <__heap_start+0x59d7>
    2502: 9c 41 dd     	stz	$dd41                   ; 0xdd41 <__heap_start+0x59d7>
    2505: 18           	clc
    2506: a5 25        	lda	$25                     ; 0x2025 <main+0x1ab1>
    2508: 69 3d        	adc	#$3d
    250a: 8d 41 dd     	sta	$dd41                   ; 0xdd41 <__heap_start+0x59d7>
    250d: a2 2b        	ldx	#$2b
    250f: 8e 40 dd     	stx	$dd40                   ; 0xdd40 <__heap_start+0x59d6>
    2512: 9c 41 dd     	stz	$dd41                   ; 0xdd41 <__heap_start+0x59d7>
    2515: 18           	clc
    2516: 98           	tya
    2517: 69 14        	adc	#$14
    2519: 8d 41 dd     	sta	$dd41                   ; 0xdd41 <__heap_start+0x59d7>
    251c: 18           	clc
    251d: a5 1e        	lda	$1e                     ; 0x201e <main+0x1aaa>
    251f: 65 1d        	adc	$1d                     ; 0x201d <main+0x1aa9>
    2521: 8d 41 dd     	sta	$dd41                   ; 0xdd41 <__heap_start+0x59d7>
    2524: 29 fe        	and	#$fe
    2526: 8d 41 dd     	sta	$dd41                   ; 0xdd41 <__heap_start+0x59d7>
    2529: a5 1c        	lda	$1c                     ; 0x201c <main+0x1aa8>
    252b: 09 01        	ora	#$1
    252d: 38           	sec
    252e: e5 18        	sbc	$18                     ; 0x2018 <main+0x1aa4>
    2530: a8           	tay
    2531: a5 1b        	lda	$1b                     ; 0x201b <main+0x1aa7>
    2533: e5 17        	sbc	$17                     ; 0x2017 <main+0x1aa3>
    2535: e8           	inx
    2536: 8e 40 dd     	stx	$dd40                   ; 0xdd40 <__heap_start+0x59d6>
    2539: 80 05        	bra	$2540 <main+0x1fcc>
    253b: a4 1d        	ldy	$1d                     ; 0x201d <main+0x1aa9>
    253d: aa           	tax
    253e: f0 15        	beq	$2555 <main+0x1fe1>
    2540: 9c 42 dd     	stz	$dd42                   ; 0xdd42 <__heap_start+0x59d8>
    2543: a2 f8        	ldx	#$f8
    2545: 8e 43 dd     	stx	$dd43                   ; 0xdd43 <__heap_start+0x59d9>
    2548: 84 1d        	sty	$1d                     ; 0x201d <main+0x1aa9>
    254a: a0 ff        	ldy	#$ff
    254c: c6 1d        	dec	$1d                     ; 0x201d <main+0x1aa9>
    254e: c4 1d        	cpy	$1d                     ; 0x201d <main+0x1aa9>
    2550: d0 e9        	bne	$253b <main+0x1fc7>
    2552: 3a           	dec
    2553: 80 e6        	bra	$253b <main+0x1fc7>
    2555: a6 1d        	ldx	$1d                     ; 0x201d <main+0x1aa9>
    2557: d0 e7        	bne	$2540 <main+0x1fcc>
    2559: 4c eb 25     	jmp	$25eb <main+0x2077>
    255c: a6 2a        	ldx	$2a                     ; 0x202a <main+0x1ab6>
    255e: e0 00        	cpx	#$0
    2560: 90 03        	bcc	$2565 <main+0x1ff1>
    2562: 4c cc 24     	jmp	$24cc <main+0x1f58>
    2565: 18           	clc
    2566: a5 1e        	lda	$1e                     ; 0x201e <main+0x1aaa>
    2568: 69 28        	adc	#$28
    256a: 85 1d        	sta	$1d                     ; 0x201d <main+0x1aa9>
    256c: a8           	tay
    256d: a5 1f        	lda	$1f                     ; 0x201f <main+0x1aab>
    256f: 0a           	asl
    2570: 0a           	asl
    2571: 0a           	asl
    2572: 85 25        	sta	$25                     ; 0x2025 <main+0x1ab1>
    2574: 18           	clc
    2575: 69 3c        	adc	#$3c
    2577: 85 26        	sta	$26                     ; 0x2026 <main+0x1ab2>
    2579: a5 23        	lda	$23                     ; 0x2023 <main+0x1aaf>
    257b: 38           	sec
    257c: e5 19        	sbc	$19                     ; 0x2019 <main+0x1aa5>
    257e: 85 1e        	sta	$1e                     ; 0x201e <main+0x1aaa>
    2580: a2 2a        	ldx	#$2a
    2582: 8e 40 dd     	stx	$dd40                   ; 0xdd40 <__heap_start+0x59d6>
    2585: 9c 41 dd     	stz	$dd41                   ; 0xdd41 <__heap_start+0x59d7>
    2588: a6 26        	ldx	$26                     ; 0x2026 <main+0x1ab2>
    258a: 8e 41 dd     	stx	$dd41                   ; 0xdd41 <__heap_start+0x59d7>
    258d: 9c 41 dd     	stz	$dd41                   ; 0xdd41 <__heap_start+0x59d7>
    2590: 18           	clc
    2591: a5 25        	lda	$25                     ; 0x2025 <main+0x1ab1>
    2593: 69 3d        	adc	#$3d
    2595: 8d 41 dd     	sta	$dd41                   ; 0xdd41 <__heap_start+0x59d7>
    2598: a2 2b        	ldx	#$2b
    259a: 8e 40 dd     	stx	$dd40                   ; 0xdd40 <__heap_start+0x59d6>
    259d: 9c 41 dd     	stz	$dd41                   ; 0xdd41 <__heap_start+0x59d7>
    25a0: 18           	clc
    25a1: 98           	tya
    25a2: 69 14        	adc	#$14
    25a4: 8d 41 dd     	sta	$dd41                   ; 0xdd41 <__heap_start+0x59d7>
    25a7: 18           	clc
    25a8: a5 1e        	lda	$1e                     ; 0x201e <main+0x1aaa>
    25aa: 65 1d        	adc	$1d                     ; 0x201d <main+0x1aa9>
    25ac: 8d 41 dd     	sta	$dd41                   ; 0xdd41 <__heap_start+0x59d7>
    25af: 29 fe        	and	#$fe
    25b1: 8d 41 dd     	sta	$dd41                   ; 0xdd41 <__heap_start+0x59d7>
    25b4: a5 18        	lda	$18                     ; 0x2018 <main+0x1aa4>
    25b6: 09 01        	ora	#$1
    25b8: 38           	sec
    25b9: e5 1c        	sbc	$1c                     ; 0x201c <main+0x1aa8>
    25bb: 85 1d        	sta	$1d                     ; 0x201d <main+0x1aa9>
    25bd: a5 17        	lda	$17                     ; 0x2017 <main+0x1aa3>
    25bf: e5 1b        	sbc	$1b                     ; 0x201b <main+0x1aa7>
    25c1: e8           	inx
    25c2: 8e 40 dd     	stx	$dd40                   ; 0xdd40 <__heap_start+0x59d6>
    25c5: a2 e0        	ldx	#$e0
    25c7: 80 07        	bra	$25d0 <main+0x205c>
    25c9: a4 1e        	ldy	$1e                     ; 0x201e <main+0x1aaa>
    25cb: 84 1d        	sty	$1d                     ; 0x201d <main+0x1aa9>
    25cd: a8           	tay
    25ce: f0 17        	beq	$25e7 <main+0x2073>
    25d0: 8e 42 dd     	stx	$dd42                   ; 0xdd42 <__heap_start+0x59d8>
    25d3: a0 07        	ldy	#$7
    25d5: 8c 43 dd     	sty	$dd43                   ; 0xdd43 <__heap_start+0x59d9>
    25d8: a4 1d        	ldy	$1d                     ; 0x201d <main+0x1aa9>
    25da: 84 1e        	sty	$1e                     ; 0x201e <main+0x1aaa>
    25dc: a0 ff        	ldy	#$ff
    25de: c6 1e        	dec	$1e                     ; 0x201e <main+0x1aaa>
    25e0: c4 1e        	cpy	$1e                     ; 0x201e <main+0x1aaa>
    25e2: d0 e5        	bne	$25c9 <main+0x2055>
    25e4: 3a           	dec
    25e5: 80 e2        	bra	$25c9 <main+0x2055>
    25e7: a4 1e        	ldy	$1e                     ; 0x201e <main+0x1aaa>
    25e9: d0 e5        	bne	$25d0 <main+0x205c>
    25eb: a4 01        	ldy	$1                      ; 0x2001 <main+0x1a8d>
    25ed: a2 02        	ldx	#$2
    25ef: 86 01        	stx	$1                      ; 0x2001 <main+0x1a8d>
    25f1: a5 1a        	lda	$1a                     ; 0x201a <main+0x1aa6>
    25f3: d0 1f        	bne	$2614 <main+0x20a0>
    25f5: a5 23        	lda	$23                     ; 0x2023 <main+0x1aaf>
    25f7: 85 1d        	sta	$1d                     ; 0x201d <main+0x1aa9>
    25f9: a6 29        	ldx	$29                     ; 0x2029 <main+0x1ab5>
    25fb: e4 1d        	cpx	$1d                     ; 0x201d <main+0x1aa9>
    25fd: 90 1d        	bcc	$261c <main+0x20a8>
    25ff: a2 00        	ldx	#$0
    2601: e4 1a        	cpx	$1a                     ; 0x201a <main+0x1aa6>
    2603: f0 03        	beq	$2608 <main+0x2094>
    2605: 4c 03 27     	jmp	$2703 <main+0x218f>
    2608: c5 19        	cmp	$19                     ; 0x2019 <main+0x1aa5>
    260a: b0 03        	bcs	$260f <main+0x209b>
    260c: 4c 0a 27     	jmp	$270a <main+0x2196>
    260f: a6 1f        	ldx	$1f                     ; 0x201f <main+0x1aab>
    2611: 4c ba 26     	jmp	$26ba <main+0x2146>
    2614: a6 2a        	ldx	$2a                     ; 0x202a <main+0x1ab6>
    2616: e0 00        	cpx	#$0
    2618: a5 23        	lda	$23                     ; 0x2023 <main+0x1aaf>
    261a: b0 e3        	bcs	$25ff <main+0x208b>
    261c: 38           	sec
    261d: e5 19        	sbc	$19                     ; 0x2019 <main+0x1aa5>
    261f: aa           	tax
    2620: a9 00        	lda	#$0
    2622: e5 1a        	sbc	$1a                     ; 0x201a <main+0x1aa6>
    2624: 85 1d        	sta	$1d                     ; 0x201d <main+0x1aa9>
    2626: a5 1c        	lda	$1c                     ; 0x201c <main+0x1aa8>
    2628: 0a           	asl
    2629: 26 1b        	rol	$1b                     ; 0x201b <main+0x1aa7>
    262b: 0a           	asl
    262c: 85 17        	sta	$17                     ; 0x2017 <main+0x1aa3>
    262e: 26 1b        	rol	$1b                     ; 0x201b <main+0x1aa7>
    2630: 0a           	asl
    2631: 5a           	phy
    2632: a4 1b        	ldy	$1b                     ; 0x201b <main+0x1aa7>
    2634: 84 18        	sty	$18                     ; 0x2018 <main+0x1aa4>
    2636: 7a           	ply
    2637: 26 18        	rol	$18                     ; 0x2018 <main+0x1aa4>
    2639: 0a           	asl
    263a: 26 18        	rol	$18                     ; 0x2018 <main+0x1aa4>
    263c: 18           	clc
    263d: 65 17        	adc	$17                     ; 0x2017 <main+0x1aa3>
    263f: 85 17        	sta	$17                     ; 0x2017 <main+0x1aa3>
    2641: a5 18        	lda	$18                     ; 0x2018 <main+0x1aa4>
    2643: 65 1b        	adc	$1b                     ; 0x201b <main+0x1aa7>
    2645: 85 18        	sta	$18                     ; 0x2018 <main+0x1aa4>
    2647: 5a           	phy
    2648: a0 33        	ldy	#$33
    264a: b1 10        	lda	($10),y                 ; 0x2010 <main+0x1a9c>
    264c: 38           	sec
    264d: e5 17        	sbc	$17                     ; 0x2017 <main+0x1aa3>
    264f: 85 1c        	sta	$1c                     ; 0x201c <main+0x1aa8>
    2651: a0 2f        	ldy	#$2f
    2653: b1 10        	lda	($10),y                 ; 0x2010 <main+0x1a9c>
    2655: e5 18        	sbc	$18                     ; 0x2018 <main+0x1aa4>
    2657: 85 1e        	sta	$1e                     ; 0x201e <main+0x1aaa>
    2659: 38           	sec
    265a: a0 32        	ldy	#$32
    265c: b1 10        	lda	($10),y                 ; 0x2010 <main+0x1a9c>
    265e: e5 17        	sbc	$17                     ; 0x2017 <main+0x1aa3>
    2660: 85 24        	sta	$24                     ; 0x2024 <main+0x1ab0>
    2662: 88           	dey
    2663: b1 10        	lda	($10),y                 ; 0x2010 <main+0x1a9c>
    2665: 7a           	ply
    2666: e5 18        	sbc	$18                     ; 0x2018 <main+0x1aa4>
    2668: 85 19        	sta	$19                     ; 0x2019 <main+0x1aa5>
    266a: 80 22        	bra	$268e <main+0x211a>
    266c: 18           	clc
    266d: a5 1c        	lda	$1c                     ; 0x201c <main+0x1aa8>
    266f: 69 b0        	adc	#$b0
    2671: 85 1c        	sta	$1c                     ; 0x201c <main+0x1aa8>
    2673: a5 1e        	lda	$1e                     ; 0x201e <main+0x1aaa>
    2675: 69 ff        	adc	#$ff
    2677: 85 1e        	sta	$1e                     ; 0x201e <main+0x1aaa>
    2679: 18           	clc
    267a: a5 24        	lda	$24                     ; 0x2024 <main+0x1ab0>
    267c: 69 b0        	adc	#$b0
    267e: 85 24        	sta	$24                     ; 0x2024 <main+0x1ab0>
    2680: a5 19        	lda	$19                     ; 0x2019 <main+0x1aa5>
    2682: 69 ff        	adc	#$ff
    2684: 85 19        	sta	$19                     ; 0x2019 <main+0x1aa5>
    2686: a6 17        	ldx	$17                     ; 0x2017 <main+0x1aa3>
    2688: a5 18        	lda	$18                     ; 0x2018 <main+0x1aa4>
    268a: 85 1d        	sta	$1d                     ; 0x201d <main+0x1aa9>
    268c: f0 24        	beq	$26b2 <main+0x213e>
    268e: a5 24        	lda	$24                     ; 0x2024 <main+0x1ab0>
    2690: 85 18        	sta	$18                     ; 0x2018 <main+0x1aa4>
    2692: a5 1c        	lda	$1c                     ; 0x201c <main+0x1aa8>
    2694: 85 1a        	sta	$1a                     ; 0x201a <main+0x1aa6>
    2696: a5 1e        	lda	$1e                     ; 0x201e <main+0x1aaa>
    2698: 85 1b        	sta	$1b                     ; 0x201b <main+0x1aa7>
    269a: a9 15        	lda	#$15
    269c: 92 18        	sta	($18)                   ; 0x2018 <main+0x1aa4>
    269e: 92 1a        	sta	($1a)                   ; 0x201a <main+0x1aa6>
    26a0: 86 17        	stx	$17                     ; 0x2017 <main+0x1aa3>
    26a2: a6 1d        	ldx	$1d                     ; 0x201d <main+0x1aa9>
    26a4: 86 18        	stx	$18                     ; 0x2018 <main+0x1aa4>
    26a6: a2 ff        	ldx	#$ff
    26a8: c6 17        	dec	$17                     ; 0x2017 <main+0x1aa3>
    26aa: e4 17        	cpx	$17                     ; 0x2017 <main+0x1aa3>
    26ac: d0 be        	bne	$266c <main+0x20f8>
    26ae: c6 18        	dec	$18                     ; 0x2018 <main+0x1aa4>
    26b0: 80 ba        	bra	$266c <main+0x20f8>
    26b2: a5 17        	lda	$17                     ; 0x2017 <main+0x1aa3>
    26b4: d0 d8        	bne	$268e <main+0x211a>
    26b6: a6 1f        	ldx	$1f                     ; 0x201f <main+0x1aab>
    26b8: a5 23        	lda	$23                     ; 0x2023 <main+0x1aaf>
    26ba: 84 01        	sty	$1                      ; 0x2001 <main+0x1a8d>
    26bc: a0 02        	ldy	#$2
    26be: 91 12        	sta	($12),y                 ; 0x2012 <main+0x1a9e>
    26c0: a9 00        	lda	#$0
    26c2: 88           	dey
    26c3: 91 14        	sta	($14),y                 ; 0x2014 <main+0x1aa0>
    26c5: e8           	inx
    26c6: d0 02        	bne	$26ca <main+0x2156>
    26c8: e6 16        	inc	$16                     ; 0x2016 <main+0x1aa2>
    26ca: 18           	clc
    26cb: a5 22        	lda	$22                     ; 0x2022 <main+0x1aae>
    26cd: 69 02        	adc	#$2
    26cf: 85 14        	sta	$14                     ; 0x2014 <main+0x1aa0>
    26d1: 18           	clc
    26d2: a0 33        	ldy	#$33
    26d4: b1 10        	lda	($10),y                 ; 0x2010 <main+0x1a9c>
    26d6: 69 03        	adc	#$3
    26d8: 91 10        	sta	($10),y                 ; 0x2010 <main+0x1a9c>
    26da: a0 2f        	ldy	#$2f
    26dc: b1 10        	lda	($10),y                 ; 0x2010 <main+0x1a9c>
    26de: 69 00        	adc	#$0
    26e0: 91 10        	sta	($10),y                 ; 0x2010 <main+0x1a9c>
    26e2: 18           	clc
    26e3: a0 32        	ldy	#$32
    26e5: b1 10        	lda	($10),y                 ; 0x2010 <main+0x1a9c>
    26e7: 69 03        	adc	#$3
    26e9: 91 10        	sta	($10),y                 ; 0x2010 <main+0x1a9c>
    26eb: 88           	dey
    26ec: b1 10        	lda	($10),y                 ; 0x2010 <main+0x1a9c>
    26ee: 69 00        	adc	#$0
    26f0: 91 10        	sta	($10),y                 ; 0x2010 <main+0x1a9c>
    26f2: a5 16        	lda	$16                     ; 0x2016 <main+0x1aa2>
    26f4: f0 03        	beq	$26f9 <main+0x2185>
    26f6: 4c 28 24     	jmp	$2428 <main+0x1eb4>
    26f9: e0 0f        	cpx	#$f
    26fb: f0 03        	beq	$2700 <main+0x218c>
    26fd: 4c 28 24     	jmp	$2428 <main+0x1eb4>
    2700: 4c b3 27     	jmp	$27b3 <main+0x223f>
    2703: a6 24        	ldx	$24                     ; 0x2024 <main+0x1ab0>
    2705: f0 03        	beq	$270a <main+0x2196>
    2707: 4c 0f 26     	jmp	$260f <main+0x209b>
    270a: a6 1f        	ldx	$1f                     ; 0x201f <main+0x1aab>
    270c: c9 18        	cmp	#$18
    270e: 90 03        	bcc	$2713 <main+0x219f>
    2710: 4c ba 26     	jmp	$26ba <main+0x2146>
    2713: 18           	clc
    2714: 69 e8        	adc	#$e8
    2716: 85 1c        	sta	$1c                     ; 0x201c <main+0x1aa8>
    2718: a9 00        	lda	#$0
    271a: 69 ff        	adc	#$ff
    271c: 85 1d        	sta	$1d                     ; 0x201d <main+0x1aa9>
    271e: 06 18        	asl	$18                     ; 0x2018 <main+0x1aa4>
    2720: 26 17        	rol	$17                     ; 0x2017 <main+0x1aa3>
    2722: 06 18        	asl	$18                     ; 0x2018 <main+0x1aa4>
    2724: 26 17        	rol	$17                     ; 0x2017 <main+0x1aa3>
    2726: a5 18        	lda	$18                     ; 0x2018 <main+0x1aa4>
    2728: 0a           	asl
    2729: 5a           	phy
    272a: a4 17        	ldy	$17                     ; 0x2017 <main+0x1aa3>
    272c: 84 19        	sty	$19                     ; 0x2019 <main+0x1aa5>
    272e: 7a           	ply
    272f: 26 19        	rol	$19                     ; 0x2019 <main+0x1aa5>
    2731: 0a           	asl
    2732: 26 19        	rol	$19                     ; 0x2019 <main+0x1aa5>
    2734: 18           	clc
    2735: 65 18        	adc	$18                     ; 0x2018 <main+0x1aa4>
    2737: 85 18        	sta	$18                     ; 0x2018 <main+0x1aa4>
    2739: a5 19        	lda	$19                     ; 0x2019 <main+0x1aa5>
    273b: 65 17        	adc	$17                     ; 0x2017 <main+0x1aa3>
    273d: 85 17        	sta	$17                     ; 0x2017 <main+0x1aa3>
    273f: 5a           	phy
    2740: a0 33        	ldy	#$33
    2742: b1 10        	lda	($10),y                 ; 0x2010 <main+0x1a9c>
    2744: 38           	sec
    2745: e5 18        	sbc	$18                     ; 0x2018 <main+0x1aa4>
    2747: 85 1e        	sta	$1e                     ; 0x201e <main+0x1aaa>
    2749: a0 2f        	ldy	#$2f
    274b: b1 10        	lda	($10),y                 ; 0x2010 <main+0x1a9c>
    274d: e5 17        	sbc	$17                     ; 0x2017 <main+0x1aa3>
    274f: 85 1f        	sta	$1f                     ; 0x201f <main+0x1aab>
    2751: 38           	sec
    2752: a0 32        	ldy	#$32
    2754: b1 10        	lda	($10),y                 ; 0x2010 <main+0x1a9c>
    2756: e5 18        	sbc	$18                     ; 0x2018 <main+0x1aa4>
    2758: 85 1a        	sta	$1a                     ; 0x201a <main+0x1aa6>
    275a: 88           	dey
    275b: b1 10        	lda	($10),y                 ; 0x2010 <main+0x1a9c>
    275d: 7a           	ply
    275e: e5 17        	sbc	$17                     ; 0x2017 <main+0x1aa3>
    2760: 85 19        	sta	$19                     ; 0x2019 <main+0x1aa5>
    2762: 80 24        	bra	$2788 <main+0x2214>
    2764: 18           	clc
    2765: a5 1e        	lda	$1e                     ; 0x201e <main+0x1aaa>
    2767: 69 b0        	adc	#$b0
    2769: 85 1e        	sta	$1e                     ; 0x201e <main+0x1aaa>
    276b: a5 1f        	lda	$1f                     ; 0x201f <main+0x1aab>
    276d: 69 ff        	adc	#$ff
    276f: 85 1f        	sta	$1f                     ; 0x201f <main+0x1aab>
    2771: 18           	clc
    2772: a5 24        	lda	$24                     ; 0x2024 <main+0x1ab0>
    2774: 69 b0        	adc	#$b0
    2776: 85 1a        	sta	$1a                     ; 0x201a <main+0x1aa6>
    2778: a5 19        	lda	$19                     ; 0x2019 <main+0x1aa5>
    277a: 69 ff        	adc	#$ff
    277c: 85 19        	sta	$19                     ; 0x2019 <main+0x1aa5>
    277e: a5 17        	lda	$17                     ; 0x2017 <main+0x1aa3>
    2780: 85 1c        	sta	$1c                     ; 0x201c <main+0x1aa8>
    2782: a5 18        	lda	$18                     ; 0x2018 <main+0x1aa4>
    2784: 85 1d        	sta	$1d                     ; 0x201d <main+0x1aa9>
    2786: f0 24        	beq	$27ac <main+0x2238>
    2788: a5 1a        	lda	$1a                     ; 0x201a <main+0x1aa6>
    278a: 85 18        	sta	$18                     ; 0x2018 <main+0x1aa4>
    278c: 85 24        	sta	$24                     ; 0x2024 <main+0x1ab0>
    278e: a5 1e        	lda	$1e                     ; 0x201e <main+0x1aaa>
    2790: 85 1a        	sta	$1a                     ; 0x201a <main+0x1aa6>
    2792: a5 1f        	lda	$1f                     ; 0x201f <main+0x1aab>
    2794: 85 1b        	sta	$1b                     ; 0x201b <main+0x1aa7>
    2796: a9 20        	lda	#$20
    2798: 92 18        	sta	($18)                   ; 0x2018 <main+0x1aa4>
    279a: 92 1a        	sta	($1a)                   ; 0x201a <main+0x1aa6>
    279c: a5 1c        	lda	$1c                     ; 0x201c <main+0x1aa8>
    279e: 85 17        	sta	$17                     ; 0x2017 <main+0x1aa3>
    27a0: a5 1d        	lda	$1d                     ; 0x201d <main+0x1aa9>
    27a2: 85 18        	sta	$18                     ; 0x2018 <main+0x1aa4>
    27a4: e6 17        	inc	$17                     ; 0x2017 <main+0x1aa3>
    27a6: d0 bc        	bne	$2764 <main+0x21f0>
    27a8: e6 18        	inc	$18                     ; 0x2018 <main+0x1aa4>
    27aa: 80 b8        	bra	$2764 <main+0x21f0>
    27ac: a5 17        	lda	$17                     ; 0x2017 <main+0x1aa3>
    27ae: d0 d8        	bne	$2788 <main+0x2214>
    27b0: 4c b8 26     	jmp	$26b8 <main+0x2144>
    27b3: ae 04 d7     	ldx	$d704                   ; 0xd704 <__heap_start+0x539a>
    27b6: 86 12        	stx	$12                     ; 0x2012 <main+0x1a9e>
    27b8: ad 05 d7     	lda	$d705                   ; 0xd705 <__heap_start+0x539b>
    27bb: 29 07        	and	#$7
    27bd: 85 13        	sta	$13                     ; 0x2013 <main+0x1a9f>
    27bf: a9 00        	lda	#$0
    27c1: 38           	sec
    27c2: e5 12        	sbc	$12                     ; 0x2012 <main+0x1a9e>
    27c4: 85 12        	sta	$12                     ; 0x2012 <main+0x1a9e>
    27c6: a9 08        	lda	#$8
    27c8: e5 13        	sbc	$13                     ; 0x2013 <main+0x1a9f>
    27ca: 06 12        	asl	$12                     ; 0x2012 <main+0x1a9e>
    27cc: 2a           	rol
    27cd: 64 2b        	stz	$2b                     ; 0x202b <main+0x1ab7>
    27cf: 26 2b        	rol	$2b                     ; 0x202b <main+0x1ab7>
    27d1: 06 12        	asl	$12                     ; 0x2012 <main+0x1a9e>
    27d3: 2a           	rol
    27d4: 85 2a        	sta	$2a                     ; 0x202a <main+0x1ab6>
    27d6: 26 2b        	rol	$2b                     ; 0x202b <main+0x1ab7>
    27d8: d0 07        	bne	$27e1 <main+0x226d>
    27da: a5 2a        	lda	$2a                     ; 0x202a <main+0x1ab6>
    27dc: d0 03        	bne	$27e1 <main+0x226d>
    27de: 4c f8 28     	jmp	$28f8 <main+0x2384>
    27e1: a0 00        	ldy	#$0
    27e3: a2 00        	ldx	#$0
    27e5: 5a           	phy
    27e6: a0 2d        	ldy	#$2d
    27e8: b1 10        	lda	($10),y                 ; 0x2010 <main+0x1a9c>
    27ea: 7a           	ply
    27eb: 29 01        	and	#$1
    27ed: f0 03        	beq	$27f2 <main+0x227e>
    27ef: 4c f8 28     	jmp	$28f8 <main+0x2384>
    27f2: 86 26        	stx	$26                     ; 0x2026 <main+0x1ab2>
    27f4: 84 29        	sty	$29                     ; 0x2029 <main+0x1ab5>
    27f6: a0 2c        	ldy	#$2c
    27f8: b1 10        	lda	($10),y                 ; 0x2010 <main+0x1a9c>
    27fa: 29 01        	and	#$1
    27fc: d0 36        	bne	$2834 <main+0x22c0>
    27fe: 64 3a        	stz	$3a                     ; 0x203a <main+0x1ac6>
    2800: a2 39        	ldx	#$39
    2802: 86 12        	stx	$12                     ; 0x2012 <main+0x1a9e>
    2804: a2 00        	ldx	#$0
    2806: 86 13        	stx	$13                     ; 0x2013 <main+0x1a9f>
    2808: a0 2a        	ldy	#$2a
    280a: b1 10        	lda	($10),y                 ; 0x2010 <main+0x1a9c>
    280c: 85 14        	sta	$14                     ; 0x2014 <main+0x1aa0>
    280e: c8           	iny
    280f: b1 10        	lda	($10),y                 ; 0x2010 <main+0x1a9c>
    2811: 85 15        	sta	$15                     ; 0x2015 <main+0x1aa1>
    2813: 20 00 ff     	jsr	$ff00 <__heap_start+0x7b96>
    2816: 92 14        	sta	($14)                   ; 0x2014 <main+0x1aa0>
    2818: a9 00        	lda	#$0
    281a: 6a           	ror
    281b: 85 12        	sta	$12                     ; 0x2012 <main+0x1a9e>
    281d: a6 3a        	ldx	$3a                     ; 0x203a <main+0x1ac6>
    281f: a4 2d        	ldy	$2d                     ; 0x202d <main+0x1ab9>
    2821: e0 08        	cpx	#$8
    2823: d0 11        	bne	$2836 <main+0x22c2>
    2825: a6 3e        	ldx	$3e                     ; 0x203e <main+0x1aca>
    2827: 86 2c        	stx	$2c                     ; 0x202c <main+0x1ab8>
    2829: a2 01        	ldx	#$1
    282b: 8a           	txa
    282c: 5a           	phy
    282d: a0 2c        	ldy	#$2c
    282f: 91 10        	sta	($10),y                 ; 0x2010 <main+0x1a9c>
    2831: 7a           	ply
    2832: 80 02        	bra	$2836 <main+0x22c2>
    2834: a4 2d        	ldy	$2d                     ; 0x202d <main+0x1ab9>
    2836: 18           	clc
    2837: a5 10        	lda	$10                     ; 0x2010 <main+0x1a9c>
    2839: 69 75        	adc	#$75
    283b: 85 12        	sta	$12                     ; 0x2012 <main+0x1a9e>
    283d: a5 11        	lda	$11                     ; 0x2011 <main+0x1a9d>
    283f: 69 00        	adc	#$0
    2841: 85 13        	sta	$13                     ; 0x2013 <main+0x1a9f>
    2843: 98           	tya
    2844: 18           	clc
    2845: 65 12        	adc	$12                     ; 0x2012 <main+0x1a9e>
    2847: 85 12        	sta	$12                     ; 0x2012 <main+0x1a9e>
    2849: a0 2e        	ldy	#$2e
    284b: b1 10        	lda	($10),y                 ; 0x2010 <main+0x1a9c>
    284d: 65 13        	adc	$13                     ; 0x2013 <main+0x1a9f>
    284f: 85 13        	sta	$13                     ; 0x2013 <main+0x1a9f>
    2851: a0 00        	ldy	#$0
    2853: b1 12        	lda	($12),y                 ; 0x2012 <main+0x1a9e>
    2855: 8d 07 d7     	sta	$d707                   ; 0xd707 <__heap_start+0x539d>
    2858: c8           	iny
    2859: c0 40        	cpy	#$40
    285b: d0 f6        	bne	$2853 <main+0x22df>
    285d: 18           	clc
    285e: a5 2d        	lda	$2d                     ; 0x202d <main+0x1ab9>
    2860: 69 40        	adc	#$40
    2862: 85 2d        	sta	$2d                     ; 0x202d <main+0x1ab9>
    2864: a0 2e        	ldy	#$2e
    2866: b1 10        	lda	($10),y                 ; 0x2010 <main+0x1a9c>
    2868: 69 00        	adc	#$0
    286a: 91 10        	sta	($10),y                 ; 0x2010 <main+0x1a9c>
    286c: c9 20        	cmp	#$20
    286e: d0 10        	bne	$2880 <main+0x230c>
    2870: a6 2e        	ldx	$2e                     ; 0x202e <main+0x1aba>
    2872: a5 2d        	lda	$2d                     ; 0x202d <main+0x1ab9>
    2874: d0 0c        	bne	$2882 <main+0x230e>
    2876: 64 2d        	stz	$2d                     ; 0x202d <main+0x1ab9>
    2878: 64 12        	stz	$12                     ; 0x2012 <main+0x1a9e>
    287a: a9 00        	lda	#$0
    287c: 91 10        	sta	($10),y                 ; 0x2010 <main+0x1a9c>
    287e: 80 02        	bra	$2882 <main+0x230e>
    2880: a6 2e        	ldx	$2e                     ; 0x202e <main+0x1aba>
    2882: 18           	clc
    2883: a5 10        	lda	$10                     ; 0x2010 <main+0x1a9c>
    2885: 69 75        	adc	#$75
    2887: 85 12        	sta	$12                     ; 0x2012 <main+0x1a9e>
    2889: a5 11        	lda	$11                     ; 0x2011 <main+0x1a9d>
    288b: 69 00        	adc	#$0
    288d: 85 13        	sta	$13                     ; 0x2013 <main+0x1a9f>
    288f: a5 2f        	lda	$2f                     ; 0x202f <main+0x1abb>
    2891: 18           	clc
    2892: 65 12        	adc	$12                     ; 0x2012 <main+0x1a9e>
    2894: 85 12        	sta	$12                     ; 0x2012 <main+0x1a9e>
    2896: 8a           	txa
    2897: 86 25        	stx	$25                     ; 0x2025 <main+0x1ab1>
    2899: 65 13        	adc	$13                     ; 0x2013 <main+0x1a9f>
    289b: 85 13        	sta	$13                     ; 0x2013 <main+0x1a9f>
    289d: a6 37        	ldx	$37                     ; 0x2037 <main+0x1ac3>
    289f: 86 14        	stx	$14                     ; 0x2014 <main+0x1aa0>
    28a1: a6 38        	ldx	$38                     ; 0x2038 <main+0x1ac4>
    28a3: 86 15        	stx	$15                     ; 0x2015 <main+0x1aa1>
    28a5: a2 00        	ldx	#$0
    28a7: a9 40        	lda	#$40
    28a9: 20 7c 2b     	jsr	$2b7c <fileRead>
    28ac: c9 40        	cmp	#$40
    28ae: d0 18        	bne	$28c8 <main+0x2354>
    28b0: 18           	clc
    28b1: a5 2f        	lda	$2f                     ; 0x202f <main+0x1abb>
    28b3: 69 40        	adc	#$40
    28b5: a8           	tay
    28b6: a5 25        	lda	$25                     ; 0x2025 <main+0x1ab1>
    28b8: 69 00        	adc	#$0
    28ba: c9 20        	cmp	#$20
    28bc: d0 1f        	bne	$28dd <main+0x2369>
    28be: c0 00        	cpy	#$0
    28c0: d0 1b        	bne	$28dd <main+0x2369>
    28c2: a0 00        	ldy	#$0
    28c4: 64 2e        	stz	$2e                     ; 0x202e <main+0x1aba>
    28c6: 80 17        	bra	$28df <main+0x236b>
    28c8: 18           	clc
    28c9: 65 2f        	adc	$2f                     ; 0x202f <main+0x1abb>
    28cb: a8           	tay
    28cc: a9 00        	lda	#$0
    28ce: 65 2e        	adc	$2e                     ; 0x202e <main+0x1aba>
    28d0: 85 2e        	sta	$2e                     ; 0x202e <main+0x1aba>
    28d2: a2 01        	ldx	#$1
    28d4: 8a           	txa
    28d5: 5a           	phy
    28d6: a0 2d        	ldy	#$2d
    28d8: 91 10        	sta	($10),y                 ; 0x2010 <main+0x1a9c>
    28da: 7a           	ply
    28db: 80 02        	bra	$28df <main+0x236b>
    28dd: 85 2e        	sta	$2e                     ; 0x202e <main+0x1aba>
    28df: 84 2f        	sty	$2f                     ; 0x202f <main+0x1abb>
    28e1: a4 29        	ldy	$29                     ; 0x2029 <main+0x1ab5>
    28e3: c8           	iny
    28e4: d0 02        	bne	$28e8 <main+0x2374>
    28e6: e6 26        	inc	$26                     ; 0x2026 <main+0x1ab2>
    28e8: a6 26        	ldx	$26                     ; 0x2026 <main+0x1ab2>
    28ea: e4 2b        	cpx	$2b                     ; 0x202b <main+0x1ab7>
    28ec: f0 03        	beq	$28f1 <main+0x237d>
    28ee: 4c e5 27     	jmp	$27e5 <main+0x2271>
    28f1: c4 2a        	cpy	$2a                     ; 0x202a <main+0x1ab6>
    28f3: f0 03        	beq	$28f8 <main+0x2384>
    28f5: 4c e5 27     	jmp	$27e5 <main+0x2271>
    28f8: a0 2d        	ldy	#$2d
    28fa: b1 10        	lda	($10),y                 ; 0x2010 <main+0x1a9c>
    28fc: 29 01        	and	#$1
    28fe: f0 03        	beq	$2903 <main+0x238f>
    2900: 4c 8e 29     	jmp	$298e <main+0x241a>
    2903: 64 3a        	stz	$3a                     ; 0x203a <main+0x1ac6>
    2905: a2 39        	ldx	#$39
    2907: 86 12        	stx	$12                     ; 0x2012 <main+0x1a9e>
    2909: a2 00        	ldx	#$0
    290b: 86 13        	stx	$13                     ; 0x2013 <main+0x1a9f>
    290d: a0 2a        	ldy	#$2a
    290f: b1 10        	lda	($10),y                 ; 0x2010 <main+0x1a9c>
    2911: 85 14        	sta	$14                     ; 0x2014 <main+0x1aa0>
    2913: c8           	iny
    2914: b1 10        	lda	($10),y                 ; 0x2010 <main+0x1a9c>
    2916: 85 15        	sta	$15                     ; 0x2015 <main+0x1aa1>
    2918: 20 00 ff     	jsr	$ff00 <__heap_start+0x7b96>
    291b: 92 14        	sta	($14)                   ; 0x2014 <main+0x1aa0>
    291d: a9 00        	lda	#$0
    291f: 6a           	ror
    2920: 85 12        	sta	$12                     ; 0x2012 <main+0x1a9e>
    2922: a6 3a        	ldx	$3a                     ; 0x203a <main+0x1ac6>
    2924: e0 08        	cpx	#$8
    2926: f0 03        	beq	$292b <main+0x23b7>
    2928: 4c 3b 21     	jmp	$213b <main+0x1bc7>
    292b: a6 3e        	ldx	$3e                     ; 0x203e <main+0x1aca>
    292d: e0 81        	cpx	#$81
    292f: d0 03        	bne	$2934 <main+0x23c0>
    2931: 4c 8d 1e     	jmp	$1e8d <main+0x1919>
    2934: e0 92        	cpx	#$92
    2936: f0 03        	beq	$293b <main+0x23c7>
    2938: 4c 3b 21     	jmp	$213b <main+0x1bc7>
    293b: a6 37        	ldx	$37                     ; 0x2037 <main+0x1ac3>
    293d: a4 38        	ldy	$38                     ; 0x2038 <main+0x1ac4>
    293f: 86 12        	stx	$12                     ; 0x2012 <main+0x1a9e>
    2941: 84 13        	sty	$13                     ; 0x2013 <main+0x1a9f>
    2943: b2 12        	lda	($12)                   ; 0x2012 <main+0x1a9e>
    2945: 85 f3        	sta	$f3                     ; 0x20f3 <main+0x1b7f>
    2947: a2 39        	ldx	#$39
    2949: 86 24        	stx	$24                     ; 0x2024 <main+0x1ab0>
    294b: a2 00        	ldx	#$0
    294d: 86 25        	stx	$25                     ; 0x2025 <main+0x1ab1>
    294f: a0 2a        	ldy	#$2a
    2951: b1 10        	lda	($10),y                 ; 0x2010 <main+0x1a9c>
    2953: 85 14        	sta	$14                     ; 0x2014 <main+0x1aa0>
    2955: c8           	iny
    2956: b1 10        	lda	($10),y                 ; 0x2010 <main+0x1a9c>
    2958: 85 15        	sta	$15                     ; 0x2015 <main+0x1aa1>
    295a: 20 68 ff     	jsr	$ff68 <__heap_start+0x7bfe>
    295d: 92 14        	sta	($14)                   ; 0x2014 <main+0x1aa0>
    295f: a9 00        	lda	#$0
    2961: 6a           	ror
    2962: 85 24        	sta	$24                     ; 0x2024 <main+0x1ab0>
    2964: 20 83 44     	jsr	$4483 <free>
    2967: 64 3a        	stz	$3a                     ; 0x203a <main+0x1ac6>
    2969: a0 2a        	ldy	#$2a
    296b: b1 10        	lda	($10),y                 ; 0x2010 <main+0x1a9c>
    296d: 85 12        	sta	$12                     ; 0x2012 <main+0x1a9e>
    296f: c8           	iny
    2970: b1 10        	lda	($10),y                 ; 0x2010 <main+0x1a9c>
    2972: 85 13        	sta	$13                     ; 0x2013 <main+0x1a9f>
    2974: 20 00 ff     	jsr	$ff00 <__heap_start+0x7b96>
    2977: 92 12        	sta	($12)                   ; 0x2012 <main+0x1a9e>
    2979: a9 00        	lda	#$0
    297b: 6a           	ror
    297c: 85 24        	sta	$24                     ; 0x2024 <main+0x1ab0>
    297e: a6 3a        	ldx	$3a                     ; 0x203a <main+0x1ac6>
    2980: e0 32        	cpx	#$32
    2982: d0 03        	bne	$2987 <main+0x2413>
    2984: 4c f7 2a     	jmp	$2af7 <main+0x2583>
    2987: e0 38        	cpx	#$38
    2989: d0 dc        	bne	$2967 <main+0x23f3>
    298b: 4c f7 2a     	jmp	$2af7 <main+0x2583>
    298e: a2 08        	ldx	#$8
    2990: 64 17        	stz	$17                     ; 0x2017 <main+0x1aa3>
    2992: a0 10        	ldy	#$10
    2994: b1 10        	lda	($10),y                 ; 0x2010 <main+0x1a9c>
    2996: 85 14        	sta	$14                     ; 0x2014 <main+0x1aa0>
    2998: c8           	iny
    2999: b1 10        	lda	($10),y                 ; 0x2010 <main+0x1a9c>
    299b: 85 15        	sta	$15                     ; 0x2015 <main+0x1aa1>
    299d: 80 0c        	bra	$29ab <main+0x2437>
    299f: a6 16        	ldx	$16                     ; 0x2016 <main+0x1aa2>
    29a1: a4 17        	ldy	$17                     ; 0x2017 <main+0x1aa3>
    29a3: 84 17        	sty	$17                     ; 0x2017 <main+0x1aa3>
    29a5: 8a           	txa
    29a6: d0 03        	bne	$29ab <main+0x2437>
    29a8: 4c 17 2a     	jmp	$2a17 <main+0x24a3>
    29ab: 86 16        	stx	$16                     ; 0x2016 <main+0x1aa2>
    29ad: ae 04 d7     	ldx	$d704                   ; 0xd704 <__heap_start+0x539a>
    29b0: 86 12        	stx	$12                     ; 0x2012 <main+0x1a9e>
    29b2: ad 05 d7     	lda	$d705                   ; 0xd705 <__heap_start+0x539b>
    29b5: 29 07        	and	#$7
    29b7: 85 13        	sta	$13                     ; 0x2013 <main+0x1a9f>
    29b9: a9 00        	lda	#$0
    29bb: 38           	sec
    29bc: e5 12        	sbc	$12                     ; 0x2012 <main+0x1a9e>
    29be: a8           	tay
    29bf: a9 08        	lda	#$8
    29c1: e5 13        	sbc	$13                     ; 0x2013 <main+0x1a9f>
    29c3: 84 19        	sty	$19                     ; 0x2019 <main+0x1aa5>
    29c5: 06 19        	asl	$19                     ; 0x2019 <main+0x1aa5>
    29c7: 85 18        	sta	$18                     ; 0x2018 <main+0x1aa4>
    29c9: 2a           	rol
    29ca: 64 13        	stz	$13                     ; 0x2013 <main+0x1a9f>
    29cc: 26 13        	rol	$13                     ; 0x2013 <main+0x1a9f>
    29ce: 06 19        	asl	$19                     ; 0x2019 <main+0x1aa5>
    29d0: 2a           	rol
    29d1: 85 12        	sta	$12                     ; 0x2012 <main+0x1a9e>
    29d3: 26 13        	rol	$13                     ; 0x2013 <main+0x1a9f>
    29d5: d0 04        	bne	$29db <main+0x2467>
    29d7: a5 12        	lda	$12                     ; 0x2012 <main+0x1a9e>
    29d9: f0 c4        	beq	$299f <main+0x242b>
    29db: 84 1a        	sty	$1a                     ; 0x201a <main+0x1aa6>
    29dd: a0 00        	ldy	#$0
    29df: a2 00        	ldx	#$0
    29e1: 84 19        	sty	$19                     ; 0x2019 <main+0x1aa5>
    29e3: a0 00        	ldy	#$0
    29e5: b1 14        	lda	($14),y                 ; 0x2014 <main+0x1aa0>
    29e7: 8d 07 d7     	sta	$d707                   ; 0xd707 <__heap_start+0x539d>
    29ea: c8           	iny
    29eb: c0 40        	cpy	#$40
    29ed: d0 f6        	bne	$29e5 <main+0x2471>
    29ef: a4 19        	ldy	$19                     ; 0x2019 <main+0x1aa5>
    29f1: c8           	iny
    29f2: d0 01        	bne	$29f5 <main+0x2481>
    29f4: e8           	inx
    29f5: e4 13        	cpx	$13                     ; 0x2013 <main+0x1a9f>
    29f7: d0 e8        	bne	$29e1 <main+0x246d>
    29f9: c4 12        	cpy	$12                     ; 0x2012 <main+0x1a9e>
    29fb: d0 e4        	bne	$29e1 <main+0x246d>
    29fd: a5 1a        	lda	$1a                     ; 0x201a <main+0x1aa6>
    29ff: 29 c0        	and	#$c0
    2a01: 85 12        	sta	$12                     ; 0x2012 <main+0x1a9e>
    2a03: a5 18        	lda	$18                     ; 0x2018 <main+0x1aa4>
    2a05: 29 0f        	and	#$f
    2a07: 85 13        	sta	$13                     ; 0x2013 <main+0x1a9f>
    2a09: 38           	sec
    2a0a: a5 17        	lda	$17                     ; 0x2017 <main+0x1aa3>
    2a0c: e5 12        	sbc	$12                     ; 0x2012 <main+0x1a9e>
    2a0e: a8           	tay
    2a0f: a5 16        	lda	$16                     ; 0x2016 <main+0x1aa2>
    2a11: e5 13        	sbc	$13                     ; 0x2013 <main+0x1a9f>
    2a13: aa           	tax
    2a14: 4c a3 29     	jmp	$29a3 <main+0x242f>
    2a17: 98           	tya
    2a18: f0 03        	beq	$2a1d <main+0x24a9>
    2a1a: 4c ab 29     	jmp	$29ab <main+0x2437>
    2a1d: a6 37        	ldx	$37                     ; 0x2037 <main+0x1ac3>
    2a1f: a4 38        	ldy	$38                     ; 0x2038 <main+0x1ac4>
    2a21: 86 12        	stx	$12                     ; 0x2012 <main+0x1a9e>
    2a23: 84 13        	sty	$13                     ; 0x2013 <main+0x1a9f>
    2a25: b2 12        	lda	($12)                   ; 0x2012 <main+0x1a9e>
    2a27: 85 f3        	sta	$f3                     ; 0x20f3 <main+0x1b7f>
    2a29: a2 39        	ldx	#$39
    2a2b: 86 24        	stx	$24                     ; 0x2024 <main+0x1ab0>
    2a2d: a2 00        	ldx	#$0
    2a2f: 86 25        	stx	$25                     ; 0x2025 <main+0x1ab1>
    2a31: a0 2a        	ldy	#$2a
    2a33: b1 10        	lda	($10),y                 ; 0x2010 <main+0x1a9c>
    2a35: 85 14        	sta	$14                     ; 0x2014 <main+0x1aa0>
    2a37: c8           	iny
    2a38: b1 10        	lda	($10),y                 ; 0x2010 <main+0x1a9c>
    2a3a: 85 15        	sta	$15                     ; 0x2015 <main+0x1aa1>
    2a3c: 20 68 ff     	jsr	$ff68 <__heap_start+0x7bfe>
    2a3f: 92 14        	sta	($14)                   ; 0x2014 <main+0x1aa0>
    2a41: a9 00        	lda	#$0
    2a43: 6a           	ror
    2a44: 85 24        	sta	$24                     ; 0x2024 <main+0x1ab0>
    2a46: 20 83 44     	jsr	$4483 <free>
    2a49: 64 3a        	stz	$3a                     ; 0x203a <main+0x1ac6>
    2a4b: a0 2a        	ldy	#$2a
    2a4d: b1 10        	lda	($10),y                 ; 0x2010 <main+0x1a9c>
    2a4f: 85 12        	sta	$12                     ; 0x2012 <main+0x1a9e>
    2a51: c8           	iny
    2a52: b1 10        	lda	($10),y                 ; 0x2010 <main+0x1a9c>
    2a54: 85 13        	sta	$13                     ; 0x2013 <main+0x1a9f>
    2a56: 20 00 ff     	jsr	$ff00 <__heap_start+0x7b96>
    2a59: 92 12        	sta	($12)                   ; 0x2012 <main+0x1a9e>
    2a5b: a9 00        	lda	#$0
    2a5d: 6a           	ror
    2a5e: 85 24        	sta	$24                     ; 0x2024 <main+0x1ab0>
    2a60: a6 3a        	ldx	$3a                     ; 0x203a <main+0x1ac6>
    2a62: e0 38        	cpx	#$38
    2a64: d0 03        	bne	$2a69 <main+0x24f5>
    2a66: 4c f7 2a     	jmp	$2af7 <main+0x2583>
    2a69: e0 32        	cpx	#$32
    2a6b: d0 dc        	bne	$2a49 <main+0x24d5>
    2a6d: 4c f7 2a     	jmp	$2af7 <main+0x2583>
    2a70: b2 2a        	lda	($2a)                   ; 0x202a <main+0x1ab6>
    2a72: 85 24        	sta	$24                     ; 0x2024 <main+0x1ab0>
    2a74: 64 3a        	stz	$3a                     ; 0x203a <main+0x1ac6>
    2a76: 20 00 ff     	jsr	$ff00 <__heap_start+0x7b96>
    2a79: 92 2a        	sta	($2a)                   ; 0x202a <main+0x1ab6>
    2a7b: a9 00        	lda	#$0
    2a7d: 6a           	ror
    2a7e: 85 12        	sta	$12                     ; 0x2012 <main+0x1a9e>
    2a80: a6 3a        	ldx	$3a                     ; 0x203a <main+0x1ac6>
    2a82: e0 28        	cpx	#$28
    2a84: d0 03        	bne	$2a89 <main+0x2515>
    2a86: 4c e6 19     	jmp	$19e6 <main+0x1472>
    2a89: e0 38        	cpx	#$38
    2a8b: d0 03        	bne	$2a90 <main+0x251c>
    2a8d: 4c e6 19     	jmp	$19e6 <main+0x1472>
    2a90: e0 2a        	cpx	#$2a
    2a92: d0 e0        	bne	$2a74 <main+0x2500>
    2a94: a9 01        	lda	#$1
    2a96: a2 00        	ldx	#$0
    2a98: 20 ae 42     	jsr	$42ae <malloc>
    2a9b: a5 24        	lda	$24                     ; 0x2024 <main+0x1ab0>
    2a9d: 92 12        	sta	($12)                   ; 0x2012 <main+0x1a9e>
    2a9f: a6 12        	ldx	$12                     ; 0x2012 <main+0x1a9e>
    2aa1: a4 13        	ldy	$13                     ; 0x2013 <main+0x1a9f>
    2aa3: 86 37        	stx	$37                     ; 0x2037 <main+0x1ac3>
    2aa5: 84 38        	sty	$38                     ; 0x2038 <main+0x1ac4>
    2aa7: 4c 01 1a     	jmp	$1a01 <main+0x148d>
    2aaa: a6 37        	ldx	$37                     ; 0x2037 <main+0x1ac3>
    2aac: a4 38        	ldy	$38                     ; 0x2038 <main+0x1ac4>
    2aae: 86 12        	stx	$12                     ; 0x2012 <main+0x1a9e>
    2ab0: 84 13        	sty	$13                     ; 0x2013 <main+0x1a9f>
    2ab2: b2 12        	lda	($12)                   ; 0x2012 <main+0x1a9e>
    2ab4: 85 f3        	sta	$f3                     ; 0x20f3 <main+0x1b7f>
    2ab6: a2 39        	ldx	#$39
    2ab8: 86 24        	stx	$24                     ; 0x2024 <main+0x1ab0>
    2aba: a2 00        	ldx	#$0
    2abc: 86 25        	stx	$25                     ; 0x2025 <main+0x1ab1>
    2abe: a0 2a        	ldy	#$2a
    2ac0: b1 10        	lda	($10),y                 ; 0x2010 <main+0x1a9c>
    2ac2: 85 14        	sta	$14                     ; 0x2014 <main+0x1aa0>
    2ac4: c8           	iny
    2ac5: b1 10        	lda	($10),y                 ; 0x2010 <main+0x1a9c>
    2ac7: 85 15        	sta	$15                     ; 0x2015 <main+0x1aa1>
    2ac9: 20 68 ff     	jsr	$ff68 <__heap_start+0x7bfe>
    2acc: 92 14        	sta	($14)                   ; 0x2014 <main+0x1aa0>
    2ace: a9 00        	lda	#$0
    2ad0: 6a           	ror
    2ad1: 85 24        	sta	$24                     ; 0x2024 <main+0x1ab0>
    2ad3: 20 83 44     	jsr	$4483 <free>
    2ad6: 64 3a        	stz	$3a                     ; 0x203a <main+0x1ac6>
    2ad8: a0 2a        	ldy	#$2a
    2ada: b1 10        	lda	($10),y                 ; 0x2010 <main+0x1a9c>
    2adc: 85 12        	sta	$12                     ; 0x2012 <main+0x1a9e>
    2ade: c8           	iny
    2adf: b1 10        	lda	($10),y                 ; 0x2010 <main+0x1a9c>
    2ae1: 85 13        	sta	$13                     ; 0x2013 <main+0x1a9f>
    2ae3: 20 00 ff     	jsr	$ff00 <__heap_start+0x7b96>
    2ae6: 92 12        	sta	($12)                   ; 0x2012 <main+0x1a9e>
    2ae8: a9 00        	lda	#$0
    2aea: 6a           	ror
    2aeb: 85 24        	sta	$24                     ; 0x2024 <main+0x1ab0>
    2aed: a6 3a        	ldx	$3a                     ; 0x203a <main+0x1ac6>
    2aef: e0 32        	cpx	#$32
    2af1: f0 04        	beq	$2af7 <main+0x2583>
    2af3: e0 38        	cpx	#$38
    2af5: d0 df        	bne	$2ad6 <main+0x2562>
    2af7: 78           	sei
    2af8: a2 07        	ldx	#$7
    2afa: 86 0f        	stx	$f                      ; 0x200f <main+0x1a9b>
    2afc: a2 de        	ldx	#$de
    2afe: 8e a2 d6     	stx	$d6a2                   ; 0xd6a2 <__heap_start+0x5338>
    2b01: a2 ad        	ldx	#$ad
    2b03: 8e a3 d6     	stx	$d6a3                   ; 0xd6a3 <__heap_start+0x5339>
    2b06: a2 f0        	ldx	#$f0
    2b08: 8e a0 d6     	stx	$d6a0                   ; 0xd6a0 <__heap_start+0x5336>
    2b0b: 9c a0 d6     	stz	$d6a0                   ; 0xd6a0 <__heap_start+0x5336>
    2b0e: 6c fc ff     	jmp	($fffc)                 ; 0xfffc <__heap_start+0x7c92>
    2b11: a2 00        	ldx	#$0
    2b13: 8a           	txa
    2b14: 85 20        	sta	$20                     ; 0x2020 <main+0x1aac>
    2b16: a0 08        	ldy	#$8
    2b18: b1 10        	lda	($10),y                 ; 0x2010 <main+0x1a9c>
    2b1a: 85 2f        	sta	$2f                     ; 0x202f <main+0x1abb>
    2b1c: c8           	iny
    2b1d: b1 10        	lda	($10),y                 ; 0x2010 <main+0x1a9c>
    2b1f: 85 2e        	sta	$2e                     ; 0x202e <main+0x1aba>
    2b21: c8           	iny
    2b22: b1 10        	lda	($10),y                 ; 0x2010 <main+0x1a9c>
    2b24: 85 2d        	sta	$2d                     ; 0x202d <main+0x1ab9>
    2b26: c8           	iny
    2b27: b1 10        	lda	($10),y                 ; 0x2010 <main+0x1a9c>
    2b29: 85 2c        	sta	$2c                     ; 0x202c <main+0x1ab8>
    2b2b: c8           	iny
    2b2c: b1 10        	lda	($10),y                 ; 0x2010 <main+0x1a9c>
    2b2e: 85 2b        	sta	$2b                     ; 0x202b <main+0x1ab7>
    2b30: c8           	iny
    2b31: b1 10        	lda	($10),y                 ; 0x2010 <main+0x1a9c>
    2b33: 85 2a        	sta	$2a                     ; 0x202a <main+0x1ab6>
    2b35: c8           	iny
    2b36: b1 10        	lda	($10),y                 ; 0x2010 <main+0x1a9c>
    2b38: 85 29        	sta	$29                     ; 0x2029 <main+0x1ab5>
    2b3a: c8           	iny
    2b3b: b1 10        	lda	($10),y                 ; 0x2010 <main+0x1a9c>
    2b3d: 85 28        	sta	$28                     ; 0x2028 <main+0x1ab4>
    2b3f: 7a           	ply
    2b40: 84 27        	sty	$27                     ; 0x2027 <main+0x1ab3>
    2b42: 7a           	ply
    2b43: 84 26        	sty	$26                     ; 0x2026 <main+0x1ab2>
    2b45: 7a           	ply
    2b46: 84 25        	sty	$25                     ; 0x2025 <main+0x1ab1>
    2b48: 7a           	ply
    2b49: 84 24        	sty	$24                     ; 0x2024 <main+0x1ab0>
    2b4b: 18           	clc
    2b4c: a5 10        	lda	$10                     ; 0x2010 <main+0x1a9c>
    2b4e: 69 b2        	adc	#$b2
    2b50: 85 10        	sta	$10                     ; 0x2010 <main+0x1a9c>
    2b52: a5 11        	lda	$11                     ; 0x2011 <main+0x1a9d>
    2b54: 69 20        	adc	#$20
    2b56: 85 11        	sta	$11                     ; 0x2011 <main+0x1a9d>
    2b58: a5 20        	lda	$20                     ; 0x2020 <main+0x1aac>
    2b5a: 60           	rts
    2b5b: 64 14        	stz	$14                     ; 0x2014 <main+0x1aa0>
    2b5d: a0 fa        	ldy	#$fa
    2b5f: 4c 3a 15     	jmp	$153a <main+0xfc6>
    2b62: a6 15        	ldx	$15                     ; 0x2015 <main+0x1aa1>
    2b64: 86 18        	stx	$18                     ; 0x2018 <main+0x1aa4>
    2b66: aa           	tax
    2b67: 4c a6 1b     	jmp	$1ba6 <main+0x1632>
    2b6a: a6 15        	ldx	$15                     ; 0x2015 <main+0x1aa1>
    2b6c: 86 18        	stx	$18                     ; 0x2018 <main+0x1aa4>
    2b6e: aa           	tax
    2b6f: 4c 30 1d     	jmp	$1d30 <main+0x17bc>
    2b72: 09 20        	ora	#$20
    2b74: 4c 6c 10     	jmp	$106c <main+0xaf8>
    2b77: 09 20        	ora	#$20
    2b79: 4c 20 10     	jmp	$1020 <main+0xaac>

00002b7c <fileRead>:
    2b7c: 85 16        	sta	$16                     ; 0x2016 <main+0x1aa2>
    2b7e: 86 17        	stx	$17                     ; 0x2017 <main+0x1aa3>
    2b80: 64 18        	stz	$18                     ; 0x2018 <main+0x1aa4>
    2b82: a6 12        	ldx	$12                     ; 0x2012 <main+0x1a9e>
    2b84: 86 1a        	stx	$1a                     ; 0x201a <main+0x1aa6>
    2b86: a6 13        	ldx	$13                     ; 0x2013 <main+0x1a9f>
    2b88: 86 1b        	stx	$1b                     ; 0x201b <main+0x1aa7>
    2b8a: a2 41        	ldx	#$41
    2b8c: a0 00        	ldy	#$0
    2b8e: a9 39        	lda	#$39
    2b90: 85 12        	sta	$12                     ; 0x2012 <main+0x1a9e>
    2b92: a9 00        	lda	#$0
    2b94: 85 13        	sta	$13                     ; 0x2013 <main+0x1a9f>
    2b96: 64 19        	stz	$19                     ; 0x2019 <main+0x1aa5>
    2b98: b2 14        	lda	($14)                   ; 0x2014 <main+0x1aa0>
    2b9a: 85 1d        	sta	$1d                     ; 0x201d <main+0x1aa9>
    2b9c: a5 1a        	lda	$1a                     ; 0x201a <main+0x1aa6>
    2b9e: 85 1e        	sta	$1e                     ; 0x201e <main+0x1aaa>
    2ba0: a5 1a        	lda	$1a                     ; 0x201a <main+0x1aa6>
    2ba2: 18           	clc
    2ba3: 65 18        	adc	$18                     ; 0x2018 <main+0x1aa4>
    2ba5: 85 1c        	sta	$1c                     ; 0x201c <main+0x1aa8>
    2ba7: a5 1b        	lda	$1b                     ; 0x201b <main+0x1aa7>
    2ba9: 85 1f        	sta	$1f                     ; 0x201f <main+0x1aab>
    2bab: a5 1b        	lda	$1b                     ; 0x201b <main+0x1aa7>
    2bad: 65 19        	adc	$19                     ; 0x2019 <main+0x1aa5>
    2baf: e6 1d        	inc	$1d                     ; 0x201d <main+0x1aa9>
    2bb1: c6 1d        	dec	$1d                     ; 0x201d <main+0x1aa9>
    2bb3: d0 03        	bne	$2bb8 <fileRead+0x3c>
    2bb5: 4c 35 2c     	jmp	$2c35 <fileRead+0xb9>
    2bb8: 5a           	phy
    2bb9: a4 1d        	ldy	$1d                     ; 0x201d <main+0x1aa9>
    2bbb: 84 1a        	sty	$1a                     ; 0x201a <main+0x1aa6>
    2bbd: 7a           	ply
    2bbe: 85 1d        	sta	$1d                     ; 0x201d <main+0x1aa9>
    2bc0: a5 16        	lda	$16                     ; 0x2016 <main+0x1aa2>
    2bc2: 38           	sec
    2bc3: e5 18        	sbc	$18                     ; 0x2018 <main+0x1aa4>
    2bc5: 85 1b        	sta	$1b                     ; 0x201b <main+0x1aa7>
    2bc7: a5 1a        	lda	$1a                     ; 0x201a <main+0x1aa6>
    2bc9: 85 f3        	sta	$f3                     ; 0x20f3 <main+0x1b7f>
    2bcb: a5 1b        	lda	$1b                     ; 0x201b <main+0x1aa7>
    2bcd: 85 f4        	sta	$f4                     ; 0x20f4 <main+0x1b80>
    2bcf: a9 43        	lda	#$43
    2bd1: 85 1a        	sta	$1a                     ; 0x201a <main+0x1aa6>
    2bd3: a9 00        	lda	#$0
    2bd5: 85 1b        	sta	$1b                     ; 0x201b <main+0x1aa7>
    2bd7: 20 60 ff     	jsr	$ff60 <__heap_start+0x7bf6>
    2bda: 92 1a        	sta	($1a)                   ; 0x201a <main+0x1aa6>
    2bdc: a9 00        	lda	#$0
    2bde: 6a           	ror
    2bdf: 85 12        	sta	$12                     ; 0x2012 <main+0x1a9e>
    2be1: a5 39        	lda	$39                     ; 0x2039 <main+0x1ac5>
    2be3: f0 03        	beq	$2be8 <fileRead+0x6c>
    2be5: 4c ad 2c     	jmp	$2cad <fileRead+0x131>
    2be8: 64 3a        	stz	$3a                     ; 0x203a <main+0x1ac6>
    2bea: a9 44        	lda	#$44
    2bec: 85 1a        	sta	$1a                     ; 0x201a <main+0x1aa6>
    2bee: a9 00        	lda	#$0
    2bf0: 85 1b        	sta	$1b                     ; 0x201b <main+0x1aa7>
    2bf2: 20 00 ff     	jsr	$ff00 <__heap_start+0x7b96>
    2bf5: 92 1a        	sta	($1a)                   ; 0x201a <main+0x1aa6>
    2bf7: a9 00        	lda	#$0
    2bf9: 6a           	ror
    2bfa: 85 12        	sta	$12                     ; 0x2012 <main+0x1a9e>
    2bfc: a5 3a        	lda	$3a                     ; 0x203a <main+0x1ac6>
    2bfe: c9 38        	cmp	#$38
    2c00: d0 03        	bne	$2c05 <fileRead+0x89>
    2c02: 4c ad 2c     	jmp	$2cad <fileRead+0x131>
    2c05: c9 30        	cmp	#$30
    2c07: d0 03        	bne	$2c0c <fileRead+0x90>
    2c09: 4c b4 2c     	jmp	$2cb4 <fileRead+0x138>
    2c0c: c9 2c        	cmp	#$2c
    2c0e: d0 d8        	bne	$2be8 <fileRead+0x6c>
    2c10: a5 1c        	lda	$1c                     ; 0x201c <main+0x1aa8>
    2c12: 85 fb        	sta	$fb                     ; 0x20fb <main+0x1b87>
    2c14: a5 1d        	lda	$1d                     ; 0x201d <main+0x1aa9>
    2c16: 85 fc        	sta	$fc                     ; 0x20fc <main+0x1b88>
    2c18: a5 40        	lda	$40                     ; 0x2040 <main+0x1acc>
    2c1a: 85 fd        	sta	$fd                     ; 0x20fd <main+0x1b89>
    2c1c: a9 45        	lda	#$45
    2c1e: 85 1a        	sta	$1a                     ; 0x201a <main+0x1aa6>
    2c20: a9 00        	lda	#$0
    2c22: 85 1b        	sta	$1b                     ; 0x201b <main+0x1aa7>
    2c24: 20 04 ff     	jsr	$ff04 <__heap_start+0x7b9a>
    2c27: 92 1a        	sta	($1a)                   ; 0x201a <main+0x1aa6>
    2c29: a9 00        	lda	#$0
    2c2b: 6a           	ror
    2c2c: 85 12        	sta	$12                     ; 0x2012 <main+0x1a9e>
    2c2e: a5 40        	lda	$40                     ; 0x2040 <main+0x1acc>
    2c30: d0 43        	bne	$2c75 <fileRead+0xf9>
    2c32: 4c be 2c     	jmp	$2cbe <fileRead+0x142>
    2c35: 5a           	phy
    2c36: a4 1c        	ldy	$1c                     ; 0x201c <main+0x1aa8>
    2c38: 84 1a        	sty	$1a                     ; 0x201a <main+0x1aa6>
    2c3a: 7a           	ply
    2c3b: 85 1b        	sta	$1b                     ; 0x201b <main+0x1aa7>
    2c3d: 80 12        	bra	$2c51 <fileRead+0xd5>
    2c3f: a9 42        	lda	#$42
    2c41: 85 1c        	sta	$1c                     ; 0x201c <main+0x1aa8>
    2c43: a9 00        	lda	#$0
    2c45: 85 1d        	sta	$1d                     ; 0x201d <main+0x1aa9>
    2c47: 20 0c ff     	jsr	$ff0c <__heap_start+0x7ba2>
    2c4a: 92 1c        	sta	($1c)                   ; 0x201c <main+0x1aa8>
    2c4c: a9 00        	lda	#$0
    2c4e: 6a           	ror
    2c4f: 85 12        	sta	$12                     ; 0x2012 <main+0x1a9e>
    2c51: 64 3a        	stz	$3a                     ; 0x203a <main+0x1ac6>
    2c53: 86 1c        	stx	$1c                     ; 0x201c <main+0x1aa8>
    2c55: 84 1d        	sty	$1d                     ; 0x201d <main+0x1aa9>
    2c57: 20 00 ff     	jsr	$ff00 <__heap_start+0x7b96>
    2c5a: 92 1c        	sta	($1c)                   ; 0x201c <main+0x1aa8>
    2c5c: a9 00        	lda	#$0
    2c5e: 6a           	ror
    2c5f: 85 12        	sta	$12                     ; 0x2012 <main+0x1a9e>
    2c61: a5 39        	lda	$39                     ; 0x2039 <main+0x1ac5>
    2c63: d0 da        	bne	$2c3f <fileRead+0xc3>
    2c65: a5 3a        	lda	$3a                     ; 0x203a <main+0x1ac6>
    2c67: c9 08        	cmp	#$8
    2c69: d0 e6        	bne	$2c51 <fileRead+0xd5>
    2c6b: a5 40        	lda	$40                     ; 0x2040 <main+0x1acc>
    2c6d: d0 e2        	bne	$2c51 <fileRead+0xd5>
    2c6f: a5 3f        	lda	$3f                     ; 0x203f <main+0x1acb>
    2c71: 92 1a        	sta	($1a)                   ; 0x201a <main+0x1aa6>
    2c73: a9 01        	lda	#$1
    2c75: 85 46        	sta	$46                     ; 0x2046 <main+0x1ad2>
    2c77: a9 00        	lda	#$0
    2c79: 85 47        	sta	$47                     ; 0x2047 <main+0x1ad3>
    2c7b: 18           	clc
    2c7c: a5 46        	lda	$46                     ; 0x2046 <main+0x1ad2>
    2c7e: 65 18        	adc	$18                     ; 0x2018 <main+0x1aa4>
    2c80: 85 46        	sta	$46                     ; 0x2046 <main+0x1ad2>
    2c82: a5 47        	lda	$47                     ; 0x2047 <main+0x1ad3>
    2c84: 65 19        	adc	$19                     ; 0x2019 <main+0x1aa5>
    2c86: c5 17        	cmp	$17                     ; 0x2017 <main+0x1aa3>
    2c88: d0 0a        	bne	$2c94 <fileRead+0x118>
    2c8a: 85 19        	sta	$19                     ; 0x2019 <main+0x1aa5>
    2c8c: a5 46        	lda	$46                     ; 0x2046 <main+0x1ad2>
    2c8e: 85 18        	sta	$18                     ; 0x2018 <main+0x1aa4>
    2c90: c5 16        	cmp	$16                     ; 0x2016 <main+0x1aa2>
    2c92: 80 08        	bra	$2c9c <fileRead+0x120>
    2c94: c5 17        	cmp	$17                     ; 0x2017 <main+0x1aa3>
    2c96: 85 19        	sta	$19                     ; 0x2019 <main+0x1aa5>
    2c98: a5 46        	lda	$46                     ; 0x2046 <main+0x1ad2>
    2c9a: 85 18        	sta	$18                     ; 0x2018 <main+0x1aa4>
    2c9c: a5 19        	lda	$19                     ; 0x2019 <main+0x1aa5>
    2c9e: 5a           	phy
    2c9f: a4 1e        	ldy	$1e                     ; 0x201e <main+0x1aaa>
    2ca1: 84 1a        	sty	$1a                     ; 0x201a <main+0x1aa6>
    2ca3: a4 1f        	ldy	$1f                     ; 0x201f <main+0x1aab>
    2ca5: 84 1b        	sty	$1b                     ; 0x201b <main+0x1aa7>
    2ca7: 7a           	ply
    2ca8: b0 10        	bcs	$2cba <fileRead+0x13e>
    2caa: 4c 98 2b     	jmp	$2b98 <fileRead+0x1c>
    2cad: a9 ff        	lda	#$ff
    2caf: aa           	tax
    2cb0: 86 46        	stx	$46                     ; 0x2046 <main+0x1ad2>
    2cb2: 80 06        	bra	$2cba <fileRead+0x13e>
    2cb4: a6 18        	ldx	$18                     ; 0x2018 <main+0x1aa4>
    2cb6: 86 46        	stx	$46                     ; 0x2046 <main+0x1ad2>
    2cb8: a5 19        	lda	$19                     ; 0x2019 <main+0x1aa5>
    2cba: aa           	tax
    2cbb: a5 46        	lda	$46                     ; 0x2046 <main+0x1ad2>
    2cbd: 60           	rts
    2cbe: a9 00        	lda	#$0
    2cc0: 85 46        	sta	$46                     ; 0x2046 <main+0x1ad2>
    2cc2: 1a           	inc
    2cc3: 80 b4        	bra	$2c79 <fileRead+0xfd>

00002cc5 <textPrint>:
    2cc5: a6 01        	ldx	$1                      ; 0x2001 <main+0x1a8d>
    2cc7: 86 99        	stx	$99                     ; 0x2099 <main+0x1b25>
    2cc9: a6 34        	ldx	$34                     ; 0x2034 <main+0x1ac0>
    2ccb: a0 50        	ldy	#$50
    2ccd: 8c 00 de     	sty	$de00                   ; 0xde00 <__heap_start+0x5a96>
    2cd0: 9c 01 de     	stz	$de01                   ; 0xde01 <__heap_start+0x5a97>
    2cd3: 8e 02 de     	stx	$de02                   ; 0xde02 <__heap_start+0x5a98>
    2cd6: 9c 03 de     	stz	$de03                   ; 0xde03 <__heap_start+0x5a99>
    2cd9: ae 10 de     	ldx	$de10                   ; 0xde10 <__heap_start+0x5aa6>
    2cdc: ac 11 de     	ldy	$de11                   ; 0xde11 <__heap_start+0x5aa7>
    2cdf: 84 15        	sty	$15                     ; 0x2015 <main+0x1aa1>
    2ce1: ad 12 de     	lda	$de12                   ; 0xde12 <__heap_start+0x5aa8>
    2ce4: ac 13 de     	ldy	$de13                   ; 0xde13 <__heap_start+0x5aa9>
    2ce7: 84 1c        	sty	$1c                     ; 0x201c <main+0x1aa8>
    2ce9: 9c 08 de     	stz	$de08                   ; 0xde08 <__heap_start+0x5a9e>
    2cec: a0 c0        	ldy	#$c0
    2cee: 8c 09 de     	sty	$de09                   ; 0xde09 <__heap_start+0x5a9f>
    2cf1: 9c 0a de     	stz	$de0a                   ; 0xde0a <__heap_start+0x5aa0>
    2cf4: 9c 0b de     	stz	$de0b                   ; 0xde0b <__heap_start+0x5aa1>
    2cf7: 8e 0c de     	stx	$de0c                   ; 0xde0c <__heap_start+0x5aa2>
    2cfa: 64 14        	stz	$14                     ; 0x2014 <main+0x1aa0>
    2cfc: a2 00        	ldx	#$0
    2cfe: 86 16        	stx	$16                     ; 0x2016 <main+0x1aa2>
    2d00: a2 c0        	ldx	#$c0
    2d02: 86 17        	stx	$17                     ; 0x2017 <main+0x1aa3>
    2d04: a2 11        	ldx	#$11
    2d06: 86 18        	stx	$18                     ; 0x2018 <main+0x1aa4>
    2d08: a2 c9        	ldx	#$c9
    2d0a: 86 19        	stx	$19                     ; 0x2019 <main+0x1aa5>
    2d0c: a2 10        	ldx	#$10
    2d0e: 86 1a        	stx	$1a                     ; 0x201a <main+0x1aa6>
    2d10: a2 c9        	ldx	#$c9
    2d12: 86 1b        	stx	$1b                     ; 0x201b <main+0x1aa7>
    2d14: a6 15        	ldx	$15                     ; 0x2015 <main+0x1aa1>
    2d16: 8e 0d de     	stx	$de0d                   ; 0xde0d <__heap_start+0x5aa3>
    2d19: 8d 0e de     	sta	$de0e                   ; 0xde0e <__heap_start+0x5aa4>
    2d1c: a6 1c        	ldx	$1c                     ; 0x201c <main+0x1aa8>
    2d1e: 8e 0f de     	stx	$de0f                   ; 0xde0f <__heap_start+0x5aa5>
    2d21: ac 18 de     	ldy	$de18                   ; 0xde18 <__heap_start+0x5aae>
    2d24: ad 19 de     	lda	$de19                   ; 0xde19 <__heap_start+0x5aaf>
    2d27: ae 1a de     	ldx	$de1a                   ; 0xde1a <__heap_start+0x5ab0>
    2d2a: ae 1b de     	ldx	$de1b                   ; 0xde1b <__heap_start+0x5ab1>
    2d2d: 84 1c        	sty	$1c                     ; 0x201c <main+0x1aa8>
    2d2f: 85 1d        	sta	$1d                     ; 0x201d <main+0x1aa9>
    2d31: 64 15        	stz	$15                     ; 0x2015 <main+0x1aa1>
    2d33: 4c 40 2e     	jmp	$2e40 <textPrint+0x17b>
    2d36: a5 1e        	lda	$1e                     ; 0x201e <main+0x1aaa>
    2d38: f0 13        	beq	$2d4d <textPrint+0x88>
    2d3a: b1 1c        	lda	($1c),y                 ; 0x201c <main+0x1aa8>
    2d3c: 92 1c        	sta	($1c)                   ; 0x201c <main+0x1aa8>
    2d3e: ca           	dex
    2d3f: e0 ff        	cpx	#$ff
    2d41: d0 02        	bne	$2d45 <textPrint+0x80>
    2d43: c6 1e        	dec	$1e                     ; 0x201e <main+0x1aaa>
    2d45: e6 1c        	inc	$1c                     ; 0x201c <main+0x1aa8>
    2d47: d0 ed        	bne	$2d36 <textPrint+0x71>
    2d49: e6 1d        	inc	$1d                     ; 0x201d <main+0x1aa9>
    2d4b: 80 e9        	bra	$2d36 <textPrint+0x71>
    2d4d: 8a           	txa
    2d4e: d0 ea        	bne	$2d3a <textPrint+0x75>
    2d50: a2 02        	ldx	#$2
    2d52: 86 01        	stx	$1                      ; 0x2001 <main+0x1a8d>
    2d54: a9 09        	lda	#$9
    2d56: a2 10        	ldx	#$10
    2d58: 5a           	phy
    2d59: a0 00        	ldy	#$0
    2d5b: 84 1c        	sty	$1c                     ; 0x201c <main+0x1aa8>
    2d5d: a0 c0        	ldy	#$c0
    2d5f: 84 1d        	sty	$1d                     ; 0x201d <main+0x1aa9>
    2d61: 7a           	ply
    2d62: 85 1e        	sta	$1e                     ; 0x201e <main+0x1aaa>
    2d64: 80 04        	bra	$2d6a <textPrint+0xa5>
    2d66: a5 1e        	lda	$1e                     ; 0x201e <main+0x1aaa>
    2d68: f0 13        	beq	$2d7d <textPrint+0xb8>
    2d6a: b1 1c        	lda	($1c),y                 ; 0x201c <main+0x1aa8>
    2d6c: 92 1c        	sta	($1c)                   ; 0x201c <main+0x1aa8>
    2d6e: ca           	dex
    2d6f: e0 ff        	cpx	#$ff
    2d71: d0 02        	bne	$2d75 <textPrint+0xb0>
    2d73: c6 1e        	dec	$1e                     ; 0x201e <main+0x1aaa>
    2d75: e6 1c        	inc	$1c                     ; 0x201c <main+0x1aa8>
    2d77: d0 ed        	bne	$2d66 <textPrint+0xa1>
    2d79: e6 1d        	inc	$1d                     ; 0x201d <main+0x1aa9>
    2d7b: 80 e9        	bra	$2d66 <textPrint+0xa1>
    2d7d: 8a           	txa
    2d7e: d0 ea        	bne	$2d6a <textPrint+0xa5>
    2d80: a2 02        	ldx	#$2
    2d82: 86 01        	stx	$1                      ; 0x2001 <main+0x1a8d>
    2d84: e8           	inx
    2d85: 86 01        	stx	$1                      ; 0x2001 <main+0x1a8d>
    2d87: a5 32        	lda	$32                     ; 0x2032 <main+0x1abe>
    2d89: 29 01        	and	#$1
    2d8b: a8           	tay
    2d8c: a2 50        	ldx	#$50
    2d8e: 8a           	txa
    2d8f: c0 00        	cpy	#$0
    2d91: d0 02        	bne	$2d95 <textPrint+0xd0>
    2d93: a9 f0        	lda	#$f0
    2d95: a0 11        	ldy	#$11
    2d97: 84 1c        	sty	$1c                     ; 0x201c <main+0x1aa8>
    2d99: a0 c9        	ldy	#$c9
    2d9b: 84 1d        	sty	$1d                     ; 0x201d <main+0x1aa9>
    2d9d: a0 10        	ldy	#$10
    2d9f: 84 1e        	sty	$1e                     ; 0x201e <main+0x1aaa>
    2da1: a0 c9        	ldy	#$c9
    2da3: 84 1f        	sty	$1f                     ; 0x201f <main+0x1aab>
    2da5: a4 1c        	ldy	$1c                     ; 0x201c <main+0x1aa8>
    2da7: 84 22        	sty	$22                     ; 0x2022 <main+0x1aae>
    2da9: a4 1d        	ldy	$1d                     ; 0x201d <main+0x1aa9>
    2dab: 84 23        	sty	$23                     ; 0x2023 <main+0x1aaf>
    2dad: 92 1e        	sta	($1e)                   ; 0x201e <main+0x1aaa>
    2daf: e6 1c        	inc	$1c                     ; 0x201c <main+0x1aa8>
    2db1: d0 02        	bne	$2db5 <textPrint+0xf0>
    2db3: e6 1d        	inc	$1d                     ; 0x201d <main+0x1aa9>
    2db5: ca           	dex
    2db6: a4 22        	ldy	$22                     ; 0x2022 <main+0x1aae>
    2db8: 84 1e        	sty	$1e                     ; 0x201e <main+0x1aaa>
    2dba: a4 23        	ldy	$23                     ; 0x2023 <main+0x1aaf>
    2dbc: 84 1f        	sty	$1f                     ; 0x201f <main+0x1aab>
    2dbe: e0 00        	cpx	#$0
    2dc0: d0 e3        	bne	$2da5 <textPrint+0xe0>
    2dc2: a2 02        	ldx	#$2
    2dc4: 86 01        	stx	$1                      ; 0x2001 <main+0x1a8d>
    2dc6: a2 50        	ldx	#$50
    2dc8: a0 11        	ldy	#$11
    2dca: 84 1c        	sty	$1c                     ; 0x201c <main+0x1aa8>
    2dcc: a0 c9        	ldy	#$c9
    2dce: 84 1d        	sty	$1d                     ; 0x201d <main+0x1aa9>
    2dd0: a0 10        	ldy	#$10
    2dd2: 84 1e        	sty	$1e                     ; 0x201e <main+0x1aaa>
    2dd4: a0 c9        	ldy	#$c9
    2dd6: 84 1f        	sty	$1f                     ; 0x201f <main+0x1aab>
    2dd8: a9 20        	lda	#$20
    2dda: a4 1c        	ldy	$1c                     ; 0x201c <main+0x1aa8>
    2ddc: 84 22        	sty	$22                     ; 0x2022 <main+0x1aae>
    2dde: a4 1d        	ldy	$1d                     ; 0x201d <main+0x1aa9>
    2de0: 84 23        	sty	$23                     ; 0x2023 <main+0x1aaf>
    2de2: 92 1e        	sta	($1e)                   ; 0x201e <main+0x1aaa>
    2de4: e6 1c        	inc	$1c                     ; 0x201c <main+0x1aa8>
    2de6: d0 02        	bne	$2dea <textPrint+0x125>
    2de8: e6 1d        	inc	$1d                     ; 0x201d <main+0x1aa9>
    2dea: ca           	dex
    2deb: a4 22        	ldy	$22                     ; 0x2022 <main+0x1aae>
    2ded: 84 1e        	sty	$1e                     ; 0x201e <main+0x1aaa>
    2def: a4 23        	ldy	$23                     ; 0x2023 <main+0x1aaf>
    2df1: 84 1f        	sty	$1f                     ; 0x201f <main+0x1aab>
    2df3: e0 00        	cpx	#$0
    2df5: d0 e3        	bne	$2dda <textPrint+0x115>
    2df7: c6 34        	dec	$34                     ; 0x2034 <main+0x1ac0>
    2df9: 9c 08 de     	stz	$de08                   ; 0xde08 <__heap_start+0x5a9e>
    2dfc: a2 c0        	ldx	#$c0
    2dfe: 8e 09 de     	stx	$de09                   ; 0xde09 <__heap_start+0x5a9f>
    2e01: 9c 0a de     	stz	$de0a                   ; 0xde0a <__heap_start+0x5aa0>
    2e04: 9c 0b de     	stz	$de0b                   ; 0xde0b <__heap_start+0x5aa1>
    2e07: a2 1d        	ldx	#$1d
    2e09: 8e 0c de     	stx	$de0c                   ; 0xde0c <__heap_start+0x5aa2>
    2e0c: 9c 0d de     	stz	$de0d                   ; 0xde0d <__heap_start+0x5aa3>
    2e0f: 9c 0e de     	stz	$de0e                   ; 0xde0e <__heap_start+0x5aa4>
    2e12: 9c 0f de     	stz	$de0f                   ; 0xde0f <__heap_start+0x5aa5>
    2e15: ae 18 de     	ldx	$de18                   ; 0xde18 <__heap_start+0x5aae>
    2e18: ac 19 de     	ldy	$de19                   ; 0xde19 <__heap_start+0x5aaf>
    2e1b: ad 1a de     	lda	$de1a                   ; 0xde1a <__heap_start+0x5ab0>
    2e1e: ad 1b de     	lda	$de1b                   ; 0xde1b <__heap_start+0x5ab1>
    2e21: 86 1c        	stx	$1c                     ; 0x201c <main+0x1aa8>
    2e23: 84 1d        	sty	$1d                     ; 0x201d <main+0x1aa9>
    2e25: e6 14        	inc	$14                     ; 0x2014 <main+0x1aa0>
    2e27: d0 02        	bne	$2e2b <textPrint+0x166>
    2e29: e6 15        	inc	$15                     ; 0x2015 <main+0x1aa1>
    2e2b: 80 13        	bra	$2e40 <textPrint+0x17b>
    2e2d: a5 1c        	lda	$1c                     ; 0x201c <main+0x1aa8>
    2e2f: 18           	clc
    2e30: 69 50        	adc	#$50
    2e32: 85 1c        	sta	$1c                     ; 0x201c <main+0x1aa8>
    2e34: a5 1d        	lda	$1d                     ; 0x201d <main+0x1aa9>
    2e36: 69 00        	adc	#$0
    2e38: 85 1d        	sta	$1d                     ; 0x201d <main+0x1aa9>
    2e3a: e6 14        	inc	$14                     ; 0x2014 <main+0x1aa0>
    2e3c: d0 02        	bne	$2e40 <textPrint+0x17b>
    2e3e: e6 15        	inc	$15                     ; 0x2015 <main+0x1aa1>
    2e40: a5 12        	lda	$12                     ; 0x2012 <main+0x1a9e>
    2e42: 18           	clc
    2e43: 65 14        	adc	$14                     ; 0x2014 <main+0x1aa0>
    2e45: 85 1e        	sta	$1e                     ; 0x201e <main+0x1aaa>
    2e47: a5 13        	lda	$13                     ; 0x2013 <main+0x1a9f>
    2e49: 65 15        	adc	$15                     ; 0x2015 <main+0x1aa1>
    2e4b: 85 1f        	sta	$1f                     ; 0x201f <main+0x1aab>
    2e4d: b2 1e        	lda	($1e)                   ; 0x201e <main+0x1aaa>
    2e4f: c9 0a        	cmp	#$a
    2e51: f0 2e        	beq	$2e81 <textPrint+0x1bc>
    2e53: c9 0d        	cmp	#$d
    2e55: f0 2a        	beq	$2e81 <textPrint+0x1bc>
    2e57: aa           	tax
    2e58: f0 4c        	beq	$2ea6 <textPrint+0x1e1>
    2e5a: a2 03        	ldx	#$3
    2e5c: 86 01        	stx	$1                      ; 0x2001 <main+0x1a8d>
    2e5e: a5 32        	lda	$32                     ; 0x2032 <main+0x1abe>
    2e60: 29 01        	and	#$1
    2e62: a2 50        	ldx	#$50
    2e64: a8           	tay
    2e65: d0 02        	bne	$2e69 <textPrint+0x1a4>
    2e67: a2 f0        	ldx	#$f0
    2e69: a4 33        	ldy	$33                     ; 0x2033 <main+0x1abf>
    2e6b: 8a           	txa
    2e6c: 91 1c        	sta	($1c),y                 ; 0x201c <main+0x1aa8>
    2e6e: a2 02        	ldx	#$2
    2e70: 86 01        	stx	$1                      ; 0x2001 <main+0x1a8d>
    2e72: b2 1e        	lda	($1e)                   ; 0x201e <main+0x1aaa>
    2e74: a4 33        	ldy	$33                     ; 0x2033 <main+0x1abf>
    2e76: 91 1c        	sta	($1c),y                 ; 0x201c <main+0x1aa8>
    2e78: a6 33        	ldx	$33                     ; 0x2033 <main+0x1abf>
    2e7a: e8           	inx
    2e7b: e6 33        	inc	$33                     ; 0x2033 <main+0x1abf>
    2e7d: e0 50        	cpx	#$50
    2e7f: d0 b9        	bne	$2e3a <textPrint+0x175>
    2e81: 64 33        	stz	$33                     ; 0x2033 <main+0x1abf>
    2e83: a6 34        	ldx	$34                     ; 0x2034 <main+0x1ac0>
    2e85: e8           	inx
    2e86: e6 34        	inc	$34                     ; 0x2034 <main+0x1ac0>
    2e88: e0 1e        	cpx	#$1e
    2e8a: f0 03        	beq	$2e8f <textPrint+0x1ca>
    2e8c: 4c 2d 2e     	jmp	$2e2d <textPrint+0x168>
    2e8f: a2 03        	ldx	#$3
    2e91: 86 01        	stx	$1                      ; 0x2001 <main+0x1a8d>
    2e93: a9 09        	lda	#$9
    2e95: a2 10        	ldx	#$10
    2e97: a0 00        	ldy	#$0
    2e99: 84 1c        	sty	$1c                     ; 0x201c <main+0x1aa8>
    2e9b: a0 c0        	ldy	#$c0
    2e9d: 84 1d        	sty	$1d                     ; 0x201d <main+0x1aa9>
    2e9f: a0 50        	ldy	#$50
    2ea1: 85 1e        	sta	$1e                     ; 0x201e <main+0x1aaa>
    2ea3: 4c 3a 2d     	jmp	$2d3a <textPrint+0x75>
    2ea6: a6 99        	ldx	$99                     ; 0x2099 <main+0x1b25>
    2ea8: 86 01        	stx	$1                      ; 0x2001 <main+0x1a8d>
    2eaa: a6 33        	ldx	$33                     ; 0x2033 <main+0x1abf>
    2eac: a4 34        	ldy	$34                     ; 0x2034 <main+0x1ac0>
    2eae: 8e 14 d0     	stx	$d014                   ; 0xd014 <__heap_start+0x4caa>
    2eb1: 9c 15 d0     	stz	$d015                   ; 0xd015 <__heap_start+0x4cab>
    2eb4: 84 34        	sty	$34                     ; 0x2034 <main+0x1ac0>
    2eb6: 8c 16 d0     	sty	$d016                   ; 0xd016 <__heap_start+0x4cac>
    2eb9: 9c 17 d0     	stz	$d017                   ; 0xd017 <__heap_start+0x4cad>
    2ebc: 60           	rts

00002ebd <textGotoXY>:
    2ebd: 85 33        	sta	$33                     ; 0x2033 <main+0x1abf>
    2ebf: 8d 14 d0     	sta	$d014                   ; 0xd014 <__heap_start+0x4caa>
    2ec2: 9c 15 d0     	stz	$d015                   ; 0xd015 <__heap_start+0x4cab>
    2ec5: 86 34        	stx	$34                     ; 0x2034 <main+0x1ac0>
    2ec7: 8e 16 d0     	stx	$d016                   ; 0xd016 <__heap_start+0x4cac>
    2eca: 9c 17 d0     	stz	$d017                   ; 0xd017 <__heap_start+0x4cad>
    2ecd: 60           	rts

00002ece <textSetColor>:
    2ece: 64 32        	stz	$32                     ; 0x2032 <main+0x1abe>
    2ed0: 60           	rts

00002ed1 <fileReadDir>:
    2ed1: b2 12        	lda	($12)                   ; 0x2012 <main+0x1a9e>
    2ed3: 85 f3        	sta	$f3                     ; 0x20f3 <main+0x1b7f>
    2ed5: a2 41        	ldx	#$41
    2ed7: a0 00        	ldy	#$0
    2ed9: 86 14        	stx	$14                     ; 0x2014 <main+0x1aa0>
    2edb: 84 15        	sty	$15                     ; 0x2015 <main+0x1aa1>
    2edd: a2 39        	ldx	#$39
    2edf: 86 16        	stx	$16                     ; 0x2016 <main+0x1aa2>
    2ee1: a2 00        	ldx	#$0
    2ee3: 86 17        	stx	$17                     ; 0x2017 <main+0x1aa3>
    2ee5: 20 7c ff     	jsr	$ff7c <__heap_start+0x7c12>
    2ee8: 92 14        	sta	($14)                   ; 0x2014 <main+0x1aa0>
    2eea: a9 00        	lda	#$0
    2eec: 6a           	ror
    2eed: 85 16        	sta	$16                     ; 0x2016 <main+0x1aa2>
    2eef: a6 39        	ldx	$39                     ; 0x2039 <main+0x1ac5>
    2ef1: a0 00        	ldy	#$0
    2ef3: 84 14        	sty	$14                     ; 0x2014 <main+0x1aa0>
    2ef5: a0 00        	ldy	#$0
    2ef7: 84 15        	sty	$15                     ; 0x2015 <main+0x1aa1>
    2ef9: 8a           	txa
    2efa: f0 09        	beq	$2f05 <fileReadDir+0x34>
    2efc: a6 14        	ldx	$14                     ; 0x2014 <main+0x1aa0>
    2efe: 86 12        	stx	$12                     ; 0x2012 <main+0x1a9e>
    2f00: a6 15        	ldx	$15                     ; 0x2015 <main+0x1aa1>
    2f02: 86 13        	stx	$13                     ; 0x2013 <main+0x1a9f>
    2f04: 60           	rts
    2f05: a2 42        	ldx	#$42
    2f07: a0 00        	ldy	#$0
    2f09: 86 18        	stx	$18                     ; 0x2018 <main+0x1aa4>
    2f0b: 84 19        	sty	$19                     ; 0x2019 <main+0x1aa5>
    2f0d: a0 00        	ldy	#$0
    2f0f: 80 18        	bra	$2f29 <fileReadDir+0x58>
    2f11: b2 12        	lda	($12)                   ; 0x2012 <main+0x1a9e>
    2f13: 85 f3        	sta	$f3                     ; 0x20f3 <main+0x1b7f>
    2f15: a2 44        	ldx	#$44
    2f17: 86 1a        	stx	$1a                     ; 0x201a <main+0x1aa6>
    2f19: 84 1b        	sty	$1b                     ; 0x201b <main+0x1aa7>
    2f1b: 20 7c ff     	jsr	$ff7c <__heap_start+0x7c12>
    2f1e: 92 1a        	sta	($1a)                   ; 0x201a <main+0x1aa6>
    2f20: a9 00        	lda	#$0
    2f22: 6a           	ror
    2f23: 85 16        	sta	$16                     ; 0x2016 <main+0x1aa2>
    2f25: a6 39        	ldx	$39                     ; 0x2039 <main+0x1ac5>
    2f27: d0 d3        	bne	$2efc <fileReadDir+0x2b>
    2f29: 64 3a        	stz	$3a                     ; 0x203a <main+0x1ac6>
    2f2b: 20 00 ff     	jsr	$ff00 <__heap_start+0x7b96>
    2f2e: 92 18        	sta	($18)                   ; 0x2018 <main+0x1aa4>
    2f30: a9 00        	lda	#$0
    2f32: 6a           	ror
    2f33: 85 16        	sta	$16                     ; 0x2016 <main+0x1aa2>
    2f35: a9 c2        	lda	#$c2
    2f37: 18           	clc
    2f38: 65 3a        	adc	$3a                     ; 0x203a <main+0x1ac6>
    2f3a: c9 0b        	cmp	#$b
    2f3c: b0 eb        	bcs	$2f29 <fileReadDir+0x58>
    2f3e: 0a           	asl
    2f3f: aa           	tax
    2f40: 7c 62 46     	jmp	($4662,x)               ; 0x4662 <__set_v+0x1>
    2f43: 9c e9 74     	stz	$74e9                   ; 0x74e9 <fileReadDir.fileDirEntS>
    2f46: a2 02        	ldx	#$2
    2f48: 80 2d        	bra	$2f77 <fileReadDir+0xa6>
    2f4a: a2 e9        	ldx	#$e9
    2f4c: a0 74        	ldy	#$74
    2f4e: 86 fb        	stx	$fb                     ; 0x20fb <main+0x1b87>
    2f50: 84 fc        	sty	$fc                     ; 0x20fc <main+0x1b88>
    2f52: a2 01        	ldx	#$1
    2f54: 86 fd        	stx	$fd                     ; 0x20fd <main+0x1b89>
    2f56: a0 43        	ldy	#$43
    2f58: a9 00        	lda	#$0
    2f5a: 84 12        	sty	$12                     ; 0x2012 <main+0x1a9e>
    2f5c: 85 13        	sta	$13                     ; 0x2013 <main+0x1a9f>
    2f5e: a0 39        	ldy	#$39
    2f60: 84 14        	sty	$14                     ; 0x2014 <main+0x1aa0>
    2f62: a0 00        	ldy	#$0
    2f64: 84 15        	sty	$15                     ; 0x2015 <main+0x1aa1>
    2f66: 20 08 ff     	jsr	$ff08 <__heap_start+0x7b9e>
    2f69: 92 12        	sta	($12)                   ; 0x2012 <main+0x1a9e>
    2f6b: a9 00        	lda	#$0
    2f6d: 6a           	ror
    2f6e: 85 14        	sta	$14                     ; 0x2014 <main+0x1aa0>
    2f70: ac e9 74     	ldy	$74e9                   ; 0x74e9 <fileReadDir.fileDirEntS>
    2f73: f0 02        	beq	$2f77 <fileReadDir+0xa6>
    2f75: a2 00        	ldx	#$0
    2f77: 8e ea 74     	stx	$74ea                   ; 0x74ea <fileReadDir.fileDirEntS+0x1>
    2f7a: a6 3f        	ldx	$3f                     ; 0x203f <main+0x1acb>
    2f7c: f0 24        	beq	$2fa2 <fileReadDir+0xd1>
    2f7e: a0 eb        	ldy	#$eb
    2f80: a9 74        	lda	#$74
    2f82: 84 fb        	sty	$fb                     ; 0x20fb <main+0x1b87>
    2f84: 85 fc        	sta	$fc                     ; 0x20fc <main+0x1b88>
    2f86: 86 fd        	stx	$fd                     ; 0x20fd <main+0x1b89>
    2f88: a0 45        	ldy	#$45
    2f8a: a9 00        	lda	#$0
    2f8c: 84 12        	sty	$12                     ; 0x2012 <main+0x1a9e>
    2f8e: 85 13        	sta	$13                     ; 0x2013 <main+0x1a9f>
    2f90: a0 39        	ldy	#$39
    2f92: 84 14        	sty	$14                     ; 0x2014 <main+0x1aa0>
    2f94: a0 00        	ldy	#$0
    2f96: 84 15        	sty	$15                     ; 0x2015 <main+0x1aa1>
    2f98: 20 04 ff     	jsr	$ff04 <__heap_start+0x7b9a>
    2f9b: 92 12        	sta	($12)                   ; 0x2012 <main+0x1a9e>
    2f9d: a9 00        	lda	#$0
    2f9f: 6a           	ror
    2fa0: 85 14        	sta	$14                     ; 0x2014 <main+0x1aa0>
    2fa2: 9e eb 74     	stz	$74eb,x                 ; 0x74eb <fileReadDir.fileDirEntS+0x2>
    2fa5: a2 e9        	ldx	#$e9
    2fa7: 86 14        	stx	$14                     ; 0x2014 <main+0x1aa0>
    2fa9: a2 74        	ldx	#$74
    2fab: 86 15        	stx	$15                     ; 0x2015 <main+0x1aa1>
    2fad: 4c fc 2e     	jmp	$2efc <fileReadDir+0x2b>

00002fb0 <pickFile>:
    2fb0: 18           	clc
    2fb1: a5 10        	lda	$10                     ; 0x2010 <main+0x1a9c>
    2fb3: 69 f8        	adc	#$f8
    2fb5: 85 10        	sta	$10                     ; 0x2010 <main+0x1a9c>
    2fb7: a5 11        	lda	$11                     ; 0x2011 <main+0x1a9d>
    2fb9: 69 ff        	adc	#$ff
    2fbb: 85 11        	sta	$11                     ; 0x2011 <main+0x1a9d>
    2fbd: a6 24        	ldx	$24                     ; 0x2024 <main+0x1ab0>
    2fbf: da           	phx
    2fc0: a6 25        	ldx	$25                     ; 0x2025 <main+0x1ab1>
    2fc2: da           	phx
    2fc3: a6 26        	ldx	$26                     ; 0x2026 <main+0x1ab2>
    2fc5: da           	phx
    2fc6: a6 27        	ldx	$27                     ; 0x2027 <main+0x1ab3>
    2fc8: da           	phx
    2fc9: a2 08        	ldx	#$8
    2fcb: 86 26        	stx	$26                     ; 0x2026 <main+0x1ab2>
    2fcd: a2 00        	ldx	#$0
    2fcf: 86 27        	stx	$27                     ; 0x2027 <main+0x1ab3>
    2fd1: a9 eb        	lda	#$eb
    2fd3: 18           	clc
    2fd4: 48           	pha
    2fd5: a5 10        	lda	$10                     ; 0x2010 <main+0x1a9c>
    2fd7: 69 05        	adc	#$5
    2fd9: 85 12        	sta	$12                     ; 0x2012 <main+0x1a9e>
    2fdb: a5 11        	lda	$11                     ; 0x2011 <main+0x1a9d>
    2fdd: 69 00        	adc	#$0
    2fdf: 85 13        	sta	$13                     ; 0x2013 <main+0x1a9f>
    2fe1: 68           	pla
    2fe2: 92 12        	sta	($12)                   ; 0x2012 <main+0x1a9e>
    2fe4: a0 01        	ldy	#$1
    2fe6: a9 75        	lda	#$75
    2fe8: 91 12        	sta	($12),y                 ; 0x2012 <main+0x1a9e>
    2fea: 64 3a        	stz	$3a                     ; 0x203a <main+0x1ac6>
    2fec: 18           	clc
    2fed: a5 10        	lda	$10                     ; 0x2010 <main+0x1a9c>
    2fef: 69 03        	adc	#$3
    2ff1: 85 12        	sta	$12                     ; 0x2012 <main+0x1a9e>
    2ff3: a5 11        	lda	$11                     ; 0x2011 <main+0x1a9d>
    2ff5: 69 00        	adc	#$0
    2ff7: 85 13        	sta	$13                     ; 0x2013 <main+0x1a9f>
    2ff9: a2 39        	ldx	#$39
    2ffb: 86 14        	stx	$14                     ; 0x2014 <main+0x1aa0>
    2ffd: a2 00        	ldx	#$0
    2fff: 86 15        	stx	$15                     ; 0x2015 <main+0x1aa1>
    3001: 20 00 ff     	jsr	$ff00 <__heap_start+0x7b96>
    3004: 92 12        	sta	($12)                   ; 0x2012 <main+0x1a9e>
    3006: a9 00        	lda	#$0
    3008: 6a           	ror
    3009: 85 14        	sta	$14                     ; 0x2014 <main+0x1aa0>
    300b: b2 12        	lda	($12)                   ; 0x2012 <main+0x1a9e>
    300d: 18           	clc
    300e: 48           	pha
    300f: a5 10        	lda	$10                     ; 0x2010 <main+0x1a9c>
    3011: 69 02        	adc	#$2
    3013: 85 12        	sta	$12                     ; 0x2012 <main+0x1a9e>
    3015: a5 11        	lda	$11                     ; 0x2011 <main+0x1a9d>
    3017: 69 00        	adc	#$0
    3019: 85 13        	sta	$13                     ; 0x2013 <main+0x1a9f>
    301b: 68           	pla
    301c: 92 12        	sta	($12)                   ; 0x2012 <main+0x1a9e>
    301e: b2 12        	lda	($12)                   ; 0x2012 <main+0x1a9e>
    3020: 18           	clc
    3021: 48           	pha
    3022: a5 10        	lda	$10                     ; 0x2010 <main+0x1a9c>
    3024: 69 04        	adc	#$4
    3026: 85 12        	sta	$12                     ; 0x2012 <main+0x1a9e>
    3028: a5 11        	lda	$11                     ; 0x2011 <main+0x1a9d>
    302a: 69 00        	adc	#$0
    302c: 85 13        	sta	$13                     ; 0x2013 <main+0x1a9f>
    302e: 68           	pla
    302f: 92 12        	sta	($12)                   ; 0x2012 <main+0x1a9e>
    3031: a6 3a        	ldx	$3a                     ; 0x203a <main+0x1ac6>
    3033: a0 00        	ldy	#$0
    3035: c4 27        	cpy	$27                     ; 0x2027 <main+0x1ab3>
    3037: f0 02        	beq	$303b <pickFile+0x8b>
    3039: 80 0d        	bra	$3048 <pickFile+0x98>
    303b: e4 26        	cpx	$26                     ; 0x2026 <main+0x1ab2>
    303d: f0 02        	beq	$3041 <pickFile+0x91>
    303f: 80 02        	bra	$3043 <pickFile+0x93>
    3041: 80 03        	bra	$3046 <pickFile+0x96>
    3043: 4c 04 34     	jmp	$3404 <pickFile+0x454>
    3046: 80 03        	bra	$304b <pickFile+0x9b>
    3048: 4c 04 34     	jmp	$3404 <pickFile+0x454>
    304b: 80 00        	bra	$304d <pickFile+0x9d>
    304d: a6 3e        	ldx	$3e                     ; 0x203e <main+0x1aca>
    304f: e0 94        	cpx	#$94
    3051: f0 02        	beq	$3055 <pickFile+0xa5>
    3053: 80 02        	bra	$3057 <pickFile+0xa7>
    3055: 80 1f        	bra	$3076 <pickFile+0xc6>
    3057: 80 00        	bra	$3059 <pickFile+0xa9>
    3059: 80 00        	bra	$305b <pickFile+0xab>
    305b: e0 b6        	cpx	#$b6
    305d: f0 02        	beq	$3061 <pickFile+0xb1>
    305f: 80 03        	bra	$3064 <pickFile+0xb4>
    3061: 4c 9a 31     	jmp	$319a <pickFile+0x1ea>
    3064: 80 00        	bra	$3066 <pickFile+0xb6>
    3066: 80 00        	bra	$3068 <pickFile+0xb8>
    3068: e0 b7        	cpx	#$b7
    306a: f0 02        	beq	$306e <pickFile+0xbe>
    306c: 80 03        	bra	$3071 <pickFile+0xc1>
    306e: 4c b3 32     	jmp	$32b3 <pickFile+0x303>
    3071: 80 00        	bra	$3073 <pickFile+0xc3>
    3073: 4c 04 34     	jmp	$3404 <pickFile+0x454>
    3076: 18           	clc
    3077: a5 10        	lda	$10                     ; 0x2010 <main+0x1a9c>
    3079: 69 05        	adc	#$5
    307b: 85 24        	sta	$24                     ; 0x2024 <main+0x1ab0>
    307d: a5 11        	lda	$11                     ; 0x2011 <main+0x1a9d>
    307f: 69 00        	adc	#$0
    3081: 85 25        	sta	$25                     ; 0x2025 <main+0x1ab1>
    3083: b2 24        	lda	($24)                   ; 0x2024 <main+0x1ab0>
    3085: 85 12        	sta	$12                     ; 0x2012 <main+0x1a9e>
    3087: a0 01        	ldy	#$1
    3089: b1 24        	lda	($24),y                 ; 0x2024 <main+0x1ab0>
    308b: aa           	tax
    308c: a0 01        	ldy	#$1
    308e: 18           	clc
    308f: a5 12        	lda	$12                     ; 0x2012 <main+0x1a9e>
    3091: 69 22        	adc	#$22
    3093: 85 12        	sta	$12                     ; 0x2012 <main+0x1a9e>
    3095: 8a           	txa
    3096: 69 00        	adc	#$0
    3098: 85 13        	sta	$13                     ; 0x2013 <main+0x1a9f>
    309a: b2 24        	lda	($24)                   ; 0x2024 <main+0x1ab0>
    309c: 85 15        	sta	$15                     ; 0x2015 <main+0x1aa1>
    309e: b1 24        	lda	($24),y                 ; 0x2024 <main+0x1ab0>
    30a0: 85 14        	sta	$14                     ; 0x2014 <main+0x1aa0>
    30a2: 18           	clc
    30a3: a5 15        	lda	$15                     ; 0x2015 <main+0x1aa1>
    30a5: 69 28        	adc	#$28
    30a7: aa           	tax
    30a8: a5 14        	lda	$14                     ; 0x2014 <main+0x1aa0>
    30aa: 69 0d        	adc	#$d
    30ac: 86 14        	stx	$14                     ; 0x2014 <main+0x1aa0>
    30ae: 85 15        	sta	$15                     ; 0x2015 <main+0x1aa1>
    30b0: b2 14        	lda	($14)                   ; 0x2014 <main+0x1aa0>
    30b2: aa           	tax
    30b3: b1 14        	lda	($14),y                 ; 0x2014 <main+0x1aa0>
    30b5: 4a           	lsr
    30b6: 85 15        	sta	$15                     ; 0x2015 <main+0x1aa1>
    30b8: 8a           	txa
    30b9: 6a           	ror
    30ba: 64 14        	stz	$14                     ; 0x2014 <main+0x1aa0>
    30bc: 66 14        	ror	$14                     ; 0x2014 <main+0x1aa0>
    30be: 46 15        	lsr	$15                     ; 0x2015 <main+0x1aa1>
    30c0: 6a           	ror
    30c1: 66 14        	ror	$14                     ; 0x2014 <main+0x1aa0>
    30c3: 46 15        	lsr	$15                     ; 0x2015 <main+0x1aa1>
    30c5: 6a           	ror
    30c6: aa           	tax
    30c7: a5 14        	lda	$14                     ; 0x2014 <main+0x1aa0>
    30c9: 6a           	ror
    30ca: 18           	clc
    30cb: 72 24        	adc	($24)                   ; 0x2024 <main+0x1ab0>
    30cd: 85 14        	sta	$14                     ; 0x2014 <main+0x1aa0>
    30cf: 8a           	txa
    30d0: 71 24        	adc	($24),y                 ; 0x2024 <main+0x1ab0>
    30d2: aa           	tax
    30d3: 18           	clc
    30d4: a5 14        	lda	$14                     ; 0x2014 <main+0x1aa0>
    30d6: 69 42        	adc	#$42
    30d8: 85 14        	sta	$14                     ; 0x2014 <main+0x1aa0>
    30da: 8a           	txa
    30db: 69 00        	adc	#$0
    30dd: 85 15        	sta	$15                     ; 0x2015 <main+0x1aa1>
    30df: a9 20        	lda	#$20
    30e1: a2 00        	ldx	#$0
    30e3: 20 15 46     	jsr	$4615 <memcpy>
    30e6: b2 24        	lda	($24)                   ; 0x2024 <main+0x1ab0>
    30e8: 85 13        	sta	$13                     ; 0x2013 <main+0x1a9f>
    30ea: a0 01        	ldy	#$1
    30ec: b1 24        	lda	($24),y                 ; 0x2024 <main+0x1ab0>
    30ee: 85 12        	sta	$12                     ; 0x2012 <main+0x1a9e>
    30f0: 18           	clc
    30f1: a5 13        	lda	$13                     ; 0x2013 <main+0x1a9f>
    30f3: 69 28        	adc	#$28
    30f5: aa           	tax
    30f6: a5 12        	lda	$12                     ; 0x2012 <main+0x1a9e>
    30f8: 69 0d        	adc	#$d
    30fa: 86 12        	stx	$12                     ; 0x2012 <main+0x1a9e>
    30fc: 85 13        	sta	$13                     ; 0x2013 <main+0x1a9f>
    30fe: b2 12        	lda	($12)                   ; 0x2012 <main+0x1a9e>
    3100: 85 14        	sta	$14                     ; 0x2014 <main+0x1aa0>
    3102: b1 12        	lda	($12),y                 ; 0x2012 <main+0x1a9e>
    3104: d0 1c        	bne	$3122 <pickFile+0x172>
    3106: 80 00        	bra	$3108 <pickFile+0x158>
    3108: a5 14        	lda	$14                     ; 0x2014 <main+0x1aa0>
    310a: d0 16        	bne	$3122 <pickFile+0x172>
    310c: 80 00        	bra	$310e <pickFile+0x15e>
    310e: 18           	clc
    310f: a5 10        	lda	$10                     ; 0x2010 <main+0x1a9c>
    3111: 69 07        	adc	#$7
    3113: 85 12        	sta	$12                     ; 0x2012 <main+0x1a9e>
    3115: a5 11        	lda	$11                     ; 0x2011 <main+0x1a9d>
    3117: 69 00        	adc	#$0
    3119: 85 13        	sta	$13                     ; 0x2013 <main+0x1a9f>
    311b: a9 00        	lda	#$0
    311d: 92 12        	sta	($12)                   ; 0x2012 <main+0x1a9e>
    311f: 4c 07 34     	jmp	$3407 <pickFile+0x457>
    3122: 18           	clc
    3123: a5 10        	lda	$10                     ; 0x2010 <main+0x1a9c>
    3125: 69 05        	adc	#$5
    3127: 85 12        	sta	$12                     ; 0x2012 <main+0x1a9e>
    3129: a5 11        	lda	$11                     ; 0x2011 <main+0x1a9d>
    312b: 69 00        	adc	#$0
    312d: 85 13        	sta	$13                     ; 0x2013 <main+0x1a9f>
    312f: a0 01        	ldy	#$1
    3131: b2 12        	lda	($12)                   ; 0x2012 <main+0x1a9e>
    3133: 85 15        	sta	$15                     ; 0x2015 <main+0x1aa1>
    3135: b1 12        	lda	($12),y                 ; 0x2012 <main+0x1a9e>
    3137: 85 14        	sta	$14                     ; 0x2014 <main+0x1aa0>
    3139: 18           	clc
    313a: a5 15        	lda	$15                     ; 0x2015 <main+0x1aa1>
    313c: 69 28        	adc	#$28
    313e: aa           	tax
    313f: a5 14        	lda	$14                     ; 0x2014 <main+0x1aa0>
    3141: 69 0d        	adc	#$d
    3143: 86 14        	stx	$14                     ; 0x2014 <main+0x1aa0>
    3145: 85 15        	sta	$15                     ; 0x2015 <main+0x1aa1>
    3147: b2 14        	lda	($14)                   ; 0x2014 <main+0x1aa0>
    3149: 85 16        	sta	$16                     ; 0x2016 <main+0x1aa2>
    314b: b1 14        	lda	($14),y                 ; 0x2014 <main+0x1aa0>
    314d: 85 14        	sta	$14                     ; 0x2014 <main+0x1aa0>
    314f: 18           	clc
    3150: a5 16        	lda	$16                     ; 0x2016 <main+0x1aa2>
    3152: 72 12        	adc	($12)                   ; 0x2012 <main+0x1a9e>
    3154: 85 15        	sta	$15                     ; 0x2015 <main+0x1aa1>
    3156: a5 14        	lda	$14                     ; 0x2014 <main+0x1aa0>
    3158: 71 12        	adc	($12),y                 ; 0x2012 <main+0x1a9e>
    315a: 85 12        	sta	$12                     ; 0x2012 <main+0x1a9e>
    315c: 18           	clc
    315d: a5 15        	lda	$15                     ; 0x2015 <main+0x1aa1>
    315f: 69 c2        	adc	#$c2
    3161: aa           	tax
    3162: a5 12        	lda	$12                     ; 0x2012 <main+0x1a9e>
    3164: 69 0c        	adc	#$c
    3166: 85 13        	sta	$13                     ; 0x2013 <main+0x1a9f>
    3168: 86 12        	stx	$12                     ; 0x2012 <main+0x1a9e>
    316a: b2 12        	lda	($12)                   ; 0x2012 <main+0x1a9e>
    316c: 29 01        	and	#$1
    316e: f0 16        	beq	$3186 <pickFile+0x1d6>
    3170: 80 00        	bra	$3172 <pickFile+0x1c2>
    3172: 18           	clc
    3173: a5 10        	lda	$10                     ; 0x2010 <main+0x1a9c>
    3175: 69 07        	adc	#$7
    3177: 85 12        	sta	$12                     ; 0x2012 <main+0x1a9e>
    3179: a5 11        	lda	$11                     ; 0x2011 <main+0x1a9d>
    317b: 69 00        	adc	#$0
    317d: 85 13        	sta	$13                     ; 0x2013 <main+0x1a9f>
    317f: a9 01        	lda	#$1
    3181: 92 12        	sta	($12)                   ; 0x2012 <main+0x1a9e>
    3183: 4c 07 34     	jmp	$3407 <pickFile+0x457>
    3186: 18           	clc
    3187: a5 10        	lda	$10                     ; 0x2010 <main+0x1a9c>
    3189: 69 07        	adc	#$7
    318b: 85 12        	sta	$12                     ; 0x2012 <main+0x1a9e>
    318d: a5 11        	lda	$11                     ; 0x2011 <main+0x1a9d>
    318f: 69 00        	adc	#$0
    3191: 85 13        	sta	$13                     ; 0x2013 <main+0x1a9f>
    3193: a9 02        	lda	#$2
    3195: 92 12        	sta	($12)                   ; 0x2012 <main+0x1a9e>
    3197: 4c 07 34     	jmp	$3407 <pickFile+0x457>
    319a: 18           	clc
    319b: a5 10        	lda	$10                     ; 0x2010 <main+0x1a9c>
    319d: 69 05        	adc	#$5
    319f: 85 12        	sta	$12                     ; 0x2012 <main+0x1a9e>
    31a1: a5 11        	lda	$11                     ; 0x2011 <main+0x1a9d>
    31a3: 69 00        	adc	#$0
    31a5: 85 13        	sta	$13                     ; 0x2013 <main+0x1a9f>
    31a7: b2 12        	lda	($12)                   ; 0x2012 <main+0x1a9e>
    31a9: 85 14        	sta	$14                     ; 0x2014 <main+0x1aa0>
    31ab: a0 01        	ldy	#$1
    31ad: b1 12        	lda	($12),y                 ; 0x2012 <main+0x1a9e>
    31af: aa           	tax
    31b0: 18           	clc
    31b1: a5 14        	lda	$14                     ; 0x2014 <main+0x1aa0>
    31b3: 69 28        	adc	#$28
    31b5: 85 12        	sta	$12                     ; 0x2012 <main+0x1a9e>
    31b7: 8a           	txa
    31b8: 69 0d        	adc	#$d
    31ba: 85 13        	sta	$13                     ; 0x2013 <main+0x1a9f>
    31bc: b2 12        	lda	($12)                   ; 0x2012 <main+0x1a9e>
    31be: 85 14        	sta	$14                     ; 0x2014 <main+0x1aa0>
    31c0: b1 12        	lda	($12),y                 ; 0x2012 <main+0x1a9e>
    31c2: d0 09        	bne	$31cd <pickFile+0x21d>
    31c4: 80 00        	bra	$31c6 <pickFile+0x216>
    31c6: a5 14        	lda	$14                     ; 0x2014 <main+0x1aa0>
    31c8: d0 03        	bne	$31cd <pickFile+0x21d>
    31ca: 4c b0 32     	jmp	$32b0 <pickFile+0x300>
    31cd: 18           	clc
    31ce: a5 10        	lda	$10                     ; 0x2010 <main+0x1a9c>
    31d0: 69 05        	adc	#$5
    31d2: 85 24        	sta	$24                     ; 0x2024 <main+0x1ab0>
    31d4: a5 11        	lda	$11                     ; 0x2011 <main+0x1a9d>
    31d6: 69 00        	adc	#$0
    31d8: 85 25        	sta	$25                     ; 0x2025 <main+0x1ab1>
    31da: b2 24        	lda	($24)                   ; 0x2024 <main+0x1ab0>
    31dc: 85 12        	sta	$12                     ; 0x2012 <main+0x1a9e>
    31de: a0 01        	ldy	#$1
    31e0: b1 24        	lda	($24),y                 ; 0x2024 <main+0x1ab0>
    31e2: 85 13        	sta	$13                     ; 0x2013 <main+0x1a9f>
    31e4: b2 12        	lda	($12)                   ; 0x2012 <main+0x1a9e>
    31e6: 85 14        	sta	$14                     ; 0x2014 <main+0x1aa0>
    31e8: b2 24        	lda	($24)                   ; 0x2024 <main+0x1ab0>
    31ea: 85 12        	sta	$12                     ; 0x2012 <main+0x1a9e>
    31ec: b1 24        	lda	($24),y                 ; 0x2024 <main+0x1ab0>
    31ee: 85 13        	sta	$13                     ; 0x2013 <main+0x1a9f>
    31f0: b2 24        	lda	($24)                   ; 0x2024 <main+0x1ab0>
    31f2: 85 16        	sta	$16                     ; 0x2016 <main+0x1aa2>
    31f4: b1 24        	lda	($24),y                 ; 0x2024 <main+0x1ab0>
    31f6: 85 15        	sta	$15                     ; 0x2015 <main+0x1aa1>
    31f8: 18           	clc
    31f9: a5 16        	lda	$16                     ; 0x2016 <main+0x1aa2>
    31fb: 69 28        	adc	#$28
    31fd: aa           	tax
    31fe: a5 15        	lda	$15                     ; 0x2015 <main+0x1aa1>
    3200: 69 0d        	adc	#$d
    3202: 85 15        	sta	$15                     ; 0x2015 <main+0x1aa1>
    3204: b1 12        	lda	($12),y                 ; 0x2012 <main+0x1a9e>
    3206: 86 12        	stx	$12                     ; 0x2012 <main+0x1a9e>
    3208: a6 15        	ldx	$15                     ; 0x2015 <main+0x1aa1>
    320a: 86 13        	stx	$13                     ; 0x2013 <main+0x1a9f>
    320c: 18           	clc
    320d: 72 12        	adc	($12)                   ; 0x2012 <main+0x1a9e>
    320f: aa           	tax
    3210: a5 14        	lda	$14                     ; 0x2014 <main+0x1aa0>
    3212: 20 bd 2e     	jsr	$2ebd <textGotoXY>
    3215: a9 20        	lda	#$20
    3217: 92 10        	sta	($10)                   ; 0x2010 <main+0x1a9c>
    3219: a9 00        	lda	#$0
    321b: a0 01        	ldy	#$1
    321d: 91 10        	sta	($10),y                 ; 0x2010 <main+0x1a9c>
    321f: a2 ed        	ldx	#$ed
    3221: 86 12        	stx	$12                     ; 0x2012 <main+0x1a9e>
    3223: a2 47        	ldx	#$47
    3225: 86 13        	stx	$13                     ; 0x2013 <main+0x1a9f>
    3227: 20 54 41     	jsr	$4154 <printf>
    322a: b2 24        	lda	($24)                   ; 0x2024 <main+0x1ab0>
    322c: 85 13        	sta	$13                     ; 0x2013 <main+0x1a9f>
    322e: a0 01        	ldy	#$1
    3230: b1 24        	lda	($24),y                 ; 0x2024 <main+0x1ab0>
    3232: 85 12        	sta	$12                     ; 0x2012 <main+0x1a9e>
    3234: 18           	clc
    3235: a5 13        	lda	$13                     ; 0x2013 <main+0x1a9f>
    3237: 69 28        	adc	#$28
    3239: aa           	tax
    323a: a5 12        	lda	$12                     ; 0x2012 <main+0x1a9e>
    323c: 69 0d        	adc	#$d
    323e: 86 12        	stx	$12                     ; 0x2012 <main+0x1a9e>
    3240: 85 13        	sta	$13                     ; 0x2013 <main+0x1a9f>
    3242: b2 12        	lda	($12)                   ; 0x2012 <main+0x1a9e>
    3244: aa           	tax
    3245: b1 12        	lda	($12),y                 ; 0x2012 <main+0x1a9e>
    3247: 85 14        	sta	$14                     ; 0x2014 <main+0x1aa0>
    3249: 8a           	txa
    324a: 3a           	dec
    324b: c9 ff        	cmp	#$ff
    324d: f0 03        	beq	$3252 <pickFile+0x2a2>
    324f: 4c 57 32     	jmp	$3257 <pickFile+0x2a7>
    3252: c6 14        	dec	$14                     ; 0x2014 <main+0x1aa0>
    3254: 4c 57 32     	jmp	$3257 <pickFile+0x2a7>
    3257: 92 12        	sta	($12)                   ; 0x2012 <main+0x1a9e>
    3259: a5 14        	lda	$14                     ; 0x2014 <main+0x1aa0>
    325b: 91 12        	sta	($12),y                 ; 0x2012 <main+0x1a9e>
    325d: b2 24        	lda	($24)                   ; 0x2024 <main+0x1ab0>
    325f: 85 12        	sta	$12                     ; 0x2012 <main+0x1a9e>
    3261: b1 24        	lda	($24),y                 ; 0x2024 <main+0x1ab0>
    3263: 85 13        	sta	$13                     ; 0x2013 <main+0x1a9f>
    3265: b2 24        	lda	($24)                   ; 0x2024 <main+0x1ab0>
    3267: 85 14        	sta	$14                     ; 0x2014 <main+0x1aa0>
    3269: b1 24        	lda	($24),y                 ; 0x2024 <main+0x1ab0>
    326b: 85 15        	sta	$15                     ; 0x2015 <main+0x1aa1>
    326d: b2 24        	lda	($24)                   ; 0x2024 <main+0x1ab0>
    326f: 85 16        	sta	$16                     ; 0x2016 <main+0x1aa2>
    3271: b1 24        	lda	($24),y                 ; 0x2024 <main+0x1ab0>
    3273: 85 18        	sta	$18                     ; 0x2018 <main+0x1aa4>
    3275: a0 01        	ldy	#$1
    3277: 18           	clc
    3278: a5 16        	lda	$16                     ; 0x2016 <main+0x1aa2>
    327a: 69 28        	adc	#$28
    327c: 85 17        	sta	$17                     ; 0x2017 <main+0x1aa3>
    327e: a5 18        	lda	$18                     ; 0x2018 <main+0x1aa4>
    3280: 69 0d        	adc	#$d
    3282: aa           	tax
    3283: b2 12        	lda	($12)                   ; 0x2012 <main+0x1a9e>
    3285: 85 16        	sta	$16                     ; 0x2016 <main+0x1aa2>
    3287: a5 17        	lda	$17                     ; 0x2017 <main+0x1aa3>
    3289: 85 12        	sta	$12                     ; 0x2012 <main+0x1a9e>
    328b: b1 14        	lda	($14),y                 ; 0x2014 <main+0x1aa0>
    328d: 86 13        	stx	$13                     ; 0x2013 <main+0x1a9f>
    328f: 18           	clc
    3290: 72 12        	adc	($12)                   ; 0x2012 <main+0x1a9e>
    3292: aa           	tax
    3293: a5 16        	lda	$16                     ; 0x2016 <main+0x1aa2>
    3295: 20 bd 2e     	jsr	$2ebd <textGotoXY>
    3298: a9 fa        	lda	#$fa
    329a: 92 10        	sta	($10)                   ; 0x2010 <main+0x1a9c>
    329c: a9 00        	lda	#$0
    329e: a0 01        	ldy	#$1
    32a0: 91 10        	sta	($10),y                 ; 0x2010 <main+0x1a9c>
    32a2: a2 ed        	ldx	#$ed
    32a4: 86 12        	stx	$12                     ; 0x2012 <main+0x1a9e>
    32a6: a2 47        	ldx	#$47
    32a8: 86 13        	stx	$13                     ; 0x2013 <main+0x1a9f>
    32aa: 20 54 41     	jsr	$4154 <printf>
    32ad: 20 ce 2e     	jsr	$2ece <textSetColor>
    32b0: 4c 04 34     	jmp	$3404 <pickFile+0x454>
    32b3: 18           	clc
    32b4: a5 10        	lda	$10                     ; 0x2010 <main+0x1a9c>
    32b6: 69 05        	adc	#$5
    32b8: 85 12        	sta	$12                     ; 0x2012 <main+0x1a9e>
    32ba: a5 11        	lda	$11                     ; 0x2011 <main+0x1a9d>
    32bc: 69 00        	adc	#$0
    32be: 85 13        	sta	$13                     ; 0x2013 <main+0x1a9f>
    32c0: b2 12        	lda	($12)                   ; 0x2012 <main+0x1a9e>
    32c2: 85 14        	sta	$14                     ; 0x2014 <main+0x1aa0>
    32c4: a0 01        	ldy	#$1
    32c6: b1 12        	lda	($12),y                 ; 0x2012 <main+0x1a9e>
    32c8: aa           	tax
    32c9: 18           	clc
    32ca: a5 14        	lda	$14                     ; 0x2014 <main+0x1aa0>
    32cc: 69 28        	adc	#$28
    32ce: 85 14        	sta	$14                     ; 0x2014 <main+0x1aa0>
    32d0: 8a           	txa
    32d1: 69 0d        	adc	#$d
    32d3: 85 15        	sta	$15                     ; 0x2015 <main+0x1aa1>
    32d5: b2 14        	lda	($14)                   ; 0x2014 <main+0x1aa0>
    32d7: 85 16        	sta	$16                     ; 0x2016 <main+0x1aa2>
    32d9: b2 12        	lda	($12)                   ; 0x2012 <main+0x1a9e>
    32db: 85 17        	sta	$17                     ; 0x2017 <main+0x1aa3>
    32dd: b1 12        	lda	($12),y                 ; 0x2012 <main+0x1a9e>
    32df: 85 12        	sta	$12                     ; 0x2012 <main+0x1a9e>
    32e1: 18           	clc
    32e2: a5 17        	lda	$17                     ; 0x2017 <main+0x1aa3>
    32e4: 69 26        	adc	#$26
    32e6: aa           	tax
    32e7: a5 12        	lda	$12                     ; 0x2012 <main+0x1a9e>
    32e9: 69 0d        	adc	#$d
    32eb: 85 13        	sta	$13                     ; 0x2013 <main+0x1a9f>
    32ed: b1 14        	lda	($14),y                 ; 0x2014 <main+0x1aa0>
    32ef: 85 14        	sta	$14                     ; 0x2014 <main+0x1aa0>
    32f1: 86 12        	stx	$12                     ; 0x2012 <main+0x1a9e>
    32f3: b2 12        	lda	($12)                   ; 0x2012 <main+0x1a9e>
    32f5: aa           	tax
    32f6: b1 12        	lda	($12),y                 ; 0x2012 <main+0x1a9e>
    32f8: 85 13        	sta	$13                     ; 0x2013 <main+0x1a9f>
    32fa: 86 12        	stx	$12                     ; 0x2012 <main+0x1a9e>
    32fc: a5 14        	lda	$14                     ; 0x2014 <main+0x1aa0>
    32fe: a2 ff        	ldx	#$ff
    3300: c6 12        	dec	$12                     ; 0x2012 <main+0x1a9e>
    3302: e4 12        	cpx	$12                     ; 0x2012 <main+0x1a9e>
    3304: f0 03        	beq	$3309 <pickFile+0x359>
    3306: 4c 0e 33     	jmp	$330e <pickFile+0x35e>
    3309: c6 13        	dec	$13                     ; 0x2013 <main+0x1a9f>
    330b: 4c 0e 33     	jmp	$330e <pickFile+0x35e>
    330e: a6 16        	ldx	$16                     ; 0x2016 <main+0x1aa2>
    3310: e4 12        	cpx	$12                     ; 0x2012 <main+0x1a9e>
    3312: e5 13        	sbc	$13                     ; 0x2013 <main+0x1a9f>
    3314: 70 02        	bvs	$3318 <pickFile+0x368>
    3316: 80 04        	bra	$331c <pickFile+0x36c>
    3318: 49 80        	eor	#$80
    331a: 80 02        	bra	$331e <pickFile+0x36e>
    331c: 80 00        	bra	$331e <pickFile+0x36e>
    331e: aa           	tax
    331f: 30 03        	bmi	$3324 <pickFile+0x374>
    3321: 4c 04 34     	jmp	$3404 <pickFile+0x454>
    3324: 18           	clc
    3325: a5 10        	lda	$10                     ; 0x2010 <main+0x1a9c>
    3327: 69 05        	adc	#$5
    3329: 85 24        	sta	$24                     ; 0x2024 <main+0x1ab0>
    332b: a5 11        	lda	$11                     ; 0x2011 <main+0x1a9d>
    332d: 69 00        	adc	#$0
    332f: 85 25        	sta	$25                     ; 0x2025 <main+0x1ab1>
    3331: b2 24        	lda	($24)                   ; 0x2024 <main+0x1ab0>
    3333: 85 12        	sta	$12                     ; 0x2012 <main+0x1a9e>
    3335: a0 01        	ldy	#$1
    3337: b1 24        	lda	($24),y                 ; 0x2024 <main+0x1ab0>
    3339: 85 13        	sta	$13                     ; 0x2013 <main+0x1a9f>
    333b: b2 12        	lda	($12)                   ; 0x2012 <main+0x1a9e>
    333d: 85 14        	sta	$14                     ; 0x2014 <main+0x1aa0>
    333f: b2 24        	lda	($24)                   ; 0x2024 <main+0x1ab0>
    3341: 85 12        	sta	$12                     ; 0x2012 <main+0x1a9e>
    3343: b1 24        	lda	($24),y                 ; 0x2024 <main+0x1ab0>
    3345: 85 13        	sta	$13                     ; 0x2013 <main+0x1a9f>
    3347: b2 24        	lda	($24)                   ; 0x2024 <main+0x1ab0>
    3349: 85 16        	sta	$16                     ; 0x2016 <main+0x1aa2>
    334b: b1 24        	lda	($24),y                 ; 0x2024 <main+0x1ab0>
    334d: 85 15        	sta	$15                     ; 0x2015 <main+0x1aa1>
    334f: 18           	clc
    3350: a5 16        	lda	$16                     ; 0x2016 <main+0x1aa2>
    3352: 69 28        	adc	#$28
    3354: aa           	tax
    3355: a5 15        	lda	$15                     ; 0x2015 <main+0x1aa1>
    3357: 69 0d        	adc	#$d
    3359: 85 15        	sta	$15                     ; 0x2015 <main+0x1aa1>
    335b: b1 12        	lda	($12),y                 ; 0x2012 <main+0x1a9e>
    335d: 86 12        	stx	$12                     ; 0x2012 <main+0x1a9e>
    335f: a6 15        	ldx	$15                     ; 0x2015 <main+0x1aa1>
    3361: 86 13        	stx	$13                     ; 0x2013 <main+0x1a9f>
    3363: 18           	clc
    3364: 72 12        	adc	($12)                   ; 0x2012 <main+0x1a9e>
    3366: aa           	tax
    3367: a5 14        	lda	$14                     ; 0x2014 <main+0x1aa0>
    3369: 20 bd 2e     	jsr	$2ebd <textGotoXY>
    336c: a9 20        	lda	#$20
    336e: 92 10        	sta	($10)                   ; 0x2010 <main+0x1a9c>
    3370: a9 00        	lda	#$0
    3372: a0 01        	ldy	#$1
    3374: 91 10        	sta	($10),y                 ; 0x2010 <main+0x1a9c>
    3376: a2 ed        	ldx	#$ed
    3378: 86 12        	stx	$12                     ; 0x2012 <main+0x1a9e>
    337a: a2 47        	ldx	#$47
    337c: 86 13        	stx	$13                     ; 0x2013 <main+0x1a9f>
    337e: 20 54 41     	jsr	$4154 <printf>
    3381: b2 24        	lda	($24)                   ; 0x2024 <main+0x1ab0>
    3383: 85 13        	sta	$13                     ; 0x2013 <main+0x1a9f>
    3385: a0 01        	ldy	#$1
    3387: b1 24        	lda	($24),y                 ; 0x2024 <main+0x1ab0>
    3389: 85 12        	sta	$12                     ; 0x2012 <main+0x1a9e>
    338b: 18           	clc
    338c: a5 13        	lda	$13                     ; 0x2013 <main+0x1a9f>
    338e: 69 28        	adc	#$28
    3390: aa           	tax
    3391: a5 12        	lda	$12                     ; 0x2012 <main+0x1a9e>
    3393: 69 0d        	adc	#$d
    3395: 86 12        	stx	$12                     ; 0x2012 <main+0x1a9e>
    3397: 85 13        	sta	$13                     ; 0x2013 <main+0x1a9f>
    3399: b2 12        	lda	($12)                   ; 0x2012 <main+0x1a9e>
    339b: 85 14        	sta	$14                     ; 0x2014 <main+0x1aa0>
    339d: b1 12        	lda	($12),y                 ; 0x2012 <main+0x1a9e>
    339f: aa           	tax
    33a0: a5 14        	lda	$14                     ; 0x2014 <main+0x1aa0>
    33a2: 1a           	inc
    33a3: f0 03        	beq	$33a8 <pickFile+0x3f8>
    33a5: 4c ac 33     	jmp	$33ac <pickFile+0x3fc>
    33a8: e8           	inx
    33a9: 4c ac 33     	jmp	$33ac <pickFile+0x3fc>
    33ac: 92 12        	sta	($12)                   ; 0x2012 <main+0x1a9e>
    33ae: 8a           	txa
    33af: 91 12        	sta	($12),y                 ; 0x2012 <main+0x1a9e>
    33b1: b2 24        	lda	($24)                   ; 0x2024 <main+0x1ab0>
    33b3: 85 12        	sta	$12                     ; 0x2012 <main+0x1a9e>
    33b5: b1 24        	lda	($24),y                 ; 0x2024 <main+0x1ab0>
    33b7: 85 13        	sta	$13                     ; 0x2013 <main+0x1a9f>
    33b9: b2 24        	lda	($24)                   ; 0x2024 <main+0x1ab0>
    33bb: 85 14        	sta	$14                     ; 0x2014 <main+0x1aa0>
    33bd: b1 24        	lda	($24),y                 ; 0x2024 <main+0x1ab0>
    33bf: 85 15        	sta	$15                     ; 0x2015 <main+0x1aa1>
    33c1: b2 24        	lda	($24)                   ; 0x2024 <main+0x1ab0>
    33c3: 85 16        	sta	$16                     ; 0x2016 <main+0x1aa2>
    33c5: b1 24        	lda	($24),y                 ; 0x2024 <main+0x1ab0>
    33c7: 85 18        	sta	$18                     ; 0x2018 <main+0x1aa4>
    33c9: a0 01        	ldy	#$1
    33cb: 18           	clc
    33cc: a5 16        	lda	$16                     ; 0x2016 <main+0x1aa2>
    33ce: 69 28        	adc	#$28
    33d0: 85 17        	sta	$17                     ; 0x2017 <main+0x1aa3>
    33d2: a5 18        	lda	$18                     ; 0x2018 <main+0x1aa4>
    33d4: 69 0d        	adc	#$d
    33d6: aa           	tax
    33d7: b2 12        	lda	($12)                   ; 0x2012 <main+0x1a9e>
    33d9: 85 16        	sta	$16                     ; 0x2016 <main+0x1aa2>
    33db: a5 17        	lda	$17                     ; 0x2017 <main+0x1aa3>
    33dd: 85 12        	sta	$12                     ; 0x2012 <main+0x1a9e>
    33df: b1 14        	lda	($14),y                 ; 0x2014 <main+0x1aa0>
    33e1: 86 13        	stx	$13                     ; 0x2013 <main+0x1a9f>
    33e3: 18           	clc
    33e4: 72 12        	adc	($12)                   ; 0x2012 <main+0x1a9e>
    33e6: aa           	tax
    33e7: a5 16        	lda	$16                     ; 0x2016 <main+0x1aa2>
    33e9: 20 bd 2e     	jsr	$2ebd <textGotoXY>
    33ec: a9 fa        	lda	#$fa
    33ee: 92 10        	sta	($10)                   ; 0x2010 <main+0x1a9c>
    33f0: a9 00        	lda	#$0
    33f2: a0 01        	ldy	#$1
    33f4: 91 10        	sta	($10),y                 ; 0x2010 <main+0x1a9c>
    33f6: a2 ed        	ldx	#$ed
    33f8: 86 12        	stx	$12                     ; 0x2012 <main+0x1a9e>
    33fa: a2 47        	ldx	#$47
    33fc: 86 13        	stx	$13                     ; 0x2013 <main+0x1a9f>
    33fe: 20 54 41     	jsr	$4154 <printf>
    3401: 20 ce 2e     	jsr	$2ece <textSetColor>
    3404: 4c ea 2f     	jmp	$2fea <pickFile+0x3a>
    3407: 18           	clc
    3408: a5 10        	lda	$10                     ; 0x2010 <main+0x1a9c>
    340a: 69 07        	adc	#$7
    340c: 85 12        	sta	$12                     ; 0x2012 <main+0x1a9e>
    340e: a5 11        	lda	$11                     ; 0x2011 <main+0x1a9d>
    3410: 69 00        	adc	#$0
    3412: 85 13        	sta	$13                     ; 0x2013 <main+0x1a9f>
    3414: b2 12        	lda	($12)                   ; 0x2012 <main+0x1a9e>
    3416: 85 20        	sta	$20                     ; 0x2020 <main+0x1aac>
    3418: fa           	plx
    3419: 86 27        	stx	$27                     ; 0x2027 <main+0x1ab3>
    341b: fa           	plx
    341c: 86 26        	stx	$26                     ; 0x2026 <main+0x1ab2>
    341e: fa           	plx
    341f: 86 25        	stx	$25                     ; 0x2025 <main+0x1ab1>
    3421: fa           	plx
    3422: 86 24        	stx	$24                     ; 0x2024 <main+0x1ab0>
    3424: 18           	clc
    3425: a5 10        	lda	$10                     ; 0x2010 <main+0x1a9c>
    3427: 69 08        	adc	#$8
    3429: 85 10        	sta	$10                     ; 0x2010 <main+0x1a9c>
    342b: a5 11        	lda	$11                     ; 0x2011 <main+0x1a9d>
    342d: 69 00        	adc	#$0
    342f: 85 11        	sta	$11                     ; 0x2011 <main+0x1a9d>
    3431: a5 20        	lda	$20                     ; 0x2020 <main+0x1aac>
    3433: 60           	rts

00003434 <exit>:
    3434: 20 19 03     	jsr	$319 <_fini>
    3437: 80 fe        	bra	$3437 <exit+0x3>

00003439 <_ZN12_GLOBAL__N_15printEPKcP6Status>:
    3439: a6 14        	ldx	$14                     ; 0x2014 <main+0x1aa0>
    343b: 86 5a        	stx	$5a                     ; 0x205a <main+0x1ae6>
    343d: a6 15        	ldx	$15                     ; 0x2015 <main+0x1aa1>
    343f: 86 5b        	stx	$5b                     ; 0x205b <main+0x1ae7>
    3441: a6 12        	ldx	$12                     ; 0x2012 <main+0x1a9e>
    3443: 86 14        	stx	$14                     ; 0x2014 <main+0x1aa0>
    3445: a6 13        	ldx	$13                     ; 0x2013 <main+0x1a9f>
    3447: 86 15        	stx	$15                     ; 0x2015 <main+0x1aa1>
    3449: e6 14        	inc	$14                     ; 0x2014 <main+0x1aa0>
    344b: d0 02        	bne	$344f <_ZN12_GLOBAL__N_15printEPKcP6Status+0x16>
    344d: e6 15        	inc	$15                     ; 0x2015 <main+0x1aa1>
    344f: a0 01        	ldy	#$1
    3451: b1 12        	lda	($12),y                 ; 0x2012 <main+0x1a9e>
    3453: c9 25        	cmp	#$25
    3455: d0 23        	bne	$347a <_ZN12_GLOBAL__N_15printEPKcP6Status+0x41>
    3457: a9 25        	lda	#$25
    3459: a6 12        	ldx	$12                     ; 0x2012 <main+0x1a9e>
    345b: 86 5c        	stx	$5c                     ; 0x205c <main+0x1ae8>
    345d: a6 13        	ldx	$13                     ; 0x2013 <main+0x1a9f>
    345f: 86 5d        	stx	$5d                     ; 0x205d <main+0x1ae9>
    3461: a6 5a        	ldx	$5a                     ; 0x205a <main+0x1ae6>
    3463: 86 12        	stx	$12                     ; 0x2012 <main+0x1a9e>
    3465: a6 5b        	ldx	$5b                     ; 0x205b <main+0x1ae7>
    3467: 86 13        	stx	$13                     ; 0x2013 <main+0x1a9f>
    3469: 20 6d 3f     	jsr	$3f6d <_ZN12_GLOBAL__N_13putEcP6Status>
    346c: a5 5c        	lda	$5c                     ; 0x205c <main+0x1ae8>
    346e: 18           	clc
    346f: 69 02        	adc	#$2
    3471: 85 12        	sta	$12                     ; 0x2012 <main+0x1a9e>
    3473: a5 5d        	lda	$5d                     ; 0x205d <main+0x1ae9>
    3475: 69 00        	adc	#$0
    3477: 85 13        	sta	$13                     ; 0x2013 <main+0x1a9f>
    3479: 60           	rts
    347a: 18           	clc
    347b: a5 5a        	lda	$5a                     ; 0x205a <main+0x1ae6>
    347d: 69 0b        	adc	#$b
    347f: 85 18        	sta	$18                     ; 0x2018 <main+0x1aa4>
    3481: a5 5b        	lda	$5b                     ; 0x205b <main+0x1ae7>
    3483: 69 00        	adc	#$0
    3485: 85 19        	sta	$19                     ; 0x2019 <main+0x1aa5>
    3487: a2 10        	ldx	#$10
    3489: 86 83        	stx	$83                     ; 0x2083 <main+0x1b0f>
    348b: a9 00        	lda	#$0
    348d: a0 0b        	ldy	#$b
    348f: 91 5a        	sta	($5a),y                 ; 0x205a <main+0x1ae6>
    3491: 18           	clc
    3492: a5 5a        	lda	$5a                     ; 0x205a <main+0x1ae6>
    3494: 69 0d        	adc	#$d
    3496: aa           	tax
    3497: a5 5b        	lda	$5b                     ; 0x205b <main+0x1ae7>
    3499: 69 00        	adc	#$0
    349b: 86 16        	stx	$16                     ; 0x2016 <main+0x1aa2>
    349d: a0 0d        	ldy	#$d
    349f: 85 17        	sta	$17                     ; 0x2017 <main+0x1aa3>
    34a1: a9 ff        	lda	#$ff
    34a3: 91 5a        	sta	($5a),y                 ; 0x205a <main+0x1ae6>
    34a5: a0 01        	ldy	#$1
    34a7: 91 16        	sta	($16),y                 ; 0x2016 <main+0x1aa2>
    34a9: a2 00        	ldx	#$0
    34ab: 86 86        	stx	$86                     ; 0x2086 <main+0x1b12>
    34ad: a6 5a        	ldx	$5a                     ; 0x205a <main+0x1ae6>
    34af: 86 16        	stx	$16                     ; 0x2016 <main+0x1aa2>
    34b1: a6 5b        	ldx	$5b                     ; 0x205b <main+0x1ae7>
    34b3: 86 17        	stx	$17                     ; 0x2017 <main+0x1aa3>
    34b5: e6 16        	inc	$16                     ; 0x2016 <main+0x1aa2>
    34b7: d0 02        	bne	$34bb <_ZN12_GLOBAL__N_15printEPKcP6Status+0x82>
    34b9: e6 17        	inc	$17                     ; 0x2017 <main+0x1aa3>
    34bb: a9 00        	lda	#$0
    34bd: 91 5a        	sta	($5a),y                 ; 0x205a <main+0x1ae6>
    34bf: 91 16        	sta	($16),y                 ; 0x2016 <main+0x1aa2>
    34c1: 92 5a        	sta	($5a)                   ; 0x205a <main+0x1ae6>
    34c3: 91 18        	sta	($18),y                 ; 0x2018 <main+0x1aa4>
    34c5: 64 60        	stz	$60                     ; 0x2060 <main+0x1aec>
    34c7: 80 33        	bra	$34fc <_ZN12_GLOBAL__N_15printEPKcP6Status+0xc3>
    34c9: a2 02        	ldx	#$2
    34cb: 80 15        	bra	$34e2 <_ZN12_GLOBAL__N_15printEPKcP6Status+0xa9>
    34cd: e0 20        	cpx	#$20
    34cf: f0 15        	beq	$34e6 <_ZN12_GLOBAL__N_15printEPKcP6Status+0xad>
    34d1: 86 19        	stx	$19                     ; 0x2019 <main+0x1aa5>
    34d3: e0 23        	cpx	#$23
    34d5: f0 03        	beq	$34da <_ZN12_GLOBAL__N_15printEPKcP6Status+0xa1>
    34d7: 4c 49 35     	jmp	$3549 <_ZN12_GLOBAL__N_15printEPKcP6Status+0x110>
    34da: a5 60        	lda	$60                     ; 0x2060 <main+0x1aec>
    34dc: a2 04        	ldx	#$4
    34de: 80 02        	bra	$34e2 <_ZN12_GLOBAL__N_15printEPKcP6Status+0xa9>
    34e0: a2 10        	ldx	#$10
    34e2: 86 18        	stx	$18                     ; 0x2018 <main+0x1aa4>
    34e4: 80 06        	bra	$34ec <_ZN12_GLOBAL__N_15printEPKcP6Status+0xb3>
    34e6: a2 08        	ldx	#$8
    34e8: 86 18        	stx	$18                     ; 0x2018 <main+0x1aa4>
    34ea: a5 60        	lda	$60                     ; 0x2060 <main+0x1aec>
    34ec: 05 18        	ora	$18                     ; 0x2018 <main+0x1aa4>
    34ee: 85 60        	sta	$60                     ; 0x2060 <main+0x1aec>
    34f0: 91 5a        	sta	($5a),y                 ; 0x205a <main+0x1ae6>
    34f2: a9 00        	lda	#$0
    34f4: 91 16        	sta	($16),y                 ; 0x2016 <main+0x1aa2>
    34f6: e6 14        	inc	$14                     ; 0x2014 <main+0x1aa0>
    34f8: d0 02        	bne	$34fc <_ZN12_GLOBAL__N_15printEPKcP6Status+0xc3>
    34fa: e6 15        	inc	$15                     ; 0x2015 <main+0x1aa1>
    34fc: b2 14        	lda	($14)                   ; 0x2014 <main+0x1aa0>
    34fe: aa           	tax
    34ff: 18           	clc
    3500: 69 d6        	adc	#$d6
    3502: c9 07        	cmp	#$7
    3504: b0 c7        	bcs	$34cd <_ZN12_GLOBAL__N_15printEPKcP6Status+0x94>
    3506: 86 19        	stx	$19                     ; 0x2019 <main+0x1aa5>
    3508: 0a           	asl
    3509: aa           	tax
    350a: a9 01        	lda	#$1
    350c: 85 18        	sta	$18                     ; 0x2018 <main+0x1aa4>
    350e: a5 60        	lda	$60                     ; 0x2060 <main+0x1aec>
    3510: 7c 78 46     	jmp	($4678,x)               ; 0x4678 <__set_v+0x17>
    3513: a0 11        	ldy	#$11
    3515: a5 5a        	lda	$5a                     ; 0x205a <main+0x1ae6>
    3517: 18           	clc
    3518: 69 11        	adc	#$11
    351a: 85 16        	sta	$16                     ; 0x2016 <main+0x1aa2>
    351c: a5 5b        	lda	$5b                     ; 0x205b <main+0x1ae7>
    351e: 69 00        	adc	#$0
    3520: 85 17        	sta	$17                     ; 0x2017 <main+0x1aa3>
    3522: b1 5a        	lda	($5a),y                 ; 0x205a <main+0x1ae6>
    3524: 85 18        	sta	$18                     ; 0x2018 <main+0x1aa4>
    3526: 18           	clc
    3527: 69 02        	adc	#$2
    3529: 91 5a        	sta	($5a),y                 ; 0x205a <main+0x1ae6>
    352b: a0 01        	ldy	#$1
    352d: b1 16        	lda	($16),y                 ; 0x2016 <main+0x1aa2>
    352f: 85 19        	sta	$19                     ; 0x2019 <main+0x1aa5>
    3531: 69 00        	adc	#$0
    3533: 91 16        	sta	($16),y                 ; 0x2016 <main+0x1aa2>
    3535: b2 18        	lda	($18)                   ; 0x2018 <main+0x1aa4>
    3537: 85 17        	sta	$17                     ; 0x2017 <main+0x1aa3>
    3539: b1 18        	lda	($18),y                 ; 0x2018 <main+0x1aa4>
    353b: 85 16        	sta	$16                     ; 0x2016 <main+0x1aa2>
    353d: 10 03        	bpl	$3542 <_ZN12_GLOBAL__N_15printEPKcP6Status+0x109>
    353f: 4c d0 35     	jmp	$35d0 <_ZN12_GLOBAL__N_15printEPKcP6Status+0x197>
    3542: a6 17        	ldx	$17                     ; 0x2017 <main+0x1aa3>
    3544: 85 1a        	sta	$1a                     ; 0x201a <main+0x1aa6>
    3546: 4c fa 35     	jmp	$35fa <_ZN12_GLOBAL__N_15printEPKcP6Status+0x1c1>
    3549: 18           	clc
    354a: a5 19        	lda	$19                     ; 0x2019 <main+0x1aa5>
    354c: 69 d0        	adc	#$d0
    354e: c9 0a        	cmp	#$a
    3550: 90 03        	bcc	$3555 <_ZN12_GLOBAL__N_15printEPKcP6Status+0x11c>
    3552: 4c ab 35     	jmp	$35ab <_ZN12_GLOBAL__N_15printEPKcP6Status+0x172>
    3555: a6 19        	ldx	$19                     ; 0x2019 <main+0x1aa5>
    3557: 86 16        	stx	$16                     ; 0x2016 <main+0x1aa2>
    3559: 64 18        	stz	$18                     ; 0x2018 <main+0x1aa4>
    355b: a0 01        	ldy	#$1
    355d: 64 17        	stz	$17                     ; 0x2017 <main+0x1aa3>
    355f: 64 19        	stz	$19                     ; 0x2019 <main+0x1aa5>
    3561: 06 18        	asl	$18                     ; 0x2018 <main+0x1aa4>
    3563: 26 19        	rol	$19                     ; 0x2019 <main+0x1aa5>
    3565: a5 18        	lda	$18                     ; 0x2018 <main+0x1aa4>
    3567: 0a           	asl
    3568: aa           	tax
    3569: a5 19        	lda	$19                     ; 0x2019 <main+0x1aa5>
    356b: 2a           	rol
    356c: 86 1a        	stx	$1a                     ; 0x201a <main+0x1aa6>
    356e: 06 1a        	asl	$1a                     ; 0x201a <main+0x1aa6>
    3570: 2a           	rol
    3571: aa           	tax
    3572: a5 1a        	lda	$1a                     ; 0x201a <main+0x1aa6>
    3574: 18           	clc
    3575: 65 18        	adc	$18                     ; 0x2018 <main+0x1aa4>
    3577: 85 18        	sta	$18                     ; 0x2018 <main+0x1aa4>
    3579: 8a           	txa
    357a: 65 19        	adc	$19                     ; 0x2019 <main+0x1aa5>
    357c: 85 19        	sta	$19                     ; 0x2019 <main+0x1aa5>
    357e: a5 18        	lda	$18                     ; 0x2018 <main+0x1aa4>
    3580: 18           	clc
    3581: 65 16        	adc	$16                     ; 0x2016 <main+0x1aa2>
    3583: 85 16        	sta	$16                     ; 0x2016 <main+0x1aa2>
    3585: a5 19        	lda	$19                     ; 0x2019 <main+0x1aa5>
    3587: 65 17        	adc	$17                     ; 0x2017 <main+0x1aa3>
    3589: aa           	tax
    358a: 18           	clc
    358b: a5 16        	lda	$16                     ; 0x2016 <main+0x1aa2>
    358d: 69 d0        	adc	#$d0
    358f: 85 18        	sta	$18                     ; 0x2018 <main+0x1aa4>
    3591: 8a           	txa
    3592: 69 ff        	adc	#$ff
    3594: 85 19        	sta	$19                     ; 0x2019 <main+0x1aa5>
    3596: b1 14        	lda	($14),y                 ; 0x2014 <main+0x1aa0>
    3598: 85 16        	sta	$16                     ; 0x2016 <main+0x1aa2>
    359a: 18           	clc
    359b: 69 d0        	adc	#$d0
    359d: e6 14        	inc	$14                     ; 0x2014 <main+0x1aa0>
    359f: d0 02        	bne	$35a3 <_ZN12_GLOBAL__N_15printEPKcP6Status+0x16a>
    35a1: e6 15        	inc	$15                     ; 0x2015 <main+0x1aa1>
    35a3: c9 0a        	cmp	#$a
    35a5: 64 17        	stz	$17                     ; 0x2017 <main+0x1aa3>
    35a7: 90 b8        	bcc	$3561 <_ZN12_GLOBAL__N_15printEPKcP6Status+0x128>
    35a9: 80 04        	bra	$35af <_ZN12_GLOBAL__N_15printEPKcP6Status+0x176>
    35ab: 64 18        	stz	$18                     ; 0x2018 <main+0x1aa4>
    35ad: 64 19        	stz	$19                     ; 0x2019 <main+0x1aa5>
    35af: a5 5a        	lda	$5a                     ; 0x205a <main+0x1ae6>
    35b1: 18           	clc
    35b2: 69 0b        	adc	#$b
    35b4: 85 16        	sta	$16                     ; 0x2016 <main+0x1aa2>
    35b6: a5 5b        	lda	$5b                     ; 0x205b <main+0x1ae7>
    35b8: 69 00        	adc	#$0
    35ba: 85 17        	sta	$17                     ; 0x2017 <main+0x1aa3>
    35bc: a0 0b        	ldy	#$b
    35be: a5 18        	lda	$18                     ; 0x2018 <main+0x1aa4>
    35c0: 91 5a        	sta	($5a),y                 ; 0x205a <main+0x1ae6>
    35c2: a6 18        	ldx	$18                     ; 0x2018 <main+0x1aa4>
    35c4: a0 01        	ldy	#$1
    35c6: a5 19        	lda	$19                     ; 0x2019 <main+0x1aa5>
    35c8: 91 16        	sta	($16),y                 ; 0x2016 <main+0x1aa2>
    35ca: 86 16        	stx	$16                     ; 0x2016 <main+0x1aa2>
    35cc: 85 17        	sta	$17                     ; 0x2017 <main+0x1aa3>
    35ce: 80 4c        	bra	$361c <_ZN12_GLOBAL__N_15printEPKcP6Status+0x1e3>
    35d0: a5 60        	lda	$60                     ; 0x2060 <main+0x1aec>
    35d2: 09 01        	ora	#$1
    35d4: 85 1b        	sta	$1b                     ; 0x201b <main+0x1aa7>
    35d6: a6 5a        	ldx	$5a                     ; 0x205a <main+0x1ae6>
    35d8: 86 18        	stx	$18                     ; 0x2018 <main+0x1aa4>
    35da: a6 5b        	ldx	$5b                     ; 0x205b <main+0x1ae7>
    35dc: 86 19        	stx	$19                     ; 0x2019 <main+0x1aa5>
    35de: 38           	sec
    35df: a9 00        	lda	#$0
    35e1: e5 17        	sbc	$17                     ; 0x2017 <main+0x1aa3>
    35e3: aa           	tax
    35e4: a9 00        	lda	#$0
    35e6: e5 16        	sbc	$16                     ; 0x2016 <main+0x1aa2>
    35e8: 85 1a        	sta	$1a                     ; 0x201a <main+0x1aa6>
    35ea: e6 18        	inc	$18                     ; 0x2018 <main+0x1aa4>
    35ec: d0 02        	bne	$35f0 <_ZN12_GLOBAL__N_15printEPKcP6Status+0x1b7>
    35ee: e6 19        	inc	$19                     ; 0x2019 <main+0x1aa5>
    35f0: a5 1b        	lda	$1b                     ; 0x201b <main+0x1aa7>
    35f2: 85 60        	sta	$60                     ; 0x2060 <main+0x1aec>
    35f4: 91 5a        	sta	($5a),y                 ; 0x205a <main+0x1ae6>
    35f6: a9 00        	lda	#$0
    35f8: 91 18        	sta	($18),y                 ; 0x2018 <main+0x1aa4>
    35fa: a5 5a        	lda	$5a                     ; 0x205a <main+0x1ae6>
    35fc: 18           	clc
    35fd: 69 0b        	adc	#$b
    35ff: 85 16        	sta	$16                     ; 0x2016 <main+0x1aa2>
    3601: a5 5b        	lda	$5b                     ; 0x205b <main+0x1ae7>
    3603: 69 00        	adc	#$0
    3605: 85 17        	sta	$17                     ; 0x2017 <main+0x1aa3>
    3607: a0 0b        	ldy	#$b
    3609: 8a           	txa
    360a: 91 5a        	sta	($5a),y                 ; 0x205a <main+0x1ae6>
    360c: a5 1a        	lda	$1a                     ; 0x201a <main+0x1aa6>
    360e: a0 01        	ldy	#$1
    3610: 91 16        	sta	($16),y                 ; 0x2016 <main+0x1aa2>
    3612: 86 16        	stx	$16                     ; 0x2016 <main+0x1aa2>
    3614: 85 17        	sta	$17                     ; 0x2017 <main+0x1aa3>
    3616: e6 14        	inc	$14                     ; 0x2014 <main+0x1aa0>
    3618: d0 02        	bne	$361c <_ZN12_GLOBAL__N_15printEPKcP6Status+0x1e3>
    361a: e6 15        	inc	$15                     ; 0x2015 <main+0x1aa1>
    361c: b2 14        	lda	($14)                   ; 0x2014 <main+0x1aa0>
    361e: a2 ff        	ldx	#$ff
    3620: c9 2e        	cmp	#$2e
    3622: f0 03        	beq	$3627 <_ZN12_GLOBAL__N_15printEPKcP6Status+0x1ee>
    3624: 4c a6 36     	jmp	$36a6 <_ZN12_GLOBAL__N_15printEPKcP6Status+0x26d>
    3627: a6 14        	ldx	$14                     ; 0x2014 <main+0x1aa0>
    3629: 86 18        	stx	$18                     ; 0x2018 <main+0x1aa4>
    362b: a6 15        	ldx	$15                     ; 0x2015 <main+0x1aa1>
    362d: 86 19        	stx	$19                     ; 0x2019 <main+0x1aa5>
    362f: e6 18        	inc	$18                     ; 0x2018 <main+0x1aa4>
    3631: d0 02        	bne	$3635 <_ZN12_GLOBAL__N_15printEPKcP6Status+0x1fc>
    3633: e6 19        	inc	$19                     ; 0x2019 <main+0x1aa5>
    3635: b1 14        	lda	($14),y                 ; 0x2014 <main+0x1aa0>
    3637: c9 2a        	cmp	#$2a
    3639: f0 03        	beq	$363e <_ZN12_GLOBAL__N_15printEPKcP6Status+0x205>
    363b: 4c ad 36     	jmp	$36ad <_ZN12_GLOBAL__N_15printEPKcP6Status+0x274>
    363e: a0 11        	ldy	#$11
    3640: b1 5a        	lda	($5a),y                 ; 0x205a <main+0x1ae6>
    3642: 85 18        	sta	$18                     ; 0x2018 <main+0x1aa4>
    3644: 18           	clc
    3645: 69 02        	adc	#$2
    3647: a2 01        	ldx	#$1
    3649: b0 02        	bcs	$364d <_ZN12_GLOBAL__N_15printEPKcP6Status+0x214>
    364b: a2 00        	ldx	#$0
    364d: 86 1d        	stx	$1d                     ; 0x201d <main+0x1aa9>
    364f: 91 5a        	sta	($5a),y                 ; 0x205a <main+0x1ae6>
    3651: 18           	clc
    3652: a5 5a        	lda	$5a                     ; 0x205a <main+0x1ae6>
    3654: 69 11        	adc	#$11
    3656: 85 1a        	sta	$1a                     ; 0x201a <main+0x1aa6>
    3658: a5 5b        	lda	$5b                     ; 0x205b <main+0x1ae7>
    365a: 69 00        	adc	#$0
    365c: 85 1b        	sta	$1b                     ; 0x201b <main+0x1aa7>
    365e: a0 01        	ldy	#$1
    3660: b1 1a        	lda	($1a),y                 ; 0x201a <main+0x1aa6>
    3662: 85 19        	sta	$19                     ; 0x2019 <main+0x1aa5>
    3664: a6 1d        	ldx	$1d                     ; 0x201d <main+0x1aa9>
    3666: e0 01        	cpx	#$1
    3668: 69 00        	adc	#$0
    366a: 91 1a        	sta	($1a),y                 ; 0x201a <main+0x1aa6>
    366c: b2 18        	lda	($18)                   ; 0x2018 <main+0x1aa4>
    366e: 85 1b        	sta	$1b                     ; 0x201b <main+0x1aa7>
    3670: 18           	clc
    3671: a5 5a        	lda	$5a                     ; 0x205a <main+0x1ae6>
    3673: 69 0d        	adc	#$d
    3675: 85 1a        	sta	$1a                     ; 0x201a <main+0x1aa6>
    3677: a5 5b        	lda	$5b                     ; 0x205b <main+0x1ae7>
    3679: 69 00        	adc	#$0
    367b: aa           	tax
    367c: b1 18        	lda	($18),y                 ; 0x2018 <main+0x1aa4>
    367e: 85 1c        	sta	$1c                     ; 0x201c <main+0x1aa8>
    3680: a4 1a        	ldy	$1a                     ; 0x201a <main+0x1aa6>
    3682: 84 18        	sty	$18                     ; 0x2018 <main+0x1aa4>
    3684: 86 19        	stx	$19                     ; 0x2019 <main+0x1aa5>
    3686: a5 1b        	lda	$1b                     ; 0x201b <main+0x1aa7>
    3688: 85 1a        	sta	$1a                     ; 0x201a <main+0x1aa6>
    368a: a0 0d        	ldy	#$d
    368c: 91 5a        	sta	($5a),y                 ; 0x205a <main+0x1ae6>
    368e: a5 1c        	lda	$1c                     ; 0x201c <main+0x1aa8>
    3690: 85 1e        	sta	$1e                     ; 0x201e <main+0x1aaa>
    3692: a0 01        	ldy	#$1
    3694: 91 18        	sta	($18),y                 ; 0x2018 <main+0x1aa4>
    3696: a5 14        	lda	$14                     ; 0x2014 <main+0x1aa0>
    3698: 18           	clc
    3699: 69 02        	adc	#$2
    369b: 85 18        	sta	$18                     ; 0x2018 <main+0x1aa4>
    369d: a5 15        	lda	$15                     ; 0x2015 <main+0x1aa1>
    369f: 69 00        	adc	#$0
    36a1: 85 19        	sta	$19                     ; 0x2019 <main+0x1aa5>
    36a3: 4c 73 37     	jmp	$3773 <_ZN12_GLOBAL__N_15printEPKcP6Status+0x33a>
    36a6: 86 1a        	stx	$1a                     ; 0x201a <main+0x1aa6>
    36a8: 86 1b        	stx	$1b                     ; 0x201b <main+0x1aa7>
    36aa: 4c 9b 37     	jmp	$379b <_ZN12_GLOBAL__N_15printEPKcP6Status+0x362>
    36ad: 18           	clc
    36ae: 85 1c        	sta	$1c                     ; 0x201c <main+0x1aa8>
    36b0: 69 d0        	adc	#$d0
    36b2: c9 0a        	cmp	#$a
    36b4: 90 03        	bcc	$36b9 <_ZN12_GLOBAL__N_15printEPKcP6Status+0x280>
    36b6: 4c 58 37     	jmp	$3758 <_ZN12_GLOBAL__N_15printEPKcP6Status+0x31f>
    36b9: 64 1b        	stz	$1b                     ; 0x201b <main+0x1aa7>
    36bb: 64 1f        	stz	$1f                     ; 0x201f <main+0x1aab>
    36bd: 64 1e        	stz	$1e                     ; 0x201e <main+0x1aaa>
    36bf: a2 01        	ldx	#$1
    36c1: 64 1a        	stz	$1a                     ; 0x201a <main+0x1aa6>
    36c3: 5a           	phy
    36c4: a4 1a        	ldy	$1a                     ; 0x201a <main+0x1aa6>
    36c6: 84 18        	sty	$18                     ; 0x2018 <main+0x1aa4>
    36c8: 86 19        	stx	$19                     ; 0x2019 <main+0x1aa5>
    36ca: a5 1f        	lda	$1f                     ; 0x201f <main+0x1aab>
    36cc: 0a           	asl
    36cd: 85 1d        	sta	$1d                     ; 0x201d <main+0x1aa9>
    36cf: 26 1e        	rol	$1e                     ; 0x201e <main+0x1aaa>
    36d1: 0a           	asl
    36d2: a4 1e        	ldy	$1e                     ; 0x201e <main+0x1aaa>
    36d4: 84 1f        	sty	$1f                     ; 0x201f <main+0x1aab>
    36d6: 7a           	ply
    36d7: 26 1f        	rol	$1f                     ; 0x201f <main+0x1aab>
    36d9: 0a           	asl
    36da: 26 1f        	rol	$1f                     ; 0x201f <main+0x1aab>
    36dc: 18           	clc
    36dd: 65 1d        	adc	$1d                     ; 0x201d <main+0x1aa9>
    36df: 85 22        	sta	$22                     ; 0x2022 <main+0x1aae>
    36e1: a5 1f        	lda	$1f                     ; 0x201f <main+0x1aab>
    36e3: 65 1e        	adc	$1e                     ; 0x201e <main+0x1aaa>
    36e5: 85 1d        	sta	$1d                     ; 0x201d <main+0x1aa9>
    36e7: 18           	clc
    36e8: a5 22        	lda	$22                     ; 0x2022 <main+0x1aae>
    36ea: 65 1c        	adc	$1c                     ; 0x201c <main+0x1aa8>
    36ec: 85 1c        	sta	$1c                     ; 0x201c <main+0x1aa8>
    36ee: a5 1d        	lda	$1d                     ; 0x201d <main+0x1aa9>
    36f0: 65 1b        	adc	$1b                     ; 0x201b <main+0x1aa7>
    36f2: 85 1b        	sta	$1b                     ; 0x201b <main+0x1aa7>
    36f4: 18           	clc
    36f5: a5 1c        	lda	$1c                     ; 0x201c <main+0x1aa8>
    36f7: 69 d0        	adc	#$d0
    36f9: 85 1c        	sta	$1c                     ; 0x201c <main+0x1aa8>
    36fb: a5 1b        	lda	$1b                     ; 0x201b <main+0x1aa7>
    36fd: 69 ff        	adc	#$ff
    36ff: 85 1e        	sta	$1e                     ; 0x201e <main+0x1aaa>
    3701: a5 1c        	lda	$1c                     ; 0x201c <main+0x1aa8>
    3703: 85 1f        	sta	$1f                     ; 0x201f <main+0x1aab>
    3705: e8           	inx
    3706: d0 02        	bne	$370a <_ZN12_GLOBAL__N_15printEPKcP6Status+0x2d1>
    3708: e6 1a        	inc	$1a                     ; 0x201a <main+0x1aa6>
    370a: a5 14        	lda	$14                     ; 0x2014 <main+0x1aa0>
    370c: 18           	clc
    370d: 65 19        	adc	$19                     ; 0x2019 <main+0x1aa5>
    370f: 85 1c        	sta	$1c                     ; 0x201c <main+0x1aa8>
    3711: a5 15        	lda	$15                     ; 0x2015 <main+0x1aa1>
    3713: 65 18        	adc	$18                     ; 0x2018 <main+0x1aa4>
    3715: 85 1d        	sta	$1d                     ; 0x201d <main+0x1aa9>
    3717: b1 1c        	lda	($1c),y                 ; 0x201c <main+0x1aa8>
    3719: 85 1c        	sta	$1c                     ; 0x201c <main+0x1aa8>
    371b: 18           	clc
    371c: 69 d0        	adc	#$d0
    371e: c9 0a        	cmp	#$a
    3720: 64 1b        	stz	$1b                     ; 0x201b <main+0x1aa7>
    3722: b0 03        	bcs	$3727 <_ZN12_GLOBAL__N_15printEPKcP6Status+0x2ee>
    3724: 4c c3 36     	jmp	$36c3 <_ZN12_GLOBAL__N_15printEPKcP6Status+0x28a>
    3727: a5 14        	lda	$14                     ; 0x2014 <main+0x1aa0>
    3729: 18           	clc
    372a: 65 19        	adc	$19                     ; 0x2019 <main+0x1aa5>
    372c: aa           	tax
    372d: a5 15        	lda	$15                     ; 0x2015 <main+0x1aa1>
    372f: 65 18        	adc	$18                     ; 0x2018 <main+0x1aa4>
    3731: 86 18        	stx	$18                     ; 0x2018 <main+0x1aa4>
    3733: 85 19        	sta	$19                     ; 0x2019 <main+0x1aa5>
    3735: a5 5a        	lda	$5a                     ; 0x205a <main+0x1ae6>
    3737: 18           	clc
    3738: 69 0d        	adc	#$d
    373a: 85 14        	sta	$14                     ; 0x2014 <main+0x1aa0>
    373c: a5 5b        	lda	$5b                     ; 0x205b <main+0x1ae7>
    373e: 69 00        	adc	#$0
    3740: a0 0d        	ldy	#$d
    3742: 85 15        	sta	$15                     ; 0x2015 <main+0x1aa1>
    3744: a5 1f        	lda	$1f                     ; 0x201f <main+0x1aab>
    3746: 85 1a        	sta	$1a                     ; 0x201a <main+0x1aa6>
    3748: 91 5a        	sta	($5a),y                 ; 0x205a <main+0x1ae6>
    374a: a0 01        	ldy	#$1
    374c: a5 1e        	lda	$1e                     ; 0x201e <main+0x1aaa>
    374e: 91 14        	sta	($14),y                 ; 0x2014 <main+0x1aa0>
    3750: e6 18        	inc	$18                     ; 0x2018 <main+0x1aa4>
    3752: d0 1f        	bne	$3773 <_ZN12_GLOBAL__N_15printEPKcP6Status+0x33a>
    3754: e6 19        	inc	$19                     ; 0x2019 <main+0x1aa5>
    3756: 80 1b        	bra	$3773 <_ZN12_GLOBAL__N_15printEPKcP6Status+0x33a>
    3758: a0 0d        	ldy	#$d
    375a: a5 5a        	lda	$5a                     ; 0x205a <main+0x1ae6>
    375c: 18           	clc
    375d: 69 0d        	adc	#$d
    375f: 85 14        	sta	$14                     ; 0x2014 <main+0x1aa0>
    3761: a5 5b        	lda	$5b                     ; 0x205b <main+0x1ae7>
    3763: 69 00        	adc	#$0
    3765: 85 15        	sta	$15                     ; 0x2015 <main+0x1aa1>
    3767: a9 00        	lda	#$0
    3769: 91 5a        	sta	($5a),y                 ; 0x205a <main+0x1ae6>
    376b: a0 01        	ldy	#$1
    376d: 64 1a        	stz	$1a                     ; 0x201a <main+0x1aa6>
    376f: 91 14        	sta	($14),y                 ; 0x2014 <main+0x1aa0>
    3771: 64 1e        	stz	$1e                     ; 0x201e <main+0x1aaa>
    3773: a5 60        	lda	$60                     ; 0x2060 <main+0x1aec>
    3775: 29 ef        	and	#$ef
    3777: a6 5a        	ldx	$5a                     ; 0x205a <main+0x1ae6>
    3779: 86 14        	stx	$14                     ; 0x2014 <main+0x1aa0>
    377b: a6 5b        	ldx	$5b                     ; 0x205b <main+0x1ae7>
    377d: 86 15        	stx	$15                     ; 0x2015 <main+0x1aa1>
    377f: e6 14        	inc	$14                     ; 0x2014 <main+0x1aa0>
    3781: d0 02        	bne	$3785 <_ZN12_GLOBAL__N_15printEPKcP6Status+0x34c>
    3783: e6 15        	inc	$15                     ; 0x2015 <main+0x1aa1>
    3785: 85 60        	sta	$60                     ; 0x2060 <main+0x1aec>
    3787: 91 5a        	sta	($5a),y                 ; 0x205a <main+0x1ae6>
    3789: a9 00        	lda	#$0
    378b: 91 14        	sta	($14),y                 ; 0x2014 <main+0x1aa0>
    378d: b2 18        	lda	($18)                   ; 0x2018 <main+0x1aa4>
    378f: a6 1e        	ldx	$1e                     ; 0x201e <main+0x1aaa>
    3791: 86 1b        	stx	$1b                     ; 0x201b <main+0x1aa7>
    3793: a6 18        	ldx	$18                     ; 0x2018 <main+0x1aa4>
    3795: 86 14        	stx	$14                     ; 0x2014 <main+0x1aa0>
    3797: a6 19        	ldx	$19                     ; 0x2019 <main+0x1aa5>
    3799: 86 15        	stx	$15                     ; 0x2015 <main+0x1aa1>
    379b: a6 14        	ldx	$14                     ; 0x2014 <main+0x1aa0>
    379d: 86 18        	stx	$18                     ; 0x2018 <main+0x1aa4>
    379f: a6 15        	ldx	$15                     ; 0x2015 <main+0x1aa1>
    37a1: 86 19        	stx	$19                     ; 0x2019 <main+0x1aa5>
    37a3: e6 18        	inc	$18                     ; 0x2018 <main+0x1aa4>
    37a5: d0 02        	bne	$37a9 <_ZN12_GLOBAL__N_15printEPKcP6Status+0x370>
    37a7: e6 19        	inc	$19                     ; 0x2019 <main+0x1aa5>
    37a9: 38           	sec
    37aa: aa           	tax
    37ab: e9 6c        	sbc	#$6c
    37ad: 50 02        	bvc	$37b1 <_ZN12_GLOBAL__N_15printEPKcP6Status+0x378>
    37af: 49 80        	eor	#$80
    37b1: c9 00        	cmp	#$0
    37b3: 10 20        	bpl	$37d5 <_ZN12_GLOBAL__N_15printEPKcP6Status+0x39c>
    37b5: e0 4c        	cpx	#$4c
    37b7: f0 3a        	beq	$37f3 <_ZN12_GLOBAL__N_15printEPKcP6Status+0x3ba>
    37b9: 8a           	txa
    37ba: e0 68        	cpx	#$68
    37bc: d0 03        	bne	$37c1 <_ZN12_GLOBAL__N_15printEPKcP6Status+0x388>
    37be: 4c 85 38     	jmp	$3885 <_ZN12_GLOBAL__N_15printEPKcP6Status+0x44c>
    37c1: a0 08        	ldy	#$8
    37c3: a2 02        	ldx	#$2
    37c5: c9 6a        	cmp	#$6a
    37c7: d0 26        	bne	$37ef <_ZN12_GLOBAL__N_15printEPKcP6Status+0x3b6>
    37c9: a6 18        	ldx	$18                     ; 0x2018 <main+0x1aa4>
    37cb: 86 14        	stx	$14                     ; 0x2014 <main+0x1aa0>
    37cd: a6 19        	ldx	$19                     ; 0x2019 <main+0x1aa5>
    37cf: 86 15        	stx	$15                     ; 0x2015 <main+0x1aa1>
    37d1: a2 08        	ldx	#$8
    37d3: 80 44        	bra	$3819 <_ZN12_GLOBAL__N_15printEPKcP6Status+0x3e0>
    37d5: e0 6c        	cpx	#$6c
    37d7: d0 03        	bne	$37dc <_ZN12_GLOBAL__N_15printEPKcP6Status+0x3a3>
    37d9: 4c 69 38     	jmp	$3869 <_ZN12_GLOBAL__N_15printEPKcP6Status+0x430>
    37dc: 8a           	txa
    37dd: e0 74        	cpx	#$74
    37df: f0 2c        	beq	$380d <_ZN12_GLOBAL__N_15printEPKcP6Status+0x3d4>
    37e1: a2 02        	ldx	#$2
    37e3: c9 7a        	cmp	#$7a
    37e5: d0 08        	bne	$37ef <_ZN12_GLOBAL__N_15printEPKcP6Status+0x3b6>
    37e7: a4 18        	ldy	$18                     ; 0x2018 <main+0x1aa4>
    37e9: 84 14        	sty	$14                     ; 0x2014 <main+0x1aa0>
    37eb: a4 19        	ldy	$19                     ; 0x2019 <main+0x1aa5>
    37ed: 84 15        	sty	$15                     ; 0x2015 <main+0x1aa1>
    37ef: a0 02        	ldy	#$2
    37f1: 80 26        	bra	$3819 <_ZN12_GLOBAL__N_15printEPKcP6Status+0x3e0>
    37f3: a5 60        	lda	$60                     ; 0x2060 <main+0x1aec>
    37f5: 09 40        	ora	#$40
    37f7: a6 5a        	ldx	$5a                     ; 0x205a <main+0x1ae6>
    37f9: 86 14        	stx	$14                     ; 0x2014 <main+0x1aa0>
    37fb: a6 5b        	ldx	$5b                     ; 0x205b <main+0x1ae7>
    37fd: 86 15        	stx	$15                     ; 0x2015 <main+0x1aa1>
    37ff: e6 14        	inc	$14                     ; 0x2014 <main+0x1aa0>
    3801: d0 02        	bne	$3805 <_ZN12_GLOBAL__N_15printEPKcP6Status+0x3cc>
    3803: e6 15        	inc	$15                     ; 0x2015 <main+0x1aa1>
    3805: 85 60        	sta	$60                     ; 0x2060 <main+0x1aec>
    3807: 91 5a        	sta	($5a),y                 ; 0x205a <main+0x1ae6>
    3809: a9 00        	lda	#$0
    380b: 91 14        	sta	($14),y                 ; 0x2014 <main+0x1aa0>
    380d: a6 18        	ldx	$18                     ; 0x2018 <main+0x1aa4>
    380f: 86 14        	stx	$14                     ; 0x2014 <main+0x1aa0>
    3811: a6 19        	ldx	$19                     ; 0x2019 <main+0x1aa5>
    3813: 86 15        	stx	$15                     ; 0x2015 <main+0x1aa1>
    3815: a0 02        	ldy	#$2
    3817: a2 02        	ldx	#$2
    3819: b2 14        	lda	($14)                   ; 0x2014 <main+0x1aa0>
    381b: 5a           	phy
    381c: a4 14        	ldy	$14                     ; 0x2014 <main+0x1aa0>
    381e: 84 18        	sty	$18                     ; 0x2018 <main+0x1aa4>
    3820: a4 15        	ldy	$15                     ; 0x2015 <main+0x1aa1>
    3822: 84 19        	sty	$19                     ; 0x2019 <main+0x1aa5>
    3824: 7a           	ply
    3825: 86 5c        	stx	$5c                     ; 0x205c <main+0x1ae8>
    3827: 5a           	phy
    3828: fa           	plx
    3829: 18           	clc
    382a: a8           	tay
    382b: 69 9d        	adc	#$9d
    382d: c9 16        	cmp	#$16
    382f: 86 61        	stx	$61                     ; 0x2061 <main+0x1aed>
    3831: 90 03        	bcc	$3836 <_ZN12_GLOBAL__N_15printEPKcP6Status+0x3fd>
    3833: 4c a2 38     	jmp	$38a2 <_ZN12_GLOBAL__N_15printEPKcP6Status+0x469>
    3836: 0a           	asl
    3837: aa           	tax
    3838: 7c 86 46     	jmp	($4686,x)               ; 0x4686 <__set_v+0x25>
    383b: a5 1b        	lda	$1b                     ; 0x201b <main+0x1aa7>
    383d: 85 88        	sta	$88                     ; 0x2088 <main+0x1b14>
    383f: a4 1a        	ldy	$1a                     ; 0x201a <main+0x1aa6>
    3841: 84 89        	sty	$89                     ; 0x2089 <main+0x1b15>
    3843: a6 16        	ldx	$16                     ; 0x2016 <main+0x1aa2>
    3845: 86 8b        	stx	$8b                     ; 0x208b <main+0x1b17>
    3847: a6 17        	ldx	$17                     ; 0x2017 <main+0x1aa3>
    3849: 86 8a        	stx	$8a                     ; 0x208a <main+0x1b16>
    384b: a6 18        	ldx	$18                     ; 0x2018 <main+0x1aa4>
    384d: 86 12        	stx	$12                     ; 0x2012 <main+0x1a9e>
    384f: a6 19        	ldx	$19                     ; 0x2019 <main+0x1aa5>
    3851: 86 13        	stx	$13                     ; 0x2013 <main+0x1a9f>
    3853: a6 12        	ldx	$12                     ; 0x2012 <main+0x1a9e>
    3855: 86 84        	stx	$84                     ; 0x2084 <main+0x1b10>
    3857: a6 13        	ldx	$13                     ; 0x2013 <main+0x1a9f>
    3859: 86 85        	stx	$85                     ; 0x2085 <main+0x1b11>
    385b: a9 0a        	lda	#$a
    385d: aa           	tax
    385e: 86 83        	stx	$83                     ; 0x2083 <main+0x1b0f>
    3860: 92 5a        	sta	($5a)                   ; 0x205a <main+0x1ae6>
    3862: a2 00        	ldx	#$0
    3864: 86 8c        	stx	$8c                     ; 0x208c <main+0x1b18>
    3866: 4c c6 3a     	jmp	$3ac6 <_ZN12_GLOBAL__N_15printEPKcP6Status+0x68d>
    3869: b1 14        	lda	($14),y                 ; 0x2014 <main+0x1aa0>
    386b: a2 04        	ldx	#$4
    386d: c9 6c        	cmp	#$6c
    386f: d0 2c        	bne	$389d <_ZN12_GLOBAL__N_15printEPKcP6Status+0x464>
    3871: a5 14        	lda	$14                     ; 0x2014 <main+0x1aa0>
    3873: 18           	clc
    3874: 69 02        	adc	#$2
    3876: 85 14        	sta	$14                     ; 0x2014 <main+0x1aa0>
    3878: a5 15        	lda	$15                     ; 0x2015 <main+0x1aa1>
    387a: 69 00        	adc	#$0
    387c: 85 15        	sta	$15                     ; 0x2015 <main+0x1aa1>
    387e: a2 08        	ldx	#$8
    3880: a0 08        	ldy	#$8
    3882: 4c 19 38     	jmp	$3819 <_ZN12_GLOBAL__N_15printEPKcP6Status+0x3e0>
    3885: b1 14        	lda	($14),y                 ; 0x2014 <main+0x1aa0>
    3887: a2 02        	ldx	#$2
    3889: c9 68        	cmp	#$68
    388b: d0 10        	bne	$389d <_ZN12_GLOBAL__N_15printEPKcP6Status+0x464>
    388d: a5 14        	lda	$14                     ; 0x2014 <main+0x1aa0>
    388f: 18           	clc
    3890: 69 02        	adc	#$2
    3892: 85 14        	sta	$14                     ; 0x2014 <main+0x1aa0>
    3894: a5 15        	lda	$15                     ; 0x2015 <main+0x1aa1>
    3896: 69 00        	adc	#$0
    3898: 85 15        	sta	$15                     ; 0x2015 <main+0x1aa1>
    389a: 4c 19 38     	jmp	$3819 <_ZN12_GLOBAL__N_15printEPKcP6Status+0x3e0>
    389d: 86 5c        	stx	$5c                     ; 0x205c <main+0x1ae8>
    389f: 4c 29 38     	jmp	$3829 <_ZN12_GLOBAL__N_15printEPKcP6Status+0x3f0>
    38a2: c0 58        	cpy	#$58
    38a4: f0 03        	beq	$38a9 <_ZN12_GLOBAL__N_15printEPKcP6Status+0x470>
    38a6: 4c 6c 3f     	jmp	$3f6c <_ZN12_GLOBAL__N_15printEPKcP6Status+0xb33>
    38a9: a5 1b        	lda	$1b                     ; 0x201b <main+0x1aa7>
    38ab: 85 88        	sta	$88                     ; 0x2088 <main+0x1b14>
    38ad: a4 1a        	ldy	$1a                     ; 0x201a <main+0x1aa6>
    38af: 84 89        	sty	$89                     ; 0x2089 <main+0x1b15>
    38b1: a6 16        	ldx	$16                     ; 0x2016 <main+0x1aa2>
    38b3: 86 8b        	stx	$8b                     ; 0x208b <main+0x1b17>
    38b5: a6 17        	ldx	$17                     ; 0x2017 <main+0x1aa3>
    38b7: 86 8a        	stx	$8a                     ; 0x208a <main+0x1b16>
    38b9: a6 18        	ldx	$18                     ; 0x2018 <main+0x1aa4>
    38bb: 86 12        	stx	$12                     ; 0x2012 <main+0x1a9e>
    38bd: a6 19        	ldx	$19                     ; 0x2019 <main+0x1aa5>
    38bf: 86 13        	stx	$13                     ; 0x2013 <main+0x1a9f>
    38c1: a6 12        	ldx	$12                     ; 0x2012 <main+0x1a9e>
    38c3: 86 84        	stx	$84                     ; 0x2084 <main+0x1b10>
    38c5: a6 13        	ldx	$13                     ; 0x2013 <main+0x1a9f>
    38c7: 86 85        	stx	$85                     ; 0x2085 <main+0x1b11>
    38c9: a9 10        	lda	#$10
    38cb: 4c a6 3a     	jmp	$3aa6 <_ZN12_GLOBAL__N_15printEPKcP6Status+0x66d>
    38ce: a5 1b        	lda	$1b                     ; 0x201b <main+0x1aa7>
    38d0: 85 88        	sta	$88                     ; 0x2088 <main+0x1b14>
    38d2: a4 1a        	ldy	$1a                     ; 0x201a <main+0x1aa6>
    38d4: 84 89        	sty	$89                     ; 0x2089 <main+0x1b15>
    38d6: a6 16        	ldx	$16                     ; 0x2016 <main+0x1aa2>
    38d8: 86 8b        	stx	$8b                     ; 0x208b <main+0x1b17>
    38da: a6 17        	ldx	$17                     ; 0x2017 <main+0x1aa3>
    38dc: 86 8a        	stx	$8a                     ; 0x208a <main+0x1b16>
    38de: a6 18        	ldx	$18                     ; 0x2018 <main+0x1aa4>
    38e0: 86 12        	stx	$12                     ; 0x2012 <main+0x1a9e>
    38e2: a6 19        	ldx	$19                     ; 0x2019 <main+0x1aa5>
    38e4: 86 13        	stx	$13                     ; 0x2013 <main+0x1a9f>
    38e6: a6 12        	ldx	$12                     ; 0x2012 <main+0x1a9e>
    38e8: 86 84        	stx	$84                     ; 0x2084 <main+0x1b10>
    38ea: a6 13        	ldx	$13                     ; 0x2013 <main+0x1a9f>
    38ec: 86 85        	stx	$85                     ; 0x2085 <main+0x1b11>
    38ee: a9 10        	lda	#$10
    38f0: 92 5a        	sta	($5a)                   ; 0x205a <main+0x1ae6>
    38f2: a5 60        	lda	$60                     ; 0x2060 <main+0x1aec>
    38f4: 09 84        	ora	#$84
    38f6: aa           	tax
    38f7: a9 00        	lda	#$0
    38f9: 09 01        	ora	#$1
    38fb: 85 14        	sta	$14                     ; 0x2014 <main+0x1aa0>
    38fd: a4 5a        	ldy	$5a                     ; 0x205a <main+0x1ae6>
    38ff: 84 12        	sty	$12                     ; 0x2012 <main+0x1a9e>
    3901: a4 5b        	ldy	$5b                     ; 0x205b <main+0x1ae7>
    3903: 84 13        	sty	$13                     ; 0x2013 <main+0x1a9f>
    3905: e6 12        	inc	$12                     ; 0x2012 <main+0x1a9e>
    3907: d0 02        	bne	$390b <_ZN12_GLOBAL__N_15printEPKcP6Status+0x4d2>
    3909: e6 13        	inc	$13                     ; 0x2013 <main+0x1a9f>
    390b: a0 01        	ldy	#$1
    390d: 86 60        	stx	$60                     ; 0x2060 <main+0x1aec>
    390f: 8a           	txa
    3910: 91 5a        	sta	($5a),y                 ; 0x205a <main+0x1ae6>
    3912: a5 14        	lda	$14                     ; 0x2014 <main+0x1aa0>
    3914: a6 14        	ldx	$14                     ; 0x2014 <main+0x1aa0>
    3916: 4c c2 3a     	jmp	$3ac2 <_ZN12_GLOBAL__N_15printEPKcP6Status+0x689>
    3919: a5 1b        	lda	$1b                     ; 0x201b <main+0x1aa7>
    391b: 85 88        	sta	$88                     ; 0x2088 <main+0x1b14>
    391d: a4 1a        	ldy	$1a                     ; 0x201a <main+0x1aa6>
    391f: 84 89        	sty	$89                     ; 0x2089 <main+0x1b15>
    3921: a6 16        	ldx	$16                     ; 0x2016 <main+0x1aa2>
    3923: 86 8b        	stx	$8b                     ; 0x208b <main+0x1b17>
    3925: a6 17        	ldx	$17                     ; 0x2017 <main+0x1aa3>
    3927: 86 8a        	stx	$8a                     ; 0x208a <main+0x1b16>
    3929: a6 18        	ldx	$18                     ; 0x2018 <main+0x1aa4>
    392b: 86 12        	stx	$12                     ; 0x2012 <main+0x1a9e>
    392d: a6 19        	ldx	$19                     ; 0x2019 <main+0x1aa5>
    392f: 86 13        	stx	$13                     ; 0x2013 <main+0x1a9f>
    3931: a6 12        	ldx	$12                     ; 0x2012 <main+0x1a9e>
    3933: 86 84        	stx	$84                     ; 0x2084 <main+0x1b10>
    3935: a6 13        	ldx	$13                     ; 0x2013 <main+0x1a9f>
    3937: 86 85        	stx	$85                     ; 0x2085 <main+0x1b11>
    3939: a9 10        	lda	#$10
    393b: 92 5a        	sta	($5a)                   ; 0x205a <main+0x1ae6>
    393d: a5 60        	lda	$60                     ; 0x2060 <main+0x1aec>
    393f: 09 80        	ora	#$80
    3941: 85 14        	sta	$14                     ; 0x2014 <main+0x1aa0>
    3943: a9 00        	lda	#$0
    3945: 09 01        	ora	#$1
    3947: aa           	tax
    3948: a4 5a        	ldy	$5a                     ; 0x205a <main+0x1ae6>
    394a: 84 12        	sty	$12                     ; 0x2012 <main+0x1a9e>
    394c: a4 5b        	ldy	$5b                     ; 0x205b <main+0x1ae7>
    394e: 84 13        	sty	$13                     ; 0x2013 <main+0x1a9f>
    3950: e6 12        	inc	$12                     ; 0x2012 <main+0x1a9e>
    3952: d0 02        	bne	$3956 <_ZN12_GLOBAL__N_15printEPKcP6Status+0x51d>
    3954: e6 13        	inc	$13                     ; 0x2013 <main+0x1a9f>
    3956: a0 01        	ldy	#$1
    3958: a5 14        	lda	$14                     ; 0x2014 <main+0x1aa0>
    395a: 85 60        	sta	$60                     ; 0x2060 <main+0x1aec>
    395c: 4c bf 3a     	jmp	$3abf <_ZN12_GLOBAL__N_15printEPKcP6Status+0x686>
    395f: a4 5a        	ldy	$5a                     ; 0x205a <main+0x1ae6>
    3961: a5 5a        	lda	$5a                     ; 0x205a <main+0x1ae6>
    3963: 84 16        	sty	$16                     ; 0x2016 <main+0x1aa2>
    3965: 18           	clc
    3966: 69 11        	adc	#$11
    3968: 85 12        	sta	$12                     ; 0x2012 <main+0x1a9e>
    396a: a5 5b        	lda	$5b                     ; 0x205b <main+0x1ae7>
    396c: 69 00        	adc	#$0
    396e: 85 13        	sta	$13                     ; 0x2013 <main+0x1a9f>
    3970: a0 11        	ldy	#$11
    3972: b1 5a        	lda	($5a),y                 ; 0x205a <main+0x1ae6>
    3974: 85 14        	sta	$14                     ; 0x2014 <main+0x1aa0>
    3976: 18           	clc
    3977: 69 02        	adc	#$2
    3979: 91 5a        	sta	($5a),y                 ; 0x205a <main+0x1ae6>
    397b: a0 01        	ldy	#$1
    397d: b1 12        	lda	($12),y                 ; 0x2012 <main+0x1a9e>
    397f: 85 15        	sta	$15                     ; 0x2015 <main+0x1aa1>
    3981: 69 00        	adc	#$0
    3983: 18           	clc
    3984: 91 12        	sta	($12),y                 ; 0x2012 <main+0x1a9e>
    3986: b2 14        	lda	($14)                   ; 0x2014 <main+0x1aa0>
    3988: 85 12        	sta	$12                     ; 0x2012 <main+0x1a9e>
    398a: b1 14        	lda	($14),y                 ; 0x2014 <main+0x1aa0>
    398c: 85 13        	sta	$13                     ; 0x2013 <main+0x1a9f>
    398e: a5 16        	lda	$16                     ; 0x2016 <main+0x1aa2>
    3990: 69 05        	adc	#$5
    3992: 85 14        	sta	$14                     ; 0x2014 <main+0x1aa0>
    3994: a5 5b        	lda	$5b                     ; 0x205b <main+0x1ae7>
    3996: 69 00        	adc	#$0
    3998: 85 15        	sta	$15                     ; 0x2015 <main+0x1aa1>
    399a: a0 05        	ldy	#$5
    399c: b1 5a        	lda	($5a),y                 ; 0x205a <main+0x1ae6>
    399e: 85 16        	sta	$16                     ; 0x2016 <main+0x1aa2>
    39a0: a0 01        	ldy	#$1
    39a2: b1 14        	lda	($14),y                 ; 0x2014 <main+0x1aa0>
    39a4: 85 14        	sta	$14                     ; 0x2014 <main+0x1aa0>
    39a6: a5 16        	lda	$16                     ; 0x2016 <main+0x1aa2>
    39a8: 92 12        	sta	($12)                   ; 0x2012 <main+0x1a9e>
    39aa: a5 14        	lda	$14                     ; 0x2014 <main+0x1aa0>
    39ac: 91 12        	sta	($12),y                 ; 0x2012 <main+0x1a9e>
    39ae: e6 18        	inc	$18                     ; 0x2018 <main+0x1aa4>
    39b0: d0 02        	bne	$39b4 <_ZN12_GLOBAL__N_15printEPKcP6Status+0x57b>
    39b2: e6 19        	inc	$19                     ; 0x2019 <main+0x1aa5>
    39b4: a6 18        	ldx	$18                     ; 0x2018 <main+0x1aa4>
    39b6: 86 12        	stx	$12                     ; 0x2012 <main+0x1a9e>
    39b8: a6 19        	ldx	$19                     ; 0x2019 <main+0x1aa5>
    39ba: 4c 7e 3a     	jmp	$3a7e <_ZN12_GLOBAL__N_15printEPKcP6Status+0x645>
    39bd: a0 11        	ldy	#$11
    39bf: a5 5a        	lda	$5a                     ; 0x205a <main+0x1ae6>
    39c1: 18           	clc
    39c2: 69 11        	adc	#$11
    39c4: 85 12        	sta	$12                     ; 0x2012 <main+0x1a9e>
    39c6: a5 5b        	lda	$5b                     ; 0x205b <main+0x1ae7>
    39c8: 69 00        	adc	#$0
    39ca: 85 13        	sta	$13                     ; 0x2013 <main+0x1a9f>
    39cc: b1 5a        	lda	($5a),y                 ; 0x205a <main+0x1ae6>
    39ce: aa           	tax
    39cf: a0 01        	ldy	#$1
    39d1: b1 12        	lda	($12),y                 ; 0x2012 <main+0x1a9e>
    39d3: 86 14        	stx	$14                     ; 0x2014 <main+0x1aa0>
    39d5: 85 15        	sta	$15                     ; 0x2015 <main+0x1aa1>
    39d7: a8           	tay
    39d8: 18           	clc
    39d9: 8a           	txa
    39da: 69 02        	adc	#$2
    39dc: 85 16        	sta	$16                     ; 0x2016 <main+0x1aa2>
    39de: 98           	tya
    39df: 69 00        	adc	#$0
    39e1: 85 17        	sta	$17                     ; 0x2017 <main+0x1aa3>
    39e3: a5 16        	lda	$16                     ; 0x2016 <main+0x1aa2>
    39e5: a0 11        	ldy	#$11
    39e7: 91 5a        	sta	($5a),y                 ; 0x205a <main+0x1ae6>
    39e9: a0 01        	ldy	#$1
    39eb: a5 17        	lda	$17                     ; 0x2017 <main+0x1aa3>
    39ed: 91 12        	sta	($12),y                 ; 0x2012 <main+0x1a9e>
    39ef: b2 14        	lda	($14)                   ; 0x2014 <main+0x1aa0>
    39f1: 85 12        	sta	$12                     ; 0x2012 <main+0x1a9e>
    39f3: b1 14        	lda	($14),y                 ; 0x2014 <main+0x1aa0>
    39f5: 85 13        	sta	$13                     ; 0x2013 <main+0x1a9f>
    39f7: 4c 5f 3a     	jmp	$3a5f <_ZN12_GLOBAL__N_15printEPKcP6Status+0x626>
    39fa: a5 1b        	lda	$1b                     ; 0x201b <main+0x1aa7>
    39fc: 85 88        	sta	$88                     ; 0x2088 <main+0x1b14>
    39fe: a4 1a        	ldy	$1a                     ; 0x201a <main+0x1aa6>
    3a00: 84 89        	sty	$89                     ; 0x2089 <main+0x1b15>
    3a02: a6 16        	ldx	$16                     ; 0x2016 <main+0x1aa2>
    3a04: 86 8b        	stx	$8b                     ; 0x208b <main+0x1b17>
    3a06: a6 17        	ldx	$17                     ; 0x2017 <main+0x1aa3>
    3a08: 86 8a        	stx	$8a                     ; 0x208a <main+0x1b16>
    3a0a: a6 18        	ldx	$18                     ; 0x2018 <main+0x1aa4>
    3a0c: 86 12        	stx	$12                     ; 0x2012 <main+0x1a9e>
    3a0e: a6 19        	ldx	$19                     ; 0x2019 <main+0x1aa5>
    3a10: 86 13        	stx	$13                     ; 0x2013 <main+0x1a9f>
    3a12: a6 12        	ldx	$12                     ; 0x2012 <main+0x1a9e>
    3a14: 86 84        	stx	$84                     ; 0x2084 <main+0x1b10>
    3a16: a6 13        	ldx	$13                     ; 0x2013 <main+0x1a9f>
    3a18: 86 85        	stx	$85                     ; 0x2085 <main+0x1b11>
    3a1a: a9 08        	lda	#$8
    3a1c: 4c a3 3a     	jmp	$3aa3 <_ZN12_GLOBAL__N_15printEPKcP6Status+0x66a>
    3a1f: a0 11        	ldy	#$11
    3a21: a5 5a        	lda	$5a                     ; 0x205a <main+0x1ae6>
    3a23: 18           	clc
    3a24: 69 11        	adc	#$11
    3a26: 85 12        	sta	$12                     ; 0x2012 <main+0x1a9e>
    3a28: a5 5b        	lda	$5b                     ; 0x205b <main+0x1ae7>
    3a2a: 69 00        	adc	#$0
    3a2c: 85 13        	sta	$13                     ; 0x2013 <main+0x1a9f>
    3a2e: b1 5a        	lda	($5a),y                 ; 0x205a <main+0x1ae6>
    3a30: aa           	tax
    3a31: a0 01        	ldy	#$1
    3a33: b1 12        	lda	($12),y                 ; 0x2012 <main+0x1a9e>
    3a35: 86 14        	stx	$14                     ; 0x2014 <main+0x1aa0>
    3a37: 85 15        	sta	$15                     ; 0x2015 <main+0x1aa1>
    3a39: a8           	tay
    3a3a: 18           	clc
    3a3b: 8a           	txa
    3a3c: 69 02        	adc	#$2
    3a3e: 85 16        	sta	$16                     ; 0x2016 <main+0x1aa2>
    3a40: 98           	tya
    3a41: 69 00        	adc	#$0
    3a43: 85 17        	sta	$17                     ; 0x2017 <main+0x1aa3>
    3a45: a5 16        	lda	$16                     ; 0x2016 <main+0x1aa2>
    3a47: a0 11        	ldy	#$11
    3a49: 91 5a        	sta	($5a),y                 ; 0x205a <main+0x1ae6>
    3a4b: a0 01        	ldy	#$1
    3a4d: a5 17        	lda	$17                     ; 0x2017 <main+0x1aa3>
    3a4f: 91 12        	sta	($12),y                 ; 0x2012 <main+0x1a9e>
    3a51: b2 14        	lda	($14)                   ; 0x2014 <main+0x1aa0>
    3a53: 85 63        	sta	$63                     ; 0x2063 <main+0x1aef>
    3a55: 64 64        	stz	$64                     ; 0x2064 <main+0x1af0>
    3a57: a2 63        	ldx	#$63
    3a59: a0 00        	ldy	#$0
    3a5b: 86 12        	stx	$12                     ; 0x2012 <main+0x1a9e>
    3a5d: 84 13        	sty	$13                     ; 0x2013 <main+0x1a9f>
    3a5f: a6 18        	ldx	$18                     ; 0x2018 <main+0x1aa4>
    3a61: 86 5c        	stx	$5c                     ; 0x205c <main+0x1ae8>
    3a63: a6 19        	ldx	$19                     ; 0x2019 <main+0x1aa5>
    3a65: 86 5d        	stx	$5d                     ; 0x205d <main+0x1ae9>
    3a67: a6 5a        	ldx	$5a                     ; 0x205a <main+0x1ae6>
    3a69: 86 14        	stx	$14                     ; 0x2014 <main+0x1aa0>
    3a6b: a6 5b        	ldx	$5b                     ; 0x205b <main+0x1ae7>
    3a6d: 86 15        	stx	$15                     ; 0x2015 <main+0x1aa1>
    3a6f: 20 48 40     	jsr	$4048 <_ZN12_GLOBAL__N_112print_stringEPKcP6Status>
    3a72: e6 5c        	inc	$5c                     ; 0x205c <main+0x1ae8>
    3a74: d0 02        	bne	$3a78 <_ZN12_GLOBAL__N_15printEPKcP6Status+0x63f>
    3a76: e6 5d        	inc	$5d                     ; 0x205d <main+0x1ae9>
    3a78: a6 5c        	ldx	$5c                     ; 0x205c <main+0x1ae8>
    3a7a: 86 12        	stx	$12                     ; 0x2012 <main+0x1a9e>
    3a7c: a6 5d        	ldx	$5d                     ; 0x205d <main+0x1ae9>
    3a7e: 86 13        	stx	$13                     ; 0x2013 <main+0x1a9f>
    3a80: 60           	rts
    3a81: a5 1b        	lda	$1b                     ; 0x201b <main+0x1aa7>
    3a83: 85 88        	sta	$88                     ; 0x2088 <main+0x1b14>
    3a85: a4 1a        	ldy	$1a                     ; 0x201a <main+0x1aa6>
    3a87: 84 89        	sty	$89                     ; 0x2089 <main+0x1b15>
    3a89: a6 16        	ldx	$16                     ; 0x2016 <main+0x1aa2>
    3a8b: 86 8b        	stx	$8b                     ; 0x208b <main+0x1b17>
    3a8d: a6 17        	ldx	$17                     ; 0x2017 <main+0x1aa3>
    3a8f: 86 8a        	stx	$8a                     ; 0x208a <main+0x1b16>
    3a91: a6 18        	ldx	$18                     ; 0x2018 <main+0x1aa4>
    3a93: 86 12        	stx	$12                     ; 0x2012 <main+0x1a9e>
    3a95: a6 19        	ldx	$19                     ; 0x2019 <main+0x1aa5>
    3a97: 86 13        	stx	$13                     ; 0x2013 <main+0x1a9f>
    3a99: a6 12        	ldx	$12                     ; 0x2012 <main+0x1a9e>
    3a9b: 86 84        	stx	$84                     ; 0x2084 <main+0x1b10>
    3a9d: a6 13        	ldx	$13                     ; 0x2013 <main+0x1a9f>
    3a9f: 86 85        	stx	$85                     ; 0x2085 <main+0x1b11>
    3aa1: a9 0a        	lda	#$a
    3aa3: aa           	tax
    3aa4: 86 83        	stx	$83                     ; 0x2083 <main+0x1b0f>
    3aa6: 92 5a        	sta	($5a)                   ; 0x205a <main+0x1ae6>
    3aa8: a9 00        	lda	#$0
    3aaa: 09 01        	ora	#$1
    3aac: aa           	tax
    3aad: a4 5a        	ldy	$5a                     ; 0x205a <main+0x1ae6>
    3aaf: 84 12        	sty	$12                     ; 0x2012 <main+0x1a9e>
    3ab1: a4 5b        	ldy	$5b                     ; 0x205b <main+0x1ae7>
    3ab3: 84 13        	sty	$13                     ; 0x2013 <main+0x1a9f>
    3ab5: e6 12        	inc	$12                     ; 0x2012 <main+0x1a9e>
    3ab7: d0 02        	bne	$3abb <_ZN12_GLOBAL__N_15printEPKcP6Status+0x682>
    3ab9: e6 13        	inc	$13                     ; 0x2013 <main+0x1a9f>
    3abb: a0 01        	ldy	#$1
    3abd: a5 60        	lda	$60                     ; 0x2060 <main+0x1aec>
    3abf: 91 5a        	sta	($5a),y                 ; 0x205a <main+0x1ae6>
    3ac1: 8a           	txa
    3ac2: 86 8c        	stx	$8c                     ; 0x208c <main+0x1b18>
    3ac4: 91 12        	sta	($12),y                 ; 0x2012 <main+0x1a9e>
    3ac6: a2 7a        	ldx	#$7a
    3ac8: a0 00        	ldy	#$0
    3aca: 86 12        	stx	$12                     ; 0x2012 <main+0x1a9e>
    3acc: 84 13        	sty	$13                     ; 0x2013 <main+0x1a9f>
    3ace: e6 12        	inc	$12                     ; 0x2012 <main+0x1a9e>
    3ad0: d0 02        	bne	$3ad4 <_ZN12_GLOBAL__N_15printEPKcP6Status+0x69b>
    3ad2: e6 13        	inc	$13                     ; 0x2013 <main+0x1a9f>
    3ad4: a0 11        	ldy	#$11
    3ad6: a2 00        	ldx	#$0
    3ad8: a5 5a        	lda	$5a                     ; 0x205a <main+0x1ae6>
    3ada: 18           	clc
    3adb: 69 11        	adc	#$11
    3add: 85 5e        	sta	$5e                     ; 0x205e <main+0x1aea>
    3adf: a5 5b        	lda	$5b                     ; 0x205b <main+0x1ae7>
    3ae1: 69 00        	adc	#$0
    3ae3: 85 5f        	sta	$5f                     ; 0x205f <main+0x1aeb>
    3ae5: b1 5a        	lda	($5a),y                 ; 0x205a <main+0x1ae6>
    3ae7: 85 5d        	sta	$5d                     ; 0x205d <main+0x1ae9>
    3ae9: a0 01        	ldy	#$1
    3aeb: b1 5e        	lda	($5e),y                 ; 0x205e <main+0x1aea>
    3aed: 85 8d        	sta	$8d                     ; 0x208d <main+0x1b19>
    3aef: a4 5d        	ldy	$5d                     ; 0x205d <main+0x1ae9>
    3af1: 84 14        	sty	$14                     ; 0x2014 <main+0x1aa0>
    3af3: 85 15        	sta	$15                     ; 0x2015 <main+0x1aa1>
    3af5: 64 62        	stz	$62                     ; 0x2062 <main+0x1aee>
    3af7: a5 61        	lda	$61                     ; 0x2061 <main+0x1aed>
    3af9: a4 61        	ldy	$61                     ; 0x2061 <main+0x1aed>
    3afb: 84 8e        	sty	$8e                     ; 0x208e <main+0x1b1a>
    3afd: 20 15 46     	jsr	$4615 <memcpy>
    3b00: a2 00        	ldx	#$0
    3b02: 86 87        	stx	$87                     ; 0x2087 <main+0x1b13>
    3b04: 18           	clc
    3b05: a5 5d        	lda	$5d                     ; 0x205d <main+0x1ae9>
    3b07: 65 5c        	adc	$5c                     ; 0x205c <main+0x1ae8>
    3b09: 85 13        	sta	$13                     ; 0x2013 <main+0x1a9f>
    3b0b: a5 8d        	lda	$8d                     ; 0x208d <main+0x1b19>
    3b0d: 69 00        	adc	#$0
    3b0f: 85 12        	sta	$12                     ; 0x2012 <main+0x1a9e>
    3b11: a0 11        	ldy	#$11
    3b13: a5 13        	lda	$13                     ; 0x2013 <main+0x1a9f>
    3b15: 91 5a        	sta	($5a),y                 ; 0x205a <main+0x1ae6>
    3b17: a0 01        	ldy	#$1
    3b19: a5 12        	lda	$12                     ; 0x2012 <main+0x1a9e>
    3b1b: 91 5e        	sta	($5e),y                 ; 0x205e <main+0x1aea>
    3b1d: a5 8c        	lda	$8c                     ; 0x208c <main+0x1b18>
    3b1f: 29 01        	and	#$1
    3b21: d0 4c        	bne	$3b6f <_ZN12_GLOBAL__N_15printEPKcP6Status+0x736>
    3b23: a6 8e        	ldx	$8e                     ; 0x208e <main+0x1b1a>
    3b25: b4 7a        	ldy	$7a,x                   ; 0x207a <main+0x1b06>
    3b27: a6 8a        	ldx	$8a                     ; 0x208a <main+0x1b16>
    3b29: 86 12        	stx	$12                     ; 0x2012 <main+0x1a9e>
    3b2b: a6 8b        	ldx	$8b                     ; 0x208b <main+0x1b17>
    3b2d: 86 13        	stx	$13                     ; 0x2013 <main+0x1a9f>
    3b2f: a6 89        	ldx	$89                     ; 0x2089 <main+0x1b15>
    3b31: 86 5c        	stx	$5c                     ; 0x205c <main+0x1ae8>
    3b33: a6 88        	ldx	$88                     ; 0x2088 <main+0x1b14>
    3b35: 86 5d        	stx	$5d                     ; 0x205d <main+0x1ae9>
    3b37: 98           	tya
    3b38: 10 45        	bpl	$3b7f <_ZN12_GLOBAL__N_15printEPKcP6Status+0x746>
    3b3a: a2 00        	ldx	#$0
    3b3c: 64 14        	stz	$14                     ; 0x2014 <main+0x1aa0>
    3b3e: 38           	sec
    3b3f: a9 00        	lda	#$0
    3b41: f5 7b        	sbc	$7b,x                   ; 0x207b <main+0x1b07>
    3b43: a0 00        	ldy	#$0
    3b45: b0 02        	bcs	$3b49 <_ZN12_GLOBAL__N_15printEPKcP6Status+0x710>
    3b47: a0 01        	ldy	#$1
    3b49: 38           	sec
    3b4a: e5 14        	sbc	$14                     ; 0x2014 <main+0x1aa0>
    3b4c: 85 15        	sta	$15                     ; 0x2015 <main+0x1aa1>
    3b4e: 64 14        	stz	$14                     ; 0x2014 <main+0x1aa0>
    3b50: b0 04        	bcs	$3b56 <_ZN12_GLOBAL__N_15printEPKcP6Status+0x71d>
    3b52: a9 01        	lda	#$1
    3b54: 85 14        	sta	$14                     ; 0x2014 <main+0x1aa0>
    3b56: 98           	tya
    3b57: 05 14        	ora	$14                     ; 0x2014 <main+0x1aa0>
    3b59: 85 14        	sta	$14                     ; 0x2014 <main+0x1aa0>
    3b5b: a5 15        	lda	$15                     ; 0x2015 <main+0x1aa1>
    3b5d: 9d 7b 00     	sta	$7b,x                   ; 0x7b <__rc31+0x4c>
    3b60: e8           	inx
    3b61: 86 15        	stx	$15                     ; 0x2015 <main+0x1aa1>
    3b63: a4 61        	ldy	$61                     ; 0x2061 <main+0x1aed>
    3b65: c4 15        	cpy	$15                     ; 0x2015 <main+0x1aa1>
    3b67: d0 d5        	bne	$3b3e <_ZN12_GLOBAL__N_15printEPKcP6Status+0x705>
    3b69: a2 01        	ldx	#$1
    3b6b: 86 87        	stx	$87                     ; 0x2087 <main+0x1b13>
    3b6d: 80 10        	bra	$3b7f <_ZN12_GLOBAL__N_15printEPKcP6Status+0x746>
    3b6f: a6 8a        	ldx	$8a                     ; 0x208a <main+0x1b16>
    3b71: 86 12        	stx	$12                     ; 0x2012 <main+0x1a9e>
    3b73: a6 8b        	ldx	$8b                     ; 0x208b <main+0x1b17>
    3b75: 86 13        	stx	$13                     ; 0x2013 <main+0x1a9f>
    3b77: a6 89        	ldx	$89                     ; 0x2089 <main+0x1b15>
    3b79: 86 5c        	stx	$5c                     ; 0x205c <main+0x1ae8>
    3b7b: a6 88        	ldx	$88                     ; 0x2088 <main+0x1b14>
    3b7d: 86 5d        	stx	$5d                     ; 0x205d <main+0x1ae9>
    3b7f: a5 61        	lda	$61                     ; 0x2061 <main+0x1aed>
    3b81: 0a           	asl
    3b82: 0a           	asl
    3b83: 0a           	asl
    3b84: 85 14        	sta	$14                     ; 0x2014 <main+0x1aa0>
    3b86: 64 5f        	stz	$5f                     ; 0x205f <main+0x1aeb>
    3b88: a5 5f        	lda	$5f                     ; 0x205f <main+0x1aeb>
    3b8a: f0 50        	beq	$3bdc <_ZN12_GLOBAL__N_15printEPKcP6Status+0x7a3>
    3b8c: a6 5f        	ldx	$5f                     ; 0x205f <main+0x1aeb>
    3b8e: ca           	dex
    3b8f: 86 17        	stx	$17                     ; 0x2017 <main+0x1aa3>
    3b91: a2 00        	ldx	#$0
    3b93: 64 15        	stz	$15                     ; 0x2015 <main+0x1aa1>
    3b95: 80 0d        	bra	$3ba4 <_ZN12_GLOBAL__N_15printEPKcP6Status+0x76b>
    3b97: a4 15        	ldy	$15                     ; 0x2015 <main+0x1aa1>
    3b99: 99 65 00     	sta	$65,y                   ; 0x65 <__rc31+0x36>
    3b9c: a4 17        	ldy	$17                     ; 0x2017 <main+0x1aa3>
    3b9e: c4 15        	cpy	$15                     ; 0x2015 <main+0x1aa1>
    3ba0: f0 46        	beq	$3be8 <_ZN12_GLOBAL__N_15printEPKcP6Status+0x7af>
    3ba2: e6 15        	inc	$15                     ; 0x2015 <main+0x1aa1>
    3ba4: a4 15        	ldy	$15                     ; 0x2015 <main+0x1aa1>
    3ba6: b9 65 00     	lda	$65,y                   ; 0x65 <__rc31+0x36>
    3ba9: 0a           	asl
    3baa: e0 00        	cpx	#$0
    3bac: f0 02        	beq	$3bb0 <_ZN12_GLOBAL__N_15printEPKcP6Status+0x777>
    3bae: 09 01        	ora	#$1
    3bb0: a4 83        	ldy	$83                     ; 0x2083 <main+0x1b0f>
    3bb2: 84 16        	sty	$16                     ; 0x2016 <main+0x1aa2>
    3bb4: c5 16        	cmp	$16                     ; 0x2016 <main+0x1aa2>
    3bb6: a2 01        	ldx	#$1
    3bb8: b0 02        	bcs	$3bbc <_ZN12_GLOBAL__N_15printEPKcP6Status+0x783>
    3bba: a2 00        	ldx	#$0
    3bbc: 90 d9        	bcc	$3b97 <_ZN12_GLOBAL__N_15printEPKcP6Status+0x75e>
    3bbe: 84 16        	sty	$16                     ; 0x2016 <main+0x1aa2>
    3bc0: 38           	sec
    3bc1: e5 16        	sbc	$16                     ; 0x2016 <main+0x1aa2>
    3bc3: a4 15        	ldy	$15                     ; 0x2015 <main+0x1aa1>
    3bc5: 99 65 00     	sta	$65,y                   ; 0x65 <__rc31+0x36>
    3bc8: a4 17        	ldy	$17                     ; 0x2017 <main+0x1aa3>
    3bca: c4 15        	cpy	$15                     ; 0x2015 <main+0x1aa1>
    3bcc: d0 d4        	bne	$3ba2 <_ZN12_GLOBAL__N_15printEPKcP6Status+0x769>
    3bce: a4 5f        	ldy	$5f                     ; 0x205f <main+0x1aeb>
    3bd0: a6 5f        	ldx	$5f                     ; 0x205f <main+0x1aeb>
    3bd2: e8           	inx
    3bd3: a9 01        	lda	#$1
    3bd5: 99 65 00     	sta	$65,y                   ; 0x65 <__rc31+0x36>
    3bd8: da           	phx
    3bd9: 7a           	ply
    3bda: 80 0e        	bra	$3bea <_ZN12_GLOBAL__N_15printEPKcP6Status+0x7b1>
    3bdc: a6 61        	ldx	$61                     ; 0x2061 <main+0x1aed>
    3bde: b5 7a        	lda	$7a,x                   ; 0x207a <main+0x1b06>
    3be0: aa           	tax
    3be1: a0 00        	ldy	#$0
    3be3: 8a           	txa
    3be4: 30 36        	bmi	$3c1c <_ZN12_GLOBAL__N_15printEPKcP6Status+0x7e3>
    3be6: 80 3e        	bra	$3c26 <_ZN12_GLOBAL__N_15printEPKcP6Status+0x7ed>
    3be8: a4 5f        	ldy	$5f                     ; 0x205f <main+0x1aeb>
    3bea: a6 61        	ldx	$61                     ; 0x2061 <main+0x1aed>
    3bec: b5 7a        	lda	$7a,x                   ; 0x207a <main+0x1b06>
    3bee: aa           	tax
    3bef: 10 35        	bpl	$3c26 <_ZN12_GLOBAL__N_15printEPKcP6Status+0x7ed>
    3bf1: 98           	tya
    3bf2: f0 26        	beq	$3c1a <_ZN12_GLOBAL__N_15printEPKcP6Status+0x7e1>
    3bf4: 84 16        	sty	$16                     ; 0x2016 <main+0x1aa2>
    3bf6: a2 00        	ldx	#$0
    3bf8: a4 83        	ldy	$83                     ; 0x2083 <main+0x1b0f>
    3bfa: b5 65        	lda	$65,x                   ; 0x2065 <main+0x1af1>
    3bfc: 1a           	inc
    3bfd: f6 65        	inc	$65,x                   ; 0x2065 <main+0x1af1>
    3bff: 84 15        	sty	$15                     ; 0x2015 <main+0x1aa1>
    3c01: c5 15        	cmp	$15                     ; 0x2015 <main+0x1aa1>
    3c03: 90 4a        	bcc	$3c4f <_ZN12_GLOBAL__N_15printEPKcP6Status+0x816>
    3c05: 84 15        	sty	$15                     ; 0x2015 <main+0x1aa1>
    3c07: 38           	sec
    3c08: e5 15        	sbc	$15                     ; 0x2015 <main+0x1aa1>
    3c0a: 9d 65 00     	sta	$65,x                   ; 0x65 <__rc31+0x36>
    3c0d: e8           	inx
    3c0e: 86 15        	stx	$15                     ; 0x2015 <main+0x1aa1>
    3c10: a5 16        	lda	$16                     ; 0x2016 <main+0x1aa2>
    3c12: c5 15        	cmp	$15                     ; 0x2015 <main+0x1aa1>
    3c14: d0 e4        	bne	$3bfa <_ZN12_GLOBAL__N_15printEPKcP6Status+0x7c1>
    3c16: a4 16        	ldy	$16                     ; 0x2016 <main+0x1aa2>
    3c18: 80 02        	bra	$3c1c <_ZN12_GLOBAL__N_15printEPKcP6Status+0x7e3>
    3c1a: a0 00        	ldy	#$0
    3c1c: 5a           	phy
    3c1d: fa           	plx
    3c1e: e8           	inx
    3c1f: a9 01        	lda	#$1
    3c21: 99 65 00     	sta	$65,y                   ; 0x65 <__rc31+0x36>
    3c24: da           	phx
    3c25: 7a           	ply
    3c26: 84 5f        	sty	$5f                     ; 0x205f <main+0x1aeb>
    3c28: a2 01        	ldx	#$1
    3c2a: 64 15        	stz	$15                     ; 0x2015 <main+0x1aa1>
    3c2c: a4 61        	ldy	$61                     ; 0x2061 <main+0x1aed>
    3c2e: b5 7a        	lda	$7a,x                   ; 0x207a <main+0x1b06>
    3c30: 0a           	asl
    3c31: 64 16        	stz	$16                     ; 0x2016 <main+0x1aa2>
    3c33: 26 16        	rol	$16                     ; 0x2016 <main+0x1aa2>
    3c35: 05 15        	ora	$15                     ; 0x2015 <main+0x1aa1>
    3c37: 9d 7a 00     	sta	$7a,x                   ; 0x7a <__rc31+0x4b>
    3c3a: e8           	inx
    3c3b: 88           	dey
    3c3c: a5 16        	lda	$16                     ; 0x2016 <main+0x1aa2>
    3c3e: 85 15        	sta	$15                     ; 0x2015 <main+0x1aa1>
    3c40: 98           	tya
    3c41: d0 eb        	bne	$3c2e <_ZN12_GLOBAL__N_15printEPKcP6Status+0x7f5>
    3c43: a6 62        	ldx	$62                     ; 0x2062 <main+0x1aee>
    3c45: e8           	inx
    3c46: 86 62        	stx	$62                     ; 0x2062 <main+0x1aee>
    3c48: e4 14        	cpx	$14                     ; 0x2014 <main+0x1aa0>
    3c4a: b0 07        	bcs	$3c53 <_ZN12_GLOBAL__N_15printEPKcP6Status+0x81a>
    3c4c: 4c 88 3b     	jmp	$3b88 <_ZN12_GLOBAL__N_15printEPKcP6Status+0x74f>
    3c4f: a4 16        	ldy	$16                     ; 0x2016 <main+0x1aa2>
    3c51: 80 d3        	bra	$3c26 <_ZN12_GLOBAL__N_15printEPKcP6Status+0x7ed>
    3c53: a5 60        	lda	$60                     ; 0x2060 <main+0x1aec>
    3c55: a6 5d        	ldx	$5d                     ; 0x205d <main+0x1ae9>
    3c57: 10 06        	bpl	$3c5f <_ZN12_GLOBAL__N_15printEPKcP6Status+0x826>
    3c59: a2 01        	ldx	#$1
    3c5b: 64 5d        	stz	$5d                     ; 0x205d <main+0x1ae9>
    3c5d: 86 5c        	stx	$5c                     ; 0x205c <main+0x1ae8>
    3c5f: 29 04        	and	#$4
    3c61: f0 2c        	beq	$3c8f <_ZN12_GLOBAL__N_15printEPKcP6Status+0x856>
    3c63: a6 83        	ldx	$83                     ; 0x2083 <main+0x1b0f>
    3c65: e0 10        	cpx	#$10
    3c67: f0 14        	beq	$3c7d <_ZN12_GLOBAL__N_15printEPKcP6Status+0x844>
    3c69: e0 08        	cpx	#$8
    3c6b: d0 22        	bne	$3c8f <_ZN12_GLOBAL__N_15printEPKcP6Status+0x856>
    3c6d: a2 00        	ldx	#$0
    3c6f: e4 5d        	cpx	$5d                     ; 0x205d <main+0x1ae9>
    3c71: f0 03        	beq	$3c76 <_ZN12_GLOBAL__N_15printEPKcP6Status+0x83d>
    3c73: 4c b6 3d     	jmp	$3db6 <_ZN12_GLOBAL__N_15printEPKcP6Status+0x97d>
    3c76: a5 5f        	lda	$5f                     ; 0x205f <main+0x1aeb>
    3c78: c5 5c        	cmp	$5c                     ; 0x205c <main+0x1ae8>
    3c7a: 4c b8 3d     	jmp	$3db8 <_ZN12_GLOBAL__N_15printEPKcP6Status+0x97f>
    3c7d: a5 5f        	lda	$5f                     ; 0x205f <main+0x1aeb>
    3c7f: f0 0e        	beq	$3c8f <_ZN12_GLOBAL__N_15printEPKcP6Status+0x856>
    3c81: a5 60        	lda	$60                     ; 0x2060 <main+0x1aec>
    3c83: 29 80        	and	#$80
    3c85: d0 03        	bne	$3c8a <_ZN12_GLOBAL__N_15printEPKcP6Status+0x851>
    3c87: 4c cd 3d     	jmp	$3dcd <_ZN12_GLOBAL__N_15printEPKcP6Status+0x994>
    3c8a: a2 78        	ldx	#$78
    3c8c: 4c cf 3d     	jmp	$3dcf <_ZN12_GLOBAL__N_15printEPKcP6Status+0x996>
    3c8f: a5 60        	lda	$60                     ; 0x2060 <main+0x1aec>
    3c91: a2 2d        	ldx	#$2d
    3c93: 86 83        	stx	$83                     ; 0x2083 <main+0x1b0f>
    3c95: a6 87        	ldx	$87                     ; 0x2087 <main+0x1b13>
    3c97: d0 1b        	bne	$3cb4 <_ZN12_GLOBAL__N_15printEPKcP6Status+0x87b>
    3c99: aa           	tax
    3c9a: 29 02        	and	#$2
    3c9c: a0 2b        	ldy	#$2b
    3c9e: 84 83        	sty	$83                     ; 0x2083 <main+0x1b0f>
    3ca0: a8           	tay
    3ca1: d0 11        	bne	$3cb4 <_ZN12_GLOBAL__N_15printEPKcP6Status+0x87b>
    3ca3: 8a           	txa
    3ca4: 29 08        	and	#$8
    3ca6: d0 08        	bne	$3cb0 <_ZN12_GLOBAL__N_15printEPKcP6Status+0x877>
    3ca8: a2 01        	ldx	#$1
    3caa: 86 87        	stx	$87                     ; 0x2087 <main+0x1b13>
    3cac: a9 00        	lda	#$0
    3cae: 80 0a        	bra	$3cba <_ZN12_GLOBAL__N_15printEPKcP6Status+0x881>
    3cb0: a2 20        	ldx	#$20
    3cb2: 86 83        	stx	$83                     ; 0x2083 <main+0x1b0f>
    3cb4: a2 00        	ldx	#$0
    3cb6: 86 87        	stx	$87                     ; 0x2087 <main+0x1b13>
    3cb8: a9 01        	lda	#$1
    3cba: a4 5f        	ldy	$5f                     ; 0x205f <main+0x1aeb>
    3cbc: a6 5d        	ldx	$5d                     ; 0x205d <main+0x1ae9>
    3cbe: d0 08        	bne	$3cc8 <_ZN12_GLOBAL__N_15printEPKcP6Status+0x88f>
    3cc0: a6 5c        	ldx	$5c                     ; 0x205c <main+0x1ae8>
    3cc2: 84 14        	sty	$14                     ; 0x2014 <main+0x1aa0>
    3cc4: e4 14        	cpx	$14                     ; 0x2014 <main+0x1aa0>
    3cc6: 80 04        	bra	$3ccc <_ZN12_GLOBAL__N_15printEPKcP6Status+0x893>
    3cc8: a6 5d        	ldx	$5d                     ; 0x205d <main+0x1ae9>
    3cca: e0 00        	cpx	#$0
    3ccc: a6 5c        	ldx	$5c                     ; 0x205c <main+0x1ae8>
    3cce: 86 14        	stx	$14                     ; 0x2014 <main+0x1aa0>
    3cd0: a6 5d        	ldx	$5d                     ; 0x205d <main+0x1ae9>
    3cd2: 86 15        	stx	$15                     ; 0x2015 <main+0x1aa1>
    3cd4: b0 04        	bcs	$3cda <_ZN12_GLOBAL__N_15printEPKcP6Status+0x8a1>
    3cd6: 84 14        	sty	$14                     ; 0x2014 <main+0x1aa0>
    3cd8: 64 15        	stz	$15                     ; 0x2015 <main+0x1aa1>
    3cda: 18           	clc
    3cdb: aa           	tax
    3cdc: 65 14        	adc	$14                     ; 0x2014 <main+0x1aa0>
    3cde: a8           	tay
    3cdf: 85 16        	sta	$16                     ; 0x2016 <main+0x1aa2>
    3ce1: a5 15        	lda	$15                     ; 0x2015 <main+0x1aa1>
    3ce3: 69 00        	adc	#$0
    3ce5: 85 17        	sta	$17                     ; 0x2017 <main+0x1aa3>
    3ce7: c5 12        	cmp	$12                     ; 0x2012 <main+0x1a9e>
    3ce9: d0 04        	bne	$3cef <_ZN12_GLOBAL__N_15printEPKcP6Status+0x8b6>
    3ceb: c4 13        	cpy	$13                     ; 0x2013 <main+0x1a9f>
    3ced: 80 02        	bra	$3cf1 <_ZN12_GLOBAL__N_15printEPKcP6Status+0x8b8>
    3cef: c5 12        	cmp	$12                     ; 0x2012 <main+0x1a9e>
    3cf1: 64 5e        	stz	$5e                     ; 0x205e <main+0x1aea>
    3cf3: 90 04        	bcc	$3cf9 <_ZN12_GLOBAL__N_15printEPKcP6Status+0x8c0>
    3cf5: 64 60        	stz	$60                     ; 0x2060 <main+0x1aec>
    3cf7: 80 4d        	bra	$3d46 <_ZN12_GLOBAL__N_15printEPKcP6Status+0x90d>
    3cf9: a5 60        	lda	$60                     ; 0x2060 <main+0x1aec>
    3cfb: 29 11        	and	#$11
    3cfd: f0 0f        	beq	$3d0e <_ZN12_GLOBAL__N_15printEPKcP6Status+0x8d5>
    3cff: a5 13        	lda	$13                     ; 0x2013 <main+0x1a9f>
    3d01: 38           	sec
    3d02: e5 16        	sbc	$16                     ; 0x2016 <main+0x1aa2>
    3d04: 85 5e        	sta	$5e                     ; 0x205e <main+0x1aea>
    3d06: a5 12        	lda	$12                     ; 0x2012 <main+0x1a9e>
    3d08: e5 17        	sbc	$17                     ; 0x2017 <main+0x1aa3>
    3d0a: 85 60        	sta	$60                     ; 0x2060 <main+0x1aec>
    3d0c: 80 38        	bra	$3d46 <_ZN12_GLOBAL__N_15printEPKcP6Status+0x90d>
    3d0e: 8a           	txa
    3d0f: 38           	sec
    3d10: e5 13        	sbc	$13                     ; 0x2013 <main+0x1a9f>
    3d12: aa           	tax
    3d13: a9 00        	lda	#$0
    3d15: e5 12        	sbc	$12                     ; 0x2012 <main+0x1a9e>
    3d17: 85 12        	sta	$12                     ; 0x2012 <main+0x1a9e>
    3d19: 18           	clc
    3d1a: 8a           	txa
    3d1b: 65 14        	adc	$14                     ; 0x2014 <main+0x1aa0>
    3d1d: 85 5e        	sta	$5e                     ; 0x205e <main+0x1aea>
    3d1f: a5 12        	lda	$12                     ; 0x2012 <main+0x1a9e>
    3d21: 65 15        	adc	$15                     ; 0x2015 <main+0x1aa1>
    3d23: 85 60        	sta	$60                     ; 0x2060 <main+0x1aec>
    3d25: a6 5a        	ldx	$5a                     ; 0x205a <main+0x1ae6>
    3d27: 86 12        	stx	$12                     ; 0x2012 <main+0x1a9e>
    3d29: a6 5b        	ldx	$5b                     ; 0x205b <main+0x1ae7>
    3d2b: 86 13        	stx	$13                     ; 0x2013 <main+0x1a9f>
    3d2d: a9 20        	lda	#$20
    3d2f: 20 6d 3f     	jsr	$3f6d <_ZN12_GLOBAL__N_13putEcP6Status>
    3d32: a6 60        	ldx	$60                     ; 0x2060 <main+0x1aec>
    3d34: e6 5e        	inc	$5e                     ; 0x205e <main+0x1aea>
    3d36: d0 01        	bne	$3d39 <_ZN12_GLOBAL__N_15printEPKcP6Status+0x900>
    3d38: e8           	inx
    3d39: 86 60        	stx	$60                     ; 0x2060 <main+0x1aec>
    3d3b: 8a           	txa
    3d3c: d0 e7        	bne	$3d25 <_ZN12_GLOBAL__N_15printEPKcP6Status+0x8ec>
    3d3e: a5 5e        	lda	$5e                     ; 0x205e <main+0x1aea>
    3d40: d0 e3        	bne	$3d25 <_ZN12_GLOBAL__N_15printEPKcP6Status+0x8ec>
    3d42: 64 60        	stz	$60                     ; 0x2060 <main+0x1aec>
    3d44: 64 5e        	stz	$5e                     ; 0x205e <main+0x1aea>
    3d46: a6 87        	ldx	$87                     ; 0x2087 <main+0x1b13>
    3d48: d0 0d        	bne	$3d57 <_ZN12_GLOBAL__N_15printEPKcP6Status+0x91e>
    3d4a: a6 5a        	ldx	$5a                     ; 0x205a <main+0x1ae6>
    3d4c: 86 12        	stx	$12                     ; 0x2012 <main+0x1a9e>
    3d4e: a6 5b        	ldx	$5b                     ; 0x205b <main+0x1ae7>
    3d50: 86 13        	stx	$13                     ; 0x2013 <main+0x1a9f>
    3d52: a5 83        	lda	$83                     ; 0x2083 <main+0x1b0f>
    3d54: 20 6d 3f     	jsr	$3f6d <_ZN12_GLOBAL__N_13putEcP6Status>
    3d57: a6 86        	ldx	$86                     ; 0x2086 <main+0x1b12>
    3d59: f0 0d        	beq	$3d68 <_ZN12_GLOBAL__N_15printEPKcP6Status+0x92f>
    3d5b: a6 5a        	ldx	$5a                     ; 0x205a <main+0x1ae6>
    3d5d: 86 12        	stx	$12                     ; 0x2012 <main+0x1a9e>
    3d5f: a6 5b        	ldx	$5b                     ; 0x205b <main+0x1ae7>
    3d61: 86 13        	stx	$13                     ; 0x2013 <main+0x1a9f>
    3d63: a5 88        	lda	$88                     ; 0x2088 <main+0x1b14>
    3d65: 20 6d 3f     	jsr	$3f6d <_ZN12_GLOBAL__N_13putEcP6Status>
    3d68: a0 01        	ldy	#$1
    3d6a: b1 5a        	lda	($5a),y                 ; 0x205a <main+0x1ae6>
    3d6c: aa           	tax
    3d6d: 29 10        	and	#$10
    3d6f: f0 36        	beq	$3da7 <_ZN12_GLOBAL__N_15printEPKcP6Status+0x96e>
    3d71: 8a           	txa
    3d72: 29 01        	and	#$1
    3d74: a6 5f        	ldx	$5f                     ; 0x205f <main+0x1aeb>
    3d76: a8           	tay
    3d77: d0 30        	bne	$3da9 <_ZN12_GLOBAL__N_15printEPKcP6Status+0x970>
    3d79: a5 60        	lda	$60                     ; 0x2060 <main+0x1aec>
    3d7b: d0 07        	bne	$3d84 <_ZN12_GLOBAL__N_15printEPKcP6Status+0x94b>
    3d7d: a5 5e        	lda	$5e                     ; 0x205e <main+0x1aea>
    3d7f: d0 03        	bne	$3d84 <_ZN12_GLOBAL__N_15printEPKcP6Status+0x94b>
    3d81: 4c e4 3d     	jmp	$3de4 <_ZN12_GLOBAL__N_15printEPKcP6Status+0x9ab>
    3d84: a6 5a        	ldx	$5a                     ; 0x205a <main+0x1ae6>
    3d86: 86 12        	stx	$12                     ; 0x2012 <main+0x1a9e>
    3d88: a6 5b        	ldx	$5b                     ; 0x205b <main+0x1ae7>
    3d8a: 86 13        	stx	$13                     ; 0x2013 <main+0x1a9f>
    3d8c: a9 30        	lda	#$30
    3d8e: 20 6d 3f     	jsr	$3f6d <_ZN12_GLOBAL__N_13putEcP6Status>
    3d91: a2 ff        	ldx	#$ff
    3d93: c6 5e        	dec	$5e                     ; 0x205e <main+0x1aea>
    3d95: e4 5e        	cpx	$5e                     ; 0x205e <main+0x1aea>
    3d97: d0 02        	bne	$3d9b <_ZN12_GLOBAL__N_15printEPKcP6Status+0x962>
    3d99: c6 60        	dec	$60                     ; 0x2060 <main+0x1aec>
    3d9b: a5 60        	lda	$60                     ; 0x2060 <main+0x1aec>
    3d9d: d0 e5        	bne	$3d84 <_ZN12_GLOBAL__N_15printEPKcP6Status+0x94b>
    3d9f: a5 5e        	lda	$5e                     ; 0x205e <main+0x1aea>
    3da1: d0 e1        	bne	$3d84 <_ZN12_GLOBAL__N_15printEPKcP6Status+0x94b>
    3da3: 64 5e        	stz	$5e                     ; 0x205e <main+0x1aea>
    3da5: 64 60        	stz	$60                     ; 0x2060 <main+0x1aec>
    3da7: a6 5f        	ldx	$5f                     ; 0x205f <main+0x1aeb>
    3da9: a0 00        	ldy	#$0
    3dab: c4 5d        	cpy	$5d                     ; 0x205d <main+0x1ae9>
    3dad: f0 3d        	beq	$3dec <_ZN12_GLOBAL__N_15printEPKcP6Status+0x9b3>
    3daf: c4 5d        	cpy	$5d                     ; 0x205d <main+0x1ae9>
    3db1: 90 3d        	bcc	$3df0 <_ZN12_GLOBAL__N_15printEPKcP6Status+0x9b7>
    3db3: 4c 13 3e     	jmp	$3e13 <_ZN12_GLOBAL__N_15printEPKcP6Status+0x9da>
    3db6: e4 5d        	cpx	$5d                     ; 0x205d <main+0x1ae9>
    3db8: a5 60        	lda	$60                     ; 0x2060 <main+0x1aec>
    3dba: b0 03        	bcs	$3dbf <_ZN12_GLOBAL__N_15printEPKcP6Status+0x986>
    3dbc: 4c 91 3c     	jmp	$3c91 <_ZN12_GLOBAL__N_15printEPKcP6Status+0x858>
    3dbf: a4 5f        	ldy	$5f                     ; 0x205f <main+0x1aeb>
    3dc1: 84 5c        	sty	$5c                     ; 0x205c <main+0x1ae8>
    3dc3: e6 5c        	inc	$5c                     ; 0x205c <main+0x1ae8>
    3dc5: d0 01        	bne	$3dc8 <_ZN12_GLOBAL__N_15printEPKcP6Status+0x98f>
    3dc7: e8           	inx
    3dc8: 86 5d        	stx	$5d                     ; 0x205d <main+0x1ae9>
    3dca: 4c 91 3c     	jmp	$3c91 <_ZN12_GLOBAL__N_15printEPKcP6Status+0x858>
    3dcd: a2 58        	ldx	#$58
    3dcf: 86 88        	stx	$88                     ; 0x2088 <main+0x1b14>
    3dd1: a4 5f        	ldy	$5f                     ; 0x205f <main+0x1aeb>
    3dd3: a2 01        	ldx	#$1
    3dd5: 86 86        	stx	$86                     ; 0x2086 <main+0x1b12>
    3dd7: a2 30        	ldx	#$30
    3dd9: 86 83        	stx	$83                     ; 0x2083 <main+0x1b0f>
    3ddb: a9 02        	lda	#$2
    3ddd: a2 00        	ldx	#$0
    3ddf: 86 87        	stx	$87                     ; 0x2087 <main+0x1b13>
    3de1: 4c bc 3c     	jmp	$3cbc <_ZN12_GLOBAL__N_15printEPKcP6Status+0x883>
    3de4: 64 5e        	stz	$5e                     ; 0x205e <main+0x1aea>
    3de6: 64 60        	stz	$60                     ; 0x2060 <main+0x1aec>
    3de8: 80 bf        	bra	$3da9 <_ZN12_GLOBAL__N_15printEPKcP6Status+0x970>
    3dea: a6 5f        	ldx	$5f                     ; 0x205f <main+0x1aeb>
    3dec: e4 5c        	cpx	$5c                     ; 0x205c <main+0x1ae8>
    3dee: b0 23        	bcs	$3e13 <_ZN12_GLOBAL__N_15printEPKcP6Status+0x9da>
    3df0: a2 ff        	ldx	#$ff
    3df2: c6 5c        	dec	$5c                     ; 0x205c <main+0x1ae8>
    3df4: e4 5c        	cpx	$5c                     ; 0x205c <main+0x1ae8>
    3df6: d0 02        	bne	$3dfa <_ZN12_GLOBAL__N_15printEPKcP6Status+0x9c1>
    3df8: c6 5d        	dec	$5d                     ; 0x205d <main+0x1ae9>
    3dfa: a6 5a        	ldx	$5a                     ; 0x205a <main+0x1ae6>
    3dfc: 86 12        	stx	$12                     ; 0x2012 <main+0x1a9e>
    3dfe: a6 5b        	ldx	$5b                     ; 0x205b <main+0x1ae7>
    3e00: 86 13        	stx	$13                     ; 0x2013 <main+0x1a9f>
    3e02: a9 30        	lda	#$30
    3e04: 20 6d 3f     	jsr	$3f6d <_ZN12_GLOBAL__N_13putEcP6Status>
    3e07: a2 00        	ldx	#$0
    3e09: e4 5d        	cpx	$5d                     ; 0x205d <main+0x1ae9>
    3e0b: f0 dd        	beq	$3dea <_ZN12_GLOBAL__N_15printEPKcP6Status+0x9b1>
    3e0d: e4 5d        	cpx	$5d                     ; 0x205d <main+0x1ae9>
    3e0f: a6 5f        	ldx	$5f                     ; 0x205f <main+0x1aeb>
    3e11: 90 dd        	bcc	$3df0 <_ZN12_GLOBAL__N_15printEPKcP6Status+0x9b7>
    3e13: a4 5e        	ldy	$5e                     ; 0x205e <main+0x1aea>
    3e15: 84 5f        	sty	$5f                     ; 0x205f <main+0x1aeb>
    3e17: 8a           	txa
    3e18: d0 03        	bne	$3e1d <_ZN12_GLOBAL__N_15printEPKcP6Status+0x9e4>
    3e1a: 4c ad 3e     	jmp	$3ead <_ZN12_GLOBAL__N_15printEPKcP6Status+0xa74>
    3e1d: ca           	dex
    3e1e: d0 03        	bne	$3e23 <_ZN12_GLOBAL__N_15printEPKcP6Status+0x9ea>
    3e20: 4c 7e 3e     	jmp	$3e7e <_ZN12_GLOBAL__N_15printEPKcP6Status+0xa45>
    3e23: 86 5e        	stx	$5e                     ; 0x205e <main+0x1aea>
    3e25: a9 63        	lda	#$63
    3e27: 18           	clc
    3e28: 65 5e        	adc	$5e                     ; 0x205e <main+0x1aea>
    3e2a: aa           	tax
    3e2b: a9 00        	lda	#$0
    3e2d: 69 00        	adc	#$0
    3e2f: 85 12        	sta	$12                     ; 0x2012 <main+0x1a9e>
    3e31: 18           	clc
    3e32: 8a           	txa
    3e33: 69 02        	adc	#$2
    3e35: 85 5c        	sta	$5c                     ; 0x205c <main+0x1ae8>
    3e37: a5 12        	lda	$12                     ; 0x2012 <main+0x1a9e>
    3e39: 69 00        	adc	#$0
    3e3b: 85 5d        	sta	$5d                     ; 0x205d <main+0x1ae9>
    3e3d: 80 35        	bra	$3e74 <_ZN12_GLOBAL__N_15printEPKcP6Status+0xa3b>
    3e3f: 85 13        	sta	$13                     ; 0x2013 <main+0x1a9f>
    3e41: a9 80        	lda	#$80
    3e43: a0 01        	ldy	#$1
    3e45: 31 5a        	and	($5a),y                 ; 0x205a <main+0x1ae6>
    3e47: f0 04        	beq	$3e4d <_ZN12_GLOBAL__N_15printEPKcP6Status+0xa14>
    3e49: a2 61        	ldx	#$61
    3e4b: 80 02        	bra	$3e4f <_ZN12_GLOBAL__N_15printEPKcP6Status+0xa16>
    3e4d: a2 41        	ldx	#$41
    3e4f: 86 12        	stx	$12                     ; 0x2012 <main+0x1a9e>
    3e51: 18           	clc
    3e52: a5 13        	lda	$13                     ; 0x2013 <main+0x1a9f>
    3e54: 65 12        	adc	$12                     ; 0x2012 <main+0x1a9e>
    3e56: 18           	clc
    3e57: 69 f6        	adc	#$f6
    3e59: a6 5a        	ldx	$5a                     ; 0x205a <main+0x1ae6>
    3e5b: 86 12        	stx	$12                     ; 0x2012 <main+0x1a9e>
    3e5d: a6 5b        	ldx	$5b                     ; 0x205b <main+0x1ae7>
    3e5f: 86 13        	stx	$13                     ; 0x2013 <main+0x1a9f>
    3e61: 20 6d 3f     	jsr	$3f6d <_ZN12_GLOBAL__N_13putEcP6Status>
    3e64: c6 5e        	dec	$5e                     ; 0x205e <main+0x1aea>
    3e66: a2 ff        	ldx	#$ff
    3e68: c6 5c        	dec	$5c                     ; 0x205c <main+0x1ae8>
    3e6a: e4 5c        	cpx	$5c                     ; 0x205c <main+0x1ae8>
    3e6c: d0 02        	bne	$3e70 <_ZN12_GLOBAL__N_15printEPKcP6Status+0xa37>
    3e6e: c6 5d        	dec	$5d                     ; 0x205d <main+0x1ae9>
    3e70: a5 5e        	lda	$5e                     ; 0x205e <main+0x1aea>
    3e72: f0 0a        	beq	$3e7e <_ZN12_GLOBAL__N_15printEPKcP6Status+0xa45>
    3e74: b2 5c        	lda	($5c)                   ; 0x205c <main+0x1ae8>
    3e76: c9 0a        	cmp	#$a
    3e78: b0 c5        	bcs	$3e3f <_ZN12_GLOBAL__N_15printEPKcP6Status+0xa06>
    3e7a: 09 30        	ora	#$30
    3e7c: 80 db        	bra	$3e59 <_ZN12_GLOBAL__N_15printEPKcP6Status+0xa20>
    3e7e: a5 65        	lda	$65                     ; 0x2065 <main+0x1af1>
    3e80: c9 0a        	cmp	#$a
    3e82: b0 04        	bcs	$3e88 <_ZN12_GLOBAL__N_15printEPKcP6Status+0xa4f>
    3e84: 09 30        	ora	#$30
    3e86: 80 1a        	bra	$3ea2 <_ZN12_GLOBAL__N_15printEPKcP6Status+0xa69>
    3e88: 85 13        	sta	$13                     ; 0x2013 <main+0x1a9f>
    3e8a: a0 01        	ldy	#$1
    3e8c: a9 80        	lda	#$80
    3e8e: 31 5a        	and	($5a),y                 ; 0x205a <main+0x1ae6>
    3e90: f0 04        	beq	$3e96 <_ZN12_GLOBAL__N_15printEPKcP6Status+0xa5d>
    3e92: a2 61        	ldx	#$61
    3e94: 80 02        	bra	$3e98 <_ZN12_GLOBAL__N_15printEPKcP6Status+0xa5f>
    3e96: a2 41        	ldx	#$41
    3e98: 86 12        	stx	$12                     ; 0x2012 <main+0x1a9e>
    3e9a: a5 13        	lda	$13                     ; 0x2013 <main+0x1a9f>
    3e9c: 18           	clc
    3e9d: 65 12        	adc	$12                     ; 0x2012 <main+0x1a9e>
    3e9f: 18           	clc
    3ea0: 69 f6        	adc	#$f6
    3ea2: a6 5a        	ldx	$5a                     ; 0x205a <main+0x1ae6>
    3ea4: 86 12        	stx	$12                     ; 0x2012 <main+0x1a9e>
    3ea6: a6 5b        	ldx	$5b                     ; 0x205b <main+0x1ae7>
    3ea8: 86 13        	stx	$13                     ; 0x2013 <main+0x1a9f>
    3eaa: 20 6d 3f     	jsr	$3f6d <_ZN12_GLOBAL__N_13putEcP6Status>
    3ead: a0 01        	ldy	#$1
    3eaf: 98           	tya
    3eb0: 31 5a        	and	($5a),y                 ; 0x205a <main+0x1ae6>
    3eb2: f0 21        	beq	$3ed5 <_ZN12_GLOBAL__N_15printEPKcP6Status+0xa9c>
    3eb4: a5 60        	lda	$60                     ; 0x2060 <main+0x1aec>
    3eb6: f0 19        	beq	$3ed1 <_ZN12_GLOBAL__N_15printEPKcP6Status+0xa98>
    3eb8: a6 5a        	ldx	$5a                     ; 0x205a <main+0x1ae6>
    3eba: 86 12        	stx	$12                     ; 0x2012 <main+0x1a9e>
    3ebc: a6 5b        	ldx	$5b                     ; 0x205b <main+0x1ae7>
    3ebe: 86 13        	stx	$13                     ; 0x2013 <main+0x1a9f>
    3ec0: a9 20        	lda	#$20
    3ec2: 20 6d 3f     	jsr	$3f6d <_ZN12_GLOBAL__N_13putEcP6Status>
    3ec5: a2 ff        	ldx	#$ff
    3ec7: c6 5f        	dec	$5f                     ; 0x205f <main+0x1aeb>
    3ec9: e4 5f        	cpx	$5f                     ; 0x205f <main+0x1aeb>
    3ecb: d0 e7        	bne	$3eb4 <_ZN12_GLOBAL__N_15printEPKcP6Status+0xa7b>
    3ecd: c6 60        	dec	$60                     ; 0x2060 <main+0x1aec>
    3ecf: 80 e3        	bra	$3eb4 <_ZN12_GLOBAL__N_15printEPKcP6Status+0xa7b>
    3ed1: a5 5f        	lda	$5f                     ; 0x205f <main+0x1aeb>
    3ed3: d0 e3        	bne	$3eb8 <_ZN12_GLOBAL__N_15printEPKcP6Status+0xa7f>
    3ed5: a4 5a        	ldy	$5a                     ; 0x205a <main+0x1ae6>
    3ed7: a5 5a        	lda	$5a                     ; 0x205a <main+0x1ae6>
    3ed9: 84 14        	sty	$14                     ; 0x2014 <main+0x1aa0>
    3edb: 18           	clc
    3edc: 69 05        	adc	#$5
    3ede: 85 12        	sta	$12                     ; 0x2012 <main+0x1a9e>
    3ee0: a5 5b        	lda	$5b                     ; 0x205b <main+0x1ae7>
    3ee2: 69 00        	adc	#$0
    3ee4: 18           	clc
    3ee5: 85 13        	sta	$13                     ; 0x2013 <main+0x1a9f>
    3ee7: a0 01        	ldy	#$1
    3ee9: a5 14        	lda	$14                     ; 0x2014 <main+0x1aa0>
    3eeb: 69 03        	adc	#$3
    3eed: 85 14        	sta	$14                     ; 0x2014 <main+0x1aa0>
    3eef: a5 5b        	lda	$5b                     ; 0x205b <main+0x1ae7>
    3ef1: 69 00        	adc	#$0
    3ef3: aa           	tax
    3ef4: b1 12        	lda	($12),y                 ; 0x2012 <main+0x1a9e>
    3ef6: 85 15        	sta	$15                     ; 0x2015 <main+0x1aa1>
    3ef8: a4 14        	ldy	$14                     ; 0x2014 <main+0x1aa0>
    3efa: 84 12        	sty	$12                     ; 0x2012 <main+0x1a9e>
    3efc: 86 13        	stx	$13                     ; 0x2013 <main+0x1a9f>
    3efe: a0 03        	ldy	#$3
    3f00: b1 5a        	lda	($5a),y                 ; 0x205a <main+0x1ae6>
    3f02: 85 16        	sta	$16                     ; 0x2016 <main+0x1aa2>
    3f04: a0 01        	ldy	#$1
    3f06: b1 12        	lda	($12),y                 ; 0x2012 <main+0x1a9e>
    3f08: 85 17        	sta	$17                     ; 0x2017 <main+0x1aa3>
    3f0a: 85 12        	sta	$12                     ; 0x2012 <main+0x1a9e>
    3f0c: a4 15        	ldy	$15                     ; 0x2015 <main+0x1aa1>
    3f0e: c4 12        	cpy	$12                     ; 0x2012 <main+0x1a9e>
    3f10: d0 0c        	bne	$3f1e <_ZN12_GLOBAL__N_15printEPKcP6Status+0xae5>
    3f12: a6 16        	ldx	$16                     ; 0x2016 <main+0x1aa2>
    3f14: a0 05        	ldy	#$5
    3f16: b1 5a        	lda	($5a),y                 ; 0x205a <main+0x1ae6>
    3f18: 86 12        	stx	$12                     ; 0x2012 <main+0x1a9e>
    3f1a: c5 12        	cmp	$12                     ; 0x2012 <main+0x1a9e>
    3f1c: 80 08        	bra	$3f26 <_ZN12_GLOBAL__N_15printEPKcP6Status+0xaed>
    3f1e: 84 13        	sty	$13                     ; 0x2013 <main+0x1a9f>
    3f20: 85 12        	sta	$12                     ; 0x2012 <main+0x1a9e>
    3f22: a6 13        	ldx	$13                     ; 0x2013 <main+0x1a9f>
    3f24: e4 12        	cpx	$12                     ; 0x2012 <main+0x1a9e>
    3f26: a6 84        	ldx	$84                     ; 0x2084 <main+0x1b10>
    3f28: 86 12        	stx	$12                     ; 0x2012 <main+0x1a9e>
    3f2a: a6 85        	ldx	$85                     ; 0x2085 <main+0x1b11>
    3f2c: 86 13        	stx	$13                     ; 0x2013 <main+0x1a9f>
    3f2e: 90 36        	bcc	$3f66 <_ZN12_GLOBAL__N_15printEPKcP6Status+0xb2d>
    3f30: a6 16        	ldx	$16                     ; 0x2016 <main+0x1aa2>
    3f32: a5 17        	lda	$17                     ; 0x2017 <main+0x1aa3>
    3f34: d0 03        	bne	$3f39 <_ZN12_GLOBAL__N_15printEPKcP6Status+0xb00>
    3f36: 8a           	txa
    3f37: f0 2d        	beq	$3f66 <_ZN12_GLOBAL__N_15printEPKcP6Status+0xb2d>
    3f39: a5 5a        	lda	$5a                     ; 0x205a <main+0x1ae6>
    3f3b: 18           	clc
    3f3c: 69 09        	adc	#$9
    3f3e: 85 14        	sta	$14                     ; 0x2014 <main+0x1aa0>
    3f40: a5 5b        	lda	$5b                     ; 0x205b <main+0x1ae7>
    3f42: 69 00        	adc	#$0
    3f44: a0 09        	ldy	#$9
    3f46: 85 15        	sta	$15                     ; 0x2015 <main+0x1aa1>
    3f48: 18           	clc
    3f49: a5 16        	lda	$16                     ; 0x2016 <main+0x1aa2>
    3f4b: 71 5a        	adc	($5a),y                 ; 0x205a <main+0x1ae6>
    3f4d: aa           	tax
    3f4e: a0 01        	ldy	#$1
    3f50: a5 17        	lda	$17                     ; 0x2017 <main+0x1aa3>
    3f52: 71 14        	adc	($14),y                 ; 0x2014 <main+0x1aa0>
    3f54: 86 14        	stx	$14                     ; 0x2014 <main+0x1aa0>
    3f56: 85 15        	sta	$15                     ; 0x2015 <main+0x1aa1>
    3f58: a2 ff        	ldx	#$ff
    3f5a: c6 14        	dec	$14                     ; 0x2014 <main+0x1aa0>
    3f5c: e4 14        	cpx	$14                     ; 0x2014 <main+0x1aa0>
    3f5e: d0 02        	bne	$3f62 <_ZN12_GLOBAL__N_15printEPKcP6Status+0xb29>
    3f60: c6 15        	dec	$15                     ; 0x2015 <main+0x1aa1>
    3f62: a9 00        	lda	#$0
    3f64: 92 14        	sta	($14)                   ; 0x2014 <main+0x1aa0>
    3f66: e6 12        	inc	$12                     ; 0x2012 <main+0x1a9e>
    3f68: d0 02        	bne	$3f6c <_ZN12_GLOBAL__N_15printEPKcP6Status+0xb33>
    3f6a: e6 13        	inc	$13                     ; 0x2013 <main+0x1a9f>
    3f6c: 60           	rts

00003f6d <_ZN12_GLOBAL__N_13putEcP6Status>:
    3f6d: 85 18        	sta	$18                     ; 0x2018 <main+0x1aa4>
    3f6f: a6 13        	ldx	$13                     ; 0x2013 <main+0x1a9f>
    3f71: 18           	clc
    3f72: a5 12        	lda	$12                     ; 0x2012 <main+0x1a9e>
    3f74: 69 05        	adc	#$5
    3f76: a8           	tay
    3f77: a5 13        	lda	$13                     ; 0x2013 <main+0x1a9f>
    3f79: 86 15        	stx	$15                     ; 0x2015 <main+0x1aa1>
    3f7b: 69 00        	adc	#$0
    3f7d: 18           	clc
    3f7e: 84 16        	sty	$16                     ; 0x2016 <main+0x1aa2>
    3f80: a0 05        	ldy	#$5
    3f82: 85 17        	sta	$17                     ; 0x2017 <main+0x1aa3>
    3f84: b1 12        	lda	($12),y                 ; 0x2012 <main+0x1a9e>
    3f86: aa           	tax
    3f87: a5 12        	lda	$12                     ; 0x2012 <main+0x1a9e>
    3f89: 69 03        	adc	#$3
    3f8b: 85 14        	sta	$14                     ; 0x2014 <main+0x1aa0>
    3f8d: a5 15        	lda	$15                     ; 0x2015 <main+0x1aa1>
    3f8f: 69 00        	adc	#$0
    3f91: 85 15        	sta	$15                     ; 0x2015 <main+0x1aa1>
    3f93: a0 01        	ldy	#$1
    3f95: b1 16        	lda	($16),y                 ; 0x2016 <main+0x1aa2>
    3f97: d1 14        	cmp	($14),y                 ; 0x2014 <main+0x1aa0>
    3f99: d0 11        	bne	$3fac <_ZN12_GLOBAL__N_13putEcP6Status+0x3f>
    3f9b: a0 03        	ldy	#$3
    3f9d: 85 17        	sta	$17                     ; 0x2017 <main+0x1aa3>
    3f9f: b1 12        	lda	($12),y                 ; 0x2012 <main+0x1a9e>
    3fa1: 85 14        	sta	$14                     ; 0x2014 <main+0x1aa0>
    3fa3: 86 16        	stx	$16                     ; 0x2016 <main+0x1aa2>
    3fa5: e4 14        	cpx	$14                     ; 0x2014 <main+0x1aa0>
    3fa7: 90 0e        	bcc	$3fb7 <_ZN12_GLOBAL__N_13putEcP6Status+0x4a>
    3fa9: 4c 20 40     	jmp	$4020 <_ZN12_GLOBAL__N_13putEcP6Status+0xb3>
    3fac: 86 16        	stx	$16                     ; 0x2016 <main+0x1aa2>
    3fae: d1 14        	cmp	($14),y                 ; 0x2014 <main+0x1aa0>
    3fb0: 85 17        	sta	$17                     ; 0x2017 <main+0x1aa3>
    3fb2: 90 03        	bcc	$3fb7 <_ZN12_GLOBAL__N_13putEcP6Status+0x4a>
    3fb4: 4c 20 40     	jmp	$4020 <_ZN12_GLOBAL__N_13putEcP6Status+0xb3>
    3fb7: a5 12        	lda	$12                     ; 0x2012 <main+0x1a9e>
    3fb9: 18           	clc
    3fba: 69 0f        	adc	#$f
    3fbc: 85 14        	sta	$14                     ; 0x2014 <main+0x1aa0>
    3fbe: a5 13        	lda	$13                     ; 0x2013 <main+0x1a9f>
    3fc0: 69 00        	adc	#$0
    3fc2: 85 15        	sta	$15                     ; 0x2015 <main+0x1aa1>
    3fc4: a0 01        	ldy	#$1
    3fc6: b1 14        	lda	($14),y                 ; 0x2014 <main+0x1aa0>
    3fc8: a2 00        	ldx	#$0
    3fca: 86 14        	stx	$14                     ; 0x2014 <main+0x1aa0>
    3fcc: a2 00        	ldx	#$0
    3fce: 86 15        	stx	$15                     ; 0x2015 <main+0x1aa1>
    3fd0: c5 15        	cmp	$15                     ; 0x2015 <main+0x1aa1>
    3fd2: d0 2d        	bne	$4001 <_ZN12_GLOBAL__N_13putEcP6Status+0x94>
    3fd4: a0 0f        	ldy	#$f
    3fd6: b1 12        	lda	($12),y                 ; 0x2012 <main+0x1a9e>
    3fd8: c5 14        	cmp	$14                     ; 0x2014 <main+0x1aa0>
    3fda: d0 25        	bne	$4001 <_ZN12_GLOBAL__N_13putEcP6Status+0x94>
    3fdc: a5 12        	lda	$12                     ; 0x2012 <main+0x1a9e>
    3fde: 18           	clc
    3fdf: 69 09        	adc	#$9
    3fe1: 85 14        	sta	$14                     ; 0x2014 <main+0x1aa0>
    3fe3: a5 13        	lda	$13                     ; 0x2013 <main+0x1a9f>
    3fe5: 69 00        	adc	#$0
    3fe7: a0 09        	ldy	#$9
    3fe9: 85 15        	sta	$15                     ; 0x2015 <main+0x1aa1>
    3feb: 18           	clc
    3fec: a5 16        	lda	$16                     ; 0x2016 <main+0x1aa2>
    3fee: 71 12        	adc	($12),y                 ; 0x2012 <main+0x1a9e>
    3ff0: aa           	tax
    3ff1: a0 01        	ldy	#$1
    3ff3: a5 17        	lda	$17                     ; 0x2017 <main+0x1aa3>
    3ff5: 71 14        	adc	($14),y                 ; 0x2014 <main+0x1aa0>
    3ff7: 86 14        	stx	$14                     ; 0x2014 <main+0x1aa0>
    3ff9: 85 15        	sta	$15                     ; 0x2015 <main+0x1aa1>
    3ffb: a5 18        	lda	$18                     ; 0x2018 <main+0x1aa4>
    3ffd: 92 14        	sta	($14)                   ; 0x2014 <main+0x1aa0>
    3fff: 80 1f        	bra	$4020 <_ZN12_GLOBAL__N_13putEcP6Status+0xb3>
    4001: a6 12        	ldx	$12                     ; 0x2012 <main+0x1a9e>
    4003: 86 97        	stx	$97                     ; 0x2097 <main+0x1b23>
    4005: a6 13        	ldx	$13                     ; 0x2013 <main+0x1a9f>
    4007: 86 98        	stx	$98                     ; 0x2098 <main+0x1b24>
    4009: a5 18        	lda	$18                     ; 0x2018 <main+0x1aa4>
    400b: 85 35        	sta	$35                     ; 0x2035 <main+0x1ac1>
    400d: a2 35        	ldx	#$35
    400f: 86 12        	stx	$12                     ; 0x2012 <main+0x1a9e>
    4011: a2 00        	ldx	#$0
    4013: 86 13        	stx	$13                     ; 0x2013 <main+0x1a9f>
    4015: 20 c5 2c     	jsr	$2cc5 <textPrint>
    4018: a6 97        	ldx	$97                     ; 0x2097 <main+0x1b23>
    401a: 86 12        	stx	$12                     ; 0x2012 <main+0x1a9e>
    401c: a6 98        	ldx	$98                     ; 0x2098 <main+0x1b24>
    401e: 86 13        	stx	$13                     ; 0x2013 <main+0x1a9f>
    4020: a0 05        	ldy	#$5
    4022: a5 12        	lda	$12                     ; 0x2012 <main+0x1a9e>
    4024: 18           	clc
    4025: 69 05        	adc	#$5
    4027: 85 14        	sta	$14                     ; 0x2014 <main+0x1aa0>
    4029: a5 13        	lda	$13                     ; 0x2013 <main+0x1a9f>
    402b: 69 00        	adc	#$0
    402d: 85 15        	sta	$15                     ; 0x2015 <main+0x1aa1>
    402f: b1 12        	lda	($12),y                 ; 0x2012 <main+0x1a9e>
    4031: aa           	tax
    4032: a0 01        	ldy	#$1
    4034: b1 14        	lda	($14),y                 ; 0x2014 <main+0x1aa0>
    4036: e8           	inx
    4037: d0 01        	bne	$403a <_ZN12_GLOBAL__N_13putEcP6Status+0xcd>
    4039: 1a           	inc
    403a: 85 16        	sta	$16                     ; 0x2016 <main+0x1aa2>
    403c: 8a           	txa
    403d: a0 05        	ldy	#$5
    403f: 91 12        	sta	($12),y                 ; 0x2012 <main+0x1a9e>
    4041: a0 01        	ldy	#$1
    4043: a5 16        	lda	$16                     ; 0x2016 <main+0x1aa2>
    4045: 91 14        	sta	($14),y                 ; 0x2014 <main+0x1aa0>
    4047: 60           	rts

00004048 <_ZN12_GLOBAL__N_112print_stringEPKcP6Status>:
    4048: a6 12        	ldx	$12                     ; 0x2012 <main+0x1a9e>
    404a: 86 8f        	stx	$8f                     ; 0x208f <main+0x1b1b>
    404c: a6 13        	ldx	$13                     ; 0x2013 <main+0x1a9f>
    404e: 86 90        	stx	$90                     ; 0x2090 <main+0x1b1c>
    4050: a6 14        	ldx	$14                     ; 0x2014 <main+0x1aa0>
    4052: 86 91        	stx	$91                     ; 0x2091 <main+0x1b1d>
    4054: a6 15        	ldx	$15                     ; 0x2015 <main+0x1aa1>
    4056: 86 92        	stx	$92                     ; 0x2092 <main+0x1b1e>
    4058: a5 91        	lda	$91                     ; 0x2091 <main+0x1b1d>
    405a: 18           	clc
    405b: 69 0d        	adc	#$d
    405d: 85 12        	sta	$12                     ; 0x2012 <main+0x1a9e>
    405f: a5 92        	lda	$92                     ; 0x2092 <main+0x1b1e>
    4061: 69 00        	adc	#$0
    4063: 85 13        	sta	$13                     ; 0x2013 <main+0x1a9f>
    4065: a0 01        	ldy	#$1
    4067: b1 12        	lda	($12),y                 ; 0x2012 <main+0x1a9e>
    4069: 30 16        	bmi	$4081 <_ZN12_GLOBAL__N_112print_stringEPKcP6Status+0x39>
    406b: a0 0d        	ldy	#$d
    406d: 85 12        	sta	$12                     ; 0x2012 <main+0x1a9e>
    406f: b1 91        	lda	($91),y                 ; 0x2091 <main+0x1b1d>
    4071: a6 12        	ldx	$12                     ; 0x2012 <main+0x1a9e>
    4073: 86 96        	stx	$96                     ; 0x2096 <main+0x1b22>
    4075: d0 0f        	bne	$4086 <_ZN12_GLOBAL__N_112print_stringEPKcP6Status+0x3e>
    4077: aa           	tax
    4078: d0 0c        	bne	$4086 <_ZN12_GLOBAL__N_112print_stringEPKcP6Status+0x3e>
    407a: 64 93        	stz	$93                     ; 0x2093 <main+0x1b1f>
    407c: a2 00        	ldx	#$0
    407e: 4c 4f 41     	jmp	$414f <_ZN12_GLOBAL__N_112print_stringEPKcP6Status+0x107>
    4081: a9 ff        	lda	#$ff
    4083: aa           	tax
    4084: 86 96        	stx	$96                     ; 0x2096 <main+0x1b22>
    4086: 85 93        	sta	$93                     ; 0x2093 <main+0x1b1f>
    4088: 64 12        	stz	$12                     ; 0x2012 <main+0x1a9e>
    408a: a4 8f        	ldy	$8f                     ; 0x208f <main+0x1b1b>
    408c: a6 90        	ldx	$90                     ; 0x2090 <main+0x1b1c>
    408e: 86 16        	stx	$16                     ; 0x2016 <main+0x1aa2>
    4090: 64 13        	stz	$13                     ; 0x2013 <main+0x1a9f>
    4092: 98           	tya
    4093: 18           	clc
    4094: 65 12        	adc	$12                     ; 0x2012 <main+0x1a9e>
    4096: 85 14        	sta	$14                     ; 0x2014 <main+0x1aa0>
    4098: a5 90        	lda	$90                     ; 0x2090 <main+0x1b1c>
    409a: 65 13        	adc	$13                     ; 0x2013 <main+0x1a9f>
    409c: 85 15        	sta	$15                     ; 0x2015 <main+0x1aa1>
    409e: b2 14        	lda	($14)                   ; 0x2014 <main+0x1aa0>
    40a0: d0 03        	bne	$40a5 <_ZN12_GLOBAL__N_112print_stringEPKcP6Status+0x5d>
    40a2: 4c 49 41     	jmp	$4149 <_ZN12_GLOBAL__N_112print_stringEPKcP6Status+0x101>
    40a5: e6 12        	inc	$12                     ; 0x2012 <main+0x1a9e>
    40a7: d0 02        	bne	$40ab <_ZN12_GLOBAL__N_112print_stringEPKcP6Status+0x63>
    40a9: e6 13        	inc	$13                     ; 0x2013 <main+0x1a9f>
    40ab: a6 96        	ldx	$96                     ; 0x2096 <main+0x1b22>
    40ad: e4 13        	cpx	$13                     ; 0x2013 <main+0x1a9f>
    40af: d0 e1        	bne	$4092 <_ZN12_GLOBAL__N_112print_stringEPKcP6Status+0x4a>
    40b1: a6 93        	ldx	$93                     ; 0x2093 <main+0x1b1f>
    40b3: e4 12        	cpx	$12                     ; 0x2012 <main+0x1a9e>
    40b5: d0 db        	bne	$4092 <_ZN12_GLOBAL__N_112print_stringEPKcP6Status+0x4a>
    40b7: a0 01        	ldy	#$1
    40b9: b1 91        	lda	($91),y                 ; 0x2091 <main+0x1b1d>
    40bb: 29 01        	and	#$1
    40bd: f0 03        	beq	$40c2 <_ZN12_GLOBAL__N_112print_stringEPKcP6Status+0x7a>
    40bf: 4c 1a 41     	jmp	$411a <_ZN12_GLOBAL__N_112print_stringEPKcP6Status+0xd2>
    40c2: a5 91        	lda	$91                     ; 0x2091 <main+0x1b1d>
    40c4: 18           	clc
    40c5: 69 0b        	adc	#$b
    40c7: 85 14        	sta	$14                     ; 0x2014 <main+0x1aa0>
    40c9: a5 92        	lda	$92                     ; 0x2092 <main+0x1b1e>
    40cb: 69 00        	adc	#$0
    40cd: 85 15        	sta	$15                     ; 0x2015 <main+0x1aa1>
    40cf: a0 0b        	ldy	#$b
    40d1: b1 91        	lda	($91),y                 ; 0x2091 <main+0x1b1d>
    40d3: 85 13        	sta	$13                     ; 0x2013 <main+0x1a9f>
    40d5: a0 01        	ldy	#$1
    40d7: b1 14        	lda	($14),y                 ; 0x2014 <main+0x1aa0>
    40d9: 85 12        	sta	$12                     ; 0x2012 <main+0x1a9e>
    40db: a6 96        	ldx	$96                     ; 0x2096 <main+0x1b22>
    40dd: e4 12        	cpx	$12                     ; 0x2012 <main+0x1a9e>
    40df: d0 08        	bne	$40e9 <_ZN12_GLOBAL__N_112print_stringEPKcP6Status+0xa1>
    40e1: a6 93        	ldx	$93                     ; 0x2093 <main+0x1b1f>
    40e3: e4 13        	cpx	$13                     ; 0x2013 <main+0x1a9f>
    40e5: 90 06        	bcc	$40ed <_ZN12_GLOBAL__N_112print_stringEPKcP6Status+0xa5>
    40e7: 80 31        	bra	$411a <_ZN12_GLOBAL__N_112print_stringEPKcP6Status+0xd2>
    40e9: e4 12        	cpx	$12                     ; 0x2012 <main+0x1a9e>
    40eb: b0 2d        	bcs	$411a <_ZN12_GLOBAL__N_112print_stringEPKcP6Status+0xd2>
    40ed: 38           	sec
    40ee: a5 93        	lda	$93                     ; 0x2093 <main+0x1b1f>
    40f0: e5 13        	sbc	$13                     ; 0x2013 <main+0x1a9f>
    40f2: a8           	tay
    40f3: a5 96        	lda	$96                     ; 0x2096 <main+0x1b22>
    40f5: e5 12        	sbc	$12                     ; 0x2012 <main+0x1a9e>
    40f7: 85 95        	sta	$95                     ; 0x2095 <main+0x1b21>
    40f9: a6 91        	ldx	$91                     ; 0x2091 <main+0x1b1d>
    40fb: 86 12        	stx	$12                     ; 0x2012 <main+0x1a9e>
    40fd: a6 92        	ldx	$92                     ; 0x2092 <main+0x1b1e>
    40ff: 86 13        	stx	$13                     ; 0x2013 <main+0x1a9f>
    4101: 84 94        	sty	$94                     ; 0x2094 <main+0x1b20>
    4103: a9 20        	lda	#$20
    4105: 20 6d 3f     	jsr	$3f6d <_ZN12_GLOBAL__N_13putEcP6Status>
    4108: a6 95        	ldx	$95                     ; 0x2095 <main+0x1b21>
    410a: e6 94        	inc	$94                     ; 0x2094 <main+0x1b20>
    410c: d0 01        	bne	$410f <_ZN12_GLOBAL__N_112print_stringEPKcP6Status+0xc7>
    410e: e8           	inx
    410f: 86 95        	stx	$95                     ; 0x2095 <main+0x1b21>
    4111: a4 94        	ldy	$94                     ; 0x2094 <main+0x1b20>
    4113: 8a           	txa
    4114: d0 e3        	bne	$40f9 <_ZN12_GLOBAL__N_112print_stringEPKcP6Status+0xb1>
    4116: a5 94        	lda	$94                     ; 0x2094 <main+0x1b20>
    4118: d0 df        	bne	$40f9 <_ZN12_GLOBAL__N_112print_stringEPKcP6Status+0xb1>
    411a: a4 96        	ldy	$96                     ; 0x2096 <main+0x1b22>
    411c: d0 04        	bne	$4122 <_ZN12_GLOBAL__N_112print_stringEPKcP6Status+0xda>
    411e: a5 93        	lda	$93                     ; 0x2093 <main+0x1b1f>
    4120: f0 26        	beq	$4148 <_ZN12_GLOBAL__N_112print_stringEPKcP6Status+0x100>
    4122: a2 ff        	ldx	#$ff
    4124: c6 93        	dec	$93                     ; 0x2093 <main+0x1b1f>
    4126: e4 93        	cpx	$93                     ; 0x2093 <main+0x1b1f>
    4128: d0 01        	bne	$412b <_ZN12_GLOBAL__N_112print_stringEPKcP6Status+0xe3>
    412a: 88           	dey
    412b: 84 94        	sty	$94                     ; 0x2094 <main+0x1b20>
    412d: b2 8f        	lda	($8f)                   ; 0x208f <main+0x1b1b>
    412f: e6 8f        	inc	$8f                     ; 0x208f <main+0x1b1b>
    4131: d0 02        	bne	$4135 <_ZN12_GLOBAL__N_112print_stringEPKcP6Status+0xed>
    4133: e6 90        	inc	$90                     ; 0x2090 <main+0x1b1c>
    4135: a6 91        	ldx	$91                     ; 0x2091 <main+0x1b1d>
    4137: 86 12        	stx	$12                     ; 0x2012 <main+0x1a9e>
    4139: a6 92        	ldx	$92                     ; 0x2092 <main+0x1b1e>
    413b: 86 13        	stx	$13                     ; 0x2013 <main+0x1a9f>
    413d: 20 6d 3f     	jsr	$3f6d <_ZN12_GLOBAL__N_13putEcP6Status>
    4140: a4 94        	ldy	$94                     ; 0x2094 <main+0x1b20>
    4142: d0 de        	bne	$4122 <_ZN12_GLOBAL__N_112print_stringEPKcP6Status+0xda>
    4144: a5 93        	lda	$93                     ; 0x2093 <main+0x1b1f>
    4146: d0 da        	bne	$4122 <_ZN12_GLOBAL__N_112print_stringEPKcP6Status+0xda>
    4148: 60           	rts
    4149: a6 12        	ldx	$12                     ; 0x2012 <main+0x1a9e>
    414b: 86 93        	stx	$93                     ; 0x2093 <main+0x1b1f>
    414d: a6 13        	ldx	$13                     ; 0x2013 <main+0x1a9f>
    414f: 86 96        	stx	$96                     ; 0x2096 <main+0x1b22>
    4151: 4c b7 40     	jmp	$40b7 <_ZN12_GLOBAL__N_112print_stringEPKcP6Status+0x6f>

00004154 <printf>:
    4154: 18           	clc
    4155: a6 10        	ldx	$10                     ; 0x2010 <main+0x1a9c>
    4157: a4 11        	ldy	$11                     ; 0x2011 <main+0x1a9d>
    4159: 86 58        	stx	$58                     ; 0x2058 <main+0x1ae4>
    415b: 84 59        	sty	$59                     ; 0x2059 <main+0x1ae5>
    415d: a6 58        	ldx	$58                     ; 0x2058 <main+0x1ae4>
    415f: a4 59        	ldy	$59                     ; 0x2059 <main+0x1ae5>
    4161: 86 43        	stx	$43                     ; 0x2043 <main+0x1acf>
    4163: 84 44        	sty	$44                     ; 0x2044 <main+0x1ad0>
    4165: a2 ff        	ldx	#$ff
    4167: 86 48        	stx	$48                     ; 0x2048 <main+0x1ad4>
    4169: 86 49        	stx	$49                     ; 0x2049 <main+0x1ad5>
    416b: 64 4a        	stz	$4a                     ; 0x204a <main+0x1ad6>
    416d: 64 4b        	stz	$4b                     ; 0x204b <main+0x1ad7>
    416f: e8           	inx
    4170: 86 14        	stx	$14                     ; 0x2014 <main+0x1aa0>
    4172: a2 00        	ldx	#$0
    4174: 86 15        	stx	$15                     ; 0x2015 <main+0x1aa1>
    4176: a6 14        	ldx	$14                     ; 0x2014 <main+0x1aa0>
    4178: a4 15        	ldy	$15                     ; 0x2015 <main+0x1aa1>
    417a: 86 4e        	stx	$4e                     ; 0x204e <main+0x1ada>
    417c: 84 4f        	sty	$4f                     ; 0x204f <main+0x1adb>
    417e: a2 02        	ldx	#$2
    4180: 86 54        	stx	$54                     ; 0x2054 <main+0x1ae0>
    4182: 64 55        	stz	$55                     ; 0x2055 <main+0x1ae1>
    4184: a6 43        	ldx	$43                     ; 0x2043 <main+0x1acf>
    4186: a4 44        	ldy	$44                     ; 0x2044 <main+0x1ad0>
    4188: 86 56        	stx	$56                     ; 0x2056 <main+0x1ae2>
    418a: 84 57        	sty	$57                     ; 0x2057 <main+0x1ae3>
    418c: a6 12        	ldx	$12                     ; 0x2012 <main+0x1a9e>
    418e: 86 41        	stx	$41                     ; 0x2041 <main+0x1acd>
    4190: a6 13        	ldx	$13                     ; 0x2013 <main+0x1a9f>
    4192: 86 42        	stx	$42                     ; 0x2042 <main+0x1ace>
    4194: b2 12        	lda	($12)                   ; 0x2012 <main+0x1a9e>
    4196: c9 25        	cmp	#$25
    4198: f0 26        	beq	$41c0 <printf+0x6c>
    419a: aa           	tax
    419b: f0 3e        	beq	$41db <printf+0x87>
    419d: 85 35        	sta	$35                     ; 0x2035 <main+0x1ac1>
    419f: a2 35        	ldx	#$35
    41a1: 86 12        	stx	$12                     ; 0x2012 <main+0x1a9e>
    41a3: a2 00        	ldx	#$0
    41a5: 86 13        	stx	$13                     ; 0x2013 <main+0x1a9f>
    41a7: 20 c5 2c     	jsr	$2cc5 <textPrint>
    41aa: e6 41        	inc	$41                     ; 0x2041 <main+0x1acd>
    41ac: d0 02        	bne	$41b0 <printf+0x5c>
    41ae: e6 42        	inc	$42                     ; 0x2042 <main+0x1ace>
    41b0: e6 4a        	inc	$4a                     ; 0x204a <main+0x1ad6>
    41b2: d0 02        	bne	$41b6 <printf+0x62>
    41b4: e6 4b        	inc	$4b                     ; 0x204b <main+0x1ad7>
    41b6: a6 41        	ldx	$41                     ; 0x2041 <main+0x1acd>
    41b8: 86 12        	stx	$12                     ; 0x2012 <main+0x1a9e>
    41ba: a6 42        	ldx	$42                     ; 0x2042 <main+0x1ace>
    41bc: 86 13        	stx	$13                     ; 0x2013 <main+0x1a9f>
    41be: 80 cc        	bra	$418c <printf+0x38>
    41c0: a2 45        	ldx	#$45
    41c2: 86 14        	stx	$14                     ; 0x2014 <main+0x1aa0>
    41c4: a2 00        	ldx	#$0
    41c6: 86 15        	stx	$15                     ; 0x2015 <main+0x1aa1>
    41c8: 20 39 34     	jsr	$3439 <_ZN12_GLOBAL__N_15printEPKcP6Status>
    41cb: a6 13        	ldx	$13                     ; 0x2013 <main+0x1a9f>
    41cd: e4 42        	cpx	$42                     ; 0x2042 <main+0x1ace>
    41cf: d0 bb        	bne	$418c <printf+0x38>
    41d1: a6 12        	ldx	$12                     ; 0x2012 <main+0x1a9e>
    41d3: e4 41        	cpx	$41                     ; 0x2041 <main+0x1acd>
    41d5: d0 b5        	bne	$418c <printf+0x38>
    41d7: b2 41        	lda	($41)                   ; 0x2041 <main+0x1acd>
    41d9: 80 c2        	bra	$419d <printf+0x49>
    41db: 60           	rts

000041dc <sprintf>:
    41dc: 18           	clc
    41dd: a6 10        	ldx	$10                     ; 0x2010 <main+0x1a9c>
    41df: a4 11        	ldy	$11                     ; 0x2011 <main+0x1a9d>
    41e1: 86 58        	stx	$58                     ; 0x2058 <main+0x1ae4>
    41e3: 84 59        	sty	$59                     ; 0x2059 <main+0x1ae5>
    41e5: a6 58        	ldx	$58                     ; 0x2058 <main+0x1ae4>
    41e7: a4 59        	ldy	$59                     ; 0x2059 <main+0x1ae5>
    41e9: 86 43        	stx	$43                     ; 0x2043 <main+0x1acf>
    41eb: 84 44        	sty	$44                     ; 0x2044 <main+0x1ad0>
    41ed: a2 ff        	ldx	#$ff
    41ef: 86 48        	stx	$48                     ; 0x2048 <main+0x1ad4>
    41f1: 86 49        	stx	$49                     ; 0x2049 <main+0x1ad5>
    41f3: 64 4a        	stz	$4a                     ; 0x204a <main+0x1ad6>
    41f5: 64 4b        	stz	$4b                     ; 0x204b <main+0x1ad7>
    41f7: a9 23        	lda	#$23
    41f9: 85 4e        	sta	$4e                     ; 0x204e <main+0x1ada>
    41fb: a2 83        	ldx	#$83
    41fd: 86 4f        	stx	$4f                     ; 0x204f <main+0x1adb>
    41ff: a2 00        	ldx	#$0
    4201: 86 12        	stx	$12                     ; 0x2012 <main+0x1a9e>
    4203: a2 00        	ldx	#$0
    4205: 86 13        	stx	$13                     ; 0x2013 <main+0x1a9f>
    4207: a6 12        	ldx	$12                     ; 0x2012 <main+0x1a9e>
    4209: a4 13        	ldy	$13                     ; 0x2013 <main+0x1a9f>
    420b: 86 54        	stx	$54                     ; 0x2054 <main+0x1ae0>
    420d: 84 55        	sty	$55                     ; 0x2055 <main+0x1ae1>
    420f: a6 43        	ldx	$43                     ; 0x2043 <main+0x1acf>
    4211: a4 44        	ldy	$44                     ; 0x2044 <main+0x1ad0>
    4213: 86 56        	stx	$56                     ; 0x2056 <main+0x1ae2>
    4215: 84 57        	sty	$57                     ; 0x2057 <main+0x1ae3>
    4217: a2 23        	ldx	#$23
    4219: 86 12        	stx	$12                     ; 0x2012 <main+0x1a9e>
    421b: a2 48        	ldx	#$48
    421d: 86 13        	stx	$13                     ; 0x2013 <main+0x1a9f>
    421f: 80 17        	bra	$4238 <sprintf+0x5c>
    4221: a2 45        	ldx	#$45
    4223: 86 14        	stx	$14                     ; 0x2014 <main+0x1aa0>
    4225: a2 00        	ldx	#$0
    4227: 86 15        	stx	$15                     ; 0x2015 <main+0x1aa1>
    4229: 20 39 34     	jsr	$3439 <_ZN12_GLOBAL__N_15printEPKcP6Status>
    422c: a6 13        	ldx	$13                     ; 0x2013 <main+0x1a9f>
    422e: e4 42        	cpx	$42                     ; 0x2042 <main+0x1ace>
    4230: d0 06        	bne	$4238 <sprintf+0x5c>
    4232: a6 12        	ldx	$12                     ; 0x2012 <main+0x1a9e>
    4234: e4 41        	cpx	$41                     ; 0x2041 <main+0x1acd>
    4236: f0 11        	beq	$4249 <sprintf+0x6d>
    4238: a6 12        	ldx	$12                     ; 0x2012 <main+0x1a9e>
    423a: 86 41        	stx	$41                     ; 0x2041 <main+0x1acd>
    423c: a6 13        	ldx	$13                     ; 0x2013 <main+0x1a9f>
    423e: 86 42        	stx	$42                     ; 0x2042 <main+0x1ace>
    4240: b2 12        	lda	($12)                   ; 0x2012 <main+0x1a9e>
    4242: c9 25        	cmp	#$25
    4244: f0 db        	beq	$4221 <sprintf+0x45>
    4246: aa           	tax
    4247: f0 43        	beq	$428c <sprintf+0xb0>
    4249: a6 4a        	ldx	$4a                     ; 0x204a <main+0x1ad6>
    424b: 86 12        	stx	$12                     ; 0x2012 <main+0x1a9e>
    424d: a4 4b        	ldy	$4b                     ; 0x204b <main+0x1ad7>
    424f: 84 13        	sty	$13                     ; 0x2013 <main+0x1a9f>
    4251: c0 ff        	cpy	#$ff
    4253: d0 04        	bne	$4259 <sprintf+0x7d>
    4255: e0 ff        	cpx	#$ff
    4257: f0 15        	beq	$426e <sprintf+0x92>
    4259: b2 41        	lda	($41)                   ; 0x2041 <main+0x1acd>
    425b: 85 16        	sta	$16                     ; 0x2016 <main+0x1aa2>
    425d: a9 23        	lda	#$23
    425f: 18           	clc
    4260: 65 12        	adc	$12                     ; 0x2012 <main+0x1a9e>
    4262: 85 14        	sta	$14                     ; 0x2014 <main+0x1aa0>
    4264: a9 83        	lda	#$83
    4266: 65 13        	adc	$13                     ; 0x2013 <main+0x1a9f>
    4268: 85 15        	sta	$15                     ; 0x2015 <main+0x1aa1>
    426a: a5 16        	lda	$16                     ; 0x2016 <main+0x1aa2>
    426c: 92 14        	sta	($14)                   ; 0x2014 <main+0x1aa0>
    426e: e6 12        	inc	$12                     ; 0x2012 <main+0x1a9e>
    4270: d0 02        	bne	$4274 <sprintf+0x98>
    4272: e6 13        	inc	$13                     ; 0x2013 <main+0x1a9f>
    4274: a6 12        	ldx	$12                     ; 0x2012 <main+0x1a9e>
    4276: a4 13        	ldy	$13                     ; 0x2013 <main+0x1a9f>
    4278: 86 4a        	stx	$4a                     ; 0x204a <main+0x1ad6>
    427a: 84 4b        	sty	$4b                     ; 0x204b <main+0x1ad7>
    427c: e6 41        	inc	$41                     ; 0x2041 <main+0x1acd>
    427e: d0 02        	bne	$4282 <sprintf+0xa6>
    4280: e6 42        	inc	$42                     ; 0x2042 <main+0x1ace>
    4282: a6 41        	ldx	$41                     ; 0x2041 <main+0x1acd>
    4284: 86 12        	stx	$12                     ; 0x2012 <main+0x1a9e>
    4286: a6 42        	ldx	$42                     ; 0x2042 <main+0x1ace>
    4288: 86 13        	stx	$13                     ; 0x2013 <main+0x1a9f>
    428a: 80 ac        	bra	$4238 <sprintf+0x5c>
    428c: a6 4a        	ldx	$4a                     ; 0x204a <main+0x1ad6>
    428e: 86 12        	stx	$12                     ; 0x2012 <main+0x1a9e>
    4290: a4 4b        	ldy	$4b                     ; 0x204b <main+0x1ad7>
    4292: 84 13        	sty	$13                     ; 0x2013 <main+0x1a9f>
    4294: c0 ff        	cpy	#$ff
    4296: d0 04        	bne	$429c <sprintf+0xc0>
    4298: e0 ff        	cpx	#$ff
    429a: f0 11        	beq	$42ad <sprintf+0xd1>
    429c: a9 23        	lda	#$23
    429e: 18           	clc
    429f: 65 12        	adc	$12                     ; 0x2012 <main+0x1a9e>
    42a1: 85 12        	sta	$12                     ; 0x2012 <main+0x1a9e>
    42a3: a9 83        	lda	#$83
    42a5: 65 13        	adc	$13                     ; 0x2013 <main+0x1a9f>
    42a7: 85 13        	sta	$13                     ; 0x2013 <main+0x1a9f>
    42a9: a9 00        	lda	#$0
    42ab: 92 12        	sta	($12)                   ; 0x2012 <main+0x1a9e>
    42ad: 60           	rts

000042ae <malloc>:
    42ae: a8           	tay
    42af: 8a           	txa
    42b0: a2 00        	ldx	#$0
    42b2: 86 12        	stx	$12                     ; 0x2012 <main+0x1a9e>
    42b4: a2 00        	ldx	#$0
    42b6: 86 13        	stx	$13                     ; 0x2013 <main+0x1a9f>
    42b8: aa           	tax
    42b9: d0 07        	bne	$42c2 <malloc+0x14>
    42bb: c0 00        	cpy	#$0
    42bd: d0 03        	bne	$42c2 <malloc+0x14>
    42bf: 4c b4 43     	jmp	$43b4 <malloc+0x106>
    42c2: 84 16        	sty	$16                     ; 0x2016 <main+0x1aa2>
    42c4: aa           	tax
    42c5: d0 0e        	bne	$42d5 <malloc+0x27>
    42c7: a6 16        	ldx	$16                     ; 0x2016 <main+0x1aa2>
    42c9: e0 07        	cpx	#$7
    42cb: b0 0c        	bcs	$42d9 <malloc+0x2b>
    42cd: a2 08        	ldx	#$8
    42cf: 86 42        	stx	$42                     ; 0x2042 <main+0x1ace>
    42d1: a9 00        	lda	#$0
    42d3: 80 2f        	bra	$4304 <malloc+0x56>
    42d5: c9 00        	cmp	#$0
    42d7: 90 f4        	bcc	$42cd <malloc+0x1f>
    42d9: a8           	tay
    42da: a5 16        	lda	$16                     ; 0x2016 <main+0x1aa2>
    42dc: 29 01        	and	#$1
    42de: a2 02        	ldx	#$2
    42e0: 64 14        	stz	$14                     ; 0x2014 <main+0x1aa0>
    42e2: c9 00        	cmp	#$0
    42e4: f0 02        	beq	$42e8 <malloc+0x3a>
    42e6: a2 03        	ldx	#$3
    42e8: 86 15        	stx	$15                     ; 0x2015 <main+0x1aa1>
    42ea: 18           	clc
    42eb: a5 16        	lda	$16                     ; 0x2016 <main+0x1aa2>
    42ed: 65 15        	adc	$15                     ; 0x2015 <main+0x1aa1>
    42ef: aa           	tax
    42f0: 98           	tya
    42f1: 65 14        	adc	$14                     ; 0x2014 <main+0x1aa0>
    42f3: 90 03        	bcc	$42f8 <malloc+0x4a>
    42f5: 4c b4 43     	jmp	$43b4 <malloc+0x106>
    42f8: 86 42        	stx	$42                     ; 0x2042 <main+0x1ace>
    42fa: a8           	tay
    42fb: d0 07        	bne	$4304 <malloc+0x56>
    42fd: e0 00        	cpx	#$0
    42ff: d0 03        	bne	$4304 <malloc+0x56>
    4301: 4c b4 43     	jmp	$43b4 <malloc+0x106>
    4304: 85 41        	sta	$41                     ; 0x2041 <main+0x1acd>
    4306: ad 63 83     	lda	$8363                   ; 0x8363 <_ZN12_GLOBAL__N_111initializedE>
    4309: 29 01        	and	#$1
    430b: d0 2d        	bne	$433a <malloc+0x8c>
    430d: a9 00        	lda	#$0
    430f: a2 10        	ldx	#$10
    4311: a0 6a        	ldy	#$6a
    4313: 84 12        	sty	$12                     ; 0x2012 <main+0x1a9e>
    4315: a0 83        	ldy	#$83
    4317: 84 13        	sty	$13                     ; 0x2013 <main+0x1a9f>
    4319: 20 1a 03     	jsr	$31a <_ZN12_GLOBAL__N_19FreeChunk6insertEPvj>
    431c: a2 00        	ldx	#$0
    431e: 86 12        	stx	$12                     ; 0x2012 <main+0x1a9e>
    4320: a2 00        	ldx	#$0
    4322: 86 13        	stx	$13                     ; 0x2013 <main+0x1a9f>
    4324: ae 6b 83     	ldx	$836b                   ; 0x836b <__heap_start+0x1>
    4327: a9 fe        	lda	#$fe
    4329: 2d 6a 83     	and	$836a                   ; 0x836a <__heap_start>
    432c: 8d 6a 83     	sta	$836a                   ; 0x836a <__heap_start>
    432f: 8e 6b 83     	stx	$836b                   ; 0x836b <__heap_start+0x1>
    4332: a2 01        	ldx	#$1
    4334: 8e 64 83     	stx	$8364                   ; 0x8364 <_ZN12_GLOBAL__N_19last_freeE>
    4337: 8e 63 83     	stx	$8363                   ; 0x8363 <_ZN12_GLOBAL__N_111initializedE>
    433a: ae 67 83     	ldx	$8367                   ; 0x8367 <_ZN12_GLOBAL__N_19free_listE>
    433d: 86 16        	stx	$16                     ; 0x2016 <main+0x1aa2>
    433f: ac 68 83     	ldy	$8368                   ; 0x8368 <_ZN12_GLOBAL__N_19free_listE+0x1>
    4342: 84 17        	sty	$17                     ; 0x2017 <main+0x1aa3>
    4344: a9 00        	lda	#$0
    4346: 85 14        	sta	$14                     ; 0x2014 <main+0x1aa0>
    4348: a9 00        	lda	#$0
    434a: 85 15        	sta	$15                     ; 0x2015 <main+0x1aa1>
    434c: c4 15        	cpy	$15                     ; 0x2015 <main+0x1aa1>
    434e: d0 07        	bne	$4357 <malloc+0xa9>
    4350: e4 14        	cpx	$14                     ; 0x2014 <main+0x1aa0>
    4352: d0 03        	bne	$4357 <malloc+0xa9>
    4354: 4c b4 43     	jmp	$43b4 <malloc+0x106>
    4357: a2 00        	ldx	#$0
    4359: a0 10        	ldy	#$10
    435b: 86 14        	stx	$14                     ; 0x2014 <main+0x1aa0>
    435d: 84 15        	sty	$15                     ; 0x2015 <main+0x1aa1>
    435f: 18           	clc
    4360: a9 6a        	lda	#$6a
    4362: 65 14        	adc	$14                     ; 0x2014 <main+0x1aa0>
    4364: 85 18        	sta	$18                     ; 0x2018 <main+0x1aa4>
    4366: a9 83        	lda	#$83
    4368: 65 15        	adc	$15                     ; 0x2015 <main+0x1aa1>
    436a: 85 45        	sta	$45                     ; 0x2045 <main+0x1ad1>
    436c: a0 01        	ldy	#$1
    436e: a6 41        	ldx	$41                     ; 0x2041 <main+0x1acd>
    4370: 86 19        	stx	$19                     ; 0x2019 <main+0x1aa5>
    4372: a6 16        	ldx	$16                     ; 0x2016 <main+0x1aa2>
    4374: 86 14        	stx	$14                     ; 0x2014 <main+0x1aa0>
    4376: a6 17        	ldx	$17                     ; 0x2017 <main+0x1aa3>
    4378: 86 15        	stx	$15                     ; 0x2015 <main+0x1aa1>
    437a: b1 14        	lda	($14),y                 ; 0x2014 <main+0x1aa0>
    437c: c5 19        	cmp	$19                     ; 0x2019 <main+0x1aa5>
    437e: d0 0e        	bne	$438e <malloc+0xe0>
    4380: b2 14        	lda	($14)                   ; 0x2014 <main+0x1aa0>
    4382: 29 fe        	and	#$fe
    4384: a6 42        	ldx	$42                     ; 0x2042 <main+0x1ace>
    4386: 86 1a        	stx	$1a                     ; 0x201a <main+0x1aa6>
    4388: c5 1a        	cmp	$1a                     ; 0x201a <main+0x1aa6>
    438a: b0 29        	bcs	$43b5 <malloc+0x107>
    438c: 80 04        	bra	$4392 <malloc+0xe4>
    438e: c5 19        	cmp	$19                     ; 0x2019 <main+0x1aa5>
    4390: b0 23        	bcs	$43b5 <malloc+0x107>
    4392: a5 14        	lda	$14                     ; 0x2014 <main+0x1aa0>
    4394: 18           	clc
    4395: 69 02        	adc	#$2
    4397: 85 1a        	sta	$1a                     ; 0x201a <main+0x1aa6>
    4399: a5 15        	lda	$15                     ; 0x2015 <main+0x1aa1>
    439b: 69 00        	adc	#$0
    439d: 85 1b        	sta	$1b                     ; 0x201b <main+0x1aa7>
    439f: a0 02        	ldy	#$2
    43a1: b1 14        	lda	($14),y                 ; 0x2014 <main+0x1aa0>
    43a3: 85 14        	sta	$14                     ; 0x2014 <main+0x1aa0>
    43a5: 88           	dey
    43a6: b1 1a        	lda	($1a),y                 ; 0x201a <main+0x1aa6>
    43a8: 85 15        	sta	$15                     ; 0x2015 <main+0x1aa1>
    43aa: c5 17        	cmp	$17                     ; 0x2017 <main+0x1aa3>
    43ac: d0 cc        	bne	$437a <malloc+0xcc>
    43ae: a5 14        	lda	$14                     ; 0x2014 <main+0x1aa0>
    43b0: c5 16        	cmp	$16                     ; 0x2016 <main+0x1aa2>
    43b2: d0 c6        	bne	$437a <malloc+0xcc>
    43b4: 60           	rts
    43b5: a6 18        	ldx	$18                     ; 0x2018 <main+0x1aa4>
    43b7: 86 46        	stx	$46                     ; 0x2046 <main+0x1ad2>
    43b9: a6 14        	ldx	$14                     ; 0x2014 <main+0x1aa0>
    43bb: 86 12        	stx	$12                     ; 0x2012 <main+0x1a9e>
    43bd: a6 15        	ldx	$15                     ; 0x2015 <main+0x1aa1>
    43bf: 86 13        	stx	$13                     ; 0x2013 <main+0x1a9f>
    43c1: a6 14        	ldx	$14                     ; 0x2014 <main+0x1aa0>
    43c3: 86 43        	stx	$43                     ; 0x2043 <main+0x1acf>
    43c5: a6 15        	ldx	$15                     ; 0x2015 <main+0x1aa1>
    43c7: 86 44        	stx	$44                     ; 0x2044 <main+0x1ad0>
    43c9: 20 58 04     	jsr	$458 <_ZN12_GLOBAL__N_19FreeChunk6removeEv>
    43cc: a6 43        	ldx	$43                     ; 0x2043 <main+0x1acf>
    43ce: 86 12        	stx	$12                     ; 0x2012 <main+0x1a9e>
    43d0: a6 44        	ldx	$44                     ; 0x2044 <main+0x1ad0>
    43d2: 86 13        	stx	$13                     ; 0x2013 <main+0x1a9f>
    43d4: a0 01        	ldy	#$1
    43d6: b1 12        	lda	($12),y                 ; 0x2012 <main+0x1a9e>
    43d8: 85 15        	sta	$15                     ; 0x2015 <main+0x1aa1>
    43da: a9 fe        	lda	#$fe
    43dc: 32 12        	and	($12)                   ; 0x2012 <main+0x1a9e>
    43de: 38           	sec
    43df: a6 42        	ldx	$42                     ; 0x2042 <main+0x1ace>
    43e1: 86 14        	stx	$14                     ; 0x2014 <main+0x1aa0>
    43e3: 85 17        	sta	$17                     ; 0x2017 <main+0x1aa3>
    43e5: e5 14        	sbc	$14                     ; 0x2014 <main+0x1aa0>
    43e7: a8           	tay
    43e8: a6 41        	ldx	$41                     ; 0x2041 <main+0x1acd>
    43ea: 86 14        	stx	$14                     ; 0x2014 <main+0x1aa0>
    43ec: a5 15        	lda	$15                     ; 0x2015 <main+0x1aa1>
    43ee: 85 16        	sta	$16                     ; 0x2016 <main+0x1aa2>
    43f0: e5 14        	sbc	$14                     ; 0x2014 <main+0x1aa0>
    43f2: d0 06        	bne	$43fa <malloc+0x14c>
    43f4: 85 18        	sta	$18                     ; 0x2018 <main+0x1aa4>
    43f6: c0 08        	cpy	#$8
    43f8: 80 04        	bra	$43fe <malloc+0x150>
    43fa: 85 18        	sta	$18                     ; 0x2018 <main+0x1aa4>
    43fc: c9 00        	cmp	#$0
    43fe: a6 46        	ldx	$46                     ; 0x2046 <main+0x1ad2>
    4400: 86 14        	stx	$14                     ; 0x2014 <main+0x1aa0>
    4402: a6 45        	ldx	$45                     ; 0x2045 <main+0x1ad1>
    4404: 86 15        	stx	$15                     ; 0x2015 <main+0x1aa1>
    4406: a5 17        	lda	$17                     ; 0x2017 <main+0x1aa3>
    4408: 90 42        	bcc	$444c <malloc+0x19e>
    440a: 18           	clc
    440b: a5 42        	lda	$42                     ; 0x2042 <main+0x1ace>
    440d: 85 42        	sta	$42                     ; 0x2042 <main+0x1ace>
    440f: 65 12        	adc	$12                     ; 0x2012 <main+0x1a9e>
    4411: 85 12        	sta	$12                     ; 0x2012 <main+0x1a9e>
    4413: a6 41        	ldx	$41                     ; 0x2041 <main+0x1acd>
    4415: 86 41        	stx	$41                     ; 0x2041 <main+0x1acd>
    4417: a5 41        	lda	$41                     ; 0x2041 <main+0x1acd>
    4419: 65 13        	adc	$13                     ; 0x2013 <main+0x1a9f>
    441b: 85 13        	sta	$13                     ; 0x2013 <main+0x1a9f>
    441d: a6 18        	ldx	$18                     ; 0x2018 <main+0x1aa4>
    441f: 98           	tya
    4420: 20 1a 03     	jsr	$31a <_ZN12_GLOBAL__N_19FreeChunk6insertEPvj>
    4423: a6 43        	ldx	$43                     ; 0x2043 <main+0x1acf>
    4425: 86 12        	stx	$12                     ; 0x2012 <main+0x1a9e>
    4427: a6 44        	ldx	$44                     ; 0x2044 <main+0x1ad0>
    4429: 86 13        	stx	$13                     ; 0x2013 <main+0x1a9f>
    442b: a5 42        	lda	$42                     ; 0x2042 <main+0x1ace>
    442d: 29 fe        	and	#$fe
    442f: 85 14        	sta	$14                     ; 0x2014 <main+0x1aa0>
    4431: a0 01        	ldy	#$1
    4433: 98           	tya
    4434: 32 12        	and	($12)                   ; 0x2012 <main+0x1a9e>
    4436: 05 14        	ora	$14                     ; 0x2014 <main+0x1aa0>
    4438: 92 12        	sta	($12)                   ; 0x2012 <main+0x1a9e>
    443a: a5 41        	lda	$41                     ; 0x2041 <main+0x1acd>
    443c: 91 12        	sta	($12),y                 ; 0x2012 <main+0x1a9e>
    443e: a5 14        	lda	$14                     ; 0x2014 <main+0x1aa0>
    4440: a6 41        	ldx	$41                     ; 0x2041 <main+0x1acd>
    4442: 86 16        	stx	$16                     ; 0x2016 <main+0x1aa2>
    4444: a6 46        	ldx	$46                     ; 0x2046 <main+0x1ad2>
    4446: 86 14        	stx	$14                     ; 0x2014 <main+0x1aa0>
    4448: a6 45        	ldx	$45                     ; 0x2045 <main+0x1ad1>
    444a: 86 15        	stx	$15                     ; 0x2015 <main+0x1aa1>
    444c: 18           	clc
    444d: 65 12        	adc	$12                     ; 0x2012 <main+0x1a9e>
    444f: a8           	tay
    4450: a5 16        	lda	$16                     ; 0x2016 <main+0x1aa2>
    4452: 65 13        	adc	$13                     ; 0x2013 <main+0x1a9f>
    4454: c5 15        	cmp	$15                     ; 0x2015 <main+0x1aa1>
    4456: d0 09        	bne	$4461 <malloc+0x1b3>
    4458: c4 14        	cpy	$14                     ; 0x2014 <main+0x1aa0>
    445a: d0 05        	bne	$4461 <malloc+0x1b3>
    445c: 9c 64 83     	stz	$8364                   ; 0x8364 <_ZN12_GLOBAL__N_19last_freeE>
    445f: 80 14        	bra	$4475 <malloc+0x1c7>
    4461: 84 14        	sty	$14                     ; 0x2014 <main+0x1aa0>
    4463: 85 15        	sta	$15                     ; 0x2015 <main+0x1aa1>
    4465: a0 01        	ldy	#$1
    4467: b1 14        	lda	($14),y                 ; 0x2014 <main+0x1aa0>
    4469: 85 16        	sta	$16                     ; 0x2016 <main+0x1aa2>
    446b: a9 fe        	lda	#$fe
    446d: 32 14        	and	($14)                   ; 0x2014 <main+0x1aa0>
    446f: 92 14        	sta	($14)                   ; 0x2014 <main+0x1aa0>
    4471: a5 16        	lda	$16                     ; 0x2016 <main+0x1aa2>
    4473: 91 14        	sta	($14),y                 ; 0x2014 <main+0x1aa0>
    4475: a5 12        	lda	$12                     ; 0x2012 <main+0x1a9e>
    4477: 18           	clc
    4478: 69 02        	adc	#$2
    447a: 85 12        	sta	$12                     ; 0x2012 <main+0x1a9e>
    447c: a5 13        	lda	$13                     ; 0x2013 <main+0x1a9f>
    447e: 69 00        	adc	#$0
    4480: 85 13        	sta	$13                     ; 0x2013 <main+0x1a9f>
    4482: 60           	rts

00004483 <free>:
    4483: a6 12        	ldx	$12                     ; 0x2012 <main+0x1a9e>
    4485: 86 14        	stx	$14                     ; 0x2014 <main+0x1aa0>
    4487: a6 13        	ldx	$13                     ; 0x2013 <main+0x1a9f>
    4489: 86 15        	stx	$15                     ; 0x2015 <main+0x1aa1>
    448b: a2 00        	ldx	#$0
    448d: 86 12        	stx	$12                     ; 0x2012 <main+0x1a9e>
    448f: a2 00        	ldx	#$0
    4491: 86 13        	stx	$13                     ; 0x2013 <main+0x1a9f>
    4493: a6 15        	ldx	$15                     ; 0x2015 <main+0x1aa1>
    4495: e4 13        	cpx	$13                     ; 0x2013 <main+0x1a9f>
    4497: d0 09        	bne	$44a2 <free+0x1f>
    4499: a6 14        	ldx	$14                     ; 0x2014 <main+0x1aa0>
    449b: e4 12        	cpx	$12                     ; 0x2012 <main+0x1a9e>
    449d: d0 03        	bne	$44a2 <free+0x1f>
    449f: 4c 06 46     	jmp	$4606 <free+0x183>
    44a2: a2 00        	ldx	#$0
    44a4: a0 10        	ldy	#$10
    44a6: a9 6a        	lda	#$6a
    44a8: 86 12        	stx	$12                     ; 0x2012 <main+0x1a9e>
    44aa: 84 13        	sty	$13                     ; 0x2013 <main+0x1a9f>
    44ac: 18           	clc
    44ad: 65 12        	adc	$12                     ; 0x2012 <main+0x1a9e>
    44af: 85 18        	sta	$18                     ; 0x2018 <main+0x1aa4>
    44b1: a9 83        	lda	#$83
    44b3: 65 13        	adc	$13                     ; 0x2013 <main+0x1a9f>
    44b5: 85 19        	sta	$19                     ; 0x2019 <main+0x1aa5>
    44b7: a5 14        	lda	$14                     ; 0x2014 <main+0x1aa0>
    44b9: 18           	clc
    44ba: 69 fe        	adc	#$fe
    44bc: 85 12        	sta	$12                     ; 0x2012 <main+0x1a9e>
    44be: a5 15        	lda	$15                     ; 0x2015 <main+0x1aa1>
    44c0: 69 ff        	adc	#$ff
    44c2: a6 12        	ldx	$12                     ; 0x2012 <main+0x1a9e>
    44c4: 86 41        	stx	$41                     ; 0x2041 <main+0x1acd>
    44c6: aa           	tax
    44c7: 85 42        	sta	$42                     ; 0x2042 <main+0x1ace>
    44c9: b2 41        	lda	($41)                   ; 0x2041 <main+0x1acd>
    44cb: 85 1a        	sta	$1a                     ; 0x201a <main+0x1aa6>
    44cd: a0 01        	ldy	#$1
    44cf: b1 41        	lda	($41),y                 ; 0x2041 <main+0x1acd>
    44d1: 85 16        	sta	$16                     ; 0x2016 <main+0x1aa2>
    44d3: a9 fe        	lda	#$fe
    44d5: 32 41        	and	($41)                   ; 0x2041 <main+0x1acd>
    44d7: 85 17        	sta	$17                     ; 0x2017 <main+0x1aa3>
    44d9: a4 12        	ldy	$12                     ; 0x2012 <main+0x1a9e>
    44db: 84 1b        	sty	$1b                     ; 0x201b <main+0x1aa7>
    44dd: a5 12        	lda	$12                     ; 0x2012 <main+0x1a9e>
    44df: 18           	clc
    44e0: 65 17        	adc	$17                     ; 0x2017 <main+0x1aa3>
    44e2: 85 12        	sta	$12                     ; 0x2012 <main+0x1a9e>
    44e4: 8a           	txa
    44e5: 86 1c        	stx	$1c                     ; 0x201c <main+0x1aa8>
    44e7: 65 16        	adc	$16                     ; 0x2016 <main+0x1aa2>
    44e9: c5 19        	cmp	$19                     ; 0x2019 <main+0x1aa5>
    44eb: d0 10        	bne	$44fd <free+0x7a>
    44ed: a6 12        	ldx	$12                     ; 0x2012 <main+0x1a9e>
    44ef: e4 18        	cpx	$18                     ; 0x2018 <main+0x1aa4>
    44f1: d0 0a        	bne	$44fd <free+0x7a>
    44f3: a2 00        	ldx	#$0
    44f5: 86 12        	stx	$12                     ; 0x2012 <main+0x1a9e>
    44f7: a2 00        	ldx	#$0
    44f9: 86 13        	stx	$13                     ; 0x2013 <main+0x1a9f>
    44fb: 80 02        	bra	$44ff <free+0x7c>
    44fd: 85 13        	sta	$13                     ; 0x2013 <main+0x1a9f>
    44ff: a5 1a        	lda	$1a                     ; 0x201a <main+0x1aa6>
    4501: 29 01        	and	#$1
    4503: d0 03        	bne	$4508 <free+0x85>
    4505: 4c 83 45     	jmp	$4583 <free+0x100>
    4508: a5 14        	lda	$14                     ; 0x2014 <main+0x1aa0>
    450a: 18           	clc
    450b: 69 fc        	adc	#$fc
    450d: 85 14        	sta	$14                     ; 0x2014 <main+0x1aa0>
    450f: a5 15        	lda	$15                     ; 0x2015 <main+0x1aa1>
    4511: 69 ff        	adc	#$ff
    4513: 85 15        	sta	$15                     ; 0x2015 <main+0x1aa1>
    4515: a0 01        	ldy	#$1
    4517: 38           	sec
    4518: a9 00        	lda	#$0
    451a: f2 14        	sbc	($14)                   ; 0x2014 <main+0x1aa0>
    451c: 85 1a        	sta	$1a                     ; 0x201a <main+0x1aa6>
    451e: a9 00        	lda	#$0
    4520: f1 14        	sbc	($14),y                 ; 0x2014 <main+0x1aa0>
    4522: 85 14        	sta	$14                     ; 0x2014 <main+0x1aa0>
    4524: a5 1b        	lda	$1b                     ; 0x201b <main+0x1aa7>
    4526: 18           	clc
    4527: 65 1a        	adc	$1a                     ; 0x201a <main+0x1aa6>
    4529: 85 41        	sta	$41                     ; 0x2041 <main+0x1acd>
    452b: a5 1c        	lda	$1c                     ; 0x201c <main+0x1aa8>
    452d: 65 14        	adc	$14                     ; 0x2014 <main+0x1aa0>
    452f: 85 42        	sta	$42                     ; 0x2042 <main+0x1ace>
    4531: b1 41        	lda	($41),y                 ; 0x2041 <main+0x1acd>
    4533: 85 49        	sta	$49                     ; 0x2049 <main+0x1ad5>
    4535: a9 fe        	lda	#$fe
    4537: 32 41        	and	($41)                   ; 0x2041 <main+0x1acd>
    4539: 85 4a        	sta	$4a                     ; 0x204a <main+0x1ad6>
    453b: a6 12        	ldx	$12                     ; 0x2012 <main+0x1a9e>
    453d: 86 43        	stx	$43                     ; 0x2043 <main+0x1acf>
    453f: a6 13        	ldx	$13                     ; 0x2013 <main+0x1a9f>
    4541: 86 44        	stx	$44                     ; 0x2044 <main+0x1ad0>
    4543: a6 41        	ldx	$41                     ; 0x2041 <main+0x1acd>
    4545: 86 12        	stx	$12                     ; 0x2012 <main+0x1a9e>
    4547: a6 42        	ldx	$42                     ; 0x2042 <main+0x1ace>
    4549: 86 13        	stx	$13                     ; 0x2013 <main+0x1a9f>
    454b: a6 16        	ldx	$16                     ; 0x2016 <main+0x1aa2>
    454d: 86 45        	stx	$45                     ; 0x2045 <main+0x1ad1>
    454f: a6 17        	ldx	$17                     ; 0x2017 <main+0x1aa3>
    4551: 86 46        	stx	$46                     ; 0x2046 <main+0x1ad2>
    4553: a6 18        	ldx	$18                     ; 0x2018 <main+0x1aa4>
    4555: 86 47        	stx	$47                     ; 0x2047 <main+0x1ad3>
    4557: a6 19        	ldx	$19                     ; 0x2019 <main+0x1aa5>
    4559: 86 48        	stx	$48                     ; 0x2048 <main+0x1ad4>
    455b: 20 58 04     	jsr	$458 <_ZN12_GLOBAL__N_19FreeChunk6removeEv>
    455e: a6 48        	ldx	$48                     ; 0x2048 <main+0x1ad4>
    4560: 86 19        	stx	$19                     ; 0x2019 <main+0x1aa5>
    4562: a6 47        	ldx	$47                     ; 0x2047 <main+0x1ad3>
    4564: 86 18        	stx	$18                     ; 0x2018 <main+0x1aa4>
    4566: a6 43        	ldx	$43                     ; 0x2043 <main+0x1acf>
    4568: 86 12        	stx	$12                     ; 0x2012 <main+0x1a9e>
    456a: a6 44        	ldx	$44                     ; 0x2044 <main+0x1ad0>
    456c: 86 13        	stx	$13                     ; 0x2013 <main+0x1a9f>
    456e: 18           	clc
    456f: a5 4a        	lda	$4a                     ; 0x204a <main+0x1ad6>
    4571: a6 46        	ldx	$46                     ; 0x2046 <main+0x1ad2>
    4573: 86 14        	stx	$14                     ; 0x2014 <main+0x1aa0>
    4575: 65 14        	adc	$14                     ; 0x2014 <main+0x1aa0>
    4577: 85 17        	sta	$17                     ; 0x2017 <main+0x1aa3>
    4579: a5 49        	lda	$49                     ; 0x2049 <main+0x1ad5>
    457b: a6 45        	ldx	$45                     ; 0x2045 <main+0x1ad1>
    457d: 86 14        	stx	$14                     ; 0x2014 <main+0x1aa0>
    457f: 65 14        	adc	$14                     ; 0x2014 <main+0x1aa0>
    4581: 85 16        	sta	$16                     ; 0x2016 <main+0x1aa2>
    4583: a2 00        	ldx	#$0
    4585: 86 14        	stx	$14                     ; 0x2014 <main+0x1aa0>
    4587: a2 00        	ldx	#$0
    4589: 86 15        	stx	$15                     ; 0x2015 <main+0x1aa1>
    458b: a6 13        	ldx	$13                     ; 0x2013 <main+0x1a9f>
    458d: e4 15        	cpx	$15                     ; 0x2015 <main+0x1aa1>
    458f: d0 0e        	bne	$459f <free+0x11c>
    4591: a6 12        	ldx	$12                     ; 0x2012 <main+0x1a9e>
    4593: e4 14        	cpx	$14                     ; 0x2014 <main+0x1aa0>
    4595: d0 08        	bne	$459f <free+0x11c>
    4597: a2 01        	ldx	#$1
    4599: 8e 64 83     	stx	$8364                   ; 0x8364 <_ZN12_GLOBAL__N_19last_freeE>
    459c: 4c f7 45     	jmp	$45f7 <free+0x174>
    459f: a0 01        	ldy	#$1
    45a1: b1 12        	lda	($12),y                 ; 0x2012 <main+0x1a9e>
    45a3: a8           	tay
    45a4: a9 fe        	lda	#$fe
    45a6: 32 12        	and	($12)                   ; 0x2012 <main+0x1a9e>
    45a8: 18           	clc
    45a9: 85 47        	sta	$47                     ; 0x2047 <main+0x1ad3>
    45ab: 65 12        	adc	$12                     ; 0x2012 <main+0x1a9e>
    45ad: 85 14        	sta	$14                     ; 0x2014 <main+0x1aa0>
    45af: 98           	tya
    45b0: 85 43        	sta	$43                     ; 0x2043 <main+0x1acf>
    45b2: 65 13        	adc	$13                     ; 0x2013 <main+0x1a9f>
    45b4: c5 19        	cmp	$19                     ; 0x2019 <main+0x1aa5>
    45b6: d0 0f        	bne	$45c7 <free+0x144>
    45b8: a6 14        	ldx	$14                     ; 0x2014 <main+0x1aa0>
    45ba: e4 18        	cpx	$18                     ; 0x2018 <main+0x1aa4>
    45bc: d0 09        	bne	$45c7 <free+0x144>
    45be: a9 01        	lda	#$1
    45c0: 64 14        	stz	$14                     ; 0x2014 <main+0x1aa0>
    45c2: 2d 64 83     	and	$8364                   ; 0x8364 <_ZN12_GLOBAL__N_19last_freeE>
    45c5: 80 08        	bra	$45cf <free+0x14c>
    45c7: 85 15        	sta	$15                     ; 0x2015 <main+0x1aa1>
    45c9: a9 01        	lda	#$1
    45cb: 32 14        	and	($14)                   ; 0x2014 <main+0x1aa0>
    45cd: 64 14        	stz	$14                     ; 0x2014 <main+0x1aa0>
    45cf: a6 14        	ldx	$14                     ; 0x2014 <main+0x1aa0>
    45d1: d0 03        	bne	$45d6 <free+0x153>
    45d3: aa           	tax
    45d4: f0 31        	beq	$4607 <free+0x184>
    45d6: a6 16        	ldx	$16                     ; 0x2016 <main+0x1aa2>
    45d8: 86 45        	stx	$45                     ; 0x2045 <main+0x1ad1>
    45da: a6 17        	ldx	$17                     ; 0x2017 <main+0x1aa3>
    45dc: 86 46        	stx	$46                     ; 0x2046 <main+0x1ad2>
    45de: 20 58 04     	jsr	$458 <_ZN12_GLOBAL__N_19FreeChunk6removeEv>
    45e1: 18           	clc
    45e2: a6 47        	ldx	$47                     ; 0x2047 <main+0x1ad3>
    45e4: 8a           	txa
    45e5: a6 46        	ldx	$46                     ; 0x2046 <main+0x1ad2>
    45e7: 86 12        	stx	$12                     ; 0x2012 <main+0x1a9e>
    45e9: 65 12        	adc	$12                     ; 0x2012 <main+0x1a9e>
    45eb: 85 17        	sta	$17                     ; 0x2017 <main+0x1aa3>
    45ed: a5 43        	lda	$43                     ; 0x2043 <main+0x1acf>
    45ef: a6 45        	ldx	$45                     ; 0x2045 <main+0x1ad1>
    45f1: 86 12        	stx	$12                     ; 0x2012 <main+0x1a9e>
    45f3: 65 12        	adc	$12                     ; 0x2012 <main+0x1a9e>
    45f5: 85 16        	sta	$16                     ; 0x2016 <main+0x1aa2>
    45f7: a6 41        	ldx	$41                     ; 0x2041 <main+0x1acd>
    45f9: 86 12        	stx	$12                     ; 0x2012 <main+0x1a9e>
    45fb: a6 42        	ldx	$42                     ; 0x2042 <main+0x1ace>
    45fd: 86 13        	stx	$13                     ; 0x2013 <main+0x1a9f>
    45ff: a6 16        	ldx	$16                     ; 0x2016 <main+0x1aa2>
    4601: a5 17        	lda	$17                     ; 0x2017 <main+0x1aa3>
    4603: 20 1a 03     	jsr	$31a <_ZN12_GLOBAL__N_19FreeChunk6insertEPvj>
    4606: 60           	rts
    4607: b2 12        	lda	($12)                   ; 0x2012 <main+0x1a9e>
    4609: 09 01        	ora	#$1
    460b: 92 12        	sta	($12)                   ; 0x2012 <main+0x1a9e>
    460d: a0 01        	ldy	#$1
    460f: a5 43        	lda	$43                     ; 0x2043 <main+0x1acf>
    4611: 91 12        	sta	($12),y                 ; 0x2012 <main+0x1a9e>
    4613: 80 e2        	bra	$45f7 <free+0x174>

00004615 <memcpy>:
    4615: a8           	tay
    4616: 8a           	txa
    4617: d0 03        	bne	$461c <memcpy+0x7>
    4619: 98           	tya
    461a: f0 24        	beq	$4640 <memcpy+0x2b>
    461c: a5 12        	lda	$12                     ; 0x2012 <main+0x1a9e>
    461e: 85 16        	sta	$16                     ; 0x2016 <main+0x1aa2>
    4620: a5 13        	lda	$13                     ; 0x2013 <main+0x1a9f>
    4622: 85 17        	sta	$17                     ; 0x2017 <main+0x1aa3>
    4624: b2 14        	lda	($14)                   ; 0x2014 <main+0x1aa0>
    4626: 92 16        	sta	($16)                   ; 0x2016 <main+0x1aa2>
    4628: e6 16        	inc	$16                     ; 0x2016 <main+0x1aa2>
    462a: d0 02        	bne	$462e <memcpy+0x19>
    462c: e6 17        	inc	$17                     ; 0x2017 <main+0x1aa3>
    462e: e6 14        	inc	$14                     ; 0x2014 <main+0x1aa0>
    4630: d0 02        	bne	$4634 <memcpy+0x1f>
    4632: e6 15        	inc	$15                     ; 0x2015 <main+0x1aa1>
    4634: 88           	dey
    4635: c0 ff        	cpy	#$ff
    4637: d0 01        	bne	$463a <memcpy+0x25>
    4639: ca           	dex
    463a: 8a           	txa
    463b: d0 e7        	bne	$4624 <memcpy+0xf>
    463d: 98           	tya
    463e: d0 e4        	bne	$4624 <memcpy+0xf>
    4640: 60           	rts

00004641 <__memset>:
    4641: a4 14        	ldy	$14                     ; 0x2014 <main+0x1aa0>
    4643: d0 04        	bne	$4649 <__memset+0x8>
    4645: e0 00        	cpx	#$0
    4647: f0 17        	beq	$4660 <__memset+0x1f>
    4649: 92 12        	sta	($12)                   ; 0x2012 <main+0x1a9e>
    464b: e6 12        	inc	$12                     ; 0x2012 <main+0x1a9e>
    464d: d0 02        	bne	$4651 <__memset+0x10>
    464f: e6 13        	inc	$13                     ; 0x2013 <main+0x1a9f>
    4651: ca           	dex
    4652: e0 ff        	cpx	#$ff
    4654: d0 02        	bne	$4658 <__memset+0x17>
    4656: c6 14        	dec	$14                     ; 0x2014 <main+0x1aa0>
    4658: a4 14        	ldy	$14                     ; 0x2014 <main+0x1aa0>
    465a: d0 ed        	bne	$4649 <__memset+0x8>
    465c: e0 00        	cpx	#$0
    465e: d0 e9        	bne	$4649 <__memset+0x8>
    4660: 60           	rts
