
mp3wSA.elf:	file format elf32-mos

SYMBOL TABLE:
00000000 l    df *ABS*	00000000 zero-bss.c
00000000 l    df *ABS*	00000000 zero-zp-bss.c
00000000 l    df *ABS*	00000000 copy-zp-data.c
00000000 l    df *ABS*	00000000 ld-temp.o
000095f2 l     O .bss	00000d38 fpr
0000a32a l     O .bss	00000040 finalName
0000003a l     O .zp.bss	00000007 kernelEventData
00000032 l     O .zp.bss	00000001 _ccolor
000066a0 l     O .rodata	00000030 textColors
00000033 l     O .zp.bss	00000001 _col
00000034 l     O .zp.bss	00000001 _row
000094dc l     O .bss	00000004 _BITMAP_BASE.0
000094e0 l     O .bss	00000004 _BITMAP_BASE.1
000094e4 l     O .bss	00000004 _BITMAP_BASE.2
000094e8 l     O .bss	00000008 _dirStream
00000039 l     O .zp.bss	00000001 kernelError
000064a9 l     F .text	00000088 printf
00005226 l     F .text	000000df fileReadDir
00000035 l     O .zp.bss	00000002 __putchar.s
00004e85 l     F .text	0000038d textPrint
00005305 l     F .text	00000484 pickFile
00006531 l     F .text	000000d2 sprintf
00000037 l     O .zp.bss	00000002 theMP3file
00006896 l     O .rodata	00002476 bigpatch
00008d0c l     O .rodata	000007d0 saplugin2
0000a36a l     O .bss	00000001 _ZN12_GLOBAL__N_111initializedE
0000a36e l     O .bss	00000002 _ZN12_GLOBAL__N_19free_listE
0000a36c l     O .bss	00000002 _ZN12_GLOBAL__N_19free_sizeE
0000a36b l     O .bss	00000001 _ZN12_GLOBAL__N_19last_freeE
0000031a l     F .text	0000013d _ZN12_GLOBAL__N_19FreeChunk6insertEPvj
00005212 l     F .text	00000011 textGotoXY
00005223 l     F .text	00000003 textSetColor
000094f0 l     O .bss	00000102 fileReadDir.fileDirEntS
0000578e l     F .text	00000b34 _ZN12_GLOBAL__N_15printEPKcP6Status
000062c2 l     F .text	000000db _ZN12_GLOBAL__N_13putEcP6Status
0000639d l     F .text	0000010c _ZN12_GLOBAL__N_112print_stringEPKcP6Status
00000494 g     F .text	000049f1 main
00040d00 g       .mac	00000000 mac_end
00052400 g       .logoy	00000000 logoy_start
00068476 g       .patch	00000000 patch_end
00052000 g       .pally	00000000 pally_start
00020000 g       .mac	00000000 mac_start
00052400 g       .pally	00000000 pally_end
00069000 g       .saplug	00000000 saplug_start
00065000 g       .logoy	00000000 logoy_end
000697d0 g       .saplug	00000000 saplug_end
00066000 g       .patch	00000000 patch_start
00000316 g       .text	00000000 __after_main
00000302 g       .text	00000000 __do_init_stack
00000310 g       .text	00000000 __do_copy_zp_data
0000047d g     F .text	00000017 __copy_zp_data
0000030a g       .text	00000000 __do_zero_bss
00000457 g     F .text	00000013 __zero_bss
0000030d g       .text	00000000 __do_zero_zp_bss
0000046a g     F .text	00000013 __zero_zp_bss
00005789 g     F .text	00000005 exit
00000319 g       .text	00000000 _fini
0000664f g       .rodata	00000000 __set_v
0000662f  w    F .text	00000020 __memset
00001000  w      *ABS*	00000000 __heap_default_limit
0000a370 g       .noinit	00000000 __heap_start
00006603  w    F .text	0000002c memcpy
00000010 g       *ABS*	00000000 __rc0
00000012 g       *ABS*	00000000 __rc2
00000014 g       *ABS*	00000000 __rc4
00000016 g       *ABS*	00000000 __rc6
00000018 g       *ABS*	00000000 __rc8
0000001a g       *ABS*	00000000 __rc10
0000001c g       *ABS*	00000000 __rc12
0000001e g       *ABS*	00000000 __rc14
00000020 g       *ABS*	00000000 __rc16
00000022 g       *ABS*	00000000 __rc18
00000024 g       *ABS*	00000000 __rc20
00000026 g       *ABS*	00000000 __rc22
00000028 g       *ABS*	00000000 __rc24
0000002a g       *ABS*	00000000 __rc26
0000002c g       *ABS*	00000000 __rc28
0000002e g       *ABS*	00000000 __rc30
0000002f g       *ABS*	00000000 __rc31
00000300 g       *ABS*	00000000 __f256_start
0000c000 g       *ABS*	00000000 __stack
0000c000 g       *ABS*	00000000 __SLOT_ADDR
0800c000 g       *ABS*	00000000 __block8_lma
00002000 g       *ABS*	00000000 __BLOCK_SIZE
0900c000 g       *ABS*	00000000 __block9_lma
0a00c000 g       *ABS*	00000000 __block10_lma
0b00c000 g       *ABS*	00000000 __block11_lma
0c00c000 g       *ABS*	00000000 __block12_lma
0d00c000 g       *ABS*	00000000 __block13_lma
0e00c000 g       *ABS*	00000000 __block14_lma
0f00c000 g       *ABS*	00000000 __block15_lma
1000c000 g       *ABS*	00000000 __block16_lma
1100c000 g       *ABS*	00000000 __block17_lma
1200c000 g       *ABS*	00000000 __block18_lma
1300c000 g       *ABS*	00000000 __block19_lma
1400c000 g       *ABS*	00000000 __block20_lma
1500c000 g       *ABS*	00000000 __block21_lma
1600c000 g       *ABS*	00000000 __block22_lma
1700c000 g       *ABS*	00000000 __block23_lma
00020000 g       *ABS*	00000000 __mac_lma
00020d00 g       *ABS*	00000000 __mac_size
00052000 g       *ABS*	00000000 __pally_lma
00000400 g       *ABS*	00000000 __pally_size
00052400 g       *ABS*	00000000 __logoy_lma
00012c00 g       *ABS*	00000000 __logoy_size
00066000 g       *ABS*	00000000 __patch_lma
00002476 g       *ABS*	00000000 __patch_size
00069000 g       *ABS*	00000000 __saplug_lma
000007d0 g       *ABS*	00000000 __saplug_size
000094dc g       .bss	00000000 __bss_start
00040d00 g       .mac	00000000 end_mac
00052400 g       .pally	00000000 end_pally
00065000 g       .logoy	00000000 end_logoy
00068476 g       .patch	00000000 end_patch
000697d0 g       .saplug	00000000 end_saplug
00000302 g       .text	00000000 _start
0000002d g       *ABS*	00000000 __rc29
0000002b g       *ABS*	00000000 __rc27
00000029 g       *ABS*	00000000 __rc25
00000027 g       *ABS*	00000000 __rc23
00000025 g       *ABS*	00000000 __rc21
00000023 g       *ABS*	00000000 __rc19
00000021 g       *ABS*	00000000 __rc17
0000001f g       *ABS*	00000000 __rc15
0000001d g       *ABS*	00000000 __rc13
0000001b g       *ABS*	00000000 __rc11
00000019 g       *ABS*	00000000 __rc9
00000017 g       *ABS*	00000000 __rc7
00000015 g       *ABS*	00000000 __rc5
00000013 g       *ABS*	00000000 __rc3
00000011 g       *ABS*	00000000 __rc1
00000030 g       .zp.data	00000000 __zp_data_start
00000300 g       *ABS*	00000000 __zp_data_load_start
00000002 g       *ABS*	00000000 __zp_data_size
00000032 g       .zp.bss	00000000 __zp_bss_start
0000000f g       *ABS*	00000000 __zp_bss_size
00000302 g       .text	00000000 _init
0000664f g       .text	00000000 __init_array_start
0000664f g       .text	00000000 __init_array_end
0000664f g       .text	00000000 __fini_array_start
0000664f g       .text	00000000 __fini_array_end
000094dc g       .data	00000000 __data_start
000094dc g       .data	00000000 __data_end
000094dc g       *ABS*	00000000 __data_load_start
00000000 g       *ABS*	00000000 __data_size
0000a370 g       .bss	00000000 __bss_end
00000e94 g       *ABS*	00000000 __bss_size
0000a370 g       .noinit	00000000 end_block8
0000a370 g       .noinit	00000000 end_block9
0000a370 g       .noinit	00000000 end_block10
0000a370 g       .noinit	00000000 end_block11
0000a370 g       .noinit	00000000 end_block12
0000a370 g       .noinit	00000000 end_block13
0000a370 g       .noinit	00000000 end_block14
0000a370 g       .noinit	00000000 end_block15
0000a370 g       .noinit	00000000 end_block16
0000a370 g       .noinit	00000000 end_block17
0000a370 g       .noinit	00000000 end_block18
0000a370 g       .noinit	00000000 end_block19
0000a370 g       .noinit	00000000 end_block20
0000a370 g       .noinit	00000000 end_block21
0000a370 g       .noinit	00000000 end_block22
0000a370 g       .noinit	00000000 end_block23

Disassembly of section .text:

00000302 <_start>:
     302: a9 00        	lda	#$0
     304: 85 10        	sta	$10                     ; 0x2010 <main+0x1b7c>
     306: a9 c0        	lda	#$c0
     308: 85 11        	sta	$11                     ; 0x2011 <main+0x1b7d>

0000030a <__do_zero_bss>:
     30a: 20 57 04     	jsr	$457 <__zero_bss>

0000030d <__do_zero_zp_bss>:
     30d: 20 6a 04     	jsr	$46a <__zero_zp_bss>

00000310 <__do_copy_zp_data>:
     310: 20 7d 04     	jsr	$47d <__copy_zp_data>
     313: 20 94 04     	jsr	$494 <main>

00000316 <__after_main>:
     316: 4c 89 57     	jmp	$5789 <exit>

00000319 <_fini>:
     319: 60           	rts

0000031a <_ZN12_GLOBAL__N_19FreeChunk6insertEPvj>:
     31a: 85 16        	sta	$16                     ; 0x2016 <main+0x1b82>
     31c: 29 fe        	and	#$fe
     31e: 85 14        	sta	$14                     ; 0x2014 <main+0x1b80>
     320: a0 01        	ldy	#$1
     322: 98           	tya
     323: 32 12        	and	($12)                   ; 0x2012 <main+0x1b7e>
     325: 05 14        	ora	$14                     ; 0x2014 <main+0x1b80>
     327: 92 12        	sta	($12)                   ; 0x2012 <main+0x1b7e>
     329: a5 12        	lda	$12                     ; 0x2012 <main+0x1b7e>
     32b: 18           	clc
     32c: 65 14        	adc	$14                     ; 0x2014 <main+0x1b80>
     32e: 85 15        	sta	$15                     ; 0x2015 <main+0x1b81>
     330: 8a           	txa
     331: 65 13        	adc	$13                     ; 0x2013 <main+0x1b7f>
     333: 85 14        	sta	$14                     ; 0x2014 <main+0x1b80>
     335: 18           	clc
     336: a5 15        	lda	$15                     ; 0x2015 <main+0x1b81>
     338: 69 fe        	adc	#$fe
     33a: 85 17        	sta	$17                     ; 0x2017 <main+0x1b83>
     33c: a5 14        	lda	$14                     ; 0x2014 <main+0x1b80>
     33e: 69 ff        	adc	#$ff
     340: 85 15        	sta	$15                     ; 0x2015 <main+0x1b81>
     342: a5 17        	lda	$17                     ; 0x2017 <main+0x1b83>
     344: 85 14        	sta	$14                     ; 0x2014 <main+0x1b80>
     346: 8a           	txa
     347: 91 12        	sta	($12),y                 ; 0x2012 <main+0x1b7e>
     349: a5 16        	lda	$16                     ; 0x2016 <main+0x1b82>
     34b: 92 14        	sta	($14)                   ; 0x2014 <main+0x1b80>
     34d: 8a           	txa
     34e: 91 14        	sta	($14),y                 ; 0x2014 <main+0x1b80>
     350: b1 12        	lda	($12),y                 ; 0x2012 <main+0x1b7e>
     352: 85 14        	sta	$14                     ; 0x2014 <main+0x1b80>
     354: a9 fe        	lda	#$fe
     356: 32 12        	and	($12)                   ; 0x2012 <main+0x1b7e>
     358: 18           	clc
     359: 6d 6c a3     	adc	$a36c                   ; 0xa36c <_ZN12_GLOBAL__N_19free_sizeE>
     35c: aa           	tax
     35d: a5 14        	lda	$14                     ; 0x2014 <main+0x1b80>
     35f: 6d 6d a3     	adc	$a36d                   ; 0xa36d <_ZN12_GLOBAL__N_19free_sizeE+0x1>
     362: a8           	tay
     363: 18           	clc
     364: 8a           	txa
     365: 69 fe        	adc	#$fe
     367: aa           	tax
     368: 98           	tya
     369: 69 ff        	adc	#$ff
     36b: 8e 6c a3     	stx	$a36c                   ; 0xa36c <_ZN12_GLOBAL__N_19free_sizeE>
     36e: 8d 6d a3     	sta	$a36d                   ; 0xa36d <_ZN12_GLOBAL__N_19free_sizeE+0x1>
     371: ae 6e a3     	ldx	$a36e                   ; 0xa36e <_ZN12_GLOBAL__N_19free_listE>
     374: 86 16        	stx	$16                     ; 0x2016 <main+0x1b82>
     376: ac 6f a3     	ldy	$a36f                   ; 0xa36f <_ZN12_GLOBAL__N_19free_listE+0x1>
     379: a2 00        	ldx	#$0
     37b: 86 14        	stx	$14                     ; 0x2014 <main+0x1b80>
     37d: a2 00        	ldx	#$0
     37f: 86 15        	stx	$15                     ; 0x2015 <main+0x1b81>
     381: c4 15        	cpy	$15                     ; 0x2015 <main+0x1b81>
     383: d0 3e        	bne	$3c3 <_ZN12_GLOBAL__N_19FreeChunk6insertEPvj+0xa9>
     385: a6 16        	ldx	$16                     ; 0x2016 <main+0x1b82>
     387: e4 14        	cpx	$14                     ; 0x2014 <main+0x1b80>
     389: d0 38        	bne	$3c3 <_ZN12_GLOBAL__N_19FreeChunk6insertEPvj+0xa9>
     38b: a0 04        	ldy	#$4
     38d: a5 12        	lda	$12                     ; 0x2012 <main+0x1b7e>
     38f: 18           	clc
     390: 69 04        	adc	#$4
     392: 85 14        	sta	$14                     ; 0x2014 <main+0x1b80>
     394: a5 13        	lda	$13                     ; 0x2013 <main+0x1b7f>
     396: 69 00        	adc	#$0
     398: 18           	clc
     399: 85 15        	sta	$15                     ; 0x2015 <main+0x1b81>
     39b: a5 12        	lda	$12                     ; 0x2012 <main+0x1b7e>
     39d: 91 12        	sta	($12),y                 ; 0x2012 <main+0x1b7e>
     39f: a0 02        	ldy	#$2
     3a1: 85 17        	sta	$17                     ; 0x2017 <main+0x1b83>
     3a3: 69 02        	adc	#$2
     3a5: 85 16        	sta	$16                     ; 0x2016 <main+0x1b82>
     3a7: a5 17        	lda	$17                     ; 0x2017 <main+0x1b83>
     3a9: 91 12        	sta	($12),y                 ; 0x2012 <main+0x1b7e>
     3ab: a5 13        	lda	$13                     ; 0x2013 <main+0x1b7f>
     3ad: 69 00        	adc	#$0
     3af: 85 17        	sta	$17                     ; 0x2017 <main+0x1b83>
     3b1: 88           	dey
     3b2: a5 13        	lda	$13                     ; 0x2013 <main+0x1b7f>
     3b4: 91 14        	sta	($14),y                 ; 0x2014 <main+0x1b80>
     3b6: 91 16        	sta	($16),y                 ; 0x2016 <main+0x1b82>
     3b8: a6 12        	ldx	$12                     ; 0x2012 <main+0x1b7e>
     3ba: 8e 6e a3     	stx	$a36e                   ; 0xa36e <_ZN12_GLOBAL__N_19free_listE>
     3bd: a6 13        	ldx	$13                     ; 0x2013 <main+0x1b7f>
     3bf: 8e 6f a3     	stx	$a36f                   ; 0xa36f <_ZN12_GLOBAL__N_19free_listE+0x1>
     3c2: 60           	rts
     3c3: a6 12        	ldx	$12                     ; 0x2012 <main+0x1b7e>
     3c5: a5 12        	lda	$12                     ; 0x2012 <main+0x1b7e>
     3c7: 18           	clc
     3c8: 69 02        	adc	#$2
     3ca: 85 14        	sta	$14                     ; 0x2014 <main+0x1b80>
     3cc: 84 18        	sty	$18                     ; 0x2018 <main+0x1b84>
     3ce: a5 13        	lda	$13                     ; 0x2013 <main+0x1b7f>
     3d0: 69 00        	adc	#$0
     3d2: 85 15        	sta	$15                     ; 0x2015 <main+0x1b81>
     3d4: a5 16        	lda	$16                     ; 0x2016 <main+0x1b82>
     3d6: 84 17        	sty	$17                     ; 0x2017 <main+0x1b83>
     3d8: a0 02        	ldy	#$2
     3da: 91 12        	sta	($12),y                 ; 0x2012 <main+0x1b7e>
     3dc: 85 19        	sta	$19                     ; 0x2019 <main+0x1b85>
     3de: 88           	dey
     3df: a5 18        	lda	$18                     ; 0x2018 <main+0x1b84>
     3e1: 91 14        	sta	($14),y                 ; 0x2014 <main+0x1b80>
     3e3: 18           	clc
     3e4: a5 19        	lda	$19                     ; 0x2019 <main+0x1b85>
     3e6: 69 04        	adc	#$4
     3e8: a8           	tay
     3e9: a5 18        	lda	$18                     ; 0x2018 <main+0x1b84>
     3eb: 69 00        	adc	#$0
     3ed: 85 19        	sta	$19                     ; 0x2019 <main+0x1b85>
     3ef: 84 18        	sty	$18                     ; 0x2018 <main+0x1b84>
     3f1: 8a           	txa
     3f2: 18           	clc
     3f3: 69 04        	adc	#$4
     3f5: 85 1a        	sta	$1a                     ; 0x201a <main+0x1b86>
     3f7: a5 13        	lda	$13                     ; 0x2013 <main+0x1b7f>
     3f9: 69 00        	adc	#$0
     3fb: 85 1b        	sta	$1b                     ; 0x201b <main+0x1b87>
     3fd: a0 04        	ldy	#$4
     3ff: b1 16        	lda	($16),y                 ; 0x2016 <main+0x1b82>
     401: 85 16        	sta	$16                     ; 0x2016 <main+0x1b82>
     403: 85 1d        	sta	$1d                     ; 0x201d <main+0x1b89>
     405: a0 01        	ldy	#$1
     407: b1 18        	lda	($18),y                 ; 0x2018 <main+0x1b84>
     409: 85 17        	sta	$17                     ; 0x2017 <main+0x1b83>
     40b: 85 19        	sta	$19                     ; 0x2019 <main+0x1b85>
     40d: a0 04        	ldy	#$4
     40f: a5 1d        	lda	$1d                     ; 0x201d <main+0x1b89>
     411: 91 12        	sta	($12),y                 ; 0x2012 <main+0x1b7e>
     413: a5 19        	lda	$19                     ; 0x2019 <main+0x1b85>
     415: a0 01        	ldy	#$1
     417: 91 1a        	sta	($1a),y                 ; 0x201a <main+0x1b86>
     419: 18           	clc
     41a: a5 1d        	lda	$1d                     ; 0x201d <main+0x1b89>
     41c: 69 02        	adc	#$2
     41e: 85 18        	sta	$18                     ; 0x2018 <main+0x1b84>
     420: a5 19        	lda	$19                     ; 0x2019 <main+0x1b85>
     422: 69 00        	adc	#$0
     424: 85 19        	sta	$19                     ; 0x2019 <main+0x1b85>
     426: 8a           	txa
     427: c8           	iny
     428: 91 16        	sta	($16),y                 ; 0x2016 <main+0x1b82>
     42a: a5 13        	lda	$13                     ; 0x2013 <main+0x1b7f>
     42c: 88           	dey
     42d: 91 18        	sta	($18),y                 ; 0x2018 <main+0x1b84>
     42f: c8           	iny
     430: b1 12        	lda	($12),y                 ; 0x2012 <main+0x1b7e>
     432: 85 16        	sta	$16                     ; 0x2016 <main+0x1b82>
     434: 85 18        	sta	$18                     ; 0x2018 <main+0x1b84>
     436: 88           	dey
     437: b1 14        	lda	($14),y                 ; 0x2014 <main+0x1b80>
     439: 85 17        	sta	$17                     ; 0x2017 <main+0x1b83>
     43b: 85 14        	sta	$14                     ; 0x2014 <main+0x1b80>
     43d: 8a           	txa
     43e: a0 04        	ldy	#$4
     440: 91 16        	sta	($16),y                 ; 0x2016 <main+0x1b82>
     442: 18           	clc
     443: a5 18        	lda	$18                     ; 0x2018 <main+0x1b84>
     445: 69 04        	adc	#$4
     447: a8           	tay
     448: a5 14        	lda	$14                     ; 0x2014 <main+0x1b80>
     44a: 69 00        	adc	#$0
     44c: 84 14        	sty	$14                     ; 0x2014 <main+0x1b80>
     44e: 85 15        	sta	$15                     ; 0x2015 <main+0x1b81>
     450: a5 13        	lda	$13                     ; 0x2013 <main+0x1b7f>
     452: a0 01        	ldy	#$1
     454: 91 14        	sta	($14),y                 ; 0x2014 <main+0x1b80>
     456: 60           	rts

00000457 <__zero_bss>:
     457: a2 94        	ldx	#$94
     459: a0 0e        	ldy	#$e
     45b: a9 dc        	lda	#$dc
     45d: 85 12        	sta	$12                     ; 0x2012 <main+0x1b7e>
     45f: a9 94        	lda	#$94
     461: 85 13        	sta	$13                     ; 0x2013 <main+0x1b7f>
     463: a9 00        	lda	#$0
     465: 84 14        	sty	$14                     ; 0x2014 <main+0x1b80>
     467: 4c 2f 66     	jmp	$662f <__memset>

0000046a <__zero_zp_bss>:
     46a: a2 0f        	ldx	#$f
     46c: a0 00        	ldy	#$0
     46e: a9 32        	lda	#$32
     470: 85 12        	sta	$12                     ; 0x2012 <main+0x1b7e>
     472: a9 00        	lda	#$0
     474: 85 13        	sta	$13                     ; 0x2013 <main+0x1b7f>
     476: a9 00        	lda	#$0
     478: 84 14        	sty	$14                     ; 0x2014 <main+0x1b80>
     47a: 4c 2f 66     	jmp	$662f <__memset>

0000047d <__copy_zp_data>:
     47d: a9 02        	lda	#$2
     47f: a2 00        	ldx	#$0
     481: a0 30        	ldy	#$30
     483: 84 12        	sty	$12                     ; 0x2012 <main+0x1b7e>
     485: a0 00        	ldy	#$0
     487: 84 13        	sty	$13                     ; 0x2013 <main+0x1b7f>
     489: a0 00        	ldy	#$0
     48b: 84 14        	sty	$14                     ; 0x2014 <main+0x1b80>
     48d: a0 03        	ldy	#$3
     48f: 84 15        	sty	$15                     ; 0x2015 <main+0x1b81>
     491: 4c 03 66     	jmp	$6603 <memcpy>

00000494 <main>:
     494: 18           	clc
     495: a5 10        	lda	$10                     ; 0x2010 <main+0x1b7c>
     497: 69 89        	adc	#$89
     499: 85 10        	sta	$10                     ; 0x2010 <main+0x1b7c>
     49b: a5 11        	lda	$11                     ; 0x2011 <main+0x1b7d>
     49d: 69 df        	adc	#$df
     49f: 85 11        	sta	$11                     ; 0x2011 <main+0x1b7d>
     4a1: a6 24        	ldx	$24                     ; 0x2024 <main+0x1b90>
     4a3: da           	phx
     4a4: a6 25        	ldx	$25                     ; 0x2025 <main+0x1b91>
     4a6: da           	phx
     4a7: a6 26        	ldx	$26                     ; 0x2026 <main+0x1b92>
     4a9: da           	phx
     4aa: a6 27        	ldx	$27                     ; 0x2027 <main+0x1b93>
     4ac: da           	phx
     4ad: a5 28        	lda	$28                     ; 0x2028 <main+0x1b94>
     4af: a0 0f        	ldy	#$f
     4b1: 91 10        	sta	($10),y                 ; 0x2010 <main+0x1b7c>
     4b3: a5 29        	lda	$29                     ; 0x2029 <main+0x1b95>
     4b5: 88           	dey
     4b6: 91 10        	sta	($10),y                 ; 0x2010 <main+0x1b7c>
     4b8: a5 2a        	lda	$2a                     ; 0x202a <main+0x1b96>
     4ba: 88           	dey
     4bb: 91 10        	sta	($10),y                 ; 0x2010 <main+0x1b7c>
     4bd: a5 2b        	lda	$2b                     ; 0x202b <main+0x1b97>
     4bf: 88           	dey
     4c0: 91 10        	sta	($10),y                 ; 0x2010 <main+0x1b7c>
     4c2: a5 2c        	lda	$2c                     ; 0x202c <main+0x1b98>
     4c4: 88           	dey
     4c5: 91 10        	sta	($10),y                 ; 0x2010 <main+0x1b7c>
     4c7: a5 2d        	lda	$2d                     ; 0x202d <main+0x1b99>
     4c9: 88           	dey
     4ca: 91 10        	sta	($10),y                 ; 0x2010 <main+0x1b7c>
     4cc: a5 2e        	lda	$2e                     ; 0x202e <main+0x1b9a>
     4ce: 88           	dey
     4cf: 91 10        	sta	($10),y                 ; 0x2010 <main+0x1b7c>
     4d1: a5 2f        	lda	$2f                     ; 0x202f <main+0x1b9b>
     4d3: 88           	dey
     4d4: 91 10        	sta	($10),y                 ; 0x2010 <main+0x1b7c>
     4d6: a2 00        	ldx	#$0
     4d8: 86 18        	stx	$18                     ; 0x2018 <main+0x1b84>
     4da: a2 d0        	ldx	#$d0
     4dc: 86 19        	stx	$19                     ; 0x2019 <main+0x1b85>
     4de: a2 00        	ldx	#$0
     4e0: 86 14        	stx	$14                     ; 0x2014 <main+0x1b80>
     4e2: a2 d8        	ldx	#$d8
     4e4: 86 15        	stx	$15                     ; 0x2015 <main+0x1b81>
     4e6: a2 f4        	ldx	#$f4
     4e8: 86 2e        	stx	$2e                     ; 0x202e <main+0x1b9a>
     4ea: a2 95        	ldx	#$95
     4ec: 86 2f        	stx	$2f                     ; 0x202f <main+0x1b9b>
     4ee: a2 2a        	ldx	#$2a
     4f0: 86 2a        	stx	$2a                     ; 0x202a <main+0x1b96>
     4f2: a2 a3        	ldx	#$a3
     4f4: 86 2b        	stx	$2b                     ; 0x202b <main+0x1b97>
     4f6: a2 00        	ldx	#$0
     4f8: a0 10        	ldy	#$10
     4fa: a9 70        	lda	#$70
     4fc: 86 12        	stx	$12                     ; 0x2012 <main+0x1b7e>
     4fe: 84 13        	sty	$13                     ; 0x2013 <main+0x1b7f>
     500: 18           	clc
     501: 65 12        	adc	$12                     ; 0x2012 <main+0x1b7e>
     503: 85 25        	sta	$25                     ; 0x2025 <main+0x1b91>
     505: a9 a3        	lda	#$a3
     507: 65 13        	adc	$13                     ; 0x2013 <main+0x1b7f>
     509: 85 1c        	sta	$1c                     ; 0x201c <main+0x1b88>
     50b: 64 01        	stz	$1                      ; 0x2001 <main+0x1b6d>
     50d: a2 3f        	ldx	#$3f
     50f: 8e 00 d0     	stx	$d000                   ; 0xd000 <end_block9+0x2c90>
     512: a2 b3        	ldx	#$b3
     514: 86 00        	stx	$0                      ; 0x2000 <main+0x1b6c>
     516: 64 08        	stz	$8                      ; 0x2008 <main+0x1b74>
     518: a2 01        	ldx	#$1
     51a: 86 09        	stx	$9                      ; 0x2009 <main+0x1b75>
     51c: e8           	inx
     51d: 86 0a        	stx	$a                      ; 0x200a <main+0x1b76>
     51f: e8           	inx
     520: 86 0b        	stx	$b                      ; 0x200b <main+0x1b77>
     522: e8           	inx
     523: 86 0c        	stx	$c                      ; 0x200c <main+0x1b78>
     525: e8           	inx
     526: 86 0d        	stx	$d                      ; 0x200d <main+0x1b79>
     528: a2 3a        	ldx	#$3a
     52a: 86 f0        	stx	$f0                     ; 0x20f0 <main+0x1c5c>
     52c: a2 00        	ldx	#$0
     52e: 86 f1        	stx	$f1                     ; 0x20f1 <main+0x1c5d>
     530: a2 00        	ldx	#$0
     532: 86 1a        	stx	$1a                     ; 0x201a <main+0x1b86>
     534: a2 d4        	ldx	#$d4
     536: 86 1b        	stx	$1b                     ; 0x201b <main+0x1b87>
     538: a2 00        	ldx	#$0
     53a: 86 16        	stx	$16                     ; 0x2016 <main+0x1b82>
     53c: a2 dc        	ldx	#$dc
     53e: 86 17        	stx	$17                     ; 0x2017 <main+0x1b83>
     540: a2 00        	ldx	#$0
     542: 86 12        	stx	$12                     ; 0x2012 <main+0x1b7e>
     544: a2 c0        	ldx	#$c0
     546: 86 13        	stx	$13                     ; 0x2013 <main+0x1b7f>
     548: a9 00        	lda	#$0
     54a: a6 01        	ldx	$1                      ; 0x2001 <main+0x1b6d>
     54c: a0 01        	ldy	#$1
     54e: 84 01        	sty	$1                      ; 0x2001 <main+0x1b6d>
     550: 92 18        	sta	($18)                   ; 0x2018 <main+0x1b84>
     552: 91 18        	sta	($18),y                 ; 0x2018 <main+0x1b84>
     554: c8           	iny
     555: 91 18        	sta	($18),y                 ; 0x2018 <main+0x1b84>
     557: c8           	iny
     558: 85 1d        	sta	$1d                     ; 0x201d <main+0x1b89>
     55a: a9 ff        	lda	#$ff
     55c: 91 18        	sta	($18),y                 ; 0x2018 <main+0x1b84>
     55e: 86 01        	stx	$1                      ; 0x2001 <main+0x1b6d>
     560: a5 18        	lda	$18                     ; 0x2018 <main+0x1b84>
     562: 18           	clc
     563: 69 04        	adc	#$4
     565: 85 18        	sta	$18                     ; 0x2018 <main+0x1b84>
     567: a5 19        	lda	$19                     ; 0x2019 <main+0x1b85>
     569: 69 00        	adc	#$0
     56b: e6 1d        	inc	$1d                     ; 0x201d <main+0x1b89>
     56d: 85 19        	sta	$19                     ; 0x2019 <main+0x1b85>
     56f: a5 1d        	lda	$1d                     ; 0x201d <main+0x1b89>
     571: d0 d7        	bne	$54a <main+0xb6>
     573: a9 00        	lda	#$0
     575: a6 01        	ldx	$1                      ; 0x2001 <main+0x1b6d>
     577: a0 01        	ldy	#$1
     579: 84 01        	sty	$1                      ; 0x2001 <main+0x1b6d>
     57b: 92 1a        	sta	($1a)                   ; 0x201a <main+0x1b86>
     57d: 91 1a        	sta	($1a),y                 ; 0x201a <main+0x1b86>
     57f: c8           	iny
     580: 91 1a        	sta	($1a),y                 ; 0x201a <main+0x1b86>
     582: c8           	iny
     583: 85 18        	sta	$18                     ; 0x2018 <main+0x1b84>
     585: a9 ff        	lda	#$ff
     587: 91 1a        	sta	($1a),y                 ; 0x201a <main+0x1b86>
     589: 86 01        	stx	$1                      ; 0x2001 <main+0x1b6d>
     58b: a5 1a        	lda	$1a                     ; 0x201a <main+0x1b86>
     58d: 18           	clc
     58e: 69 04        	adc	#$4
     590: 85 1a        	sta	$1a                     ; 0x201a <main+0x1b86>
     592: a5 1b        	lda	$1b                     ; 0x201b <main+0x1b87>
     594: 69 00        	adc	#$0
     596: e6 18        	inc	$18                     ; 0x2018 <main+0x1b84>
     598: 85 1b        	sta	$1b                     ; 0x201b <main+0x1b87>
     59a: a5 18        	lda	$18                     ; 0x2018 <main+0x1b84>
     59c: d0 d7        	bne	$575 <main+0xe1>
     59e: a9 00        	lda	#$0
     5a0: a6 01        	ldx	$1                      ; 0x2001 <main+0x1b6d>
     5a2: a0 01        	ldy	#$1
     5a4: 84 01        	sty	$1                      ; 0x2001 <main+0x1b6d>
     5a6: 92 14        	sta	($14)                   ; 0x2014 <main+0x1b80>
     5a8: 91 14        	sta	($14),y                 ; 0x2014 <main+0x1b80>
     5aa: c8           	iny
     5ab: 91 14        	sta	($14),y                 ; 0x2014 <main+0x1b80>
     5ad: c8           	iny
     5ae: 85 18        	sta	$18                     ; 0x2018 <main+0x1b84>
     5b0: a9 ff        	lda	#$ff
     5b2: 91 14        	sta	($14),y                 ; 0x2014 <main+0x1b80>
     5b4: 86 01        	stx	$1                      ; 0x2001 <main+0x1b6d>
     5b6: a5 14        	lda	$14                     ; 0x2014 <main+0x1b80>
     5b8: 18           	clc
     5b9: 69 04        	adc	#$4
     5bb: 85 14        	sta	$14                     ; 0x2014 <main+0x1b80>
     5bd: a5 15        	lda	$15                     ; 0x2015 <main+0x1b81>
     5bf: 69 00        	adc	#$0
     5c1: e6 18        	inc	$18                     ; 0x2018 <main+0x1b84>
     5c3: 85 15        	sta	$15                     ; 0x2015 <main+0x1b81>
     5c5: a5 18        	lda	$18                     ; 0x2018 <main+0x1b84>
     5c7: d0 d7        	bne	$5a0 <main+0x10c>
     5c9: a9 00        	lda	#$0
     5cb: a6 01        	ldx	$1                      ; 0x2001 <main+0x1b6d>
     5cd: a0 01        	ldy	#$1
     5cf: 84 01        	sty	$1                      ; 0x2001 <main+0x1b6d>
     5d1: 92 16        	sta	($16)                   ; 0x2016 <main+0x1b82>
     5d3: 91 16        	sta	($16),y                 ; 0x2016 <main+0x1b82>
     5d5: c8           	iny
     5d6: 91 16        	sta	($16),y                 ; 0x2016 <main+0x1b82>
     5d8: c8           	iny
     5d9: 85 14        	sta	$14                     ; 0x2014 <main+0x1b80>
     5db: a9 ff        	lda	#$ff
     5dd: 91 16        	sta	($16),y                 ; 0x2016 <main+0x1b82>
     5df: 86 01        	stx	$1                      ; 0x2001 <main+0x1b6d>
     5e1: a5 16        	lda	$16                     ; 0x2016 <main+0x1b82>
     5e3: 18           	clc
     5e4: 69 04        	adc	#$4
     5e6: 85 16        	sta	$16                     ; 0x2016 <main+0x1b82>
     5e8: a5 17        	lda	$17                     ; 0x2017 <main+0x1b83>
     5ea: 69 00        	adc	#$0
     5ec: e6 14        	inc	$14                     ; 0x2014 <main+0x1b80>
     5ee: 85 17        	sta	$17                     ; 0x2017 <main+0x1b83>
     5f0: a5 14        	lda	$14                     ; 0x2014 <main+0x1b80>
     5f2: d0 d7        	bne	$5cb <main+0x137>
     5f4: ad 02 d0     	lda	$d002                   ; 0xd002 <end_block9+0x2c92>
     5f7: 29 f0        	and	#$f0
     5f9: 8d 02 d0     	sta	$d002                   ; 0xd002 <end_block9+0x2c92>
     5fc: ad 02 d0     	lda	$d002                   ; 0xd002 <end_block9+0x2c92>
     5ff: 29 0f        	and	#$f
     601: 09 10        	ora	#$10
     603: 8d 02 d0     	sta	$d002                   ; 0xd002 <end_block9+0x2c92>
     606: a2 02        	ldx	#$2
     608: 8e 03 d0     	stx	$d003                   ; 0xd003 <end_block9+0x2c93>
     60b: 64 32        	stz	$32                     ; 0x2032 <main+0x1b9e>
     60d: ad 01 d0     	lda	$d001                   ; 0xd001 <end_block9+0x2c91>
     610: 29 f9        	and	#$f9
     612: 09 04        	ora	#$4
     614: 8d 01 d0     	sta	$d001                   ; 0xd001 <end_block9+0x2c91>
     617: 64 14        	stz	$14                     ; 0x2014 <main+0x1b80>
     619: 9c 10 d0     	stz	$d010                   ; 0xd010 <end_block9+0x2ca0>
     61c: a2 00        	ldx	#$0
     61e: 64 15        	stz	$15                     ; 0x2015 <main+0x1b81>
     620: 86 18        	stx	$18                     ; 0x2018 <main+0x1b84>
     622: a4 18        	ldy	$18                     ; 0x2018 <main+0x1b84>
     624: be a0 66     	ldx	$66a0,y                 ; 0x66a0 <textColors>
     627: 86 19        	stx	$19                     ; 0x2019 <main+0x1b85>
     629: be a1 66     	ldx	$66a1,y                 ; 0x66a1 <textColors+0x1>
     62c: 86 1a        	stx	$1a                     ; 0x201a <main+0x1b86>
     62e: be a2 66     	ldx	$66a2,y                 ; 0x66a2 <textColors+0x2>
     631: 86 1b        	stx	$1b                     ; 0x201b <main+0x1b87>
     633: a6 15        	ldx	$15                     ; 0x2015 <main+0x1b81>
     635: 8e 00 de     	stx	$de00                   ; 0xde00 <end_block9+0x3a90>
     638: 86 17        	stx	$17                     ; 0x2017 <main+0x1b83>
     63a: 9c 01 de     	stz	$de01                   ; 0xde01 <end_block9+0x3a91>
     63d: a2 04        	ldx	#$4
     63f: 8e 02 de     	stx	$de02                   ; 0xde02 <end_block9+0x3a92>
     642: 9c 03 de     	stz	$de03                   ; 0xde03 <end_block9+0x3a93>
     645: ad 10 de     	lda	$de10                   ; 0xde10 <end_block9+0x3aa0>
     648: ac 11 de     	ldy	$de11                   ; 0xde11 <end_block9+0x3aa1>
     64b: 84 15        	sty	$15                     ; 0x2015 <main+0x1b81>
     64d: ac 12 de     	ldy	$de12                   ; 0xde12 <end_block9+0x3aa2>
     650: ac 13 de     	ldy	$de13                   ; 0xde13 <end_block9+0x3aa3>
     653: 18           	clc
     654: 65 14        	adc	$14                     ; 0x2014 <main+0x1b80>
     656: 85 16        	sta	$16                     ; 0x2016 <main+0x1b82>
     658: a6 17        	ldx	$17                     ; 0x2017 <main+0x1b83>
     65a: a9 d8        	lda	#$d8
     65c: 65 15        	adc	$15                     ; 0x2015 <main+0x1b81>
     65e: 85 17        	sta	$17                     ; 0x2017 <main+0x1b83>
     660: a5 1b        	lda	$1b                     ; 0x201b <main+0x1b87>
     662: 92 16        	sta	($16)                   ; 0x2016 <main+0x1b82>
     664: a0 01        	ldy	#$1
     666: a5 1a        	lda	$1a                     ; 0x201a <main+0x1b86>
     668: 91 16        	sta	($16),y                 ; 0x2016 <main+0x1b82>
     66a: c8           	iny
     66b: a5 19        	lda	$19                     ; 0x2019 <main+0x1b85>
     66d: 91 16        	sta	($16),y                 ; 0x2016 <main+0x1b82>
     66f: c8           	iny
     670: a9 ff        	lda	#$ff
     672: 91 16        	sta	($16),y                 ; 0x2016 <main+0x1b82>
     674: 8e 00 de     	stx	$de00                   ; 0xde00 <end_block9+0x3a90>
     677: 9c 01 de     	stz	$de01                   ; 0xde01 <end_block9+0x3a91>
     67a: c8           	iny
     67b: 8c 02 de     	sty	$de02                   ; 0xde02 <end_block9+0x3a92>
     67e: 9c 03 de     	stz	$de03                   ; 0xde03 <end_block9+0x3a93>
     681: ad 10 de     	lda	$de10                   ; 0xde10 <end_block9+0x3aa0>
     684: 85 15        	sta	$15                     ; 0x2015 <main+0x1b81>
     686: ad 11 de     	lda	$de11                   ; 0xde11 <end_block9+0x3aa1>
     689: 85 16        	sta	$16                     ; 0x2016 <main+0x1b82>
     68b: a9 40        	lda	#$40
     68d: 18           	clc
     68e: 65 15        	adc	$15                     ; 0x2015 <main+0x1b81>
     690: a8           	tay
     691: a9 d8        	lda	#$d8
     693: 65 16        	adc	$16                     ; 0x2016 <main+0x1b82>
     695: 85 17        	sta	$17                     ; 0x2017 <main+0x1b83>
     697: 84 16        	sty	$16                     ; 0x2016 <main+0x1b82>
     699: ad 12 de     	lda	$de12                   ; 0xde12 <end_block9+0x3aa2>
     69c: ad 13 de     	lda	$de13                   ; 0xde13 <end_block9+0x3aa3>
     69f: a5 1b        	lda	$1b                     ; 0x201b <main+0x1b87>
     6a1: 92 16        	sta	($16)                   ; 0x2016 <main+0x1b82>
     6a3: a5 1a        	lda	$1a                     ; 0x201a <main+0x1b86>
     6a5: a0 01        	ldy	#$1
     6a7: 91 16        	sta	($16),y                 ; 0x2016 <main+0x1b82>
     6a9: a5 19        	lda	$19                     ; 0x2019 <main+0x1b85>
     6ab: c8           	iny
     6ac: 91 16        	sta	($16),y                 ; 0x2016 <main+0x1b82>
     6ae: c8           	iny
     6af: a9 ff        	lda	#$ff
     6b1: 91 16        	sta	($16),y                 ; 0x2016 <main+0x1b82>
     6b3: e8           	inx
     6b4: 86 15        	stx	$15                     ; 0x2015 <main+0x1b81>
     6b6: 18           	clc
     6b7: a5 18        	lda	$18                     ; 0x2018 <main+0x1b84>
     6b9: 69 03        	adc	#$3
     6bb: aa           	tax
     6bc: c9 30        	cmp	#$30
     6be: f0 03        	beq	$6c3 <main+0x22f>
     6c0: 4c 20 06     	jmp	$620 <main+0x18c>
     6c3: a6 01        	ldx	$1                      ; 0x2001 <main+0x1b6d>
     6c5: 86 18        	stx	$18                     ; 0x2018 <main+0x1b84>
     6c7: a2 50        	ldx	#$50
     6c9: 8e 00 de     	stx	$de00                   ; 0xde00 <end_block9+0x3a90>
     6cc: 9c 01 de     	stz	$de01                   ; 0xde01 <end_block9+0x3a91>
     6cf: a2 1e        	ldx	#$1e
     6d1: 8e 02 de     	stx	$de02                   ; 0xde02 <end_block9+0x3a92>
     6d4: 9c 03 de     	stz	$de03                   ; 0xde03 <end_block9+0x3a93>
     6d7: ae 10 de     	ldx	$de10                   ; 0xde10 <end_block9+0x3aa0>
     6da: ac 11 de     	ldy	$de11                   ; 0xde11 <end_block9+0x3aa1>
     6dd: ad 12 de     	lda	$de12                   ; 0xde12 <end_block9+0x3aa2>
     6e0: ad 13 de     	lda	$de13                   ; 0xde13 <end_block9+0x3aa3>
     6e3: a9 02        	lda	#$2
     6e5: 85 01        	sta	$1                      ; 0x2001 <main+0x1b6d>
     6e7: e0 01        	cpx	#$1
     6e9: 98           	tya
     6ea: e9 00        	sbc	#$0
     6ec: 50 02        	bvc	$6f0 <main+0x25c>
     6ee: 49 80        	eor	#$80
     6f0: c9 00        	cmp	#$0
     6f2: 10 03        	bpl	$6f7 <main+0x263>
     6f4: 4c 58 07     	jmp	$758 <main+0x2c4>
     6f7: a9 20        	lda	#$20
     6f9: 86 19        	stx	$19                     ; 0x2019 <main+0x1b85>
     6fb: 86 14        	stx	$14                     ; 0x2014 <main+0x1b80>
     6fd: 84 15        	sty	$15                     ; 0x2015 <main+0x1b81>
     6ff: a2 00        	ldx	#$0
     701: 86 16        	stx	$16                     ; 0x2016 <main+0x1b82>
     703: a2 c0        	ldx	#$c0
     705: 86 17        	stx	$17                     ; 0x2017 <main+0x1b83>
     707: 80 04        	bra	$70d <main+0x279>
     709: a6 15        	ldx	$15                     ; 0x2015 <main+0x1b81>
     70b: f0 14        	beq	$721 <main+0x28d>
     70d: 92 16        	sta	($16)                   ; 0x2016 <main+0x1b82>
     70f: e6 16        	inc	$16                     ; 0x2016 <main+0x1b82>
     711: d0 02        	bne	$715 <main+0x281>
     713: e6 17        	inc	$17                     ; 0x2017 <main+0x1b83>
     715: a2 ff        	ldx	#$ff
     717: c6 14        	dec	$14                     ; 0x2014 <main+0x1b80>
     719: e4 14        	cpx	$14                     ; 0x2014 <main+0x1b80>
     71b: d0 ec        	bne	$709 <main+0x275>
     71d: c6 15        	dec	$15                     ; 0x2015 <main+0x1b81>
     71f: 80 e8        	bra	$709 <main+0x275>
     721: a6 14        	ldx	$14                     ; 0x2014 <main+0x1b80>
     723: d0 e8        	bne	$70d <main+0x279>
     725: a2 03        	ldx	#$3
     727: 86 01        	stx	$1                      ; 0x2001 <main+0x1b6d>
     729: a5 32        	lda	$32                     ; 0x2032 <main+0x1b9e>
     72b: 29 01        	and	#$1
     72d: aa           	tax
     72e: a9 50        	lda	#$50
     730: e0 00        	cpx	#$0
     732: d0 02        	bne	$736 <main+0x2a2>
     734: a9 f0        	lda	#$f0
     736: a6 19        	ldx	$19                     ; 0x2019 <main+0x1b85>
     738: 80 06        	bra	$740 <main+0x2ac>
     73a: a5 14        	lda	$14                     ; 0x2014 <main+0x1b80>
     73c: c0 00        	cpy	#$0
     73e: f0 12        	beq	$752 <main+0x2be>
     740: 92 12        	sta	($12)                   ; 0x2012 <main+0x1b7e>
     742: e6 12        	inc	$12                     ; 0x2012 <main+0x1b7e>
     744: d0 02        	bne	$748 <main+0x2b4>
     746: e6 13        	inc	$13                     ; 0x2013 <main+0x1b7f>
     748: 85 14        	sta	$14                     ; 0x2014 <main+0x1b80>
     74a: ca           	dex
     74b: e0 ff        	cpx	#$ff
     74d: d0 eb        	bne	$73a <main+0x2a6>
     74f: 88           	dey
     750: 80 e8        	bra	$73a <main+0x2a6>
     752: e0 00        	cpx	#$0
     754: d0 ea        	bne	$740 <main+0x2ac>
     756: 80 04        	bra	$75c <main+0x2c8>
     758: a2 03        	ldx	#$3
     75a: 86 01        	stx	$1                      ; 0x2001 <main+0x1b6d>
     75c: a6 18        	ldx	$18                     ; 0x2018 <main+0x1b84>
     75e: 86 01        	stx	$1                      ; 0x2001 <main+0x1b6d>
     760: 64 33        	stz	$33                     ; 0x2033 <main+0x1b9f>
     762: 9c 14 d0     	stz	$d014                   ; 0xd014 <end_block9+0x2ca4>
     765: 9c 15 d0     	stz	$d015                   ; 0xd015 <end_block9+0x2ca5>
     768: 64 34        	stz	$34                     ; 0x2034 <main+0x1ba0>
     76a: 9c 16 d0     	stz	$d016                   ; 0xd016 <end_block9+0x2ca6>
     76d: 9c 17 d0     	stz	$d017                   ; 0xd017 <end_block9+0x2ca7>
     770: a2 40        	ldx	#$40
     772: 8e 00 de     	stx	$de00                   ; 0xde00 <end_block9+0x3a90>
     775: a2 01        	ldx	#$1
     777: 8e 01 de     	stx	$de01                   ; 0xde01 <end_block9+0x3a91>
     77a: a2 f0        	ldx	#$f0
     77c: 8e 02 de     	stx	$de02                   ; 0xde02 <end_block9+0x3a92>
     77f: 9c 03 de     	stz	$de03                   ; 0xde03 <end_block9+0x3a93>
     782: ae 10 de     	ldx	$de10                   ; 0xde10 <end_block9+0x3aa0>
     785: 86 17        	stx	$17                     ; 0x2017 <main+0x1b83>
     787: ae 11 de     	ldx	$de11                   ; 0xde11 <end_block9+0x3aa1>
     78a: 86 12        	stx	$12                     ; 0x2012 <main+0x1b7e>
     78c: ae 12 de     	ldx	$de12                   ; 0xde12 <end_block9+0x3aa2>
     78f: 86 13        	stx	$13                     ; 0x2013 <main+0x1b7f>
     791: ae 13 de     	ldx	$de13                   ; 0xde13 <end_block9+0x3aa3>
     794: 86 14        	stx	$14                     ; 0x2014 <main+0x1b80>
     796: a4 12        	ldy	$12                     ; 0x2012 <main+0x1b7e>
     798: 84 15        	sty	$15                     ; 0x2015 <main+0x1b81>
     79a: 06 15        	asl	$15                     ; 0x2015 <main+0x1b81>
     79c: a5 13        	lda	$13                     ; 0x2013 <main+0x1b7f>
     79e: 2a           	rol
     79f: 86 16        	stx	$16                     ; 0x2016 <main+0x1b82>
     7a1: 26 16        	rol	$16                     ; 0x2016 <main+0x1b82>
     7a3: 06 15        	asl	$15                     ; 0x2015 <main+0x1b81>
     7a5: 2a           	rol
     7a6: 26 16        	rol	$16                     ; 0x2016 <main+0x1b82>
     7a8: 06 15        	asl	$15                     ; 0x2015 <main+0x1b81>
     7aa: 2a           	rol
     7ab: 26 16        	rol	$16                     ; 0x2016 <main+0x1b82>
     7ad: 85 15        	sta	$15                     ; 0x2015 <main+0x1b81>
     7af: 8d 00 de     	sta	$de00                   ; 0xde00 <end_block9+0x3a90>
     7b2: a5 16        	lda	$16                     ; 0x2016 <main+0x1b82>
     7b4: 8d 01 de     	sta	$de01                   ; 0xde01 <end_block9+0x3a91>
     7b7: 9c 02 de     	stz	$de02                   ; 0xde02 <end_block9+0x3a92>
     7ba: a2 20        	ldx	#$20
     7bc: 8e 03 de     	stx	$de03                   ; 0xde03 <end_block9+0x3a93>
     7bf: ae 10 de     	ldx	$de10                   ; 0xde10 <end_block9+0x3aa0>
     7c2: 86 16        	stx	$16                     ; 0x2016 <main+0x1b82>
     7c4: ae 11 de     	ldx	$de11                   ; 0xde11 <end_block9+0x3aa1>
     7c7: 86 18        	stx	$18                     ; 0x2018 <main+0x1b84>
     7c9: ac 12 de     	ldy	$de12                   ; 0xde12 <end_block9+0x3aa2>
     7cc: ae 13 de     	ldx	$de13                   ; 0xde13 <end_block9+0x3aa3>
     7cf: e4 14        	cpx	$14                     ; 0x2014 <main+0x1b80>
     7d1: d0 14        	bne	$7e7 <main+0x353>
     7d3: c4 13        	cpy	$13                     ; 0x2013 <main+0x1b7f>
     7d5: d0 10        	bne	$7e7 <main+0x353>
     7d7: a6 18        	ldx	$18                     ; 0x2018 <main+0x1b84>
     7d9: e4 12        	cpx	$12                     ; 0x2012 <main+0x1b7e>
     7db: d0 0a        	bne	$7e7 <main+0x353>
     7dd: a6 16        	ldx	$16                     ; 0x2016 <main+0x1b82>
     7df: e4 17        	cpx	$17                     ; 0x2017 <main+0x1b83>
     7e1: d0 04        	bne	$7e7 <main+0x353>
     7e3: a6 15        	ldx	$15                     ; 0x2015 <main+0x1b81>
     7e5: 80 06        	bra	$7ed <main+0x359>
     7e7: a6 15        	ldx	$15                     ; 0x2015 <main+0x1b81>
     7e9: e8           	inx
     7ea: d0 01        	bne	$7ed <main+0x359>
     7ec: 1a           	inc
     7ed: 48           	pha
     7ee: a5 1c        	lda	$1c                     ; 0x201c <main+0x1b88>
     7f0: a0 11        	ldy	#$11
     7f2: 91 10        	sta	($10),y                 ; 0x2010 <main+0x1b7c>
     7f4: 68           	pla
     7f5: 8e 00 de     	stx	$de00                   ; 0xde00 <end_block9+0x3a90>
     7f8: 8d 01 de     	sta	$de01                   ; 0xde01 <end_block9+0x3a91>
     7fb: 9c 02 de     	stz	$de02                   ; 0xde02 <end_block9+0x3a92>
     7fe: a2 20        	ldx	#$20
     800: 8e 03 de     	stx	$de03                   ; 0xde03 <end_block9+0x3a93>
     803: ae 10 de     	ldx	$de10                   ; 0xde10 <end_block9+0x3aa0>
     806: 86 12        	stx	$12                     ; 0x2012 <main+0x1b7e>
     808: ae 11 de     	ldx	$de11                   ; 0xde11 <end_block9+0x3aa1>
     80b: 86 13        	stx	$13                     ; 0x2013 <main+0x1b7f>
     80d: ae 12 de     	ldx	$de12                   ; 0xde12 <end_block9+0x3aa2>
     810: 86 14        	stx	$14                     ; 0x2014 <main+0x1b80>
     812: ae 13 de     	ldx	$de13                   ; 0xde13 <end_block9+0x3aa3>
     815: 86 15        	stx	$15                     ; 0x2015 <main+0x1b81>
     817: 38           	sec
     818: a9 00        	lda	#$0
     81a: e5 12        	sbc	$12                     ; 0x2012 <main+0x1b7e>
     81c: 85 19        	sta	$19                     ; 0x2019 <main+0x1b85>
     81e: a9 00        	lda	#$0
     820: e5 13        	sbc	$13                     ; 0x2013 <main+0x1b7f>
     822: aa           	tax
     823: a9 08        	lda	#$8
     825: e5 14        	sbc	$14                     ; 0x2014 <main+0x1b80>
     827: 85 16        	sta	$16                     ; 0x2016 <main+0x1b82>
     829: a9 00        	lda	#$0
     82b: e5 15        	sbc	$15                     ; 0x2015 <main+0x1b81>
     82d: 8e dd 94     	stx	$94dd                   ; 0x94dd <__bss_start+0x1>
     830: a4 16        	ldy	$16                     ; 0x2016 <main+0x1b82>
     832: 8c de 94     	sty	$94de                   ; 0x94de <__bss_start+0x2>
     835: 8d df 94     	sta	$94df                   ; 0x94df <__bss_start+0x3>
     838: a8           	tay
     839: 38           	sec
     83a: a5 19        	lda	$19                     ; 0x2019 <main+0x1b85>
     83c: e5 12        	sbc	$12                     ; 0x2012 <main+0x1b7e>
     83e: 85 18        	sta	$18                     ; 0x2018 <main+0x1b84>
     840: 8a           	txa
     841: e5 13        	sbc	$13                     ; 0x2013 <main+0x1b7f>
     843: 85 1a        	sta	$1a                     ; 0x201a <main+0x1b86>
     845: a5 16        	lda	$16                     ; 0x2016 <main+0x1b82>
     847: e5 14        	sbc	$14                     ; 0x2014 <main+0x1b80>
     849: 85 16        	sta	$16                     ; 0x2016 <main+0x1b82>
     84b: 98           	tya
     84c: e5 15        	sbc	$15                     ; 0x2015 <main+0x1b81>
     84e: 85 17        	sta	$17                     ; 0x2017 <main+0x1b83>
     850: 38           	sec
     851: a4 18        	ldy	$18                     ; 0x2018 <main+0x1b84>
     853: 8c e0 94     	sty	$94e0                   ; 0x94e0 <_BITMAP_BASE.1>
     856: a6 1a        	ldx	$1a                     ; 0x201a <main+0x1b86>
     858: 8e e1 94     	stx	$94e1                   ; 0x94e1 <_BITMAP_BASE.1+0x1>
     85b: a4 16        	ldy	$16                     ; 0x2016 <main+0x1b82>
     85d: 8c e2 94     	sty	$94e2                   ; 0x94e2 <_BITMAP_BASE.1+0x2>
     860: 8d e3 94     	sta	$94e3                   ; 0x94e3 <_BITMAP_BASE.1+0x3>
     863: a5 18        	lda	$18                     ; 0x2018 <main+0x1b84>
     865: e5 12        	sbc	$12                     ; 0x2012 <main+0x1b7e>
     867: 85 18        	sta	$18                     ; 0x2018 <main+0x1b84>
     869: a5 1a        	lda	$1a                     ; 0x201a <main+0x1b86>
     86b: e5 13        	sbc	$13                     ; 0x2013 <main+0x1b7f>
     86d: a8           	tay
     86e: a5 16        	lda	$16                     ; 0x2016 <main+0x1b82>
     870: e5 14        	sbc	$14                     ; 0x2014 <main+0x1b80>
     872: 85 12        	sta	$12                     ; 0x2012 <main+0x1b7e>
     874: a5 17        	lda	$17                     ; 0x2017 <main+0x1b83>
     876: e5 15        	sbc	$15                     ; 0x2015 <main+0x1b81>
     878: a6 18        	ldx	$18                     ; 0x2018 <main+0x1b84>
     87a: 8e e4 94     	stx	$94e4                   ; 0x94e4 <_BITMAP_BASE.2>
     87d: 8c e5 94     	sty	$94e5                   ; 0x94e5 <_BITMAP_BASE.2+0x1>
     880: a6 19        	ldx	$19                     ; 0x2019 <main+0x1b85>
     882: 8e dc 94     	stx	$94dc                   ; 0x94dc <__bss_start>
     885: a4 12        	ldy	$12                     ; 0x2012 <main+0x1b7e>
     887: 8c e6 94     	sty	$94e6                   ; 0x94e6 <_BITMAP_BASE.2+0x2>
     88a: 8d e7 94     	sta	$94e7                   ; 0x94e7 <_BITMAP_BASE.2+0x3>
     88d: 8e 01 d1     	stx	$d101                   ; 0xd101 <end_block9+0x2d91>
     890: ae dd 94     	ldx	$94dd                   ; 0x94dd <__bss_start+0x1>
     893: 8e 02 d1     	stx	$d102                   ; 0xd102 <end_block9+0x2d92>
     896: ae de 94     	ldx	$94de                   ; 0x94de <__bss_start+0x2>
     899: 8e 03 d1     	stx	$d103                   ; 0xd103 <end_block9+0x2d93>
     89c: ae e0 94     	ldx	$94e0                   ; 0x94e0 <_BITMAP_BASE.1>
     89f: 8e 09 d1     	stx	$d109                   ; 0xd109 <end_block9+0x2d99>
     8a2: ae e1 94     	ldx	$94e1                   ; 0x94e1 <_BITMAP_BASE.1+0x1>
     8a5: 8e 0a d1     	stx	$d10a                   ; 0xd10a <end_block9+0x2d9a>
     8a8: ae e2 94     	ldx	$94e2                   ; 0x94e2 <_BITMAP_BASE.1+0x2>
     8ab: 8e 0b d1     	stx	$d10b                   ; 0xd10b <end_block9+0x2d9b>
     8ae: ae e4 94     	ldx	$94e4                   ; 0x94e4 <_BITMAP_BASE.2>
     8b1: 8e 11 d1     	stx	$d111                   ; 0xd111 <end_block9+0x2da1>
     8b4: ae e5 94     	ldx	$94e5                   ; 0x94e5 <_BITMAP_BASE.2+0x1>
     8b7: 8e 12 d1     	stx	$d112                   ; 0xd112 <end_block9+0x2da2>
     8ba: ae e6 94     	ldx	$94e6                   ; 0x94e6 <_BITMAP_BASE.2+0x2>
     8bd: 8e 13 d1     	stx	$d113                   ; 0xd113 <end_block9+0x2da3>
     8c0: 9c 00 d1     	stz	$d100                   ; 0xd100 <end_block9+0x2d90>
     8c3: 9c 08 d1     	stz	$d108                   ; 0xd108 <end_block9+0x2d98>
     8c6: 9c 10 d1     	stz	$d110                   ; 0xd110 <end_block9+0x2da0>
     8c9: a2 10        	ldx	#$10
     8cb: 8e 00 d2     	stx	$d200                   ; 0xd200 <end_block9+0x2e90>
     8ce: 8e 0c d2     	stx	$d20c                   ; 0xd20c <end_block9+0x2e9c>
     8d1: 8e 18 d2     	stx	$d218                   ; 0xd218 <end_block9+0x2ea8>
     8d4: a0 d9        	ldy	#$d9
     8d6: a2 40        	ldx	#$40
     8d8: 64 12        	stz	$12                     ; 0x2012 <main+0x1b7e>
     8da: 84 13        	sty	$13                     ; 0x2013 <main+0x1b7f>
     8dc: a9 00        	lda	#$0
     8de: 92 12        	sta	($12)                   ; 0x2012 <main+0x1b7e>
     8e0: ca           	dex
     8e1: 18           	clc
     8e2: a5 12        	lda	$12                     ; 0x2012 <main+0x1b7e>
     8e4: 69 08        	adc	#$8
     8e6: 85 12        	sta	$12                     ; 0x2012 <main+0x1b7e>
     8e8: 98           	tya
     8e9: 69 00        	adc	#$0
     8eb: a8           	tay
     8ec: 8a           	txa
     8ed: d0 eb        	bne	$8da <main+0x446>
     8ef: 9c e8 94     	stz	$94e8                   ; 0x94e8 <_dirStream>
     8f2: 9c e9 94     	stz	$94e9                   ; 0x94e9 <_dirStream+0x1>
     8f5: 9c ea 94     	stz	$94ea                   ; 0x94ea <_dirStream+0x2>
     8f8: 9c eb 94     	stz	$94eb                   ; 0x94eb <_dirStream+0x3>
     8fb: 9c ec 94     	stz	$94ec                   ; 0x94ec <_dirStream+0x4>
     8fe: 9c ed 94     	stz	$94ed                   ; 0x94ed <_dirStream+0x5>
     901: 9c ee 94     	stz	$94ee                   ; 0x94ee <_dirStream+0x6>
     904: 9c ef 94     	stz	$94ef                   ; 0x94ef <_dirStream+0x7>
     907: 18           	clc
     908: a5 10        	lda	$10                     ; 0x2010 <main+0x1b7c>
     90a: 69 3a        	adc	#$3a
     90c: 85 14        	sta	$14                     ; 0x2014 <main+0x1b80>
     90e: a5 11        	lda	$11                     ; 0x2011 <main+0x1b7d>
     910: 69 00        	adc	#$0
     912: 85 15        	sta	$15                     ; 0x2015 <main+0x1b81>
     914: a6 14        	ldx	$14                     ; 0x2014 <main+0x1b80>
     916: 86 fb        	stx	$fb                     ; 0x20fb <main+0x1c67>
     918: 85 fc        	sta	$fc                     ; 0x20fc <main+0x1c68>
     91a: a2 08        	ldx	#$8
     91c: 86 fd        	stx	$fd                     ; 0x20fd <main+0x1c69>
     91e: 18           	clc
     91f: a5 10        	lda	$10                     ; 0x2010 <main+0x1b7c>
     921: 69 58        	adc	#$58
     923: 85 2c        	sta	$2c                     ; 0x202c <main+0x1b98>
     925: a5 11        	lda	$11                     ; 0x2011 <main+0x1b7d>
     927: 69 20        	adc	#$20
     929: 85 2d        	sta	$2d                     ; 0x202d <main+0x1b99>
     92b: a2 39        	ldx	#$39
     92d: 86 12        	stx	$12                     ; 0x2012 <main+0x1b7e>
     92f: a2 00        	ldx	#$0
     931: 86 13        	stx	$13                     ; 0x2013 <main+0x1b7f>
     933: a0 06        	ldy	#$6
     935: 20 dc ff     	jsr	$ffdc <end_block9+0x5c6c>
     938: 92 2c        	sta	($2c)                   ; 0x202c <main+0x1b98>
     93a: a9 00        	lda	#$0
     93c: 6a           	ror
     93d: 85 12        	sta	$12                     ; 0x2012 <main+0x1b7e>
     93f: b1 14        	lda	($14),y                 ; 0x2014 <main+0x1b80>
     941: 85 16        	sta	$16                     ; 0x2016 <main+0x1b82>
     943: c8           	iny
     944: 5a           	phy
     945: a5 14        	lda	$14                     ; 0x2014 <main+0x1b80>
     947: a0 38        	ldy	#$38
     949: 91 10        	sta	($10),y                 ; 0x2010 <main+0x1b7c>
     94b: a5 15        	lda	$15                     ; 0x2015 <main+0x1b81>
     94d: c8           	iny
     94e: 91 10        	sta	($10),y                 ; 0x2010 <main+0x1b7c>
     950: 7a           	ply
     951: b1 14        	lda	($14),y                 ; 0x2014 <main+0x1b80>
     953: a6 16        	ldx	$16                     ; 0x2016 <main+0x1b82>
     955: 8e 00 de     	stx	$de00                   ; 0xde00 <end_block9+0x3a90>
     958: 9c 01 de     	stz	$de01                   ; 0xde01 <end_block9+0x3a91>
     95b: 8d 02 de     	sta	$de02                   ; 0xde02 <end_block9+0x3a92>
     95e: 9c 03 de     	stz	$de03                   ; 0xde03 <end_block9+0x3a93>
     961: ae 10 de     	ldx	$de10                   ; 0xde10 <end_block9+0x3aa0>
     964: ac 11 de     	ldy	$de11                   ; 0xde11 <end_block9+0x3aa1>
     967: ad 12 de     	lda	$de12                   ; 0xde12 <end_block9+0x3aa2>
     96a: ad 13 de     	lda	$de13                   ; 0xde13 <end_block9+0x3aa3>
     96d: 8e a4 d6     	stx	$d6a4                   ; 0xd6a4 <end_block9+0x3334>
     970: 8c a5 d6     	sty	$d6a5                   ; 0xd6a5 <end_block9+0x3335>
     973: a2 03        	ldx	#$3
     975: 8e a6 d6     	stx	$d6a6                   ; 0xd6a6 <end_block9+0x3336>
     978: a6 2c        	ldx	$2c                     ; 0x202c <main+0x1b98>
     97a: 86 12        	stx	$12                     ; 0x2012 <main+0x1b7e>
     97c: a6 2d        	ldx	$2d                     ; 0x202d <main+0x1b99>
     97e: 86 13        	stx	$13                     ; 0x2013 <main+0x1b7f>
     980: 64 14        	stz	$14                     ; 0x2014 <main+0x1b80>
     982: a2 1e        	ldx	#$1e
     984: a9 00        	lda	#$0
     986: 20 2f 66     	jsr	$662f <__memset>
     989: 18           	clc
     98a: a5 10        	lda	$10                     ; 0x2010 <main+0x1b7c>
     98c: 69 3a        	adc	#$3a
     98e: 85 12        	sta	$12                     ; 0x2012 <main+0x1b7e>
     990: a5 11        	lda	$11                     ; 0x2011 <main+0x1b7d>
     992: 69 20        	adc	#$20
     994: 85 13        	sta	$13                     ; 0x2013 <main+0x1b7f>
     996: 64 14        	stz	$14                     ; 0x2014 <main+0x1b80>
     998: a2 1e        	ldx	#$1e
     99a: a9 00        	lda	#$0
     99c: 20 2f 66     	jsr	$662f <__memset>
     99f: 64 14        	stz	$14                     ; 0x2014 <main+0x1b80>
     9a1: 64 01        	stz	$1                      ; 0x2001 <main+0x1b6d>
     9a3: a2 2f        	ldx	#$2f
     9a5: 8e 00 d0     	stx	$d000                   ; 0xd000 <end_block9+0x2c90>
     9a8: a2 04        	ldx	#$4
     9aa: 8e 01 d0     	stx	$d001                   ; 0xd001 <end_block9+0x2c91>
     9ad: a2 01        	ldx	#$1
     9af: 8e 02 d0     	stx	$d002                   ; 0xd002 <end_block9+0x2c92>
     9b2: a0 02        	ldy	#$2
     9b4: 8c 03 d0     	sty	$d003                   ; 0xd003 <end_block9+0x2c93>
     9b7: 9c 0d d0     	stz	$d00d                   ; 0xd00d <end_block9+0x2c9d>
     9ba: 9c 0e d0     	stz	$d00e                   ; 0xd00e <end_block9+0x2c9e>
     9bd: 9c 0f d0     	stz	$d00f                   ; 0xd00f <end_block9+0x2c9f>
     9c0: 86 01        	stx	$1                      ; 0x2001 <main+0x1b6d>
     9c2: a2 f0        	ldx	#$f0
     9c4: a5 14        	lda	$14                     ; 0x2014 <main+0x1b80>
     9c6: 85 12        	sta	$12                     ; 0x2012 <main+0x1b7e>
     9c8: 86 13        	stx	$13                     ; 0x2013 <main+0x1b7f>
     9ca: a4 0f        	ldy	$f                      ; 0x200f <main+0x1b7b>
     9cc: 78           	sei
     9cd: a9 29        	lda	#$29
     9cf: 85 0f        	sta	$f                      ; 0x200f <main+0x1b7b>
     9d1: b2 12        	lda	($12)                   ; 0x2012 <main+0x1b7e>
     9d3: 85 15        	sta	$15                     ; 0x2015 <main+0x1b81>
     9d5: 84 0f        	sty	$f                      ; 0x200f <main+0x1b7b>
     9d7: 18           	clc
     9d8: a5 14        	lda	$14                     ; 0x2014 <main+0x1b80>
     9da: 69 00        	adc	#$0
     9dc: 85 12        	sta	$12                     ; 0x2012 <main+0x1b7e>
     9de: 8a           	txa
     9df: 69 e0        	adc	#$e0
     9e1: 58           	cli
     9e2: 85 13        	sta	$13                     ; 0x2013 <main+0x1b7f>
     9e4: a5 15        	lda	$15                     ; 0x2015 <main+0x1b81>
     9e6: 92 12        	sta	($12)                   ; 0x2012 <main+0x1b7e>
     9e8: e6 14        	inc	$14                     ; 0x2014 <main+0x1b80>
     9ea: f0 06        	beq	$9f2 <main+0x55e>
     9ec: e0 f3        	cpx	#$f3
     9ee: d0 d4        	bne	$9c4 <main+0x530>
     9f0: 80 05        	bra	$9f7 <main+0x563>
     9f2: e8           	inx
     9f3: e0 f3        	cpx	#$f3
     9f5: d0 cd        	bne	$9c4 <main+0x530>
     9f7: a4 14        	ldy	$14                     ; 0x2014 <main+0x1b80>
     9f9: c0 ff        	cpy	#$ff
     9fb: d0 c7        	bne	$9c4 <main+0x530>
     9fd: 64 01        	stz	$1                      ; 0x2001 <main+0x1b6d>
     9ff: 9c dc 94     	stz	$94dc                   ; 0x94dc <__bss_start>
     a02: a2 34        	ldx	#$34
     a04: 8e dd 94     	stx	$94dd                   ; 0x94dd <__bss_start+0x1>
     a07: a0 05        	ldy	#$5
     a09: 8c de 94     	sty	$94de                   ; 0x94de <__bss_start+0x2>
     a0c: 9c df 94     	stz	$94df                   ; 0x94df <__bss_start+0x3>
     a0f: 9c 01 d1     	stz	$d101                   ; 0xd101 <end_block9+0x2d91>
     a12: 8e 02 d1     	stx	$d102                   ; 0xd102 <end_block9+0x2d92>
     a15: 8c 03 d1     	sty	$d103                   ; 0xd103 <end_block9+0x2d93>
     a18: ad 00 d1     	lda	$d100                   ; 0xd100 <end_block9+0x2d90>
     a1b: 29 f9        	and	#$f9
     a1d: 8d 00 d1     	sta	$d100                   ; 0xd100 <end_block9+0x2d90>
     a20: a2 01        	ldx	#$1
     a22: 8e 00 d1     	stx	$d100                   ; 0xd100 <end_block9+0x2d90>
     a25: 9c 08 d1     	stz	$d108                   ; 0xd108 <end_block9+0x2d98>
     a28: 9c 10 d1     	stz	$d110                   ; 0xd110 <end_block9+0x2da0>
     a2b: 9c 00 d8     	stz	$d800                   ; 0xd800 <end_block9+0x3490>
     a2e: a2 ff        	ldx	#$ff
     a30: 8e 01 d8     	stx	$d801                   ; 0xd801 <end_block9+0x3491>
     a33: 9c 02 d8     	stz	$d802                   ; 0xd802 <end_block9+0x3492>
     a36: 9c 04 d8     	stz	$d804                   ; 0xd804 <end_block9+0x3494>
     a39: 8e 05 d8     	stx	$d805                   ; 0xd805 <end_block9+0x3495>
     a3c: a0 20        	ldy	#$20
     a3e: 8c 06 d8     	sty	$d806                   ; 0xd806 <end_block9+0x3496>
     a41: 9c 08 d8     	stz	$d808                   ; 0xd808 <end_block9+0x3498>
     a44: 8e 09 d8     	stx	$d809                   ; 0xd809 <end_block9+0x3499>
     a47: a0 40        	ldy	#$40
     a49: 8c 0a d8     	sty	$d80a                   ; 0xd80a <end_block9+0x349a>
     a4c: 9c 0c d8     	stz	$d80c                   ; 0xd80c <end_block9+0x349c>
     a4f: 8e 0d d8     	stx	$d80d                   ; 0xd80d <end_block9+0x349d>
     a52: a0 60        	ldy	#$60
     a54: 8c 0e d8     	sty	$d80e                   ; 0xd80e <end_block9+0x349e>
     a57: 9c 10 d8     	stz	$d810                   ; 0xd810 <end_block9+0x34a0>
     a5a: 8e 11 d8     	stx	$d811                   ; 0xd811 <end_block9+0x34a1>
     a5d: a0 80        	ldy	#$80
     a5f: 8c 12 d8     	sty	$d812                   ; 0xd812 <end_block9+0x34a2>
     a62: 9c 14 d8     	stz	$d814                   ; 0xd814 <end_block9+0x34a4>
     a65: 8e 15 d8     	stx	$d815                   ; 0xd815 <end_block9+0x34a5>
     a68: a0 a0        	ldy	#$a0
     a6a: 8c 16 d8     	sty	$d816                   ; 0xd816 <end_block9+0x34a6>
     a6d: 9c 18 d8     	stz	$d818                   ; 0xd818 <end_block9+0x34a8>
     a70: 8e 19 d8     	stx	$d819                   ; 0xd819 <end_block9+0x34a9>
     a73: a0 c0        	ldy	#$c0
     a75: 8c 1a d8     	sty	$d81a                   ; 0xd81a <end_block9+0x34aa>
     a78: 9c 1c d8     	stz	$d81c                   ; 0xd81c <end_block9+0x34ac>
     a7b: 8e 1d d8     	stx	$d81d                   ; 0xd81d <end_block9+0x34ad>
     a7e: a0 e0        	ldy	#$e0
     a80: 8c 1e d8     	sty	$d81e                   ; 0xd81e <end_block9+0x34ae>
     a83: 9c 20 d8     	stz	$d820                   ; 0xd820 <end_block9+0x34b0>
     a86: 8e 21 d8     	stx	$d821                   ; 0xd821 <end_block9+0x34b1>
     a89: 8e 22 d8     	stx	$d822                   ; 0xd822 <end_block9+0x34b2>
     a8c: 9c 24 d8     	stz	$d824                   ; 0xd824 <end_block9+0x34b4>
     a8f: 88           	dey
     a90: 8c 25 d8     	sty	$d825                   ; 0xd825 <end_block9+0x34b5>
     a93: 8e 26 d8     	stx	$d826                   ; 0xd826 <end_block9+0x34b6>
     a96: 9c 28 d8     	stz	$d828                   ; 0xd828 <end_block9+0x34b8>
     a99: a0 bf        	ldy	#$bf
     a9b: 8c 29 d8     	sty	$d829                   ; 0xd829 <end_block9+0x34b9>
     a9e: 8e 2a d8     	stx	$d82a                   ; 0xd82a <end_block9+0x34ba>
     aa1: 9c 2c d8     	stz	$d82c                   ; 0xd82c <end_block9+0x34bc>
     aa4: a0 9f        	ldy	#$9f
     aa6: 8c 2d d8     	sty	$d82d                   ; 0xd82d <end_block9+0x34bd>
     aa9: 8e 2e d8     	stx	$d82e                   ; 0xd82e <end_block9+0x34be>
     aac: 9c 30 d8     	stz	$d830                   ; 0xd830 <end_block9+0x34c0>
     aaf: a0 7f        	ldy	#$7f
     ab1: 8c 31 d8     	sty	$d831                   ; 0xd831 <end_block9+0x34c1>
     ab4: 8e 32 d8     	stx	$d832                   ; 0xd832 <end_block9+0x34c2>
     ab7: 9c 34 d8     	stz	$d834                   ; 0xd834 <end_block9+0x34c4>
     aba: a0 5f        	ldy	#$5f
     abc: 8c 35 d8     	sty	$d835                   ; 0xd835 <end_block9+0x34c5>
     abf: 8e 36 d8     	stx	$d836                   ; 0xd836 <end_block9+0x34c6>
     ac2: 9c 38 d8     	stz	$d838                   ; 0xd838 <end_block9+0x34c8>
     ac5: a0 3f        	ldy	#$3f
     ac7: 8c 39 d8     	sty	$d839                   ; 0xd839 <end_block9+0x34c9>
     aca: 8e 3a d8     	stx	$d83a                   ; 0xd83a <end_block9+0x34ca>
     acd: 9c 3c d8     	stz	$d83c                   ; 0xd83c <end_block9+0x34cc>
     ad0: a0 1f        	ldy	#$1f
     ad2: 8c 3d d8     	sty	$d83d                   ; 0xd83d <end_block9+0x34cd>
     ad5: 8e 3e d8     	stx	$d83e                   ; 0xd83e <end_block9+0x34ce>
     ad8: a2 03        	ldx	#$3
     ada: 86 01        	stx	$1                      ; 0x2001 <main+0x1b6d>
     adc: a2 c9        	ldx	#$c9
     ade: a0 10        	ldy	#$10
     ae0: a9 0f        	lda	#$f
     ae2: 84 12        	sty	$12                     ; 0x2012 <main+0x1b7e>
     ae4: 86 13        	stx	$13                     ; 0x2013 <main+0x1b7f>
     ae6: 92 12        	sta	($12)                   ; 0x2012 <main+0x1b7e>
     ae8: c8           	iny
     ae9: f0 06        	beq	$af1 <main+0x65d>
     aeb: e0 c9        	cpx	#$c9
     aed: d0 f3        	bne	$ae2 <main+0x64e>
     aef: 80 05        	bra	$af6 <main+0x662>
     af1: e8           	inx
     af2: e0 c9        	cpx	#$c9
     af4: d0 ec        	bne	$ae2 <main+0x64e>
     af6: c0 60        	cpy	#$60
     af8: d0 e8        	bne	$ae2 <main+0x64e>
     afa: a2 c8        	ldx	#$c8
     afc: a0 c0        	ldy	#$c0
     afe: a9 1b        	lda	#$1b
     b00: 84 12        	sty	$12                     ; 0x2012 <main+0x1b7e>
     b02: 86 13        	stx	$13                     ; 0x2013 <main+0x1b7f>
     b04: 92 12        	sta	($12)                   ; 0x2012 <main+0x1b7e>
     b06: c8           	iny
     b07: f0 06        	beq	$b0f <main+0x67b>
     b09: e0 c9        	cpx	#$c9
     b0b: d0 f3        	bne	$b00 <main+0x66c>
     b0d: 80 05        	bra	$b14 <main+0x680>
     b0f: e8           	inx
     b10: e0 c9        	cpx	#$c9
     b12: d0 ec        	bne	$b00 <main+0x66c>
     b14: c0 10        	cpy	#$10
     b16: d0 e8        	bne	$b00 <main+0x66c>
     b18: a2 70        	ldx	#$70
     b1a: a0 c8        	ldy	#$c8
     b1c: a9 27        	lda	#$27
     b1e: 86 12        	stx	$12                     ; 0x2012 <main+0x1b7e>
     b20: 84 13        	sty	$13                     ; 0x2013 <main+0x1b7f>
     b22: 92 12        	sta	($12)                   ; 0x2012 <main+0x1b7e>
     b24: e8           	inx
     b25: f0 06        	beq	$b2d <main+0x699>
     b27: c0 c8        	cpy	#$c8
     b29: d0 f3        	bne	$b1e <main+0x68a>
     b2b: 80 05        	bra	$b32 <main+0x69e>
     b2d: c8           	iny
     b2e: c0 c8        	cpy	#$c8
     b30: d0 ec        	bne	$b1e <main+0x68a>
     b32: e0 c0        	cpx	#$c0
     b34: d0 e8        	bne	$b1e <main+0x68a>
     b36: a2 c8        	ldx	#$c8
     b38: a0 20        	ldy	#$20
     b3a: a9 33        	lda	#$33
     b3c: 84 12        	sty	$12                     ; 0x2012 <main+0x1b7e>
     b3e: 86 13        	stx	$13                     ; 0x2013 <main+0x1b7f>
     b40: 92 12        	sta	($12)                   ; 0x2012 <main+0x1b7e>
     b42: c8           	iny
     b43: f0 06        	beq	$b4b <main+0x6b7>
     b45: e0 c8        	cpx	#$c8
     b47: d0 f3        	bne	$b3c <main+0x6a8>
     b49: 80 05        	bra	$b50 <main+0x6bc>
     b4b: e8           	inx
     b4c: e0 c8        	cpx	#$c8
     b4e: d0 ec        	bne	$b3c <main+0x6a8>
     b50: c0 70        	cpy	#$70
     b52: d0 e8        	bne	$b3c <main+0x6a8>
     b54: a2 c7        	ldx	#$c7
     b56: a0 d0        	ldy	#$d0
     b58: a9 3f        	lda	#$3f
     b5a: 84 12        	sty	$12                     ; 0x2012 <main+0x1b7e>
     b5c: 86 13        	stx	$13                     ; 0x2013 <main+0x1b7f>
     b5e: 92 12        	sta	($12)                   ; 0x2012 <main+0x1b7e>
     b60: c8           	iny
     b61: f0 06        	beq	$b69 <main+0x6d5>
     b63: e0 c8        	cpx	#$c8
     b65: d0 f3        	bne	$b5a <main+0x6c6>
     b67: 80 05        	bra	$b6e <main+0x6da>
     b69: e8           	inx
     b6a: e0 c8        	cpx	#$c8
     b6c: d0 ec        	bne	$b5a <main+0x6c6>
     b6e: c0 20        	cpy	#$20
     b70: d0 e8        	bne	$b5a <main+0x6c6>
     b72: a2 c7        	ldx	#$c7
     b74: a0 80        	ldy	#$80
     b76: a9 4b        	lda	#$4b
     b78: 84 12        	sty	$12                     ; 0x2012 <main+0x1b7e>
     b7a: 86 13        	stx	$13                     ; 0x2013 <main+0x1b7f>
     b7c: 92 12        	sta	($12)                   ; 0x2012 <main+0x1b7e>
     b7e: c8           	iny
     b7f: f0 06        	beq	$b87 <main+0x6f3>
     b81: e0 c7        	cpx	#$c7
     b83: d0 f3        	bne	$b78 <main+0x6e4>
     b85: 80 05        	bra	$b8c <main+0x6f8>
     b87: e8           	inx
     b88: e0 c7        	cpx	#$c7
     b8a: d0 ec        	bne	$b78 <main+0x6e4>
     b8c: c0 d0        	cpy	#$d0
     b8e: d0 e8        	bne	$b78 <main+0x6e4>
     b90: a0 c7        	ldy	#$c7
     b92: a2 30        	ldx	#$30
     b94: a9 57        	lda	#$57
     b96: 86 12        	stx	$12                     ; 0x2012 <main+0x1b7e>
     b98: 84 13        	sty	$13                     ; 0x2013 <main+0x1b7f>
     b9a: 92 12        	sta	($12)                   ; 0x2012 <main+0x1b7e>
     b9c: e8           	inx
     b9d: f0 06        	beq	$ba5 <main+0x711>
     b9f: c0 c7        	cpy	#$c7
     ba1: d0 f3        	bne	$b96 <main+0x702>
     ba3: 80 05        	bra	$baa <main+0x716>
     ba5: c8           	iny
     ba6: c0 c7        	cpy	#$c7
     ba8: d0 ec        	bne	$b96 <main+0x702>
     baa: e0 80        	cpx	#$80
     bac: d0 e8        	bne	$b96 <main+0x702>
     bae: a2 c6        	ldx	#$c6
     bb0: a0 e0        	ldy	#$e0
     bb2: a9 63        	lda	#$63
     bb4: 84 12        	sty	$12                     ; 0x2012 <main+0x1b7e>
     bb6: 86 13        	stx	$13                     ; 0x2013 <main+0x1b7f>
     bb8: 92 12        	sta	($12)                   ; 0x2012 <main+0x1b7e>
     bba: c8           	iny
     bbb: f0 06        	beq	$bc3 <main+0x72f>
     bbd: e0 c7        	cpx	#$c7
     bbf: d0 f3        	bne	$bb4 <main+0x720>
     bc1: 80 05        	bra	$bc8 <main+0x734>
     bc3: e8           	inx
     bc4: e0 c7        	cpx	#$c7
     bc6: d0 ec        	bne	$bb4 <main+0x720>
     bc8: c0 30        	cpy	#$30
     bca: d0 e8        	bne	$bb4 <main+0x720>
     bcc: a2 90        	ldx	#$90
     bce: a0 c6        	ldy	#$c6
     bd0: a9 6f        	lda	#$6f
     bd2: 86 12        	stx	$12                     ; 0x2012 <main+0x1b7e>
     bd4: 84 13        	sty	$13                     ; 0x2013 <main+0x1b7f>
     bd6: 92 12        	sta	($12)                   ; 0x2012 <main+0x1b7e>
     bd8: e8           	inx
     bd9: f0 06        	beq	$be1 <main+0x74d>
     bdb: c0 c6        	cpy	#$c6
     bdd: d0 f3        	bne	$bd2 <main+0x73e>
     bdf: 80 05        	bra	$be6 <main+0x752>
     be1: c8           	iny
     be2: c0 c6        	cpy	#$c6
     be4: d0 ec        	bne	$bd2 <main+0x73e>
     be6: e0 e0        	cpx	#$e0
     be8: d0 e8        	bne	$bd2 <main+0x73e>
     bea: a2 c6        	ldx	#$c6
     bec: a0 40        	ldy	#$40
     bee: a9 7b        	lda	#$7b
     bf0: 84 12        	sty	$12                     ; 0x2012 <main+0x1b7e>
     bf2: 86 13        	stx	$13                     ; 0x2013 <main+0x1b7f>
     bf4: 92 12        	sta	($12)                   ; 0x2012 <main+0x1b7e>
     bf6: c8           	iny
     bf7: f0 06        	beq	$bff <main+0x76b>
     bf9: e0 c6        	cpx	#$c6
     bfb: d0 f3        	bne	$bf0 <main+0x75c>
     bfd: 80 05        	bra	$c04 <main+0x770>
     bff: e8           	inx
     c00: e0 c6        	cpx	#$c6
     c02: d0 ec        	bne	$bf0 <main+0x75c>
     c04: c0 90        	cpy	#$90
     c06: d0 e8        	bne	$bf0 <main+0x75c>
     c08: a0 c5        	ldy	#$c5
     c0a: a2 f0        	ldx	#$f0
     c0c: a9 87        	lda	#$87
     c0e: 86 12        	stx	$12                     ; 0x2012 <main+0x1b7e>
     c10: 84 13        	sty	$13                     ; 0x2013 <main+0x1b7f>
     c12: 92 12        	sta	($12)                   ; 0x2012 <main+0x1b7e>
     c14: e8           	inx
     c15: f0 06        	beq	$c1d <main+0x789>
     c17: c0 c6        	cpy	#$c6
     c19: d0 f3        	bne	$c0e <main+0x77a>
     c1b: 80 05        	bra	$c22 <main+0x78e>
     c1d: c8           	iny
     c1e: c0 c6        	cpy	#$c6
     c20: d0 ec        	bne	$c0e <main+0x77a>
     c22: e0 40        	cpx	#$40
     c24: d0 e8        	bne	$c0e <main+0x77a>
     c26: a2 c5        	ldx	#$c5
     c28: a0 a0        	ldy	#$a0
     c2a: a9 93        	lda	#$93
     c2c: 84 12        	sty	$12                     ; 0x2012 <main+0x1b7e>
     c2e: 86 13        	stx	$13                     ; 0x2013 <main+0x1b7f>
     c30: 92 12        	sta	($12)                   ; 0x2012 <main+0x1b7e>
     c32: c8           	iny
     c33: f0 06        	beq	$c3b <main+0x7a7>
     c35: e0 c5        	cpx	#$c5
     c37: d0 f3        	bne	$c2c <main+0x798>
     c39: 80 05        	bra	$c40 <main+0x7ac>
     c3b: e8           	inx
     c3c: e0 c5        	cpx	#$c5
     c3e: d0 ec        	bne	$c2c <main+0x798>
     c40: c0 f0        	cpy	#$f0
     c42: d0 e8        	bne	$c2c <main+0x798>
     c44: a2 c5        	ldx	#$c5
     c46: a0 50        	ldy	#$50
     c48: a9 9f        	lda	#$9f
     c4a: 84 12        	sty	$12                     ; 0x2012 <main+0x1b7e>
     c4c: 86 13        	stx	$13                     ; 0x2013 <main+0x1b7f>
     c4e: 92 12        	sta	($12)                   ; 0x2012 <main+0x1b7e>
     c50: c8           	iny
     c51: f0 06        	beq	$c59 <main+0x7c5>
     c53: e0 c5        	cpx	#$c5
     c55: d0 f3        	bne	$c4a <main+0x7b6>
     c57: 80 05        	bra	$c5e <main+0x7ca>
     c59: e8           	inx
     c5a: e0 c5        	cpx	#$c5
     c5c: d0 ec        	bne	$c4a <main+0x7b6>
     c5e: c0 a0        	cpy	#$a0
     c60: d0 e8        	bne	$c4a <main+0x7b6>
     c62: a2 c5        	ldx	#$c5
     c64: a0 00        	ldy	#$0
     c66: a9 ab        	lda	#$ab
     c68: 84 12        	sty	$12                     ; 0x2012 <main+0x1b7e>
     c6a: 86 13        	stx	$13                     ; 0x2013 <main+0x1b7f>
     c6c: 92 12        	sta	($12)                   ; 0x2012 <main+0x1b7e>
     c6e: c8           	iny
     c6f: f0 06        	beq	$c77 <main+0x7e3>
     c71: e0 c5        	cpx	#$c5
     c73: d0 f3        	bne	$c68 <main+0x7d4>
     c75: 80 05        	bra	$c7c <main+0x7e8>
     c77: e8           	inx
     c78: e0 c5        	cpx	#$c5
     c7a: d0 ec        	bne	$c68 <main+0x7d4>
     c7c: c0 50        	cpy	#$50
     c7e: d0 e8        	bne	$c68 <main+0x7d4>
     c80: a0 c4        	ldy	#$c4
     c82: a2 b0        	ldx	#$b0
     c84: a9 b7        	lda	#$b7
     c86: 86 12        	stx	$12                     ; 0x2012 <main+0x1b7e>
     c88: 84 13        	sty	$13                     ; 0x2013 <main+0x1b7f>
     c8a: 92 12        	sta	($12)                   ; 0x2012 <main+0x1b7e>
     c8c: e8           	inx
     c8d: f0 06        	beq	$c95 <main+0x801>
     c8f: c0 c5        	cpy	#$c5
     c91: d0 f3        	bne	$c86 <main+0x7f2>
     c93: 80 05        	bra	$c9a <main+0x806>
     c95: c8           	iny
     c96: c0 c5        	cpy	#$c5
     c98: d0 ec        	bne	$c86 <main+0x7f2>
     c9a: e0 00        	cpx	#$0
     c9c: d0 e8        	bne	$c86 <main+0x7f2>
     c9e: a2 c4        	ldx	#$c4
     ca0: a0 60        	ldy	#$60
     ca2: a9 c3        	lda	#$c3
     ca4: 84 12        	sty	$12                     ; 0x2012 <main+0x1b7e>
     ca6: 86 13        	stx	$13                     ; 0x2013 <main+0x1b7f>
     ca8: 92 12        	sta	($12)                   ; 0x2012 <main+0x1b7e>
     caa: c8           	iny
     cab: f0 06        	beq	$cb3 <main+0x81f>
     cad: e0 c4        	cpx	#$c4
     caf: d0 f3        	bne	$ca4 <main+0x810>
     cb1: 80 05        	bra	$cb8 <main+0x824>
     cb3: e8           	inx
     cb4: e0 c4        	cpx	#$c4
     cb6: d0 ec        	bne	$ca4 <main+0x810>
     cb8: c0 b0        	cpy	#$b0
     cba: d0 e8        	bne	$ca4 <main+0x810>
     cbc: a2 c4        	ldx	#$c4
     cbe: a0 10        	ldy	#$10
     cc0: a9 cf        	lda	#$cf
     cc2: 84 12        	sty	$12                     ; 0x2012 <main+0x1b7e>
     cc4: 86 13        	stx	$13                     ; 0x2013 <main+0x1b7f>
     cc6: 92 12        	sta	($12)                   ; 0x2012 <main+0x1b7e>
     cc8: c8           	iny
     cc9: f0 06        	beq	$cd1 <main+0x83d>
     ccb: e0 c4        	cpx	#$c4
     ccd: d0 f3        	bne	$cc2 <main+0x82e>
     ccf: 80 05        	bra	$cd6 <main+0x842>
     cd1: e8           	inx
     cd2: e0 c4        	cpx	#$c4
     cd4: d0 ec        	bne	$cc2 <main+0x82e>
     cd6: c0 60        	cpy	#$60
     cd8: d0 e8        	bne	$cc2 <main+0x82e>
     cda: a2 c3        	ldx	#$c3
     cdc: a0 c0        	ldy	#$c0
     cde: a9 db        	lda	#$db
     ce0: 84 12        	sty	$12                     ; 0x2012 <main+0x1b7e>
     ce2: 86 13        	stx	$13                     ; 0x2013 <main+0x1b7f>
     ce4: 92 12        	sta	($12)                   ; 0x2012 <main+0x1b7e>
     ce6: c8           	iny
     ce7: f0 06        	beq	$cef <main+0x85b>
     ce9: e0 c4        	cpx	#$c4
     ceb: d0 f3        	bne	$ce0 <main+0x84c>
     ced: 80 05        	bra	$cf4 <main+0x860>
     cef: e8           	inx
     cf0: e0 c4        	cpx	#$c4
     cf2: d0 ec        	bne	$ce0 <main+0x84c>
     cf4: c0 10        	cpy	#$10
     cf6: d0 e8        	bne	$ce0 <main+0x84c>
     cf8: a0 c3        	ldy	#$c3
     cfa: a2 70        	ldx	#$70
     cfc: a9 e7        	lda	#$e7
     cfe: 86 12        	stx	$12                     ; 0x2012 <main+0x1b7e>
     d00: 84 13        	sty	$13                     ; 0x2013 <main+0x1b7f>
     d02: 92 12        	sta	($12)                   ; 0x2012 <main+0x1b7e>
     d04: e8           	inx
     d05: f0 06        	beq	$d0d <main+0x879>
     d07: c0 c3        	cpy	#$c3
     d09: d0 f3        	bne	$cfe <main+0x86a>
     d0b: 80 05        	bra	$d12 <main+0x87e>
     d0d: c8           	iny
     d0e: c0 c3        	cpy	#$c3
     d10: d0 ec        	bne	$cfe <main+0x86a>
     d12: e0 c0        	cpx	#$c0
     d14: d0 e8        	bne	$cfe <main+0x86a>
     d16: a2 c3        	ldx	#$c3
     d18: a0 20        	ldy	#$20
     d1a: a9 f3        	lda	#$f3
     d1c: 84 12        	sty	$12                     ; 0x2012 <main+0x1b7e>
     d1e: 86 13        	stx	$13                     ; 0x2013 <main+0x1b7f>
     d20: 92 12        	sta	($12)                   ; 0x2012 <main+0x1b7e>
     d22: c8           	iny
     d23: f0 06        	beq	$d2b <main+0x897>
     d25: e0 c3        	cpx	#$c3
     d27: d0 f3        	bne	$d1c <main+0x888>
     d29: 80 05        	bra	$d30 <main+0x89c>
     d2b: e8           	inx
     d2c: e0 c3        	cpx	#$c3
     d2e: d0 ec        	bne	$d1c <main+0x888>
     d30: c0 70        	cpy	#$70
     d32: d0 e8        	bne	$d1c <main+0x888>
     d34: 64 01        	stz	$1                      ; 0x2001 <main+0x1b6d>
     d36: ad a7 d6     	lda	$d6a7                   ; 0xd6a7 <end_block9+0x3337>
     d39: 29 3f        	and	#$3f
     d3b: c9 11        	cmp	#$11
     d3d: f0 07        	beq	$d46 <main+0x8b2>
     d3f: c9 22        	cmp	#$22
     d41: f0 03        	beq	$d46 <main+0x8b2>
     d43: 4c 3b 0e     	jmp	$e3b <main+0x9a7>
     d46: a5 25        	lda	$25                     ; 0x2025 <main+0x1b91>
     d48: a0 10        	ldy	#$10
     d4a: 91 10        	sta	($10),y                 ; 0x2010 <main+0x1b7c>
     d4c: 64 25        	stz	$25                     ; 0x2025 <main+0x1b91>
     d4e: 9c 01 d0     	stz	$d001                   ; 0xd001 <end_block9+0x2c91>
     d51: a2 13        	ldx	#$13
     d53: 86 12        	stx	$12                     ; 0x2012 <main+0x1b7e>
     d55: a2 68        	ldx	#$68
     d57: 86 13        	stx	$13                     ; 0x2013 <main+0x1b7f>
     d59: 20 a9 64     	jsr	$64a9 <printf>
     d5c: a2 36        	ldx	#$36
     d5e: a0 0d        	ldy	#$d
     d60: a9 f4        	lda	#$f4
     d62: 85 12        	sta	$12                     ; 0x2012 <main+0x1b7e>
     d64: a9 95        	lda	#$95
     d66: 85 13        	sta	$13                     ; 0x2013 <main+0x1b7f>
     d68: 84 14        	sty	$14                     ; 0x2014 <main+0x1b80>
     d6a: a9 00        	lda	#$0
     d6c: 20 2f 66     	jsr	$662f <__memset>
     d6f: a2 01        	ldx	#$1
     d71: 8e f2 95     	stx	$95f2                   ; 0x95f2 <fpr>
     d74: a2 07        	ldx	#$7
     d76: 8e f3 95     	stx	$95f3                   ; 0x95f3 <fpr+0x1>
     d79: a2 42        	ldx	#$42
     d7b: 86 12        	stx	$12                     ; 0x2012 <main+0x1b7e>
     d7d: a2 67        	ldx	#$67
     d7f: 86 13        	stx	$13                     ; 0x2013 <main+0x1b7f>
     d81: 20 a9 64     	jsr	$64a9 <printf>
     d84: a2 6d        	ldx	#$6d
     d86: 8e f4 95     	stx	$95f4                   ; 0x95f4 <fpr+0x2>
     d89: a2 70        	ldx	#$70
     d8b: 8e f5 95     	stx	$95f5                   ; 0x95f5 <fpr+0x3>
     d8e: a2 33        	ldx	#$33
     d90: 8e f6 95     	stx	$95f6                   ; 0x95f6 <fpr+0x4>
     d93: 9c f7 95     	stz	$95f7                   ; 0x95f7 <fpr+0x5>
     d96: a2 f8        	ldx	#$f8
     d98: 86 12        	stx	$12                     ; 0x2012 <main+0x1b7e>
     d9a: a2 95        	ldx	#$95
     d9c: 86 13        	stx	$13                     ; 0x2013 <main+0x1b7f>
     d9e: a2 1c        	ldx	#$1c
     da0: 64 14        	stz	$14                     ; 0x2014 <main+0x1b80>
     da2: a9 00        	lda	#$0
     da4: 20 2f 66     	jsr	$662f <__memset>
     da7: ae 89 67     	ldx	$6789                   ; 0x6789 <textColors+0xe9>
     daa: 8e 1e a3     	stx	$a31e                   ; 0xa31e <fpr+0xd2c>
     dad: ae 8a 67     	ldx	$678a                   ; 0x678a <textColors+0xea>
     db0: 8e 1f a3     	stx	$a31f                   ; 0xa31f <fpr+0xd2d>
     db3: ae 8b 67     	ldx	$678b                   ; 0x678b <textColors+0xeb>
     db6: 8e 20 a3     	stx	$a320                   ; 0xa320 <fpr+0xd2e>
     db9: ae 2d 67     	ldx	$672d                   ; 0x672d <textColors+0x8d>
     dbc: 8e 21 a3     	stx	$a321                   ; 0xa321 <fpr+0xd2f>
     dbf: ae 2e 67     	ldx	$672e                   ; 0x672e <textColors+0x8e>
     dc2: 8e 22 a3     	stx	$a322                   ; 0xa322 <fpr+0xd30>
     dc5: ae 2f 67     	ldx	$672f                   ; 0x672f <textColors+0x8f>
     dc8: 8e 23 a3     	stx	$a323                   ; 0xa323 <fpr+0xd31>
     dcb: ae 3e 68     	ldx	$683e                   ; 0x683e <textColors+0x19e>
     dce: 8e 24 a3     	stx	$a324                   ; 0xa324 <fpr+0xd32>
     dd1: ae 3f 68     	ldx	$683f                   ; 0x683f <textColors+0x19f>
     dd4: 8e 25 a3     	stx	$a325                   ; 0xa325 <fpr+0xd33>
     dd7: ae 40 68     	ldx	$6840                   ; 0x6840 <textColors+0x1a0>
     dda: 8e 26 a3     	stx	$a326                   ; 0xa326 <fpr+0xd34>
     ddd: ae 69 67     	ldx	$6769                   ; 0x6769 <textColors+0xc9>
     de0: 8e 27 a3     	stx	$a327                   ; 0xa327 <fpr+0xd35>
     de3: ae 6a 67     	ldx	$676a                   ; 0x676a <textColors+0xca>
     de6: 8e 28 a3     	stx	$a328                   ; 0xa328 <fpr+0xd36>
     de9: ae 6b 67     	ldx	$676b                   ; 0x676b <textColors+0xcb>
     dec: 8e 29 a3     	stx	$a329                   ; 0xa329 <fpr+0xd37>
     def: ae f4 95     	ldx	$95f4                   ; 0x95f4 <fpr+0x2>
     df2: d0 03        	bne	$df7 <main+0x963>
     df4: 4c a9 0e     	jmp	$ea9 <main+0xa15>
     df7: 86 18        	stx	$18                     ; 0x2018 <main+0x1b84>
     df9: 64 12        	stz	$12                     ; 0x2012 <main+0x1b7e>
     dfb: a0 38        	ldy	#$38
     dfd: b1 10        	lda	($10),y                 ; 0x2010 <main+0x1b7c>
     dff: 85 16        	sta	$16                     ; 0x2016 <main+0x1b82>
     e01: c8           	iny
     e02: b1 10        	lda	($10),y                 ; 0x2010 <main+0x1b7c>
     e04: 85 17        	sta	$17                     ; 0x2017 <main+0x1b83>
     e06: a4 12        	ldy	$12                     ; 0x2012 <main+0x1b7e>
     e08: a6 25        	ldx	$25                     ; 0x2025 <main+0x1b91>
     e0a: e8           	inx
     e0b: d0 01        	bne	$e0e <main+0x97a>
     e0d: c8           	iny
     e0e: a9 f5        	lda	#$f5
     e10: 18           	clc
     e11: 65 25        	adc	$25                     ; 0x2025 <main+0x1b91>
     e13: 85 14        	sta	$14                     ; 0x2014 <main+0x1b80>
     e15: a9 95        	lda	#$95
     e17: 65 12        	adc	$12                     ; 0x2012 <main+0x1b7e>
     e19: 5a           	phy
     e1a: a4 14        	ldy	$14                     ; 0x2014 <main+0x1b80>
     e1c: 84 12        	sty	$12                     ; 0x2012 <main+0x1b7e>
     e1e: 7a           	ply
     e1f: 85 13        	sta	$13                     ; 0x2013 <main+0x1b7f>
     e21: b2 12        	lda	($12)                   ; 0x2012 <main+0x1b7e>
     e23: 86 25        	stx	$25                     ; 0x2025 <main+0x1b91>
     e25: 84 12        	sty	$12                     ; 0x2012 <main+0x1b7e>
     e27: d0 dd        	bne	$e06 <main+0x972>
     e29: 98           	tya
     e2a: f0 03        	beq	$e2f <main+0x99b>
     e2c: 4c ba 0e     	jmp	$eba <main+0xa26>
     e2f: e0 02        	cpx	#$2
     e31: 90 03        	bcc	$e36 <main+0x9a2>
     e33: 4c c1 0e     	jmp	$ec1 <main+0xa2d>
     e36: a0 00        	ldy	#$0
     e38: 4c e0 0e     	jmp	$ee0 <main+0xa4c>
     e3b: ad a7 d6     	lda	$d6a7                   ; 0xd6a7 <end_block9+0x3337>
     e3e: 29 3f        	and	#$3f
     e40: 92 10        	sta	($10)                   ; 0x2010 <main+0x1b7c>
     e42: a0 01        	ldy	#$1
     e44: a9 00        	lda	#$0
     e46: 91 10        	sta	($10),y                 ; 0x2010 <main+0x1b7c>
     e48: a2 42        	ldx	#$42
     e4a: 86 12        	stx	$12                     ; 0x2012 <main+0x1b7e>
     e4c: a2 68        	ldx	#$68
     e4e: 86 13        	stx	$13                     ; 0x2013 <main+0x1b7f>
     e50: 20 a9 64     	jsr	$64a9 <printf>
     e53: a2 f6        	ldx	#$f6
     e55: 86 12        	stx	$12                     ; 0x2012 <main+0x1b7e>
     e57: a2 66        	ldx	#$66
     e59: 86 13        	stx	$13                     ; 0x2013 <main+0x1b7f>
     e5b: 20 a9 64     	jsr	$64a9 <printf>
     e5e: a2 a6        	ldx	#$a6
     e60: 86 12        	stx	$12                     ; 0x2012 <main+0x1b7e>
     e62: a2 67        	ldx	#$67
     e64: 86 13        	stx	$13                     ; 0x2013 <main+0x1b7f>
     e66: 20 a9 64     	jsr	$64a9 <printf>
     e69: a2 d0        	ldx	#$d0
     e6b: 86 12        	stx	$12                     ; 0x2012 <main+0x1b7e>
     e6d: a2 66        	ldx	#$66
     e6f: 86 13        	stx	$13                     ; 0x2013 <main+0x1b7f>
     e71: 20 a9 64     	jsr	$64a9 <printf>
     e74: a2 39        	ldx	#$39
     e76: 86 12        	stx	$12                     ; 0x2012 <main+0x1b7e>
     e78: a2 00        	ldx	#$0
     e7a: 86 13        	stx	$13                     ; 0x2013 <main+0x1b7f>
     e7c: a0 38        	ldy	#$38
     e7e: b1 10        	lda	($10),y                 ; 0x2010 <main+0x1b7c>
     e80: 85 14        	sta	$14                     ; 0x2014 <main+0x1b80>
     e82: c8           	iny
     e83: b1 10        	lda	($10),y                 ; 0x2010 <main+0x1b7c>
     e85: 85 15        	sta	$15                     ; 0x2015 <main+0x1b81>
     e87: 64 3a        	stz	$3a                     ; 0x203a <main+0x1ba6>
     e89: 20 00 ff     	jsr	$ff00 <end_block9+0x5b90>
     e8c: 92 14        	sta	($14)                   ; 0x2014 <main+0x1b80>
     e8e: a9 00        	lda	#$0
     e90: 6a           	ror
     e91: 85 12        	sta	$12                     ; 0x2012 <main+0x1b7e>
     e93: a6 3a        	ldx	$3a                     ; 0x203a <main+0x1ba6>
     e95: e0 08        	cpx	#$8
     e97: d0 ee        	bne	$e87 <main+0x9f3>
     e99: a6 3e        	ldx	$3e                     ; 0x203e <main+0x1baa>
     e9b: e0 94        	cpx	#$94
     e9d: d0 03        	bne	$ea2 <main+0xa0e>
     e9f: 4c 31 4d     	jmp	$4d31 <main+0x489d>
     ea2: e0 20        	cpx	#$20
     ea4: d0 e1        	bne	$e87 <main+0x9f3>
     ea6: 4c 31 4d     	jmp	$4d31 <main+0x489d>
     ea9: a0 00        	ldy	#$0
     eab: 5a           	phy
     eac: a0 38        	ldy	#$38
     eae: b1 10        	lda	($10),y                 ; 0x2010 <main+0x1b7c>
     eb0: 85 16        	sta	$16                     ; 0x2016 <main+0x1b82>
     eb2: c8           	iny
     eb3: b1 10        	lda	($10),y                 ; 0x2010 <main+0x1b7c>
     eb5: 7a           	ply
     eb6: 85 17        	sta	$17                     ; 0x2017 <main+0x1b83>
     eb8: 80 26        	bra	$ee0 <main+0xa4c>
     eba: c0 00        	cpy	#$0
     ebc: b0 03        	bcs	$ec1 <main+0xa2d>
     ebe: 4c 36 0e     	jmp	$e36 <main+0x9a2>
     ec1: ae f5 95     	ldx	$95f5                   ; 0x95f5 <fpr+0x3>
     ec4: a0 00        	ldy	#$0
     ec6: e0 3a        	cpx	#$3a
     ec8: d0 16        	bne	$ee0 <main+0xa4c>
     eca: a5 18        	lda	$18                     ; 0x2018 <main+0x1b84>
     ecc: c9 30        	cmp	#$30
     ece: 90 08        	bcc	$ed8 <main+0xa44>
     ed0: c9 38        	cmp	#$38
     ed2: b0 04        	bcs	$ed8 <main+0xa44>
     ed4: 18           	clc
     ed5: 69 d0        	adc	#$d0
     ed7: a8           	tay
     ed8: a2 f6        	ldx	#$f6
     eda: 86 2e        	stx	$2e                     ; 0x202e <main+0x1b9a>
     edc: a2 95        	ldx	#$95
     ede: 86 2f        	stx	$2f                     ; 0x202f <main+0x1b9b>
     ee0: be e8 94     	ldx	$94e8,y                 ; 0x94e8 <_dirStream>
     ee3: f0 03        	beq	$ee8 <main+0xa54>
     ee5: 4c 8d 13     	jmp	$138d <main+0xef9>
     ee8: 84 25        	sty	$25                     ; 0x2025 <main+0x1b91>
     eea: a6 25        	ldx	$25                     ; 0x2025 <main+0x1b91>
     eec: 86 f3        	stx	$f3                     ; 0x20f3 <main+0x1c5f>
     eee: a6 2e        	ldx	$2e                     ; 0x202e <main+0x1b9a>
     ef0: a4 2f        	ldy	$2f                     ; 0x202f <main+0x1b9b>
     ef2: 86 fb        	stx	$fb                     ; 0x20fb <main+0x1c67>
     ef4: 84 fc        	sty	$fc                     ; 0x20fc <main+0x1c68>
     ef6: b2 2e        	lda	($2e)                   ; 0x202e <main+0x1b9a>
     ef8: f0 2b        	beq	$f25 <main+0xa91>
     efa: a2 00        	ldx	#$0
     efc: a0 01        	ldy	#$1
     efe: 8a           	txa
     eff: 64 12        	stz	$12                     ; 0x2012 <main+0x1b7e>
     f01: 86 13        	stx	$13                     ; 0x2013 <main+0x1b7f>
     f03: e8           	inx
     f04: d0 02        	bne	$f08 <main+0xa74>
     f06: e6 12        	inc	$12                     ; 0x2012 <main+0x1b7e>
     f08: 18           	clc
     f09: 85 15        	sta	$15                     ; 0x2015 <main+0x1b81>
     f0b: a5 13        	lda	$13                     ; 0x2013 <main+0x1b7f>
     f0d: 65 2e        	adc	$2e                     ; 0x202e <main+0x1b9a>
     f0f: 85 14        	sta	$14                     ; 0x2014 <main+0x1b80>
     f11: a5 15        	lda	$15                     ; 0x2015 <main+0x1b81>
     f13: 65 2f        	adc	$2f                     ; 0x202f <main+0x1b9b>
     f15: 85 15        	sta	$15                     ; 0x2015 <main+0x1b81>
     f17: b1 14        	lda	($14),y                 ; 0x2014 <main+0x1b80>
     f19: 85 13        	sta	$13                     ; 0x2013 <main+0x1b7f>
     f1b: a5 12        	lda	$12                     ; 0x2012 <main+0x1b7e>
     f1d: e6 13        	inc	$13                     ; 0x2013 <main+0x1b7f>
     f1f: c6 13        	dec	$13                     ; 0x2013 <main+0x1b7f>
     f21: d0 de        	bne	$f01 <main+0xa6d>
     f23: 80 02        	bra	$f27 <main+0xa93>
     f25: a2 00        	ldx	#$0
     f27: 86 fd        	stx	$fd                     ; 0x20fd <main+0x1c69>
     f29: a2 39        	ldx	#$39
     f2b: 86 12        	stx	$12                     ; 0x2012 <main+0x1b7e>
     f2d: a2 00        	ldx	#$0
     f2f: 86 13        	stx	$13                     ; 0x2013 <main+0x1b7f>
     f31: 20 78 ff     	jsr	$ff78 <end_block9+0x5c08>
     f34: 92 16        	sta	($16)                   ; 0x2016 <main+0x1b82>
     f36: a9 00        	lda	#$0
     f38: 6a           	ror
     f39: 85 12        	sta	$12                     ; 0x2012 <main+0x1b7e>
     f3b: a6 39        	ldx	$39                     ; 0x2039 <main+0x1ba5>
     f3d: f0 03        	beq	$f42 <main+0xaae>
     f3f: 4c 8d 13     	jmp	$138d <main+0xef9>
     f42: a9 e8        	lda	#$e8
     f44: 18           	clc
     f45: 65 25        	adc	$25                     ; 0x2025 <main+0x1b91>
     f47: 85 14        	sta	$14                     ; 0x2014 <main+0x1b80>
     f49: a9 94        	lda	#$94
     f4b: 69 00        	adc	#$0
     f4d: 85 15        	sta	$15                     ; 0x2015 <main+0x1b81>
     f4f: b2 16        	lda	($16)                   ; 0x2016 <main+0x1b82>
     f51: 85 18        	sta	$18                     ; 0x2018 <main+0x1b84>
     f53: 64 3a        	stz	$3a                     ; 0x203a <main+0x1ba6>
     f55: 20 00 ff     	jsr	$ff00 <end_block9+0x5b90>
     f58: 92 16        	sta	($16)                   ; 0x2016 <main+0x1b82>
     f5a: a9 00        	lda	#$0
     f5c: 6a           	ror
     f5d: 85 12        	sta	$12                     ; 0x2012 <main+0x1b7e>
     f5f: a6 3a        	ldx	$3a                     ; 0x203a <main+0x1ba6>
     f61: e0 48        	cpx	#$48
     f63: d0 03        	bne	$f68 <main+0xad4>
     f65: 4c 8d 13     	jmp	$138d <main+0xef9>
     f68: e0 3c        	cpx	#$3c
     f6a: d0 e7        	bne	$f53 <main+0xabf>
     f6c: a6 25        	ldx	$25                     ; 0x2025 <main+0x1b91>
     f6e: a5 18        	lda	$18                     ; 0x2018 <main+0x1b84>
     f70: 9d e8 94     	sta	$94e8,x                 ; 0x94e8 <_dirStream>
     f73: a5 14        	lda	$14                     ; 0x2014 <main+0x1b80>
     f75: a0 36        	ldy	#$36
     f77: 91 10        	sta	($10),y                 ; 0x2010 <main+0x1b7c>
     f79: a5 15        	lda	$15                     ; 0x2015 <main+0x1b81>
     f7b: c8           	iny
     f7c: 91 10        	sta	($10),y                 ; 0x2010 <main+0x1b7c>
     f7e: 88           	dey
     f7f: b1 10        	lda	($10),y                 ; 0x2010 <main+0x1b7c>
     f81: 85 12        	sta	$12                     ; 0x2012 <main+0x1b7e>
     f83: c8           	iny
     f84: b1 10        	lda	($10),y                 ; 0x2010 <main+0x1b7c>
     f86: 85 13        	sta	$13                     ; 0x2013 <main+0x1b7f>
     f88: 20 26 52     	jsr	$5226 <fileReadDir>
     f8b: a0 36        	ldy	#$36
     f8d: b1 10        	lda	($10),y                 ; 0x2010 <main+0x1b7c>
     f8f: 85 12        	sta	$12                     ; 0x2012 <main+0x1b7e>
     f91: c8           	iny
     f92: b1 10        	lda	($10),y                 ; 0x2010 <main+0x1b7c>
     f94: 85 13        	sta	$13                     ; 0x2013 <main+0x1b7f>
     f96: a2 55        	ldx	#$55
     f98: 86 16        	stx	$16                     ; 0x2016 <main+0x1b82>
     f9a: a2 96        	ldx	#$96
     f9c: 86 17        	stx	$17                     ; 0x2017 <main+0x1b83>
     f9e: 64 14        	stz	$14                     ; 0x2014 <main+0x1b80>
     fa0: a2 00        	ldx	#$0
     fa2: 86 2e        	stx	$2e                     ; 0x202e <main+0x1b9a>
     fa4: a2 00        	ldx	#$0
     fa6: 86 2f        	stx	$2f                     ; 0x202f <main+0x1b9b>
     fa8: a9 01        	lda	#$1
     faa: 64 15        	stz	$15                     ; 0x2015 <main+0x1b81>
     fac: 48           	pha
     fad: 8a           	txa
     fae: a0 35        	ldy	#$35
     fb0: 91 10        	sta	($10),y                 ; 0x2010 <main+0x1b7c>
     fb2: 68           	pla
     fb3: a2 00        	ldx	#$0
     fb5: 48           	pha
     fb6: 8a           	txa
     fb7: a0 31        	ldy	#$31
     fb9: 91 10        	sta	($10),y                 ; 0x2010 <main+0x1b7c>
     fbb: 68           	pla
     fbc: a0 34        	ldy	#$34
     fbe: 91 10        	sta	($10),y                 ; 0x2010 <main+0x1b7c>
     fc0: a5 16        	lda	$16                     ; 0x2016 <main+0x1b82>
     fc2: a0 32        	ldy	#$32
     fc4: 91 10        	sta	($10),y                 ; 0x2010 <main+0x1b7c>
     fc6: a5 17        	lda	$17                     ; 0x2017 <main+0x1b83>
     fc8: c8           	iny
     fc9: 91 10        	sta	($10),y                 ; 0x2010 <main+0x1b7c>
     fcb: 4c 4f 12     	jmp	$124f <main+0xdbb>
     fce: 98           	tya
     fcf: 18           	clc
     fd0: 65 18        	adc	$18                     ; 0x2018 <main+0x1b84>
     fd2: 85 1c        	sta	$1c                     ; 0x201c <main+0x1b88>
     fd4: 8a           	txa
     fd5: 65 19        	adc	$19                     ; 0x2019 <main+0x1b85>
     fd7: c8           	iny
     fd8: d0 01        	bne	$fdb <main+0xb47>
     fda: e8           	inx
     fdb: 48           	pha
     fdc: a5 1c        	lda	$1c                     ; 0x201c <main+0x1b88>
     fde: 85 16        	sta	$16                     ; 0x2016 <main+0x1b82>
     fe0: 68           	pla
     fe1: 84 1c        	sty	$1c                     ; 0x201c <main+0x1b88>
     fe3: 85 17        	sta	$17                     ; 0x2017 <main+0x1b83>
     fe5: a0 02        	ldy	#$2
     fe7: b1 16        	lda	($16),y                 ; 0x2016 <main+0x1b82>
     fe9: a4 1c        	ldy	$1c                     ; 0x201c <main+0x1b88>
     feb: c9 00        	cmp	#$0
     fed: d0 df        	bne	$fce <main+0xb3a>
     fef: 4c 28 19     	jmp	$1928 <main+0x1494>
     ff2: e0 00        	cpx	#$0
     ff4: b0 03        	bcs	$ff9 <main+0xb65>
     ff6: 4c 6d 10     	jmp	$106d <main+0xbd9>
     ff9: a2 00        	ldx	#$0
     ffb: 86 18        	stx	$18                     ; 0x2018 <main+0x1b84>
     ffd: a2 00        	ldx	#$0
     fff: 86 19        	stx	$19                     ; 0x2019 <main+0x1b85>
    1001: a5 1c        	lda	$1c                     ; 0x201c <main+0x1b88>
    1003: a6 16        	ldx	$16                     ; 0x2016 <main+0x1b82>
    1005: 86 1a        	stx	$1a                     ; 0x201a <main+0x1b86>
    1007: a6 17        	ldx	$17                     ; 0x2017 <main+0x1b83>
    1009: 86 1b        	stx	$1b                     ; 0x201b <main+0x1b87>
    100b: a0 01        	ldy	#$1
    100d: 80 0b        	bra	$101a <main+0xb86>
    100f: b1 1a        	lda	($1a),y                 ; 0x201a <main+0x1b86>
    1011: e6 1a        	inc	$1a                     ; 0x201a <main+0x1b86>
    1013: d0 02        	bne	$1017 <main+0xb83>
    1015: e6 1b        	inc	$1b                     ; 0x201b <main+0x1b87>
    1017: aa           	tax
    1018: f0 14        	beq	$102e <main+0xb9a>
    101a: c9 2e        	cmp	#$2e
    101c: d0 f1        	bne	$100f <main+0xb7b>
    101e: a6 1a        	ldx	$1a                     ; 0x201a <main+0x1b86>
    1020: 86 18        	stx	$18                     ; 0x2018 <main+0x1b84>
    1022: a6 1b        	ldx	$1b                     ; 0x201b <main+0x1b87>
    1024: 86 19        	stx	$19                     ; 0x2019 <main+0x1b85>
    1026: b1 1a        	lda	($1a),y                 ; 0x201a <main+0x1b86>
    1028: e6 1a        	inc	$1a                     ; 0x201a <main+0x1b86>
    102a: d0 eb        	bne	$1017 <main+0xb83>
    102c: 80 e7        	bra	$1015 <main+0xb81>
    102e: a6 19        	ldx	$19                     ; 0x2019 <main+0x1b85>
    1030: e4 2f        	cpx	$2f                     ; 0x202f <main+0x1b9b>
    1032: d0 06        	bne	$103a <main+0xba6>
    1034: a6 18        	ldx	$18                     ; 0x2018 <main+0x1b84>
    1036: e4 2e        	cpx	$2e                     ; 0x202e <main+0x1b9a>
    1038: f0 33        	beq	$106d <main+0xbd9>
    103a: a0 01        	ldy	#$1
    103c: b1 18        	lda	($18),y                 ; 0x2018 <main+0x1b84>
    103e: f0 2d        	beq	$106d <main+0xbd9>
    1040: 85 1e        	sta	$1e                     ; 0x201e <main+0x1b8a>
    1042: a0 00        	ldy	#$0
    1044: a2 00        	ldx	#$0
    1046: 98           	tya
    1047: 18           	clc
    1048: 65 18        	adc	$18                     ; 0x2018 <main+0x1b84>
    104a: 85 1f        	sta	$1f                     ; 0x201f <main+0x1b8b>
    104c: 8a           	txa
    104d: 65 19        	adc	$19                     ; 0x2019 <main+0x1b85>
    104f: c8           	iny
    1050: d0 01        	bne	$1053 <main+0xbbf>
    1052: e8           	inx
    1053: 48           	pha
    1054: a5 1f        	lda	$1f                     ; 0x201f <main+0x1b8b>
    1056: 85 1a        	sta	$1a                     ; 0x201a <main+0x1b86>
    1058: 68           	pla
    1059: 84 1f        	sty	$1f                     ; 0x201f <main+0x1b8b>
    105b: 85 1b        	sta	$1b                     ; 0x201b <main+0x1b87>
    105d: a0 02        	ldy	#$2
    105f: b1 1a        	lda	($1a),y                 ; 0x201a <main+0x1b86>
    1061: a4 1f        	ldy	$1f                     ; 0x201f <main+0x1b8b>
    1063: c9 00        	cmp	#$0
    1065: d0 df        	bne	$1046 <main+0xbb2>
    1067: 8a           	txa
    1068: d0 03        	bne	$106d <main+0xbd9>
    106a: 4c b8 19     	jmp	$19b8 <main+0x1524>
    106d: ae 21 a3     	ldx	$a321                   ; 0xa321 <fpr+0xd2f>
    1070: d0 03        	bne	$1075 <main+0xbe1>
    1072: 4c fd 10     	jmp	$10fd <main+0xc69>
    1075: a5 1c        	lda	$1c                     ; 0x201c <main+0x1b88>
    1077: d0 03        	bne	$107c <main+0xbe8>
    1079: 4c fd 10     	jmp	$10fd <main+0xc69>
    107c: 86 1d        	stx	$1d                     ; 0x201d <main+0x1b89>
    107e: a0 00        	ldy	#$0
    1080: a2 00        	ldx	#$0
    1082: 86 18        	stx	$18                     ; 0x2018 <main+0x1b84>
    1084: 98           	tya
    1085: a4 18        	ldy	$18                     ; 0x2018 <main+0x1b84>
    1087: aa           	tax
    1088: e8           	inx
    1089: d0 01        	bne	$108c <main+0xbf8>
    108b: c8           	iny
    108c: 18           	clc
    108d: 65 14        	adc	$14                     ; 0x2014 <main+0x1b80>
    108f: 85 1b        	sta	$1b                     ; 0x201b <main+0x1b87>
    1091: a5 18        	lda	$18                     ; 0x2018 <main+0x1b84>
    1093: 65 15        	adc	$15                     ; 0x2015 <main+0x1b81>
    1095: 86 1a        	stx	$1a                     ; 0x201a <main+0x1b86>
    1097: a6 1b        	ldx	$1b                     ; 0x201b <main+0x1b87>
    1099: 86 18        	stx	$18                     ; 0x2018 <main+0x1b84>
    109b: 5a           	phy
    109c: fa           	plx
    109d: 85 19        	sta	$19                     ; 0x2019 <main+0x1b85>
    109f: a0 03        	ldy	#$3
    10a1: b1 18        	lda	($18),y                 ; 0x2018 <main+0x1b84>
    10a3: a4 1a        	ldy	$1a                     ; 0x201a <main+0x1b86>
    10a5: c9 00        	cmp	#$0
    10a7: d0 d9        	bne	$1082 <main+0xbee>
    10a9: 8a           	txa
    10aa: d0 06        	bne	$10b2 <main+0xc1e>
    10ac: c0 04        	cpy	#$4
    10ae: b0 06        	bcs	$10b6 <main+0xc22>
    10b0: 80 4b        	bra	$10fd <main+0xc69>
    10b2: e0 00        	cpx	#$0
    10b4: 90 47        	bcc	$10fd <main+0xc69>
    10b6: a2 00        	ldx	#$0
    10b8: 86 18        	stx	$18                     ; 0x2018 <main+0x1b84>
    10ba: a2 00        	ldx	#$0
    10bc: 86 19        	stx	$19                     ; 0x2019 <main+0x1b85>
    10be: a5 1c        	lda	$1c                     ; 0x201c <main+0x1b88>
    10c0: a6 16        	ldx	$16                     ; 0x2016 <main+0x1b82>
    10c2: 86 1a        	stx	$1a                     ; 0x201a <main+0x1b86>
    10c4: a6 17        	ldx	$17                     ; 0x2017 <main+0x1b83>
    10c6: 86 1b        	stx	$1b                     ; 0x201b <main+0x1b87>
    10c8: a0 01        	ldy	#$1
    10ca: 80 0b        	bra	$10d7 <main+0xc43>
    10cc: b1 1a        	lda	($1a),y                 ; 0x201a <main+0x1b86>
    10ce: e6 1a        	inc	$1a                     ; 0x201a <main+0x1b86>
    10d0: d0 02        	bne	$10d4 <main+0xc40>
    10d2: e6 1b        	inc	$1b                     ; 0x201b <main+0x1b87>
    10d4: aa           	tax
    10d5: f0 14        	beq	$10eb <main+0xc57>
    10d7: c9 2e        	cmp	#$2e
    10d9: d0 f1        	bne	$10cc <main+0xc38>
    10db: a6 1a        	ldx	$1a                     ; 0x201a <main+0x1b86>
    10dd: 86 18        	stx	$18                     ; 0x2018 <main+0x1b84>
    10df: a6 1b        	ldx	$1b                     ; 0x201b <main+0x1b87>
    10e1: 86 19        	stx	$19                     ; 0x2019 <main+0x1b85>
    10e3: b1 1a        	lda	($1a),y                 ; 0x201a <main+0x1b86>
    10e5: e6 1a        	inc	$1a                     ; 0x201a <main+0x1b86>
    10e7: d0 eb        	bne	$10d4 <main+0xc40>
    10e9: 80 e7        	bra	$10d2 <main+0xc3e>
    10eb: a6 19        	ldx	$19                     ; 0x2019 <main+0x1b85>
    10ed: e4 2f        	cpx	$2f                     ; 0x202f <main+0x1b9b>
    10ef: d0 03        	bne	$10f4 <main+0xc60>
    10f1: 4c 0d 13     	jmp	$130d <main+0xe79>
    10f4: a0 01        	ldy	#$1
    10f6: b1 18        	lda	($18),y                 ; 0x2018 <main+0x1b84>
    10f8: f0 03        	beq	$10fd <main+0xc69>
    10fa: 4c 98 18     	jmp	$1898 <main+0x1404>
    10fd: ae 24 a3     	ldx	$a324                   ; 0xa324 <fpr+0xd32>
    1100: d0 03        	bne	$1105 <main+0xc71>
    1102: 4c be 11     	jmp	$11be <main+0xd2a>
    1105: a5 1c        	lda	$1c                     ; 0x201c <main+0x1b88>
    1107: d0 03        	bne	$110c <main+0xc78>
    1109: 4c 46 12     	jmp	$1246 <main+0xdb2>
    110c: 86 1d        	stx	$1d                     ; 0x201d <main+0x1b89>
    110e: a0 00        	ldy	#$0
    1110: a2 00        	ldx	#$0
    1112: 86 18        	stx	$18                     ; 0x2018 <main+0x1b84>
    1114: 98           	tya
    1115: a4 18        	ldy	$18                     ; 0x2018 <main+0x1b84>
    1117: aa           	tax
    1118: e8           	inx
    1119: d0 01        	bne	$111c <main+0xc88>
    111b: c8           	iny
    111c: 18           	clc
    111d: 65 14        	adc	$14                     ; 0x2014 <main+0x1b80>
    111f: 85 1b        	sta	$1b                     ; 0x201b <main+0x1b87>
    1121: a5 18        	lda	$18                     ; 0x2018 <main+0x1b84>
    1123: 65 15        	adc	$15                     ; 0x2015 <main+0x1b81>
    1125: 86 1a        	stx	$1a                     ; 0x201a <main+0x1b86>
    1127: a6 1b        	ldx	$1b                     ; 0x201b <main+0x1b87>
    1129: 86 18        	stx	$18                     ; 0x2018 <main+0x1b84>
    112b: 5a           	phy
    112c: fa           	plx
    112d: 85 19        	sta	$19                     ; 0x2019 <main+0x1b85>
    112f: a0 03        	ldy	#$3
    1131: b1 18        	lda	($18),y                 ; 0x2018 <main+0x1b84>
    1133: a4 1a        	ldy	$1a                     ; 0x201a <main+0x1b86>
    1135: c9 00        	cmp	#$0
    1137: d0 d9        	bne	$1112 <main+0xc7e>
    1139: 8a           	txa
    113a: d0 07        	bne	$1143 <main+0xcaf>
    113c: c0 04        	cpy	#$4
    113e: b0 0a        	bcs	$114a <main+0xcb6>
    1140: 4c be 11     	jmp	$11be <main+0xd2a>
    1143: e0 00        	cpx	#$0
    1145: b0 03        	bcs	$114a <main+0xcb6>
    1147: 4c be 11     	jmp	$11be <main+0xd2a>
    114a: a2 00        	ldx	#$0
    114c: 86 18        	stx	$18                     ; 0x2018 <main+0x1b84>
    114e: a2 00        	ldx	#$0
    1150: 86 19        	stx	$19                     ; 0x2019 <main+0x1b85>
    1152: a5 1c        	lda	$1c                     ; 0x201c <main+0x1b88>
    1154: a6 16        	ldx	$16                     ; 0x2016 <main+0x1b82>
    1156: 86 1a        	stx	$1a                     ; 0x201a <main+0x1b86>
    1158: a6 17        	ldx	$17                     ; 0x2017 <main+0x1b83>
    115a: 86 1b        	stx	$1b                     ; 0x201b <main+0x1b87>
    115c: a0 01        	ldy	#$1
    115e: 80 0b        	bra	$116b <main+0xcd7>
    1160: b1 1a        	lda	($1a),y                 ; 0x201a <main+0x1b86>
    1162: e6 1a        	inc	$1a                     ; 0x201a <main+0x1b86>
    1164: d0 02        	bne	$1168 <main+0xcd4>
    1166: e6 1b        	inc	$1b                     ; 0x201b <main+0x1b87>
    1168: aa           	tax
    1169: f0 14        	beq	$117f <main+0xceb>
    116b: c9 2e        	cmp	#$2e
    116d: d0 f1        	bne	$1160 <main+0xccc>
    116f: a6 1a        	ldx	$1a                     ; 0x201a <main+0x1b86>
    1171: 86 18        	stx	$18                     ; 0x2018 <main+0x1b84>
    1173: a6 1b        	ldx	$1b                     ; 0x201b <main+0x1b87>
    1175: 86 19        	stx	$19                     ; 0x2019 <main+0x1b85>
    1177: b1 1a        	lda	($1a),y                 ; 0x201a <main+0x1b86>
    1179: e6 1a        	inc	$1a                     ; 0x201a <main+0x1b86>
    117b: d0 eb        	bne	$1168 <main+0xcd4>
    117d: 80 e7        	bra	$1166 <main+0xcd2>
    117f: a6 19        	ldx	$19                     ; 0x2019 <main+0x1b85>
    1181: e4 2f        	cpx	$2f                     ; 0x202f <main+0x1b9b>
    1183: d0 06        	bne	$118b <main+0xcf7>
    1185: a6 18        	ldx	$18                     ; 0x2018 <main+0x1b84>
    1187: e4 2e        	cpx	$2e                     ; 0x202e <main+0x1b9a>
    1189: f0 33        	beq	$11be <main+0xd2a>
    118b: a0 01        	ldy	#$1
    118d: b1 18        	lda	($18),y                 ; 0x2018 <main+0x1b84>
    118f: f0 2d        	beq	$11be <main+0xd2a>
    1191: 85 1e        	sta	$1e                     ; 0x201e <main+0x1b8a>
    1193: a0 00        	ldy	#$0
    1195: a2 00        	ldx	#$0
    1197: 98           	tya
    1198: 18           	clc
    1199: 65 18        	adc	$18                     ; 0x2018 <main+0x1b84>
    119b: 85 1f        	sta	$1f                     ; 0x201f <main+0x1b8b>
    119d: 8a           	txa
    119e: 65 19        	adc	$19                     ; 0x2019 <main+0x1b85>
    11a0: c8           	iny
    11a1: d0 01        	bne	$11a4 <main+0xd10>
    11a3: e8           	inx
    11a4: 48           	pha
    11a5: a5 1f        	lda	$1f                     ; 0x201f <main+0x1b8b>
    11a7: 85 1a        	sta	$1a                     ; 0x201a <main+0x1b86>
    11a9: 68           	pla
    11aa: 84 1f        	sty	$1f                     ; 0x201f <main+0x1b8b>
    11ac: 85 1b        	sta	$1b                     ; 0x201b <main+0x1b87>
    11ae: a0 02        	ldy	#$2
    11b0: b1 1a        	lda	($1a),y                 ; 0x201a <main+0x1b86>
    11b2: a4 1f        	ldy	$1f                     ; 0x201f <main+0x1b8b>
    11b4: c9 00        	cmp	#$0
    11b6: d0 df        	bne	$1197 <main+0xd03>
    11b8: 8a           	txa
    11b9: d0 03        	bne	$11be <main+0xd2a>
    11bb: 4c 39 1a     	jmp	$1a39 <main+0x15a5>
    11be: ae 27 a3     	ldx	$a327                   ; 0xa327 <fpr+0xd35>
    11c1: d0 03        	bne	$11c6 <main+0xd32>
    11c3: 4c 46 12     	jmp	$1246 <main+0xdb2>
    11c6: a5 1c        	lda	$1c                     ; 0x201c <main+0x1b88>
    11c8: d0 03        	bne	$11cd <main+0xd39>
    11ca: 4c 46 12     	jmp	$1246 <main+0xdb2>
    11cd: 86 1a        	stx	$1a                     ; 0x201a <main+0x1b86>
    11cf: a0 00        	ldy	#$0
    11d1: a2 00        	ldx	#$0
    11d3: 86 18        	stx	$18                     ; 0x2018 <main+0x1b84>
    11d5: 98           	tya
    11d6: aa           	tax
    11d7: a4 18        	ldy	$18                     ; 0x2018 <main+0x1b84>
    11d9: e8           	inx
    11da: d0 01        	bne	$11dd <main+0xd49>
    11dc: c8           	iny
    11dd: 18           	clc
    11de: 65 14        	adc	$14                     ; 0x2014 <main+0x1b80>
    11e0: 85 1d        	sta	$1d                     ; 0x201d <main+0x1b89>
    11e2: a5 18        	lda	$18                     ; 0x2018 <main+0x1b84>
    11e4: 65 15        	adc	$15                     ; 0x2015 <main+0x1b81>
    11e6: 86 1b        	stx	$1b                     ; 0x201b <main+0x1b87>
    11e8: a6 1d        	ldx	$1d                     ; 0x201d <main+0x1b89>
    11ea: 86 18        	stx	$18                     ; 0x2018 <main+0x1b84>
    11ec: 5a           	phy
    11ed: fa           	plx
    11ee: 85 19        	sta	$19                     ; 0x2019 <main+0x1b85>
    11f0: a0 03        	ldy	#$3
    11f2: b1 18        	lda	($18),y                 ; 0x2018 <main+0x1b84>
    11f4: a4 1b        	ldy	$1b                     ; 0x201b <main+0x1b87>
    11f6: c9 00        	cmp	#$0
    11f8: d0 d9        	bne	$11d3 <main+0xd3f>
    11fa: 8a           	txa
    11fb: d0 06        	bne	$1203 <main+0xd6f>
    11fd: c0 04        	cpy	#$4
    11ff: b0 06        	bcs	$1207 <main+0xd73>
    1201: 80 43        	bra	$1246 <main+0xdb2>
    1203: e0 00        	cpx	#$0
    1205: 90 3f        	bcc	$1246 <main+0xdb2>
    1207: a2 00        	ldx	#$0
    1209: 86 18        	stx	$18                     ; 0x2018 <main+0x1b84>
    120b: a2 00        	ldx	#$0
    120d: 86 19        	stx	$19                     ; 0x2019 <main+0x1b85>
    120f: a0 01        	ldy	#$1
    1211: a5 1c        	lda	$1c                     ; 0x201c <main+0x1b88>
    1213: 80 0b        	bra	$1220 <main+0xd8c>
    1215: b1 16        	lda	($16),y                 ; 0x2016 <main+0x1b82>
    1217: e6 16        	inc	$16                     ; 0x2016 <main+0x1b82>
    1219: d0 02        	bne	$121d <main+0xd89>
    121b: e6 17        	inc	$17                     ; 0x2017 <main+0x1b83>
    121d: aa           	tax
    121e: f0 14        	beq	$1234 <main+0xda0>
    1220: c9 2e        	cmp	#$2e
    1222: d0 f1        	bne	$1215 <main+0xd81>
    1224: a6 16        	ldx	$16                     ; 0x2016 <main+0x1b82>
    1226: 86 18        	stx	$18                     ; 0x2018 <main+0x1b84>
    1228: a6 17        	ldx	$17                     ; 0x2017 <main+0x1b83>
    122a: 86 19        	stx	$19                     ; 0x2019 <main+0x1b85>
    122c: b1 16        	lda	($16),y                 ; 0x2016 <main+0x1b82>
    122e: e6 16        	inc	$16                     ; 0x2016 <main+0x1b82>
    1230: d0 eb        	bne	$121d <main+0xd89>
    1232: 80 e7        	bra	$121b <main+0xd87>
    1234: a6 19        	ldx	$19                     ; 0x2019 <main+0x1b85>
    1236: e4 2f        	cpx	$2f                     ; 0x202f <main+0x1b9b>
    1238: d0 03        	bne	$123d <main+0xda9>
    123a: 4c 19 13     	jmp	$1319 <main+0xe85>
    123d: a0 01        	ldy	#$1
    123f: b1 18        	lda	($18),y                 ; 0x2018 <main+0x1b84>
    1241: f0 03        	beq	$1246 <main+0xdb2>
    1243: 4c af 19     	jmp	$19af <main+0x151b>
    1246: a0 01        	ldy	#$1
    1248: b1 14        	lda	($14),y                 ; 0x2014 <main+0x1b80>
    124a: f0 03        	beq	$124f <main+0xdbb>
    124c: 4c b7 1a     	jmp	$1ab7 <main+0x1623>
    124f: 20 26 52     	jsr	$5226 <fileReadDir>
    1252: a6 12        	ldx	$12                     ; 0x2012 <main+0x1b7e>
    1254: 86 14        	stx	$14                     ; 0x2014 <main+0x1b80>
    1256: a6 13        	ldx	$13                     ; 0x2013 <main+0x1b7f>
    1258: 86 15        	stx	$15                     ; 0x2015 <main+0x1b81>
    125a: a6 15        	ldx	$15                     ; 0x2015 <main+0x1b81>
    125c: e4 2f        	cpx	$2f                     ; 0x202f <main+0x1b9b>
    125e: d0 09        	bne	$1269 <main+0xdd5>
    1260: a6 14        	ldx	$14                     ; 0x2014 <main+0x1b80>
    1262: e4 2e        	cpx	$2e                     ; 0x202e <main+0x1b9a>
    1264: d0 03        	bne	$1269 <main+0xdd5>
    1266: 4c 25 13     	jmp	$1325 <main+0xe91>
    1269: a0 02        	ldy	#$2
    126b: b1 14        	lda	($14),y                 ; 0x2014 <main+0x1b80>
    126d: 48           	pha
    126e: a0 36        	ldy	#$36
    1270: b1 10        	lda	($10),y                 ; 0x2010 <main+0x1b7c>
    1272: 85 12        	sta	$12                     ; 0x2012 <main+0x1b7e>
    1274: c8           	iny
    1275: b1 10        	lda	($10),y                 ; 0x2010 <main+0x1b7c>
    1277: 85 13        	sta	$13                     ; 0x2013 <main+0x1b7f>
    1279: 68           	pla
    127a: 85 1c        	sta	$1c                     ; 0x201c <main+0x1b88>
    127c: c9 2e        	cmp	#$2e
    127e: d0 10        	bne	$1290 <main+0xdfc>
    1280: a0 03        	ldy	#$3
    1282: b1 14        	lda	($14),y                 ; 0x2014 <main+0x1b80>
    1284: f0 c9        	beq	$124f <main+0xdbb>
    1286: c9 2e        	cmp	#$2e
    1288: d0 06        	bne	$1290 <main+0xdfc>
    128a: a0 04        	ldy	#$4
    128c: b1 14        	lda	($14),y                 ; 0x2014 <main+0x1b80>
    128e: f0 bf        	beq	$124f <main+0xdbb>
    1290: a5 14        	lda	$14                     ; 0x2014 <main+0x1b80>
    1292: 18           	clc
    1293: 69 02        	adc	#$2
    1295: 85 16        	sta	$16                     ; 0x2016 <main+0x1b82>
    1297: a5 15        	lda	$15                     ; 0x2015 <main+0x1b81>
    1299: 69 00        	adc	#$0
    129b: 85 17        	sta	$17                     ; 0x2017 <main+0x1b83>
    129d: ae 1e a3     	ldx	$a31e                   ; 0xa31e <fpr+0xd2c>
    12a0: d0 03        	bne	$12a5 <main+0xe11>
    12a2: 4c 6d 10     	jmp	$106d <main+0xbd9>
    12a5: a5 1c        	lda	$1c                     ; 0x201c <main+0x1b88>
    12a7: d0 03        	bne	$12ac <main+0xe18>
    12a9: 4c fd 10     	jmp	$10fd <main+0xc69>
    12ac: 86 1d        	stx	$1d                     ; 0x201d <main+0x1b89>
    12ae: a0 00        	ldy	#$0
    12b0: a2 00        	ldx	#$0
    12b2: 86 18        	stx	$18                     ; 0x2018 <main+0x1b84>
    12b4: 98           	tya
    12b5: aa           	tax
    12b6: a4 18        	ldy	$18                     ; 0x2018 <main+0x1b84>
    12b8: e8           	inx
    12b9: d0 01        	bne	$12bc <main+0xe28>
    12bb: c8           	iny
    12bc: 18           	clc
    12bd: 65 14        	adc	$14                     ; 0x2014 <main+0x1b80>
    12bf: 85 1b        	sta	$1b                     ; 0x201b <main+0x1b87>
    12c1: a5 18        	lda	$18                     ; 0x2018 <main+0x1b84>
    12c3: 65 15        	adc	$15                     ; 0x2015 <main+0x1b81>
    12c5: 86 1a        	stx	$1a                     ; 0x201a <main+0x1b86>
    12c7: a6 1b        	ldx	$1b                     ; 0x201b <main+0x1b87>
    12c9: 86 18        	stx	$18                     ; 0x2018 <main+0x1b84>
    12cb: 5a           	phy
    12cc: fa           	plx
    12cd: 85 19        	sta	$19                     ; 0x2019 <main+0x1b85>
    12cf: a0 03        	ldy	#$3
    12d1: b1 18        	lda	($18),y                 ; 0x2018 <main+0x1b84>
    12d3: a4 1a        	ldy	$1a                     ; 0x201a <main+0x1b86>
    12d5: c9 00        	cmp	#$0
    12d7: d0 d9        	bne	$12b2 <main+0xe1e>
    12d9: 8a           	txa
    12da: f0 03        	beq	$12df <main+0xe4b>
    12dc: 4c f2 0f     	jmp	$ff2 <main+0xb5e>
    12df: c0 04        	cpy	#$4
    12e1: 90 03        	bcc	$12e6 <main+0xe52>
    12e3: 4c f9 0f     	jmp	$ff9 <main+0xb65>
    12e6: 4c 6d 10     	jmp	$106d <main+0xbd9>
    12e9: 98           	tya
    12ea: 18           	clc
    12eb: 65 18        	adc	$18                     ; 0x2018 <main+0x1b84>
    12ed: 85 1f        	sta	$1f                     ; 0x201f <main+0x1b8b>
    12ef: 8a           	txa
    12f0: 65 19        	adc	$19                     ; 0x2019 <main+0x1b85>
    12f2: c8           	iny
    12f3: d0 01        	bne	$12f6 <main+0xe62>
    12f5: e8           	inx
    12f6: 48           	pha
    12f7: a5 1f        	lda	$1f                     ; 0x201f <main+0x1b8b>
    12f9: 85 1a        	sta	$1a                     ; 0x201a <main+0x1b86>
    12fb: 68           	pla
    12fc: 84 1f        	sty	$1f                     ; 0x201f <main+0x1b8b>
    12fe: 85 1b        	sta	$1b                     ; 0x201b <main+0x1b87>
    1300: a0 02        	ldy	#$2
    1302: b1 1a        	lda	($1a),y                 ; 0x201a <main+0x1b86>
    1304: a4 1f        	ldy	$1f                     ; 0x201f <main+0x1b8b>
    1306: c9 00        	cmp	#$0
    1308: d0 df        	bne	$12e9 <main+0xe55>
    130a: 4c a1 18     	jmp	$18a1 <main+0x140d>
    130d: a6 18        	ldx	$18                     ; 0x2018 <main+0x1b84>
    130f: e4 2e        	cpx	$2e                     ; 0x202e <main+0x1b9a>
    1311: f0 03        	beq	$1316 <main+0xe82>
    1313: 4c f4 10     	jmp	$10f4 <main+0xc60>
    1316: 4c fd 10     	jmp	$10fd <main+0xc69>
    1319: a6 18        	ldx	$18                     ; 0x2018 <main+0x1b84>
    131b: e4 2e        	cpx	$2e                     ; 0x202e <main+0x1b9a>
    131d: f0 03        	beq	$1322 <main+0xe8e>
    131f: 4c 3d 12     	jmp	$123d <main+0xda9>
    1322: 4c 46 12     	jmp	$1246 <main+0xdb2>
    1325: a0 34        	ldy	#$34
    1327: b1 10        	lda	($10),y                 ; 0x2010 <main+0x1b7c>
    1329: aa           	tax
    132a: 8e 18 a3     	stx	$a318                   ; 0xa318 <fpr+0xd26>
    132d: a0 35        	ldy	#$35
    132f: b1 10        	lda	($10),y                 ; 0x2010 <main+0x1b7c>
    1331: 8d 19 a3     	sta	$a319                   ; 0xa319 <fpr+0xd27>
    1334: a2 34        	ldx	#$34
    1336: 86 12        	stx	$12                     ; 0x2012 <main+0x1b7e>
    1338: a2 96        	ldx	#$96
    133a: 86 13        	stx	$13                     ; 0x2013 <main+0x1b7f>
    133c: a2 76        	ldx	#$76
    133e: 86 14        	stx	$14                     ; 0x2014 <main+0x1b80>
    1340: a2 68        	ldx	#$68
    1342: 86 15        	stx	$15                     ; 0x2015 <main+0x1b81>
    1344: a9 20        	lda	#$20
    1346: a2 00        	ldx	#$0
    1348: 20 03 66     	jsr	$6603 <memcpy>
    134b: a2 39        	ldx	#$39
    134d: 86 12        	stx	$12                     ; 0x2012 <main+0x1b7e>
    134f: a2 00        	ldx	#$0
    1351: 86 13        	stx	$13                     ; 0x2013 <main+0x1b7f>
    1353: a0 38        	ldy	#$38
    1355: b1 10        	lda	($10),y                 ; 0x2010 <main+0x1b7c>
    1357: 85 14        	sta	$14                     ; 0x2014 <main+0x1b80>
    1359: c8           	iny
    135a: b1 10        	lda	($10),y                 ; 0x2010 <main+0x1b7c>
    135c: 85 15        	sta	$15                     ; 0x2015 <main+0x1b81>
    135e: a6 25        	ldx	$25                     ; 0x2025 <main+0x1b91>
    1360: bd e8 94     	lda	$94e8,x                 ; 0x94e8 <_dirStream>
    1363: aa           	tax
    1364: f0 15        	beq	$137b <main+0xee7>
    1366: 86 f3        	stx	$f3                     ; 0x20f3 <main+0x1c5f>
    1368: 20 80 ff     	jsr	$ff80 <end_block9+0x5c10>
    136b: 92 14        	sta	($14)                   ; 0x2014 <main+0x1b80>
    136d: a9 00        	lda	#$0
    136f: 6a           	ror
    1370: 85 12        	sta	$12                     ; 0x2012 <main+0x1b7e>
    1372: a6 39        	ldx	$39                     ; 0x2039 <main+0x1ba5>
    1374: d0 05        	bne	$137b <main+0xee7>
    1376: a6 25        	ldx	$25                     ; 0x2025 <main+0x1b91>
    1378: 9e e8 94     	stz	$94e8,x                 ; 0x94e8 <_dirStream>
    137b: 64 3a        	stz	$3a                     ; 0x203a <main+0x1ba6>
    137d: 20 00 ff     	jsr	$ff00 <end_block9+0x5b90>
    1380: 92 14        	sta	($14)                   ; 0x2014 <main+0x1b80>
    1382: a9 00        	lda	#$0
    1384: 6a           	ror
    1385: 85 12        	sta	$12                     ; 0x2012 <main+0x1b7e>
    1387: a6 3a        	ldx	$3a                     ; 0x203a <main+0x1ba6>
    1389: e0 46        	cpx	#$46
    138b: d0 d1        	bne	$135e <main+0xeca>
    138d: ae 8d 67     	ldx	$678d                   ; 0x678d <textColors+0xed>
    1390: 8e 34 96     	stx	$9634                   ; 0x9634 <fpr+0x42>
    1393: ae 8e 67     	ldx	$678e                   ; 0x678e <textColors+0xee>
    1396: 8e 35 96     	stx	$9635                   ; 0x9635 <fpr+0x43>
    1399: ae 8f 67     	ldx	$678f                   ; 0x678f <textColors+0xef>
    139c: 8e 36 96     	stx	$9636                   ; 0x9636 <fpr+0x44>
    139f: a2 01        	ldx	#$1
    13a1: 8e b4 a2     	stx	$a2b4                   ; 0xa2b4 <fpr+0xcc2>
    13a4: ae 18 a3     	ldx	$a318                   ; 0xa318 <fpr+0xd26>
    13a7: ac 19 a3     	ldy	$a319                   ; 0xa319 <fpr+0xd27>
    13aa: 86 16        	stx	$16                     ; 0x2016 <main+0x1b82>
    13ac: e0 03        	cpx	#$3
    13ae: 84 29        	sty	$29                     ; 0x2029 <main+0x1b95>
    13b0: 98           	tya
    13b1: e9 00        	sbc	#$0
    13b3: 50 02        	bvc	$13b7 <main+0xf23>
    13b5: 49 80        	eor	#$80
    13b7: 48           	pha
    13b8: a5 2c        	lda	$2c                     ; 0x202c <main+0x1b98>
    13ba: a0 28        	ldy	#$28
    13bc: 91 10        	sta	($10),y                 ; 0x2010 <main+0x1b7c>
    13be: a5 2d        	lda	$2d                     ; 0x202d <main+0x1b99>
    13c0: c8           	iny
    13c1: 91 10        	sta	($10),y                 ; 0x2010 <main+0x1b7c>
    13c3: 68           	pla
    13c4: 10 03        	bpl	$13c9 <main+0xf35>
    13c6: 4c bc 16     	jmp	$16bc <main+0x1228>
    13c9: a0 38        	ldy	#$38
    13cb: b1 10        	lda	($10),y                 ; 0x2010 <main+0x1b7c>
    13cd: 85 2c        	sta	$2c                     ; 0x202c <main+0x1b98>
    13cf: c8           	iny
    13d0: b1 10        	lda	($10),y                 ; 0x2010 <main+0x1b7c>
    13d2: 85 2d        	sta	$2d                     ; 0x202d <main+0x1b99>
    13d4: e6 2c        	inc	$2c                     ; 0x202c <main+0x1b98>
    13d6: d0 02        	bne	$13da <main+0xf46>
    13d8: e6 2d        	inc	$2d                     ; 0x202d <main+0x1b99>
    13da: a2 01        	ldx	#$1
    13dc: 64 14        	stz	$14                     ; 0x2014 <main+0x1b80>
    13de: 86 15        	stx	$15                     ; 0x2015 <main+0x1b81>
    13e0: a4 16        	ldy	$16                     ; 0x2016 <main+0x1b82>
    13e2: 4c 88 16     	jmp	$1688 <main+0x11f4>
    13e5: a4 28        	ldy	$28                     ; 0x2028 <main+0x1b94>
    13e7: c4 23        	cpy	$23                     ; 0x2023 <main+0x1b8f>
    13e9: f0 03        	beq	$13ee <main+0xf5a>
    13eb: 4c 62 14     	jmp	$1462 <main+0xfce>
    13ee: 86 27        	stx	$27                     ; 0x2027 <main+0x1b93>
    13f0: a9 34        	lda	#$34
    13f2: 18           	clc
    13f3: 65 22        	adc	$22                     ; 0x2022 <main+0x1b8e>
    13f5: 85 12        	sta	$12                     ; 0x2012 <main+0x1b7e>
    13f7: a9 96        	lda	#$96
    13f9: 65 1f        	adc	$1f                     ; 0x201f <main+0x1b8b>
    13fb: 85 13        	sta	$13                     ; 0x2013 <main+0x1b7f>
    13fd: b2 12        	lda	($12)                   ; 0x2012 <main+0x1b7e>
    13ff: 64 23        	stz	$23                     ; 0x2023 <main+0x1b8f>
    1401: d0 03        	bne	$1406 <main+0xf72>
    1403: 4c 6b 14     	jmp	$146b <main+0xfd7>
    1406: a6 18        	ldx	$18                     ; 0x2018 <main+0x1b84>
    1408: 86 12        	stx	$12                     ; 0x2012 <main+0x1b7e>
    140a: a6 19        	ldx	$19                     ; 0x2019 <main+0x1b85>
    140c: 86 13        	stx	$13                     ; 0x2013 <main+0x1b7f>
    140e: 85 26        	sta	$26                     ; 0x2026 <main+0x1b92>
    1410: 80 2f        	bra	$1441 <main+0xfad>
    1412: a0 20        	ldy	#$20
    1414: a5 12        	lda	$12                     ; 0x2012 <main+0x1b7e>
    1416: c9 41        	cmp	#$41
    1418: 90 06        	bcc	$1420 <main+0xf8c>
    141a: c9 5b        	cmp	#$5b
    141c: b0 02        	bcs	$1420 <main+0xf8c>
    141e: 09 20        	ora	#$20
    1420: 85 13        	sta	$13                     ; 0x2013 <main+0x1b7f>
    1422: 86 12        	stx	$12                     ; 0x2012 <main+0x1b7e>
    1424: e4 13        	cpx	$13                     ; 0x2013 <main+0x1b7f>
    1426: f0 03        	beq	$142b <main+0xf97>
    1428: 4c dc 14     	jmp	$14dc <main+0x1048>
    142b: b2 2e        	lda	($2e)                   ; 0x202e <main+0x1b9a>
    142d: a6 2e        	ldx	$2e                     ; 0x202e <main+0x1b9a>
    142f: 86 12        	stx	$12                     ; 0x2012 <main+0x1b7e>
    1431: a6 2f        	ldx	$2f                     ; 0x202f <main+0x1b9b>
    1433: 86 13        	stx	$13                     ; 0x2013 <main+0x1b7f>
    1435: e6 12        	inc	$12                     ; 0x2012 <main+0x1b7e>
    1437: d0 02        	bne	$143b <main+0xfa7>
    1439: e6 13        	inc	$13                     ; 0x2013 <main+0x1b7f>
    143b: aa           	tax
    143c: d0 03        	bne	$1441 <main+0xfad>
    143e: 4c b3 14     	jmp	$14b3 <main+0x101f>
    1441: aa           	tax
    1442: a4 12        	ldy	$12                     ; 0x2012 <main+0x1b7e>
    1444: 84 2e        	sty	$2e                     ; 0x202e <main+0x1b9a>
    1446: a4 13        	ldy	$13                     ; 0x2013 <main+0x1b7f>
    1448: 84 2f        	sty	$2f                     ; 0x202f <main+0x1b9b>
    144a: a0 1f        	ldy	#$1f
    144c: b1 12        	lda	($12),y                 ; 0x2012 <main+0x1b7e>
    144e: f0 35        	beq	$1485 <main+0xff1>
    1450: 85 12        	sta	$12                     ; 0x2012 <main+0x1b7e>
    1452: e0 41        	cpx	#$41
    1454: 90 bc        	bcc	$1412 <main+0xf7e>
    1456: 8a           	txa
    1457: c9 5b        	cmp	#$5b
    1459: a0 20        	ldy	#$20
    145b: b0 b7        	bcs	$1414 <main+0xf80>
    145d: 09 20        	ora	#$20
    145f: aa           	tax
    1460: 80 b2        	bra	$1414 <main+0xf80>
    1462: a4 23        	ldy	$23                     ; 0x2023 <main+0x1b8f>
    1464: 84 28        	sty	$28                     ; 0x2028 <main+0x1b94>
    1466: a5 25        	lda	$25                     ; 0x2025 <main+0x1b91>
    1468: 4c a7 15     	jmp	$15a7 <main+0x1113>
    146b: 85 26        	sta	$26                     ; 0x2026 <main+0x1b92>
    146d: a9 34        	lda	#$34
    146f: 18           	clc
    1470: 65 1e        	adc	$1e                     ; 0x201e <main+0x1b8a>
    1472: 85 2e        	sta	$2e                     ; 0x202e <main+0x1b9a>
    1474: a9 96        	lda	#$96
    1476: 65 1b        	adc	$1b                     ; 0x201b <main+0x1b87>
    1478: 85 2f        	sta	$2f                     ; 0x202f <main+0x1b9b>
    147a: a0 20        	ldy	#$20
    147c: b2 2e        	lda	($2e)                   ; 0x202e <main+0x1b9a>
    147e: c9 41        	cmp	#$41
    1480: b0 50        	bcs	$14d2 <main+0x103e>
    1482: 4c d8 14     	jmp	$14d8 <main+0x1044>
    1485: e0 41        	cpx	#$41
    1487: a0 01        	ldy	#$1
    1489: b0 02        	bcs	$148d <main+0xff9>
    148b: a0 00        	ldy	#$0
    148d: 84 12        	sty	$12                     ; 0x2012 <main+0x1b7e>
    148f: a5 2e        	lda	$2e                     ; 0x202e <main+0x1b9a>
    1491: 18           	clc
    1492: 69 1f        	adc	#$1f
    1494: 85 2e        	sta	$2e                     ; 0x202e <main+0x1b9a>
    1496: a5 2f        	lda	$2f                     ; 0x202f <main+0x1b9b>
    1498: 69 00        	adc	#$0
    149a: 85 2f        	sta	$2f                     ; 0x202f <main+0x1b9b>
    149c: a5 12        	lda	$12                     ; 0x2012 <main+0x1b7e>
    149e: f0 28        	beq	$14c8 <main+0x1034>
    14a0: e0 5b        	cpx	#$5b
    14a2: a0 20        	ldy	#$20
    14a4: 8a           	txa
    14a5: b0 02        	bcs	$14a9 <main+0x1015>
    14a7: 09 20        	ora	#$20
    14a9: 85 23        	sta	$23                     ; 0x2023 <main+0x1b8f>
    14ab: b2 2e        	lda	($2e)                   ; 0x202e <main+0x1b9a>
    14ad: c9 41        	cmp	#$41
    14af: b0 21        	bcs	$14d2 <main+0x103e>
    14b1: 80 25        	bra	$14d8 <main+0x1044>
    14b3: a5 2e        	lda	$2e                     ; 0x202e <main+0x1b9a>
    14b5: 18           	clc
    14b6: 69 20        	adc	#$20
    14b8: 85 2e        	sta	$2e                     ; 0x202e <main+0x1b9a>
    14ba: a5 2f        	lda	$2f                     ; 0x202f <main+0x1b9b>
    14bc: 69 00        	adc	#$0
    14be: 85 2f        	sta	$2f                     ; 0x202f <main+0x1b9b>
    14c0: b2 2e        	lda	($2e)                   ; 0x202e <main+0x1b9a>
    14c2: c9 41        	cmp	#$41
    14c4: b0 0c        	bcs	$14d2 <main+0x103e>
    14c6: 80 10        	bra	$14d8 <main+0x1044>
    14c8: 86 23        	stx	$23                     ; 0x2023 <main+0x1b8f>
    14ca: a0 20        	ldy	#$20
    14cc: b2 2e        	lda	($2e)                   ; 0x202e <main+0x1b9a>
    14ce: c9 41        	cmp	#$41
    14d0: 90 06        	bcc	$14d8 <main+0x1044>
    14d2: c9 5b        	cmp	#$5b
    14d4: b0 02        	bcs	$14d8 <main+0x1044>
    14d6: 09 20        	ora	#$20
    14d8: a6 23        	ldx	$23                     ; 0x2023 <main+0x1b8f>
    14da: 86 12        	stx	$12                     ; 0x2012 <main+0x1b7e>
    14dc: c5 12        	cmp	$12                     ; 0x2012 <main+0x1b7e>
    14de: a5 25        	lda	$25                     ; 0x2025 <main+0x1b91>
    14e0: a6 27        	ldx	$27                     ; 0x2027 <main+0x1b93>
    14e2: 90 03        	bcc	$14e7 <main+0x1053>
    14e4: 4c a7 15     	jmp	$15a7 <main+0x1113>
    14e7: a9 34        	lda	#$34
    14e9: 18           	clc
    14ea: 65 22        	adc	$22                     ; 0x2022 <main+0x1b8e>
    14ec: 85 22        	sta	$22                     ; 0x2022 <main+0x1b8e>
    14ee: a9 96        	lda	#$96
    14f0: 65 1f        	adc	$1f                     ; 0x201f <main+0x1b8b>
    14f2: 85 23        	sta	$23                     ; 0x2023 <main+0x1b8f>
    14f4: a5 26        	lda	$26                     ; 0x2026 <main+0x1b92>
    14f6: f0 30        	beq	$1528 <main+0x1094>
    14f8: a5 18        	lda	$18                     ; 0x2018 <main+0x1b84>
    14fa: 85 2e        	sta	$2e                     ; 0x202e <main+0x1b9a>
    14fc: a5 19        	lda	$19                     ; 0x2019 <main+0x1b85>
    14fe: 85 2f        	sta	$2f                     ; 0x202f <main+0x1b9b>
    1500: a5 2c        	lda	$2c                     ; 0x202c <main+0x1b98>
    1502: 85 12        	sta	$12                     ; 0x2012 <main+0x1b7e>
    1504: a5 2d        	lda	$2d                     ; 0x202d <main+0x1b99>
    1506: 85 13        	sta	$13                     ; 0x2013 <main+0x1b7f>
    1508: 80 0c        	bra	$1516 <main+0x1082>
    150a: e6 13        	inc	$13                     ; 0x2013 <main+0x1b7f>
    150c: e6 2e        	inc	$2e                     ; 0x202e <main+0x1b9a>
    150e: d0 02        	bne	$1512 <main+0x107e>
    1510: e6 2f        	inc	$2f                     ; 0x202f <main+0x1b9b>
    1512: a5 1f        	lda	$1f                     ; 0x201f <main+0x1b8b>
    1514: f0 12        	beq	$1528 <main+0x1094>
    1516: b2 2e        	lda	($2e)                   ; 0x202e <main+0x1b9a>
    1518: 85 1f        	sta	$1f                     ; 0x201f <main+0x1b8b>
    151a: b2 2e        	lda	($2e)                   ; 0x202e <main+0x1b9a>
    151c: 92 12        	sta	($12)                   ; 0x2012 <main+0x1b7e>
    151e: e6 12        	inc	$12                     ; 0x2012 <main+0x1b7e>
    1520: f0 e8        	beq	$150a <main+0x1076>
    1522: e6 2e        	inc	$2e                     ; 0x202e <main+0x1b9a>
    1524: f0 ea        	beq	$1510 <main+0x107c>
    1526: 80 ea        	bra	$1512 <main+0x107e>
    1528: a9 34        	lda	#$34
    152a: 18           	clc
    152b: 65 1e        	adc	$1e                     ; 0x201e <main+0x1b8a>
    152d: 85 1e        	sta	$1e                     ; 0x201e <main+0x1b8a>
    152f: a9 96        	lda	#$96
    1531: 65 1b        	adc	$1b                     ; 0x201b <main+0x1b87>
    1533: 85 1f        	sta	$1f                     ; 0x201f <main+0x1b8b>
    1535: b2 1e        	lda	($1e)                   ; 0x201e <main+0x1b8a>
    1537: 85 12        	sta	$12                     ; 0x2012 <main+0x1b7e>
    1539: b2 1e        	lda	($1e)                   ; 0x201e <main+0x1b8a>
    153b: 92 22        	sta	($22)                   ; 0x2022 <main+0x1b8e>
    153d: a5 12        	lda	$12                     ; 0x2012 <main+0x1b7e>
    153f: f0 1a        	beq	$155b <main+0x10c7>
    1541: a5 18        	lda	$18                     ; 0x2018 <main+0x1b84>
    1543: 85 12        	sta	$12                     ; 0x2012 <main+0x1b7e>
    1545: a5 19        	lda	$19                     ; 0x2019 <main+0x1b85>
    1547: 85 13        	sta	$13                     ; 0x2013 <main+0x1b7f>
    1549: b1 12        	lda	($12),y                 ; 0x2012 <main+0x1b7e>
    154b: 85 1b        	sta	$1b                     ; 0x201b <main+0x1b87>
    154d: b1 12        	lda	($12),y                 ; 0x2012 <main+0x1b7e>
    154f: 92 12        	sta	($12)                   ; 0x2012 <main+0x1b7e>
    1551: e6 12        	inc	$12                     ; 0x2012 <main+0x1b7e>
    1553: d0 02        	bne	$1557 <main+0x10c3>
    1555: e6 13        	inc	$13                     ; 0x2013 <main+0x1b7f>
    1557: a5 1b        	lda	$1b                     ; 0x201b <main+0x1b87>
    1559: d0 ee        	bne	$1549 <main+0x10b5>
    155b: a5 26        	lda	$26                     ; 0x2026 <main+0x1b92>
    155d: 92 1e        	sta	($1e)                   ; 0x201e <main+0x1b8a>
    155f: f0 2e        	beq	$158f <main+0x10fb>
    1561: a4 2c        	ldy	$2c                     ; 0x202c <main+0x1b98>
    1563: 84 1e        	sty	$1e                     ; 0x201e <main+0x1b8a>
    1565: a4 2d        	ldy	$2d                     ; 0x202d <main+0x1b99>
    1567: 84 1f        	sty	$1f                     ; 0x201f <main+0x1b8b>
    1569: a4 16        	ldy	$16                     ; 0x2016 <main+0x1b82>
    156b: 84 12        	sty	$12                     ; 0x2012 <main+0x1b7e>
    156d: a4 17        	ldy	$17                     ; 0x2017 <main+0x1b83>
    156f: 84 13        	sty	$13                     ; 0x2013 <main+0x1b7f>
    1571: 80 0b        	bra	$157e <main+0x10ea>
    1573: e6 13        	inc	$13                     ; 0x2013 <main+0x1b7f>
    1575: e6 1e        	inc	$1e                     ; 0x201e <main+0x1b8a>
    1577: d0 02        	bne	$157b <main+0x10e7>
    1579: e6 1f        	inc	$1f                     ; 0x201f <main+0x1b8b>
    157b: 98           	tya
    157c: f0 11        	beq	$158f <main+0x10fb>
    157e: b2 1e        	lda	($1e)                   ; 0x201e <main+0x1b8a>
    1580: a8           	tay
    1581: b2 1e        	lda	($1e)                   ; 0x201e <main+0x1b8a>
    1583: 92 12        	sta	($12)                   ; 0x2012 <main+0x1b7e>
    1585: e6 12        	inc	$12                     ; 0x2012 <main+0x1b7e>
    1587: f0 ea        	beq	$1573 <main+0x10df>
    1589: e6 1e        	inc	$1e                     ; 0x201e <main+0x1b8a>
    158b: f0 ec        	beq	$1579 <main+0x10e5>
    158d: 80 ec        	bra	$157b <main+0x10e7>
    158f: b2 1c        	lda	($1c)                   ; 0x201c <main+0x1b88>
    1591: 85 12        	sta	$12                     ; 0x2012 <main+0x1b7e>
    1593: a0 01        	ldy	#$1
    1595: b1 1c        	lda	($1c),y                 ; 0x201c <main+0x1b88>
    1597: 92 1c        	sta	($1c)                   ; 0x201c <main+0x1b88>
    1599: a5 12        	lda	$12                     ; 0x2012 <main+0x1b7e>
    159b: 85 28        	sta	$28                     ; 0x2028 <main+0x1b94>
    159d: 91 1c        	sta	($1c),y                 ; 0x201c <main+0x1b88>
    159f: ad 18 a3     	lda	$a318                   ; 0xa318 <fpr+0xd26>
    15a2: ac 19 a3     	ldy	$a319                   ; 0xa319 <fpr+0xd27>
    15a5: 84 29        	sty	$29                     ; 0x2029 <main+0x1b95>
    15a7: 38           	sec
    15a8: 85 25        	sta	$25                     ; 0x2025 <main+0x1b91>
    15aa: e5 15        	sbc	$15                     ; 0x2015 <main+0x1b81>
    15ac: 85 12        	sta	$12                     ; 0x2012 <main+0x1b7e>
    15ae: a5 29        	lda	$29                     ; 0x2029 <main+0x1b95>
    15b0: e5 14        	sbc	$14                     ; 0x2014 <main+0x1b80>
    15b2: 85 13        	sta	$13                     ; 0x2013 <main+0x1b7f>
    15b4: a5 18        	lda	$18                     ; 0x2018 <main+0x1b84>
    15b6: 18           	clc
    15b7: 69 20        	adc	#$20
    15b9: 85 18        	sta	$18                     ; 0x2018 <main+0x1b84>
    15bb: a5 19        	lda	$19                     ; 0x2019 <main+0x1b85>
    15bd: 69 00        	adc	#$0
    15bf: 85 19        	sta	$19                     ; 0x2019 <main+0x1b85>
    15c1: a5 16        	lda	$16                     ; 0x2016 <main+0x1b82>
    15c3: 18           	clc
    15c4: 69 20        	adc	#$20
    15c6: 85 16        	sta	$16                     ; 0x2016 <main+0x1b82>
    15c8: a5 17        	lda	$17                     ; 0x2017 <main+0x1b83>
    15ca: 69 00        	adc	#$0
    15cc: 85 17        	sta	$17                     ; 0x2017 <main+0x1b83>
    15ce: e4 12        	cpx	$12                     ; 0x2012 <main+0x1b7e>
    15d0: a5 1a        	lda	$1a                     ; 0x201a <main+0x1b86>
    15d2: e5 13        	sbc	$13                     ; 0x2013 <main+0x1b7f>
    15d4: 50 02        	bvc	$15d8 <main+0x1144>
    15d6: 49 80        	eor	#$80
    15d8: 86 1e        	stx	$1e                     ; 0x201e <main+0x1b8a>
    15da: a4 1a        	ldy	$1a                     ; 0x201a <main+0x1b86>
    15dc: 84 1b        	sty	$1b                     ; 0x201b <main+0x1b87>
    15de: a8           	tay
    15df: 30 03        	bmi	$15e4 <main+0x1150>
    15e1: 4c 5a 16     	jmp	$165a <main+0x11c6>
    15e4: a9 b4        	lda	#$b4
    15e6: 18           	clc
    15e7: 65 1e        	adc	$1e                     ; 0x201e <main+0x1b8a>
    15e9: 85 1c        	sta	$1c                     ; 0x201c <main+0x1b88>
    15eb: a9 a2        	lda	#$a2
    15ed: 65 1b        	adc	$1b                     ; 0x201b <main+0x1b87>
    15ef: 85 1d        	sta	$1d                     ; 0x201d <main+0x1b89>
    15f1: a5 28        	lda	$28                     ; 0x2028 <main+0x1b94>
    15f3: 29 01        	and	#$1
    15f5: 85 13        	sta	$13                     ; 0x2013 <main+0x1b7f>
    15f7: a4 1b        	ldy	$1b                     ; 0x201b <main+0x1b87>
    15f9: 84 1a        	sty	$1a                     ; 0x201a <main+0x1b86>
    15fb: e8           	inx
    15fc: d0 02        	bne	$1600 <main+0x116c>
    15fe: e6 1a        	inc	$1a                     ; 0x201a <main+0x1b86>
    1600: a5 1b        	lda	$1b                     ; 0x201b <main+0x1b87>
    1602: 4a           	lsr
    1603: 66 1e        	ror	$1e                     ; 0x201e <main+0x1b8a>
    1605: 64 22        	stz	$22                     ; 0x2022 <main+0x1b8e>
    1607: 66 22        	ror	$22                     ; 0x2022 <main+0x1b8e>
    1609: 4a           	lsr
    160a: 66 1e        	ror	$1e                     ; 0x201e <main+0x1b8a>
    160c: 66 22        	ror	$22                     ; 0x2022 <main+0x1b8e>
    160e: 4a           	lsr
    160f: 66 1e        	ror	$1e                     ; 0x201e <main+0x1b8a>
    1611: 66 22        	ror	$22                     ; 0x2022 <main+0x1b8e>
    1613: a5 1a        	lda	$1a                     ; 0x201a <main+0x1b86>
    1615: 4a           	lsr
    1616: 86 1b        	stx	$1b                     ; 0x201b <main+0x1b87>
    1618: 66 1b        	ror	$1b                     ; 0x201b <main+0x1b87>
    161a: 64 12        	stz	$12                     ; 0x2012 <main+0x1b7e>
    161c: 66 12        	ror	$12                     ; 0x2012 <main+0x1b7e>
    161e: 4a           	lsr
    161f: 66 1b        	ror	$1b                     ; 0x201b <main+0x1b87>
    1621: 66 12        	ror	$12                     ; 0x2012 <main+0x1b7e>
    1623: 4a           	lsr
    1624: 66 1b        	ror	$1b                     ; 0x201b <main+0x1b87>
    1626: 66 12        	ror	$12                     ; 0x2012 <main+0x1b7e>
    1628: a0 01        	ldy	#$1
    162a: b1 1c        	lda	($1c),y                 ; 0x201c <main+0x1b88>
    162c: 85 23        	sta	$23                     ; 0x2023 <main+0x1b8f>
    162e: a4 1e        	ldy	$1e                     ; 0x201e <main+0x1b8a>
    1630: 84 1f        	sty	$1f                     ; 0x201f <main+0x1b8b>
    1632: a4 12        	ldy	$12                     ; 0x2012 <main+0x1b7e>
    1634: 84 1e        	sty	$1e                     ; 0x201e <main+0x1b8a>
    1636: a4 13        	ldy	$13                     ; 0x2013 <main+0x1b7f>
    1638: f0 03        	beq	$163d <main+0x11a9>
    163a: 4c e5 13     	jmp	$13e5 <main+0xf51>
    163d: 29 01        	and	#$1
    163f: d0 03        	bne	$1644 <main+0x11b0>
    1641: 4c e5 13     	jmp	$13e5 <main+0xf51>
    1644: a9 34        	lda	#$34
    1646: 18           	clc
    1647: 65 22        	adc	$22                     ; 0x2022 <main+0x1b8e>
    1649: 85 12        	sta	$12                     ; 0x2012 <main+0x1b7e>
    164b: a9 96        	lda	#$96
    164d: 65 1f        	adc	$1f                     ; 0x201f <main+0x1b8b>
    164f: 85 13        	sta	$13                     ; 0x2013 <main+0x1b7f>
    1651: b2 12        	lda	($12)                   ; 0x2012 <main+0x1b7e>
    1653: 85 26        	sta	$26                     ; 0x2026 <main+0x1b92>
    1655: a0 20        	ldy	#$20
    1657: 4c e7 14     	jmp	$14e7 <main+0x1053>
    165a: a6 15        	ldx	$15                     ; 0x2015 <main+0x1b81>
    165c: e8           	inx
    165d: d0 02        	bne	$1661 <main+0x11cd>
    165f: e6 14        	inc	$14                     ; 0x2014 <main+0x1b80>
    1661: a4 25        	ldy	$25                     ; 0x2025 <main+0x1b91>
    1663: 84 13        	sty	$13                     ; 0x2013 <main+0x1b7f>
    1665: a5 29        	lda	$29                     ; 0x2029 <main+0x1b95>
    1667: 85 12        	sta	$12                     ; 0x2012 <main+0x1b7e>
    1669: a9 ff        	lda	#$ff
    166b: c6 13        	dec	$13                     ; 0x2013 <main+0x1b7f>
    166d: c5 13        	cmp	$13                     ; 0x2013 <main+0x1b7f>
    166f: d0 02        	bne	$1673 <main+0x11df>
    1671: c6 12        	dec	$12                     ; 0x2012 <main+0x1b7e>
    1673: e4 13        	cpx	$13                     ; 0x2013 <main+0x1b7f>
    1675: a5 14        	lda	$14                     ; 0x2014 <main+0x1b80>
    1677: e5 12        	sbc	$12                     ; 0x2012 <main+0x1b7e>
    1679: 50 02        	bvc	$167d <main+0x11e9>
    167b: 49 80        	eor	#$80
    167d: 86 15        	stx	$15                     ; 0x2015 <main+0x1b81>
    167f: 84 16        	sty	$16                     ; 0x2016 <main+0x1b82>
    1681: a6 29        	ldx	$29                     ; 0x2029 <main+0x1b95>
    1683: 86 17        	stx	$17                     ; 0x2017 <main+0x1b83>
    1685: aa           	tax
    1686: 10 38        	bpl	$16c0 <main+0x122c>
    1688: 84 25        	sty	$25                     ; 0x2025 <main+0x1b91>
    168a: 98           	tya
    168b: 38           	sec
    168c: e5 15        	sbc	$15                     ; 0x2015 <main+0x1b81>
    168e: a8           	tay
    168f: a5 29        	lda	$29                     ; 0x2029 <main+0x1b95>
    1691: e5 14        	sbc	$14                     ; 0x2014 <main+0x1b80>
    1693: c0 02        	cpy	#$2
    1695: e9 00        	sbc	#$0
    1697: 50 02        	bvc	$169b <main+0x1207>
    1699: 49 80        	eor	#$80
    169b: aa           	tax
    169c: 30 bc        	bmi	$165a <main+0x11c6>
    169e: ae b5 a2     	ldx	$a2b5                   ; 0xa2b5 <fpr+0xcc3>
    16a1: 86 28        	stx	$28                     ; 0x2028 <main+0x1b94>
    16a3: a2 75        	ldx	#$75
    16a5: 86 16        	stx	$16                     ; 0x2016 <main+0x1b82>
    16a7: a2 96        	ldx	#$96
    16a9: 86 17        	stx	$17                     ; 0x2017 <main+0x1b83>
    16ab: a2 55        	ldx	#$55
    16ad: 86 18        	stx	$18                     ; 0x2018 <main+0x1b84>
    16af: a2 96        	ldx	#$96
    16b1: 86 19        	stx	$19                     ; 0x2019 <main+0x1b85>
    16b3: a2 01        	ldx	#$1
    16b5: 64 1b        	stz	$1b                     ; 0x201b <main+0x1b87>
    16b7: 86 1e        	stx	$1e                     ; 0x201e <main+0x1b8a>
    16b9: 4c e4 15     	jmp	$15e4 <main+0x1150>
    16bc: a6 29        	ldx	$29                     ; 0x2029 <main+0x1b95>
    16be: 86 17        	stx	$17                     ; 0x2017 <main+0x1b83>
    16c0: a0 10        	ldy	#$10
    16c2: b1 10        	lda	($10),y                 ; 0x2010 <main+0x1b7c>
    16c4: ad 1c a3     	lda	$a31c                   ; 0xa31c <fpr+0xd2a>
    16c7: 85 25        	sta	$25                     ; 0x2025 <main+0x1b91>
    16c9: ac 1d a3     	ldy	$a31d                   ; 0xa31d <fpr+0xd2b>
    16cc: 84 28        	sty	$28                     ; 0x2028 <main+0x1b94>
    16ce: 18           	clc
    16cf: 69 14        	adc	#$14
    16d1: aa           	tax
    16d2: 98           	tya
    16d3: 69 00        	adc	#$0
    16d5: 86 29        	stx	$29                     ; 0x2029 <main+0x1b95>
    16d7: e4 16        	cpx	$16                     ; 0x2016 <main+0x1b82>
    16d9: 85 2c        	sta	$2c                     ; 0x202c <main+0x1b98>
    16db: e5 17        	sbc	$17                     ; 0x2017 <main+0x1b83>
    16dd: 50 02        	bvc	$16e1 <main+0x124d>
    16df: 49 80        	eor	#$80
    16e1: aa           	tax
    16e2: 30 08        	bmi	$16ec <main+0x1258>
    16e4: a6 16        	ldx	$16                     ; 0x2016 <main+0x1b82>
    16e6: 86 29        	stx	$29                     ; 0x2029 <main+0x1b95>
    16e8: a6 17        	ldx	$17                     ; 0x2017 <main+0x1b83>
    16ea: 86 2c        	stx	$2c                     ; 0x202c <main+0x1b98>
    16ec: ae f2 95     	ldx	$95f2                   ; 0x95f2 <fpr>
    16ef: ac f3 95     	ldy	$95f3                   ; 0x95f3 <fpr+0x1>
    16f2: 86 33        	stx	$33                     ; 0x2033 <main+0x1b9f>
    16f4: 8e 14 d0     	stx	$d014                   ; 0xd014 <end_block9+0x2ca4>
    16f7: 64 14        	stz	$14                     ; 0x2014 <main+0x1b80>
    16f9: 9c 15 d0     	stz	$d015                   ; 0xd015 <end_block9+0x2ca5>
    16fc: 84 34        	sty	$34                     ; 0x2034 <main+0x1ba0>
    16fe: 8c 16 d0     	sty	$d016                   ; 0xd016 <end_block9+0x2ca6>
    1701: 9c 17 d0     	stz	$d017                   ; 0xd017 <end_block9+0x2ca7>
    1704: ae 1a a3     	ldx	$a31a                   ; 0xa31a <fpr+0xd28>
    1707: ac 1b a3     	ldy	$a31b                   ; 0xa31b <fpr+0xd29>
    170a: d0 06        	bne	$1712 <main+0x127e>
    170c: 8a           	txa
    170d: d0 03        	bne	$1712 <main+0x127e>
    170f: 4c 93 18     	jmp	$1893 <main+0x13ff>
    1712: a0 20        	ldy	#$20
    1714: ad b4 a2     	lda	$a2b4                   ; 0xa2b4 <fpr+0xcc2>
    1717: 29 01        	and	#$1
    1719: a2 67        	ldx	#$67
    171b: 86 12        	stx	$12                     ; 0x2012 <main+0x1b7e>
    171d: a2 67        	ldx	#$67
    171f: 86 13        	stx	$13                     ; 0x2013 <main+0x1b7f>
    1721: aa           	tax
    1722: d0 08        	bne	$172c <main+0x1298>
    1724: a2 f4        	ldx	#$f4
    1726: 86 12        	stx	$12                     ; 0x2012 <main+0x1b7e>
    1728: a2 66        	ldx	#$66
    172a: 86 13        	stx	$13                     ; 0x2013 <main+0x1b7f>
    172c: a6 10        	ldx	$10                     ; 0x2010 <main+0x1b7c>
    172e: 98           	tya
    172f: 92 10        	sta	($10)                   ; 0x2010 <main+0x1b7c>
    1731: a0 01        	ldy	#$1
    1733: a9 00        	lda	#$0
    1735: 91 10        	sta	($10),y                 ; 0x2010 <main+0x1b7c>
    1737: a9 34        	lda	#$34
    1739: c8           	iny
    173a: 91 10        	sta	($10),y                 ; 0x2010 <main+0x1b7c>
    173c: 18           	clc
    173d: 8a           	txa
    173e: 69 02        	adc	#$2
    1740: 85 14        	sta	$14                     ; 0x2014 <main+0x1b80>
    1742: a5 11        	lda	$11                     ; 0x2011 <main+0x1b7d>
    1744: 69 00        	adc	#$0
    1746: 18           	clc
    1747: 85 15        	sta	$15                     ; 0x2015 <main+0x1b81>
    1749: a9 96        	lda	#$96
    174b: 88           	dey
    174c: 91 14        	sta	($14),y                 ; 0x2014 <main+0x1b80>
    174e: 8a           	txa
    174f: 69 04        	adc	#$4
    1751: 85 14        	sta	$14                     ; 0x2014 <main+0x1b80>
    1753: a5 11        	lda	$11                     ; 0x2011 <main+0x1b7d>
    1755: 69 00        	adc	#$0
    1757: a0 04        	ldy	#$4
    1759: 85 15        	sta	$15                     ; 0x2015 <main+0x1b81>
    175b: a5 12        	lda	$12                     ; 0x2012 <main+0x1b7e>
    175d: 91 10        	sta	($10),y                 ; 0x2010 <main+0x1b7c>
    175f: a0 01        	ldy	#$1
    1761: a5 13        	lda	$13                     ; 0x2013 <main+0x1b7f>
    1763: 91 14        	sta	($14),y                 ; 0x2014 <main+0x1b80>
    1765: a2 2b        	ldx	#$2b
    1767: 86 12        	stx	$12                     ; 0x2012 <main+0x1b7e>
    1769: a2 68        	ldx	#$68
    176b: 86 13        	stx	$13                     ; 0x2013 <main+0x1b7f>
    176d: 20 a9 64     	jsr	$64a9 <printf>
    1770: a6 25        	ldx	$25                     ; 0x2025 <main+0x1b91>
    1772: a4 28        	ldy	$28                     ; 0x2028 <main+0x1b94>
    1774: e8           	inx
    1775: d0 01        	bne	$1778 <main+0x12e4>
    1777: c8           	iny
    1778: 86 13        	stx	$13                     ; 0x2013 <main+0x1b7f>
    177a: e4 29        	cpx	$29                     ; 0x2029 <main+0x1b95>
    177c: 98           	tya
    177d: e5 2c        	sbc	$2c                     ; 0x202c <main+0x1b98>
    177f: 50 02        	bvc	$1783 <main+0x12ef>
    1781: 49 80        	eor	#$80
    1783: aa           	tax
    1784: 30 03        	bmi	$1789 <main+0x12f5>
    1786: 4c 7e 18     	jmp	$187e <main+0x13ea>
    1789: a9 f2        	lda	#$f2
    178b: 18           	clc
    178c: 65 25        	adc	$25                     ; 0x2025 <main+0x1b91>
    178e: aa           	tax
    178f: a9 95        	lda	#$95
    1791: 65 28        	adc	$28                     ; 0x2028 <main+0x1b94>
    1793: 85 12        	sta	$12                     ; 0x2012 <main+0x1b7e>
    1795: 18           	clc
    1796: 8a           	txa
    1797: 69 c3        	adc	#$c3
    1799: 85 2e        	sta	$2e                     ; 0x202e <main+0x1b9a>
    179b: a5 12        	lda	$12                     ; 0x2012 <main+0x1b7e>
    179d: 69 0c        	adc	#$c
    179f: 85 2f        	sta	$2f                     ; 0x202f <main+0x1b9b>
    17a1: a9 00        	lda	#$0
    17a3: 46 28        	lsr	$28                     ; 0x2028 <main+0x1b94>
    17a5: 66 25        	ror	$25                     ; 0x2025 <main+0x1b91>
    17a7: 6a           	ror
    17a8: 46 28        	lsr	$28                     ; 0x2028 <main+0x1b94>
    17aa: 66 25        	ror	$25                     ; 0x2025 <main+0x1b91>
    17ac: 6a           	ror
    17ad: 46 28        	lsr	$28                     ; 0x2028 <main+0x1b94>
    17af: 66 25        	ror	$25                     ; 0x2025 <main+0x1b91>
    17b1: 6a           	ror
    17b2: 85 12        	sta	$12                     ; 0x2012 <main+0x1b7e>
    17b4: a9 f2        	lda	#$f2
    17b6: 18           	clc
    17b7: 65 12        	adc	$12                     ; 0x2012 <main+0x1b7e>
    17b9: 85 12        	sta	$12                     ; 0x2012 <main+0x1b7e>
    17bb: a9 95        	lda	#$95
    17bd: 65 25        	adc	$25                     ; 0x2025 <main+0x1b91>
    17bf: aa           	tax
    17c0: 18           	clc
    17c1: a5 12        	lda	$12                     ; 0x2012 <main+0x1b7e>
    17c3: 69 62        	adc	#$62
    17c5: 85 28        	sta	$28                     ; 0x2028 <main+0x1b94>
    17c7: 8a           	txa
    17c8: 69 00        	adc	#$0
    17ca: 85 25        	sta	$25                     ; 0x2025 <main+0x1b91>
    17cc: a5 13        	lda	$13                     ; 0x2013 <main+0x1b7f>
    17ce: cc 1b a3     	cpy	$a31b                   ; 0xa31b <fpr+0xd29>
    17d1: d0 1e        	bne	$17f1 <main+0x135d>
    17d3: ae 1a a3     	ldx	$a31a                   ; 0xa31a <fpr+0xd28>
    17d6: 86 12        	stx	$12                     ; 0x2012 <main+0x1b7e>
    17d8: c5 12        	cmp	$12                     ; 0x2012 <main+0x1b7e>
    17da: d0 15        	bne	$17f1 <main+0x135d>
    17dc: 85 27        	sta	$27                     ; 0x2027 <main+0x1b93>
    17de: 84 26        	sty	$26                     ; 0x2026 <main+0x1b92>
    17e0: a2 fa        	ldx	#$fa
    17e2: 86 35        	stx	$35                     ; 0x2035 <main+0x1ba1>
    17e4: a2 35        	ldx	#$35
    17e6: 86 12        	stx	$12                     ; 0x2012 <main+0x1b7e>
    17e8: a2 00        	ldx	#$0
    17ea: 86 13        	stx	$13                     ; 0x2013 <main+0x1b7f>
    17ec: 20 85 4e     	jsr	$4e85 <textPrint>
    17ef: 80 0f        	bra	$1800 <main+0x136c>
    17f1: 85 27        	sta	$27                     ; 0x2027 <main+0x1b93>
    17f3: 84 26        	sty	$26                     ; 0x2026 <main+0x1b92>
    17f5: a2 33        	ldx	#$33
    17f7: 86 12        	stx	$12                     ; 0x2012 <main+0x1b7e>
    17f9: a2 68        	ldx	#$68
    17fb: 86 13        	stx	$13                     ; 0x2013 <main+0x1b7f>
    17fd: 20 a9 64     	jsr	$64a9 <printf>
    1800: b2 2e        	lda	($2e)                   ; 0x202e <main+0x1b9a>
    1802: 29 01        	and	#$1
    1804: a2 67        	ldx	#$67
    1806: 86 12        	stx	$12                     ; 0x2012 <main+0x1b7e>
    1808: a2 67        	ldx	#$67
    180a: 86 13        	stx	$13                     ; 0x2013 <main+0x1b7f>
    180c: aa           	tax
    180d: d0 08        	bne	$1817 <main+0x1383>
    180f: a2 f4        	ldx	#$f4
    1811: 86 12        	stx	$12                     ; 0x2012 <main+0x1b7e>
    1813: a2 66        	ldx	#$66
    1815: 86 13        	stx	$13                     ; 0x2013 <main+0x1b7f>
    1817: a5 10        	lda	$10                     ; 0x2010 <main+0x1b7c>
    1819: a6 11        	ldx	$11                     ; 0x2011 <main+0x1b7d>
    181b: 18           	clc
    181c: 69 02        	adc	#$2
    181e: 85 14        	sta	$14                     ; 0x2014 <main+0x1b80>
    1820: 8a           	txa
    1821: 69 00        	adc	#$0
    1823: 85 15        	sta	$15                     ; 0x2015 <main+0x1b81>
    1825: a5 12        	lda	$12                     ; 0x2012 <main+0x1b7e>
    1827: a0 02        	ldy	#$2
    1829: 91 10        	sta	($10),y                 ; 0x2010 <main+0x1b7c>
    182b: a5 13        	lda	$13                     ; 0x2013 <main+0x1b7f>
    182d: 88           	dey
    182e: 91 14        	sta	($14),y                 ; 0x2014 <main+0x1b80>
    1830: a5 28        	lda	$28                     ; 0x2028 <main+0x1b94>
    1832: 92 10        	sta	($10)                   ; 0x2010 <main+0x1b7c>
    1834: a5 25        	lda	$25                     ; 0x2025 <main+0x1b91>
    1836: 91 10        	sta	($10),y                 ; 0x2010 <main+0x1b7c>
    1838: a2 cf        	ldx	#$cf
    183a: 86 12        	stx	$12                     ; 0x2012 <main+0x1b7e>
    183c: a2 67        	ldx	#$67
    183e: 86 13        	stx	$13                     ; 0x2013 <main+0x1b7f>
    1840: 20 a9 64     	jsr	$64a9 <printf>
    1843: a6 27        	ldx	$27                     ; 0x2027 <main+0x1b93>
    1845: 86 12        	stx	$12                     ; 0x2012 <main+0x1b7e>
    1847: a6 26        	ldx	$26                     ; 0x2026 <main+0x1b92>
    1849: 86 13        	stx	$13                     ; 0x2013 <main+0x1b7f>
    184b: e6 12        	inc	$12                     ; 0x2012 <main+0x1b7e>
    184d: d0 02        	bne	$1851 <main+0x13bd>
    184f: e6 13        	inc	$13                     ; 0x2013 <main+0x1b7f>
    1851: e6 2e        	inc	$2e                     ; 0x202e <main+0x1b9a>
    1853: d0 02        	bne	$1857 <main+0x13c3>
    1855: e6 2f        	inc	$2f                     ; 0x202f <main+0x1b9b>
    1857: 18           	clc
    1858: a5 28        	lda	$28                     ; 0x2028 <main+0x1b94>
    185a: 69 20        	adc	#$20
    185c: 85 28        	sta	$28                     ; 0x2028 <main+0x1b94>
    185e: a5 25        	lda	$25                     ; 0x2025 <main+0x1b91>
    1860: 69 00        	adc	#$0
    1862: 85 25        	sta	$25                     ; 0x2025 <main+0x1b91>
    1864: a5 12        	lda	$12                     ; 0x2012 <main+0x1b7e>
    1866: a4 13        	ldy	$13                     ; 0x2013 <main+0x1b7f>
    1868: a6 2c        	ldx	$2c                     ; 0x202c <main+0x1b98>
    186a: e4 13        	cpx	$13                     ; 0x2013 <main+0x1b7f>
    186c: f0 03        	beq	$1871 <main+0x13dd>
    186e: 4c ce 17     	jmp	$17ce <main+0x133a>
    1871: a5 12        	lda	$12                     ; 0x2012 <main+0x1b7e>
    1873: a4 13        	ldy	$13                     ; 0x2013 <main+0x1b7f>
    1875: a6 29        	ldx	$29                     ; 0x2029 <main+0x1b95>
    1877: e4 12        	cpx	$12                     ; 0x2012 <main+0x1b7e>
    1879: f0 03        	beq	$187e <main+0x13ea>
    187b: 4c ce 17     	jmp	$17ce <main+0x133a>
    187e: a2 00        	ldx	#$0
    1880: 86 2e        	stx	$2e                     ; 0x202e <main+0x1b9a>
    1882: a2 00        	ldx	#$0
    1884: 86 2f        	stx	$2f                     ; 0x202f <main+0x1b9b>
    1886: a2 f4        	ldx	#$f4
    1888: a0 95        	ldy	#$95
    188a: 86 25        	stx	$25                     ; 0x2025 <main+0x1b91>
    188c: 84 28        	sty	$28                     ; 0x2028 <main+0x1b94>
    188e: 64 24        	stz	$24                     ; 0x2024 <main+0x1b90>
    1890: 4c 24 23     	jmp	$2324 <main+0x1e90>
    1893: a0 fa        	ldy	#$fa
    1895: 4c 14 17     	jmp	$1714 <main+0x1280>
    1898: 85 1e        	sta	$1e                     ; 0x201e <main+0x1b8a>
    189a: a0 00        	ldy	#$0
    189c: a2 00        	ldx	#$0
    189e: 4c e9 12     	jmp	$12e9 <main+0xe55>
    18a1: 8a           	txa
    18a2: f0 03        	beq	$18a7 <main+0x1413>
    18a4: 4c fd 10     	jmp	$10fd <main+0xc69>
    18a7: c0 03        	cpy	#$3
    18a9: f0 03        	beq	$18ae <main+0x141a>
    18ab: 4c fd 10     	jmp	$10fd <main+0xc69>
    18ae: a6 1e        	ldx	$1e                     ; 0x201e <main+0x1b8a>
    18b0: e0 41        	cpx	#$41
    18b2: 90 0a        	bcc	$18be <main+0x142a>
    18b4: a5 1e        	lda	$1e                     ; 0x201e <main+0x1b8a>
    18b6: c9 5b        	cmp	#$5b
    18b8: b0 04        	bcs	$18be <main+0x142a>
    18ba: 09 20        	ora	#$20
    18bc: 85 1e        	sta	$1e                     ; 0x201e <main+0x1b8a>
    18be: a5 1d        	lda	$1d                     ; 0x201d <main+0x1b89>
    18c0: c9 41        	cmp	#$41
    18c2: 90 06        	bcc	$18ca <main+0x1436>
    18c4: c9 5b        	cmp	#$5b
    18c6: b0 02        	bcs	$18ca <main+0x1436>
    18c8: 09 20        	ora	#$20
    18ca: 85 1a        	sta	$1a                     ; 0x201a <main+0x1b86>
    18cc: a6 1e        	ldx	$1e                     ; 0x201e <main+0x1b8a>
    18ce: e4 1a        	cpx	$1a                     ; 0x201a <main+0x1b86>
    18d0: f0 03        	beq	$18d5 <main+0x1441>
    18d2: 4c fd 10     	jmp	$10fd <main+0xc69>
    18d5: a0 02        	ldy	#$2
    18d7: b1 18        	lda	($18),y                 ; 0x2018 <main+0x1b84>
    18d9: c9 41        	cmp	#$41
    18db: 90 06        	bcc	$18e3 <main+0x144f>
    18dd: c9 5b        	cmp	#$5b
    18df: b0 02        	bcs	$18e3 <main+0x144f>
    18e1: 09 20        	ora	#$20
    18e3: 85 1b        	sta	$1b                     ; 0x201b <main+0x1b87>
    18e5: ad 22 a3     	lda	$a322                   ; 0xa322 <fpr+0xd30>
    18e8: c9 41        	cmp	#$41
    18ea: 90 06        	bcc	$18f2 <main+0x145e>
    18ec: c9 5b        	cmp	#$5b
    18ee: b0 02        	bcs	$18f2 <main+0x145e>
    18f0: 09 20        	ora	#$20
    18f2: 85 1a        	sta	$1a                     ; 0x201a <main+0x1b86>
    18f4: a6 1b        	ldx	$1b                     ; 0x201b <main+0x1b87>
    18f6: e4 1a        	cpx	$1a                     ; 0x201a <main+0x1b86>
    18f8: f0 03        	beq	$18fd <main+0x1469>
    18fa: 4c fd 10     	jmp	$10fd <main+0xc69>
    18fd: a0 03        	ldy	#$3
    18ff: b1 18        	lda	($18),y                 ; 0x2018 <main+0x1b84>
    1901: c9 41        	cmp	#$41
    1903: 90 06        	bcc	$190b <main+0x1477>
    1905: c9 5b        	cmp	#$5b
    1907: b0 02        	bcs	$190b <main+0x1477>
    1909: 09 20        	ora	#$20
    190b: 85 19        	sta	$19                     ; 0x2019 <main+0x1b85>
    190d: ad 23 a3     	lda	$a323                   ; 0xa323 <fpr+0xd31>
    1910: c9 41        	cmp	#$41
    1912: 90 06        	bcc	$191a <main+0x1486>
    1914: c9 5b        	cmp	#$5b
    1916: b0 02        	bcs	$191a <main+0x1486>
    1918: 09 20        	ora	#$20
    191a: 85 18        	sta	$18                     ; 0x2018 <main+0x1b84>
    191c: a6 19        	ldx	$19                     ; 0x2019 <main+0x1b85>
    191e: e4 18        	cpx	$18                     ; 0x2018 <main+0x1b84>
    1920: f0 03        	beq	$1925 <main+0x1491>
    1922: 4c fd 10     	jmp	$10fd <main+0xc69>
    1925: 4c b7 1a     	jmp	$1ab7 <main+0x1623>
    1928: 8a           	txa
    1929: f0 03        	beq	$192e <main+0x149a>
    192b: 4c 46 12     	jmp	$1246 <main+0xdb2>
    192e: c0 03        	cpy	#$3
    1930: f0 03        	beq	$1935 <main+0x14a1>
    1932: 4c 46 12     	jmp	$1246 <main+0xdb2>
    1935: a6 1b        	ldx	$1b                     ; 0x201b <main+0x1b87>
    1937: e0 41        	cpx	#$41
    1939: 90 0a        	bcc	$1945 <main+0x14b1>
    193b: a5 1b        	lda	$1b                     ; 0x201b <main+0x1b87>
    193d: c9 5b        	cmp	#$5b
    193f: b0 04        	bcs	$1945 <main+0x14b1>
    1941: 09 20        	ora	#$20
    1943: 85 1b        	sta	$1b                     ; 0x201b <main+0x1b87>
    1945: a5 1a        	lda	$1a                     ; 0x201a <main+0x1b86>
    1947: c9 41        	cmp	#$41
    1949: 90 06        	bcc	$1951 <main+0x14bd>
    194b: c9 5b        	cmp	#$5b
    194d: b0 02        	bcs	$1951 <main+0x14bd>
    194f: 09 20        	ora	#$20
    1951: 85 16        	sta	$16                     ; 0x2016 <main+0x1b82>
    1953: a6 1b        	ldx	$1b                     ; 0x201b <main+0x1b87>
    1955: e4 16        	cpx	$16                     ; 0x2016 <main+0x1b82>
    1957: f0 03        	beq	$195c <main+0x14c8>
    1959: 4c 46 12     	jmp	$1246 <main+0xdb2>
    195c: a0 02        	ldy	#$2
    195e: b1 18        	lda	($18),y                 ; 0x2018 <main+0x1b84>
    1960: c9 41        	cmp	#$41
    1962: 90 06        	bcc	$196a <main+0x14d6>
    1964: c9 5b        	cmp	#$5b
    1966: b0 02        	bcs	$196a <main+0x14d6>
    1968: 09 20        	ora	#$20
    196a: 85 17        	sta	$17                     ; 0x2017 <main+0x1b83>
    196c: ad 28 a3     	lda	$a328                   ; 0xa328 <fpr+0xd36>
    196f: c9 41        	cmp	#$41
    1971: 90 06        	bcc	$1979 <main+0x14e5>
    1973: c9 5b        	cmp	#$5b
    1975: b0 02        	bcs	$1979 <main+0x14e5>
    1977: 09 20        	ora	#$20
    1979: 85 16        	sta	$16                     ; 0x2016 <main+0x1b82>
    197b: a6 17        	ldx	$17                     ; 0x2017 <main+0x1b83>
    197d: e4 16        	cpx	$16                     ; 0x2016 <main+0x1b82>
    197f: f0 03        	beq	$1984 <main+0x14f0>
    1981: 4c 46 12     	jmp	$1246 <main+0xdb2>
    1984: a0 03        	ldy	#$3
    1986: b1 18        	lda	($18),y                 ; 0x2018 <main+0x1b84>
    1988: c9 41        	cmp	#$41
    198a: 90 06        	bcc	$1992 <main+0x14fe>
    198c: c9 5b        	cmp	#$5b
    198e: b0 02        	bcs	$1992 <main+0x14fe>
    1990: 09 20        	ora	#$20
    1992: 85 17        	sta	$17                     ; 0x2017 <main+0x1b83>
    1994: ad 29 a3     	lda	$a329                   ; 0xa329 <fpr+0xd37>
    1997: c9 41        	cmp	#$41
    1999: 90 06        	bcc	$19a1 <main+0x150d>
    199b: c9 5b        	cmp	#$5b
    199d: b0 02        	bcs	$19a1 <main+0x150d>
    199f: 09 20        	ora	#$20
    19a1: 85 16        	sta	$16                     ; 0x2016 <main+0x1b82>
    19a3: a6 17        	ldx	$17                     ; 0x2017 <main+0x1b83>
    19a5: e4 16        	cpx	$16                     ; 0x2016 <main+0x1b82>
    19a7: f0 03        	beq	$19ac <main+0x1518>
    19a9: 4c 46 12     	jmp	$1246 <main+0xdb2>
    19ac: 4c b7 1a     	jmp	$1ab7 <main+0x1623>
    19af: 85 1b        	sta	$1b                     ; 0x201b <main+0x1b87>
    19b1: a0 00        	ldy	#$0
    19b3: a2 00        	ldx	#$0
    19b5: 4c ce 0f     	jmp	$fce <main+0xb3a>
    19b8: c0 03        	cpy	#$3
    19ba: f0 03        	beq	$19bf <main+0x152b>
    19bc: 4c 6d 10     	jmp	$106d <main+0xbd9>
    19bf: a6 1e        	ldx	$1e                     ; 0x201e <main+0x1b8a>
    19c1: e0 41        	cpx	#$41
    19c3: 90 0a        	bcc	$19cf <main+0x153b>
    19c5: a5 1e        	lda	$1e                     ; 0x201e <main+0x1b8a>
    19c7: c9 5b        	cmp	#$5b
    19c9: b0 04        	bcs	$19cf <main+0x153b>
    19cb: 09 20        	ora	#$20
    19cd: 85 1e        	sta	$1e                     ; 0x201e <main+0x1b8a>
    19cf: a5 1d        	lda	$1d                     ; 0x201d <main+0x1b89>
    19d1: c9 41        	cmp	#$41
    19d3: 90 06        	bcc	$19db <main+0x1547>
    19d5: c9 5b        	cmp	#$5b
    19d7: b0 02        	bcs	$19db <main+0x1547>
    19d9: 09 20        	ora	#$20
    19db: 85 1a        	sta	$1a                     ; 0x201a <main+0x1b86>
    19dd: a6 1e        	ldx	$1e                     ; 0x201e <main+0x1b8a>
    19df: e4 1a        	cpx	$1a                     ; 0x201a <main+0x1b86>
    19e1: f0 03        	beq	$19e6 <main+0x1552>
    19e3: 4c 6d 10     	jmp	$106d <main+0xbd9>
    19e6: a0 02        	ldy	#$2
    19e8: b1 18        	lda	($18),y                 ; 0x2018 <main+0x1b84>
    19ea: c9 41        	cmp	#$41
    19ec: 90 06        	bcc	$19f4 <main+0x1560>
    19ee: c9 5b        	cmp	#$5b
    19f0: b0 02        	bcs	$19f4 <main+0x1560>
    19f2: 09 20        	ora	#$20
    19f4: 85 1b        	sta	$1b                     ; 0x201b <main+0x1b87>
    19f6: ad 1f a3     	lda	$a31f                   ; 0xa31f <fpr+0xd2d>
    19f9: c9 41        	cmp	#$41
    19fb: 90 06        	bcc	$1a03 <main+0x156f>
    19fd: c9 5b        	cmp	#$5b
    19ff: b0 02        	bcs	$1a03 <main+0x156f>
    1a01: 09 20        	ora	#$20
    1a03: 85 1a        	sta	$1a                     ; 0x201a <main+0x1b86>
    1a05: a6 1b        	ldx	$1b                     ; 0x201b <main+0x1b87>
    1a07: e4 1a        	cpx	$1a                     ; 0x201a <main+0x1b86>
    1a09: f0 03        	beq	$1a0e <main+0x157a>
    1a0b: 4c 6d 10     	jmp	$106d <main+0xbd9>
    1a0e: a0 03        	ldy	#$3
    1a10: b1 18        	lda	($18),y                 ; 0x2018 <main+0x1b84>
    1a12: c9 41        	cmp	#$41
    1a14: 90 06        	bcc	$1a1c <main+0x1588>
    1a16: c9 5b        	cmp	#$5b
    1a18: b0 02        	bcs	$1a1c <main+0x1588>
    1a1a: 09 20        	ora	#$20
    1a1c: 85 19        	sta	$19                     ; 0x2019 <main+0x1b85>
    1a1e: ad 20 a3     	lda	$a320                   ; 0xa320 <fpr+0xd2e>
    1a21: c9 41        	cmp	#$41
    1a23: 90 06        	bcc	$1a2b <main+0x1597>
    1a25: c9 5b        	cmp	#$5b
    1a27: b0 02        	bcs	$1a2b <main+0x1597>
    1a29: 09 20        	ora	#$20
    1a2b: 85 18        	sta	$18                     ; 0x2018 <main+0x1b84>
    1a2d: a6 19        	ldx	$19                     ; 0x2019 <main+0x1b85>
    1a2f: e4 18        	cpx	$18                     ; 0x2018 <main+0x1b84>
    1a31: f0 03        	beq	$1a36 <main+0x15a2>
    1a33: 4c 6d 10     	jmp	$106d <main+0xbd9>
    1a36: 4c b7 1a     	jmp	$1ab7 <main+0x1623>
    1a39: c0 03        	cpy	#$3
    1a3b: f0 03        	beq	$1a40 <main+0x15ac>
    1a3d: 4c be 11     	jmp	$11be <main+0xd2a>
    1a40: a6 1e        	ldx	$1e                     ; 0x201e <main+0x1b8a>
    1a42: e0 41        	cpx	#$41
    1a44: 90 0a        	bcc	$1a50 <main+0x15bc>
    1a46: a5 1e        	lda	$1e                     ; 0x201e <main+0x1b8a>
    1a48: c9 5b        	cmp	#$5b
    1a4a: b0 04        	bcs	$1a50 <main+0x15bc>
    1a4c: 09 20        	ora	#$20
    1a4e: 85 1e        	sta	$1e                     ; 0x201e <main+0x1b8a>
    1a50: a5 1d        	lda	$1d                     ; 0x201d <main+0x1b89>
    1a52: c9 41        	cmp	#$41
    1a54: 90 06        	bcc	$1a5c <main+0x15c8>
    1a56: c9 5b        	cmp	#$5b
    1a58: b0 02        	bcs	$1a5c <main+0x15c8>
    1a5a: 09 20        	ora	#$20
    1a5c: 85 1a        	sta	$1a                     ; 0x201a <main+0x1b86>
    1a5e: a6 1e        	ldx	$1e                     ; 0x201e <main+0x1b8a>
    1a60: e4 1a        	cpx	$1a                     ; 0x201a <main+0x1b86>
    1a62: f0 03        	beq	$1a67 <main+0x15d3>
    1a64: 4c be 11     	jmp	$11be <main+0xd2a>
    1a67: a0 02        	ldy	#$2
    1a69: b1 18        	lda	($18),y                 ; 0x2018 <main+0x1b84>
    1a6b: c9 41        	cmp	#$41
    1a6d: 90 06        	bcc	$1a75 <main+0x15e1>
    1a6f: c9 5b        	cmp	#$5b
    1a71: b0 02        	bcs	$1a75 <main+0x15e1>
    1a73: 09 20        	ora	#$20
    1a75: 85 1b        	sta	$1b                     ; 0x201b <main+0x1b87>
    1a77: ad 25 a3     	lda	$a325                   ; 0xa325 <fpr+0xd33>
    1a7a: c9 41        	cmp	#$41
    1a7c: 90 06        	bcc	$1a84 <main+0x15f0>
    1a7e: c9 5b        	cmp	#$5b
    1a80: b0 02        	bcs	$1a84 <main+0x15f0>
    1a82: 09 20        	ora	#$20
    1a84: 85 1a        	sta	$1a                     ; 0x201a <main+0x1b86>
    1a86: a6 1b        	ldx	$1b                     ; 0x201b <main+0x1b87>
    1a88: e4 1a        	cpx	$1a                     ; 0x201a <main+0x1b86>
    1a8a: f0 03        	beq	$1a8f <main+0x15fb>
    1a8c: 4c be 11     	jmp	$11be <main+0xd2a>
    1a8f: a0 03        	ldy	#$3
    1a91: b1 18        	lda	($18),y                 ; 0x2018 <main+0x1b84>
    1a93: c9 41        	cmp	#$41
    1a95: 90 06        	bcc	$1a9d <main+0x1609>
    1a97: c9 5b        	cmp	#$5b
    1a99: b0 02        	bcs	$1a9d <main+0x1609>
    1a9b: 09 20        	ora	#$20
    1a9d: 85 19        	sta	$19                     ; 0x2019 <main+0x1b85>
    1a9f: ad 26 a3     	lda	$a326                   ; 0xa326 <fpr+0xd34>
    1aa2: c9 41        	cmp	#$41
    1aa4: 90 06        	bcc	$1aac <main+0x1618>
    1aa6: c9 5b        	cmp	#$5b
    1aa8: b0 02        	bcs	$1aac <main+0x1618>
    1aaa: 09 20        	ora	#$20
    1aac: 85 18        	sta	$18                     ; 0x2018 <main+0x1b84>
    1aae: a6 19        	ldx	$19                     ; 0x2019 <main+0x1b85>
    1ab0: e4 18        	cpx	$18                     ; 0x2018 <main+0x1b84>
    1ab2: f0 03        	beq	$1ab7 <main+0x1623>
    1ab4: 4c be 11     	jmp	$11be <main+0xd2a>
    1ab7: a0 35        	ldy	#$35
    1ab9: b1 10        	lda	($10),y                 ; 0x2010 <main+0x1b7c>
    1abb: 4a           	lsr
    1abc: 48           	pha
    1abd: 88           	dey
    1abe: b1 10        	lda	($10),y                 ; 0x2010 <main+0x1b7c>
    1ac0: 85 12        	sta	$12                     ; 0x2012 <main+0x1b7e>
    1ac2: 68           	pla
    1ac3: 66 12        	ror	$12                     ; 0x2012 <main+0x1b7e>
    1ac5: 64 13        	stz	$13                     ; 0x2013 <main+0x1b7f>
    1ac7: 66 13        	ror	$13                     ; 0x2013 <main+0x1b7f>
    1ac9: 4a           	lsr
    1aca: 66 12        	ror	$12                     ; 0x2012 <main+0x1b7e>
    1acc: 66 13        	ror	$13                     ; 0x2013 <main+0x1b7f>
    1ace: 4a           	lsr
    1acf: 66 12        	ror	$12                     ; 0x2012 <main+0x1b7e>
    1ad1: 66 13        	ror	$13                     ; 0x2013 <main+0x1b7f>
    1ad3: a9 34        	lda	#$34
    1ad5: 18           	clc
    1ad6: 65 13        	adc	$13                     ; 0x2013 <main+0x1b7f>
    1ad8: aa           	tax
    1ad9: a9 96        	lda	#$96
    1adb: 65 12        	adc	$12                     ; 0x2012 <main+0x1b7e>
    1add: 86 1a        	stx	$1a                     ; 0x201a <main+0x1b86>
    1adf: 86 18        	stx	$18                     ; 0x2018 <main+0x1b84>
    1ae1: 85 1b        	sta	$1b                     ; 0x201b <main+0x1b87>
    1ae3: 85 19        	sta	$19                     ; 0x2019 <main+0x1b85>
    1ae5: a0 02        	ldy	#$2
    1ae7: b1 14        	lda	($14),y                 ; 0x2014 <main+0x1b80>
    1ae9: aa           	tax
    1aea: b1 14        	lda	($14),y                 ; 0x2014 <main+0x1b80>
    1aec: 92 18        	sta	($18)                   ; 0x2018 <main+0x1b84>
    1aee: a5 14        	lda	$14                     ; 0x2014 <main+0x1b80>
    1af0: a0 2f        	ldy	#$2f
    1af2: 91 10        	sta	($10),y                 ; 0x2010 <main+0x1b7c>
    1af4: a5 15        	lda	$15                     ; 0x2015 <main+0x1b81>
    1af6: c8           	iny
    1af7: 91 10        	sta	($10),y                 ; 0x2010 <main+0x1b7c>
    1af9: 8a           	txa
    1afa: d0 03        	bne	$1aff <main+0x166b>
    1afc: 4c 1b 1f     	jmp	$1f1b <main+0x1a87>
    1aff: a0 03        	ldy	#$3
    1b01: b1 14        	lda	($14),y                 ; 0x2014 <main+0x1b80>
    1b03: aa           	tax
    1b04: b1 14        	lda	($14),y                 ; 0x2014 <main+0x1b80>
    1b06: 48           	pha
    1b07: a0 32        	ldy	#$32
    1b09: b1 10        	lda	($10),y                 ; 0x2010 <main+0x1b7c>
    1b0b: 85 12        	sta	$12                     ; 0x2012 <main+0x1b7e>
    1b0d: c8           	iny
    1b0e: b1 10        	lda	($10),y                 ; 0x2010 <main+0x1b7c>
    1b10: 85 13        	sta	$13                     ; 0x2013 <main+0x1b7f>
    1b12: 68           	pla
    1b13: 92 12        	sta	($12)                   ; 0x2012 <main+0x1b7e>
    1b15: 8a           	txa
    1b16: d0 03        	bne	$1b1b <main+0x1687>
    1b18: 4c 2d 1f     	jmp	$1f2d <main+0x1a99>
    1b1b: a0 04        	ldy	#$4
    1b1d: b1 14        	lda	($14),y                 ; 0x2014 <main+0x1b80>
    1b1f: aa           	tax
    1b20: b1 14        	lda	($14),y                 ; 0x2014 <main+0x1b80>
    1b22: a0 01        	ldy	#$1
    1b24: 91 12        	sta	($12),y                 ; 0x2012 <main+0x1b7e>
    1b26: 8a           	txa
    1b27: d0 03        	bne	$1b2c <main+0x1698>
    1b29: 4c 3f 1f     	jmp	$1f3f <main+0x1aab>
    1b2c: a0 05        	ldy	#$5
    1b2e: b1 14        	lda	($14),y                 ; 0x2014 <main+0x1b80>
    1b30: aa           	tax
    1b31: b1 14        	lda	($14),y                 ; 0x2014 <main+0x1b80>
    1b33: a0 02        	ldy	#$2
    1b35: 91 12        	sta	($12),y                 ; 0x2012 <main+0x1b7e>
    1b37: 8a           	txa
    1b38: d0 03        	bne	$1b3d <main+0x16a9>
    1b3a: 4c 51 1f     	jmp	$1f51 <main+0x1abd>
    1b3d: a0 06        	ldy	#$6
    1b3f: b1 14        	lda	($14),y                 ; 0x2014 <main+0x1b80>
    1b41: aa           	tax
    1b42: b1 14        	lda	($14),y                 ; 0x2014 <main+0x1b80>
    1b44: a0 03        	ldy	#$3
    1b46: 91 12        	sta	($12),y                 ; 0x2012 <main+0x1b7e>
    1b48: 8a           	txa
    1b49: d0 03        	bne	$1b4e <main+0x16ba>
    1b4b: 4c 63 1f     	jmp	$1f63 <main+0x1acf>
    1b4e: a0 07        	ldy	#$7
    1b50: b1 14        	lda	($14),y                 ; 0x2014 <main+0x1b80>
    1b52: aa           	tax
    1b53: b1 14        	lda	($14),y                 ; 0x2014 <main+0x1b80>
    1b55: a0 04        	ldy	#$4
    1b57: 91 12        	sta	($12),y                 ; 0x2012 <main+0x1b7e>
    1b59: 8a           	txa
    1b5a: d0 03        	bne	$1b5f <main+0x16cb>
    1b5c: 4c 75 1f     	jmp	$1f75 <main+0x1ae1>
    1b5f: a0 08        	ldy	#$8
    1b61: b1 14        	lda	($14),y                 ; 0x2014 <main+0x1b80>
    1b63: aa           	tax
    1b64: b1 14        	lda	($14),y                 ; 0x2014 <main+0x1b80>
    1b66: a0 05        	ldy	#$5
    1b68: 91 12        	sta	($12),y                 ; 0x2012 <main+0x1b7e>
    1b6a: a5 18        	lda	$18                     ; 0x2018 <main+0x1b84>
    1b6c: a0 2d        	ldy	#$2d
    1b6e: e0 00        	cpx	#$0
    1b70: d0 03        	bne	$1b75 <main+0x16e1>
    1b72: 4c 87 1f     	jmp	$1f87 <main+0x1af3>
    1b75: 91 10        	sta	($10),y                 ; 0x2010 <main+0x1b7c>
    1b77: a5 19        	lda	$19                     ; 0x2019 <main+0x1b85>
    1b79: a0 2e        	ldy	#$2e
    1b7b: 91 10        	sta	($10),y                 ; 0x2010 <main+0x1b7c>
    1b7d: a0 09        	ldy	#$9
    1b7f: b1 14        	lda	($14),y                 ; 0x2014 <main+0x1b80>
    1b81: aa           	tax
    1b82: b1 14        	lda	($14),y                 ; 0x2014 <main+0x1b80>
    1b84: a0 06        	ldy	#$6
    1b86: 91 12        	sta	($12),y                 ; 0x2012 <main+0x1b7e>
    1b88: 8a           	txa
    1b89: d0 03        	bne	$1b8e <main+0x16fa>
    1b8b: 4c 96 1f     	jmp	$1f96 <main+0x1b02>
    1b8e: a0 11        	ldy	#$11
    1b90: b1 10        	lda	($10),y                 ; 0x2010 <main+0x1b7c>
    1b92: 88           	dey
    1b93: b1 10        	lda	($10),y                 ; 0x2010 <main+0x1b7c>
    1b95: a0 0a        	ldy	#$a
    1b97: b1 14        	lda	($14),y                 ; 0x2014 <main+0x1b80>
    1b99: aa           	tax
    1b9a: b1 14        	lda	($14),y                 ; 0x2014 <main+0x1b80>
    1b9c: a0 07        	ldy	#$7
    1b9e: 91 12        	sta	($12),y                 ; 0x2012 <main+0x1b7e>
    1ba0: 8a           	txa
    1ba1: d0 03        	bne	$1ba6 <main+0x1712>
    1ba3: 4c 9d 1f     	jmp	$1f9d <main+0x1b09>
    1ba6: a0 0b        	ldy	#$b
    1ba8: b1 14        	lda	($14),y                 ; 0x2014 <main+0x1b80>
    1baa: aa           	tax
    1bab: b1 14        	lda	($14),y                 ; 0x2014 <main+0x1b80>
    1bad: 48           	pha
    1bae: a0 32        	ldy	#$32
    1bb0: b1 10        	lda	($10),y                 ; 0x2010 <main+0x1b7c>
    1bb2: 85 12        	sta	$12                     ; 0x2012 <main+0x1b7e>
    1bb4: c8           	iny
    1bb5: b1 10        	lda	($10),y                 ; 0x2010 <main+0x1b7c>
    1bb7: 85 13        	sta	$13                     ; 0x2013 <main+0x1b7f>
    1bb9: 68           	pla
    1bba: a0 08        	ldy	#$8
    1bbc: 91 12        	sta	($12),y                 ; 0x2012 <main+0x1b7e>
    1bbe: 8a           	txa
    1bbf: d0 03        	bne	$1bc4 <main+0x1730>
    1bc1: 4c a4 1f     	jmp	$1fa4 <main+0x1b10>
    1bc4: a0 2f        	ldy	#$2f
    1bc6: b1 10        	lda	($10),y                 ; 0x2010 <main+0x1b7c>
    1bc8: 85 14        	sta	$14                     ; 0x2014 <main+0x1b80>
    1bca: c8           	iny
    1bcb: b1 10        	lda	($10),y                 ; 0x2010 <main+0x1b7c>
    1bcd: 85 15        	sta	$15                     ; 0x2015 <main+0x1b81>
    1bcf: a0 0c        	ldy	#$c
    1bd1: b1 14        	lda	($14),y                 ; 0x2014 <main+0x1b80>
    1bd3: aa           	tax
    1bd4: b1 14        	lda	($14),y                 ; 0x2014 <main+0x1b80>
    1bd6: 48           	pha
    1bd7: a0 32        	ldy	#$32
    1bd9: b1 10        	lda	($10),y                 ; 0x2010 <main+0x1b7c>
    1bdb: 85 12        	sta	$12                     ; 0x2012 <main+0x1b7e>
    1bdd: c8           	iny
    1bde: b1 10        	lda	($10),y                 ; 0x2010 <main+0x1b7c>
    1be0: 85 13        	sta	$13                     ; 0x2013 <main+0x1b7f>
    1be2: 68           	pla
    1be3: a0 09        	ldy	#$9
    1be5: 91 12        	sta	($12),y                 ; 0x2012 <main+0x1b7e>
    1be7: 8a           	txa
    1be8: d0 03        	bne	$1bed <main+0x1759>
    1bea: 4c ab 1f     	jmp	$1fab <main+0x1b17>
    1bed: a0 2f        	ldy	#$2f
    1bef: b1 10        	lda	($10),y                 ; 0x2010 <main+0x1b7c>
    1bf1: 85 14        	sta	$14                     ; 0x2014 <main+0x1b80>
    1bf3: c8           	iny
    1bf4: b1 10        	lda	($10),y                 ; 0x2010 <main+0x1b7c>
    1bf6: 85 15        	sta	$15                     ; 0x2015 <main+0x1b81>
    1bf8: a0 0d        	ldy	#$d
    1bfa: b1 14        	lda	($14),y                 ; 0x2014 <main+0x1b80>
    1bfc: aa           	tax
    1bfd: b1 14        	lda	($14),y                 ; 0x2014 <main+0x1b80>
    1bff: 48           	pha
    1c00: a0 32        	ldy	#$32
    1c02: b1 10        	lda	($10),y                 ; 0x2010 <main+0x1b7c>
    1c04: 85 12        	sta	$12                     ; 0x2012 <main+0x1b7e>
    1c06: c8           	iny
    1c07: b1 10        	lda	($10),y                 ; 0x2010 <main+0x1b7c>
    1c09: 85 13        	sta	$13                     ; 0x2013 <main+0x1b7f>
    1c0b: 68           	pla
    1c0c: a0 0a        	ldy	#$a
    1c0e: 91 12        	sta	($12),y                 ; 0x2012 <main+0x1b7e>
    1c10: 8a           	txa
    1c11: d0 03        	bne	$1c16 <main+0x1782>
    1c13: 4c b2 1f     	jmp	$1fb2 <main+0x1b1e>
    1c16: a0 2f        	ldy	#$2f
    1c18: b1 10        	lda	($10),y                 ; 0x2010 <main+0x1b7c>
    1c1a: 85 14        	sta	$14                     ; 0x2014 <main+0x1b80>
    1c1c: c8           	iny
    1c1d: b1 10        	lda	($10),y                 ; 0x2010 <main+0x1b7c>
    1c1f: 85 15        	sta	$15                     ; 0x2015 <main+0x1b81>
    1c21: a0 0e        	ldy	#$e
    1c23: b1 14        	lda	($14),y                 ; 0x2014 <main+0x1b80>
    1c25: aa           	tax
    1c26: b1 14        	lda	($14),y                 ; 0x2014 <main+0x1b80>
    1c28: 48           	pha
    1c29: a0 32        	ldy	#$32
    1c2b: b1 10        	lda	($10),y                 ; 0x2010 <main+0x1b7c>
    1c2d: 85 12        	sta	$12                     ; 0x2012 <main+0x1b7e>
    1c2f: c8           	iny
    1c30: b1 10        	lda	($10),y                 ; 0x2010 <main+0x1b7c>
    1c32: 85 13        	sta	$13                     ; 0x2013 <main+0x1b7f>
    1c34: 68           	pla
    1c35: a0 0b        	ldy	#$b
    1c37: 91 12        	sta	($12),y                 ; 0x2012 <main+0x1b7e>
    1c39: 8a           	txa
    1c3a: d0 03        	bne	$1c3f <main+0x17ab>
    1c3c: 4c b9 1f     	jmp	$1fb9 <main+0x1b25>
    1c3f: a0 2f        	ldy	#$2f
    1c41: b1 10        	lda	($10),y                 ; 0x2010 <main+0x1b7c>
    1c43: 85 14        	sta	$14                     ; 0x2014 <main+0x1b80>
    1c45: c8           	iny
    1c46: b1 10        	lda	($10),y                 ; 0x2010 <main+0x1b7c>
    1c48: 85 15        	sta	$15                     ; 0x2015 <main+0x1b81>
    1c4a: a0 0f        	ldy	#$f
    1c4c: b1 14        	lda	($14),y                 ; 0x2014 <main+0x1b80>
    1c4e: aa           	tax
    1c4f: b1 14        	lda	($14),y                 ; 0x2014 <main+0x1b80>
    1c51: 48           	pha
    1c52: a0 32        	ldy	#$32
    1c54: b1 10        	lda	($10),y                 ; 0x2010 <main+0x1b7c>
    1c56: 85 12        	sta	$12                     ; 0x2012 <main+0x1b7e>
    1c58: c8           	iny
    1c59: b1 10        	lda	($10),y                 ; 0x2010 <main+0x1b7c>
    1c5b: 85 13        	sta	$13                     ; 0x2013 <main+0x1b7f>
    1c5d: 68           	pla
    1c5e: a0 0c        	ldy	#$c
    1c60: 91 12        	sta	($12),y                 ; 0x2012 <main+0x1b7e>
    1c62: 8a           	txa
    1c63: d0 03        	bne	$1c68 <main+0x17d4>
    1c65: 4c c0 1f     	jmp	$1fc0 <main+0x1b2c>
    1c68: a0 2f        	ldy	#$2f
    1c6a: b1 10        	lda	($10),y                 ; 0x2010 <main+0x1b7c>
    1c6c: 85 14        	sta	$14                     ; 0x2014 <main+0x1b80>
    1c6e: c8           	iny
    1c6f: b1 10        	lda	($10),y                 ; 0x2010 <main+0x1b7c>
    1c71: 85 15        	sta	$15                     ; 0x2015 <main+0x1b81>
    1c73: a0 10        	ldy	#$10
    1c75: b1 14        	lda	($14),y                 ; 0x2014 <main+0x1b80>
    1c77: aa           	tax
    1c78: b1 14        	lda	($14),y                 ; 0x2014 <main+0x1b80>
    1c7a: 48           	pha
    1c7b: a0 32        	ldy	#$32
    1c7d: b1 10        	lda	($10),y                 ; 0x2010 <main+0x1b7c>
    1c7f: 85 12        	sta	$12                     ; 0x2012 <main+0x1b7e>
    1c81: c8           	iny
    1c82: b1 10        	lda	($10),y                 ; 0x2010 <main+0x1b7c>
    1c84: 85 13        	sta	$13                     ; 0x2013 <main+0x1b7f>
    1c86: 68           	pla
    1c87: a0 0d        	ldy	#$d
    1c89: 91 12        	sta	($12),y                 ; 0x2012 <main+0x1b7e>
    1c8b: 8a           	txa
    1c8c: d0 03        	bne	$1c91 <main+0x17fd>
    1c8e: 4c c7 1f     	jmp	$1fc7 <main+0x1b33>
    1c91: a0 2f        	ldy	#$2f
    1c93: b1 10        	lda	($10),y                 ; 0x2010 <main+0x1b7c>
    1c95: 85 14        	sta	$14                     ; 0x2014 <main+0x1b80>
    1c97: c8           	iny
    1c98: b1 10        	lda	($10),y                 ; 0x2010 <main+0x1b7c>
    1c9a: 85 15        	sta	$15                     ; 0x2015 <main+0x1b81>
    1c9c: a0 11        	ldy	#$11
    1c9e: b1 14        	lda	($14),y                 ; 0x2014 <main+0x1b80>
    1ca0: aa           	tax
    1ca1: b1 14        	lda	($14),y                 ; 0x2014 <main+0x1b80>
    1ca3: 48           	pha
    1ca4: a0 32        	ldy	#$32
    1ca6: b1 10        	lda	($10),y                 ; 0x2010 <main+0x1b7c>
    1ca8: 85 12        	sta	$12                     ; 0x2012 <main+0x1b7e>
    1caa: c8           	iny
    1cab: b1 10        	lda	($10),y                 ; 0x2010 <main+0x1b7c>
    1cad: 85 13        	sta	$13                     ; 0x2013 <main+0x1b7f>
    1caf: 68           	pla
    1cb0: a0 0e        	ldy	#$e
    1cb2: 91 12        	sta	($12),y                 ; 0x2012 <main+0x1b7e>
    1cb4: 8a           	txa
    1cb5: d0 03        	bne	$1cba <main+0x1826>
    1cb7: 4c ce 1f     	jmp	$1fce <main+0x1b3a>
    1cba: a0 2f        	ldy	#$2f
    1cbc: b1 10        	lda	($10),y                 ; 0x2010 <main+0x1b7c>
    1cbe: 85 14        	sta	$14                     ; 0x2014 <main+0x1b80>
    1cc0: c8           	iny
    1cc1: b1 10        	lda	($10),y                 ; 0x2010 <main+0x1b7c>
    1cc3: 85 15        	sta	$15                     ; 0x2015 <main+0x1b81>
    1cc5: a0 12        	ldy	#$12
    1cc7: b1 14        	lda	($14),y                 ; 0x2014 <main+0x1b80>
    1cc9: aa           	tax
    1cca: b1 14        	lda	($14),y                 ; 0x2014 <main+0x1b80>
    1ccc: 48           	pha
    1ccd: a0 32        	ldy	#$32
    1ccf: b1 10        	lda	($10),y                 ; 0x2010 <main+0x1b7c>
    1cd1: 85 12        	sta	$12                     ; 0x2012 <main+0x1b7e>
    1cd3: c8           	iny
    1cd4: b1 10        	lda	($10),y                 ; 0x2010 <main+0x1b7c>
    1cd6: 85 13        	sta	$13                     ; 0x2013 <main+0x1b7f>
    1cd8: 68           	pla
    1cd9: a0 0f        	ldy	#$f
    1cdb: 91 12        	sta	($12),y                 ; 0x2012 <main+0x1b7e>
    1cdd: 8a           	txa
    1cde: d0 03        	bne	$1ce3 <main+0x184f>
    1ce0: 4c d4 1f     	jmp	$1fd4 <main+0x1b40>
    1ce3: a0 2f        	ldy	#$2f
    1ce5: b1 10        	lda	($10),y                 ; 0x2010 <main+0x1b7c>
    1ce7: 85 14        	sta	$14                     ; 0x2014 <main+0x1b80>
    1ce9: c8           	iny
    1cea: b1 10        	lda	($10),y                 ; 0x2010 <main+0x1b7c>
    1cec: 85 15        	sta	$15                     ; 0x2015 <main+0x1b81>
    1cee: a0 13        	ldy	#$13
    1cf0: b1 14        	lda	($14),y                 ; 0x2014 <main+0x1b80>
    1cf2: aa           	tax
    1cf3: b1 14        	lda	($14),y                 ; 0x2014 <main+0x1b80>
    1cf5: 48           	pha
    1cf6: a0 32        	ldy	#$32
    1cf8: b1 10        	lda	($10),y                 ; 0x2010 <main+0x1b7c>
    1cfa: 85 12        	sta	$12                     ; 0x2012 <main+0x1b7e>
    1cfc: c8           	iny
    1cfd: b1 10        	lda	($10),y                 ; 0x2010 <main+0x1b7c>
    1cff: 85 13        	sta	$13                     ; 0x2013 <main+0x1b7f>
    1d01: 68           	pla
    1d02: a0 10        	ldy	#$10
    1d04: 91 12        	sta	($12),y                 ; 0x2012 <main+0x1b7e>
    1d06: 8a           	txa
    1d07: d0 03        	bne	$1d0c <main+0x1878>
    1d09: 4c da 1f     	jmp	$1fda <main+0x1b46>
    1d0c: a0 2f        	ldy	#$2f
    1d0e: b1 10        	lda	($10),y                 ; 0x2010 <main+0x1b7c>
    1d10: 85 14        	sta	$14                     ; 0x2014 <main+0x1b80>
    1d12: c8           	iny
    1d13: b1 10        	lda	($10),y                 ; 0x2010 <main+0x1b7c>
    1d15: 85 15        	sta	$15                     ; 0x2015 <main+0x1b81>
    1d17: a0 14        	ldy	#$14
    1d19: b1 14        	lda	($14),y                 ; 0x2014 <main+0x1b80>
    1d1b: aa           	tax
    1d1c: b1 14        	lda	($14),y                 ; 0x2014 <main+0x1b80>
    1d1e: 48           	pha
    1d1f: a0 32        	ldy	#$32
    1d21: b1 10        	lda	($10),y                 ; 0x2010 <main+0x1b7c>
    1d23: 85 12        	sta	$12                     ; 0x2012 <main+0x1b7e>
    1d25: c8           	iny
    1d26: b1 10        	lda	($10),y                 ; 0x2010 <main+0x1b7c>
    1d28: 85 13        	sta	$13                     ; 0x2013 <main+0x1b7f>
    1d2a: 68           	pla
    1d2b: a0 11        	ldy	#$11
    1d2d: 91 12        	sta	($12),y                 ; 0x2012 <main+0x1b7e>
    1d2f: 8a           	txa
    1d30: d0 03        	bne	$1d35 <main+0x18a1>
    1d32: 4c e0 1f     	jmp	$1fe0 <main+0x1b4c>
    1d35: a0 2f        	ldy	#$2f
    1d37: b1 10        	lda	($10),y                 ; 0x2010 <main+0x1b7c>
    1d39: 85 14        	sta	$14                     ; 0x2014 <main+0x1b80>
    1d3b: c8           	iny
    1d3c: b1 10        	lda	($10),y                 ; 0x2010 <main+0x1b7c>
    1d3e: 85 15        	sta	$15                     ; 0x2015 <main+0x1b81>
    1d40: a0 15        	ldy	#$15
    1d42: b1 14        	lda	($14),y                 ; 0x2014 <main+0x1b80>
    1d44: aa           	tax
    1d45: b1 14        	lda	($14),y                 ; 0x2014 <main+0x1b80>
    1d47: 48           	pha
    1d48: a0 32        	ldy	#$32
    1d4a: b1 10        	lda	($10),y                 ; 0x2010 <main+0x1b7c>
    1d4c: 85 12        	sta	$12                     ; 0x2012 <main+0x1b7e>
    1d4e: c8           	iny
    1d4f: b1 10        	lda	($10),y                 ; 0x2010 <main+0x1b7c>
    1d51: 85 13        	sta	$13                     ; 0x2013 <main+0x1b7f>
    1d53: 68           	pla
    1d54: a0 12        	ldy	#$12
    1d56: 91 12        	sta	($12),y                 ; 0x2012 <main+0x1b7e>
    1d58: 8a           	txa
    1d59: d0 03        	bne	$1d5e <main+0x18ca>
    1d5b: 4c e6 1f     	jmp	$1fe6 <main+0x1b52>
    1d5e: a0 2f        	ldy	#$2f
    1d60: b1 10        	lda	($10),y                 ; 0x2010 <main+0x1b7c>
    1d62: 85 14        	sta	$14                     ; 0x2014 <main+0x1b80>
    1d64: c8           	iny
    1d65: b1 10        	lda	($10),y                 ; 0x2010 <main+0x1b7c>
    1d67: 85 15        	sta	$15                     ; 0x2015 <main+0x1b81>
    1d69: a0 16        	ldy	#$16
    1d6b: b1 14        	lda	($14),y                 ; 0x2014 <main+0x1b80>
    1d6d: aa           	tax
    1d6e: b1 14        	lda	($14),y                 ; 0x2014 <main+0x1b80>
    1d70: 48           	pha
    1d71: a0 32        	ldy	#$32
    1d73: b1 10        	lda	($10),y                 ; 0x2010 <main+0x1b7c>
    1d75: 85 12        	sta	$12                     ; 0x2012 <main+0x1b7e>
    1d77: c8           	iny
    1d78: b1 10        	lda	($10),y                 ; 0x2010 <main+0x1b7c>
    1d7a: 85 13        	sta	$13                     ; 0x2013 <main+0x1b7f>
    1d7c: 68           	pla
    1d7d: a0 13        	ldy	#$13
    1d7f: 91 12        	sta	($12),y                 ; 0x2012 <main+0x1b7e>
    1d81: 8a           	txa
    1d82: d0 03        	bne	$1d87 <main+0x18f3>
    1d84: 4c ec 1f     	jmp	$1fec <main+0x1b58>
    1d87: a0 2f        	ldy	#$2f
    1d89: b1 10        	lda	($10),y                 ; 0x2010 <main+0x1b7c>
    1d8b: 85 14        	sta	$14                     ; 0x2014 <main+0x1b80>
    1d8d: c8           	iny
    1d8e: b1 10        	lda	($10),y                 ; 0x2010 <main+0x1b7c>
    1d90: 85 15        	sta	$15                     ; 0x2015 <main+0x1b81>
    1d92: a0 17        	ldy	#$17
    1d94: b1 14        	lda	($14),y                 ; 0x2014 <main+0x1b80>
    1d96: aa           	tax
    1d97: b1 14        	lda	($14),y                 ; 0x2014 <main+0x1b80>
    1d99: 48           	pha
    1d9a: a0 32        	ldy	#$32
    1d9c: b1 10        	lda	($10),y                 ; 0x2010 <main+0x1b7c>
    1d9e: 85 12        	sta	$12                     ; 0x2012 <main+0x1b7e>
    1da0: c8           	iny
    1da1: b1 10        	lda	($10),y                 ; 0x2010 <main+0x1b7c>
    1da3: 85 13        	sta	$13                     ; 0x2013 <main+0x1b7f>
    1da5: 68           	pla
    1da6: a0 14        	ldy	#$14
    1da8: 91 12        	sta	($12),y                 ; 0x2012 <main+0x1b7e>
    1daa: 8a           	txa
    1dab: d0 03        	bne	$1db0 <main+0x191c>
    1dad: 4c f2 1f     	jmp	$1ff2 <main+0x1b5e>
    1db0: a0 2f        	ldy	#$2f
    1db2: b1 10        	lda	($10),y                 ; 0x2010 <main+0x1b7c>
    1db4: 85 14        	sta	$14                     ; 0x2014 <main+0x1b80>
    1db6: c8           	iny
    1db7: b1 10        	lda	($10),y                 ; 0x2010 <main+0x1b7c>
    1db9: 85 15        	sta	$15                     ; 0x2015 <main+0x1b81>
    1dbb: a0 18        	ldy	#$18
    1dbd: b1 14        	lda	($14),y                 ; 0x2014 <main+0x1b80>
    1dbf: aa           	tax
    1dc0: b1 14        	lda	($14),y                 ; 0x2014 <main+0x1b80>
    1dc2: 48           	pha
    1dc3: a0 32        	ldy	#$32
    1dc5: b1 10        	lda	($10),y                 ; 0x2010 <main+0x1b7c>
    1dc7: 85 12        	sta	$12                     ; 0x2012 <main+0x1b7e>
    1dc9: c8           	iny
    1dca: b1 10        	lda	($10),y                 ; 0x2010 <main+0x1b7c>
    1dcc: 85 13        	sta	$13                     ; 0x2013 <main+0x1b7f>
    1dce: 68           	pla
    1dcf: a0 15        	ldy	#$15
    1dd1: 91 12        	sta	($12),y                 ; 0x2012 <main+0x1b7e>
    1dd3: 8a           	txa
    1dd4: d0 03        	bne	$1dd9 <main+0x1945>
    1dd6: 4c f8 1f     	jmp	$1ff8 <main+0x1b64>
    1dd9: a0 2f        	ldy	#$2f
    1ddb: b1 10        	lda	($10),y                 ; 0x2010 <main+0x1b7c>
    1ddd: 85 14        	sta	$14                     ; 0x2014 <main+0x1b80>
    1ddf: c8           	iny
    1de0: b1 10        	lda	($10),y                 ; 0x2010 <main+0x1b7c>
    1de2: 85 15        	sta	$15                     ; 0x2015 <main+0x1b81>
    1de4: a0 19        	ldy	#$19
    1de6: b1 14        	lda	($14),y                 ; 0x2014 <main+0x1b80>
    1de8: aa           	tax
    1de9: b1 14        	lda	($14),y                 ; 0x2014 <main+0x1b80>
    1deb: 48           	pha
    1dec: a0 32        	ldy	#$32
    1dee: b1 10        	lda	($10),y                 ; 0x2010 <main+0x1b7c>
    1df0: 85 12        	sta	$12                     ; 0x2012 <main+0x1b7e>
    1df2: c8           	iny
    1df3: b1 10        	lda	($10),y                 ; 0x2010 <main+0x1b7c>
    1df5: 85 13        	sta	$13                     ; 0x2013 <main+0x1b7f>
    1df7: 68           	pla
    1df8: a0 16        	ldy	#$16
    1dfa: 91 12        	sta	($12),y                 ; 0x2012 <main+0x1b7e>
    1dfc: 8a           	txa
    1dfd: d0 03        	bne	$1e02 <main+0x196e>
    1dff: 4c fe 1f     	jmp	$1ffe <main+0x1b6a>
    1e02: a0 2f        	ldy	#$2f
    1e04: b1 10        	lda	($10),y                 ; 0x2010 <main+0x1b7c>
    1e06: 85 14        	sta	$14                     ; 0x2014 <main+0x1b80>
    1e08: c8           	iny
    1e09: b1 10        	lda	($10),y                 ; 0x2010 <main+0x1b7c>
    1e0b: 85 15        	sta	$15                     ; 0x2015 <main+0x1b81>
    1e0d: a0 1a        	ldy	#$1a
    1e0f: b1 14        	lda	($14),y                 ; 0x2014 <main+0x1b80>
    1e11: aa           	tax
    1e12: b1 14        	lda	($14),y                 ; 0x2014 <main+0x1b80>
    1e14: 48           	pha
    1e15: a0 32        	ldy	#$32
    1e17: b1 10        	lda	($10),y                 ; 0x2010 <main+0x1b7c>
    1e19: 85 12        	sta	$12                     ; 0x2012 <main+0x1b7e>
    1e1b: c8           	iny
    1e1c: b1 10        	lda	($10),y                 ; 0x2010 <main+0x1b7c>
    1e1e: 85 13        	sta	$13                     ; 0x2013 <main+0x1b7f>
    1e20: 68           	pla
    1e21: a0 17        	ldy	#$17
    1e23: 91 12        	sta	($12),y                 ; 0x2012 <main+0x1b7e>
    1e25: 8a           	txa
    1e26: d0 03        	bne	$1e2b <main+0x1997>
    1e28: 4c 04 20     	jmp	$2004 <main+0x1b70>
    1e2b: a0 2f        	ldy	#$2f
    1e2d: b1 10        	lda	($10),y                 ; 0x2010 <main+0x1b7c>
    1e2f: 85 14        	sta	$14                     ; 0x2014 <main+0x1b80>
    1e31: c8           	iny
    1e32: b1 10        	lda	($10),y                 ; 0x2010 <main+0x1b7c>
    1e34: 85 15        	sta	$15                     ; 0x2015 <main+0x1b81>
    1e36: a0 1b        	ldy	#$1b
    1e38: b1 14        	lda	($14),y                 ; 0x2014 <main+0x1b80>
    1e3a: aa           	tax
    1e3b: b1 14        	lda	($14),y                 ; 0x2014 <main+0x1b80>
    1e3d: 48           	pha
    1e3e: a0 32        	ldy	#$32
    1e40: b1 10        	lda	($10),y                 ; 0x2010 <main+0x1b7c>
    1e42: 85 12        	sta	$12                     ; 0x2012 <main+0x1b7e>
    1e44: c8           	iny
    1e45: b1 10        	lda	($10),y                 ; 0x2010 <main+0x1b7c>
    1e47: 85 13        	sta	$13                     ; 0x2013 <main+0x1b7f>
    1e49: 68           	pla
    1e4a: a0 18        	ldy	#$18
    1e4c: 91 12        	sta	($12),y                 ; 0x2012 <main+0x1b7e>
    1e4e: 8a           	txa
    1e4f: d0 03        	bne	$1e54 <main+0x19c0>
    1e51: 4c 0a 20     	jmp	$200a <main+0x1b76>
    1e54: a0 2f        	ldy	#$2f
    1e56: b1 10        	lda	($10),y                 ; 0x2010 <main+0x1b7c>
    1e58: 85 14        	sta	$14                     ; 0x2014 <main+0x1b80>
    1e5a: c8           	iny
    1e5b: b1 10        	lda	($10),y                 ; 0x2010 <main+0x1b7c>
    1e5d: 85 15        	sta	$15                     ; 0x2015 <main+0x1b81>
    1e5f: a0 1c        	ldy	#$1c
    1e61: b1 14        	lda	($14),y                 ; 0x2014 <main+0x1b80>
    1e63: aa           	tax
    1e64: b1 14        	lda	($14),y                 ; 0x2014 <main+0x1b80>
    1e66: 48           	pha
    1e67: a0 32        	ldy	#$32
    1e69: b1 10        	lda	($10),y                 ; 0x2010 <main+0x1b7c>
    1e6b: 85 12        	sta	$12                     ; 0x2012 <main+0x1b7e>
    1e6d: c8           	iny
    1e6e: b1 10        	lda	($10),y                 ; 0x2010 <main+0x1b7c>
    1e70: 85 13        	sta	$13                     ; 0x2013 <main+0x1b7f>
    1e72: 68           	pla
    1e73: a0 19        	ldy	#$19
    1e75: 91 12        	sta	($12),y                 ; 0x2012 <main+0x1b7e>
    1e77: 8a           	txa
    1e78: d0 03        	bne	$1e7d <main+0x19e9>
    1e7a: 4c 10 20     	jmp	$2010 <main+0x1b7c>
    1e7d: a0 2f        	ldy	#$2f
    1e7f: b1 10        	lda	($10),y                 ; 0x2010 <main+0x1b7c>
    1e81: 85 14        	sta	$14                     ; 0x2014 <main+0x1b80>
    1e83: c8           	iny
    1e84: b1 10        	lda	($10),y                 ; 0x2010 <main+0x1b7c>
    1e86: 85 15        	sta	$15                     ; 0x2015 <main+0x1b81>
    1e88: a0 1d        	ldy	#$1d
    1e8a: b1 14        	lda	($14),y                 ; 0x2014 <main+0x1b80>
    1e8c: aa           	tax
    1e8d: b1 14        	lda	($14),y                 ; 0x2014 <main+0x1b80>
    1e8f: 48           	pha
    1e90: a0 32        	ldy	#$32
    1e92: b1 10        	lda	($10),y                 ; 0x2010 <main+0x1b7c>
    1e94: 85 12        	sta	$12                     ; 0x2012 <main+0x1b7e>
    1e96: c8           	iny
    1e97: b1 10        	lda	($10),y                 ; 0x2010 <main+0x1b7c>
    1e99: 85 13        	sta	$13                     ; 0x2013 <main+0x1b7f>
    1e9b: 68           	pla
    1e9c: a0 1a        	ldy	#$1a
    1e9e: 91 12        	sta	($12),y                 ; 0x2012 <main+0x1b7e>
    1ea0: 8a           	txa
    1ea1: d0 03        	bne	$1ea6 <main+0x1a12>
    1ea3: 4c 16 20     	jmp	$2016 <main+0x1b82>
    1ea6: a0 2f        	ldy	#$2f
    1ea8: b1 10        	lda	($10),y                 ; 0x2010 <main+0x1b7c>
    1eaa: 85 14        	sta	$14                     ; 0x2014 <main+0x1b80>
    1eac: c8           	iny
    1ead: b1 10        	lda	($10),y                 ; 0x2010 <main+0x1b7c>
    1eaf: 85 15        	sta	$15                     ; 0x2015 <main+0x1b81>
    1eb1: a0 1e        	ldy	#$1e
    1eb3: b1 14        	lda	($14),y                 ; 0x2014 <main+0x1b80>
    1eb5: aa           	tax
    1eb6: b1 14        	lda	($14),y                 ; 0x2014 <main+0x1b80>
    1eb8: 48           	pha
    1eb9: a0 32        	ldy	#$32
    1ebb: b1 10        	lda	($10),y                 ; 0x2010 <main+0x1b7c>
    1ebd: 85 12        	sta	$12                     ; 0x2012 <main+0x1b7e>
    1ebf: c8           	iny
    1ec0: b1 10        	lda	($10),y                 ; 0x2010 <main+0x1b7c>
    1ec2: 85 13        	sta	$13                     ; 0x2013 <main+0x1b7f>
    1ec4: 68           	pla
    1ec5: a0 1b        	ldy	#$1b
    1ec7: 91 12        	sta	($12),y                 ; 0x2012 <main+0x1b7e>
    1ec9: 8a           	txa
    1eca: d0 03        	bne	$1ecf <main+0x1a3b>
    1ecc: 4c 1c 20     	jmp	$201c <main+0x1b88>
    1ecf: a0 2f        	ldy	#$2f
    1ed1: b1 10        	lda	($10),y                 ; 0x2010 <main+0x1b7c>
    1ed3: 85 14        	sta	$14                     ; 0x2014 <main+0x1b80>
    1ed5: c8           	iny
    1ed6: b1 10        	lda	($10),y                 ; 0x2010 <main+0x1b7c>
    1ed8: 85 15        	sta	$15                     ; 0x2015 <main+0x1b81>
    1eda: a0 1f        	ldy	#$1f
    1edc: b1 14        	lda	($14),y                 ; 0x2014 <main+0x1b80>
    1ede: aa           	tax
    1edf: b1 14        	lda	($14),y                 ; 0x2014 <main+0x1b80>
    1ee1: 48           	pha
    1ee2: a0 32        	ldy	#$32
    1ee4: b1 10        	lda	($10),y                 ; 0x2010 <main+0x1b7c>
    1ee6: 85 12        	sta	$12                     ; 0x2012 <main+0x1b7e>
    1ee8: c8           	iny
    1ee9: b1 10        	lda	($10),y                 ; 0x2010 <main+0x1b7c>
    1eeb: 85 13        	sta	$13                     ; 0x2013 <main+0x1b7f>
    1eed: 68           	pla
    1eee: a0 1c        	ldy	#$1c
    1ef0: 91 12        	sta	($12),y                 ; 0x2012 <main+0x1b7e>
    1ef2: 8a           	txa
    1ef3: d0 03        	bne	$1ef8 <main+0x1a64>
    1ef5: 4c 22 20     	jmp	$2022 <main+0x1b8e>
    1ef8: a0 2f        	ldy	#$2f
    1efa: b1 10        	lda	($10),y                 ; 0x2010 <main+0x1b7c>
    1efc: 85 12        	sta	$12                     ; 0x2012 <main+0x1b7e>
    1efe: c8           	iny
    1eff: b1 10        	lda	($10),y                 ; 0x2010 <main+0x1b7c>
    1f01: 85 13        	sta	$13                     ; 0x2013 <main+0x1b7f>
    1f03: a0 20        	ldy	#$20
    1f05: b1 12        	lda	($12),y                 ; 0x2012 <main+0x1b7e>
    1f07: 48           	pha
    1f08: a0 32        	ldy	#$32
    1f0a: b1 10        	lda	($10),y                 ; 0x2010 <main+0x1b7c>
    1f0c: 85 12        	sta	$12                     ; 0x2012 <main+0x1b7e>
    1f0e: c8           	iny
    1f0f: b1 10        	lda	($10),y                 ; 0x2010 <main+0x1b7c>
    1f11: 85 13        	sta	$13                     ; 0x2013 <main+0x1b7f>
    1f13: 68           	pla
    1f14: a0 1d        	ldy	#$1d
    1f16: 91 12        	sta	($12),y                 ; 0x2012 <main+0x1b7e>
    1f18: 4c 42 20     	jmp	$2042 <main+0x1bae>
    1f1b: a5 18        	lda	$18                     ; 0x2018 <main+0x1b84>
    1f1d: a0 2d        	ldy	#$2d
    1f1f: 91 10        	sta	($10),y                 ; 0x2010 <main+0x1b7c>
    1f21: a5 19        	lda	$19                     ; 0x2019 <main+0x1b85>
    1f23: c8           	iny
    1f24: 91 10        	sta	($10),y                 ; 0x2010 <main+0x1b7c>
    1f26: 64 12        	stz	$12                     ; 0x2012 <main+0x1b7e>
    1f28: a2 1e        	ldx	#$1e
    1f2a: 4c 28 20     	jmp	$2028 <main+0x1b94>
    1f2d: a5 18        	lda	$18                     ; 0x2018 <main+0x1b84>
    1f2f: a0 2d        	ldy	#$2d
    1f31: 91 10        	sta	($10),y                 ; 0x2010 <main+0x1b7c>
    1f33: a5 19        	lda	$19                     ; 0x2019 <main+0x1b85>
    1f35: c8           	iny
    1f36: 91 10        	sta	($10),y                 ; 0x2010 <main+0x1b7c>
    1f38: a2 1d        	ldx	#$1d
    1f3a: a0 01        	ldy	#$1
    1f3c: 4c 26 20     	jmp	$2026 <main+0x1b92>
    1f3f: a5 18        	lda	$18                     ; 0x2018 <main+0x1b84>
    1f41: a0 2d        	ldy	#$2d
    1f43: 91 10        	sta	($10),y                 ; 0x2010 <main+0x1b7c>
    1f45: a5 19        	lda	$19                     ; 0x2019 <main+0x1b85>
    1f47: c8           	iny
    1f48: 91 10        	sta	($10),y                 ; 0x2010 <main+0x1b7c>
    1f4a: a2 1c        	ldx	#$1c
    1f4c: a0 02        	ldy	#$2
    1f4e: 4c 26 20     	jmp	$2026 <main+0x1b92>
    1f51: a5 18        	lda	$18                     ; 0x2018 <main+0x1b84>
    1f53: a0 2d        	ldy	#$2d
    1f55: 91 10        	sta	($10),y                 ; 0x2010 <main+0x1b7c>
    1f57: a5 19        	lda	$19                     ; 0x2019 <main+0x1b85>
    1f59: c8           	iny
    1f5a: 91 10        	sta	($10),y                 ; 0x2010 <main+0x1b7c>
    1f5c: a2 1b        	ldx	#$1b
    1f5e: a0 03        	ldy	#$3
    1f60: 4c 26 20     	jmp	$2026 <main+0x1b92>
    1f63: a5 18        	lda	$18                     ; 0x2018 <main+0x1b84>
    1f65: a0 2d        	ldy	#$2d
    1f67: 91 10        	sta	($10),y                 ; 0x2010 <main+0x1b7c>
    1f69: a5 19        	lda	$19                     ; 0x2019 <main+0x1b85>
    1f6b: c8           	iny
    1f6c: 91 10        	sta	($10),y                 ; 0x2010 <main+0x1b7c>
    1f6e: a2 1a        	ldx	#$1a
    1f70: a0 04        	ldy	#$4
    1f72: 4c 26 20     	jmp	$2026 <main+0x1b92>
    1f75: a5 18        	lda	$18                     ; 0x2018 <main+0x1b84>
    1f77: a0 2d        	ldy	#$2d
    1f79: 91 10        	sta	($10),y                 ; 0x2010 <main+0x1b7c>
    1f7b: a5 19        	lda	$19                     ; 0x2019 <main+0x1b85>
    1f7d: c8           	iny
    1f7e: 91 10        	sta	($10),y                 ; 0x2010 <main+0x1b7c>
    1f80: a2 19        	ldx	#$19
    1f82: a0 05        	ldy	#$5
    1f84: 4c 26 20     	jmp	$2026 <main+0x1b92>
    1f87: 91 10        	sta	($10),y                 ; 0x2010 <main+0x1b7c>
    1f89: a5 19        	lda	$19                     ; 0x2019 <main+0x1b85>
    1f8b: a0 2e        	ldy	#$2e
    1f8d: 91 10        	sta	($10),y                 ; 0x2010 <main+0x1b7c>
    1f8f: a2 18        	ldx	#$18
    1f91: a0 06        	ldy	#$6
    1f93: 4c 26 20     	jmp	$2026 <main+0x1b92>
    1f96: a2 17        	ldx	#$17
    1f98: a0 07        	ldy	#$7
    1f9a: 4c 26 20     	jmp	$2026 <main+0x1b92>
    1f9d: a2 16        	ldx	#$16
    1f9f: a0 08        	ldy	#$8
    1fa1: 4c 26 20     	jmp	$2026 <main+0x1b92>
    1fa4: a2 15        	ldx	#$15
    1fa6: a0 09        	ldy	#$9
    1fa8: 4c 26 20     	jmp	$2026 <main+0x1b92>
    1fab: a2 14        	ldx	#$14
    1fad: a0 0a        	ldy	#$a
    1faf: 4c 26 20     	jmp	$2026 <main+0x1b92>
    1fb2: a2 13        	ldx	#$13
    1fb4: a0 0b        	ldy	#$b
    1fb6: 4c 26 20     	jmp	$2026 <main+0x1b92>
    1fb9: a2 12        	ldx	#$12
    1fbb: a0 0c        	ldy	#$c
    1fbd: 4c 26 20     	jmp	$2026 <main+0x1b92>
    1fc0: a2 11        	ldx	#$11
    1fc2: a0 0d        	ldy	#$d
    1fc4: 4c 26 20     	jmp	$2026 <main+0x1b92>
    1fc7: a0 0e        	ldy	#$e
    1fc9: a2 10        	ldx	#$10
    1fcb: 4c 26 20     	jmp	$2026 <main+0x1b92>
    1fce: a2 0f        	ldx	#$f
    1fd0: 86 12        	stx	$12                     ; 0x2012 <main+0x1b7e>
    1fd2: 80 54        	bra	$2028 <main+0x1b94>
    1fd4: a2 0e        	ldx	#$e
    1fd6: a0 10        	ldy	#$10
    1fd8: 80 4c        	bra	$2026 <main+0x1b92>
    1fda: a0 11        	ldy	#$11
    1fdc: a2 0d        	ldx	#$d
    1fde: 80 46        	bra	$2026 <main+0x1b92>
    1fe0: a0 12        	ldy	#$12
    1fe2: a2 0c        	ldx	#$c
    1fe4: 80 40        	bra	$2026 <main+0x1b92>
    1fe6: a0 13        	ldy	#$13
    1fe8: a2 0b        	ldx	#$b
    1fea: 80 3a        	bra	$2026 <main+0x1b92>
    1fec: a0 14        	ldy	#$14
    1fee: a2 0a        	ldx	#$a
    1ff0: 80 34        	bra	$2026 <main+0x1b92>
    1ff2: a0 15        	ldy	#$15
    1ff4: a2 09        	ldx	#$9
    1ff6: 80 2e        	bra	$2026 <main+0x1b92>
    1ff8: a0 16        	ldy	#$16
    1ffa: a2 08        	ldx	#$8
    1ffc: 80 28        	bra	$2026 <main+0x1b92>
    1ffe: a0 17        	ldy	#$17
    2000: a2 07        	ldx	#$7
    2002: 80 22        	bra	$2026 <main+0x1b92>
    2004: a0 18        	ldy	#$18
    2006: a2 06        	ldx	#$6
    2008: 80 1c        	bra	$2026 <main+0x1b92>
    200a: a0 19        	ldy	#$19
    200c: a2 05        	ldx	#$5
    200e: 80 16        	bra	$2026 <main+0x1b92>
    2010: a0 1a        	ldy	#$1a
    2012: a2 04        	ldx	#$4
    2014: 80 10        	bra	$2026 <main+0x1b92>
    2016: a0 1b        	ldy	#$1b
    2018: a2 03        	ldx	#$3
    201a: 80 0a        	bra	$2026 <main+0x1b92>
    201c: a0 1c        	ldy	#$1c
    201e: a2 02        	ldx	#$2
    2020: 80 04        	bra	$2026 <main+0x1b92>
    2022: a0 1d        	ldy	#$1d
    2024: a2 01        	ldx	#$1
    2026: 84 12        	sty	$12                     ; 0x2012 <main+0x1b7e>
    2028: a5 1a        	lda	$1a                     ; 0x201a <main+0x1b86>
    202a: 18           	clc
    202b: 65 12        	adc	$12                     ; 0x2012 <main+0x1b7e>
    202d: 85 12        	sta	$12                     ; 0x2012 <main+0x1b7e>
    202f: a5 1b        	lda	$1b                     ; 0x201b <main+0x1b87>
    2031: 64 14        	stz	$14                     ; 0x2014 <main+0x1b80>
    2033: 65 14        	adc	$14                     ; 0x2014 <main+0x1b80>
    2035: 85 13        	sta	$13                     ; 0x2013 <main+0x1b7f>
    2037: e6 12        	inc	$12                     ; 0x2012 <main+0x1b7e>
    2039: d0 02        	bne	$203d <main+0x1ba9>
    203b: e6 13        	inc	$13                     ; 0x2013 <main+0x1b7f>
    203d: a9 00        	lda	#$0
    203f: 20 2f 66     	jsr	$662f <__memset>
    2042: a0 1f        	ldy	#$1f
    2044: 5a           	phy
    2045: a0 2d        	ldy	#$2d
    2047: b1 10        	lda	($10),y                 ; 0x2010 <main+0x1b7c>
    2049: 85 12        	sta	$12                     ; 0x2012 <main+0x1b7e>
    204b: c8           	iny
    204c: b1 10        	lda	($10),y                 ; 0x2010 <main+0x1b7c>
    204e: 7a           	ply
    204f: 85 13        	sta	$13                     ; 0x2013 <main+0x1b7f>
    2051: a9 00        	lda	#$0
    2053: 91 12        	sta	($12),y                 ; 0x2012 <main+0x1b7e>
    2055: a0 01        	ldy	#$1
    2057: 5a           	phy
    2058: a0 2f        	ldy	#$2f
    205a: b1 10        	lda	($10),y                 ; 0x2010 <main+0x1b7c>
    205c: 85 12        	sta	$12                     ; 0x2012 <main+0x1b7e>
    205e: c8           	iny
    205f: b1 10        	lda	($10),y                 ; 0x2010 <main+0x1b7c>
    2061: 7a           	ply
    2062: 85 13        	sta	$13                     ; 0x2013 <main+0x1b7f>
    2064: b1 12        	lda	($12),y                 ; 0x2012 <main+0x1b7e>
    2066: 2c 4f 66     	bit	$664f                   ; 0x664f <__set_v>
    2069: 48           	pha
    206a: 5a           	phy
    206b: a0 32        	ldy	#$32
    206d: b1 10        	lda	($10),y                 ; 0x2010 <main+0x1b7c>
    206f: 85 16        	sta	$16                     ; 0x2016 <main+0x1b82>
    2071: c8           	iny
    2072: b1 10        	lda	($10),y                 ; 0x2010 <main+0x1b7c>
    2074: 7a           	ply
    2075: 85 17        	sta	$17                     ; 0x2017 <main+0x1b83>
    2077: 68           	pla
    2078: c9 01        	cmp	#$1
    207a: f0 01        	beq	$207d <main+0x1be9>
    207c: b8           	clv
    207d: 98           	tya
    207e: 48           	pha
    207f: a0 36        	ldy	#$36
    2081: b1 10        	lda	($10),y                 ; 0x2010 <main+0x1b7c>
    2083: 85 12        	sta	$12                     ; 0x2012 <main+0x1b7e>
    2085: c8           	iny
    2086: b1 10        	lda	($10),y                 ; 0x2010 <main+0x1b7c>
    2088: 85 13        	sta	$13                     ; 0x2013 <main+0x1b7f>
    208a: a0 31        	ldy	#$31
    208c: b1 10        	lda	($10),y                 ; 0x2010 <main+0x1b7c>
    208e: aa           	tax
    208f: 68           	pla
    2090: 70 02        	bvs	$2094 <main+0x1c00>
    2092: a9 00        	lda	#$0
    2094: 9d b5 a2     	sta	$a2b5,x                 ; 0xa2b5 <fpr+0xcc3>
    2097: a5 16        	lda	$16                     ; 0x2016 <main+0x1b82>
    2099: 18           	clc
    209a: 69 20        	adc	#$20
    209c: 85 16        	sta	$16                     ; 0x2016 <main+0x1b82>
    209e: a5 17        	lda	$17                     ; 0x2017 <main+0x1b83>
    20a0: 69 00        	adc	#$0
    20a2: 85 17        	sta	$17                     ; 0x2017 <main+0x1b83>
    20a4: a0 34        	ldy	#$34
    20a6: b1 10        	lda	($10),y                 ; 0x2010 <main+0x1b7c>
    20a8: 48           	pha
    20a9: c8           	iny
    20aa: b1 10        	lda	($10),y                 ; 0x2010 <main+0x1b7c>
    20ac: a8           	tay
    20ad: 68           	pla
    20ae: 1a           	inc
    20af: d0 01        	bne	$20b2 <main+0x1c1e>
    20b1: c8           	iny
    20b2: 48           	pha
    20b3: 98           	tya
    20b4: a0 35        	ldy	#$35
    20b6: 91 10        	sta	($10),y                 ; 0x2010 <main+0x1b7c>
    20b8: e8           	inx
    20b9: b1 10        	lda	($10),y                 ; 0x2010 <main+0x1b7c>
    20bb: a8           	tay
    20bc: 68           	pla
    20bd: c0 00        	cpy	#$0
    20bf: f0 03        	beq	$20c4 <main+0x1c30>
    20c1: 4c b5 0f     	jmp	$fb5 <main+0xb21>
    20c4: c9 64        	cmp	#$64
    20c6: f0 03        	beq	$20cb <main+0x1c37>
    20c8: 4c b5 0f     	jmp	$fb5 <main+0xb21>
    20cb: 20 26 52     	jsr	$5226 <fileReadDir>
    20ce: a2 64        	ldx	#$64
    20d0: 64 12        	stz	$12                     ; 0x2012 <main+0x1b7e>
    20d2: a9 00        	lda	#$0
    20d4: a0 35        	ldy	#$35
    20d6: 91 10        	sta	($10),y                 ; 0x2010 <main+0x1b7c>
    20d8: 4c 2a 13     	jmp	$132a <main+0xe96>
    20db: 64 33        	stz	$33                     ; 0x2033 <main+0x1b9f>
    20dd: 9c 14 d0     	stz	$d014                   ; 0xd014 <end_block9+0x2ca4>
    20e0: 9c 15 d0     	stz	$d015                   ; 0xd015 <end_block9+0x2ca5>
    20e3: a2 14        	ldx	#$14
    20e5: 86 34        	stx	$34                     ; 0x2034 <main+0x1ba0>
    20e7: 8e 16 d0     	stx	$d016                   ; 0xd016 <end_block9+0x2ca6>
    20ea: 9c 17 d0     	stz	$d017                   ; 0xd017 <end_block9+0x2ca7>
    20ed: a2 66        	ldx	#$66
    20ef: 86 12        	stx	$12                     ; 0x2012 <main+0x1b7e>
    20f1: a2 68        	ldx	#$68
    20f3: 86 13        	stx	$13                     ; 0x2013 <main+0x1b7f>
    20f5: 20 a9 64     	jsr	$64a9 <printf>
    20f8: ae 14 96     	ldx	$9614                   ; 0x9614 <fpr+0x22>
    20fb: ac 14 96     	ldy	$9614                   ; 0x9614 <fpr+0x22>
    20fe: 8c f4 95     	sty	$95f4                   ; 0x95f4 <fpr+0x2>
    2101: 8a           	txa
    2102: d0 03        	bne	$2107 <main+0x1c73>
    2104: 4c b6 21     	jmp	$21b6 <main+0x1d22>
    2107: ae 15 96     	ldx	$9615                   ; 0x9615 <fpr+0x23>
    210a: ac 15 96     	ldy	$9615                   ; 0x9615 <fpr+0x23>
    210d: 8c f5 95     	sty	$95f5                   ; 0x95f5 <fpr+0x3>
    2110: 8a           	txa
    2111: d0 03        	bne	$2116 <main+0x1c82>
    2113: 4c c4 21     	jmp	$21c4 <main+0x1d30>
    2116: ae 16 96     	ldx	$9616                   ; 0x9616 <fpr+0x24>
    2119: ac 16 96     	ldy	$9616                   ; 0x9616 <fpr+0x24>
    211c: 8c f6 95     	sty	$95f6                   ; 0x95f6 <fpr+0x4>
    211f: 8a           	txa
    2120: d0 03        	bne	$2125 <main+0x1c91>
    2122: 4c d1 21     	jmp	$21d1 <main+0x1d3d>
    2125: ae 17 96     	ldx	$9617                   ; 0x9617 <fpr+0x25>
    2128: ac 17 96     	ldy	$9617                   ; 0x9617 <fpr+0x25>
    212b: 8c f7 95     	sty	$95f7                   ; 0x95f7 <fpr+0x5>
    212e: 8a           	txa
    212f: d0 03        	bne	$2134 <main+0x1ca0>
    2131: 4c de 21     	jmp	$21de <main+0x1d4a>
    2134: ae 18 96     	ldx	$9618                   ; 0x9618 <fpr+0x26>
    2137: ac 18 96     	ldy	$9618                   ; 0x9618 <fpr+0x26>
    213a: 8c f8 95     	sty	$95f8                   ; 0x95f8 <fpr+0x6>
    213d: 8a           	txa
    213e: d0 03        	bne	$2143 <main+0x1caf>
    2140: 4c eb 21     	jmp	$21eb <main+0x1d57>
    2143: ae 19 96     	ldx	$9619                   ; 0x9619 <fpr+0x27>
    2146: ac 19 96     	ldy	$9619                   ; 0x9619 <fpr+0x27>
    2149: 8c f9 95     	sty	$95f9                   ; 0x95f9 <fpr+0x7>
    214c: 8a           	txa
    214d: d0 03        	bne	$2152 <main+0x1cbe>
    214f: 4c f8 21     	jmp	$21f8 <main+0x1d64>
    2152: ae 1a 96     	ldx	$961a                   ; 0x961a <fpr+0x28>
    2155: ac 1a 96     	ldy	$961a                   ; 0x961a <fpr+0x28>
    2158: 8c fa 95     	sty	$95fa                   ; 0x95fa <fpr+0x8>
    215b: 8a           	txa
    215c: d0 03        	bne	$2161 <main+0x1ccd>
    215e: 4c 05 22     	jmp	$2205 <main+0x1d71>
    2161: ae 1b 96     	ldx	$961b                   ; 0x961b <fpr+0x29>
    2164: ac 1b 96     	ldy	$961b                   ; 0x961b <fpr+0x29>
    2167: 8c fb 95     	sty	$95fb                   ; 0x95fb <fpr+0x9>
    216a: 8a           	txa
    216b: d0 03        	bne	$2170 <main+0x1cdc>
    216d: 4c 12 22     	jmp	$2212 <main+0x1d7e>
    2170: ae 1c 96     	ldx	$961c                   ; 0x961c <fpr+0x2a>
    2173: ac 1c 96     	ldy	$961c                   ; 0x961c <fpr+0x2a>
    2176: 8c fc 95     	sty	$95fc                   ; 0x95fc <fpr+0xa>
    2179: 8a           	txa
    217a: d0 03        	bne	$217f <main+0x1ceb>
    217c: 4c 1f 22     	jmp	$221f <main+0x1d8b>
    217f: ae 1d 96     	ldx	$961d                   ; 0x961d <fpr+0x2b>
    2182: ac 1d 96     	ldy	$961d                   ; 0x961d <fpr+0x2b>
    2185: 8c fd 95     	sty	$95fd                   ; 0x95fd <fpr+0xb>
    2188: 8a           	txa
    2189: d0 03        	bne	$218e <main+0x1cfa>
    218b: 4c 8e 22     	jmp	$228e <main+0x1dfa>
    218e: ae 1e 96     	ldx	$961e                   ; 0x961e <fpr+0x2c>
    2191: ac 1e 96     	ldy	$961e                   ; 0x961e <fpr+0x2c>
    2194: 8c fe 95     	sty	$95fe                   ; 0x95fe <fpr+0xc>
    2197: 8a           	txa
    2198: d0 03        	bne	$219d <main+0x1d09>
    219a: 4c d2 40     	jmp	$40d2 <main+0x3c3e>
    219d: ae 1f 96     	ldx	$961f                   ; 0x961f <fpr+0x2d>
    21a0: ac 1f 96     	ldy	$961f                   ; 0x961f <fpr+0x2d>
    21a3: 8c ff 95     	sty	$95ff                   ; 0x95ff <fpr+0xd>
    21a6: 8a           	txa
    21a7: f0 03        	beq	$21ac <main+0x1d18>
    21a9: 4c 9f 3f     	jmp	$3f9f <main+0x3b0b>
    21ac: 4c b7 43     	jmp	$43b7 <main+0x3f23>
    21af: 64 12        	stz	$12                     ; 0x2012 <main+0x1b7e>
    21b1: a2 1f        	ldx	#$1f
    21b3: 4c 2c 22     	jmp	$222c <main+0x1d98>
    21b6: 64 12        	stz	$12                     ; 0x2012 <main+0x1b7e>
    21b8: a2 1f        	ldx	#$1f
    21ba: 4c 94 22     	jmp	$2294 <main+0x1e00>
    21bd: a2 1e        	ldx	#$1e
    21bf: a0 01        	ldy	#$1
    21c1: 4c 2a 22     	jmp	$222a <main+0x1d96>
    21c4: a2 1e        	ldx	#$1e
    21c6: a0 01        	ldy	#$1
    21c8: 4c 92 22     	jmp	$2292 <main+0x1dfe>
    21cb: a2 1d        	ldx	#$1d
    21cd: a0 02        	ldy	#$2
    21cf: 80 59        	bra	$222a <main+0x1d96>
    21d1: a2 1d        	ldx	#$1d
    21d3: a0 02        	ldy	#$2
    21d5: 4c 92 22     	jmp	$2292 <main+0x1dfe>
    21d8: a2 1c        	ldx	#$1c
    21da: a0 03        	ldy	#$3
    21dc: 80 4c        	bra	$222a <main+0x1d96>
    21de: a2 1c        	ldx	#$1c
    21e0: a0 03        	ldy	#$3
    21e2: 4c 92 22     	jmp	$2292 <main+0x1dfe>
    21e5: a2 1b        	ldx	#$1b
    21e7: a0 04        	ldy	#$4
    21e9: 80 3f        	bra	$222a <main+0x1d96>
    21eb: a2 1b        	ldx	#$1b
    21ed: a0 04        	ldy	#$4
    21ef: 4c 92 22     	jmp	$2292 <main+0x1dfe>
    21f2: a2 1a        	ldx	#$1a
    21f4: a0 05        	ldy	#$5
    21f6: 80 32        	bra	$222a <main+0x1d96>
    21f8: a2 1a        	ldx	#$1a
    21fa: a0 05        	ldy	#$5
    21fc: 4c 92 22     	jmp	$2292 <main+0x1dfe>
    21ff: a2 19        	ldx	#$19
    2201: a0 06        	ldy	#$6
    2203: 80 25        	bra	$222a <main+0x1d96>
    2205: a2 19        	ldx	#$19
    2207: a0 06        	ldy	#$6
    2209: 4c 92 22     	jmp	$2292 <main+0x1dfe>
    220c: a2 18        	ldx	#$18
    220e: a0 07        	ldy	#$7
    2210: 80 18        	bra	$222a <main+0x1d96>
    2212: a2 18        	ldx	#$18
    2214: a0 07        	ldy	#$7
    2216: 4c 92 22     	jmp	$2292 <main+0x1dfe>
    2219: a2 17        	ldx	#$17
    221b: a0 08        	ldy	#$8
    221d: 80 0b        	bra	$222a <main+0x1d96>
    221f: a2 17        	ldx	#$17
    2221: a0 08        	ldy	#$8
    2223: 4c 92 22     	jmp	$2292 <main+0x1dfe>
    2226: a2 16        	ldx	#$16
    2228: a0 09        	ldy	#$9
    222a: 84 12        	sty	$12                     ; 0x2012 <main+0x1b7e>
    222c: a9 f5        	lda	#$f5
    222e: 18           	clc
    222f: 65 12        	adc	$12                     ; 0x2012 <main+0x1b7e>
    2231: 85 12        	sta	$12                     ; 0x2012 <main+0x1b7e>
    2233: a9 95        	lda	#$95
    2235: 65 24        	adc	$24                     ; 0x2024 <main+0x1b90>
    2237: 85 13        	sta	$13                     ; 0x2013 <main+0x1b7f>
    2239: 64 14        	stz	$14                     ; 0x2014 <main+0x1b80>
    223b: a9 00        	lda	#$0
    223d: 20 2f 66     	jsr	$662f <__memset>
    2240: ad f4 95     	lda	$95f4                   ; 0x95f4 <fpr+0x2>
    2243: d0 03        	bne	$2248 <main+0x1db4>
    2245: 4c 24 23     	jmp	$2324 <main+0x1e90>
    2248: c9 2f        	cmp	#$2f
    224a: d0 0c        	bne	$2258 <main+0x1dc4>
    224c: ae f5 95     	ldx	$95f5                   ; 0x95f5 <fpr+0x3>
    224f: a9 2f        	lda	#$2f
    2251: e0 00        	cpx	#$0
    2253: d0 03        	bne	$2258 <main+0x1dc4>
    2255: 4c 24 23     	jmp	$2324 <main+0x1e90>
    2258: a2 f4        	ldx	#$f4
    225a: 86 14        	stx	$14                     ; 0x2014 <main+0x1b80>
    225c: a2 95        	ldx	#$95
    225e: 86 15        	stx	$15                     ; 0x2015 <main+0x1b81>
    2260: a2 00        	ldx	#$0
    2262: 86 12        	stx	$12                     ; 0x2012 <main+0x1b7e>
    2264: a2 00        	ldx	#$0
    2266: 86 13        	stx	$13                     ; 0x2013 <main+0x1b7f>
    2268: a0 01        	ldy	#$1
    226a: 80 0e        	bra	$227a <main+0x1de6>
    226c: b1 14        	lda	($14),y                 ; 0x2014 <main+0x1b80>
    226e: e6 14        	inc	$14                     ; 0x2014 <main+0x1b80>
    2270: d0 02        	bne	$2274 <main+0x1de0>
    2272: e6 15        	inc	$15                     ; 0x2015 <main+0x1b81>
    2274: aa           	tax
    2275: d0 03        	bne	$227a <main+0x1de6>
    2277: 4c f3 22     	jmp	$22f3 <main+0x1e5f>
    227a: c9 2f        	cmp	#$2f
    227c: d0 ee        	bne	$226c <main+0x1dd8>
    227e: a6 14        	ldx	$14                     ; 0x2014 <main+0x1b80>
    2280: 86 12        	stx	$12                     ; 0x2012 <main+0x1b7e>
    2282: a6 15        	ldx	$15                     ; 0x2015 <main+0x1b81>
    2284: 86 13        	stx	$13                     ; 0x2013 <main+0x1b7f>
    2286: b1 14        	lda	($14),y                 ; 0x2014 <main+0x1b80>
    2288: e6 14        	inc	$14                     ; 0x2014 <main+0x1b80>
    228a: d0 e8        	bne	$2274 <main+0x1de0>
    228c: 80 e4        	bra	$2272 <main+0x1dde>
    228e: a2 16        	ldx	#$16
    2290: a0 09        	ldy	#$9
    2292: 84 12        	sty	$12                     ; 0x2012 <main+0x1b7e>
    2294: a9 f5        	lda	#$f5
    2296: 18           	clc
    2297: 65 12        	adc	$12                     ; 0x2012 <main+0x1b7e>
    2299: 85 12        	sta	$12                     ; 0x2012 <main+0x1b7e>
    229b: a9 95        	lda	#$95
    229d: 65 24        	adc	$24                     ; 0x2024 <main+0x1b90>
    229f: 85 13        	sta	$13                     ; 0x2013 <main+0x1b7f>
    22a1: 64 14        	stz	$14                     ; 0x2014 <main+0x1b80>
    22a3: a9 00        	lda	#$0
    22a5: 20 2f 66     	jsr	$662f <__memset>
    22a8: ad f4 95     	lda	$95f4                   ; 0x95f4 <fpr+0x2>
    22ab: d0 03        	bne	$22b0 <main+0x1e1c>
    22ad: 4c 24 23     	jmp	$2324 <main+0x1e90>
    22b0: c9 2f        	cmp	#$2f
    22b2: d0 0c        	bne	$22c0 <main+0x1e2c>
    22b4: ae f5 95     	ldx	$95f5                   ; 0x95f5 <fpr+0x3>
    22b7: a9 2f        	lda	#$2f
    22b9: e0 00        	cpx	#$0
    22bb: d0 03        	bne	$22c0 <main+0x1e2c>
    22bd: 4c 24 23     	jmp	$2324 <main+0x1e90>
    22c0: a2 f4        	ldx	#$f4
    22c2: 86 14        	stx	$14                     ; 0x2014 <main+0x1b80>
    22c4: a2 95        	ldx	#$95
    22c6: 86 15        	stx	$15                     ; 0x2015 <main+0x1b81>
    22c8: a2 00        	ldx	#$0
    22ca: 86 12        	stx	$12                     ; 0x2012 <main+0x1b7e>
    22cc: a2 00        	ldx	#$0
    22ce: 86 13        	stx	$13                     ; 0x2013 <main+0x1b7f>
    22d0: a0 01        	ldy	#$1
    22d2: 80 0b        	bra	$22df <main+0x1e4b>
    22d4: b1 14        	lda	($14),y                 ; 0x2014 <main+0x1b80>
    22d6: e6 14        	inc	$14                     ; 0x2014 <main+0x1b80>
    22d8: d0 02        	bne	$22dc <main+0x1e48>
    22da: e6 15        	inc	$15                     ; 0x2015 <main+0x1b81>
    22dc: aa           	tax
    22dd: f0 14        	beq	$22f3 <main+0x1e5f>
    22df: c9 2f        	cmp	#$2f
    22e1: d0 f1        	bne	$22d4 <main+0x1e40>
    22e3: a6 14        	ldx	$14                     ; 0x2014 <main+0x1b80>
    22e5: 86 12        	stx	$12                     ; 0x2012 <main+0x1b7e>
    22e7: a6 15        	ldx	$15                     ; 0x2015 <main+0x1b81>
    22e9: 86 13        	stx	$13                     ; 0x2013 <main+0x1b7f>
    22eb: b1 14        	lda	($14),y                 ; 0x2014 <main+0x1b80>
    22ed: e6 14        	inc	$14                     ; 0x2014 <main+0x1b80>
    22ef: d0 eb        	bne	$22dc <main+0x1e48>
    22f1: 80 e7        	bra	$22da <main+0x1e46>
    22f3: a6 13        	ldx	$13                     ; 0x2013 <main+0x1b7f>
    22f5: e4 2f        	cpx	$2f                     ; 0x202f <main+0x1b9b>
    22f7: d0 06        	bne	$22ff <main+0x1e6b>
    22f9: a6 12        	ldx	$12                     ; 0x2012 <main+0x1b7e>
    22fb: e4 2e        	cpx	$2e                     ; 0x202e <main+0x1b9a>
    22fd: f0 0c        	beq	$230b <main+0x1e77>
    22ff: a6 13        	ldx	$13                     ; 0x2013 <main+0x1b7f>
    2301: e4 28        	cpx	$28                     ; 0x2028 <main+0x1b94>
    2303: d0 12        	bne	$2317 <main+0x1e83>
    2305: a6 12        	ldx	$12                     ; 0x2012 <main+0x1b7e>
    2307: e4 25        	cpx	$25                     ; 0x2025 <main+0x1b91>
    2309: d0 0c        	bne	$2317 <main+0x1e83>
    230b: a6 30        	ldx	$30                     ; 0x2030 <main+0x1b9c>
    230d: 8e f4 95     	stx	$95f4                   ; 0x95f4 <fpr+0x2>
    2310: a6 31        	ldx	$31                     ; 0x2031 <main+0x1b9d>
    2312: 8e f5 95     	stx	$95f5                   ; 0x95f5 <fpr+0x3>
    2315: 80 0d        	bra	$2324 <main+0x1e90>
    2317: a9 00        	lda	#$0
    2319: 92 12        	sta	($12)                   ; 0x2012 <main+0x1b7e>
    231b: 80 07        	bra	$2324 <main+0x1e90>
    231d: c9 02        	cmp	#$2
    231f: d0 03        	bne	$2324 <main+0x1e90>
    2321: 4c 38 25     	jmp	$2538 <main+0x20a4>
    2324: 20 05 53     	jsr	$5305 <pickFile>
    2327: aa           	tax
    2328: d0 03        	bne	$232d <main+0x1e99>
    232a: 4c db 20     	jmp	$20db <main+0x1c47>
    232d: c9 01        	cmp	#$1
    232f: d0 ec        	bne	$231d <main+0x1e89>
    2331: 64 33        	stz	$33                     ; 0x2033 <main+0x1b9f>
    2333: 9c 14 d0     	stz	$d014                   ; 0xd014 <end_block9+0x2ca4>
    2336: 9c 15 d0     	stz	$d015                   ; 0xd015 <end_block9+0x2ca5>
    2339: a2 14        	ldx	#$14
    233b: 86 34        	stx	$34                     ; 0x2034 <main+0x1ba0>
    233d: 8e 16 d0     	stx	$d016                   ; 0xd016 <end_block9+0x2ca6>
    2340: 9c 17 d0     	stz	$d017                   ; 0xd017 <end_block9+0x2ca7>
    2343: a9 14        	lda	#$14
    2345: 92 10        	sta	($10)                   ; 0x2010 <main+0x1b7c>
    2347: a0 01        	ldy	#$1
    2349: a9 96        	lda	#$96
    234b: 91 10        	sta	($10),y                 ; 0x2010 <main+0x1b7c>
    234d: a2 ef        	ldx	#$ef
    234f: 86 12        	stx	$12                     ; 0x2012 <main+0x1b7e>
    2351: a2 67        	ldx	#$67
    2353: 86 13        	stx	$13                     ; 0x2013 <main+0x1b7f>
    2355: 20 a9 64     	jsr	$64a9 <printf>
    2358: ae 14 96     	ldx	$9614                   ; 0x9614 <fpr+0x22>
    235b: ac 14 96     	ldy	$9614                   ; 0x9614 <fpr+0x22>
    235e: 8c f4 95     	sty	$95f4                   ; 0x95f4 <fpr+0x2>
    2361: 8a           	txa
    2362: d0 03        	bne	$2367 <main+0x1ed3>
    2364: 4c af 21     	jmp	$21af <main+0x1d1b>
    2367: ae 15 96     	ldx	$9615                   ; 0x9615 <fpr+0x23>
    236a: ac 15 96     	ldy	$9615                   ; 0x9615 <fpr+0x23>
    236d: 8c f5 95     	sty	$95f5                   ; 0x95f5 <fpr+0x3>
    2370: 8a           	txa
    2371: d0 03        	bne	$2376 <main+0x1ee2>
    2373: 4c bd 21     	jmp	$21bd <main+0x1d29>
    2376: ae 16 96     	ldx	$9616                   ; 0x9616 <fpr+0x24>
    2379: ac 16 96     	ldy	$9616                   ; 0x9616 <fpr+0x24>
    237c: 8c f6 95     	sty	$95f6                   ; 0x95f6 <fpr+0x4>
    237f: 8a           	txa
    2380: d0 03        	bne	$2385 <main+0x1ef1>
    2382: 4c cb 21     	jmp	$21cb <main+0x1d37>
    2385: ae 17 96     	ldx	$9617                   ; 0x9617 <fpr+0x25>
    2388: ac 17 96     	ldy	$9617                   ; 0x9617 <fpr+0x25>
    238b: 8c f7 95     	sty	$95f7                   ; 0x95f7 <fpr+0x5>
    238e: 8a           	txa
    238f: d0 03        	bne	$2394 <main+0x1f00>
    2391: 4c d8 21     	jmp	$21d8 <main+0x1d44>
    2394: ae 18 96     	ldx	$9618                   ; 0x9618 <fpr+0x26>
    2397: ac 18 96     	ldy	$9618                   ; 0x9618 <fpr+0x26>
    239a: 8c f8 95     	sty	$95f8                   ; 0x95f8 <fpr+0x6>
    239d: 8a           	txa
    239e: d0 03        	bne	$23a3 <main+0x1f0f>
    23a0: 4c e5 21     	jmp	$21e5 <main+0x1d51>
    23a3: ae 19 96     	ldx	$9619                   ; 0x9619 <fpr+0x27>
    23a6: ac 19 96     	ldy	$9619                   ; 0x9619 <fpr+0x27>
    23a9: 8c f9 95     	sty	$95f9                   ; 0x95f9 <fpr+0x7>
    23ac: 8a           	txa
    23ad: d0 03        	bne	$23b2 <main+0x1f1e>
    23af: 4c f2 21     	jmp	$21f2 <main+0x1d5e>
    23b2: ae 1a 96     	ldx	$961a                   ; 0x961a <fpr+0x28>
    23b5: ac 1a 96     	ldy	$961a                   ; 0x961a <fpr+0x28>
    23b8: 8c fa 95     	sty	$95fa                   ; 0x95fa <fpr+0x8>
    23bb: 8a           	txa
    23bc: d0 03        	bne	$23c1 <main+0x1f2d>
    23be: 4c ff 21     	jmp	$21ff <main+0x1d6b>
    23c1: ae 1b 96     	ldx	$961b                   ; 0x961b <fpr+0x29>
    23c4: ac 1b 96     	ldy	$961b                   ; 0x961b <fpr+0x29>
    23c7: 8c fb 95     	sty	$95fb                   ; 0x95fb <fpr+0x9>
    23ca: 8a           	txa
    23cb: d0 03        	bne	$23d0 <main+0x1f3c>
    23cd: 4c 0c 22     	jmp	$220c <main+0x1d78>
    23d0: ae 1c 96     	ldx	$961c                   ; 0x961c <fpr+0x2a>
    23d3: ac 1c 96     	ldy	$961c                   ; 0x961c <fpr+0x2a>
    23d6: 8c fc 95     	sty	$95fc                   ; 0x95fc <fpr+0xa>
    23d9: 8a           	txa
    23da: d0 03        	bne	$23df <main+0x1f4b>
    23dc: 4c 19 22     	jmp	$2219 <main+0x1d85>
    23df: ae 1d 96     	ldx	$961d                   ; 0x961d <fpr+0x2b>
    23e2: ac 1d 96     	ldy	$961d                   ; 0x961d <fpr+0x2b>
    23e5: 8c fd 95     	sty	$95fd                   ; 0x95fd <fpr+0xb>
    23e8: 8a           	txa
    23e9: d0 03        	bne	$23ee <main+0x1f5a>
    23eb: 4c 26 22     	jmp	$2226 <main+0x1d92>
    23ee: ae 1e 96     	ldx	$961e                   ; 0x961e <fpr+0x2c>
    23f1: ac 1e 96     	ldy	$961e                   ; 0x961e <fpr+0x2c>
    23f4: 8c fe 95     	sty	$95fe                   ; 0x95fe <fpr+0xc>
    23f7: 8a           	txa
    23f8: d0 03        	bne	$23fd <main+0x1f69>
    23fa: 4c cb 40     	jmp	$40cb <main+0x3c37>
    23fd: ae 1f 96     	ldx	$961f                   ; 0x961f <fpr+0x2d>
    2400: ac 1f 96     	ldy	$961f                   ; 0x961f <fpr+0x2d>
    2403: 8c ff 95     	sty	$95ff                   ; 0x95ff <fpr+0xd>
    2406: 8a           	txa
    2407: d0 03        	bne	$240c <main+0x1f78>
    2409: 4c b0 43     	jmp	$43b0 <main+0x3f1c>
    240c: ae 20 96     	ldx	$9620                   ; 0x9620 <fpr+0x2e>
    240f: ac 20 96     	ldy	$9620                   ; 0x9620 <fpr+0x2e>
    2412: 8c 00 96     	sty	$9600                   ; 0x9600 <fpr+0xe>
    2415: 8a           	txa
    2416: d0 03        	bne	$241b <main+0x1f87>
    2418: 4c 35 4a     	jmp	$4a35 <main+0x45a1>
    241b: ae 21 96     	ldx	$9621                   ; 0x9621 <fpr+0x2f>
    241e: ac 21 96     	ldy	$9621                   ; 0x9621 <fpr+0x2f>
    2421: 8c 01 96     	sty	$9601                   ; 0x9601 <fpr+0xf>
    2424: 8a           	txa
    2425: d0 03        	bne	$242a <main+0x1f96>
    2427: 4c 43 4a     	jmp	$4a43 <main+0x45af>
    242a: ae 22 96     	ldx	$9622                   ; 0x9622 <fpr+0x30>
    242d: ac 22 96     	ldy	$9622                   ; 0x9622 <fpr+0x30>
    2430: 8c 02 96     	sty	$9602                   ; 0x9602 <fpr+0x10>
    2433: 8a           	txa
    2434: d0 03        	bne	$2439 <main+0x1fa5>
    2436: 4c 95 4d     	jmp	$4d95 <main+0x4901>
    2439: ae 23 96     	ldx	$9623                   ; 0x9623 <fpr+0x31>
    243c: ac 23 96     	ldy	$9623                   ; 0x9623 <fpr+0x31>
    243f: 8c 03 96     	sty	$9603                   ; 0x9603 <fpr+0x11>
    2442: 8a           	txa
    2443: d0 03        	bne	$2448 <main+0x1fb4>
    2445: 4c a3 4d     	jmp	$4da3 <main+0x490f>
    2448: ae 24 96     	ldx	$9624                   ; 0x9624 <fpr+0x32>
    244b: ac 24 96     	ldy	$9624                   ; 0x9624 <fpr+0x32>
    244e: 8c 04 96     	sty	$9604                   ; 0x9604 <fpr+0x12>
    2451: 8a           	txa
    2452: d0 03        	bne	$2457 <main+0x1fc3>
    2454: 4c b1 4d     	jmp	$4db1 <main+0x491d>
    2457: ae 25 96     	ldx	$9625                   ; 0x9625 <fpr+0x33>
    245a: ac 25 96     	ldy	$9625                   ; 0x9625 <fpr+0x33>
    245d: 8c 05 96     	sty	$9605                   ; 0x9605 <fpr+0x13>
    2460: 8a           	txa
    2461: d0 03        	bne	$2466 <main+0x1fd2>
    2463: 4c bf 4d     	jmp	$4dbf <main+0x492b>
    2466: ae 26 96     	ldx	$9626                   ; 0x9626 <fpr+0x34>
    2469: ac 26 96     	ldy	$9626                   ; 0x9626 <fpr+0x34>
    246c: 8c 06 96     	sty	$9606                   ; 0x9606 <fpr+0x14>
    246f: 8a           	txa
    2470: d0 03        	bne	$2475 <main+0x1fe1>
    2472: 4c cd 4d     	jmp	$4dcd <main+0x4939>
    2475: ae 27 96     	ldx	$9627                   ; 0x9627 <fpr+0x35>
    2478: ac 27 96     	ldy	$9627                   ; 0x9627 <fpr+0x35>
    247b: 8c 07 96     	sty	$9607                   ; 0x9607 <fpr+0x15>
    247e: 8a           	txa
    247f: d0 03        	bne	$2484 <main+0x1ff0>
    2481: 4c db 4d     	jmp	$4ddb <main+0x4947>
    2484: ae 28 96     	ldx	$9628                   ; 0x9628 <fpr+0x36>
    2487: ac 28 96     	ldy	$9628                   ; 0x9628 <fpr+0x36>
    248a: 8c 08 96     	sty	$9608                   ; 0x9608 <fpr+0x16>
    248d: 8a           	txa
    248e: d0 03        	bne	$2493 <main+0x1fff>
    2490: 4c e9 4d     	jmp	$4de9 <main+0x4955>
    2493: ae 29 96     	ldx	$9629                   ; 0x9629 <fpr+0x37>
    2496: ac 29 96     	ldy	$9629                   ; 0x9629 <fpr+0x37>
    2499: 8c 09 96     	sty	$9609                   ; 0x9609 <fpr+0x17>
    249c: 8a           	txa
    249d: d0 03        	bne	$24a2 <main+0x200e>
    249f: 4c f7 4d     	jmp	$4df7 <main+0x4963>
    24a2: ae 2a 96     	ldx	$962a                   ; 0x962a <fpr+0x38>
    24a5: ac 2a 96     	ldy	$962a                   ; 0x962a <fpr+0x38>
    24a8: 8c 0a 96     	sty	$960a                   ; 0x960a <fpr+0x18>
    24ab: 8a           	txa
    24ac: d0 03        	bne	$24b1 <main+0x201d>
    24ae: 4c 05 4e     	jmp	$4e05 <main+0x4971>
    24b1: ae 2b 96     	ldx	$962b                   ; 0x962b <fpr+0x39>
    24b4: ac 2b 96     	ldy	$962b                   ; 0x962b <fpr+0x39>
    24b7: 8c 0b 96     	sty	$960b                   ; 0x960b <fpr+0x19>
    24ba: 8a           	txa
    24bb: d0 03        	bne	$24c0 <main+0x202c>
    24bd: 4c 13 4e     	jmp	$4e13 <main+0x497f>
    24c0: ae 2c 96     	ldx	$962c                   ; 0x962c <fpr+0x3a>
    24c3: ac 2c 96     	ldy	$962c                   ; 0x962c <fpr+0x3a>
    24c6: 8c 0c 96     	sty	$960c                   ; 0x960c <fpr+0x1a>
    24c9: 8a           	txa
    24ca: d0 03        	bne	$24cf <main+0x203b>
    24cc: 4c 21 4e     	jmp	$4e21 <main+0x498d>
    24cf: ae 2d 96     	ldx	$962d                   ; 0x962d <fpr+0x3b>
    24d2: ac 2d 96     	ldy	$962d                   ; 0x962d <fpr+0x3b>
    24d5: 8c 0d 96     	sty	$960d                   ; 0x960d <fpr+0x1b>
    24d8: 8a           	txa
    24d9: d0 03        	bne	$24de <main+0x204a>
    24db: 4c 2f 4e     	jmp	$4e2f <main+0x499b>
    24de: ae 2e 96     	ldx	$962e                   ; 0x962e <fpr+0x3c>
    24e1: ac 2e 96     	ldy	$962e                   ; 0x962e <fpr+0x3c>
    24e4: 8c 0e 96     	sty	$960e                   ; 0x960e <fpr+0x1c>
    24e7: 8a           	txa
    24e8: d0 03        	bne	$24ed <main+0x2059>
    24ea: 4c 3d 4e     	jmp	$4e3d <main+0x49a9>
    24ed: a0 11        	ldy	#$11
    24ef: b1 10        	lda	($10),y                 ; 0x2010 <main+0x1b7c>
    24f1: ae 2f 96     	ldx	$962f                   ; 0x962f <fpr+0x3d>
    24f4: ac 2f 96     	ldy	$962f                   ; 0x962f <fpr+0x3d>
    24f7: 8c 0f 96     	sty	$960f                   ; 0x960f <fpr+0x1d>
    24fa: 8a           	txa
    24fb: d0 03        	bne	$2500 <main+0x206c>
    24fd: 4c 4b 4e     	jmp	$4e4b <main+0x49b7>
    2500: ae 30 96     	ldx	$9630                   ; 0x9630 <fpr+0x3e>
    2503: ac 30 96     	ldy	$9630                   ; 0x9630 <fpr+0x3e>
    2506: 8c 10 96     	sty	$9610                   ; 0x9610 <fpr+0x1e>
    2509: 8a           	txa
    250a: d0 03        	bne	$250f <main+0x207b>
    250c: 4c 57 4e     	jmp	$4e57 <main+0x49c3>
    250f: ae 31 96     	ldx	$9631                   ; 0x9631 <fpr+0x3f>
    2512: ac 31 96     	ldy	$9631                   ; 0x9631 <fpr+0x3f>
    2515: 8c 11 96     	sty	$9611                   ; 0x9611 <fpr+0x1f>
    2518: 8a           	txa
    2519: d0 03        	bne	$251e <main+0x208a>
    251b: 4c 63 4e     	jmp	$4e63 <main+0x49cf>
    251e: ae 32 96     	ldx	$9632                   ; 0x9632 <fpr+0x40>
    2521: ac 32 96     	ldy	$9632                   ; 0x9632 <fpr+0x40>
    2524: 8c 12 96     	sty	$9612                   ; 0x9612 <fpr+0x20>
    2527: 8a           	txa
    2528: d0 03        	bne	$252d <main+0x2099>
    252a: 4c 6f 4e     	jmp	$4e6f <main+0x49db>
    252d: ae 33 96     	ldx	$9633                   ; 0x9633 <fpr+0x41>
    2530: 8e 13 96     	stx	$9613                   ; 0x9613 <fpr+0x21>
    2533: 64 24        	stz	$24                     ; 0x2024 <main+0x1b90>
    2535: 4c 40 22     	jmp	$2240 <main+0x1dac>
    2538: 64 33        	stz	$33                     ; 0x2033 <main+0x1b9f>
    253a: 9c 14 d0     	stz	$d014                   ; 0xd014 <end_block9+0x2ca4>
    253d: 9c 15 d0     	stz	$d015                   ; 0xd015 <end_block9+0x2ca5>
    2540: a2 14        	ldx	#$14
    2542: 86 34        	stx	$34                     ; 0x2034 <main+0x1ba0>
    2544: 8e 16 d0     	stx	$d016                   ; 0xd016 <end_block9+0x2ca6>
    2547: 9c 17 d0     	stz	$d017                   ; 0xd017 <end_block9+0x2ca7>
    254a: a9 14        	lda	#$14
    254c: 92 10        	sta	($10)                   ; 0x2010 <main+0x1b7c>
    254e: a0 01        	ldy	#$1
    2550: a9 96        	lda	#$96
    2552: 91 10        	sta	($10),y                 ; 0x2010 <main+0x1b7c>
    2554: a2 6d        	ldx	#$6d
    2556: 86 12        	stx	$12                     ; 0x2012 <main+0x1b7e>
    2558: a2 67        	ldx	#$67
    255a: 86 13        	stx	$13                     ; 0x2013 <main+0x1b7f>
    255c: 20 a9 64     	jsr	$64a9 <printf>
    255f: a2 04        	ldx	#$4
    2561: 8e 01 d0     	stx	$d001                   ; 0xd001 <end_block9+0x2c91>
    2564: a6 10        	ldx	$10                     ; 0x2010 <main+0x1b7c>
    2566: a0 02        	ldy	#$2
    2568: a9 f4        	lda	#$f4
    256a: 91 10        	sta	($10),y                 ; 0x2010 <main+0x1b7c>
    256c: a9 86        	lda	#$86
    256e: 92 10        	sta	($10)                   ; 0x2010 <main+0x1b7c>
    2570: a9 67        	lda	#$67
    2572: 88           	dey
    2573: 91 10        	sta	($10),y                 ; 0x2010 <main+0x1b7c>
    2575: 18           	clc
    2576: 8a           	txa
    2577: 69 02        	adc	#$2
    2579: 85 12        	sta	$12                     ; 0x2012 <main+0x1b7e>
    257b: a5 11        	lda	$11                     ; 0x2011 <main+0x1b7d>
    257d: 69 00        	adc	#$0
    257f: 85 13        	sta	$13                     ; 0x2013 <main+0x1b7f>
    2581: a9 95        	lda	#$95
    2583: 91 12        	sta	($12),y                 ; 0x2012 <main+0x1b7e>
    2585: 18           	clc
    2586: 8a           	txa
    2587: 69 04        	adc	#$4
    2589: 85 12        	sta	$12                     ; 0x2012 <main+0x1b7e>
    258b: a5 11        	lda	$11                     ; 0x2011 <main+0x1b7d>
    258d: 69 00        	adc	#$0
    258f: 85 13        	sta	$13                     ; 0x2013 <main+0x1b7f>
    2591: a9 67        	lda	#$67
    2593: a0 04        	ldy	#$4
    2595: 91 10        	sta	($10),y                 ; 0x2010 <main+0x1b7c>
    2597: a9 67        	lda	#$67
    2599: a0 01        	ldy	#$1
    259b: 91 12        	sta	($12),y                 ; 0x2012 <main+0x1b7e>
    259d: 18           	clc
    259e: 8a           	txa
    259f: 69 06        	adc	#$6
    25a1: 85 12        	sta	$12                     ; 0x2012 <main+0x1b7e>
    25a3: a5 11        	lda	$11                     ; 0x2011 <main+0x1b7d>
    25a5: 69 00        	adc	#$0
    25a7: 85 13        	sta	$13                     ; 0x2013 <main+0x1b7f>
    25a9: a9 14        	lda	#$14
    25ab: a0 06        	ldy	#$6
    25ad: 91 10        	sta	($10),y                 ; 0x2010 <main+0x1b7c>
    25af: a9 96        	lda	#$96
    25b1: a0 01        	ldy	#$1
    25b3: 91 12        	sta	($12),y                 ; 0x2012 <main+0x1b7e>
    25b5: 20 31 65     	jsr	$6531 <sprintf>
    25b8: a9 2a        	lda	#$2a
    25ba: 92 10        	sta	($10)                   ; 0x2010 <main+0x1b7c>
    25bc: a0 01        	ldy	#$1
    25be: a9 a3        	lda	#$a3
    25c0: 91 10        	sta	($10),y                 ; 0x2010 <main+0x1b7c>
    25c2: a2 e6        	ldx	#$e6
    25c4: 86 12        	stx	$12                     ; 0x2012 <main+0x1b7e>
    25c6: a2 66        	ldx	#$66
    25c8: 86 13        	stx	$13                     ; 0x2013 <main+0x1b7f>
    25ca: 20 a9 64     	jsr	$64a9 <printf>
    25cd: ae 2a a3     	ldx	$a32a                   ; 0xa32a <finalName>
    25d0: f0 39        	beq	$260b <main+0x2177>
    25d2: 86 18        	stx	$18                     ; 0x2018 <main+0x1b84>
    25d4: 64 12        	stz	$12                     ; 0x2012 <main+0x1b7e>
    25d6: 64 13        	stz	$13                     ; 0x2013 <main+0x1b7f>
    25d8: a0 38        	ldy	#$38
    25da: b1 10        	lda	($10),y                 ; 0x2010 <main+0x1b7c>
    25dc: 85 16        	sta	$16                     ; 0x2016 <main+0x1b82>
    25de: c8           	iny
    25df: b1 10        	lda	($10),y                 ; 0x2010 <main+0x1b7c>
    25e1: 85 17        	sta	$17                     ; 0x2017 <main+0x1b83>
    25e3: a6 12        	ldx	$12                     ; 0x2012 <main+0x1b7e>
    25e5: a4 13        	ldy	$13                     ; 0x2013 <main+0x1b7f>
    25e7: e8           	inx
    25e8: d0 01        	bne	$25eb <main+0x2157>
    25ea: c8           	iny
    25eb: a9 2b        	lda	#$2b
    25ed: 18           	clc
    25ee: 65 12        	adc	$12                     ; 0x2012 <main+0x1b7e>
    25f0: 85 12        	sta	$12                     ; 0x2012 <main+0x1b7e>
    25f2: a9 a3        	lda	#$a3
    25f4: 65 13        	adc	$13                     ; 0x2013 <main+0x1b7f>
    25f6: 85 13        	sta	$13                     ; 0x2013 <main+0x1b7f>
    25f8: b2 12        	lda	($12)                   ; 0x2012 <main+0x1b7e>
    25fa: 86 12        	stx	$12                     ; 0x2012 <main+0x1b7e>
    25fc: 84 13        	sty	$13                     ; 0x2013 <main+0x1b7f>
    25fe: d0 e3        	bne	$25e3 <main+0x214f>
    2600: 98           	tya
    2601: d0 19        	bne	$261c <main+0x2188>
    2603: e0 02        	cpx	#$2
    2605: b0 19        	bcs	$2620 <main+0x218c>
    2607: a0 00        	ldy	#$0
    2609: 80 38        	bra	$2643 <main+0x21af>
    260b: a0 00        	ldy	#$0
    260d: 5a           	phy
    260e: a0 38        	ldy	#$38
    2610: b1 10        	lda	($10),y                 ; 0x2010 <main+0x1b7c>
    2612: 85 16        	sta	$16                     ; 0x2016 <main+0x1b82>
    2614: c8           	iny
    2615: b1 10        	lda	($10),y                 ; 0x2010 <main+0x1b7c>
    2617: 7a           	ply
    2618: 85 17        	sta	$17                     ; 0x2017 <main+0x1b83>
    261a: 80 27        	bra	$2643 <main+0x21af>
    261c: c0 00        	cpy	#$0
    261e: 90 e7        	bcc	$2607 <main+0x2173>
    2620: ae 2b a3     	ldx	$a32b                   ; 0xa32b <finalName+0x1>
    2623: a0 00        	ldy	#$0
    2625: e0 3a        	cpx	#$3a
    2627: d0 1a        	bne	$2643 <main+0x21af>
    2629: a5 18        	lda	$18                     ; 0x2018 <main+0x1b84>
    262b: c9 30        	cmp	#$30
    262d: 90 0a        	bcc	$2639 <main+0x21a5>
    262f: c9 38        	cmp	#$38
    2631: b0 06        	bcs	$2639 <main+0x21a5>
    2633: 18           	clc
    2634: 69 d0        	adc	#$d0
    2636: a8           	tay
    2637: 80 02        	bra	$263b <main+0x21a7>
    2639: a0 00        	ldy	#$0
    263b: a2 2c        	ldx	#$2c
    263d: 86 2a        	stx	$2a                     ; 0x202a <main+0x1b96>
    263f: a2 a3        	ldx	#$a3
    2641: 86 2b        	stx	$2b                     ; 0x202b <main+0x1b97>
    2643: 84 18        	sty	$18                     ; 0x2018 <main+0x1b84>
    2645: a2 90        	ldx	#$90
    2647: 86 12        	stx	$12                     ; 0x2012 <main+0x1b7e>
    2649: a2 67        	ldx	#$67
    264b: 86 13        	stx	$13                     ; 0x2013 <main+0x1b7f>
    264d: a2 00        	ldx	#$0
    264f: 80 0a        	bra	$265b <main+0x21c7>
    2651: a0 02        	ldy	#$2
    2653: e6 12        	inc	$12                     ; 0x2012 <main+0x1b7e>
    2655: d0 02        	bne	$2659 <main+0x21c5>
    2657: e6 13        	inc	$13                     ; 0x2013 <main+0x1b7f>
    2659: 5a           	phy
    265a: fa           	plx
    265b: b2 12        	lda	($12)                   ; 0x2012 <main+0x1b7e>
    265d: c9 61        	cmp	#$61
    265f: f0 f0        	beq	$2651 <main+0x21bd>
    2661: a0 01        	ldy	#$1
    2663: c9 77        	cmp	#$77
    2665: f0 05        	beq	$266c <main+0x21d8>
    2667: a8           	tay
    2668: f0 08        	beq	$2672 <main+0x21de>
    266a: da           	phx
    266b: 7a           	ply
    266c: e6 12        	inc	$12                     ; 0x2012 <main+0x1b7e>
    266e: f0 e7        	beq	$2657 <main+0x21c3>
    2670: 80 e7        	bra	$2659 <main+0x21c5>
    2672: a4 2a        	ldy	$2a                     ; 0x202a <main+0x1b96>
    2674: a5 2b        	lda	$2b                     ; 0x202b <main+0x1b97>
    2676: 84 fb        	sty	$fb                     ; 0x20fb <main+0x1c67>
    2678: 85 fc        	sta	$fc                     ; 0x20fc <main+0x1c68>
    267a: b2 2a        	lda	($2a)                   ; 0x202a <main+0x1b96>
    267c: f0 33        	beq	$26b1 <main+0x221d>
    267e: 64 13        	stz	$13                     ; 0x2013 <main+0x1b7f>
    2680: a0 01        	ldy	#$1
    2682: a9 00        	lda	#$0
    2684: 64 12        	stz	$12                     ; 0x2012 <main+0x1b7e>
    2686: 5a           	phy
    2687: a4 13        	ldy	$13                     ; 0x2013 <main+0x1b7f>
    2689: 84 14        	sty	$14                     ; 0x2014 <main+0x1b80>
    268b: 7a           	ply
    268c: e6 13        	inc	$13                     ; 0x2013 <main+0x1b7f>
    268e: d0 02        	bne	$2692 <main+0x21fe>
    2690: e6 12        	inc	$12                     ; 0x2012 <main+0x1b7e>
    2692: 18           	clc
    2693: 85 15        	sta	$15                     ; 0x2015 <main+0x1b81>
    2695: a5 14        	lda	$14                     ; 0x2014 <main+0x1b80>
    2697: 65 2a        	adc	$2a                     ; 0x202a <main+0x1b96>
    2699: 85 14        	sta	$14                     ; 0x2014 <main+0x1b80>
    269b: a5 15        	lda	$15                     ; 0x2015 <main+0x1b81>
    269d: 65 2b        	adc	$2b                     ; 0x202b <main+0x1b97>
    269f: 85 15        	sta	$15                     ; 0x2015 <main+0x1b81>
    26a1: b1 14        	lda	($14),y                 ; 0x2014 <main+0x1b80>
    26a3: 85 14        	sta	$14                     ; 0x2014 <main+0x1b80>
    26a5: a5 12        	lda	$12                     ; 0x2012 <main+0x1b7e>
    26a7: e6 14        	inc	$14                     ; 0x2014 <main+0x1b80>
    26a9: c6 14        	dec	$14                     ; 0x2014 <main+0x1b80>
    26ab: d0 d9        	bne	$2686 <main+0x21f2>
    26ad: a4 13        	ldy	$13                     ; 0x2013 <main+0x1b7f>
    26af: 80 02        	bra	$26b3 <main+0x221f>
    26b1: a0 00        	ldy	#$0
    26b3: 84 fd        	sty	$fd                     ; 0x20fd <main+0x1c69>
    26b5: a4 18        	ldy	$18                     ; 0x2018 <main+0x1b84>
    26b7: 84 f3        	sty	$f3                     ; 0x20f3 <main+0x1c5f>
    26b9: 86 f5        	stx	$f5                     ; 0x20f5 <main+0x1c61>
    26bb: a2 39        	ldx	#$39
    26bd: 86 12        	stx	$12                     ; 0x2012 <main+0x1b7e>
    26bf: a2 00        	ldx	#$0
    26c1: 86 13        	stx	$13                     ; 0x2013 <main+0x1b7f>
    26c3: 20 5c ff     	jsr	$ff5c <end_block9+0x5bec>
    26c6: 92 16        	sta	($16)                   ; 0x2016 <main+0x1b82>
    26c8: a9 00        	lda	#$0
    26ca: 6a           	ror
    26cb: 85 12        	sta	$12                     ; 0x2012 <main+0x1b7e>
    26cd: a6 39        	ldx	$39                     ; 0x2039 <main+0x1ba5>
    26cf: d0 03        	bne	$26d4 <main+0x2240>
    26d1: 4c 5c 3c     	jmp	$3c5c <main+0x37c8>
    26d4: a2 00        	ldx	#$0
    26d6: 86 12        	stx	$12                     ; 0x2012 <main+0x1b7e>
    26d8: a2 00        	ldx	#$0
    26da: 86 13        	stx	$13                     ; 0x2013 <main+0x1b7f>
    26dc: a6 12        	ldx	$12                     ; 0x2012 <main+0x1b7e>
    26de: a4 13        	ldy	$13                     ; 0x2013 <main+0x1b7f>
    26e0: 86 37        	stx	$37                     ; 0x2037 <main+0x1ba3>
    26e2: 84 38        	sty	$38                     ; 0x2038 <main+0x1ba4>
    26e4: a2 93        	ldx	#$93
    26e6: 86 12        	stx	$12                     ; 0x2012 <main+0x1b7e>
    26e8: a2 67        	ldx	#$67
    26ea: 86 13        	stx	$13                     ; 0x2013 <main+0x1b7f>
    26ec: 20 a9 64     	jsr	$64a9 <printf>
    26ef: a0 11        	ldy	#$11
    26f1: b1 10        	lda	($10),y                 ; 0x2010 <main+0x1b7c>
    26f3: 85 26        	sta	$26                     ; 0x2026 <main+0x1b92>
    26f5: a2 1f        	ldx	#$1f
    26f7: 8e 20 d6     	stx	$d620                   ; 0xd620 <end_block9+0x32b0>
    26fa: a2 2a        	ldx	#$2a
    26fc: 8e 21 d6     	stx	$d621                   ; 0xd621 <end_block9+0x32b1>
    26ff: a2 01        	ldx	#$1
    2701: 8e 22 d6     	stx	$d622                   ; 0xd622 <end_block9+0x32b2>
    2704: ad 22 d6     	lda	$d622                   ; 0xd622 <end_block9+0x32b2>
    2707: 29 01        	and	#$1
    2709: d0 f9        	bne	$2704 <main+0x2270>
    270b: a2 03        	ldx	#$3
    270d: 8e 01 d7     	stx	$d701                   ; 0xd701 <end_block9+0x3391>
    2710: 9c 02 d7     	stz	$d702                   ; 0xd702 <end_block9+0x3392>
    2713: 9c 02 d7     	stz	$d702                   ; 0xd702 <end_block9+0x3392>
    2716: a2 e0        	ldx	#$e0
    2718: 8e 03 d7     	stx	$d703                   ; 0xd703 <end_block9+0x3393>
    271b: a2 01        	ldx	#$1
    271d: 8e 00 d7     	stx	$d700                   ; 0xd700 <end_block9+0x3390>
    2720: 9c 00 d7     	stz	$d700                   ; 0xd700 <end_block9+0x3390>
    2723: ae 00 d7     	ldx	$d700                   ; 0xd700 <end_block9+0x3390>
    2726: 30 fb        	bmi	$2723 <main+0x228f>
    2728: 64 12        	stz	$12                     ; 0x2012 <main+0x1b7e>
    272a: a0 01        	ldy	#$1
    272c: a2 00        	ldx	#$0
    272e: a5 12        	lda	$12                     ; 0x2012 <main+0x1b7e>
    2730: 85 14        	sta	$14                     ; 0x2014 <main+0x1b80>
    2732: a5 12        	lda	$12                     ; 0x2012 <main+0x1b7e>
    2734: 0a           	asl
    2735: 85 12        	sta	$12                     ; 0x2012 <main+0x1b7e>
    2737: 8a           	txa
    2738: 2a           	rol
    2739: 85 13        	sta	$13                     ; 0x2013 <main+0x1b7f>
    273b: a9 96        	lda	#$96
    273d: 18           	clc
    273e: 65 12        	adc	$12                     ; 0x2012 <main+0x1b7e>
    2740: 85 12        	sta	$12                     ; 0x2012 <main+0x1b7e>
    2742: a9 68        	lda	#$68
    2744: 65 13        	adc	$13                     ; 0x2013 <main+0x1b7f>
    2746: 85 15        	sta	$15                     ; 0x2015 <main+0x1b81>
    2748: a5 12        	lda	$12                     ; 0x2012 <main+0x1b7e>
    274a: 85 17        	sta	$17                     ; 0x2017 <main+0x1b83>
    274c: a5 15        	lda	$15                     ; 0x2015 <main+0x1b81>
    274e: 85 13        	sta	$13                     ; 0x2013 <main+0x1b7f>
    2750: b2 12        	lda	($12)                   ; 0x2012 <main+0x1b7e>
    2752: 85 16        	sta	$16                     ; 0x2016 <main+0x1b82>
    2754: 18           	clc
    2755: a5 14        	lda	$14                     ; 0x2014 <main+0x1b80>
    2757: 85 1a        	sta	$1a                     ; 0x201a <main+0x1b86>
    2759: a5 14        	lda	$14                     ; 0x2014 <main+0x1b80>
    275b: 69 02        	adc	#$2
    275d: 85 18        	sta	$18                     ; 0x2018 <main+0x1b84>
    275f: 86 19        	stx	$19                     ; 0x2019 <main+0x1b85>
    2761: 8a           	txa
    2762: 69 00        	adc	#$0
    2764: aa           	tax
    2765: 18           	clc
    2766: a5 17        	lda	$17                     ; 0x2017 <main+0x1b83>
    2768: 69 02        	adc	#$2
    276a: 85 14        	sta	$14                     ; 0x2014 <main+0x1b80>
    276c: a5 15        	lda	$15                     ; 0x2015 <main+0x1b81>
    276e: 69 00        	adc	#$0
    2770: 85 15        	sta	$15                     ; 0x2015 <main+0x1b81>
    2772: b1 12        	lda	($12),y                 ; 0x2012 <main+0x1b7e>
    2774: 85 17        	sta	$17                     ; 0x2017 <main+0x1b83>
    2776: a0 02        	ldy	#$2
    2778: b1 12        	lda	($12),y                 ; 0x2012 <main+0x1b7e>
    277a: 85 13        	sta	$13                     ; 0x2013 <main+0x1b7f>
    277c: 88           	dey
    277d: b1 14        	lda	($14),y                 ; 0x2014 <main+0x1b80>
    277f: 10 03        	bpl	$2784 <main+0x22f0>
    2781: 4c 24 28     	jmp	$2824 <main+0x2390>
    2784: 85 12        	sta	$12                     ; 0x2012 <main+0x1b7e>
    2786: 85 15        	sta	$15                     ; 0x2015 <main+0x1b81>
    2788: a5 13        	lda	$13                     ; 0x2013 <main+0x1b7f>
    278a: e6 12        	inc	$12                     ; 0x2012 <main+0x1b7e>
    278c: c6 12        	dec	$12                     ; 0x2012 <main+0x1b7e>
    278e: d0 16        	bne	$27a6 <main+0x2312>
    2790: c9 00        	cmp	#$0
    2792: d0 12        	bne	$27a6 <main+0x2312>
    2794: 4c 0f 28     	jmp	$280f <main+0x237b>
    2797: a5 12        	lda	$12                     ; 0x2012 <main+0x1b7e>
    2799: 85 15        	sta	$15                     ; 0x2015 <main+0x1b81>
    279b: a5 14        	lda	$14                     ; 0x2014 <main+0x1b80>
    279d: 85 13        	sta	$13                     ; 0x2013 <main+0x1b7f>
    279f: a5 12        	lda	$12                     ; 0x2012 <main+0x1b7e>
    27a1: d0 03        	bne	$27a6 <main+0x2312>
    27a3: 4c 08 28     	jmp	$2808 <main+0x2374>
    27a6: a5 13        	lda	$13                     ; 0x2013 <main+0x1b7f>
    27a8: 85 14        	sta	$14                     ; 0x2014 <main+0x1b80>
    27aa: a5 18        	lda	$18                     ; 0x2018 <main+0x1b84>
    27ac: 85 19        	sta	$19                     ; 0x2019 <main+0x1b85>
    27ae: a5 18        	lda	$18                     ; 0x2018 <main+0x1b84>
    27b0: 0a           	asl
    27b1: 85 12        	sta	$12                     ; 0x2012 <main+0x1b7e>
    27b3: 86 18        	stx	$18                     ; 0x2018 <main+0x1b84>
    27b5: 8a           	txa
    27b6: 2a           	rol
    27b7: 85 13        	sta	$13                     ; 0x2013 <main+0x1b7f>
    27b9: a9 96        	lda	#$96
    27bb: 18           	clc
    27bc: 65 12        	adc	$12                     ; 0x2012 <main+0x1b7e>
    27be: 85 12        	sta	$12                     ; 0x2012 <main+0x1b7e>
    27c0: a9 68        	lda	#$68
    27c2: 65 13        	adc	$13                     ; 0x2013 <main+0x1b7f>
    27c4: 85 13        	sta	$13                     ; 0x2013 <main+0x1b7f>
    27c6: b2 12        	lda	($12)                   ; 0x2012 <main+0x1b7e>
    27c8: 85 1a        	sta	$1a                     ; 0x201a <main+0x1b86>
    27ca: b1 12        	lda	($12),y                 ; 0x2012 <main+0x1b7e>
    27cc: a6 16        	ldx	$16                     ; 0x2016 <main+0x1b82>
    27ce: 8e 01 d7     	stx	$d701                   ; 0xd701 <end_block9+0x3391>
    27d1: a6 17        	ldx	$17                     ; 0x2017 <main+0x1b83>
    27d3: 8e 02 d7     	stx	$d702                   ; 0xd702 <end_block9+0x3392>
    27d6: a6 1a        	ldx	$1a                     ; 0x201a <main+0x1b86>
    27d8: 8e 02 d7     	stx	$d702                   ; 0xd702 <end_block9+0x3392>
    27db: 8d 03 d7     	sta	$d703                   ; 0xd703 <end_block9+0x3393>
    27de: 8c 00 d7     	sty	$d700                   ; 0xd700 <end_block9+0x3390>
    27e1: 9c 00 d7     	stz	$d700                   ; 0xd700 <end_block9+0x3390>
    27e4: ae 00 d7     	ldx	$d700                   ; 0xd700 <end_block9+0x3390>
    27e7: 30 fb        	bmi	$27e4 <main+0x2350>
    27e9: a6 15        	ldx	$15                     ; 0x2015 <main+0x1b81>
    27eb: 86 12        	stx	$12                     ; 0x2012 <main+0x1b7e>
    27ed: a2 ff        	ldx	#$ff
    27ef: c6 14        	dec	$14                     ; 0x2014 <main+0x1b80>
    27f1: e4 14        	cpx	$14                     ; 0x2014 <main+0x1b80>
    27f3: d0 02        	bne	$27f7 <main+0x2363>
    27f5: c6 12        	dec	$12                     ; 0x2012 <main+0x1b7e>
    27f7: a6 18        	ldx	$18                     ; 0x2018 <main+0x1b84>
    27f9: a5 19        	lda	$19                     ; 0x2019 <main+0x1b85>
    27fb: 85 18        	sta	$18                     ; 0x2018 <main+0x1b84>
    27fd: e6 18        	inc	$18                     ; 0x2018 <main+0x1b84>
    27ff: f0 03        	beq	$2804 <main+0x2370>
    2801: 4c 97 27     	jmp	$2797 <main+0x2303>
    2804: e8           	inx
    2805: 4c 97 27     	jmp	$2797 <main+0x2303>
    2808: a5 14        	lda	$14                     ; 0x2014 <main+0x1b80>
    280a: f0 03        	beq	$280f <main+0x237b>
    280c: 4c a6 27     	jmp	$27a6 <main+0x2312>
    280f: a5 18        	lda	$18                     ; 0x2018 <main+0x1b84>
    2811: e0 12        	cpx	#$12
    2813: f0 03        	beq	$2818 <main+0x2384>
    2815: 4c b5 28     	jmp	$28b5 <main+0x2421>
    2818: c9 3b        	cmp	#$3b
    281a: 85 12        	sta	$12                     ; 0x2012 <main+0x1b7e>
    281c: b0 03        	bcs	$2821 <main+0x238d>
    281e: 4c 2e 27     	jmp	$272e <main+0x229a>
    2821: 4c be 28     	jmp	$28be <main+0x242a>
    2824: 29 7f        	and	#$7f
    2826: 85 1b        	sta	$1b                     ; 0x201b <main+0x1b87>
    2828: 18           	clc
    2829: a5 1a        	lda	$1a                     ; 0x201a <main+0x1b86>
    282b: 69 03        	adc	#$3
    282d: 85 15        	sta	$15                     ; 0x2015 <main+0x1b81>
    282f: a5 19        	lda	$19                     ; 0x2019 <main+0x1b85>
    2831: 69 00        	adc	#$0
    2833: 5a           	phy
    2834: a4 13        	ldy	$13                     ; 0x2013 <main+0x1b7f>
    2836: 84 1a        	sty	$1a                     ; 0x201a <main+0x1b86>
    2838: 7a           	ply
    2839: e6 1b        	inc	$1b                     ; 0x201b <main+0x1b87>
    283b: c6 1b        	dec	$1b                     ; 0x201b <main+0x1b87>
    283d: d0 09        	bne	$2848 <main+0x23b4>
    283f: e6 1a        	inc	$1a                     ; 0x201a <main+0x1b86>
    2841: c6 1a        	dec	$1a                     ; 0x201a <main+0x1b86>
    2843: d0 03        	bne	$2848 <main+0x23b4>
    2845: 4c d9 40     	jmp	$40d9 <main+0x3c45>
    2848: 5a           	phy
    2849: a4 1b        	ldy	$1b                     ; 0x201b <main+0x1b87>
    284b: 84 14        	sty	$14                     ; 0x2014 <main+0x1b80>
    284d: 7a           	ply
    284e: 85 19        	sta	$19                     ; 0x2019 <main+0x1b85>
    2850: a5 18        	lda	$18                     ; 0x2018 <main+0x1b84>
    2852: 85 12        	sta	$12                     ; 0x2012 <main+0x1b7e>
    2854: 06 12        	asl	$12                     ; 0x2012 <main+0x1b7e>
    2856: 86 13        	stx	$13                     ; 0x2013 <main+0x1b7f>
    2858: 26 13        	rol	$13                     ; 0x2013 <main+0x1b7f>
    285a: 18           	clc
    285b: a9 96        	lda	#$96
    285d: 65 12        	adc	$12                     ; 0x2012 <main+0x1b7e>
    285f: 85 12        	sta	$12                     ; 0x2012 <main+0x1b7e>
    2861: a9 68        	lda	#$68
    2863: 65 13        	adc	$13                     ; 0x2013 <main+0x1b7f>
    2865: 85 13        	sta	$13                     ; 0x2013 <main+0x1b7f>
    2867: b2 12        	lda	($12)                   ; 0x2012 <main+0x1b7e>
    2869: 85 18        	sta	$18                     ; 0x2018 <main+0x1b84>
    286b: b1 12        	lda	($12),y                 ; 0x2012 <main+0x1b7e>
    286d: 80 06        	bra	$2875 <main+0x23e1>
    286f: a6 12        	ldx	$12                     ; 0x2012 <main+0x1b7e>
    2871: 86 14        	stx	$14                     ; 0x2014 <main+0x1b80>
    2873: f0 2d        	beq	$28a2 <main+0x240e>
    2875: a6 16        	ldx	$16                     ; 0x2016 <main+0x1b82>
    2877: 8e 01 d7     	stx	$d701                   ; 0xd701 <end_block9+0x3391>
    287a: a6 17        	ldx	$17                     ; 0x2017 <main+0x1b83>
    287c: 8e 02 d7     	stx	$d702                   ; 0xd702 <end_block9+0x3392>
    287f: a6 18        	ldx	$18                     ; 0x2018 <main+0x1b84>
    2881: 8e 02 d7     	stx	$d702                   ; 0xd702 <end_block9+0x3392>
    2884: 8d 03 d7     	sta	$d703                   ; 0xd703 <end_block9+0x3393>
    2887: 8c 00 d7     	sty	$d700                   ; 0xd700 <end_block9+0x3390>
    288a: 9c 00 d7     	stz	$d700                   ; 0xd700 <end_block9+0x3390>
    288d: ae 00 d7     	ldx	$d700                   ; 0xd700 <end_block9+0x3390>
    2890: 30 fb        	bmi	$288d <main+0x23f9>
    2892: a6 14        	ldx	$14                     ; 0x2014 <main+0x1b80>
    2894: 86 12        	stx	$12                     ; 0x2012 <main+0x1b7e>
    2896: a2 ff        	ldx	#$ff
    2898: c6 1a        	dec	$1a                     ; 0x201a <main+0x1b86>
    289a: e4 1a        	cpx	$1a                     ; 0x201a <main+0x1b86>
    289c: d0 d1        	bne	$286f <main+0x23db>
    289e: c6 12        	dec	$12                     ; 0x2012 <main+0x1b7e>
    28a0: 80 cd        	bra	$286f <main+0x23db>
    28a2: a6 1a        	ldx	$1a                     ; 0x201a <main+0x1b86>
    28a4: d0 cf        	bne	$2875 <main+0x23e1>
    28a6: a6 15        	ldx	$15                     ; 0x2015 <main+0x1b81>
    28a8: 86 18        	stx	$18                     ; 0x2018 <main+0x1b84>
    28aa: a6 19        	ldx	$19                     ; 0x2019 <main+0x1b85>
    28ac: a5 18        	lda	$18                     ; 0x2018 <main+0x1b84>
    28ae: e0 12        	cpx	#$12
    28b0: d0 03        	bne	$28b5 <main+0x2421>
    28b2: 4c 18 28     	jmp	$2818 <main+0x2384>
    28b5: e0 12        	cpx	#$12
    28b7: 85 12        	sta	$12                     ; 0x2012 <main+0x1b7e>
    28b9: b0 03        	bcs	$28be <main+0x242a>
    28bb: 4c 2e 27     	jmp	$272e <main+0x229a>
    28be: 64 12        	stz	$12                     ; 0x2012 <main+0x1b7e>
    28c0: a0 01        	ldy	#$1
    28c2: a2 00        	ldx	#$0
    28c4: a5 12        	lda	$12                     ; 0x2012 <main+0x1b7e>
    28c6: 85 14        	sta	$14                     ; 0x2014 <main+0x1b80>
    28c8: a5 12        	lda	$12                     ; 0x2012 <main+0x1b7e>
    28ca: 0a           	asl
    28cb: 85 12        	sta	$12                     ; 0x2012 <main+0x1b7e>
    28cd: 8a           	txa
    28ce: 2a           	rol
    28cf: 85 13        	sta	$13                     ; 0x2013 <main+0x1b7f>
    28d1: a9 0c        	lda	#$c
    28d3: 18           	clc
    28d4: 65 12        	adc	$12                     ; 0x2012 <main+0x1b7e>
    28d6: 85 12        	sta	$12                     ; 0x2012 <main+0x1b7e>
    28d8: a9 8d        	lda	#$8d
    28da: 65 13        	adc	$13                     ; 0x2013 <main+0x1b7f>
    28dc: 85 15        	sta	$15                     ; 0x2015 <main+0x1b81>
    28de: a5 12        	lda	$12                     ; 0x2012 <main+0x1b7e>
    28e0: 85 17        	sta	$17                     ; 0x2017 <main+0x1b83>
    28e2: a5 15        	lda	$15                     ; 0x2015 <main+0x1b81>
    28e4: 85 13        	sta	$13                     ; 0x2013 <main+0x1b7f>
    28e6: b2 12        	lda	($12)                   ; 0x2012 <main+0x1b7e>
    28e8: 85 16        	sta	$16                     ; 0x2016 <main+0x1b82>
    28ea: a5 14        	lda	$14                     ; 0x2014 <main+0x1b80>
    28ec: 85 1a        	sta	$1a                     ; 0x201a <main+0x1b86>
    28ee: a5 14        	lda	$14                     ; 0x2014 <main+0x1b80>
    28f0: 18           	clc
    28f1: 69 02        	adc	#$2
    28f3: 85 18        	sta	$18                     ; 0x2018 <main+0x1b84>
    28f5: 86 19        	stx	$19                     ; 0x2019 <main+0x1b85>
    28f7: 8a           	txa
    28f8: 69 00        	adc	#$0
    28fa: aa           	tax
    28fb: 18           	clc
    28fc: a5 17        	lda	$17                     ; 0x2017 <main+0x1b83>
    28fe: 69 02        	adc	#$2
    2900: 85 14        	sta	$14                     ; 0x2014 <main+0x1b80>
    2902: a5 15        	lda	$15                     ; 0x2015 <main+0x1b81>
    2904: 69 00        	adc	#$0
    2906: 85 15        	sta	$15                     ; 0x2015 <main+0x1b81>
    2908: b1 12        	lda	($12),y                 ; 0x2012 <main+0x1b7e>
    290a: 85 17        	sta	$17                     ; 0x2017 <main+0x1b83>
    290c: a0 02        	ldy	#$2
    290e: b1 12        	lda	($12),y                 ; 0x2012 <main+0x1b7e>
    2910: 85 13        	sta	$13                     ; 0x2013 <main+0x1b7f>
    2912: 88           	dey
    2913: b1 14        	lda	($14),y                 ; 0x2014 <main+0x1b80>
    2915: 10 03        	bpl	$291a <main+0x2486>
    2917: 4c ba 29     	jmp	$29ba <main+0x2526>
    291a: 85 12        	sta	$12                     ; 0x2012 <main+0x1b7e>
    291c: 85 15        	sta	$15                     ; 0x2015 <main+0x1b81>
    291e: a5 13        	lda	$13                     ; 0x2013 <main+0x1b7f>
    2920: e6 12        	inc	$12                     ; 0x2012 <main+0x1b7e>
    2922: c6 12        	dec	$12                     ; 0x2012 <main+0x1b7e>
    2924: d0 16        	bne	$293c <main+0x24a8>
    2926: c9 00        	cmp	#$0
    2928: d0 12        	bne	$293c <main+0x24a8>
    292a: 4c a5 29     	jmp	$29a5 <main+0x2511>
    292d: a5 12        	lda	$12                     ; 0x2012 <main+0x1b7e>
    292f: 85 15        	sta	$15                     ; 0x2015 <main+0x1b81>
    2931: a5 14        	lda	$14                     ; 0x2014 <main+0x1b80>
    2933: 85 13        	sta	$13                     ; 0x2013 <main+0x1b7f>
    2935: a5 12        	lda	$12                     ; 0x2012 <main+0x1b7e>
    2937: d0 03        	bne	$293c <main+0x24a8>
    2939: 4c 9e 29     	jmp	$299e <main+0x250a>
    293c: a5 13        	lda	$13                     ; 0x2013 <main+0x1b7f>
    293e: 85 14        	sta	$14                     ; 0x2014 <main+0x1b80>
    2940: a5 18        	lda	$18                     ; 0x2018 <main+0x1b84>
    2942: 85 19        	sta	$19                     ; 0x2019 <main+0x1b85>
    2944: a5 18        	lda	$18                     ; 0x2018 <main+0x1b84>
    2946: 0a           	asl
    2947: 85 12        	sta	$12                     ; 0x2012 <main+0x1b7e>
    2949: 86 18        	stx	$18                     ; 0x2018 <main+0x1b84>
    294b: 8a           	txa
    294c: 2a           	rol
    294d: 85 13        	sta	$13                     ; 0x2013 <main+0x1b7f>
    294f: a9 0c        	lda	#$c
    2951: 18           	clc
    2952: 65 12        	adc	$12                     ; 0x2012 <main+0x1b7e>
    2954: 85 12        	sta	$12                     ; 0x2012 <main+0x1b7e>
    2956: a9 8d        	lda	#$8d
    2958: 65 13        	adc	$13                     ; 0x2013 <main+0x1b7f>
    295a: 85 13        	sta	$13                     ; 0x2013 <main+0x1b7f>
    295c: b2 12        	lda	($12)                   ; 0x2012 <main+0x1b7e>
    295e: 85 1a        	sta	$1a                     ; 0x201a <main+0x1b86>
    2960: b1 12        	lda	($12),y                 ; 0x2012 <main+0x1b7e>
    2962: a6 16        	ldx	$16                     ; 0x2016 <main+0x1b82>
    2964: 8e 01 d7     	stx	$d701                   ; 0xd701 <end_block9+0x3391>
    2967: a6 17        	ldx	$17                     ; 0x2017 <main+0x1b83>
    2969: 8e 02 d7     	stx	$d702                   ; 0xd702 <end_block9+0x3392>
    296c: a6 1a        	ldx	$1a                     ; 0x201a <main+0x1b86>
    296e: 8e 02 d7     	stx	$d702                   ; 0xd702 <end_block9+0x3392>
    2971: 8d 03 d7     	sta	$d703                   ; 0xd703 <end_block9+0x3393>
    2974: 8c 00 d7     	sty	$d700                   ; 0xd700 <end_block9+0x3390>
    2977: 9c 00 d7     	stz	$d700                   ; 0xd700 <end_block9+0x3390>
    297a: ae 00 d7     	ldx	$d700                   ; 0xd700 <end_block9+0x3390>
    297d: 30 fb        	bmi	$297a <main+0x24e6>
    297f: a6 15        	ldx	$15                     ; 0x2015 <main+0x1b81>
    2981: 86 12        	stx	$12                     ; 0x2012 <main+0x1b7e>
    2983: a2 ff        	ldx	#$ff
    2985: c6 14        	dec	$14                     ; 0x2014 <main+0x1b80>
    2987: e4 14        	cpx	$14                     ; 0x2014 <main+0x1b80>
    2989: d0 02        	bne	$298d <main+0x24f9>
    298b: c6 12        	dec	$12                     ; 0x2012 <main+0x1b7e>
    298d: a6 18        	ldx	$18                     ; 0x2018 <main+0x1b84>
    298f: a5 19        	lda	$19                     ; 0x2019 <main+0x1b85>
    2991: 85 18        	sta	$18                     ; 0x2018 <main+0x1b84>
    2993: e6 18        	inc	$18                     ; 0x2018 <main+0x1b84>
    2995: f0 03        	beq	$299a <main+0x2506>
    2997: 4c 2d 29     	jmp	$292d <main+0x2499>
    299a: e8           	inx
    299b: 4c 2d 29     	jmp	$292d <main+0x2499>
    299e: a5 14        	lda	$14                     ; 0x2014 <main+0x1b80>
    29a0: f0 03        	beq	$29a5 <main+0x2511>
    29a2: 4c 3c 29     	jmp	$293c <main+0x24a8>
    29a5: a5 18        	lda	$18                     ; 0x2018 <main+0x1b84>
    29a7: e0 03        	cpx	#$3
    29a9: f0 03        	beq	$29ae <main+0x251a>
    29ab: 4c 4b 2a     	jmp	$2a4b <main+0x25b7>
    29ae: c9 e8        	cmp	#$e8
    29b0: 85 12        	sta	$12                     ; 0x2012 <main+0x1b7e>
    29b2: b0 03        	bcs	$29b7 <main+0x2523>
    29b4: 4c c4 28     	jmp	$28c4 <main+0x2430>
    29b7: 4c 54 2a     	jmp	$2a54 <main+0x25c0>
    29ba: 29 7f        	and	#$7f
    29bc: 85 1b        	sta	$1b                     ; 0x201b <main+0x1b87>
    29be: 18           	clc
    29bf: a5 1a        	lda	$1a                     ; 0x201a <main+0x1b86>
    29c1: 69 03        	adc	#$3
    29c3: 85 15        	sta	$15                     ; 0x2015 <main+0x1b81>
    29c5: a5 19        	lda	$19                     ; 0x2019 <main+0x1b85>
    29c7: 69 00        	adc	#$0
    29c9: 5a           	phy
    29ca: a4 13        	ldy	$13                     ; 0x2013 <main+0x1b7f>
    29cc: 84 1a        	sty	$1a                     ; 0x201a <main+0x1b86>
    29ce: 7a           	ply
    29cf: e6 1b        	inc	$1b                     ; 0x201b <main+0x1b87>
    29d1: c6 1b        	dec	$1b                     ; 0x201b <main+0x1b87>
    29d3: d0 09        	bne	$29de <main+0x254a>
    29d5: e6 1a        	inc	$1a                     ; 0x201a <main+0x1b86>
    29d7: c6 1a        	dec	$1a                     ; 0x201a <main+0x1b86>
    29d9: d0 03        	bne	$29de <main+0x254a>
    29db: 4c ea 40     	jmp	$40ea <main+0x3c56>
    29de: 5a           	phy
    29df: a4 1b        	ldy	$1b                     ; 0x201b <main+0x1b87>
    29e1: 84 14        	sty	$14                     ; 0x2014 <main+0x1b80>
    29e3: 7a           	ply
    29e4: 85 19        	sta	$19                     ; 0x2019 <main+0x1b85>
    29e6: a5 18        	lda	$18                     ; 0x2018 <main+0x1b84>
    29e8: 85 12        	sta	$12                     ; 0x2012 <main+0x1b7e>
    29ea: 06 12        	asl	$12                     ; 0x2012 <main+0x1b7e>
    29ec: 86 13        	stx	$13                     ; 0x2013 <main+0x1b7f>
    29ee: 26 13        	rol	$13                     ; 0x2013 <main+0x1b7f>
    29f0: 18           	clc
    29f1: a9 0c        	lda	#$c
    29f3: 65 12        	adc	$12                     ; 0x2012 <main+0x1b7e>
    29f5: 85 12        	sta	$12                     ; 0x2012 <main+0x1b7e>
    29f7: a9 8d        	lda	#$8d
    29f9: 65 13        	adc	$13                     ; 0x2013 <main+0x1b7f>
    29fb: 85 13        	sta	$13                     ; 0x2013 <main+0x1b7f>
    29fd: b2 12        	lda	($12)                   ; 0x2012 <main+0x1b7e>
    29ff: 85 18        	sta	$18                     ; 0x2018 <main+0x1b84>
    2a01: b1 12        	lda	($12),y                 ; 0x2012 <main+0x1b7e>
    2a03: 80 06        	bra	$2a0b <main+0x2577>
    2a05: a6 12        	ldx	$12                     ; 0x2012 <main+0x1b7e>
    2a07: 86 14        	stx	$14                     ; 0x2014 <main+0x1b80>
    2a09: f0 2d        	beq	$2a38 <main+0x25a4>
    2a0b: a6 16        	ldx	$16                     ; 0x2016 <main+0x1b82>
    2a0d: 8e 01 d7     	stx	$d701                   ; 0xd701 <end_block9+0x3391>
    2a10: a6 17        	ldx	$17                     ; 0x2017 <main+0x1b83>
    2a12: 8e 02 d7     	stx	$d702                   ; 0xd702 <end_block9+0x3392>
    2a15: a6 18        	ldx	$18                     ; 0x2018 <main+0x1b84>
    2a17: 8e 02 d7     	stx	$d702                   ; 0xd702 <end_block9+0x3392>
    2a1a: 8d 03 d7     	sta	$d703                   ; 0xd703 <end_block9+0x3393>
    2a1d: 8c 00 d7     	sty	$d700                   ; 0xd700 <end_block9+0x3390>
    2a20: 9c 00 d7     	stz	$d700                   ; 0xd700 <end_block9+0x3390>
    2a23: ae 00 d7     	ldx	$d700                   ; 0xd700 <end_block9+0x3390>
    2a26: 30 fb        	bmi	$2a23 <main+0x258f>
    2a28: a6 14        	ldx	$14                     ; 0x2014 <main+0x1b80>
    2a2a: 86 12        	stx	$12                     ; 0x2012 <main+0x1b7e>
    2a2c: a2 ff        	ldx	#$ff
    2a2e: c6 1a        	dec	$1a                     ; 0x201a <main+0x1b86>
    2a30: e4 1a        	cpx	$1a                     ; 0x201a <main+0x1b86>
    2a32: d0 d1        	bne	$2a05 <main+0x2571>
    2a34: c6 12        	dec	$12                     ; 0x2012 <main+0x1b7e>
    2a36: 80 cd        	bra	$2a05 <main+0x2571>
    2a38: a6 1a        	ldx	$1a                     ; 0x201a <main+0x1b86>
    2a3a: d0 cf        	bne	$2a0b <main+0x2577>
    2a3c: a6 15        	ldx	$15                     ; 0x2015 <main+0x1b81>
    2a3e: 86 18        	stx	$18                     ; 0x2018 <main+0x1b84>
    2a40: a6 19        	ldx	$19                     ; 0x2019 <main+0x1b85>
    2a42: a5 18        	lda	$18                     ; 0x2018 <main+0x1b84>
    2a44: e0 03        	cpx	#$3
    2a46: d0 03        	bne	$2a4b <main+0x25b7>
    2a48: 4c ae 29     	jmp	$29ae <main+0x251a>
    2a4b: e0 03        	cpx	#$3
    2a4d: 85 12        	sta	$12                     ; 0x2012 <main+0x1b7e>
    2a4f: b0 03        	bcs	$2a54 <main+0x25c0>
    2a51: 4c c4 28     	jmp	$28c4 <main+0x2430>
    2a54: a2 4f        	ldx	#$4f
    2a56: 86 12        	stx	$12                     ; 0x2012 <main+0x1b7e>
    2a58: a2 67        	ldx	#$67
    2a5a: 86 13        	stx	$13                     ; 0x2013 <main+0x1b7f>
    2a5c: 20 a9 64     	jsr	$64a9 <printf>
    2a5f: a6 37        	ldx	$37                     ; 0x2037 <main+0x1ba3>
    2a61: a4 38        	ldy	$38                     ; 0x2038 <main+0x1ba4>
    2a63: 86 12        	stx	$12                     ; 0x2012 <main+0x1b7e>
    2a65: 84 13        	sty	$13                     ; 0x2013 <main+0x1b7f>
    2a67: a2 00        	ldx	#$0
    2a69: 18           	clc
    2a6a: a5 10        	lda	$10                     ; 0x2010 <main+0x1b7c>
    2a6c: 69 3a        	adc	#$3a
    2a6e: 85 2a        	sta	$2a                     ; 0x202a <main+0x1b96>
    2a70: a0 01        	ldy	#$1
    2a72: b0 02        	bcs	$2a76 <main+0x25e2>
    2a74: a0 00        	ldy	#$0
    2a76: 84 1c        	sty	$1c                     ; 0x201c <main+0x1b88>
    2a78: a0 39        	ldy	#$39
    2a7a: 84 14        	sty	$14                     ; 0x2014 <main+0x1b80>
    2a7c: a0 00        	ldy	#$0
    2a7e: 84 15        	sty	$15                     ; 0x2015 <main+0x1b81>
    2a80: 64 22        	stz	$22                     ; 0x2022 <main+0x1b8e>
    2a82: a5 22        	lda	$22                     ; 0x2022 <main+0x1b8e>
    2a84: 4a           	lsr
    2a85: 8a           	txa
    2a86: 6a           	ror
    2a87: a8           	tay
    2a88: a9 00        	lda	#$0
    2a8a: 6a           	ror
    2a8b: 5a           	phy
    2a8c: a4 1c        	ldy	$1c                     ; 0x201c <main+0x1b88>
    2a8e: c0 01        	cpy	#$1
    2a90: 7a           	ply
    2a91: 48           	pha
    2a92: a5 11        	lda	$11                     ; 0x2011 <main+0x1b7d>
    2a94: 69 00        	adc	#$0
    2a96: 85 2b        	sta	$2b                     ; 0x202b <main+0x1b97>
    2a98: 68           	pla
    2a99: 18           	clc
    2a9a: 65 2a        	adc	$2a                     ; 0x202a <main+0x1b96>
    2a9c: 85 16        	sta	$16                     ; 0x2016 <main+0x1b82>
    2a9e: 98           	tya
    2a9f: 65 2b        	adc	$2b                     ; 0x202b <main+0x1b97>
    2aa1: a4 16        	ldy	$16                     ; 0x2016 <main+0x1b82>
    2aa3: 85 1d        	sta	$1d                     ; 0x201d <main+0x1b89>
    2aa5: 64 16        	stz	$16                     ; 0x2016 <main+0x1b82>
    2aa7: 64 17        	stz	$17                     ; 0x2017 <main+0x1b83>
    2aa9: b2 12        	lda	($12)                   ; 0x2012 <main+0x1b7e>
    2aab: 85 19        	sta	$19                     ; 0x2019 <main+0x1b85>
    2aad: 84 1e        	sty	$1e                     ; 0x201e <main+0x1b8a>
    2aaf: 98           	tya
    2ab0: 18           	clc
    2ab1: 65 16        	adc	$16                     ; 0x2016 <main+0x1b82>
    2ab3: 85 18        	sta	$18                     ; 0x2018 <main+0x1b84>
    2ab5: a5 1d        	lda	$1d                     ; 0x201d <main+0x1b89>
    2ab7: 65 17        	adc	$17                     ; 0x2017 <main+0x1b83>
    2ab9: a4 19        	ldy	$19                     ; 0x2019 <main+0x1b85>
    2abb: d0 03        	bne	$2ac0 <main+0x262c>
    2abd: 4c 2e 2b     	jmp	$2b2e <main+0x269a>
    2ac0: a4 19        	ldy	$19                     ; 0x2019 <main+0x1b85>
    2ac2: 85 1b        	sta	$1b                     ; 0x201b <main+0x1b87>
    2ac4: a5 18        	lda	$18                     ; 0x2018 <main+0x1b84>
    2ac6: 85 1a        	sta	$1a                     ; 0x201a <main+0x1b86>
    2ac8: 38           	sec
    2ac9: a9 80        	lda	#$80
    2acb: e5 16        	sbc	$16                     ; 0x2016 <main+0x1b82>
    2acd: 84 f3        	sty	$f3                     ; 0x20f3 <main+0x1c5f>
    2acf: 85 f4        	sta	$f4                     ; 0x20f4 <main+0x1c60>
    2ad1: 18           	clc
    2ad2: a5 10        	lda	$10                     ; 0x2010 <main+0x1b7c>
    2ad4: 69 76        	adc	#$76
    2ad6: 85 18        	sta	$18                     ; 0x2018 <main+0x1b84>
    2ad8: a5 11        	lda	$11                     ; 0x2011 <main+0x1b7d>
    2ada: 69 20        	adc	#$20
    2adc: 85 19        	sta	$19                     ; 0x2019 <main+0x1b85>
    2ade: 20 60 ff     	jsr	$ff60 <end_block9+0x5bf0>
    2ae1: 92 18        	sta	($18)                   ; 0x2018 <main+0x1b84>
    2ae3: a9 00        	lda	#$0
    2ae5: 6a           	ror
    2ae6: 85 14        	sta	$14                     ; 0x2014 <main+0x1b80>
    2ae8: a5 39        	lda	$39                     ; 0x2039 <main+0x1ba5>
    2aea: f0 03        	beq	$2aef <main+0x265b>
    2aec: 4c 89 2b     	jmp	$2b89 <main+0x26f5>
    2aef: 64 3a        	stz	$3a                     ; 0x203a <main+0x1ba6>
    2af1: 20 00 ff     	jsr	$ff00 <end_block9+0x5b90>
    2af4: 92 18        	sta	($18)                   ; 0x2018 <main+0x1b84>
    2af6: a9 00        	lda	#$0
    2af8: 6a           	ror
    2af9: 85 14        	sta	$14                     ; 0x2014 <main+0x1b80>
    2afb: a5 3a        	lda	$3a                     ; 0x203a <main+0x1ba6>
    2afd: c9 38        	cmp	#$38
    2aff: d0 03        	bne	$2b04 <main+0x2670>
    2b01: 4c 89 2b     	jmp	$2b89 <main+0x26f5>
    2b04: c9 30        	cmp	#$30
    2b06: d0 03        	bne	$2b0b <main+0x2677>
    2b08: 4c 89 2b     	jmp	$2b89 <main+0x26f5>
    2b0b: c9 2c        	cmp	#$2c
    2b0d: d0 e0        	bne	$2aef <main+0x265b>
    2b0f: 86 1f        	stx	$1f                     ; 0x201f <main+0x1b8b>
    2b11: a5 1a        	lda	$1a                     ; 0x201a <main+0x1b86>
    2b13: 85 fb        	sta	$fb                     ; 0x20fb <main+0x1c67>
    2b15: a5 1b        	lda	$1b                     ; 0x201b <main+0x1b87>
    2b17: 85 fc        	sta	$fc                     ; 0x20fc <main+0x1c68>
    2b19: a5 40        	lda	$40                     ; 0x2040 <main+0x1bac>
    2b1b: 85 fd        	sta	$fd                     ; 0x20fd <main+0x1c69>
    2b1d: 20 04 ff     	jsr	$ff04 <end_block9+0x5b94>
    2b20: 92 18        	sta	($18)                   ; 0x2018 <main+0x1b84>
    2b22: a9 00        	lda	#$0
    2b24: 6a           	ror
    2b25: 85 14        	sta	$14                     ; 0x2014 <main+0x1b80>
    2b27: a5 40        	lda	$40                     ; 0x2040 <main+0x1bac>
    2b29: d0 40        	bne	$2b6b <main+0x26d7>
    2b2b: 4c a3 2b     	jmp	$2ba3 <main+0x270f>
    2b2e: 85 19        	sta	$19                     ; 0x2019 <main+0x1b85>
    2b30: 80 0a        	bra	$2b3c <main+0x26a8>
    2b32: 20 0c ff     	jsr	$ff0c <end_block9+0x5b9c>
    2b35: 92 1a        	sta	($1a)                   ; 0x201a <main+0x1b86>
    2b37: a9 00        	lda	#$0
    2b39: 6a           	ror
    2b3a: 85 14        	sta	$14                     ; 0x2014 <main+0x1b80>
    2b3c: 64 3a        	stz	$3a                     ; 0x203a <main+0x1ba6>
    2b3e: 18           	clc
    2b3f: a5 10        	lda	$10                     ; 0x2010 <main+0x1b7c>
    2b41: 69 76        	adc	#$76
    2b43: 85 1a        	sta	$1a                     ; 0x201a <main+0x1b86>
    2b45: a5 11        	lda	$11                     ; 0x2011 <main+0x1b7d>
    2b47: 69 20        	adc	#$20
    2b49: 85 1b        	sta	$1b                     ; 0x201b <main+0x1b87>
    2b4b: 20 00 ff     	jsr	$ff00 <end_block9+0x5b90>
    2b4e: 92 1a        	sta	($1a)                   ; 0x201a <main+0x1b86>
    2b50: a9 00        	lda	#$0
    2b52: 6a           	ror
    2b53: 85 14        	sta	$14                     ; 0x2014 <main+0x1b80>
    2b55: a5 39        	lda	$39                     ; 0x2039 <main+0x1ba5>
    2b57: d0 d9        	bne	$2b32 <main+0x269e>
    2b59: a5 3a        	lda	$3a                     ; 0x203a <main+0x1ba6>
    2b5b: c9 08        	cmp	#$8
    2b5d: d0 dd        	bne	$2b3c <main+0x26a8>
    2b5f: a5 40        	lda	$40                     ; 0x2040 <main+0x1bac>
    2b61: d0 d9        	bne	$2b3c <main+0x26a8>
    2b63: 86 1f        	stx	$1f                     ; 0x201f <main+0x1b8b>
    2b65: a5 3f        	lda	$3f                     ; 0x203f <main+0x1bab>
    2b67: 92 18        	sta	($18)                   ; 0x2018 <main+0x1b84>
    2b69: a9 01        	lda	#$1
    2b6b: a0 00        	ldy	#$0
    2b6d: 18           	clc
    2b6e: 65 16        	adc	$16                     ; 0x2016 <main+0x1b82>
    2b70: aa           	tax
    2b71: 98           	tya
    2b72: 65 17        	adc	$17                     ; 0x2017 <main+0x1b83>
    2b74: d0 04        	bne	$2b7a <main+0x26e6>
    2b76: e0 80        	cpx	#$80
    2b78: 80 02        	bra	$2b7c <main+0x26e8>
    2b7a: c9 00        	cmp	#$0
    2b7c: 86 16        	stx	$16                     ; 0x2016 <main+0x1b82>
    2b7e: 85 17        	sta	$17                     ; 0x2017 <main+0x1b83>
    2b80: a4 1e        	ldy	$1e                     ; 0x201e <main+0x1b8a>
    2b82: a6 1f        	ldx	$1f                     ; 0x201f <main+0x1b8b>
    2b84: b0 03        	bcs	$2b89 <main+0x26f5>
    2b86: 4c a9 2a     	jmp	$2aa9 <main+0x2615>
    2b89: e8           	inx
    2b8a: f0 07        	beq	$2b93 <main+0x26ff>
    2b8c: a5 22        	lda	$22                     ; 0x2022 <main+0x1b8e>
    2b8e: f0 0c        	beq	$2b9c <main+0x2708>
    2b90: 4c 82 2a     	jmp	$2a82 <main+0x25ee>
    2b93: e6 22        	inc	$22                     ; 0x2022 <main+0x1b8e>
    2b95: a5 22        	lda	$22                     ; 0x2022 <main+0x1b8e>
    2b97: f0 03        	beq	$2b9c <main+0x2708>
    2b99: 4c 82 2a     	jmp	$2a82 <main+0x25ee>
    2b9c: e0 40        	cpx	#$40
    2b9e: f0 09        	beq	$2ba9 <main+0x2715>
    2ba0: 4c 82 2a     	jmp	$2a82 <main+0x25ee>
    2ba3: a9 00        	lda	#$0
    2ba5: a0 01        	ldy	#$1
    2ba7: 80 c4        	bra	$2b6d <main+0x26d9>
    2ba9: a2 d5        	ldx	#$d5
    2bab: 86 12        	stx	$12                     ; 0x2012 <main+0x1b7e>
    2bad: a2 67        	ldx	#$67
    2baf: 86 13        	stx	$13                     ; 0x2013 <main+0x1b7f>
    2bb1: 20 a9 64     	jsr	$64a9 <printf>
    2bb4: a2 01        	ldx	#$1
    2bb6: 86 32        	stx	$32                     ; 0x2032 <main+0x1b9e>
    2bb8: a0 42        	ldy	#$42
    2bba: 84 33        	sty	$33                     ; 0x2033 <main+0x1b9f>
    2bbc: 8c 14 d0     	sty	$d014                   ; 0xd014 <end_block9+0x2ca4>
    2bbf: 64 25        	stz	$25                     ; 0x2025 <main+0x1b91>
    2bc1: 9c 15 d0     	stz	$d015                   ; 0xd015 <end_block9+0x2ca5>
    2bc4: 86 34        	stx	$34                     ; 0x2034 <main+0x1ba0>
    2bc6: 8e 16 d0     	stx	$d016                   ; 0xd016 <end_block9+0x2ca6>
    2bc9: 9c 17 d0     	stz	$d017                   ; 0xd017 <end_block9+0x2ca7>
    2bcc: a2 59        	ldx	#$59
    2bce: 86 12        	stx	$12                     ; 0x2012 <main+0x1b7e>
    2bd0: a2 68        	ldx	#$68
    2bd2: 86 13        	stx	$13                     ; 0x2013 <main+0x1b7f>
    2bd4: 20 85 4e     	jsr	$4e85 <textPrint>
    2bd7: a2 44        	ldx	#$44
    2bd9: 86 33        	stx	$33                     ; 0x2033 <main+0x1b9f>
    2bdb: 8e 14 d0     	stx	$d014                   ; 0xd014 <end_block9+0x2ca4>
    2bde: 9c 15 d0     	stz	$d015                   ; 0xd015 <end_block9+0x2ca5>
    2be1: a2 02        	ldx	#$2
    2be3: 86 34        	stx	$34                     ; 0x2034 <main+0x1ba0>
    2be5: 8e 16 d0     	stx	$d016                   ; 0xd016 <end_block9+0x2ca6>
    2be8: 9c 17 d0     	stz	$d017                   ; 0xd017 <end_block9+0x2ca7>
    2beb: a2 09        	ldx	#$9
    2bed: 86 12        	stx	$12                     ; 0x2012 <main+0x1b7e>
    2bef: a2 68        	ldx	#$68
    2bf1: 86 13        	stx	$13                     ; 0x2013 <main+0x1b7f>
    2bf3: 20 85 4e     	jsr	$4e85 <textPrint>
    2bf6: a2 47        	ldx	#$47
    2bf8: 86 33        	stx	$33                     ; 0x2033 <main+0x1b9f>
    2bfa: 8e 14 d0     	stx	$d014                   ; 0xd014 <end_block9+0x2ca4>
    2bfd: 9c 15 d0     	stz	$d015                   ; 0xd015 <end_block9+0x2ca5>
    2c00: a2 03        	ldx	#$3
    2c02: 86 34        	stx	$34                     ; 0x2034 <main+0x1ba0>
    2c04: 8e 16 d0     	stx	$d016                   ; 0xd016 <end_block9+0x2ca6>
    2c07: 9c 17 d0     	stz	$d017                   ; 0xd017 <end_block9+0x2ca7>
    2c0a: a2 36        	ldx	#$36
    2c0c: 86 12        	stx	$12                     ; 0x2012 <main+0x1b7e>
    2c0e: a2 68        	ldx	#$68
    2c10: 86 13        	stx	$13                     ; 0x2013 <main+0x1b7f>
    2c12: 20 85 4e     	jsr	$4e85 <textPrint>
    2c15: a2 08        	ldx	#$8
    2c17: 80 03        	bra	$2c1c <main+0x2788>
    2c19: 8a           	txa
    2c1a: f0 1c        	beq	$2c38 <main+0x27a4>
    2c1c: b2 2a        	lda	($2a)                   ; 0x202a <main+0x1b96>
    2c1e: 8d 07 d7     	sta	$d707                   ; 0xd707 <end_block9+0x3397>
    2c21: a0 ff        	ldy	#$ff
    2c23: c6 25        	dec	$25                     ; 0x2025 <main+0x1b91>
    2c25: c4 25        	cpy	$25                     ; 0x2025 <main+0x1b91>
    2c27: f0 06        	beq	$2c2f <main+0x279b>
    2c29: e6 2a        	inc	$2a                     ; 0x202a <main+0x1b96>
    2c2b: d0 ec        	bne	$2c19 <main+0x2785>
    2c2d: 80 05        	bra	$2c34 <main+0x27a0>
    2c2f: ca           	dex
    2c30: e6 2a        	inc	$2a                     ; 0x202a <main+0x1b96>
    2c32: d0 e5        	bne	$2c19 <main+0x2785>
    2c34: e6 2b        	inc	$2b                     ; 0x202b <main+0x1b97>
    2c36: 80 e1        	bra	$2c19 <main+0x2785>
    2c38: a5 25        	lda	$25                     ; 0x2025 <main+0x1b91>
    2c3a: d0 e0        	bne	$2c1c <main+0x2788>
    2c3c: a5 26        	lda	$26                     ; 0x2026 <main+0x1b92>
    2c3e: a0 11        	ldy	#$11
    2c40: 91 10        	sta	($10),y                 ; 0x2010 <main+0x1b7c>
    2c42: 18           	clc
    2c43: a5 10        	lda	$10                     ; 0x2010 <main+0x1b7c>
    2c45: 69 3a        	adc	#$3a
    2c47: 48           	pha
    2c48: a5 11        	lda	$11                     ; 0x2011 <main+0x1b7d>
    2c4a: 69 00        	adc	#$0
    2c4c: 85 12        	sta	$12                     ; 0x2012 <main+0x1b7e>
    2c4e: 68           	pla
    2c4f: 18           	clc
    2c50: 69 00        	adc	#$0
    2c52: aa           	tax
    2c53: a5 12        	lda	$12                     ; 0x2012 <main+0x1b7e>
    2c55: 69 08        	adc	#$8
    2c57: 86 12        	stx	$12                     ; 0x2012 <main+0x1b7e>
    2c59: 85 13        	sta	$13                     ; 0x2013 <main+0x1b7f>
    2c5b: a0 08        	ldy	#$8
    2c5d: a2 00        	ldx	#$0
    2c5f: 80 03        	bra	$2c64 <main+0x27d0>
    2c61: 98           	tya
    2c62: f0 19        	beq	$2c7d <main+0x27e9>
    2c64: b2 12        	lda	($12)                   ; 0x2012 <main+0x1b7e>
    2c66: 8d 07 d7     	sta	$d707                   ; 0xd707 <end_block9+0x3397>
    2c69: ca           	dex
    2c6a: e0 ff        	cpx	#$ff
    2c6c: f0 06        	beq	$2c74 <main+0x27e0>
    2c6e: e6 12        	inc	$12                     ; 0x2012 <main+0x1b7e>
    2c70: d0 ef        	bne	$2c61 <main+0x27cd>
    2c72: 80 05        	bra	$2c79 <main+0x27e5>
    2c74: 88           	dey
    2c75: e6 12        	inc	$12                     ; 0x2012 <main+0x1b7e>
    2c77: d0 e8        	bne	$2c61 <main+0x27cd>
    2c79: e6 13        	inc	$13                     ; 0x2013 <main+0x1b7f>
    2c7b: 80 e4        	bra	$2c61 <main+0x27cd>
    2c7d: 8a           	txa
    2c7e: d0 e4        	bne	$2c64 <main+0x27d0>
    2c80: a0 10        	ldy	#$10
    2c82: a2 39        	ldx	#$39
    2c84: 86 2a        	stx	$2a                     ; 0x202a <main+0x1b96>
    2c86: a2 00        	ldx	#$0
    2c88: 86 2b        	stx	$2b                     ; 0x202b <main+0x1b97>
    2c8a: 64 12        	stz	$12                     ; 0x2012 <main+0x1b7e>
    2c8c: 5a           	phy
    2c8d: a9 00        	lda	#$0
    2c8f: a0 32        	ldy	#$32
    2c91: 91 10        	sta	($10),y                 ; 0x2010 <main+0x1b7c>
    2c93: a0 2c        	ldy	#$2c
    2c95: 91 10        	sta	($10),y                 ; 0x2010 <main+0x1b7c>
    2c97: a0 2a        	ldy	#$2a
    2c99: 91 10        	sta	($10),y                 ; 0x2010 <main+0x1b7c>
    2c9b: 64 26        	stz	$26                     ; 0x2026 <main+0x1b92>
    2c9d: 64 2e        	stz	$2e                     ; 0x202e <main+0x1b9a>
    2c9f: c8           	iny
    2ca0: 91 10        	sta	($10),y                 ; 0x2010 <main+0x1b7c>
    2ca2: a0 2f        	ldy	#$2f
    2ca4: 91 10        	sta	($10),y                 ; 0x2010 <main+0x1b7c>
    2ca6: a0 31        	ldy	#$31
    2ca8: 91 10        	sta	($10),y                 ; 0x2010 <main+0x1b7c>
    2caa: 7a           	ply
    2cab: 84 2f        	sty	$2f                     ; 0x202f <main+0x1b9b>
    2cad: 4c 84 39     	jmp	$3984 <main+0x34f0>
    2cb0: a0 2a        	ldy	#$2a
    2cb2: b1 10        	lda	($10),y                 ; 0x2010 <main+0x1b7c>
    2cb4: 85 16        	sta	$16                     ; 0x2016 <main+0x1b82>
    2cb6: 29 01        	and	#$1
    2cb8: aa           	tax
    2cb9: a5 16        	lda	$16                     ; 0x2016 <main+0x1b82>
    2cbb: 09 fe        	ora	#$fe
    2cbd: 1a           	inc
    2cbe: 85 15        	sta	$15                     ; 0x2015 <main+0x1b81>
    2cc0: 86 14        	stx	$14                     ; 0x2014 <main+0x1b80>
    2cc2: a9 00        	lda	#$0
    2cc4: 38           	sec
    2cc5: e5 14        	sbc	$14                     ; 0x2014 <main+0x1b80>
    2cc7: 85 1a        	sta	$1a                     ; 0x201a <main+0x1b86>
    2cc9: 8a           	txa
    2cca: d0 03        	bne	$2ccf <main+0x283b>
    2ccc: 4c 61 2e     	jmp	$2e61 <main+0x29cd>
    2ccf: a2 1f        	ldx	#$1f
    2cd1: 8a           	txa
    2cd2: a0 34        	ldy	#$34
    2cd4: 91 10        	sta	($10),y                 ; 0x2010 <main+0x1b7c>
    2cd6: a2 5f        	ldx	#$5f
    2cd8: 8a           	txa
    2cd9: a0 2a        	ldy	#$2a
    2cdb: 91 10        	sta	($10),y                 ; 0x2010 <main+0x1b7c>
    2cdd: a2 7f        	ldx	#$7f
    2cdf: 8a           	txa
    2ce0: a0 26        	ldy	#$26
    2ce2: 91 10        	sta	($10),y                 ; 0x2010 <main+0x1b7c>
    2ce4: a2 9f        	ldx	#$9f
    2ce6: 8a           	txa
    2ce7: a0 24        	ldy	#$24
    2ce9: 91 10        	sta	($10),y                 ; 0x2010 <main+0x1b7c>
    2ceb: a2 bf        	ldx	#$bf
    2ced: 8a           	txa
    2cee: a0 22        	ldy	#$22
    2cf0: 91 10        	sta	($10),y                 ; 0x2010 <main+0x1b7c>
    2cf2: a2 df        	ldx	#$df
    2cf4: 8a           	txa
    2cf5: a0 36        	ldy	#$36
    2cf7: 91 10        	sta	($10),y                 ; 0x2010 <main+0x1b7c>
    2cf9: a2 c0        	ldx	#$c0
    2cfb: 8a           	txa
    2cfc: a0 1e        	ldy	#$1e
    2cfe: 91 10        	sta	($10),y                 ; 0x2010 <main+0x1b7c>
    2d00: a2 a0        	ldx	#$a0
    2d02: 8a           	txa
    2d03: a0 1c        	ldy	#$1c
    2d05: 91 10        	sta	($10),y                 ; 0x2010 <main+0x1b7c>
    2d07: a2 80        	ldx	#$80
    2d09: 8a           	txa
    2d0a: a0 18        	ldy	#$18
    2d0c: 91 10        	sta	($10),y                 ; 0x2010 <main+0x1b7c>
    2d0e: a2 60        	ldx	#$60
    2d10: 8a           	txa
    2d11: a0 16        	ldy	#$16
    2d13: 91 10        	sta	($10),y                 ; 0x2010 <main+0x1b7c>
    2d15: a2 e0        	ldx	#$e0
    2d17: 8a           	txa
    2d18: a0 19        	ldy	#$19
    2d1a: 91 10        	sta	($10),y                 ; 0x2010 <main+0x1b7c>
    2d1c: a2 20        	ldx	#$20
    2d1e: 8a           	txa
    2d1f: a0 14        	ldy	#$14
    2d21: 91 10        	sta	($10),y                 ; 0x2010 <main+0x1b7c>
    2d23: 64 16        	stz	$16                     ; 0x2016 <main+0x1b82>
    2d25: a9 00        	lda	#$0
    2d27: a0 38        	ldy	#$38
    2d29: 91 10        	sta	($10),y                 ; 0x2010 <main+0x1b7c>
    2d2b: a2 40        	ldx	#$40
    2d2d: 8a           	txa
    2d2e: a0 12        	ldy	#$12
    2d30: 91 10        	sta	($10),y                 ; 0x2010 <main+0x1b7c>
    2d32: a0 ff        	ldy	#$ff
    2d34: 98           	tya
    2d35: a0 15        	ldy	#$15
    2d37: 91 10        	sta	($10),y                 ; 0x2010 <main+0x1b7c>
    2d39: a0 3f        	ldy	#$3f
    2d3b: 98           	tya
    2d3c: a0 1f        	ldy	#$1f
    2d3e: 91 10        	sta	($10),y                 ; 0x2010 <main+0x1b7c>
    2d40: a2 ff        	ldx	#$ff
    2d42: 8a           	txa
    2d43: a0 13        	ldy	#$13
    2d45: 91 10        	sta	($10),y                 ; 0x2010 <main+0x1b7c>
    2d47: a0 ff        	ldy	#$ff
    2d49: 98           	tya
    2d4a: a0 17        	ldy	#$17
    2d4c: 91 10        	sta	($10),y                 ; 0x2010 <main+0x1b7c>
    2d4e: a0 ff        	ldy	#$ff
    2d50: 98           	tya
    2d51: a0 1a        	ldy	#$1a
    2d53: 91 10        	sta	($10),y                 ; 0x2010 <main+0x1b7c>
    2d55: a0 ff        	ldy	#$ff
    2d57: 98           	tya
    2d58: a0 1d        	ldy	#$1d
    2d5a: 91 10        	sta	($10),y                 ; 0x2010 <main+0x1b7c>
    2d5c: a0 ff        	ldy	#$ff
    2d5e: 98           	tya
    2d5f: a0 20        	ldy	#$20
    2d61: 91 10        	sta	($10),y                 ; 0x2010 <main+0x1b7c>
    2d63: a0 ff        	ldy	#$ff
    2d65: 98           	tya
    2d66: a0 1b        	ldy	#$1b
    2d68: 91 10        	sta	($10),y                 ; 0x2010 <main+0x1b7c>
    2d6a: a9 00        	lda	#$0
    2d6c: a0 23        	ldy	#$23
    2d6e: 91 10        	sta	($10),y                 ; 0x2010 <main+0x1b7c>
    2d70: a0 25        	ldy	#$25
    2d72: 91 10        	sta	($10),y                 ; 0x2010 <main+0x1b7c>
    2d74: a0 27        	ldy	#$27
    2d76: 91 10        	sta	($10),y                 ; 0x2010 <main+0x1b7c>
    2d78: a0 2d        	ldy	#$2d
    2d7a: 91 10        	sta	($10),y                 ; 0x2010 <main+0x1b7c>
    2d7c: a0 21        	ldy	#$21
    2d7e: 91 10        	sta	($10),y                 ; 0x2010 <main+0x1b7c>
    2d80: a0 35        	ldy	#$35
    2d82: 4c 12 2f     	jmp	$2f12 <main+0x2a7e>
    2d85: a0 2a        	ldy	#$2a
    2d87: b1 10        	lda	($10),y                 ; 0x2010 <main+0x1b7c>
    2d89: 85 16        	sta	$16                     ; 0x2016 <main+0x1b82>
    2d8b: 29 01        	and	#$1
    2d8d: aa           	tax
    2d8e: a5 16        	lda	$16                     ; 0x2016 <main+0x1b82>
    2d90: 09 fe        	ora	#$fe
    2d92: 1a           	inc
    2d93: 85 15        	sta	$15                     ; 0x2015 <main+0x1b81>
    2d95: 64 14        	stz	$14                     ; 0x2014 <main+0x1b80>
    2d97: a9 00        	lda	#$0
    2d99: a0 2f        	ldy	#$2f
    2d9b: 91 10        	sta	($10),y                 ; 0x2010 <main+0x1b7c>
    2d9d: 86 14        	stx	$14                     ; 0x2014 <main+0x1b80>
    2d9f: a9 00        	lda	#$0
    2da1: 38           	sec
    2da2: e5 14        	sbc	$14                     ; 0x2014 <main+0x1b80>
    2da4: 85 1a        	sta	$1a                     ; 0x201a <main+0x1b86>
    2da6: 8a           	txa
    2da7: d0 03        	bne	$2dac <main+0x2918>
    2da9: 4c 52 30     	jmp	$3052 <main+0x2bbe>
    2dac: a2 1f        	ldx	#$1f
    2dae: 48           	pha
    2daf: 8a           	txa
    2db0: a0 35        	ldy	#$35
    2db2: 91 10        	sta	($10),y                 ; 0x2010 <main+0x1b7c>
    2db4: a2 5f        	ldx	#$5f
    2db6: 8a           	txa
    2db7: a0 2d        	ldy	#$2d
    2db9: 91 10        	sta	($10),y                 ; 0x2010 <main+0x1b7c>
    2dbb: a2 7f        	ldx	#$7f
    2dbd: 8a           	txa
    2dbe: a0 27        	ldy	#$27
    2dc0: 91 10        	sta	($10),y                 ; 0x2010 <main+0x1b7c>
    2dc2: a2 9f        	ldx	#$9f
    2dc4: 8a           	txa
    2dc5: a0 25        	ldy	#$25
    2dc7: 91 10        	sta	($10),y                 ; 0x2010 <main+0x1b7c>
    2dc9: a2 bf        	ldx	#$bf
    2dcb: 8a           	txa
    2dcc: a0 23        	ldy	#$23
    2dce: 91 10        	sta	($10),y                 ; 0x2010 <main+0x1b7c>
    2dd0: a2 df        	ldx	#$df
    2dd2: 8a           	txa
    2dd3: a0 38        	ldy	#$38
    2dd5: 91 10        	sta	($10),y                 ; 0x2010 <main+0x1b7c>
    2dd7: a2 c0        	ldx	#$c0
    2dd9: 8a           	txa
    2dda: a0 1e        	ldy	#$1e
    2ddc: 91 10        	sta	($10),y                 ; 0x2010 <main+0x1b7c>
    2dde: a2 a0        	ldx	#$a0
    2de0: 8a           	txa
    2de1: a0 1c        	ldy	#$1c
    2de3: 91 10        	sta	($10),y                 ; 0x2010 <main+0x1b7c>
    2de5: a2 80        	ldx	#$80
    2de7: 8a           	txa
    2de8: a0 18        	ldy	#$18
    2dea: 91 10        	sta	($10),y                 ; 0x2010 <main+0x1b7c>
    2dec: a2 60        	ldx	#$60
    2dee: 8a           	txa
    2def: a0 16        	ldy	#$16
    2df1: 91 10        	sta	($10),y                 ; 0x2010 <main+0x1b7c>
    2df3: a2 e0        	ldx	#$e0
    2df5: 8a           	txa
    2df6: a0 19        	ldy	#$19
    2df8: 91 10        	sta	($10),y                 ; 0x2010 <main+0x1b7c>
    2dfa: a2 20        	ldx	#$20
    2dfc: 8a           	txa
    2dfd: a0 14        	ldy	#$14
    2dff: 91 10        	sta	($10),y                 ; 0x2010 <main+0x1b7c>
    2e01: a2 40        	ldx	#$40
    2e03: 8a           	txa
    2e04: a0 12        	ldy	#$12
    2e06: 91 10        	sta	($10),y                 ; 0x2010 <main+0x1b7c>
    2e08: a0 ff        	ldy	#$ff
    2e0a: 98           	tya
    2e0b: a0 15        	ldy	#$15
    2e0d: 91 10        	sta	($10),y                 ; 0x2010 <main+0x1b7c>
    2e0f: a0 3f        	ldy	#$3f
    2e11: 98           	tya
    2e12: a0 1f        	ldy	#$1f
    2e14: 91 10        	sta	($10),y                 ; 0x2010 <main+0x1b7c>
    2e16: a2 ff        	ldx	#$ff
    2e18: 8a           	txa
    2e19: a0 13        	ldy	#$13
    2e1b: 91 10        	sta	($10),y                 ; 0x2010 <main+0x1b7c>
    2e1d: a0 ff        	ldy	#$ff
    2e1f: 98           	tya
    2e20: a0 17        	ldy	#$17
    2e22: 91 10        	sta	($10),y                 ; 0x2010 <main+0x1b7c>
    2e24: a0 ff        	ldy	#$ff
    2e26: 98           	tya
    2e27: a0 1a        	ldy	#$1a
    2e29: 91 10        	sta	($10),y                 ; 0x2010 <main+0x1b7c>
    2e2b: a0 ff        	ldy	#$ff
    2e2d: 98           	tya
    2e2e: a0 1d        	ldy	#$1d
    2e30: 91 10        	sta	($10),y                 ; 0x2010 <main+0x1b7c>
    2e32: a0 ff        	ldy	#$ff
    2e34: 98           	tya
    2e35: a0 20        	ldy	#$20
    2e37: 91 10        	sta	($10),y                 ; 0x2010 <main+0x1b7c>
    2e39: a0 ff        	ldy	#$ff
    2e3b: 98           	tya
    2e3c: a0 1b        	ldy	#$1b
    2e3e: 91 10        	sta	($10),y                 ; 0x2010 <main+0x1b7c>
    2e40: 64 16        	stz	$16                     ; 0x2016 <main+0x1b82>
    2e42: a9 00        	lda	#$0
    2e44: a0 22        	ldy	#$22
    2e46: 91 10        	sta	($10),y                 ; 0x2010 <main+0x1b7c>
    2e48: a0 24        	ldy	#$24
    2e4a: 91 10        	sta	($10),y                 ; 0x2010 <main+0x1b7c>
    2e4c: a0 26        	ldy	#$26
    2e4e: 91 10        	sta	($10),y                 ; 0x2010 <main+0x1b7c>
    2e50: a0 2a        	ldy	#$2a
    2e52: 91 10        	sta	($10),y                 ; 0x2010 <main+0x1b7c>
    2e54: a0 34        	ldy	#$34
    2e56: 91 10        	sta	($10),y                 ; 0x2010 <main+0x1b7c>
    2e58: a0 21        	ldy	#$21
    2e5a: 91 10        	sta	($10),y                 ; 0x2010 <main+0x1b7c>
    2e5c: a0 36        	ldy	#$36
    2e5e: 4c 04 31     	jmp	$3104 <main+0x2c70>
    2e61: a2 1f        	ldx	#$1f
    2e63: 8a           	txa
    2e64: a0 35        	ldy	#$35
    2e66: 91 10        	sta	($10),y                 ; 0x2010 <main+0x1b7c>
    2e68: a2 5f        	ldx	#$5f
    2e6a: 8a           	txa
    2e6b: a0 2d        	ldy	#$2d
    2e6d: 91 10        	sta	($10),y                 ; 0x2010 <main+0x1b7c>
    2e6f: a2 7f        	ldx	#$7f
    2e71: 8a           	txa
    2e72: a0 27        	ldy	#$27
    2e74: 91 10        	sta	($10),y                 ; 0x2010 <main+0x1b7c>
    2e76: a2 9f        	ldx	#$9f
    2e78: 8a           	txa
    2e79: a0 25        	ldy	#$25
    2e7b: 91 10        	sta	($10),y                 ; 0x2010 <main+0x1b7c>
    2e7d: a2 bf        	ldx	#$bf
    2e7f: 8a           	txa
    2e80: a0 23        	ldy	#$23
    2e82: 91 10        	sta	($10),y                 ; 0x2010 <main+0x1b7c>
    2e84: a2 df        	ldx	#$df
    2e86: 8a           	txa
    2e87: a0 38        	ldy	#$38
    2e89: 91 10        	sta	($10),y                 ; 0x2010 <main+0x1b7c>
    2e8b: a2 c0        	ldx	#$c0
    2e8d: 8a           	txa
    2e8e: a0 20        	ldy	#$20
    2e90: 91 10        	sta	($10),y                 ; 0x2010 <main+0x1b7c>
    2e92: a2 a0        	ldx	#$a0
    2e94: 8a           	txa
    2e95: a0 1d        	ldy	#$1d
    2e97: 91 10        	sta	($10),y                 ; 0x2010 <main+0x1b7c>
    2e99: a2 80        	ldx	#$80
    2e9b: 8a           	txa
    2e9c: a0 1a        	ldy	#$1a
    2e9e: 91 10        	sta	($10),y                 ; 0x2010 <main+0x1b7c>
    2ea0: a2 60        	ldx	#$60
    2ea2: 8a           	txa
    2ea3: a0 17        	ldy	#$17
    2ea5: 91 10        	sta	($10),y                 ; 0x2010 <main+0x1b7c>
    2ea7: a2 e0        	ldx	#$e0
    2ea9: 8a           	txa
    2eaa: a0 1b        	ldy	#$1b
    2eac: 91 10        	sta	($10),y                 ; 0x2010 <main+0x1b7c>
    2eae: a2 20        	ldx	#$20
    2eb0: 8a           	txa
    2eb1: a0 15        	ldy	#$15
    2eb3: 91 10        	sta	($10),y                 ; 0x2010 <main+0x1b7c>
    2eb5: a2 40        	ldx	#$40
    2eb7: 8a           	txa
    2eb8: a0 13        	ldy	#$13
    2eba: 91 10        	sta	($10),y                 ; 0x2010 <main+0x1b7c>
    2ebc: a2 ff        	ldx	#$ff
    2ebe: 8a           	txa
    2ebf: a0 36        	ldy	#$36
    2ec1: 91 10        	sta	($10),y                 ; 0x2010 <main+0x1b7c>
    2ec3: a2 3f        	ldx	#$3f
    2ec5: 8a           	txa
    2ec6: a0 21        	ldy	#$21
    2ec8: 91 10        	sta	($10),y                 ; 0x2010 <main+0x1b7c>
    2eca: 64 16        	stz	$16                     ; 0x2016 <main+0x1b82>
    2ecc: a9 00        	lda	#$0
    2ece: a0 14        	ldy	#$14
    2ed0: 91 10        	sta	($10),y                 ; 0x2010 <main+0x1b7c>
    2ed2: a0 12        	ldy	#$12
    2ed4: 91 10        	sta	($10),y                 ; 0x2010 <main+0x1b7c>
    2ed6: a0 16        	ldy	#$16
    2ed8: 91 10        	sta	($10),y                 ; 0x2010 <main+0x1b7c>
    2eda: a0 18        	ldy	#$18
    2edc: 91 10        	sta	($10),y                 ; 0x2010 <main+0x1b7c>
    2ede: a0 1c        	ldy	#$1c
    2ee0: 91 10        	sta	($10),y                 ; 0x2010 <main+0x1b7c>
    2ee2: a0 1e        	ldy	#$1e
    2ee4: 91 10        	sta	($10),y                 ; 0x2010 <main+0x1b7c>
    2ee6: a0 19        	ldy	#$19
    2ee8: 91 10        	sta	($10),y                 ; 0x2010 <main+0x1b7c>
    2eea: a0 ff        	ldy	#$ff
    2eec: 98           	tya
    2eed: a0 22        	ldy	#$22
    2eef: 91 10        	sta	($10),y                 ; 0x2010 <main+0x1b7c>
    2ef1: a0 ff        	ldy	#$ff
    2ef3: 98           	tya
    2ef4: a0 24        	ldy	#$24
    2ef6: 91 10        	sta	($10),y                 ; 0x2010 <main+0x1b7c>
    2ef8: a0 ff        	ldy	#$ff
    2efa: 98           	tya
    2efb: a0 26        	ldy	#$26
    2efd: 91 10        	sta	($10),y                 ; 0x2010 <main+0x1b7c>
    2eff: a0 ff        	ldy	#$ff
    2f01: 98           	tya
    2f02: a0 2a        	ldy	#$2a
    2f04: 91 10        	sta	($10),y                 ; 0x2010 <main+0x1b7c>
    2f06: a0 ff        	ldy	#$ff
    2f08: 98           	tya
    2f09: a0 1f        	ldy	#$1f
    2f0b: 91 10        	sta	($10),y                 ; 0x2010 <main+0x1b7c>
    2f0d: a0 ff        	ldy	#$ff
    2f0f: 98           	tya
    2f10: a0 34        	ldy	#$34
    2f12: 91 10        	sta	($10),y                 ; 0x2010 <main+0x1b7c>
    2f14: a5 14        	lda	$14                     ; 0x2014 <main+0x1b80>
    2f16: 49 01        	eor	#$1
    2f18: 85 16        	sta	$16                     ; 0x2016 <main+0x1b82>
    2f1a: a4 15        	ldy	$15                     ; 0x2015 <main+0x1b81>
    2f1c: 8c 00 d8     	sty	$d800                   ; 0xd800 <end_block9+0x3490>
    2f1f: a5 1a        	lda	$1a                     ; 0x201a <main+0x1b86>
    2f21: 8d 01 d8     	sta	$d801                   ; 0xd801 <end_block9+0x3491>
    2f24: 9c 02 d8     	stz	$d802                   ; 0xd802 <end_block9+0x3492>
    2f27: 8c 04 d8     	sty	$d804                   ; 0xd804 <end_block9+0x3494>
    2f2a: 48           	pha
    2f2b: 5a           	phy
    2f2c: a0 15        	ldy	#$15
    2f2e: b1 10        	lda	($10),y                 ; 0x2010 <main+0x1b7c>
    2f30: 8d 05 d8     	sta	$d805                   ; 0xd805 <end_block9+0x3495>
    2f33: 88           	dey
    2f34: b1 10        	lda	($10),y                 ; 0x2010 <main+0x1b7c>
    2f36: 7a           	ply
    2f37: 8d 06 d8     	sta	$d806                   ; 0xd806 <end_block9+0x3496>
    2f3a: 8c 08 d8     	sty	$d808                   ; 0xd808 <end_block9+0x3498>
    2f3d: 5a           	phy
    2f3e: a0 13        	ldy	#$13
    2f40: b1 10        	lda	($10),y                 ; 0x2010 <main+0x1b7c>
    2f42: 8d 09 d8     	sta	$d809                   ; 0xd809 <end_block9+0x3499>
    2f45: 88           	dey
    2f46: b1 10        	lda	($10),y                 ; 0x2010 <main+0x1b7c>
    2f48: 7a           	ply
    2f49: 8d 0a d8     	sta	$d80a                   ; 0xd80a <end_block9+0x349a>
    2f4c: 8c 0c d8     	sty	$d80c                   ; 0xd80c <end_block9+0x349c>
    2f4f: 5a           	phy
    2f50: a0 17        	ldy	#$17
    2f52: b1 10        	lda	($10),y                 ; 0x2010 <main+0x1b7c>
    2f54: 8d 0d d8     	sta	$d80d                   ; 0xd80d <end_block9+0x349d>
    2f57: 88           	dey
    2f58: b1 10        	lda	($10),y                 ; 0x2010 <main+0x1b7c>
    2f5a: 7a           	ply
    2f5b: 8d 0e d8     	sta	$d80e                   ; 0xd80e <end_block9+0x349e>
    2f5e: 8c 10 d8     	sty	$d810                   ; 0xd810 <end_block9+0x34a0>
    2f61: 5a           	phy
    2f62: a0 1a        	ldy	#$1a
    2f64: b1 10        	lda	($10),y                 ; 0x2010 <main+0x1b7c>
    2f66: 8d 11 d8     	sta	$d811                   ; 0xd811 <end_block9+0x34a1>
    2f69: a0 18        	ldy	#$18
    2f6b: b1 10        	lda	($10),y                 ; 0x2010 <main+0x1b7c>
    2f6d: 7a           	ply
    2f6e: 8d 12 d8     	sta	$d812                   ; 0xd812 <end_block9+0x34a2>
    2f71: 8c 14 d8     	sty	$d814                   ; 0xd814 <end_block9+0x34a4>
    2f74: 5a           	phy
    2f75: a0 1d        	ldy	#$1d
    2f77: b1 10        	lda	($10),y                 ; 0x2010 <main+0x1b7c>
    2f79: 8d 15 d8     	sta	$d815                   ; 0xd815 <end_block9+0x34a5>
    2f7c: 88           	dey
    2f7d: b1 10        	lda	($10),y                 ; 0x2010 <main+0x1b7c>
    2f7f: 7a           	ply
    2f80: 8d 16 d8     	sta	$d816                   ; 0xd816 <end_block9+0x34a6>
    2f83: 8c 18 d8     	sty	$d818                   ; 0xd818 <end_block9+0x34a8>
    2f86: 5a           	phy
    2f87: a0 20        	ldy	#$20
    2f89: b1 10        	lda	($10),y                 ; 0x2010 <main+0x1b7c>
    2f8b: 8d 19 d8     	sta	$d819                   ; 0xd819 <end_block9+0x34a9>
    2f8e: a0 1e        	ldy	#$1e
    2f90: b1 10        	lda	($10),y                 ; 0x2010 <main+0x1b7c>
    2f92: 7a           	ply
    2f93: 8d 1a d8     	sta	$d81a                   ; 0xd81a <end_block9+0x34aa>
    2f96: 8c 1c d8     	sty	$d81c                   ; 0xd81c <end_block9+0x34ac>
    2f99: 5a           	phy
    2f9a: a0 1b        	ldy	#$1b
    2f9c: b1 10        	lda	($10),y                 ; 0x2010 <main+0x1b7c>
    2f9e: 8d 1d d8     	sta	$d81d                   ; 0xd81d <end_block9+0x34ad>
    2fa1: a0 19        	ldy	#$19
    2fa3: b1 10        	lda	($10),y                 ; 0x2010 <main+0x1b7c>
    2fa5: 7a           	ply
    2fa6: aa           	tax
    2fa7: 68           	pla
    2fa8: 8e 1e d8     	stx	$d81e                   ; 0xd81e <end_block9+0x34ae>
    2fab: 8c 20 d8     	sty	$d820                   ; 0xd820 <end_block9+0x34b0>
    2fae: a2 ff        	ldx	#$ff
    2fb0: 8e 21 d8     	stx	$d821                   ; 0xd821 <end_block9+0x34b1>
    2fb3: 8d 22 d8     	sta	$d822                   ; 0xd822 <end_block9+0x34b2>
    2fb6: 48           	pha
    2fb7: a0 38        	ldy	#$38
    2fb9: b1 10        	lda	($10),y                 ; 0x2010 <main+0x1b7c>
    2fbb: 8d 24 d8     	sta	$d824                   ; 0xd824 <end_block9+0x34b4>
    2fbe: a0 36        	ldy	#$36
    2fc0: b1 10        	lda	($10),y                 ; 0x2010 <main+0x1b7c>
    2fc2: aa           	tax
    2fc3: 68           	pla
    2fc4: 8e 25 d8     	stx	$d825                   ; 0xd825 <end_block9+0x34b5>
    2fc7: 8d 26 d8     	sta	$d826                   ; 0xd826 <end_block9+0x34b6>
    2fca: 48           	pha
    2fcb: a0 23        	ldy	#$23
    2fcd: b1 10        	lda	($10),y                 ; 0x2010 <main+0x1b7c>
    2fcf: 8d 28 d8     	sta	$d828                   ; 0xd828 <end_block9+0x34b8>
    2fd2: 88           	dey
    2fd3: b1 10        	lda	($10),y                 ; 0x2010 <main+0x1b7c>
    2fd5: aa           	tax
    2fd6: 68           	pla
    2fd7: 8e 29 d8     	stx	$d829                   ; 0xd829 <end_block9+0x34b9>
    2fda: 8d 2a d8     	sta	$d82a                   ; 0xd82a <end_block9+0x34ba>
    2fdd: 48           	pha
    2fde: a0 25        	ldy	#$25
    2fe0: b1 10        	lda	($10),y                 ; 0x2010 <main+0x1b7c>
    2fe2: 8d 2c d8     	sta	$d82c                   ; 0xd82c <end_block9+0x34bc>
    2fe5: 88           	dey
    2fe6: b1 10        	lda	($10),y                 ; 0x2010 <main+0x1b7c>
    2fe8: aa           	tax
    2fe9: 68           	pla
    2fea: 8e 2d d8     	stx	$d82d                   ; 0xd82d <end_block9+0x34bd>
    2fed: 8d 2e d8     	sta	$d82e                   ; 0xd82e <end_block9+0x34be>
    2ff0: 48           	pha
    2ff1: a0 27        	ldy	#$27
    2ff3: b1 10        	lda	($10),y                 ; 0x2010 <main+0x1b7c>
    2ff5: 8d 30 d8     	sta	$d830                   ; 0xd830 <end_block9+0x34c0>
    2ff8: 88           	dey
    2ff9: b1 10        	lda	($10),y                 ; 0x2010 <main+0x1b7c>
    2ffb: aa           	tax
    2ffc: 68           	pla
    2ffd: 8e 31 d8     	stx	$d831                   ; 0xd831 <end_block9+0x34c1>
    3000: 8d 32 d8     	sta	$d832                   ; 0xd832 <end_block9+0x34c2>
    3003: 48           	pha
    3004: a0 2d        	ldy	#$2d
    3006: b1 10        	lda	($10),y                 ; 0x2010 <main+0x1b7c>
    3008: 8d 34 d8     	sta	$d834                   ; 0xd834 <end_block9+0x34c4>
    300b: a0 2a        	ldy	#$2a
    300d: b1 10        	lda	($10),y                 ; 0x2010 <main+0x1b7c>
    300f: aa           	tax
    3010: 68           	pla
    3011: 8e 35 d8     	stx	$d835                   ; 0xd835 <end_block9+0x34c5>
    3014: 8d 36 d8     	sta	$d836                   ; 0xd836 <end_block9+0x34c6>
    3017: 48           	pha
    3018: a0 21        	ldy	#$21
    301a: b1 10        	lda	($10),y                 ; 0x2010 <main+0x1b7c>
    301c: 8d 38 d8     	sta	$d838                   ; 0xd838 <end_block9+0x34c8>
    301f: a0 1f        	ldy	#$1f
    3021: b1 10        	lda	($10),y                 ; 0x2010 <main+0x1b7c>
    3023: aa           	tax
    3024: 68           	pla
    3025: 8e 39 d8     	stx	$d839                   ; 0xd839 <end_block9+0x34c9>
    3028: 8d 3a d8     	sta	$d83a                   ; 0xd83a <end_block9+0x34ca>
    302b: 48           	pha
    302c: a0 35        	ldy	#$35
    302e: b1 10        	lda	($10),y                 ; 0x2010 <main+0x1b7c>
    3030: 8d 3c d8     	sta	$d83c                   ; 0xd83c <end_block9+0x34cc>
    3033: 88           	dey
    3034: b1 10        	lda	($10),y                 ; 0x2010 <main+0x1b7c>
    3036: aa           	tax
    3037: 68           	pla
    3038: 8e 3d d8     	stx	$d83d                   ; 0xd83d <end_block9+0x34cd>
    303b: 8d 3e d8     	sta	$d83e                   ; 0xd83e <end_block9+0x34ce>
    303e: a5 16        	lda	$16                     ; 0x2016 <main+0x1b82>
    3040: a0 2a        	ldy	#$2a
    3042: 91 10        	sta	($10),y                 ; 0x2010 <main+0x1b7c>
    3044: a0 2f        	ldy	#$2f
    3046: b1 10        	lda	($10),y                 ; 0x2010 <main+0x1b7c>
    3048: 29 01        	and	#$1
    304a: d0 03        	bne	$304f <main+0x2bbb>
    304c: 4c 36 32     	jmp	$3236 <main+0x2da2>
    304f: 4c 0f 3a     	jmp	$3a0f <main+0x357b>
    3052: a2 1f        	ldx	#$1f
    3054: 48           	pha
    3055: 8a           	txa
    3056: a0 36        	ldy	#$36
    3058: 91 10        	sta	($10),y                 ; 0x2010 <main+0x1b7c>
    305a: a2 5f        	ldx	#$5f
    305c: 8a           	txa
    305d: a0 34        	ldy	#$34
    305f: 91 10        	sta	($10),y                 ; 0x2010 <main+0x1b7c>
    3061: a2 7f        	ldx	#$7f
    3063: 8a           	txa
    3064: a0 2a        	ldy	#$2a
    3066: 91 10        	sta	($10),y                 ; 0x2010 <main+0x1b7c>
    3068: a2 9f        	ldx	#$9f
    306a: 8a           	txa
    306b: a0 26        	ldy	#$26
    306d: 91 10        	sta	($10),y                 ; 0x2010 <main+0x1b7c>
    306f: a2 bf        	ldx	#$bf
    3071: 8a           	txa
    3072: a0 24        	ldy	#$24
    3074: 91 10        	sta	($10),y                 ; 0x2010 <main+0x1b7c>
    3076: a2 df        	ldx	#$df
    3078: 8a           	txa
    3079: a0 22        	ldy	#$22
    307b: 91 10        	sta	($10),y                 ; 0x2010 <main+0x1b7c>
    307d: a2 c0        	ldx	#$c0
    307f: 8a           	txa
    3080: a0 20        	ldy	#$20
    3082: 91 10        	sta	($10),y                 ; 0x2010 <main+0x1b7c>
    3084: a2 a0        	ldx	#$a0
    3086: 8a           	txa
    3087: a0 1d        	ldy	#$1d
    3089: 91 10        	sta	($10),y                 ; 0x2010 <main+0x1b7c>
    308b: a2 80        	ldx	#$80
    308d: 8a           	txa
    308e: a0 1a        	ldy	#$1a
    3090: 91 10        	sta	($10),y                 ; 0x2010 <main+0x1b7c>
    3092: a2 60        	ldx	#$60
    3094: 8a           	txa
    3095: a0 17        	ldy	#$17
    3097: 91 10        	sta	($10),y                 ; 0x2010 <main+0x1b7c>
    3099: a2 e0        	ldx	#$e0
    309b: 8a           	txa
    309c: a0 1b        	ldy	#$1b
    309e: 91 10        	sta	($10),y                 ; 0x2010 <main+0x1b7c>
    30a0: a2 20        	ldx	#$20
    30a2: 8a           	txa
    30a3: a0 15        	ldy	#$15
    30a5: 91 10        	sta	($10),y                 ; 0x2010 <main+0x1b7c>
    30a7: a2 40        	ldx	#$40
    30a9: 8a           	txa
    30aa: a0 13        	ldy	#$13
    30ac: 91 10        	sta	($10),y                 ; 0x2010 <main+0x1b7c>
    30ae: a2 ff        	ldx	#$ff
    30b0: 8a           	txa
    30b1: a0 38        	ldy	#$38
    30b3: 91 10        	sta	($10),y                 ; 0x2010 <main+0x1b7c>
    30b5: a2 3f        	ldx	#$3f
    30b7: 8a           	txa
    30b8: a0 21        	ldy	#$21
    30ba: 91 10        	sta	($10),y                 ; 0x2010 <main+0x1b7c>
    30bc: 64 16        	stz	$16                     ; 0x2016 <main+0x1b82>
    30be: a9 00        	lda	#$0
    30c0: a0 14        	ldy	#$14
    30c2: 91 10        	sta	($10),y                 ; 0x2010 <main+0x1b7c>
    30c4: a0 12        	ldy	#$12
    30c6: 91 10        	sta	($10),y                 ; 0x2010 <main+0x1b7c>
    30c8: a0 16        	ldy	#$16
    30ca: 91 10        	sta	($10),y                 ; 0x2010 <main+0x1b7c>
    30cc: a0 18        	ldy	#$18
    30ce: 91 10        	sta	($10),y                 ; 0x2010 <main+0x1b7c>
    30d0: a0 1c        	ldy	#$1c
    30d2: 91 10        	sta	($10),y                 ; 0x2010 <main+0x1b7c>
    30d4: a0 1e        	ldy	#$1e
    30d6: 91 10        	sta	($10),y                 ; 0x2010 <main+0x1b7c>
    30d8: a0 19        	ldy	#$19
    30da: 91 10        	sta	($10),y                 ; 0x2010 <main+0x1b7c>
    30dc: a0 ff        	ldy	#$ff
    30de: 98           	tya
    30df: a0 23        	ldy	#$23
    30e1: 91 10        	sta	($10),y                 ; 0x2010 <main+0x1b7c>
    30e3: a0 ff        	ldy	#$ff
    30e5: 98           	tya
    30e6: a0 25        	ldy	#$25
    30e8: 91 10        	sta	($10),y                 ; 0x2010 <main+0x1b7c>
    30ea: a0 ff        	ldy	#$ff
    30ec: 98           	tya
    30ed: a0 27        	ldy	#$27
    30ef: 91 10        	sta	($10),y                 ; 0x2010 <main+0x1b7c>
    30f1: a0 ff        	ldy	#$ff
    30f3: 98           	tya
    30f4: a0 2d        	ldy	#$2d
    30f6: 91 10        	sta	($10),y                 ; 0x2010 <main+0x1b7c>
    30f8: a0 ff        	ldy	#$ff
    30fa: 98           	tya
    30fb: a0 1f        	ldy	#$1f
    30fd: 91 10        	sta	($10),y                 ; 0x2010 <main+0x1b7c>
    30ff: a0 ff        	ldy	#$ff
    3101: 98           	tya
    3102: a0 35        	ldy	#$35
    3104: 91 10        	sta	($10),y                 ; 0x2010 <main+0x1b7c>
    3106: 68           	pla
    3107: 49 01        	eor	#$1
    3109: 85 16        	sta	$16                     ; 0x2016 <main+0x1b82>
    310b: a4 15        	ldy	$15                     ; 0x2015 <main+0x1b81>
    310d: 8c 00 d8     	sty	$d800                   ; 0xd800 <end_block9+0x3490>
    3110: a5 1a        	lda	$1a                     ; 0x201a <main+0x1b86>
    3112: 8d 01 d8     	sta	$d801                   ; 0xd801 <end_block9+0x3491>
    3115: 9c 02 d8     	stz	$d802                   ; 0xd802 <end_block9+0x3492>
    3118: 8c 04 d8     	sty	$d804                   ; 0xd804 <end_block9+0x3494>
    311b: 48           	pha
    311c: 5a           	phy
    311d: a0 15        	ldy	#$15
    311f: b1 10        	lda	($10),y                 ; 0x2010 <main+0x1b7c>
    3121: 8d 05 d8     	sta	$d805                   ; 0xd805 <end_block9+0x3495>
    3124: 88           	dey
    3125: b1 10        	lda	($10),y                 ; 0x2010 <main+0x1b7c>
    3127: 7a           	ply
    3128: 8d 06 d8     	sta	$d806                   ; 0xd806 <end_block9+0x3496>
    312b: 8c 08 d8     	sty	$d808                   ; 0xd808 <end_block9+0x3498>
    312e: 5a           	phy
    312f: a0 13        	ldy	#$13
    3131: b1 10        	lda	($10),y                 ; 0x2010 <main+0x1b7c>
    3133: 8d 09 d8     	sta	$d809                   ; 0xd809 <end_block9+0x3499>
    3136: 88           	dey
    3137: b1 10        	lda	($10),y                 ; 0x2010 <main+0x1b7c>
    3139: 7a           	ply
    313a: 8d 0a d8     	sta	$d80a                   ; 0xd80a <end_block9+0x349a>
    313d: 8c 0c d8     	sty	$d80c                   ; 0xd80c <end_block9+0x349c>
    3140: 5a           	phy
    3141: a0 17        	ldy	#$17
    3143: b1 10        	lda	($10),y                 ; 0x2010 <main+0x1b7c>
    3145: 8d 0d d8     	sta	$d80d                   ; 0xd80d <end_block9+0x349d>
    3148: 88           	dey
    3149: b1 10        	lda	($10),y                 ; 0x2010 <main+0x1b7c>
    314b: 7a           	ply
    314c: 8d 0e d8     	sta	$d80e                   ; 0xd80e <end_block9+0x349e>
    314f: 8c 10 d8     	sty	$d810                   ; 0xd810 <end_block9+0x34a0>
    3152: 5a           	phy
    3153: a0 1a        	ldy	#$1a
    3155: b1 10        	lda	($10),y                 ; 0x2010 <main+0x1b7c>
    3157: 8d 11 d8     	sta	$d811                   ; 0xd811 <end_block9+0x34a1>
    315a: a0 18        	ldy	#$18
    315c: b1 10        	lda	($10),y                 ; 0x2010 <main+0x1b7c>
    315e: 7a           	ply
    315f: 8d 12 d8     	sta	$d812                   ; 0xd812 <end_block9+0x34a2>
    3162: 8c 14 d8     	sty	$d814                   ; 0xd814 <end_block9+0x34a4>
    3165: 5a           	phy
    3166: a0 1d        	ldy	#$1d
    3168: b1 10        	lda	($10),y                 ; 0x2010 <main+0x1b7c>
    316a: 8d 15 d8     	sta	$d815                   ; 0xd815 <end_block9+0x34a5>
    316d: 88           	dey
    316e: b1 10        	lda	($10),y                 ; 0x2010 <main+0x1b7c>
    3170: 7a           	ply
    3171: 8d 16 d8     	sta	$d816                   ; 0xd816 <end_block9+0x34a6>
    3174: 8c 18 d8     	sty	$d818                   ; 0xd818 <end_block9+0x34a8>
    3177: 5a           	phy
    3178: a0 20        	ldy	#$20
    317a: b1 10        	lda	($10),y                 ; 0x2010 <main+0x1b7c>
    317c: 8d 19 d8     	sta	$d819                   ; 0xd819 <end_block9+0x34a9>
    317f: a0 1e        	ldy	#$1e
    3181: b1 10        	lda	($10),y                 ; 0x2010 <main+0x1b7c>
    3183: 7a           	ply
    3184: 8d 1a d8     	sta	$d81a                   ; 0xd81a <end_block9+0x34aa>
    3187: 8c 1c d8     	sty	$d81c                   ; 0xd81c <end_block9+0x34ac>
    318a: 5a           	phy
    318b: a0 1b        	ldy	#$1b
    318d: b1 10        	lda	($10),y                 ; 0x2010 <main+0x1b7c>
    318f: 8d 1d d8     	sta	$d81d                   ; 0xd81d <end_block9+0x34ad>
    3192: a0 19        	ldy	#$19
    3194: b1 10        	lda	($10),y                 ; 0x2010 <main+0x1b7c>
    3196: 7a           	ply
    3197: aa           	tax
    3198: 68           	pla
    3199: 8e 1e d8     	stx	$d81e                   ; 0xd81e <end_block9+0x34ae>
    319c: 8c 20 d8     	sty	$d820                   ; 0xd820 <end_block9+0x34b0>
    319f: a2 ff        	ldx	#$ff
    31a1: 8e 21 d8     	stx	$d821                   ; 0xd821 <end_block9+0x34b1>
    31a4: 8d 22 d8     	sta	$d822                   ; 0xd822 <end_block9+0x34b2>
    31a7: 48           	pha
    31a8: a0 22        	ldy	#$22
    31aa: b1 10        	lda	($10),y                 ; 0x2010 <main+0x1b7c>
    31ac: 8d 24 d8     	sta	$d824                   ; 0xd824 <end_block9+0x34b4>
    31af: a0 38        	ldy	#$38
    31b1: b1 10        	lda	($10),y                 ; 0x2010 <main+0x1b7c>
    31b3: aa           	tax
    31b4: 68           	pla
    31b5: 8e 25 d8     	stx	$d825                   ; 0xd825 <end_block9+0x34b5>
    31b8: 8d 26 d8     	sta	$d826                   ; 0xd826 <end_block9+0x34b6>
    31bb: 48           	pha
    31bc: a0 24        	ldy	#$24
    31be: b1 10        	lda	($10),y                 ; 0x2010 <main+0x1b7c>
    31c0: 8d 28 d8     	sta	$d828                   ; 0xd828 <end_block9+0x34b8>
    31c3: 88           	dey
    31c4: b1 10        	lda	($10),y                 ; 0x2010 <main+0x1b7c>
    31c6: aa           	tax
    31c7: 68           	pla
    31c8: 8e 29 d8     	stx	$d829                   ; 0xd829 <end_block9+0x34b9>
    31cb: 8d 2a d8     	sta	$d82a                   ; 0xd82a <end_block9+0x34ba>
    31ce: 48           	pha
    31cf: a0 26        	ldy	#$26
    31d1: b1 10        	lda	($10),y                 ; 0x2010 <main+0x1b7c>
    31d3: 8d 2c d8     	sta	$d82c                   ; 0xd82c <end_block9+0x34bc>
    31d6: 88           	dey
    31d7: b1 10        	lda	($10),y                 ; 0x2010 <main+0x1b7c>
    31d9: aa           	tax
    31da: 68           	pla
    31db: 8e 2d d8     	stx	$d82d                   ; 0xd82d <end_block9+0x34bd>
    31de: 8d 2e d8     	sta	$d82e                   ; 0xd82e <end_block9+0x34be>
    31e1: 48           	pha
    31e2: a0 2a        	ldy	#$2a
    31e4: b1 10        	lda	($10),y                 ; 0x2010 <main+0x1b7c>
    31e6: 8d 30 d8     	sta	$d830                   ; 0xd830 <end_block9+0x34c0>
    31e9: a0 27        	ldy	#$27
    31eb: b1 10        	lda	($10),y                 ; 0x2010 <main+0x1b7c>
    31ed: aa           	tax
    31ee: 68           	pla
    31ef: 8e 31 d8     	stx	$d831                   ; 0xd831 <end_block9+0x34c1>
    31f2: 8d 32 d8     	sta	$d832                   ; 0xd832 <end_block9+0x34c2>
    31f5: 48           	pha
    31f6: a0 34        	ldy	#$34
    31f8: b1 10        	lda	($10),y                 ; 0x2010 <main+0x1b7c>
    31fa: 8d 34 d8     	sta	$d834                   ; 0xd834 <end_block9+0x34c4>
    31fd: a0 2d        	ldy	#$2d
    31ff: b1 10        	lda	($10),y                 ; 0x2010 <main+0x1b7c>
    3201: aa           	tax
    3202: 68           	pla
    3203: 8e 35 d8     	stx	$d835                   ; 0xd835 <end_block9+0x34c5>
    3206: 8d 36 d8     	sta	$d836                   ; 0xd836 <end_block9+0x34c6>
    3209: 48           	pha
    320a: a0 21        	ldy	#$21
    320c: b1 10        	lda	($10),y                 ; 0x2010 <main+0x1b7c>
    320e: 8d 38 d8     	sta	$d838                   ; 0xd838 <end_block9+0x34c8>
    3211: a0 1f        	ldy	#$1f
    3213: b1 10        	lda	($10),y                 ; 0x2010 <main+0x1b7c>
    3215: aa           	tax
    3216: 68           	pla
    3217: 8e 39 d8     	stx	$d839                   ; 0xd839 <end_block9+0x34c9>
    321a: 8d 3a d8     	sta	$d83a                   ; 0xd83a <end_block9+0x34ca>
    321d: 48           	pha
    321e: a0 36        	ldy	#$36
    3220: b1 10        	lda	($10),y                 ; 0x2010 <main+0x1b7c>
    3222: 8d 3c d8     	sta	$d83c                   ; 0xd83c <end_block9+0x34cc>
    3225: 88           	dey
    3226: b1 10        	lda	($10),y                 ; 0x2010 <main+0x1b7c>
    3228: aa           	tax
    3229: 68           	pla
    322a: 8e 3d d8     	stx	$d83d                   ; 0xd83d <end_block9+0x34cd>
    322d: 8d 3e d8     	sta	$d83e                   ; 0xd83e <end_block9+0x34ce>
    3230: a5 16        	lda	$16                     ; 0x2016 <main+0x1b82>
    3232: a0 2a        	ldy	#$2a
    3234: 91 10        	sta	($10),y                 ; 0x2010 <main+0x1b7c>
    3236: a5 24        	lda	$24                     ; 0x2024 <main+0x1b90>
    3238: a0 2d        	ldy	#$2d
    323a: 91 10        	sta	($10),y                 ; 0x2010 <main+0x1b7c>
    323c: a2 25        	ldx	#$25
    323e: 8a           	txa
    323f: a0 38        	ldy	#$38
    3241: 91 10        	sta	($10),y                 ; 0x2010 <main+0x1b7c>
    3243: ca           	dex
    3244: 8a           	txa
    3245: a0 36        	ldy	#$36
    3247: 91 10        	sta	($10),y                 ; 0x2010 <main+0x1b7c>
    3249: a2 c9        	ldx	#$c9
    324b: 8a           	txa
    324c: 88           	dey
    324d: 91 10        	sta	($10),y                 ; 0x2010 <main+0x1b7c>
    324f: a2 01        	ldx	#$1
    3251: 64 18        	stz	$18                     ; 0x2018 <main+0x1b84>
    3253: a0 c9        	ldy	#$c9
    3255: 98           	tya
    3256: a0 34        	ldy	#$34
    3258: 91 10        	sta	($10),y                 ; 0x2010 <main+0x1b7c>
    325a: 64 14        	stz	$14                     ; 0x2014 <main+0x1b80>
    325c: 86 23        	stx	$23                     ; 0x2023 <main+0x1b8f>
    325e: 18           	clc
    325f: a5 10        	lda	$10                     ; 0x2010 <main+0x1b7c>
    3261: 69 58        	adc	#$58
    3263: 48           	pha
    3264: a5 11        	lda	$11                     ; 0x2011 <main+0x1b7d>
    3266: 69 20        	adc	#$20
    3268: 85 16        	sta	$16                     ; 0x2016 <main+0x1b82>
    326a: 68           	pla
    326b: a6 18        	ldx	$18                     ; 0x2018 <main+0x1b84>
    326d: 86 28        	stx	$28                     ; 0x2028 <main+0x1b94>
    326f: 86 15        	stx	$15                     ; 0x2015 <main+0x1b81>
    3271: 18           	clc
    3272: 65 15        	adc	$15                     ; 0x2015 <main+0x1b81>
    3274: aa           	tax
    3275: a5 16        	lda	$16                     ; 0x2016 <main+0x1b82>
    3277: 69 00        	adc	#$0
    3279: 86 16        	stx	$16                     ; 0x2016 <main+0x1b82>
    327b: 85 17        	sta	$17                     ; 0x2017 <main+0x1b83>
    327d: a9 1f        	lda	#$1f
    327f: a0 02        	ldy	#$2
    3281: 31 16        	and	($16),y                 ; 0x2016 <main+0x1b82>
    3283: 85 1f        	sta	$1f                     ; 0x201f <main+0x1b8b>
    3285: 18           	clc
    3286: a5 10        	lda	$10                     ; 0x2010 <main+0x1b7c>
    3288: 69 3a        	adc	#$3a
    328a: 48           	pha
    328b: a5 11        	lda	$11                     ; 0x2011 <main+0x1b7d>
    328d: 69 20        	adc	#$20
    328f: 85 16        	sta	$16                     ; 0x2016 <main+0x1b82>
    3291: 68           	pla
    3292: 18           	clc
    3293: 65 15        	adc	$15                     ; 0x2015 <main+0x1b81>
    3295: 85 15        	sta	$15                     ; 0x2015 <main+0x1b81>
    3297: a5 16        	lda	$16                     ; 0x2016 <main+0x1b82>
    3299: 69 00        	adc	#$0
    329b: aa           	tax
    329c: a5 15        	lda	$15                     ; 0x2015 <main+0x1b81>
    329e: 85 16        	sta	$16                     ; 0x2016 <main+0x1b82>
    32a0: 86 17        	stx	$17                     ; 0x2017 <main+0x1b83>
    32a2: 18           	clc
    32a3: 69 02        	adc	#$2
    32a5: 85 18        	sta	$18                     ; 0x2018 <main+0x1b84>
    32a7: 8a           	txa
    32a8: 69 00        	adc	#$0
    32aa: 85 19        	sta	$19                     ; 0x2019 <main+0x1b85>
    32ac: b1 16        	lda	($16),y                 ; 0x2016 <main+0x1b82>
    32ae: 85 2d        	sta	$2d                     ; 0x202d <main+0x1b99>
    32b0: 85 1b        	sta	$1b                     ; 0x201b <main+0x1b87>
    32b2: 88           	dey
    32b3: b1 18        	lda	($18),y                 ; 0x2018 <main+0x1b84>
    32b5: 85 25        	sta	$25                     ; 0x2025 <main+0x1b91>
    32b7: 85 1c        	sta	$1c                     ; 0x201c <main+0x1b88>
    32b9: a6 1f        	ldx	$1f                     ; 0x201f <main+0x1b8b>
    32bb: 86 1a        	stx	$1a                     ; 0x201a <main+0x1b86>
    32bd: 06 1a        	asl	$1a                     ; 0x201a <main+0x1b86>
    32bf: 64 15        	stz	$15                     ; 0x2015 <main+0x1b81>
    32c1: 26 15        	rol	$15                     ; 0x2015 <main+0x1b81>
    32c3: a4 1a        	ldy	$1a                     ; 0x201a <main+0x1b86>
    32c5: 06 1a        	asl	$1a                     ; 0x201a <main+0x1b86>
    32c7: 26 15        	rol	$15                     ; 0x2015 <main+0x1b81>
    32c9: 5a           	phy
    32ca: a6 1b        	ldx	$1b                     ; 0x201b <main+0x1b87>
    32cc: 86 1e        	stx	$1e                     ; 0x201e <main+0x1b8a>
    32ce: 06 1e        	asl	$1e                     ; 0x201e <main+0x1b8a>
    32d0: 2a           	rol
    32d1: a6 1e        	ldx	$1e                     ; 0x201e <main+0x1b8a>
    32d3: 86 22        	stx	$22                     ; 0x2022 <main+0x1b8e>
    32d5: 06 1e        	asl	$1e                     ; 0x201e <main+0x1b8a>
    32d7: 2a           	rol
    32d8: a2 00        	ldx	#$0
    32da: e4 1c        	cpx	$1c                     ; 0x201c <main+0x1b88>
    32dc: a0 01        	ldy	#$1
    32de: b0 02        	bcs	$32e2 <main+0x2e4e>
    32e0: a0 00        	ldy	#$0
    32e2: 84 29        	sty	$29                     ; 0x2029 <main+0x1b95>
    32e4: 7a           	ply
    32e5: 85 1d        	sta	$1d                     ; 0x201d <main+0x1b89>
    32e7: a5 1f        	lda	$1f                     ; 0x201f <main+0x1b8b>
    32e9: 85 2c        	sta	$2c                     ; 0x202c <main+0x1b98>
    32eb: e4 1c        	cpx	$1c                     ; 0x201c <main+0x1b88>
    32ed: d0 1d        	bne	$330c <main+0x2e78>
    32ef: c5 1b        	cmp	$1b                     ; 0x201b <main+0x1b87>
    32f1: 90 1d        	bcc	$3310 <main+0x2e7c>
    32f3: a6 1c        	ldx	$1c                     ; 0x201c <main+0x1b88>
    32f5: f0 03        	beq	$32fa <main+0x2e66>
    32f7: 4c 91 33     	jmp	$3391 <main+0x2efd>
    32fa: a6 2d        	ldx	$2d                     ; 0x202d <main+0x1b99>
    32fc: e4 1f        	cpx	$1f                     ; 0x201f <main+0x1b8b>
    32fe: b0 03        	bcs	$3303 <main+0x2e6f>
    3300: 4c 9a 33     	jmp	$339a <main+0x2f06>
    3303: a6 01        	ldx	$1                      ; 0x2001 <main+0x1b6d>
    3305: a0 02        	ldy	#$2
    3307: 84 01        	sty	$1                      ; 0x2001 <main+0x1b6d>
    3309: 4c ec 34     	jmp	$34ec <main+0x3058>
    330c: a6 29        	ldx	$29                     ; 0x2029 <main+0x1b95>
    330e: d0 e3        	bne	$32f3 <main+0x2e5f>
    3310: 18           	clc
    3311: 98           	tya
    3312: 69 28        	adc	#$28
    3314: 85 1f        	sta	$1f                     ; 0x201f <main+0x1b8b>
    3316: 85 24        	sta	$24                     ; 0x2024 <main+0x1b90>
    3318: a5 23        	lda	$23                     ; 0x2023 <main+0x1b8f>
    331a: 0a           	asl
    331b: 0a           	asl
    331c: 0a           	asl
    331d: a8           	tay
    331e: 18           	clc
    331f: 69 3c        	adc	#$3c
    3321: 85 27        	sta	$27                     ; 0x2027 <main+0x1b93>
    3323: a5 2d        	lda	$2d                     ; 0x202d <main+0x1b99>
    3325: 38           	sec
    3326: e5 2c        	sbc	$2c                     ; 0x202c <main+0x1b98>
    3328: 85 22        	sta	$22                     ; 0x2022 <main+0x1b8e>
    332a: a2 2a        	ldx	#$2a
    332c: 8e 40 dd     	stx	$dd40                   ; 0xdd40 <end_block9+0x39d0>
    332f: 9c 41 dd     	stz	$dd41                   ; 0xdd41 <end_block9+0x39d1>
    3332: a6 27        	ldx	$27                     ; 0x2027 <main+0x1b93>
    3334: 8e 41 dd     	stx	$dd41                   ; 0xdd41 <end_block9+0x39d1>
    3337: 9c 41 dd     	stz	$dd41                   ; 0xdd41 <end_block9+0x39d1>
    333a: 18           	clc
    333b: 98           	tya
    333c: 69 3d        	adc	#$3d
    333e: 8d 41 dd     	sta	$dd41                   ; 0xdd41 <end_block9+0x39d1>
    3341: a2 2b        	ldx	#$2b
    3343: 8e 40 dd     	stx	$dd40                   ; 0xdd40 <end_block9+0x39d0>
    3346: 9c 41 dd     	stz	$dd41                   ; 0xdd41 <end_block9+0x39d1>
    3349: 18           	clc
    334a: a5 24        	lda	$24                     ; 0x2024 <main+0x1b90>
    334c: 69 14        	adc	#$14
    334e: 8d 41 dd     	sta	$dd41                   ; 0xdd41 <end_block9+0x39d1>
    3351: 18           	clc
    3352: a5 22        	lda	$22                     ; 0x2022 <main+0x1b8e>
    3354: 65 1f        	adc	$1f                     ; 0x201f <main+0x1b8b>
    3356: 8d 41 dd     	sta	$dd41                   ; 0xdd41 <end_block9+0x39d1>
    3359: 29 fe        	and	#$fe
    335b: 8d 41 dd     	sta	$dd41                   ; 0xdd41 <end_block9+0x39d1>
    335e: a5 1e        	lda	$1e                     ; 0x201e <main+0x1b8a>
    3360: 09 01        	ora	#$1
    3362: 38           	sec
    3363: e5 1a        	sbc	$1a                     ; 0x201a <main+0x1b86>
    3365: a8           	tay
    3366: a5 1d        	lda	$1d                     ; 0x201d <main+0x1b89>
    3368: e5 15        	sbc	$15                     ; 0x2015 <main+0x1b81>
    336a: e8           	inx
    336b: 8e 40 dd     	stx	$dd40                   ; 0xdd40 <end_block9+0x39d0>
    336e: 80 05        	bra	$3375 <main+0x2ee1>
    3370: a4 1f        	ldy	$1f                     ; 0x201f <main+0x1b8b>
    3372: aa           	tax
    3373: f0 15        	beq	$338a <main+0x2ef6>
    3375: 9c 42 dd     	stz	$dd42                   ; 0xdd42 <end_block9+0x39d2>
    3378: a2 f8        	ldx	#$f8
    337a: 8e 43 dd     	stx	$dd43                   ; 0xdd43 <end_block9+0x39d3>
    337d: 84 1f        	sty	$1f                     ; 0x201f <main+0x1b8b>
    337f: a2 ff        	ldx	#$ff
    3381: c6 1f        	dec	$1f                     ; 0x201f <main+0x1b8b>
    3383: e4 1f        	cpx	$1f                     ; 0x201f <main+0x1b8b>
    3385: d0 e9        	bne	$3370 <main+0x2edc>
    3387: 3a           	dec
    3388: 80 e6        	bra	$3370 <main+0x2edc>
    338a: a6 1f        	ldx	$1f                     ; 0x201f <main+0x1b8b>
    338c: d0 e7        	bne	$3375 <main+0x2ee1>
    338e: 4c 20 34     	jmp	$3420 <main+0x2f8c>
    3391: a6 25        	ldx	$25                     ; 0x2025 <main+0x1b91>
    3393: e0 00        	cpx	#$0
    3395: 90 03        	bcc	$339a <main+0x2f06>
    3397: 4c 03 33     	jmp	$3303 <main+0x2e6f>
    339a: 18           	clc
    339b: a5 22        	lda	$22                     ; 0x2022 <main+0x1b8e>
    339d: 69 28        	adc	#$28
    339f: 85 1f        	sta	$1f                     ; 0x201f <main+0x1b8b>
    33a1: a8           	tay
    33a2: a5 23        	lda	$23                     ; 0x2023 <main+0x1b8f>
    33a4: 0a           	asl
    33a5: 0a           	asl
    33a6: 0a           	asl
    33a7: 85 24        	sta	$24                     ; 0x2024 <main+0x1b90>
    33a9: 18           	clc
    33aa: 69 3c        	adc	#$3c
    33ac: 85 27        	sta	$27                     ; 0x2027 <main+0x1b93>
    33ae: a5 2c        	lda	$2c                     ; 0x202c <main+0x1b98>
    33b0: 38           	sec
    33b1: e5 1b        	sbc	$1b                     ; 0x201b <main+0x1b87>
    33b3: 85 22        	sta	$22                     ; 0x2022 <main+0x1b8e>
    33b5: a2 2a        	ldx	#$2a
    33b7: 8e 40 dd     	stx	$dd40                   ; 0xdd40 <end_block9+0x39d0>
    33ba: 9c 41 dd     	stz	$dd41                   ; 0xdd41 <end_block9+0x39d1>
    33bd: a6 27        	ldx	$27                     ; 0x2027 <main+0x1b93>
    33bf: 8e 41 dd     	stx	$dd41                   ; 0xdd41 <end_block9+0x39d1>
    33c2: 9c 41 dd     	stz	$dd41                   ; 0xdd41 <end_block9+0x39d1>
    33c5: 18           	clc
    33c6: a5 24        	lda	$24                     ; 0x2024 <main+0x1b90>
    33c8: 69 3d        	adc	#$3d
    33ca: 8d 41 dd     	sta	$dd41                   ; 0xdd41 <end_block9+0x39d1>
    33cd: a2 2b        	ldx	#$2b
    33cf: 8e 40 dd     	stx	$dd40                   ; 0xdd40 <end_block9+0x39d0>
    33d2: 9c 41 dd     	stz	$dd41                   ; 0xdd41 <end_block9+0x39d1>
    33d5: 18           	clc
    33d6: 98           	tya
    33d7: 69 14        	adc	#$14
    33d9: 8d 41 dd     	sta	$dd41                   ; 0xdd41 <end_block9+0x39d1>
    33dc: 18           	clc
    33dd: a5 22        	lda	$22                     ; 0x2022 <main+0x1b8e>
    33df: 65 1f        	adc	$1f                     ; 0x201f <main+0x1b8b>
    33e1: 8d 41 dd     	sta	$dd41                   ; 0xdd41 <end_block9+0x39d1>
    33e4: 29 fe        	and	#$fe
    33e6: 8d 41 dd     	sta	$dd41                   ; 0xdd41 <end_block9+0x39d1>
    33e9: a5 1a        	lda	$1a                     ; 0x201a <main+0x1b86>
    33eb: 09 01        	ora	#$1
    33ed: 38           	sec
    33ee: e5 1e        	sbc	$1e                     ; 0x201e <main+0x1b8a>
    33f0: 85 1f        	sta	$1f                     ; 0x201f <main+0x1b8b>
    33f2: a5 15        	lda	$15                     ; 0x2015 <main+0x1b81>
    33f4: e5 1d        	sbc	$1d                     ; 0x201d <main+0x1b89>
    33f6: e8           	inx
    33f7: 8e 40 dd     	stx	$dd40                   ; 0xdd40 <end_block9+0x39d0>
    33fa: a0 07        	ldy	#$7
    33fc: 80 07        	bra	$3405 <main+0x2f71>
    33fe: a6 22        	ldx	$22                     ; 0x2022 <main+0x1b8e>
    3400: 86 1f        	stx	$1f                     ; 0x201f <main+0x1b8b>
    3402: aa           	tax
    3403: f0 17        	beq	$341c <main+0x2f88>
    3405: a2 e0        	ldx	#$e0
    3407: 8e 42 dd     	stx	$dd42                   ; 0xdd42 <end_block9+0x39d2>
    340a: 8c 43 dd     	sty	$dd43                   ; 0xdd43 <end_block9+0x39d3>
    340d: a6 1f        	ldx	$1f                     ; 0x201f <main+0x1b8b>
    340f: 86 22        	stx	$22                     ; 0x2022 <main+0x1b8e>
    3411: a2 ff        	ldx	#$ff
    3413: c6 22        	dec	$22                     ; 0x2022 <main+0x1b8e>
    3415: e4 22        	cpx	$22                     ; 0x2022 <main+0x1b8e>
    3417: d0 e5        	bne	$33fe <main+0x2f6a>
    3419: 3a           	dec
    341a: 80 e2        	bra	$33fe <main+0x2f6a>
    341c: a6 22        	ldx	$22                     ; 0x2022 <main+0x1b8e>
    341e: d0 e5        	bne	$3405 <main+0x2f71>
    3420: a6 01        	ldx	$1                      ; 0x2001 <main+0x1b6d>
    3422: a0 02        	ldy	#$2
    3424: 84 01        	sty	$1                      ; 0x2001 <main+0x1b6d>
    3426: a5 1c        	lda	$1c                     ; 0x201c <main+0x1b88>
    3428: d0 1d        	bne	$3447 <main+0x2fb3>
    342a: a5 2c        	lda	$2c                     ; 0x202c <main+0x1b98>
    342c: 85 1f        	sta	$1f                     ; 0x201f <main+0x1b8b>
    342e: a4 2d        	ldy	$2d                     ; 0x202d <main+0x1b99>
    3430: c4 1f        	cpy	$1f                     ; 0x201f <main+0x1b8b>
    3432: 90 1b        	bcc	$344f <main+0x2fbb>
    3434: a0 00        	ldy	#$0
    3436: c4 1c        	cpy	$1c                     ; 0x201c <main+0x1b88>
    3438: f0 03        	beq	$343d <main+0x2fa9>
    343a: 4c 37 35     	jmp	$3537 <main+0x30a3>
    343d: c5 1b        	cmp	$1b                     ; 0x201b <main+0x1b87>
    343f: 90 03        	bcc	$3444 <main+0x2fb0>
    3441: 4c ec 34     	jmp	$34ec <main+0x3058>
    3444: 4c 3b 35     	jmp	$353b <main+0x30a7>
    3447: a4 25        	ldy	$25                     ; 0x2025 <main+0x1b91>
    3449: c0 00        	cpy	#$0
    344b: a5 2c        	lda	$2c                     ; 0x202c <main+0x1b98>
    344d: b0 e5        	bcs	$3434 <main+0x2fa0>
    344f: 38           	sec
    3450: e5 1b        	sbc	$1b                     ; 0x201b <main+0x1b87>
    3452: a8           	tay
    3453: a9 00        	lda	#$0
    3455: e5 1c        	sbc	$1c                     ; 0x201c <main+0x1b88>
    3457: 85 1f        	sta	$1f                     ; 0x201f <main+0x1b8b>
    3459: a5 1e        	lda	$1e                     ; 0x201e <main+0x1b8a>
    345b: 0a           	asl
    345c: 26 1d        	rol	$1d                     ; 0x201d <main+0x1b89>
    345e: 0a           	asl
    345f: 85 15        	sta	$15                     ; 0x2015 <main+0x1b81>
    3461: 26 1d        	rol	$1d                     ; 0x201d <main+0x1b89>
    3463: 0a           	asl
    3464: 85 1a        	sta	$1a                     ; 0x201a <main+0x1b86>
    3466: a5 1d        	lda	$1d                     ; 0x201d <main+0x1b89>
    3468: 2a           	rol
    3469: 06 1a        	asl	$1a                     ; 0x201a <main+0x1b86>
    346b: 2a           	rol
    346c: 85 1b        	sta	$1b                     ; 0x201b <main+0x1b87>
    346e: 18           	clc
    346f: a5 1a        	lda	$1a                     ; 0x201a <main+0x1b86>
    3471: 65 15        	adc	$15                     ; 0x2015 <main+0x1b81>
    3473: 85 15        	sta	$15                     ; 0x2015 <main+0x1b81>
    3475: a5 1b        	lda	$1b                     ; 0x201b <main+0x1b87>
    3477: 65 1d        	adc	$1d                     ; 0x201d <main+0x1b89>
    3479: 85 1a        	sta	$1a                     ; 0x201a <main+0x1b86>
    347b: 5a           	phy
    347c: a0 38        	ldy	#$38
    347e: b1 10        	lda	($10),y                 ; 0x2010 <main+0x1b7c>
    3480: 38           	sec
    3481: e5 15        	sbc	$15                     ; 0x2015 <main+0x1b81>
    3483: 85 1e        	sta	$1e                     ; 0x201e <main+0x1b8a>
    3485: a0 34        	ldy	#$34
    3487: b1 10        	lda	($10),y                 ; 0x2010 <main+0x1b7c>
    3489: e5 1a        	sbc	$1a                     ; 0x201a <main+0x1b86>
    348b: 85 22        	sta	$22                     ; 0x2022 <main+0x1b8e>
    348d: 38           	sec
    348e: a0 36        	ldy	#$36
    3490: b1 10        	lda	($10),y                 ; 0x2010 <main+0x1b7c>
    3492: e5 15        	sbc	$15                     ; 0x2015 <main+0x1b81>
    3494: 85 25        	sta	$25                     ; 0x2025 <main+0x1b91>
    3496: 88           	dey
    3497: b1 10        	lda	($10),y                 ; 0x2010 <main+0x1b7c>
    3499: 7a           	ply
    349a: e5 1a        	sbc	$1a                     ; 0x201a <main+0x1b86>
    349c: 85 1b        	sta	$1b                     ; 0x201b <main+0x1b87>
    349e: 80 22        	bra	$34c2 <main+0x302e>
    34a0: 18           	clc
    34a1: a5 1e        	lda	$1e                     ; 0x201e <main+0x1b8a>
    34a3: 69 b0        	adc	#$b0
    34a5: 85 1e        	sta	$1e                     ; 0x201e <main+0x1b8a>
    34a7: a5 22        	lda	$22                     ; 0x2022 <main+0x1b8e>
    34a9: 69 ff        	adc	#$ff
    34ab: 85 22        	sta	$22                     ; 0x2022 <main+0x1b8e>
    34ad: 18           	clc
    34ae: a5 25        	lda	$25                     ; 0x2025 <main+0x1b91>
    34b0: 69 b0        	adc	#$b0
    34b2: 85 25        	sta	$25                     ; 0x2025 <main+0x1b91>
    34b4: a5 1b        	lda	$1b                     ; 0x201b <main+0x1b87>
    34b6: 69 ff        	adc	#$ff
    34b8: 85 1b        	sta	$1b                     ; 0x201b <main+0x1b87>
    34ba: a4 15        	ldy	$15                     ; 0x2015 <main+0x1b81>
    34bc: a5 1a        	lda	$1a                     ; 0x201a <main+0x1b86>
    34be: 85 1f        	sta	$1f                     ; 0x201f <main+0x1b8b>
    34c0: f0 24        	beq	$34e6 <main+0x3052>
    34c2: a5 25        	lda	$25                     ; 0x2025 <main+0x1b91>
    34c4: 85 1a        	sta	$1a                     ; 0x201a <main+0x1b86>
    34c6: a5 1e        	lda	$1e                     ; 0x201e <main+0x1b8a>
    34c8: 85 1c        	sta	$1c                     ; 0x201c <main+0x1b88>
    34ca: a5 22        	lda	$22                     ; 0x2022 <main+0x1b8e>
    34cc: 85 1d        	sta	$1d                     ; 0x201d <main+0x1b89>
    34ce: a9 15        	lda	#$15
    34d0: 92 1a        	sta	($1a)                   ; 0x201a <main+0x1b86>
    34d2: 92 1c        	sta	($1c)                   ; 0x201c <main+0x1b88>
    34d4: 84 15        	sty	$15                     ; 0x2015 <main+0x1b81>
    34d6: a4 1f        	ldy	$1f                     ; 0x201f <main+0x1b8b>
    34d8: 84 1a        	sty	$1a                     ; 0x201a <main+0x1b86>
    34da: a0 ff        	ldy	#$ff
    34dc: c6 15        	dec	$15                     ; 0x2015 <main+0x1b81>
    34de: c4 15        	cpy	$15                     ; 0x2015 <main+0x1b81>
    34e0: d0 be        	bne	$34a0 <main+0x300c>
    34e2: c6 1a        	dec	$1a                     ; 0x201a <main+0x1b86>
    34e4: 80 ba        	bra	$34a0 <main+0x300c>
    34e6: a5 15        	lda	$15                     ; 0x2015 <main+0x1b81>
    34e8: d0 d8        	bne	$34c2 <main+0x302e>
    34ea: a5 2c        	lda	$2c                     ; 0x202c <main+0x1b98>
    34ec: 86 01        	stx	$1                      ; 0x2001 <main+0x1b6d>
    34ee: a0 02        	ldy	#$2
    34f0: 91 16        	sta	($16),y                 ; 0x2016 <main+0x1b82>
    34f2: a9 00        	lda	#$0
    34f4: 88           	dey
    34f5: 91 18        	sta	($18),y                 ; 0x2018 <main+0x1b84>
    34f7: a6 23        	ldx	$23                     ; 0x2023 <main+0x1b8f>
    34f9: e8           	inx
    34fa: d0 02        	bne	$34fe <main+0x306a>
    34fc: e6 14        	inc	$14                     ; 0x2014 <main+0x1b80>
    34fe: 18           	clc
    34ff: a5 28        	lda	$28                     ; 0x2028 <main+0x1b94>
    3501: 69 02        	adc	#$2
    3503: 85 18        	sta	$18                     ; 0x2018 <main+0x1b84>
    3505: 18           	clc
    3506: a0 38        	ldy	#$38
    3508: b1 10        	lda	($10),y                 ; 0x2010 <main+0x1b7c>
    350a: 69 03        	adc	#$3
    350c: 91 10        	sta	($10),y                 ; 0x2010 <main+0x1b7c>
    350e: a0 34        	ldy	#$34
    3510: b1 10        	lda	($10),y                 ; 0x2010 <main+0x1b7c>
    3512: 69 00        	adc	#$0
    3514: 91 10        	sta	($10),y                 ; 0x2010 <main+0x1b7c>
    3516: 18           	clc
    3517: a0 36        	ldy	#$36
    3519: b1 10        	lda	($10),y                 ; 0x2010 <main+0x1b7c>
    351b: 69 03        	adc	#$3
    351d: 91 10        	sta	($10),y                 ; 0x2010 <main+0x1b7c>
    351f: 88           	dey
    3520: b1 10        	lda	($10),y                 ; 0x2010 <main+0x1b7c>
    3522: 69 00        	adc	#$0
    3524: 91 10        	sta	($10),y                 ; 0x2010 <main+0x1b7c>
    3526: a5 14        	lda	$14                     ; 0x2014 <main+0x1b80>
    3528: f0 03        	beq	$352d <main+0x3099>
    352a: 4c 5c 32     	jmp	$325c <main+0x2dc8>
    352d: e0 0f        	cpx	#$f
    352f: f0 03        	beq	$3534 <main+0x30a0>
    3531: 4c 5c 32     	jmp	$325c <main+0x2dc8>
    3534: 4c db 35     	jmp	$35db <main+0x3147>
    3537: a4 29        	ldy	$29                     ; 0x2029 <main+0x1b95>
    3539: d0 b1        	bne	$34ec <main+0x3058>
    353b: c9 18        	cmp	#$18
    353d: b0 ad        	bcs	$34ec <main+0x3058>
    353f: 18           	clc
    3540: 69 e8        	adc	#$e8
    3542: a8           	tay
    3543: a9 00        	lda	#$0
    3545: 69 ff        	adc	#$ff
    3547: 85 1e        	sta	$1e                     ; 0x201e <main+0x1b8a>
    3549: 06 1a        	asl	$1a                     ; 0x201a <main+0x1b86>
    354b: 26 15        	rol	$15                     ; 0x2015 <main+0x1b81>
    354d: 06 1a        	asl	$1a                     ; 0x201a <main+0x1b86>
    354f: 26 15        	rol	$15                     ; 0x2015 <main+0x1b81>
    3551: a5 1a        	lda	$1a                     ; 0x201a <main+0x1b86>
    3553: 0a           	asl
    3554: 85 1b        	sta	$1b                     ; 0x201b <main+0x1b87>
    3556: a5 15        	lda	$15                     ; 0x2015 <main+0x1b81>
    3558: 2a           	rol
    3559: 06 1b        	asl	$1b                     ; 0x201b <main+0x1b87>
    355b: 2a           	rol
    355c: 85 1c        	sta	$1c                     ; 0x201c <main+0x1b88>
    355e: 18           	clc
    355f: a5 1b        	lda	$1b                     ; 0x201b <main+0x1b87>
    3561: 65 1a        	adc	$1a                     ; 0x201a <main+0x1b86>
    3563: 85 1a        	sta	$1a                     ; 0x201a <main+0x1b86>
    3565: a5 1c        	lda	$1c                     ; 0x201c <main+0x1b88>
    3567: 65 15        	adc	$15                     ; 0x2015 <main+0x1b81>
    3569: 85 15        	sta	$15                     ; 0x2015 <main+0x1b81>
    356b: 5a           	phy
    356c: a0 38        	ldy	#$38
    356e: b1 10        	lda	($10),y                 ; 0x2010 <main+0x1b7c>
    3570: 38           	sec
    3571: e5 1a        	sbc	$1a                     ; 0x201a <main+0x1b86>
    3573: 85 1f        	sta	$1f                     ; 0x201f <main+0x1b8b>
    3575: a0 34        	ldy	#$34
    3577: b1 10        	lda	($10),y                 ; 0x2010 <main+0x1b7c>
    3579: e5 15        	sbc	$15                     ; 0x2015 <main+0x1b81>
    357b: 85 22        	sta	$22                     ; 0x2022 <main+0x1b8e>
    357d: 38           	sec
    357e: a0 36        	ldy	#$36
    3580: b1 10        	lda	($10),y                 ; 0x2010 <main+0x1b7c>
    3582: e5 1a        	sbc	$1a                     ; 0x201a <main+0x1b86>
    3584: 85 1c        	sta	$1c                     ; 0x201c <main+0x1b88>
    3586: 88           	dey
    3587: b1 10        	lda	($10),y                 ; 0x2010 <main+0x1b7c>
    3589: 7a           	ply
    358a: e5 15        	sbc	$15                     ; 0x2015 <main+0x1b81>
    358c: 85 1b        	sta	$1b                     ; 0x201b <main+0x1b87>
    358e: 80 22        	bra	$35b2 <main+0x311e>
    3590: 18           	clc
    3591: a5 1f        	lda	$1f                     ; 0x201f <main+0x1b8b>
    3593: 69 b0        	adc	#$b0
    3595: 85 1f        	sta	$1f                     ; 0x201f <main+0x1b8b>
    3597: a5 22        	lda	$22                     ; 0x2022 <main+0x1b8e>
    3599: 69 ff        	adc	#$ff
    359b: 85 22        	sta	$22                     ; 0x2022 <main+0x1b8e>
    359d: 18           	clc
    359e: a5 25        	lda	$25                     ; 0x2025 <main+0x1b91>
    35a0: 69 b0        	adc	#$b0
    35a2: 85 1c        	sta	$1c                     ; 0x201c <main+0x1b88>
    35a4: a5 1b        	lda	$1b                     ; 0x201b <main+0x1b87>
    35a6: 69 ff        	adc	#$ff
    35a8: 85 1b        	sta	$1b                     ; 0x201b <main+0x1b87>
    35aa: a4 15        	ldy	$15                     ; 0x2015 <main+0x1b81>
    35ac: a5 1a        	lda	$1a                     ; 0x201a <main+0x1b86>
    35ae: 85 1e        	sta	$1e                     ; 0x201e <main+0x1b8a>
    35b0: f0 22        	beq	$35d4 <main+0x3140>
    35b2: a5 1c        	lda	$1c                     ; 0x201c <main+0x1b88>
    35b4: 85 1a        	sta	$1a                     ; 0x201a <main+0x1b86>
    35b6: 85 25        	sta	$25                     ; 0x2025 <main+0x1b91>
    35b8: a5 1f        	lda	$1f                     ; 0x201f <main+0x1b8b>
    35ba: 85 1c        	sta	$1c                     ; 0x201c <main+0x1b88>
    35bc: a5 22        	lda	$22                     ; 0x2022 <main+0x1b8e>
    35be: 85 1d        	sta	$1d                     ; 0x201d <main+0x1b89>
    35c0: a9 20        	lda	#$20
    35c2: 92 1a        	sta	($1a)                   ; 0x201a <main+0x1b86>
    35c4: 92 1c        	sta	($1c)                   ; 0x201c <main+0x1b88>
    35c6: 84 15        	sty	$15                     ; 0x2015 <main+0x1b81>
    35c8: a4 1e        	ldy	$1e                     ; 0x201e <main+0x1b8a>
    35ca: 84 1a        	sty	$1a                     ; 0x201a <main+0x1b86>
    35cc: e6 15        	inc	$15                     ; 0x2015 <main+0x1b81>
    35ce: d0 c0        	bne	$3590 <main+0x30fc>
    35d0: e6 1a        	inc	$1a                     ; 0x201a <main+0x1b86>
    35d2: 80 bc        	bra	$3590 <main+0x30fc>
    35d4: a5 15        	lda	$15                     ; 0x2015 <main+0x1b81>
    35d6: d0 da        	bne	$35b2 <main+0x311e>
    35d8: 4c ea 34     	jmp	$34ea <main+0x3056>
    35db: ae 04 d7     	ldx	$d704                   ; 0xd704 <end_block9+0x3394>
    35de: 86 14        	stx	$14                     ; 0x2014 <main+0x1b80>
    35e0: ad 05 d7     	lda	$d705                   ; 0xd705 <end_block9+0x3395>
    35e3: 29 07        	and	#$7
    35e5: 85 15        	sta	$15                     ; 0x2015 <main+0x1b81>
    35e7: 38           	sec
    35e8: a9 00        	lda	#$0
    35ea: e5 14        	sbc	$14                     ; 0x2014 <main+0x1b80>
    35ec: 85 14        	sta	$14                     ; 0x2014 <main+0x1b80>
    35ee: a9 08        	lda	#$8
    35f0: e5 15        	sbc	$15                     ; 0x2015 <main+0x1b81>
    35f2: 06 14        	asl	$14                     ; 0x2014 <main+0x1b80>
    35f4: 2a           	rol
    35f5: 64 15        	stz	$15                     ; 0x2015 <main+0x1b81>
    35f7: 26 15        	rol	$15                     ; 0x2015 <main+0x1b81>
    35f9: 06 14        	asl	$14                     ; 0x2014 <main+0x1b80>
    35fb: 2a           	rol
    35fc: 85 14        	sta	$14                     ; 0x2014 <main+0x1b80>
    35fe: 26 15        	rol	$15                     ; 0x2015 <main+0x1b81>
    3600: a0 2d        	ldy	#$2d
    3602: b1 10        	lda	($10),y                 ; 0x2010 <main+0x1b7c>
    3604: 85 24        	sta	$24                     ; 0x2024 <main+0x1b90>
    3606: a5 15        	lda	$15                     ; 0x2015 <main+0x1b81>
    3608: d0 07        	bne	$3611 <main+0x317d>
    360a: a5 14        	lda	$14                     ; 0x2014 <main+0x1b80>
    360c: d0 03        	bne	$3611 <main+0x317d>
    360e: 4c 79 39     	jmp	$3979 <main+0x34e5>
    3611: a0 00        	ldy	#$0
    3613: a2 00        	ldx	#$0
    3615: 5a           	phy
    3616: a0 32        	ldy	#$32
    3618: b1 10        	lda	($10),y                 ; 0x2010 <main+0x1b7c>
    361a: 7a           	ply
    361b: 29 01        	and	#$1
    361d: f0 03        	beq	$3622 <main+0x318e>
    361f: 4c 79 39     	jmp	$3979 <main+0x34e5>
    3622: 84 1c        	sty	$1c                     ; 0x201c <main+0x1b88>
    3624: a0 2f        	ldy	#$2f
    3626: b1 10        	lda	($10),y                 ; 0x2010 <main+0x1b7c>
    3628: 29 01        	and	#$1
    362a: d0 20        	bne	$364c <main+0x31b8>
    362c: 64 3a        	stz	$3a                     ; 0x203a <main+0x1ba6>
    362e: 20 00 ff     	jsr	$ff00 <end_block9+0x5b90>
    3631: 92 12        	sta	($12)                   ; 0x2012 <main+0x1b7e>
    3633: a9 00        	lda	#$0
    3635: 6a           	ror
    3636: 85 2a        	sta	$2a                     ; 0x202a <main+0x1b96>
    3638: a5 3a        	lda	$3a                     ; 0x203a <main+0x1ba6>
    363a: c9 08        	cmp	#$8
    363c: d0 0e        	bne	$364c <main+0x31b8>
    363e: a4 3e        	ldy	$3e                     ; 0x203e <main+0x1baa>
    3640: 98           	tya
    3641: a0 2b        	ldy	#$2b
    3643: 91 10        	sta	($10),y                 ; 0x2010 <main+0x1b7c>
    3645: a0 01        	ldy	#$1
    3647: 98           	tya
    3648: a0 2f        	ldy	#$2f
    364a: 91 10        	sta	($10),y                 ; 0x2010 <main+0x1b7c>
    364c: 18           	clc
    364d: a5 10        	lda	$10                     ; 0x2010 <main+0x1b7c>
    364f: 69 3a        	adc	#$3a
    3651: 85 16        	sta	$16                     ; 0x2016 <main+0x1b82>
    3653: a5 11        	lda	$11                     ; 0x2011 <main+0x1b7d>
    3655: 69 00        	adc	#$0
    3657: 85 17        	sta	$17                     ; 0x2017 <main+0x1b83>
    3659: a0 31        	ldy	#$31
    365b: b1 10        	lda	($10),y                 ; 0x2010 <main+0x1b7c>
    365d: 85 27        	sta	$27                     ; 0x2027 <main+0x1b93>
    365f: 18           	clc
    3660: 65 16        	adc	$16                     ; 0x2016 <main+0x1b82>
    3662: 85 16        	sta	$16                     ; 0x2016 <main+0x1b82>
    3664: a5 2f        	lda	$2f                     ; 0x202f <main+0x1b9b>
    3666: 65 17        	adc	$17                     ; 0x2017 <main+0x1b83>
    3668: 85 17        	sta	$17                     ; 0x2017 <main+0x1b83>
    366a: b2 16        	lda	($16)                   ; 0x2016 <main+0x1b82>
    366c: 8d 07 d7     	sta	$d707                   ; 0xd707 <end_block9+0x3397>
    366f: a0 01        	ldy	#$1
    3671: b1 16        	lda	($16),y                 ; 0x2016 <main+0x1b82>
    3673: 8d 07 d7     	sta	$d707                   ; 0xd707 <end_block9+0x3397>
    3676: c8           	iny
    3677: b1 16        	lda	($16),y                 ; 0x2016 <main+0x1b82>
    3679: 8d 07 d7     	sta	$d707                   ; 0xd707 <end_block9+0x3397>
    367c: c8           	iny
    367d: b1 16        	lda	($16),y                 ; 0x2016 <main+0x1b82>
    367f: 8d 07 d7     	sta	$d707                   ; 0xd707 <end_block9+0x3397>
    3682: c8           	iny
    3683: b1 16        	lda	($16),y                 ; 0x2016 <main+0x1b82>
    3685: 8d 07 d7     	sta	$d707                   ; 0xd707 <end_block9+0x3397>
    3688: c8           	iny
    3689: b1 16        	lda	($16),y                 ; 0x2016 <main+0x1b82>
    368b: 8d 07 d7     	sta	$d707                   ; 0xd707 <end_block9+0x3397>
    368e: c8           	iny
    368f: b1 16        	lda	($16),y                 ; 0x2016 <main+0x1b82>
    3691: 8d 07 d7     	sta	$d707                   ; 0xd707 <end_block9+0x3397>
    3694: c8           	iny
    3695: b1 16        	lda	($16),y                 ; 0x2016 <main+0x1b82>
    3697: 8d 07 d7     	sta	$d707                   ; 0xd707 <end_block9+0x3397>
    369a: c8           	iny
    369b: b1 16        	lda	($16),y                 ; 0x2016 <main+0x1b82>
    369d: 8d 07 d7     	sta	$d707                   ; 0xd707 <end_block9+0x3397>
    36a0: c8           	iny
    36a1: b1 16        	lda	($16),y                 ; 0x2016 <main+0x1b82>
    36a3: 8d 07 d7     	sta	$d707                   ; 0xd707 <end_block9+0x3397>
    36a6: c8           	iny
    36a7: b1 16        	lda	($16),y                 ; 0x2016 <main+0x1b82>
    36a9: 8d 07 d7     	sta	$d707                   ; 0xd707 <end_block9+0x3397>
    36ac: c8           	iny
    36ad: b1 16        	lda	($16),y                 ; 0x2016 <main+0x1b82>
    36af: 8d 07 d7     	sta	$d707                   ; 0xd707 <end_block9+0x3397>
    36b2: c8           	iny
    36b3: b1 16        	lda	($16),y                 ; 0x2016 <main+0x1b82>
    36b5: 8d 07 d7     	sta	$d707                   ; 0xd707 <end_block9+0x3397>
    36b8: c8           	iny
    36b9: b1 16        	lda	($16),y                 ; 0x2016 <main+0x1b82>
    36bb: 8d 07 d7     	sta	$d707                   ; 0xd707 <end_block9+0x3397>
    36be: c8           	iny
    36bf: b1 16        	lda	($16),y                 ; 0x2016 <main+0x1b82>
    36c1: 8d 07 d7     	sta	$d707                   ; 0xd707 <end_block9+0x3397>
    36c4: c8           	iny
    36c5: b1 16        	lda	($16),y                 ; 0x2016 <main+0x1b82>
    36c7: 8d 07 d7     	sta	$d707                   ; 0xd707 <end_block9+0x3397>
    36ca: c8           	iny
    36cb: b1 16        	lda	($16),y                 ; 0x2016 <main+0x1b82>
    36cd: 8d 07 d7     	sta	$d707                   ; 0xd707 <end_block9+0x3397>
    36d0: c8           	iny
    36d1: b1 16        	lda	($16),y                 ; 0x2016 <main+0x1b82>
    36d3: 8d 07 d7     	sta	$d707                   ; 0xd707 <end_block9+0x3397>
    36d6: c8           	iny
    36d7: b1 16        	lda	($16),y                 ; 0x2016 <main+0x1b82>
    36d9: 8d 07 d7     	sta	$d707                   ; 0xd707 <end_block9+0x3397>
    36dc: c8           	iny
    36dd: b1 16        	lda	($16),y                 ; 0x2016 <main+0x1b82>
    36df: 8d 07 d7     	sta	$d707                   ; 0xd707 <end_block9+0x3397>
    36e2: c8           	iny
    36e3: b1 16        	lda	($16),y                 ; 0x2016 <main+0x1b82>
    36e5: 8d 07 d7     	sta	$d707                   ; 0xd707 <end_block9+0x3397>
    36e8: c8           	iny
    36e9: b1 16        	lda	($16),y                 ; 0x2016 <main+0x1b82>
    36eb: 8d 07 d7     	sta	$d707                   ; 0xd707 <end_block9+0x3397>
    36ee: c8           	iny
    36ef: b1 16        	lda	($16),y                 ; 0x2016 <main+0x1b82>
    36f1: 8d 07 d7     	sta	$d707                   ; 0xd707 <end_block9+0x3397>
    36f4: c8           	iny
    36f5: b1 16        	lda	($16),y                 ; 0x2016 <main+0x1b82>
    36f7: 8d 07 d7     	sta	$d707                   ; 0xd707 <end_block9+0x3397>
    36fa: c8           	iny
    36fb: b1 16        	lda	($16),y                 ; 0x2016 <main+0x1b82>
    36fd: 8d 07 d7     	sta	$d707                   ; 0xd707 <end_block9+0x3397>
    3700: c8           	iny
    3701: b1 16        	lda	($16),y                 ; 0x2016 <main+0x1b82>
    3703: 8d 07 d7     	sta	$d707                   ; 0xd707 <end_block9+0x3397>
    3706: c8           	iny
    3707: b1 16        	lda	($16),y                 ; 0x2016 <main+0x1b82>
    3709: 8d 07 d7     	sta	$d707                   ; 0xd707 <end_block9+0x3397>
    370c: c8           	iny
    370d: b1 16        	lda	($16),y                 ; 0x2016 <main+0x1b82>
    370f: 8d 07 d7     	sta	$d707                   ; 0xd707 <end_block9+0x3397>
    3712: c8           	iny
    3713: b1 16        	lda	($16),y                 ; 0x2016 <main+0x1b82>
    3715: 8d 07 d7     	sta	$d707                   ; 0xd707 <end_block9+0x3397>
    3718: c8           	iny
    3719: b1 16        	lda	($16),y                 ; 0x2016 <main+0x1b82>
    371b: 8d 07 d7     	sta	$d707                   ; 0xd707 <end_block9+0x3397>
    371e: c8           	iny
    371f: b1 16        	lda	($16),y                 ; 0x2016 <main+0x1b82>
    3721: 8d 07 d7     	sta	$d707                   ; 0xd707 <end_block9+0x3397>
    3724: c8           	iny
    3725: b1 16        	lda	($16),y                 ; 0x2016 <main+0x1b82>
    3727: 8d 07 d7     	sta	$d707                   ; 0xd707 <end_block9+0x3397>
    372a: c8           	iny
    372b: b1 16        	lda	($16),y                 ; 0x2016 <main+0x1b82>
    372d: 8d 07 d7     	sta	$d707                   ; 0xd707 <end_block9+0x3397>
    3730: c8           	iny
    3731: b1 16        	lda	($16),y                 ; 0x2016 <main+0x1b82>
    3733: 8d 07 d7     	sta	$d707                   ; 0xd707 <end_block9+0x3397>
    3736: c8           	iny
    3737: b1 16        	lda	($16),y                 ; 0x2016 <main+0x1b82>
    3739: 8d 07 d7     	sta	$d707                   ; 0xd707 <end_block9+0x3397>
    373c: c8           	iny
    373d: b1 16        	lda	($16),y                 ; 0x2016 <main+0x1b82>
    373f: 8d 07 d7     	sta	$d707                   ; 0xd707 <end_block9+0x3397>
    3742: c8           	iny
    3743: b1 16        	lda	($16),y                 ; 0x2016 <main+0x1b82>
    3745: 8d 07 d7     	sta	$d707                   ; 0xd707 <end_block9+0x3397>
    3748: c8           	iny
    3749: b1 16        	lda	($16),y                 ; 0x2016 <main+0x1b82>
    374b: 8d 07 d7     	sta	$d707                   ; 0xd707 <end_block9+0x3397>
    374e: c8           	iny
    374f: b1 16        	lda	($16),y                 ; 0x2016 <main+0x1b82>
    3751: 8d 07 d7     	sta	$d707                   ; 0xd707 <end_block9+0x3397>
    3754: c8           	iny
    3755: b1 16        	lda	($16),y                 ; 0x2016 <main+0x1b82>
    3757: 8d 07 d7     	sta	$d707                   ; 0xd707 <end_block9+0x3397>
    375a: c8           	iny
    375b: b1 16        	lda	($16),y                 ; 0x2016 <main+0x1b82>
    375d: 8d 07 d7     	sta	$d707                   ; 0xd707 <end_block9+0x3397>
    3760: c8           	iny
    3761: b1 16        	lda	($16),y                 ; 0x2016 <main+0x1b82>
    3763: 8d 07 d7     	sta	$d707                   ; 0xd707 <end_block9+0x3397>
    3766: c8           	iny
    3767: b1 16        	lda	($16),y                 ; 0x2016 <main+0x1b82>
    3769: 8d 07 d7     	sta	$d707                   ; 0xd707 <end_block9+0x3397>
    376c: c8           	iny
    376d: b1 16        	lda	($16),y                 ; 0x2016 <main+0x1b82>
    376f: 8d 07 d7     	sta	$d707                   ; 0xd707 <end_block9+0x3397>
    3772: c8           	iny
    3773: b1 16        	lda	($16),y                 ; 0x2016 <main+0x1b82>
    3775: 8d 07 d7     	sta	$d707                   ; 0xd707 <end_block9+0x3397>
    3778: c8           	iny
    3779: b1 16        	lda	($16),y                 ; 0x2016 <main+0x1b82>
    377b: 8d 07 d7     	sta	$d707                   ; 0xd707 <end_block9+0x3397>
    377e: c8           	iny
    377f: b1 16        	lda	($16),y                 ; 0x2016 <main+0x1b82>
    3781: 8d 07 d7     	sta	$d707                   ; 0xd707 <end_block9+0x3397>
    3784: c8           	iny
    3785: b1 16        	lda	($16),y                 ; 0x2016 <main+0x1b82>
    3787: 8d 07 d7     	sta	$d707                   ; 0xd707 <end_block9+0x3397>
    378a: c8           	iny
    378b: b1 16        	lda	($16),y                 ; 0x2016 <main+0x1b82>
    378d: 8d 07 d7     	sta	$d707                   ; 0xd707 <end_block9+0x3397>
    3790: c8           	iny
    3791: b1 16        	lda	($16),y                 ; 0x2016 <main+0x1b82>
    3793: 8d 07 d7     	sta	$d707                   ; 0xd707 <end_block9+0x3397>
    3796: c8           	iny
    3797: b1 16        	lda	($16),y                 ; 0x2016 <main+0x1b82>
    3799: 8d 07 d7     	sta	$d707                   ; 0xd707 <end_block9+0x3397>
    379c: c8           	iny
    379d: b1 16        	lda	($16),y                 ; 0x2016 <main+0x1b82>
    379f: 8d 07 d7     	sta	$d707                   ; 0xd707 <end_block9+0x3397>
    37a2: c8           	iny
    37a3: b1 16        	lda	($16),y                 ; 0x2016 <main+0x1b82>
    37a5: 8d 07 d7     	sta	$d707                   ; 0xd707 <end_block9+0x3397>
    37a8: c8           	iny
    37a9: b1 16        	lda	($16),y                 ; 0x2016 <main+0x1b82>
    37ab: 8d 07 d7     	sta	$d707                   ; 0xd707 <end_block9+0x3397>
    37ae: c8           	iny
    37af: b1 16        	lda	($16),y                 ; 0x2016 <main+0x1b82>
    37b1: 8d 07 d7     	sta	$d707                   ; 0xd707 <end_block9+0x3397>
    37b4: c8           	iny
    37b5: b1 16        	lda	($16),y                 ; 0x2016 <main+0x1b82>
    37b7: 8d 07 d7     	sta	$d707                   ; 0xd707 <end_block9+0x3397>
    37ba: c8           	iny
    37bb: b1 16        	lda	($16),y                 ; 0x2016 <main+0x1b82>
    37bd: 8d 07 d7     	sta	$d707                   ; 0xd707 <end_block9+0x3397>
    37c0: c8           	iny
    37c1: b1 16        	lda	($16),y                 ; 0x2016 <main+0x1b82>
    37c3: 8d 07 d7     	sta	$d707                   ; 0xd707 <end_block9+0x3397>
    37c6: c8           	iny
    37c7: b1 16        	lda	($16),y                 ; 0x2016 <main+0x1b82>
    37c9: 8d 07 d7     	sta	$d707                   ; 0xd707 <end_block9+0x3397>
    37cc: c8           	iny
    37cd: b1 16        	lda	($16),y                 ; 0x2016 <main+0x1b82>
    37cf: 8d 07 d7     	sta	$d707                   ; 0xd707 <end_block9+0x3397>
    37d2: c8           	iny
    37d3: b1 16        	lda	($16),y                 ; 0x2016 <main+0x1b82>
    37d5: 8d 07 d7     	sta	$d707                   ; 0xd707 <end_block9+0x3397>
    37d8: c8           	iny
    37d9: b1 16        	lda	($16),y                 ; 0x2016 <main+0x1b82>
    37db: 8d 07 d7     	sta	$d707                   ; 0xd707 <end_block9+0x3397>
    37de: c8           	iny
    37df: b1 16        	lda	($16),y                 ; 0x2016 <main+0x1b82>
    37e1: 8d 07 d7     	sta	$d707                   ; 0xd707 <end_block9+0x3397>
    37e4: c8           	iny
    37e5: b1 16        	lda	($16),y                 ; 0x2016 <main+0x1b82>
    37e7: 8d 07 d7     	sta	$d707                   ; 0xd707 <end_block9+0x3397>
    37ea: a5 27        	lda	$27                     ; 0x2027 <main+0x1b93>
    37ec: 18           	clc
    37ed: 69 40        	adc	#$40
    37ef: 85 16        	sta	$16                     ; 0x2016 <main+0x1b82>
    37f1: a5 2f        	lda	$2f                     ; 0x202f <main+0x1b9b>
    37f3: 69 00        	adc	#$0
    37f5: 85 2f        	sta	$2f                     ; 0x202f <main+0x1b9b>
    37f7: c9 20        	cmp	#$20
    37f9: d0 0c        	bne	$3807 <main+0x3373>
    37fb: a4 26        	ldy	$26                     ; 0x2026 <main+0x1b92>
    37fd: a5 16        	lda	$16                     ; 0x2016 <main+0x1b82>
    37ff: d0 0a        	bne	$380b <main+0x3377>
    3801: a9 00        	lda	#$0
    3803: 64 2f        	stz	$2f                     ; 0x202f <main+0x1b9b>
    3805: 80 04        	bra	$380b <main+0x3377>
    3807: a4 26        	ldy	$26                     ; 0x2026 <main+0x1b92>
    3809: a5 16        	lda	$16                     ; 0x2016 <main+0x1b82>
    380b: 5a           	phy
    380c: a0 31        	ldy	#$31
    380e: 91 10        	sta	($10),y                 ; 0x2010 <main+0x1b7c>
    3810: 7a           	ply
    3811: 18           	clc
    3812: a5 10        	lda	$10                     ; 0x2010 <main+0x1b7c>
    3814: 69 3a        	adc	#$3a
    3816: 85 16        	sta	$16                     ; 0x2016 <main+0x1b82>
    3818: a5 11        	lda	$11                     ; 0x2011 <main+0x1b7d>
    381a: 69 00        	adc	#$0
    381c: 85 17        	sta	$17                     ; 0x2017 <main+0x1b83>
    381e: 98           	tya
    381f: 18           	clc
    3820: 65 16        	adc	$16                     ; 0x2016 <main+0x1b82>
    3822: 85 18        	sta	$18                     ; 0x2018 <main+0x1b84>
    3824: a5 2e        	lda	$2e                     ; 0x202e <main+0x1b9a>
    3826: 65 17        	adc	$17                     ; 0x2017 <main+0x1b83>
    3828: 85 1e        	sta	$1e                     ; 0x201e <main+0x1b8a>
    382a: a5 37        	lda	$37                     ; 0x2037 <main+0x1ba3>
    382c: 85 16        	sta	$16                     ; 0x2016 <main+0x1b82>
    382e: a5 38        	lda	$38                     ; 0x2038 <main+0x1ba4>
    3830: 85 17        	sta	$17                     ; 0x2017 <main+0x1b83>
    3832: a4 18        	ldy	$18                     ; 0x2018 <main+0x1b84>
    3834: 84 1a        	sty	$1a                     ; 0x201a <main+0x1b86>
    3836: 64 18        	stz	$18                     ; 0x2018 <main+0x1b84>
    3838: 64 19        	stz	$19                     ; 0x2019 <main+0x1b85>
    383a: b2 16        	lda	($16)                   ; 0x2016 <main+0x1b82>
    383c: a8           	tay
    383d: a5 1a        	lda	$1a                     ; 0x201a <main+0x1b86>
    383f: 85 1d        	sta	$1d                     ; 0x201d <main+0x1b89>
    3841: a5 1a        	lda	$1a                     ; 0x201a <main+0x1b86>
    3843: 18           	clc
    3844: 65 18        	adc	$18                     ; 0x2018 <main+0x1b84>
    3846: 85 1a        	sta	$1a                     ; 0x201a <main+0x1b86>
    3848: a5 1e        	lda	$1e                     ; 0x201e <main+0x1b8a>
    384a: 65 19        	adc	$19                     ; 0x2019 <main+0x1b85>
    384c: c0 00        	cpy	#$0
    384e: d0 03        	bne	$3853 <main+0x33bf>
    3850: 4c ae 38     	jmp	$38ae <main+0x341a>
    3853: 85 1b        	sta	$1b                     ; 0x201b <main+0x1b87>
    3855: a9 40        	lda	#$40
    3857: 38           	sec
    3858: e5 18        	sbc	$18                     ; 0x2018 <main+0x1b84>
    385a: 84 f3        	sty	$f3                     ; 0x20f3 <main+0x1c5f>
    385c: 85 f4        	sta	$f4                     ; 0x20f4 <main+0x1c60>
    385e: 20 60 ff     	jsr	$ff60 <end_block9+0x5bf0>
    3861: 92 12        	sta	($12)                   ; 0x2012 <main+0x1b7e>
    3863: a9 00        	lda	#$0
    3865: 6a           	ror
    3866: 85 2a        	sta	$2a                     ; 0x202a <main+0x1b96>
    3868: a5 39        	lda	$39                     ; 0x2039 <main+0x1ba5>
    386a: f0 03        	beq	$386f <main+0x33db>
    386c: 4c 04 39     	jmp	$3904 <main+0x3470>
    386f: 64 3a        	stz	$3a                     ; 0x203a <main+0x1ba6>
    3871: 20 00 ff     	jsr	$ff00 <end_block9+0x5b90>
    3874: 92 12        	sta	($12)                   ; 0x2012 <main+0x1b7e>
    3876: a9 00        	lda	#$0
    3878: 6a           	ror
    3879: 85 2a        	sta	$2a                     ; 0x202a <main+0x1b96>
    387b: a5 3a        	lda	$3a                     ; 0x203a <main+0x1ba6>
    387d: c9 38        	cmp	#$38
    387f: d0 03        	bne	$3884 <main+0x33f0>
    3881: 4c 04 39     	jmp	$3904 <main+0x3470>
    3884: c9 30        	cmp	#$30
    3886: d0 03        	bne	$388b <main+0x33f7>
    3888: 4c 08 39     	jmp	$3908 <main+0x3474>
    388b: c9 2c        	cmp	#$2c
    388d: d0 e0        	bne	$386f <main+0x33db>
    388f: 86 1f        	stx	$1f                     ; 0x201f <main+0x1b8b>
    3891: a4 1a        	ldy	$1a                     ; 0x201a <main+0x1b86>
    3893: 84 fb        	sty	$fb                     ; 0x20fb <main+0x1c67>
    3895: a4 1b        	ldy	$1b                     ; 0x201b <main+0x1b87>
    3897: 84 fc        	sty	$fc                     ; 0x20fc <main+0x1c68>
    3899: a5 40        	lda	$40                     ; 0x2040 <main+0x1bac>
    389b: 85 fd        	sta	$fd                     ; 0x20fd <main+0x1c69>
    389d: 20 04 ff     	jsr	$ff04 <end_block9+0x5b94>
    38a0: 92 12        	sta	($12)                   ; 0x2012 <main+0x1b7e>
    38a2: a9 00        	lda	#$0
    38a4: 6a           	ror
    38a5: 85 2a        	sta	$2a                     ; 0x202a <main+0x1b96>
    38a7: a5 40        	lda	$40                     ; 0x2040 <main+0x1bac>
    38a9: d0 33        	bne	$38de <main+0x344a>
    38ab: 4c 69 39     	jmp	$3969 <main+0x34d5>
    38ae: 85 1b        	sta	$1b                     ; 0x201b <main+0x1b87>
    38b0: 80 0a        	bra	$38bc <main+0x3428>
    38b2: 20 0c ff     	jsr	$ff0c <end_block9+0x5b9c>
    38b5: 92 12        	sta	($12)                   ; 0x2012 <main+0x1b7e>
    38b7: a9 00        	lda	#$0
    38b9: 6a           	ror
    38ba: 85 2a        	sta	$2a                     ; 0x202a <main+0x1b96>
    38bc: 64 3a        	stz	$3a                     ; 0x203a <main+0x1ba6>
    38be: 20 00 ff     	jsr	$ff00 <end_block9+0x5b90>
    38c1: 92 12        	sta	($12)                   ; 0x2012 <main+0x1b7e>
    38c3: a9 00        	lda	#$0
    38c5: 6a           	ror
    38c6: 85 2a        	sta	$2a                     ; 0x202a <main+0x1b96>
    38c8: a5 39        	lda	$39                     ; 0x2039 <main+0x1ba5>
    38ca: d0 e6        	bne	$38b2 <main+0x341e>
    38cc: a5 3a        	lda	$3a                     ; 0x203a <main+0x1ba6>
    38ce: c9 08        	cmp	#$8
    38d0: d0 ea        	bne	$38bc <main+0x3428>
    38d2: a5 40        	lda	$40                     ; 0x2040 <main+0x1bac>
    38d4: d0 e6        	bne	$38bc <main+0x3428>
    38d6: 86 1f        	stx	$1f                     ; 0x201f <main+0x1b8b>
    38d8: a5 3f        	lda	$3f                     ; 0x203f <main+0x1bab>
    38da: 92 1a        	sta	($1a)                   ; 0x201a <main+0x1b86>
    38dc: a9 01        	lda	#$1
    38de: a2 00        	ldx	#$0
    38e0: 18           	clc
    38e1: 65 18        	adc	$18                     ; 0x2018 <main+0x1b84>
    38e3: a8           	tay
    38e4: 8a           	txa
    38e5: 65 19        	adc	$19                     ; 0x2019 <main+0x1b85>
    38e7: d0 04        	bne	$38ed <main+0x3459>
    38e9: c0 40        	cpy	#$40
    38eb: 80 02        	bra	$38ef <main+0x345b>
    38ed: c9 00        	cmp	#$0
    38ef: 84 18        	sty	$18                     ; 0x2018 <main+0x1b84>
    38f1: 85 19        	sta	$19                     ; 0x2019 <main+0x1b85>
    38f3: a6 1d        	ldx	$1d                     ; 0x201d <main+0x1b89>
    38f5: 86 1a        	stx	$1a                     ; 0x201a <main+0x1b86>
    38f7: a6 1f        	ldx	$1f                     ; 0x201f <main+0x1b8b>
    38f9: b0 03        	bcs	$38fe <main+0x346a>
    38fb: 4c 3a 38     	jmp	$383a <main+0x33a6>
    38fe: c0 40        	cpy	#$40
    3900: f0 0c        	beq	$390e <main+0x347a>
    3902: 80 2c        	bra	$3930 <main+0x349c>
    3904: a0 ff        	ldy	#$ff
    3906: 80 28        	bra	$3930 <main+0x349c>
    3908: a4 18        	ldy	$18                     ; 0x2018 <main+0x1b84>
    390a: c0 40        	cpy	#$40
    390c: d0 22        	bne	$3930 <main+0x349c>
    390e: 18           	clc
    390f: a5 26        	lda	$26                     ; 0x2026 <main+0x1b92>
    3911: 69 40        	adc	#$40
    3913: 85 16        	sta	$16                     ; 0x2016 <main+0x1b82>
    3915: a5 2e        	lda	$2e                     ; 0x202e <main+0x1b9a>
    3917: 69 00        	adc	#$0
    3919: 85 2e        	sta	$2e                     ; 0x202e <main+0x1b9a>
    391b: c9 20        	cmp	#$20
    391d: d0 3f        	bne	$395e <main+0x34ca>
    391f: a4 1c        	ldy	$1c                     ; 0x201c <main+0x1b88>
    3921: a5 16        	lda	$16                     ; 0x2016 <main+0x1b82>
    3923: d0 4b        	bne	$3970 <main+0x34dc>
    3925: a9 00        	lda	#$0
    3927: 64 2e        	stz	$2e                     ; 0x202e <main+0x1b9a>
    3929: 85 26        	sta	$26                     ; 0x2026 <main+0x1b92>
    392b: c8           	iny
    392c: f0 21        	beq	$394f <main+0x34bb>
    392e: 80 20        	bra	$3950 <main+0x34bc>
    3930: 84 16        	sty	$16                     ; 0x2016 <main+0x1b82>
    3932: 18           	clc
    3933: a5 26        	lda	$26                     ; 0x2026 <main+0x1b92>
    3935: 65 16        	adc	$16                     ; 0x2016 <main+0x1b82>
    3937: a8           	tay
    3938: a5 2e        	lda	$2e                     ; 0x202e <main+0x1b9a>
    393a: 65 24        	adc	$24                     ; 0x2024 <main+0x1b90>
    393c: 85 2e        	sta	$2e                     ; 0x202e <main+0x1b9a>
    393e: 98           	tya
    393f: a0 01        	ldy	#$1
    3941: 48           	pha
    3942: 98           	tya
    3943: a0 32        	ldy	#$32
    3945: 91 10        	sta	($10),y                 ; 0x2010 <main+0x1b7c>
    3947: 68           	pla
    3948: a4 1c        	ldy	$1c                     ; 0x201c <main+0x1b88>
    394a: 85 26        	sta	$26                     ; 0x2026 <main+0x1b92>
    394c: c8           	iny
    394d: d0 01        	bne	$3950 <main+0x34bc>
    394f: e8           	inx
    3950: e4 15        	cpx	$15                     ; 0x2015 <main+0x1b81>
    3952: f0 03        	beq	$3957 <main+0x34c3>
    3954: 4c 15 36     	jmp	$3615 <main+0x3181>
    3957: c4 14        	cpy	$14                     ; 0x2014 <main+0x1b80>
    3959: f0 1e        	beq	$3979 <main+0x34e5>
    395b: 4c 15 36     	jmp	$3615 <main+0x3181>
    395e: a4 1c        	ldy	$1c                     ; 0x201c <main+0x1b88>
    3960: a5 16        	lda	$16                     ; 0x2016 <main+0x1b82>
    3962: 85 26        	sta	$26                     ; 0x2026 <main+0x1b92>
    3964: c8           	iny
    3965: d0 e9        	bne	$3950 <main+0x34bc>
    3967: 80 e6        	bra	$394f <main+0x34bb>
    3969: a9 00        	lda	#$0
    396b: a2 01        	ldx	#$1
    396d: 4c e0 38     	jmp	$38e0 <main+0x344c>
    3970: a5 16        	lda	$16                     ; 0x2016 <main+0x1b82>
    3972: 85 26        	sta	$26                     ; 0x2026 <main+0x1b92>
    3974: c8           	iny
    3975: f0 d8        	beq	$394f <main+0x34bb>
    3977: 80 d7        	bra	$3950 <main+0x34bc>
    3979: a0 32        	ldy	#$32
    397b: b1 10        	lda	($10),y                 ; 0x2010 <main+0x1b7c>
    397d: 29 01        	and	#$1
    397f: f0 03        	beq	$3984 <main+0x34f0>
    3981: 4c a3 3a     	jmp	$3aa3 <main+0x360f>
    3984: a0 2c        	ldy	#$2c
    3986: b1 10        	lda	($10),y                 ; 0x2010 <main+0x1b7c>
    3988: 29 01        	and	#$1
    398a: d0 49        	bne	$39d5 <main+0x3541>
    398c: a9 1f        	lda	#$1f
    398e: a0 04        	ldy	#$4
    3990: 48           	pha
    3991: 5a           	phy
    3992: a0 28        	ldy	#$28
    3994: b1 10        	lda	($10),y                 ; 0x2010 <main+0x1b7c>
    3996: 85 12        	sta	$12                     ; 0x2012 <main+0x1b7e>
    3998: c8           	iny
    3999: b1 10        	lda	($10),y                 ; 0x2010 <main+0x1b7c>
    399b: 7a           	ply
    399c: 85 13        	sta	$13                     ; 0x2013 <main+0x1b7f>
    399e: 68           	pla
    399f: 31 12        	and	($12),y                 ; 0x2012 <main+0x1b7e>
    39a1: f0 32        	beq	$39d5 <main+0x3541>
    39a3: 9c 14 d0     	stz	$d014                   ; 0xd014 <end_block9+0x2ca4>
    39a6: 9c 15 d0     	stz	$d015                   ; 0xd015 <end_block9+0x2ca5>
    39a9: 9c 16 d0     	stz	$d016                   ; 0xd016 <end_block9+0x2ca6>
    39ac: 9c 17 d0     	stz	$d017                   ; 0xd017 <end_block9+0x2ca7>
    39af: a2 3e        	ldx	#$3e
    39b1: 86 33        	stx	$33                     ; 0x2033 <main+0x1b9f>
    39b3: 8e 14 d0     	stx	$d014                   ; 0xd014 <end_block9+0x2ca4>
    39b6: 9c 15 d0     	stz	$d015                   ; 0xd015 <end_block9+0x2ca5>
    39b9: a2 08        	ldx	#$8
    39bb: 86 34        	stx	$34                     ; 0x2034 <main+0x1ba0>
    39bd: 8e 16 d0     	stx	$d016                   ; 0xd016 <end_block9+0x2ca6>
    39c0: 9c 17 d0     	stz	$d017                   ; 0xd017 <end_block9+0x2ca7>
    39c3: a2 31        	ldx	#$31
    39c5: 86 12        	stx	$12                     ; 0x2012 <main+0x1b7e>
    39c7: a2 67        	ldx	#$67
    39c9: 86 13        	stx	$13                     ; 0x2013 <main+0x1b7f>
    39cb: 20 85 4e     	jsr	$4e85 <textPrint>
    39ce: a2 01        	ldx	#$1
    39d0: 8a           	txa
    39d1: a0 2c        	ldy	#$2c
    39d3: 91 10        	sta	($10),y                 ; 0x2010 <main+0x1b7c>
    39d5: 64 3a        	stz	$3a                     ; 0x203a <main+0x1ba6>
    39d7: 18           	clc
    39d8: a5 10        	lda	$10                     ; 0x2010 <main+0x1b7c>
    39da: 69 76        	adc	#$76
    39dc: 85 12        	sta	$12                     ; 0x2012 <main+0x1b7e>
    39de: a5 11        	lda	$11                     ; 0x2011 <main+0x1b7d>
    39e0: 69 20        	adc	#$20
    39e2: 85 13        	sta	$13                     ; 0x2013 <main+0x1b7f>
    39e4: 20 00 ff     	jsr	$ff00 <end_block9+0x5b90>
    39e7: 92 12        	sta	($12)                   ; 0x2012 <main+0x1b7e>
    39e9: a9 00        	lda	#$0
    39eb: 6a           	ror
    39ec: 85 2a        	sta	$2a                     ; 0x202a <main+0x1b96>
    39ee: a6 3a        	ldx	$3a                     ; 0x203a <main+0x1ba6>
    39f0: e0 08        	cpx	#$8
    39f2: d0 10        	bne	$3a04 <main+0x3570>
    39f4: a6 3e        	ldx	$3e                     ; 0x203e <main+0x1baa>
    39f6: e0 81        	cpx	#$81
    39f8: d0 03        	bne	$39fd <main+0x3569>
    39fa: 4c b0 2c     	jmp	$2cb0 <main+0x281c>
    39fd: e0 92        	cpx	#$92
    39ff: d0 03        	bne	$3a04 <main+0x3570>
    3a01: 4c 1b 3f     	jmp	$3f1b <main+0x3a87>
    3a04: a0 2f        	ldy	#$2f
    3a06: b1 10        	lda	($10),y                 ; 0x2010 <main+0x1b7c>
    3a08: 29 01        	and	#$1
    3a0a: d0 03        	bne	$3a0f <main+0x357b>
    3a0c: 4c 36 32     	jmp	$3236 <main+0x2da2>
    3a0f: a0 2b        	ldy	#$2b
    3a11: b1 10        	lda	($10),y                 ; 0x2010 <main+0x1b7c>
    3a13: aa           	tax
    3a14: c9 81        	cmp	#$81
    3a16: d0 03        	bne	$3a1b <main+0x3587>
    3a18: 4c 85 2d     	jmp	$2d85 <main+0x28f1>
    3a1b: e0 92        	cpx	#$92
    3a1d: f0 03        	beq	$3a22 <main+0x358e>
    3a1f: 4c 36 32     	jmp	$3236 <main+0x2da2>
    3a22: a4 37        	ldy	$37                     ; 0x2037 <main+0x1ba3>
    3a24: a6 38        	ldx	$38                     ; 0x2038 <main+0x1ba4>
    3a26: 84 14        	sty	$14                     ; 0x2014 <main+0x1b80>
    3a28: 86 15        	stx	$15                     ; 0x2015 <main+0x1b81>
    3a2a: 86 18        	stx	$18                     ; 0x2018 <main+0x1b84>
    3a2c: b2 14        	lda	($14)                   ; 0x2014 <main+0x1b80>
    3a2e: 85 f3        	sta	$f3                     ; 0x20f3 <main+0x1c5f>
    3a30: a2 39        	ldx	#$39
    3a32: 86 16        	stx	$16                     ; 0x2016 <main+0x1b82>
    3a34: a2 00        	ldx	#$0
    3a36: 86 17        	stx	$17                     ; 0x2017 <main+0x1b83>
    3a38: 84 1e        	sty	$1e                     ; 0x201e <main+0x1b8a>
    3a3a: 98           	tya
    3a3b: 18           	clc
    3a3c: 69 fe        	adc	#$fe
    3a3e: aa           	tax
    3a3f: a5 18        	lda	$18                     ; 0x2018 <main+0x1b84>
    3a41: 85 1f        	sta	$1f                     ; 0x201f <main+0x1b8b>
    3a43: 69 ff        	adc	#$ff
    3a45: 85 18        	sta	$18                     ; 0x2018 <main+0x1b84>
    3a47: 86 14        	stx	$14                     ; 0x2014 <main+0x1b80>
    3a49: 85 15        	sta	$15                     ; 0x2015 <main+0x1b81>
    3a4b: a0 01        	ldy	#$1
    3a4d: 20 68 ff     	jsr	$ff68 <end_block9+0x5bf8>
    3a50: 92 12        	sta	($12)                   ; 0x2012 <main+0x1b7e>
    3a52: a9 00        	lda	#$0
    3a54: 6a           	ror
    3a55: 85 16        	sta	$16                     ; 0x2016 <main+0x1b82>
    3a57: b1 14        	lda	($14),y                 ; 0x2014 <main+0x1b80>
    3a59: 85 16        	sta	$16                     ; 0x2016 <main+0x1b82>
    3a5b: a9 fe        	lda	#$fe
    3a5d: 32 14        	and	($14)                   ; 0x2014 <main+0x1b80>
    3a5f: 85 17        	sta	$17                     ; 0x2017 <main+0x1b83>
    3a61: 86 1c        	stx	$1c                     ; 0x201c <main+0x1b88>
    3a63: 8a           	txa
    3a64: 18           	clc
    3a65: 65 17        	adc	$17                     ; 0x2017 <main+0x1b83>
    3a67: 85 23        	sta	$23                     ; 0x2023 <main+0x1b8f>
    3a69: a6 18        	ldx	$18                     ; 0x2018 <main+0x1b84>
    3a6b: 86 1d        	stx	$1d                     ; 0x201d <main+0x1b89>
    3a6d: a5 18        	lda	$18                     ; 0x2018 <main+0x1b84>
    3a6f: 65 16        	adc	$16                     ; 0x2016 <main+0x1b82>
    3a71: a8           	tay
    3a72: b2 14        	lda	($14)                   ; 0x2014 <main+0x1b80>
    3a74: 48           	pha
    3a75: 5a           	phy
    3a76: a0 11        	ldy	#$11
    3a78: b1 10        	lda	($10),y                 ; 0x2010 <main+0x1b7c>
    3a7a: 7a           	ply
    3a7b: 85 28        	sta	$28                     ; 0x2028 <main+0x1b94>
    3a7d: 68           	pla
    3a7e: c4 28        	cpy	$28                     ; 0x2028 <main+0x1b94>
    3a80: f0 03        	beq	$3a85 <main+0x35f1>
    3a82: 4c 9c 41     	jmp	$419c <main+0x3d08>
    3a85: 48           	pha
    3a86: 5a           	phy
    3a87: a0 10        	ldy	#$10
    3a89: b1 10        	lda	($10),y                 ; 0x2010 <main+0x1b7c>
    3a8b: 7a           	ply
    3a8c: 85 18        	sta	$18                     ; 0x2018 <main+0x1b84>
    3a8e: 68           	pla
    3a8f: a6 23        	ldx	$23                     ; 0x2023 <main+0x1b8f>
    3a91: e4 18        	cpx	$18                     ; 0x2018 <main+0x1b84>
    3a93: f0 03        	beq	$3a98 <main+0x3604>
    3a95: 4c 9e 41     	jmp	$419e <main+0x3d0a>
    3a98: a2 00        	ldx	#$0
    3a9a: 86 18        	stx	$18                     ; 0x2018 <main+0x1b84>
    3a9c: a2 00        	ldx	#$0
    3a9e: 86 19        	stx	$19                     ; 0x2019 <main+0x1b85>
    3aa0: 4c a2 41     	jmp	$41a2 <main+0x3d0e>
    3aa3: a2 08        	ldx	#$8
    3aa5: 64 18        	stz	$18                     ; 0x2018 <main+0x1b84>
    3aa7: a0 11        	ldy	#$11
    3aa9: b1 10        	lda	($10),y                 ; 0x2010 <main+0x1b7c>
    3aab: 85 28        	sta	$28                     ; 0x2028 <main+0x1b94>
    3aad: 80 08        	bra	$3ab7 <main+0x3623>
    3aaf: 84 18        	sty	$18                     ; 0x2018 <main+0x1b84>
    3ab1: 8a           	txa
    3ab2: d0 03        	bne	$3ab7 <main+0x3623>
    3ab4: 4c de 3b     	jmp	$3bde <main+0x374a>
    3ab7: 86 17        	stx	$17                     ; 0x2017 <main+0x1b83>
    3ab9: ae 04 d7     	ldx	$d704                   ; 0xd704 <end_block9+0x3394>
    3abc: 86 14        	stx	$14                     ; 0x2014 <main+0x1b80>
    3abe: ad 05 d7     	lda	$d705                   ; 0xd705 <end_block9+0x3395>
    3ac1: 29 07        	and	#$7
    3ac3: 85 15        	sta	$15                     ; 0x2015 <main+0x1b81>
    3ac5: 38           	sec
    3ac6: a9 00        	lda	#$0
    3ac8: e5 14        	sbc	$14                     ; 0x2014 <main+0x1b80>
    3aca: 85 16        	sta	$16                     ; 0x2016 <main+0x1b82>
    3acc: a9 08        	lda	#$8
    3ace: e5 15        	sbc	$15                     ; 0x2015 <main+0x1b81>
    3ad0: a4 16        	ldy	$16                     ; 0x2016 <main+0x1b82>
    3ad2: 06 16        	asl	$16                     ; 0x2016 <main+0x1b82>
    3ad4: 85 19        	sta	$19                     ; 0x2019 <main+0x1b85>
    3ad6: 2a           	rol
    3ad7: 64 15        	stz	$15                     ; 0x2015 <main+0x1b81>
    3ad9: 26 15        	rol	$15                     ; 0x2015 <main+0x1b81>
    3adb: 06 16        	asl	$16                     ; 0x2016 <main+0x1b82>
    3add: 2a           	rol
    3ade: 26 15        	rol	$15                     ; 0x2015 <main+0x1b81>
    3ae0: d0 10        	bne	$3af2 <main+0x365e>
    3ae2: aa           	tax
    3ae3: d0 0d        	bne	$3af2 <main+0x365e>
    3ae5: a6 17        	ldx	$17                     ; 0x2017 <main+0x1b83>
    3ae7: a4 18        	ldy	$18                     ; 0x2018 <main+0x1b84>
    3ae9: 80 c4        	bra	$3aaf <main+0x361b>
    3aeb: a6 15        	ldx	$15                     ; 0x2015 <main+0x1b81>
    3aed: d0 03        	bne	$3af2 <main+0x365e>
    3aef: 4c bf 3b     	jmp	$3bbf <main+0x372b>
    3af2: 9c 07 d7     	stz	$d707                   ; 0xd707 <end_block9+0x3397>
    3af5: 9c 07 d7     	stz	$d707                   ; 0xd707 <end_block9+0x3397>
    3af8: 9c 07 d7     	stz	$d707                   ; 0xd707 <end_block9+0x3397>
    3afb: 9c 07 d7     	stz	$d707                   ; 0xd707 <end_block9+0x3397>
    3afe: 9c 07 d7     	stz	$d707                   ; 0xd707 <end_block9+0x3397>
    3b01: 9c 07 d7     	stz	$d707                   ; 0xd707 <end_block9+0x3397>
    3b04: 9c 07 d7     	stz	$d707                   ; 0xd707 <end_block9+0x3397>
    3b07: 9c 07 d7     	stz	$d707                   ; 0xd707 <end_block9+0x3397>
    3b0a: 9c 07 d7     	stz	$d707                   ; 0xd707 <end_block9+0x3397>
    3b0d: 9c 07 d7     	stz	$d707                   ; 0xd707 <end_block9+0x3397>
    3b10: 9c 07 d7     	stz	$d707                   ; 0xd707 <end_block9+0x3397>
    3b13: 9c 07 d7     	stz	$d707                   ; 0xd707 <end_block9+0x3397>
    3b16: 9c 07 d7     	stz	$d707                   ; 0xd707 <end_block9+0x3397>
    3b19: 9c 07 d7     	stz	$d707                   ; 0xd707 <end_block9+0x3397>
    3b1c: 9c 07 d7     	stz	$d707                   ; 0xd707 <end_block9+0x3397>
    3b1f: 9c 07 d7     	stz	$d707                   ; 0xd707 <end_block9+0x3397>
    3b22: 9c 07 d7     	stz	$d707                   ; 0xd707 <end_block9+0x3397>
    3b25: 9c 07 d7     	stz	$d707                   ; 0xd707 <end_block9+0x3397>
    3b28: 9c 07 d7     	stz	$d707                   ; 0xd707 <end_block9+0x3397>
    3b2b: 9c 07 d7     	stz	$d707                   ; 0xd707 <end_block9+0x3397>
    3b2e: 9c 07 d7     	stz	$d707                   ; 0xd707 <end_block9+0x3397>
    3b31: 9c 07 d7     	stz	$d707                   ; 0xd707 <end_block9+0x3397>
    3b34: 9c 07 d7     	stz	$d707                   ; 0xd707 <end_block9+0x3397>
    3b37: 9c 07 d7     	stz	$d707                   ; 0xd707 <end_block9+0x3397>
    3b3a: 9c 07 d7     	stz	$d707                   ; 0xd707 <end_block9+0x3397>
    3b3d: 9c 07 d7     	stz	$d707                   ; 0xd707 <end_block9+0x3397>
    3b40: 9c 07 d7     	stz	$d707                   ; 0xd707 <end_block9+0x3397>
    3b43: 9c 07 d7     	stz	$d707                   ; 0xd707 <end_block9+0x3397>
    3b46: 9c 07 d7     	stz	$d707                   ; 0xd707 <end_block9+0x3397>
    3b49: 9c 07 d7     	stz	$d707                   ; 0xd707 <end_block9+0x3397>
    3b4c: 9c 07 d7     	stz	$d707                   ; 0xd707 <end_block9+0x3397>
    3b4f: 9c 07 d7     	stz	$d707                   ; 0xd707 <end_block9+0x3397>
    3b52: 9c 07 d7     	stz	$d707                   ; 0xd707 <end_block9+0x3397>
    3b55: 9c 07 d7     	stz	$d707                   ; 0xd707 <end_block9+0x3397>
    3b58: 9c 07 d7     	stz	$d707                   ; 0xd707 <end_block9+0x3397>
    3b5b: 9c 07 d7     	stz	$d707                   ; 0xd707 <end_block9+0x3397>
    3b5e: 9c 07 d7     	stz	$d707                   ; 0xd707 <end_block9+0x3397>
    3b61: 9c 07 d7     	stz	$d707                   ; 0xd707 <end_block9+0x3397>
    3b64: 9c 07 d7     	stz	$d707                   ; 0xd707 <end_block9+0x3397>
    3b67: 9c 07 d7     	stz	$d707                   ; 0xd707 <end_block9+0x3397>
    3b6a: 9c 07 d7     	stz	$d707                   ; 0xd707 <end_block9+0x3397>
    3b6d: 9c 07 d7     	stz	$d707                   ; 0xd707 <end_block9+0x3397>
    3b70: 9c 07 d7     	stz	$d707                   ; 0xd707 <end_block9+0x3397>
    3b73: 9c 07 d7     	stz	$d707                   ; 0xd707 <end_block9+0x3397>
    3b76: 9c 07 d7     	stz	$d707                   ; 0xd707 <end_block9+0x3397>
    3b79: 9c 07 d7     	stz	$d707                   ; 0xd707 <end_block9+0x3397>
    3b7c: 9c 07 d7     	stz	$d707                   ; 0xd707 <end_block9+0x3397>
    3b7f: 9c 07 d7     	stz	$d707                   ; 0xd707 <end_block9+0x3397>
    3b82: 9c 07 d7     	stz	$d707                   ; 0xd707 <end_block9+0x3397>
    3b85: 9c 07 d7     	stz	$d707                   ; 0xd707 <end_block9+0x3397>
    3b88: 9c 07 d7     	stz	$d707                   ; 0xd707 <end_block9+0x3397>
    3b8b: 9c 07 d7     	stz	$d707                   ; 0xd707 <end_block9+0x3397>
    3b8e: 9c 07 d7     	stz	$d707                   ; 0xd707 <end_block9+0x3397>
    3b91: 9c 07 d7     	stz	$d707                   ; 0xd707 <end_block9+0x3397>
    3b94: 9c 07 d7     	stz	$d707                   ; 0xd707 <end_block9+0x3397>
    3b97: 9c 07 d7     	stz	$d707                   ; 0xd707 <end_block9+0x3397>
    3b9a: 9c 07 d7     	stz	$d707                   ; 0xd707 <end_block9+0x3397>
    3b9d: 9c 07 d7     	stz	$d707                   ; 0xd707 <end_block9+0x3397>
    3ba0: 9c 07 d7     	stz	$d707                   ; 0xd707 <end_block9+0x3397>
    3ba3: 9c 07 d7     	stz	$d707                   ; 0xd707 <end_block9+0x3397>
    3ba6: 9c 07 d7     	stz	$d707                   ; 0xd707 <end_block9+0x3397>
    3ba9: 9c 07 d7     	stz	$d707                   ; 0xd707 <end_block9+0x3397>
    3bac: 9c 07 d7     	stz	$d707                   ; 0xd707 <end_block9+0x3397>
    3baf: 9c 07 d7     	stz	$d707                   ; 0xd707 <end_block9+0x3397>
    3bb2: 3a           	dec
    3bb3: c9 ff        	cmp	#$ff
    3bb5: f0 03        	beq	$3bba <main+0x3726>
    3bb7: 4c eb 3a     	jmp	$3aeb <main+0x3657>
    3bba: c6 15        	dec	$15                     ; 0x2015 <main+0x1b81>
    3bbc: 4c eb 3a     	jmp	$3aeb <main+0x3657>
    3bbf: aa           	tax
    3bc0: f0 03        	beq	$3bc5 <main+0x3731>
    3bc2: 4c f2 3a     	jmp	$3af2 <main+0x365e>
    3bc5: 98           	tya
    3bc6: 29 c0        	and	#$c0
    3bc8: 85 14        	sta	$14                     ; 0x2014 <main+0x1b80>
    3bca: a5 19        	lda	$19                     ; 0x2019 <main+0x1b85>
    3bcc: 29 0f        	and	#$f
    3bce: 85 15        	sta	$15                     ; 0x2015 <main+0x1b81>
    3bd0: 38           	sec
    3bd1: a5 18        	lda	$18                     ; 0x2018 <main+0x1b84>
    3bd3: e5 14        	sbc	$14                     ; 0x2014 <main+0x1b80>
    3bd5: a8           	tay
    3bd6: a5 17        	lda	$17                     ; 0x2017 <main+0x1b83>
    3bd8: e5 15        	sbc	$15                     ; 0x2015 <main+0x1b81>
    3bda: aa           	tax
    3bdb: 4c af 3a     	jmp	$3aaf <main+0x361b>
    3bde: 98           	tya
    3bdf: f0 03        	beq	$3be4 <main+0x3750>
    3be1: 4c b7 3a     	jmp	$3ab7 <main+0x3623>
    3be4: a4 37        	ldy	$37                     ; 0x2037 <main+0x1ba3>
    3be6: a6 38        	ldx	$38                     ; 0x2038 <main+0x1ba4>
    3be8: 84 14        	sty	$14                     ; 0x2014 <main+0x1b80>
    3bea: 86 15        	stx	$15                     ; 0x2015 <main+0x1b81>
    3bec: 86 18        	stx	$18                     ; 0x2018 <main+0x1b84>
    3bee: b2 14        	lda	($14)                   ; 0x2014 <main+0x1b80>
    3bf0: 85 f3        	sta	$f3                     ; 0x20f3 <main+0x1c5f>
    3bf2: a2 39        	ldx	#$39
    3bf4: 86 16        	stx	$16                     ; 0x2016 <main+0x1b82>
    3bf6: a2 00        	ldx	#$0
    3bf8: 86 17        	stx	$17                     ; 0x2017 <main+0x1b83>
    3bfa: 84 1e        	sty	$1e                     ; 0x201e <main+0x1b8a>
    3bfc: 98           	tya
    3bfd: 18           	clc
    3bfe: 69 fe        	adc	#$fe
    3c00: aa           	tax
    3c01: a5 18        	lda	$18                     ; 0x2018 <main+0x1b84>
    3c03: 85 1f        	sta	$1f                     ; 0x201f <main+0x1b8b>
    3c05: 69 ff        	adc	#$ff
    3c07: 85 18        	sta	$18                     ; 0x2018 <main+0x1b84>
    3c09: 86 14        	stx	$14                     ; 0x2014 <main+0x1b80>
    3c0b: 85 15        	sta	$15                     ; 0x2015 <main+0x1b81>
    3c0d: a0 01        	ldy	#$1
    3c0f: 20 68 ff     	jsr	$ff68 <end_block9+0x5bf8>
    3c12: 92 12        	sta	($12)                   ; 0x2012 <main+0x1b7e>
    3c14: a9 00        	lda	#$0
    3c16: 6a           	ror
    3c17: 85 16        	sta	$16                     ; 0x2016 <main+0x1b82>
    3c19: b1 14        	lda	($14),y                 ; 0x2014 <main+0x1b80>
    3c1b: 85 16        	sta	$16                     ; 0x2016 <main+0x1b82>
    3c1d: a9 fe        	lda	#$fe
    3c1f: 32 14        	and	($14)                   ; 0x2014 <main+0x1b80>
    3c21: 85 17        	sta	$17                     ; 0x2017 <main+0x1b83>
    3c23: 86 1c        	stx	$1c                     ; 0x201c <main+0x1b88>
    3c25: 8a           	txa
    3c26: 18           	clc
    3c27: 65 17        	adc	$17                     ; 0x2017 <main+0x1b83>
    3c29: 85 19        	sta	$19                     ; 0x2019 <main+0x1b85>
    3c2b: a6 18        	ldx	$18                     ; 0x2018 <main+0x1b84>
    3c2d: 86 1d        	stx	$1d                     ; 0x201d <main+0x1b89>
    3c2f: a5 18        	lda	$18                     ; 0x2018 <main+0x1b84>
    3c31: 65 16        	adc	$16                     ; 0x2016 <main+0x1b82>
    3c33: a8           	tay
    3c34: b2 14        	lda	($14)                   ; 0x2014 <main+0x1b80>
    3c36: c4 28        	cpy	$28                     ; 0x2028 <main+0x1b94>
    3c38: f0 03        	beq	$3c3d <main+0x37a9>
    3c3a: 4c 9f 3c     	jmp	$3c9f <main+0x380b>
    3c3d: 48           	pha
    3c3e: 5a           	phy
    3c3f: a0 10        	ldy	#$10
    3c41: b1 10        	lda	($10),y                 ; 0x2010 <main+0x1b7c>
    3c43: 7a           	ply
    3c44: 85 18        	sta	$18                     ; 0x2018 <main+0x1b84>
    3c46: 68           	pla
    3c47: a6 19        	ldx	$19                     ; 0x2019 <main+0x1b85>
    3c49: e4 18        	cpx	$18                     ; 0x2018 <main+0x1b84>
    3c4b: d0 54        	bne	$3ca1 <main+0x380d>
    3c4d: a2 00        	ldx	#$0
    3c4f: 86 18        	stx	$18                     ; 0x2018 <main+0x1b84>
    3c51: a2 00        	ldx	#$0
    3c53: 86 19        	stx	$19                     ; 0x2019 <main+0x1b85>
    3c55: 29 01        	and	#$1
    3c57: d0 53        	bne	$3cac <main+0x3818>
    3c59: 4c d4 3d     	jmp	$3dd4 <main+0x3940>
    3c5c: b2 16        	lda	($16)                   ; 0x2016 <main+0x1b82>
    3c5e: 85 25        	sta	$25                     ; 0x2025 <main+0x1b91>
    3c60: 64 3a        	stz	$3a                     ; 0x203a <main+0x1ba6>
    3c62: 20 00 ff     	jsr	$ff00 <end_block9+0x5b90>
    3c65: 92 16        	sta	($16)                   ; 0x2016 <main+0x1b82>
    3c67: a9 00        	lda	#$0
    3c69: 6a           	ror
    3c6a: 85 12        	sta	$12                     ; 0x2012 <main+0x1b7e>
    3c6c: a6 3a        	ldx	$3a                     ; 0x203a <main+0x1ba6>
    3c6e: e0 28        	cpx	#$28
    3c70: d0 03        	bne	$3c75 <main+0x37e1>
    3c72: 4c d4 26     	jmp	$26d4 <main+0x2240>
    3c75: e0 38        	cpx	#$38
    3c77: d0 03        	bne	$3c7c <main+0x37e8>
    3c79: 4c d4 26     	jmp	$26d4 <main+0x2240>
    3c7c: e0 2a        	cpx	#$2a
    3c7e: d0 e0        	bne	$3c60 <main+0x37cc>
    3c80: ad 6a a3     	lda	$a36a                   ; 0xa36a <_ZN12_GLOBAL__N_111initializedE>
    3c83: 29 01        	and	#$1
    3c85: ae 6e a3     	ldx	$a36e                   ; 0xa36e <_ZN12_GLOBAL__N_19free_listE>
    3c88: ac 6f a3     	ldy	$a36f                   ; 0xa36f <_ZN12_GLOBAL__N_19free_listE+0x1>
    3c8b: 86 12        	stx	$12                     ; 0x2012 <main+0x1b7e>
    3c8d: 84 13        	sty	$13                     ; 0x2013 <main+0x1b7f>
    3c8f: c9 00        	cmp	#$0
    3c91: d0 03        	bne	$3c96 <main+0x3802>
    3c93: 4c 78 47     	jmp	$4778 <main+0x42e4>
    3c96: a0 11        	ldy	#$11
    3c98: b1 10        	lda	($10),y                 ; 0x2010 <main+0x1b7c>
    3c9a: 85 26        	sta	$26                     ; 0x2026 <main+0x1b92>
    3c9c: 4c 92 48     	jmp	$4892 <main+0x43fe>
    3c9f: a6 19        	ldx	$19                     ; 0x2019 <main+0x1b85>
    3ca1: 86 18        	stx	$18                     ; 0x2018 <main+0x1b84>
    3ca3: 84 19        	sty	$19                     ; 0x2019 <main+0x1b85>
    3ca5: 29 01        	and	#$1
    3ca7: d0 03        	bne	$3cac <main+0x3818>
    3ca9: 4c d4 3d     	jmp	$3dd4 <main+0x3940>
    3cac: 18           	clc
    3cad: a5 1e        	lda	$1e                     ; 0x201e <main+0x1b8a>
    3caf: 69 fc        	adc	#$fc
    3cb1: 85 14        	sta	$14                     ; 0x2014 <main+0x1b80>
    3cb3: a5 1f        	lda	$1f                     ; 0x201f <main+0x1b8b>
    3cb5: 69 ff        	adc	#$ff
    3cb7: 85 15        	sta	$15                     ; 0x2015 <main+0x1b81>
    3cb9: a0 01        	ldy	#$1
    3cbb: 38           	sec
    3cbc: a9 00        	lda	#$0
    3cbe: f2 14        	sbc	($14)                   ; 0x2014 <main+0x1b80>
    3cc0: 85 1a        	sta	$1a                     ; 0x201a <main+0x1b86>
    3cc2: a9 00        	lda	#$0
    3cc4: f1 14        	sbc	($14),y                 ; 0x2014 <main+0x1b80>
    3cc6: 85 15        	sta	$15                     ; 0x2015 <main+0x1b81>
    3cc8: a5 1c        	lda	$1c                     ; 0x201c <main+0x1b88>
    3cca: 18           	clc
    3ccb: 65 1a        	adc	$1a                     ; 0x201a <main+0x1b86>
    3ccd: 85 14        	sta	$14                     ; 0x2014 <main+0x1b80>
    3ccf: 85 1b        	sta	$1b                     ; 0x201b <main+0x1b87>
    3cd1: a5 1d        	lda	$1d                     ; 0x201d <main+0x1b89>
    3cd3: 65 15        	adc	$15                     ; 0x2015 <main+0x1b81>
    3cd5: 85 15        	sta	$15                     ; 0x2015 <main+0x1b81>
    3cd7: aa           	tax
    3cd8: b1 14        	lda	($14),y                 ; 0x2014 <main+0x1b80>
    3cda: 85 1d        	sta	$1d                     ; 0x201d <main+0x1b89>
    3cdc: a9 fe        	lda	#$fe
    3cde: 32 14        	and	($14)                   ; 0x2014 <main+0x1b80>
    3ce0: ac 6c a3     	ldy	$a36c                   ; 0xa36c <_ZN12_GLOBAL__N_19free_sizeE>
    3ce3: 85 1f        	sta	$1f                     ; 0x201f <main+0x1b8b>
    3ce5: 85 1a        	sta	$1a                     ; 0x201a <main+0x1b86>
    3ce7: 38           	sec
    3ce8: 98           	tya
    3ce9: e5 1a        	sbc	$1a                     ; 0x201a <main+0x1b86>
    3ceb: 85 1c        	sta	$1c                     ; 0x201c <main+0x1b88>
    3ced: a4 1d        	ldy	$1d                     ; 0x201d <main+0x1b89>
    3cef: 84 1e        	sty	$1e                     ; 0x201e <main+0x1b8a>
    3cf1: 84 1a        	sty	$1a                     ; 0x201a <main+0x1b86>
    3cf3: ad 6d a3     	lda	$a36d                   ; 0xa36d <_ZN12_GLOBAL__N_19free_sizeE+0x1>
    3cf6: e5 1a        	sbc	$1a                     ; 0x201a <main+0x1b86>
    3cf8: a8           	tay
    3cf9: 18           	clc
    3cfa: a5 1c        	lda	$1c                     ; 0x201c <main+0x1b88>
    3cfc: 69 02        	adc	#$2
    3cfe: 85 1a        	sta	$1a                     ; 0x201a <main+0x1b86>
    3d00: 98           	tya
    3d01: 69 00        	adc	#$0
    3d03: a4 1a        	ldy	$1a                     ; 0x201a <main+0x1b86>
    3d05: 8c 6c a3     	sty	$a36c                   ; 0xa36c <_ZN12_GLOBAL__N_19free_sizeE>
    3d08: 8d 6d a3     	sta	$a36d                   ; 0xa36d <_ZN12_GLOBAL__N_19free_sizeE+0x1>
    3d0b: a4 1b        	ldy	$1b                     ; 0x201b <main+0x1b87>
    3d0d: 84 1c        	sty	$1c                     ; 0x201c <main+0x1b88>
    3d0f: a5 1b        	lda	$1b                     ; 0x201b <main+0x1b87>
    3d11: 18           	clc
    3d12: 69 02        	adc	#$2
    3d14: 85 1a        	sta	$1a                     ; 0x201a <main+0x1b86>
    3d16: 86 1d        	stx	$1d                     ; 0x201d <main+0x1b89>
    3d18: 8a           	txa
    3d19: 69 00        	adc	#$0
    3d1b: a0 02        	ldy	#$2
    3d1d: 85 1b        	sta	$1b                     ; 0x201b <main+0x1b87>
    3d1f: b1 14        	lda	($14),y                 ; 0x2014 <main+0x1b80>
    3d21: aa           	tax
    3d22: 88           	dey
    3d23: b1 1a        	lda	($1a),y                 ; 0x201a <main+0x1b86>
    3d25: 85 23        	sta	$23                     ; 0x2023 <main+0x1b8f>
    3d27: c5 15        	cmp	$15                     ; 0x2015 <main+0x1b81>
    3d29: d0 0f        	bne	$3d3a <main+0x38a6>
    3d2b: e4 14        	cpx	$14                     ; 0x2014 <main+0x1b80>
    3d2d: d0 0b        	bne	$3d3a <main+0x38a6>
    3d2f: a2 00        	ldx	#$0
    3d31: 86 1a        	stx	$1a                     ; 0x201a <main+0x1b86>
    3d33: a2 00        	ldx	#$0
    3d35: 86 1b        	stx	$1b                     ; 0x201b <main+0x1b87>
    3d37: 4c bd 3d     	jmp	$3dbd <main+0x3929>
    3d3a: 86 22        	stx	$22                     ; 0x2022 <main+0x1b8e>
    3d3c: a5 1c        	lda	$1c                     ; 0x201c <main+0x1b88>
    3d3e: a6 1c        	ldx	$1c                     ; 0x201c <main+0x1b88>
    3d40: 86 24        	stx	$24                     ; 0x2024 <main+0x1b90>
    3d42: 18           	clc
    3d43: 69 04        	adc	#$4
    3d45: 85 1a        	sta	$1a                     ; 0x201a <main+0x1b86>
    3d47: a6 1d        	ldx	$1d                     ; 0x201d <main+0x1b89>
    3d49: 86 25        	stx	$25                     ; 0x2025 <main+0x1b91>
    3d4b: a5 1d        	lda	$1d                     ; 0x201d <main+0x1b89>
    3d4d: 69 00        	adc	#$0
    3d4f: a0 04        	ldy	#$4
    3d51: 85 1b        	sta	$1b                     ; 0x201b <main+0x1b87>
    3d53: b1 14        	lda	($14),y                 ; 0x2014 <main+0x1b80>
    3d55: 85 26        	sta	$26                     ; 0x2026 <main+0x1b92>
    3d57: 18           	clc
    3d58: 69 02        	adc	#$2
    3d5a: 85 1c        	sta	$1c                     ; 0x201c <main+0x1b88>
    3d5c: a0 01        	ldy	#$1
    3d5e: b1 1a        	lda	($1a),y                 ; 0x201a <main+0x1b86>
    3d60: aa           	tax
    3d61: 69 00        	adc	#$0
    3d63: a4 1c        	ldy	$1c                     ; 0x201c <main+0x1b88>
    3d65: 84 1a        	sty	$1a                     ; 0x201a <main+0x1b86>
    3d67: 85 1b        	sta	$1b                     ; 0x201b <main+0x1b87>
    3d69: a4 26        	ldy	$26                     ; 0x2026 <main+0x1b92>
    3d6b: 84 1c        	sty	$1c                     ; 0x201c <main+0x1b88>
    3d6d: 86 1d        	stx	$1d                     ; 0x201d <main+0x1b89>
    3d6f: a0 02        	ldy	#$2
    3d71: a5 22        	lda	$22                     ; 0x2022 <main+0x1b8e>
    3d73: 91 1c        	sta	($1c),y                 ; 0x201c <main+0x1b88>
    3d75: a5 23        	lda	$23                     ; 0x2023 <main+0x1b8f>
    3d77: 88           	dey
    3d78: 91 1a        	sta	($1a),y                 ; 0x201a <main+0x1b86>
    3d7a: 18           	clc
    3d7b: a5 24        	lda	$24                     ; 0x2024 <main+0x1b90>
    3d7d: 69 02        	adc	#$2
    3d7f: 85 1a        	sta	$1a                     ; 0x201a <main+0x1b86>
    3d81: a5 25        	lda	$25                     ; 0x2025 <main+0x1b91>
    3d83: 69 00        	adc	#$0
    3d85: 85 1b        	sta	$1b                     ; 0x201b <main+0x1b87>
    3d87: c8           	iny
    3d88: b1 14        	lda	($14),y                 ; 0x2014 <main+0x1b80>
    3d8a: 85 1c        	sta	$1c                     ; 0x201c <main+0x1b88>
    3d8c: 88           	dey
    3d8d: b1 1a        	lda	($1a),y                 ; 0x201a <main+0x1b86>
    3d8f: a4 1c        	ldy	$1c                     ; 0x201c <main+0x1b88>
    3d91: 84 1a        	sty	$1a                     ; 0x201a <main+0x1b86>
    3d93: 85 1b        	sta	$1b                     ; 0x201b <main+0x1b87>
    3d95: 85 1d        	sta	$1d                     ; 0x201d <main+0x1b89>
    3d97: a0 04        	ldy	#$4
    3d99: a5 26        	lda	$26                     ; 0x2026 <main+0x1b92>
    3d9b: 91 1a        	sta	($1a),y                 ; 0x201a <main+0x1b86>
    3d9d: 18           	clc
    3d9e: a5 1c        	lda	$1c                     ; 0x201c <main+0x1b88>
    3da0: 69 04        	adc	#$4
    3da2: 85 1c        	sta	$1c                     ; 0x201c <main+0x1b88>
    3da4: a5 1d        	lda	$1d                     ; 0x201d <main+0x1b89>
    3da6: 69 00        	adc	#$0
    3da8: 85 1d        	sta	$1d                     ; 0x201d <main+0x1b89>
    3daa: 8a           	txa
    3dab: a0 01        	ldy	#$1
    3dad: 91 1c        	sta	($1c),y                 ; 0x201c <main+0x1b88>
    3daf: ae 6f a3     	ldx	$a36f                   ; 0xa36f <_ZN12_GLOBAL__N_19free_listE+0x1>
    3db2: e4 15        	cpx	$15                     ; 0x2015 <main+0x1b81>
    3db4: d0 11        	bne	$3dc7 <main+0x3933>
    3db6: ae 6e a3     	ldx	$a36e                   ; 0xa36e <_ZN12_GLOBAL__N_19free_listE>
    3db9: e4 14        	cpx	$14                     ; 0x2014 <main+0x1b80>
    3dbb: d0 0a        	bne	$3dc7 <main+0x3933>
    3dbd: a6 1a        	ldx	$1a                     ; 0x201a <main+0x1b86>
    3dbf: a4 1b        	ldy	$1b                     ; 0x201b <main+0x1b87>
    3dc1: 8e 6e a3     	stx	$a36e                   ; 0xa36e <_ZN12_GLOBAL__N_19free_listE>
    3dc4: 8c 6f a3     	sty	$a36f                   ; 0xa36f <_ZN12_GLOBAL__N_19free_listE+0x1>
    3dc7: 18           	clc
    3dc8: a5 1f        	lda	$1f                     ; 0x201f <main+0x1b8b>
    3dca: 65 17        	adc	$17                     ; 0x2017 <main+0x1b83>
    3dcc: 85 17        	sta	$17                     ; 0x2017 <main+0x1b83>
    3dce: a5 1e        	lda	$1e                     ; 0x201e <main+0x1b8a>
    3dd0: 65 16        	adc	$16                     ; 0x2016 <main+0x1b82>
    3dd2: 85 16        	sta	$16                     ; 0x2016 <main+0x1b82>
    3dd4: a2 00        	ldx	#$0
    3dd6: 86 1a        	stx	$1a                     ; 0x201a <main+0x1b86>
    3dd8: a2 00        	ldx	#$0
    3dda: 86 1b        	stx	$1b                     ; 0x201b <main+0x1b87>
    3ddc: a6 19        	ldx	$19                     ; 0x2019 <main+0x1b85>
    3dde: e4 1b        	cpx	$1b                     ; 0x201b <main+0x1b87>
    3de0: d0 0e        	bne	$3df0 <main+0x395c>
    3de2: a6 18        	ldx	$18                     ; 0x2018 <main+0x1b84>
    3de4: e4 1a        	cpx	$1a                     ; 0x201a <main+0x1b86>
    3de6: d0 08        	bne	$3df0 <main+0x395c>
    3de8: a2 01        	ldx	#$1
    3dea: 8e 6b a3     	stx	$a36b                   ; 0xa36b <_ZN12_GLOBAL__N_19last_freeE>
    3ded: 4c 49 42     	jmp	$4249 <main+0x3db5>
    3df0: a0 01        	ldy	#$1
    3df2: b1 18        	lda	($18),y                 ; 0x2018 <main+0x1b84>
    3df4: a8           	tay
    3df5: a9 fe        	lda	#$fe
    3df7: 32 18        	and	($18)                   ; 0x2018 <main+0x1b84>
    3df9: 18           	clc
    3dfa: 85 1f        	sta	$1f                     ; 0x201f <main+0x1b8b>
    3dfc: 65 18        	adc	$18                     ; 0x2018 <main+0x1b84>
    3dfe: aa           	tax
    3dff: 98           	tya
    3e00: 84 1e        	sty	$1e                     ; 0x201e <main+0x1b8a>
    3e02: 65 19        	adc	$19                     ; 0x2019 <main+0x1b85>
    3e04: c5 28        	cmp	$28                     ; 0x2028 <main+0x1b94>
    3e06: d0 19        	bne	$3e21 <main+0x398d>
    3e08: 48           	pha
    3e09: a0 10        	ldy	#$10
    3e0b: b1 10        	lda	($10),y                 ; 0x2010 <main+0x1b7c>
    3e0d: 85 1a        	sta	$1a                     ; 0x201a <main+0x1b86>
    3e0f: 68           	pla
    3e10: e4 1a        	cpx	$1a                     ; 0x201a <main+0x1b86>
    3e12: d0 0d        	bne	$3e21 <main+0x398d>
    3e14: a9 01        	lda	#$1
    3e16: 64 1a        	stz	$1a                     ; 0x201a <main+0x1b86>
    3e18: 2d 6b a3     	and	$a36b                   ; 0xa36b <_ZN12_GLOBAL__N_19last_freeE>
    3e1b: a6 1a        	ldx	$1a                     ; 0x201a <main+0x1b86>
    3e1d: d0 16        	bne	$3e35 <main+0x39a1>
    3e1f: 80 0e        	bra	$3e2f <main+0x399b>
    3e21: 86 1a        	stx	$1a                     ; 0x201a <main+0x1b86>
    3e23: 85 1b        	sta	$1b                     ; 0x201b <main+0x1b87>
    3e25: a9 01        	lda	#$1
    3e27: 32 1a        	and	($1a)                   ; 0x201a <main+0x1b86>
    3e29: 64 1a        	stz	$1a                     ; 0x201a <main+0x1b86>
    3e2b: a6 1a        	ldx	$1a                     ; 0x201a <main+0x1b86>
    3e2d: d0 06        	bne	$3e35 <main+0x39a1>
    3e2f: aa           	tax
    3e30: d0 03        	bne	$3e35 <main+0x39a1>
    3e32: 4c 3d 42     	jmp	$423d <main+0x3da9>
    3e35: ad 6c a3     	lda	$a36c                   ; 0xa36c <_ZN12_GLOBAL__N_19free_sizeE>
    3e38: ae 6d a3     	ldx	$a36d                   ; 0xa36d <_ZN12_GLOBAL__N_19free_sizeE+0x1>
    3e3b: 86 1b        	stx	$1b                     ; 0x201b <main+0x1b87>
    3e3d: 38           	sec
    3e3e: e5 1f        	sbc	$1f                     ; 0x201f <main+0x1b8b>
    3e40: aa           	tax
    3e41: a5 1b        	lda	$1b                     ; 0x201b <main+0x1b87>
    3e43: e5 1e        	sbc	$1e                     ; 0x201e <main+0x1b8a>
    3e45: 85 1a        	sta	$1a                     ; 0x201a <main+0x1b86>
    3e47: 18           	clc
    3e48: 8a           	txa
    3e49: 69 02        	adc	#$2
    3e4b: 85 1b        	sta	$1b                     ; 0x201b <main+0x1b87>
    3e4d: a5 1a        	lda	$1a                     ; 0x201a <main+0x1b86>
    3e4f: 69 00        	adc	#$0
    3e51: a6 1b        	ldx	$1b                     ; 0x201b <main+0x1b87>
    3e53: 8e 6c a3     	stx	$a36c                   ; 0xa36c <_ZN12_GLOBAL__N_19free_sizeE>
    3e56: 8d 6d a3     	sta	$a36d                   ; 0xa36d <_ZN12_GLOBAL__N_19free_sizeE+0x1>
    3e59: a5 18        	lda	$18                     ; 0x2018 <main+0x1b84>
    3e5b: 18           	clc
    3e5c: 69 02        	adc	#$2
    3e5e: 85 1a        	sta	$1a                     ; 0x201a <main+0x1b86>
    3e60: a5 19        	lda	$19                     ; 0x2019 <main+0x1b85>
    3e62: 69 00        	adc	#$0
    3e64: a0 02        	ldy	#$2
    3e66: 85 1b        	sta	$1b                     ; 0x201b <main+0x1b87>
    3e68: b1 18        	lda	($18),y                 ; 0x2018 <main+0x1b84>
    3e6a: aa           	tax
    3e6b: 88           	dey
    3e6c: b1 1a        	lda	($1a),y                 ; 0x201a <main+0x1b86>
    3e6e: 85 23        	sta	$23                     ; 0x2023 <main+0x1b8f>
    3e70: c5 19        	cmp	$19                     ; 0x2019 <main+0x1b85>
    3e72: d0 0f        	bne	$3e83 <main+0x39ef>
    3e74: e4 18        	cpx	$18                     ; 0x2018 <main+0x1b84>
    3e76: d0 0b        	bne	$3e83 <main+0x39ef>
    3e78: a2 00        	ldx	#$0
    3e7a: 86 1a        	stx	$1a                     ; 0x201a <main+0x1b86>
    3e7c: a2 00        	ldx	#$0
    3e7e: 86 1b        	stx	$1b                     ; 0x201b <main+0x1b87>
    3e80: 4c 02 3f     	jmp	$3f02 <main+0x3a6e>
    3e83: 86 22        	stx	$22                     ; 0x2022 <main+0x1b8e>
    3e85: a6 18        	ldx	$18                     ; 0x2018 <main+0x1b84>
    3e87: a5 18        	lda	$18                     ; 0x2018 <main+0x1b84>
    3e89: 86 25        	stx	$25                     ; 0x2025 <main+0x1b91>
    3e8b: 18           	clc
    3e8c: 69 04        	adc	#$4
    3e8e: 85 1a        	sta	$1a                     ; 0x201a <main+0x1b86>
    3e90: a5 19        	lda	$19                     ; 0x2019 <main+0x1b85>
    3e92: 69 00        	adc	#$0
    3e94: a0 04        	ldy	#$4
    3e96: 85 1b        	sta	$1b                     ; 0x201b <main+0x1b87>
    3e98: b1 18        	lda	($18),y                 ; 0x2018 <main+0x1b84>
    3e9a: 85 26        	sta	$26                     ; 0x2026 <main+0x1b92>
    3e9c: 18           	clc
    3e9d: 69 02        	adc	#$2
    3e9f: 85 1c        	sta	$1c                     ; 0x201c <main+0x1b88>
    3ea1: a0 01        	ldy	#$1
    3ea3: b1 1a        	lda	($1a),y                 ; 0x201a <main+0x1b86>
    3ea5: aa           	tax
    3ea6: 69 00        	adc	#$0
    3ea8: a4 1c        	ldy	$1c                     ; 0x201c <main+0x1b88>
    3eaa: 84 1a        	sty	$1a                     ; 0x201a <main+0x1b86>
    3eac: 85 1b        	sta	$1b                     ; 0x201b <main+0x1b87>
    3eae: a4 26        	ldy	$26                     ; 0x2026 <main+0x1b92>
    3eb0: 84 1c        	sty	$1c                     ; 0x201c <main+0x1b88>
    3eb2: 86 1d        	stx	$1d                     ; 0x201d <main+0x1b89>
    3eb4: a0 02        	ldy	#$2
    3eb6: a5 22        	lda	$22                     ; 0x2022 <main+0x1b8e>
    3eb8: 91 1c        	sta	($1c),y                 ; 0x201c <main+0x1b88>
    3eba: a5 23        	lda	$23                     ; 0x2023 <main+0x1b8f>
    3ebc: 88           	dey
    3ebd: 91 1a        	sta	($1a),y                 ; 0x201a <main+0x1b86>
    3ebf: 18           	clc
    3ec0: a5 25        	lda	$25                     ; 0x2025 <main+0x1b91>
    3ec2: 69 02        	adc	#$2
    3ec4: 85 1a        	sta	$1a                     ; 0x201a <main+0x1b86>
    3ec6: a5 19        	lda	$19                     ; 0x2019 <main+0x1b85>
    3ec8: 69 00        	adc	#$0
    3eca: 85 1b        	sta	$1b                     ; 0x201b <main+0x1b87>
    3ecc: c8           	iny
    3ecd: b1 18        	lda	($18),y                 ; 0x2018 <main+0x1b84>
    3ecf: 85 1c        	sta	$1c                     ; 0x201c <main+0x1b88>
    3ed1: 88           	dey
    3ed2: b1 1a        	lda	($1a),y                 ; 0x201a <main+0x1b86>
    3ed4: a4 1c        	ldy	$1c                     ; 0x201c <main+0x1b88>
    3ed6: 84 1a        	sty	$1a                     ; 0x201a <main+0x1b86>
    3ed8: 85 1b        	sta	$1b                     ; 0x201b <main+0x1b87>
    3eda: 85 1d        	sta	$1d                     ; 0x201d <main+0x1b89>
    3edc: a0 04        	ldy	#$4
    3ede: a5 26        	lda	$26                     ; 0x2026 <main+0x1b92>
    3ee0: 91 1a        	sta	($1a),y                 ; 0x201a <main+0x1b86>
    3ee2: 18           	clc
    3ee3: a5 1c        	lda	$1c                     ; 0x201c <main+0x1b88>
    3ee5: 69 04        	adc	#$4
    3ee7: 85 1c        	sta	$1c                     ; 0x201c <main+0x1b88>
    3ee9: a5 1d        	lda	$1d                     ; 0x201d <main+0x1b89>
    3eeb: 69 00        	adc	#$0
    3eed: 85 1d        	sta	$1d                     ; 0x201d <main+0x1b89>
    3eef: 8a           	txa
    3ef0: a0 01        	ldy	#$1
    3ef2: 91 1c        	sta	($1c),y                 ; 0x201c <main+0x1b88>
    3ef4: ae 6f a3     	ldx	$a36f                   ; 0xa36f <_ZN12_GLOBAL__N_19free_listE+0x1>
    3ef7: e4 19        	cpx	$19                     ; 0x2019 <main+0x1b85>
    3ef9: d0 11        	bne	$3f0c <main+0x3a78>
    3efb: ae 6e a3     	ldx	$a36e                   ; 0xa36e <_ZN12_GLOBAL__N_19free_listE>
    3efe: e4 18        	cpx	$18                     ; 0x2018 <main+0x1b84>
    3f00: d0 0a        	bne	$3f0c <main+0x3a78>
    3f02: a6 1a        	ldx	$1a                     ; 0x201a <main+0x1b86>
    3f04: a4 1b        	ldy	$1b                     ; 0x201b <main+0x1b87>
    3f06: 8e 6e a3     	stx	$a36e                   ; 0xa36e <_ZN12_GLOBAL__N_19free_listE>
    3f09: 8c 6f a3     	sty	$a36f                   ; 0xa36f <_ZN12_GLOBAL__N_19free_listE+0x1>
    3f0c: 18           	clc
    3f0d: a5 1f        	lda	$1f                     ; 0x201f <main+0x1b8b>
    3f0f: 65 17        	adc	$17                     ; 0x2017 <main+0x1b83>
    3f11: 85 17        	sta	$17                     ; 0x2017 <main+0x1b83>
    3f13: a5 1e        	lda	$1e                     ; 0x201e <main+0x1b8a>
    3f15: 65 16        	adc	$16                     ; 0x2016 <main+0x1b82>
    3f17: aa           	tax
    3f18: 4c 4b 42     	jmp	$424b <main+0x3db7>
    3f1b: a4 37        	ldy	$37                     ; 0x2037 <main+0x1ba3>
    3f1d: a6 38        	ldx	$38                     ; 0x2038 <main+0x1ba4>
    3f1f: 84 14        	sty	$14                     ; 0x2014 <main+0x1b80>
    3f21: 86 15        	stx	$15                     ; 0x2015 <main+0x1b81>
    3f23: 86 18        	stx	$18                     ; 0x2018 <main+0x1b84>
    3f25: b2 14        	lda	($14)                   ; 0x2014 <main+0x1b80>
    3f27: 85 f3        	sta	$f3                     ; 0x20f3 <main+0x1c5f>
    3f29: a2 39        	ldx	#$39
    3f2b: 86 16        	stx	$16                     ; 0x2016 <main+0x1b82>
    3f2d: a2 00        	ldx	#$0
    3f2f: 86 17        	stx	$17                     ; 0x2017 <main+0x1b83>
    3f31: 84 1e        	sty	$1e                     ; 0x201e <main+0x1b8a>
    3f33: 98           	tya
    3f34: 18           	clc
    3f35: 69 fe        	adc	#$fe
    3f37: 85 15        	sta	$15                     ; 0x2015 <main+0x1b81>
    3f39: a5 18        	lda	$18                     ; 0x2018 <main+0x1b84>
    3f3b: 85 1f        	sta	$1f                     ; 0x201f <main+0x1b8b>
    3f3d: 69 ff        	adc	#$ff
    3f3f: 85 18        	sta	$18                     ; 0x2018 <main+0x1b84>
    3f41: a6 15        	ldx	$15                     ; 0x2015 <main+0x1b81>
    3f43: 86 14        	stx	$14                     ; 0x2014 <main+0x1b80>
    3f45: 85 15        	sta	$15                     ; 0x2015 <main+0x1b81>
    3f47: a0 01        	ldy	#$1
    3f49: 20 68 ff     	jsr	$ff68 <end_block9+0x5bf8>
    3f4c: 92 12        	sta	($12)                   ; 0x2012 <main+0x1b7e>
    3f4e: a9 00        	lda	#$0
    3f50: 6a           	ror
    3f51: 85 16        	sta	$16                     ; 0x2016 <main+0x1b82>
    3f53: b1 14        	lda	($14),y                 ; 0x2014 <main+0x1b80>
    3f55: 85 16        	sta	$16                     ; 0x2016 <main+0x1b82>
    3f57: a9 fe        	lda	#$fe
    3f59: 32 14        	and	($14)                   ; 0x2014 <main+0x1b80>
    3f5b: 85 17        	sta	$17                     ; 0x2017 <main+0x1b83>
    3f5d: 86 1c        	stx	$1c                     ; 0x201c <main+0x1b88>
    3f5f: 8a           	txa
    3f60: 18           	clc
    3f61: 65 17        	adc	$17                     ; 0x2017 <main+0x1b83>
    3f63: 85 23        	sta	$23                     ; 0x2023 <main+0x1b8f>
    3f65: a6 18        	ldx	$18                     ; 0x2018 <main+0x1b84>
    3f67: 86 1d        	stx	$1d                     ; 0x201d <main+0x1b89>
    3f69: a5 18        	lda	$18                     ; 0x2018 <main+0x1b84>
    3f6b: 65 16        	adc	$16                     ; 0x2016 <main+0x1b82>
    3f6d: a8           	tay
    3f6e: b2 14        	lda	($14)                   ; 0x2014 <main+0x1b80>
    3f70: 48           	pha
    3f71: 5a           	phy
    3f72: a0 11        	ldy	#$11
    3f74: b1 10        	lda	($10),y                 ; 0x2010 <main+0x1b7c>
    3f76: 7a           	ply
    3f77: 85 28        	sta	$28                     ; 0x2028 <main+0x1b94>
    3f79: 68           	pla
    3f7a: c4 28        	cpy	$28                     ; 0x2028 <main+0x1b94>
    3f7c: f0 03        	beq	$3f81 <main+0x3aed>
    3f7e: 4c fb 40     	jmp	$40fb <main+0x3c67>
    3f81: 48           	pha
    3f82: 5a           	phy
    3f83: a0 10        	ldy	#$10
    3f85: b1 10        	lda	($10),y                 ; 0x2010 <main+0x1b7c>
    3f87: 7a           	ply
    3f88: 85 18        	sta	$18                     ; 0x2018 <main+0x1b84>
    3f8a: 68           	pla
    3f8b: a6 23        	ldx	$23                     ; 0x2023 <main+0x1b8f>
    3f8d: e4 18        	cpx	$18                     ; 0x2018 <main+0x1b84>
    3f8f: f0 03        	beq	$3f94 <main+0x3b00>
    3f91: 4c fd 40     	jmp	$40fd <main+0x3c69>
    3f94: a2 00        	ldx	#$0
    3f96: 86 18        	stx	$18                     ; 0x2018 <main+0x1b84>
    3f98: a2 00        	ldx	#$0
    3f9a: 86 19        	stx	$19                     ; 0x2019 <main+0x1b85>
    3f9c: 4c 01 41     	jmp	$4101 <main+0x3c6d>
    3f9f: ae 20 96     	ldx	$9620                   ; 0x9620 <fpr+0x2e>
    3fa2: ac 20 96     	ldy	$9620                   ; 0x9620 <fpr+0x2e>
    3fa5: 8c 00 96     	sty	$9600                   ; 0x9600 <fpr+0xe>
    3fa8: 8a           	txa
    3fa9: d0 03        	bne	$3fae <main+0x3b1a>
    3fab: 4c 3c 4a     	jmp	$4a3c <main+0x45a8>
    3fae: ae 21 96     	ldx	$9621                   ; 0x9621 <fpr+0x2f>
    3fb1: ac 21 96     	ldy	$9621                   ; 0x9621 <fpr+0x2f>
    3fb4: 8c 01 96     	sty	$9601                   ; 0x9601 <fpr+0xf>
    3fb7: 8a           	txa
    3fb8: d0 03        	bne	$3fbd <main+0x3b29>
    3fba: 4c 4a 4a     	jmp	$4a4a <main+0x45b6>
    3fbd: ae 22 96     	ldx	$9622                   ; 0x9622 <fpr+0x30>
    3fc0: ac 22 96     	ldy	$9622                   ; 0x9622 <fpr+0x30>
    3fc3: 8c 02 96     	sty	$9602                   ; 0x9602 <fpr+0x10>
    3fc6: 8a           	txa
    3fc7: d0 03        	bne	$3fcc <main+0x3b38>
    3fc9: 4c 9c 4d     	jmp	$4d9c <main+0x4908>
    3fcc: ae 23 96     	ldx	$9623                   ; 0x9623 <fpr+0x31>
    3fcf: ac 23 96     	ldy	$9623                   ; 0x9623 <fpr+0x31>
    3fd2: 8c 03 96     	sty	$9603                   ; 0x9603 <fpr+0x11>
    3fd5: 8a           	txa
    3fd6: d0 03        	bne	$3fdb <main+0x3b47>
    3fd8: 4c aa 4d     	jmp	$4daa <main+0x4916>
    3fdb: ae 24 96     	ldx	$9624                   ; 0x9624 <fpr+0x32>
    3fde: ac 24 96     	ldy	$9624                   ; 0x9624 <fpr+0x32>
    3fe1: 8c 04 96     	sty	$9604                   ; 0x9604 <fpr+0x12>
    3fe4: 8a           	txa
    3fe5: d0 03        	bne	$3fea <main+0x3b56>
    3fe7: 4c b8 4d     	jmp	$4db8 <main+0x4924>
    3fea: ae 25 96     	ldx	$9625                   ; 0x9625 <fpr+0x33>
    3fed: ac 25 96     	ldy	$9625                   ; 0x9625 <fpr+0x33>
    3ff0: 8c 05 96     	sty	$9605                   ; 0x9605 <fpr+0x13>
    3ff3: 8a           	txa
    3ff4: d0 03        	bne	$3ff9 <main+0x3b65>
    3ff6: 4c c6 4d     	jmp	$4dc6 <main+0x4932>
    3ff9: ae 26 96     	ldx	$9626                   ; 0x9626 <fpr+0x34>
    3ffc: ac 26 96     	ldy	$9626                   ; 0x9626 <fpr+0x34>
    3fff: 8c 06 96     	sty	$9606                   ; 0x9606 <fpr+0x14>
    4002: 8a           	txa
    4003: d0 03        	bne	$4008 <main+0x3b74>
    4005: 4c d4 4d     	jmp	$4dd4 <main+0x4940>
    4008: ae 27 96     	ldx	$9627                   ; 0x9627 <fpr+0x35>
    400b: ac 27 96     	ldy	$9627                   ; 0x9627 <fpr+0x35>
    400e: 8c 07 96     	sty	$9607                   ; 0x9607 <fpr+0x15>
    4011: 8a           	txa
    4012: d0 03        	bne	$4017 <main+0x3b83>
    4014: 4c e2 4d     	jmp	$4de2 <main+0x494e>
    4017: ae 28 96     	ldx	$9628                   ; 0x9628 <fpr+0x36>
    401a: ac 28 96     	ldy	$9628                   ; 0x9628 <fpr+0x36>
    401d: 8c 08 96     	sty	$9608                   ; 0x9608 <fpr+0x16>
    4020: 8a           	txa
    4021: d0 03        	bne	$4026 <main+0x3b92>
    4023: 4c f0 4d     	jmp	$4df0 <main+0x495c>
    4026: ae 29 96     	ldx	$9629                   ; 0x9629 <fpr+0x37>
    4029: ac 29 96     	ldy	$9629                   ; 0x9629 <fpr+0x37>
    402c: 8c 09 96     	sty	$9609                   ; 0x9609 <fpr+0x17>
    402f: 8a           	txa
    4030: d0 03        	bne	$4035 <main+0x3ba1>
    4032: 4c fe 4d     	jmp	$4dfe <main+0x496a>
    4035: ae 2a 96     	ldx	$962a                   ; 0x962a <fpr+0x38>
    4038: ac 2a 96     	ldy	$962a                   ; 0x962a <fpr+0x38>
    403b: 8c 0a 96     	sty	$960a                   ; 0x960a <fpr+0x18>
    403e: 8a           	txa
    403f: d0 03        	bne	$4044 <main+0x3bb0>
    4041: 4c 0c 4e     	jmp	$4e0c <main+0x4978>
    4044: ae 2b 96     	ldx	$962b                   ; 0x962b <fpr+0x39>
    4047: ac 2b 96     	ldy	$962b                   ; 0x962b <fpr+0x39>
    404a: 8c 0b 96     	sty	$960b                   ; 0x960b <fpr+0x19>
    404d: 8a           	txa
    404e: d0 03        	bne	$4053 <main+0x3bbf>
    4050: 4c 1a 4e     	jmp	$4e1a <main+0x4986>
    4053: ae 2c 96     	ldx	$962c                   ; 0x962c <fpr+0x3a>
    4056: ac 2c 96     	ldy	$962c                   ; 0x962c <fpr+0x3a>
    4059: 8c 0c 96     	sty	$960c                   ; 0x960c <fpr+0x1a>
    405c: 8a           	txa
    405d: d0 03        	bne	$4062 <main+0x3bce>
    405f: 4c 28 4e     	jmp	$4e28 <main+0x4994>
    4062: ae 2d 96     	ldx	$962d                   ; 0x962d <fpr+0x3b>
    4065: ac 2d 96     	ldy	$962d                   ; 0x962d <fpr+0x3b>
    4068: 8c 0d 96     	sty	$960d                   ; 0x960d <fpr+0x1b>
    406b: 8a           	txa
    406c: d0 03        	bne	$4071 <main+0x3bdd>
    406e: 4c 36 4e     	jmp	$4e36 <main+0x49a2>
    4071: ae 2e 96     	ldx	$962e                   ; 0x962e <fpr+0x3c>
    4074: ac 2e 96     	ldy	$962e                   ; 0x962e <fpr+0x3c>
    4077: 8c 0e 96     	sty	$960e                   ; 0x960e <fpr+0x1c>
    407a: 8a           	txa
    407b: d0 03        	bne	$4080 <main+0x3bec>
    407d: 4c 44 4e     	jmp	$4e44 <main+0x49b0>
    4080: a0 11        	ldy	#$11
    4082: b1 10        	lda	($10),y                 ; 0x2010 <main+0x1b7c>
    4084: ae 2f 96     	ldx	$962f                   ; 0x962f <fpr+0x3d>
    4087: ac 2f 96     	ldy	$962f                   ; 0x962f <fpr+0x3d>
    408a: 8c 0f 96     	sty	$960f                   ; 0x960f <fpr+0x1d>
    408d: 8a           	txa
    408e: d0 03        	bne	$4093 <main+0x3bff>
    4090: 4c 51 4e     	jmp	$4e51 <main+0x49bd>
    4093: ae 30 96     	ldx	$9630                   ; 0x9630 <fpr+0x3e>
    4096: ac 30 96     	ldy	$9630                   ; 0x9630 <fpr+0x3e>
    4099: 8c 10 96     	sty	$9610                   ; 0x9610 <fpr+0x1e>
    409c: 8a           	txa
    409d: d0 03        	bne	$40a2 <main+0x3c0e>
    409f: 4c 5d 4e     	jmp	$4e5d <main+0x49c9>
    40a2: ae 31 96     	ldx	$9631                   ; 0x9631 <fpr+0x3f>
    40a5: ac 31 96     	ldy	$9631                   ; 0x9631 <fpr+0x3f>
    40a8: 8c 11 96     	sty	$9611                   ; 0x9611 <fpr+0x1f>
    40ab: 8a           	txa
    40ac: d0 03        	bne	$40b1 <main+0x3c1d>
    40ae: 4c 69 4e     	jmp	$4e69 <main+0x49d5>
    40b1: ae 32 96     	ldx	$9632                   ; 0x9632 <fpr+0x40>
    40b4: ac 32 96     	ldy	$9632                   ; 0x9632 <fpr+0x40>
    40b7: 8c 12 96     	sty	$9612                   ; 0x9612 <fpr+0x20>
    40ba: 8a           	txa
    40bb: d0 03        	bne	$40c0 <main+0x3c2c>
    40bd: 4c 7a 4e     	jmp	$4e7a <main+0x49e6>
    40c0: ae 33 96     	ldx	$9633                   ; 0x9633 <fpr+0x41>
    40c3: 8e 13 96     	stx	$9613                   ; 0x9613 <fpr+0x21>
    40c6: 64 24        	stz	$24                     ; 0x2024 <main+0x1b90>
    40c8: 4c a8 22     	jmp	$22a8 <main+0x1e14>
    40cb: a2 15        	ldx	#$15
    40cd: a0 0a        	ldy	#$a
    40cf: 4c 2a 22     	jmp	$222a <main+0x1d96>
    40d2: a2 15        	ldx	#$15
    40d4: a0 0a        	ldy	#$a
    40d6: 4c 92 22     	jmp	$2292 <main+0x1dfe>
    40d9: a6 15        	ldx	$15                     ; 0x2015 <main+0x1b81>
    40db: 86 18        	stx	$18                     ; 0x2018 <main+0x1b84>
    40dd: aa           	tax
    40de: a5 18        	lda	$18                     ; 0x2018 <main+0x1b84>
    40e0: e0 12        	cpx	#$12
    40e2: d0 03        	bne	$40e7 <main+0x3c53>
    40e4: 4c 18 28     	jmp	$2818 <main+0x2384>
    40e7: 4c b5 28     	jmp	$28b5 <main+0x2421>
    40ea: a6 15        	ldx	$15                     ; 0x2015 <main+0x1b81>
    40ec: 86 18        	stx	$18                     ; 0x2018 <main+0x1b84>
    40ee: aa           	tax
    40ef: a5 18        	lda	$18                     ; 0x2018 <main+0x1b84>
    40f1: e0 03        	cpx	#$3
    40f3: d0 03        	bne	$40f8 <main+0x3c64>
    40f5: 4c ae 29     	jmp	$29ae <main+0x251a>
    40f8: 4c 4b 2a     	jmp	$2a4b <main+0x25b7>
    40fb: a6 23        	ldx	$23                     ; 0x2023 <main+0x1b8f>
    40fd: 86 18        	stx	$18                     ; 0x2018 <main+0x1b84>
    40ff: 84 19        	sty	$19                     ; 0x2019 <main+0x1b85>
    4101: 29 01        	and	#$1
    4103: d0 03        	bne	$4108 <main+0x3c74>
    4105: 4c 58 44     	jmp	$4458 <main+0x3fc4>
    4108: 18           	clc
    4109: a5 1e        	lda	$1e                     ; 0x201e <main+0x1b8a>
    410b: 69 fc        	adc	#$fc
    410d: 85 14        	sta	$14                     ; 0x2014 <main+0x1b80>
    410f: a5 1f        	lda	$1f                     ; 0x201f <main+0x1b8b>
    4111: 69 ff        	adc	#$ff
    4113: 85 15        	sta	$15                     ; 0x2015 <main+0x1b81>
    4115: a0 01        	ldy	#$1
    4117: a9 00        	lda	#$0
    4119: 38           	sec
    411a: f2 14        	sbc	($14)                   ; 0x2014 <main+0x1b80>
    411c: 85 1a        	sta	$1a                     ; 0x201a <main+0x1b86>
    411e: a9 00        	lda	#$0
    4120: f1 14        	sbc	($14),y                 ; 0x2014 <main+0x1b80>
    4122: 85 15        	sta	$15                     ; 0x2015 <main+0x1b81>
    4124: a5 1c        	lda	$1c                     ; 0x201c <main+0x1b88>
    4126: 18           	clc
    4127: 65 1a        	adc	$1a                     ; 0x201a <main+0x1b86>
    4129: 85 14        	sta	$14                     ; 0x2014 <main+0x1b80>
    412b: aa           	tax
    412c: a5 1d        	lda	$1d                     ; 0x201d <main+0x1b89>
    412e: 65 15        	adc	$15                     ; 0x2015 <main+0x1b81>
    4130: 85 15        	sta	$15                     ; 0x2015 <main+0x1b81>
    4132: 85 1b        	sta	$1b                     ; 0x201b <main+0x1b87>
    4134: b1 14        	lda	($14),y                 ; 0x2014 <main+0x1b80>
    4136: 85 1d        	sta	$1d                     ; 0x201d <main+0x1b89>
    4138: a9 fe        	lda	#$fe
    413a: 32 14        	and	($14)                   ; 0x2014 <main+0x1b80>
    413c: ac 6c a3     	ldy	$a36c                   ; 0xa36c <_ZN12_GLOBAL__N_19free_sizeE>
    413f: 85 1f        	sta	$1f                     ; 0x201f <main+0x1b8b>
    4141: 85 1a        	sta	$1a                     ; 0x201a <main+0x1b86>
    4143: 38           	sec
    4144: 98           	tya
    4145: e5 1a        	sbc	$1a                     ; 0x201a <main+0x1b86>
    4147: 85 1c        	sta	$1c                     ; 0x201c <main+0x1b88>
    4149: a4 1d        	ldy	$1d                     ; 0x201d <main+0x1b89>
    414b: 84 1e        	sty	$1e                     ; 0x201e <main+0x1b8a>
    414d: 84 1a        	sty	$1a                     ; 0x201a <main+0x1b86>
    414f: ad 6d a3     	lda	$a36d                   ; 0xa36d <_ZN12_GLOBAL__N_19free_sizeE+0x1>
    4152: e5 1a        	sbc	$1a                     ; 0x201a <main+0x1b86>
    4154: a8           	tay
    4155: 18           	clc
    4156: a5 1c        	lda	$1c                     ; 0x201c <main+0x1b88>
    4158: 69 02        	adc	#$2
    415a: 85 1a        	sta	$1a                     ; 0x201a <main+0x1b86>
    415c: 98           	tya
    415d: 69 00        	adc	#$0
    415f: a4 1a        	ldy	$1a                     ; 0x201a <main+0x1b86>
    4161: 8c 6c a3     	sty	$a36c                   ; 0xa36c <_ZN12_GLOBAL__N_19free_sizeE>
    4164: 8d 6d a3     	sta	$a36d                   ; 0xa36d <_ZN12_GLOBAL__N_19free_sizeE+0x1>
    4167: 86 1c        	stx	$1c                     ; 0x201c <main+0x1b88>
    4169: 8a           	txa
    416a: 18           	clc
    416b: 69 02        	adc	#$2
    416d: 85 1a        	sta	$1a                     ; 0x201a <main+0x1b86>
    416f: a6 1b        	ldx	$1b                     ; 0x201b <main+0x1b87>
    4171: 86 1d        	stx	$1d                     ; 0x201d <main+0x1b89>
    4173: a5 1b        	lda	$1b                     ; 0x201b <main+0x1b87>
    4175: 69 00        	adc	#$0
    4177: a0 02        	ldy	#$2
    4179: 85 1b        	sta	$1b                     ; 0x201b <main+0x1b87>
    417b: b1 14        	lda	($14),y                 ; 0x2014 <main+0x1b80>
    417d: aa           	tax
    417e: 88           	dey
    417f: b1 1a        	lda	($1a),y                 ; 0x201a <main+0x1b86>
    4181: 85 23        	sta	$23                     ; 0x2023 <main+0x1b8f>
    4183: c5 15        	cmp	$15                     ; 0x2015 <main+0x1b81>
    4185: f0 03        	beq	$418a <main+0x3cf6>
    4187: 4c be 43     	jmp	$43be <main+0x3f2a>
    418a: e4 14        	cpx	$14                     ; 0x2014 <main+0x1b80>
    418c: f0 03        	beq	$4191 <main+0x3cfd>
    418e: 4c be 43     	jmp	$43be <main+0x3f2a>
    4191: a2 00        	ldx	#$0
    4193: 86 1a        	stx	$1a                     ; 0x201a <main+0x1b86>
    4195: a2 00        	ldx	#$0
    4197: 86 1b        	stx	$1b                     ; 0x201b <main+0x1b87>
    4199: 4c 41 44     	jmp	$4441 <main+0x3fad>
    419c: a6 23        	ldx	$23                     ; 0x2023 <main+0x1b8f>
    419e: 86 18        	stx	$18                     ; 0x2018 <main+0x1b84>
    41a0: 84 19        	sty	$19                     ; 0x2019 <main+0x1b85>
    41a2: 29 01        	and	#$1
    41a4: d0 03        	bne	$41a9 <main+0x3d15>
    41a6: 4c 35 46     	jmp	$4635 <main+0x41a1>
    41a9: 18           	clc
    41aa: a5 1e        	lda	$1e                     ; 0x201e <main+0x1b8a>
    41ac: 69 fc        	adc	#$fc
    41ae: 85 14        	sta	$14                     ; 0x2014 <main+0x1b80>
    41b0: a5 1f        	lda	$1f                     ; 0x201f <main+0x1b8b>
    41b2: 69 ff        	adc	#$ff
    41b4: 85 15        	sta	$15                     ; 0x2015 <main+0x1b81>
    41b6: a0 01        	ldy	#$1
    41b8: a9 00        	lda	#$0
    41ba: 38           	sec
    41bb: f2 14        	sbc	($14)                   ; 0x2014 <main+0x1b80>
    41bd: 85 1a        	sta	$1a                     ; 0x201a <main+0x1b86>
    41bf: a9 00        	lda	#$0
    41c1: f1 14        	sbc	($14),y                 ; 0x2014 <main+0x1b80>
    41c3: 85 15        	sta	$15                     ; 0x2015 <main+0x1b81>
    41c5: a5 1c        	lda	$1c                     ; 0x201c <main+0x1b88>
    41c7: 18           	clc
    41c8: 65 1a        	adc	$1a                     ; 0x201a <main+0x1b86>
    41ca: 85 14        	sta	$14                     ; 0x2014 <main+0x1b80>
    41cc: 85 1b        	sta	$1b                     ; 0x201b <main+0x1b87>
    41ce: a5 1d        	lda	$1d                     ; 0x201d <main+0x1b89>
    41d0: 65 15        	adc	$15                     ; 0x2015 <main+0x1b81>
    41d2: 85 15        	sta	$15                     ; 0x2015 <main+0x1b81>
    41d4: aa           	tax
    41d5: b1 14        	lda	($14),y                 ; 0x2014 <main+0x1b80>
    41d7: 85 1d        	sta	$1d                     ; 0x201d <main+0x1b89>
    41d9: a9 fe        	lda	#$fe
    41db: 32 14        	and	($14)                   ; 0x2014 <main+0x1b80>
    41dd: ac 6c a3     	ldy	$a36c                   ; 0xa36c <_ZN12_GLOBAL__N_19free_sizeE>
    41e0: 85 1f        	sta	$1f                     ; 0x201f <main+0x1b8b>
    41e2: 85 1a        	sta	$1a                     ; 0x201a <main+0x1b86>
    41e4: 38           	sec
    41e5: 98           	tya
    41e6: e5 1a        	sbc	$1a                     ; 0x201a <main+0x1b86>
    41e8: 85 1c        	sta	$1c                     ; 0x201c <main+0x1b88>
    41ea: a4 1d        	ldy	$1d                     ; 0x201d <main+0x1b89>
    41ec: 84 1e        	sty	$1e                     ; 0x201e <main+0x1b8a>
    41ee: 84 1a        	sty	$1a                     ; 0x201a <main+0x1b86>
    41f0: ad 6d a3     	lda	$a36d                   ; 0xa36d <_ZN12_GLOBAL__N_19free_sizeE+0x1>
    41f3: e5 1a        	sbc	$1a                     ; 0x201a <main+0x1b86>
    41f5: a8           	tay
    41f6: 18           	clc
    41f7: a5 1c        	lda	$1c                     ; 0x201c <main+0x1b88>
    41f9: 69 02        	adc	#$2
    41fb: 85 1a        	sta	$1a                     ; 0x201a <main+0x1b86>
    41fd: 98           	tya
    41fe: 69 00        	adc	#$0
    4200: a4 1a        	ldy	$1a                     ; 0x201a <main+0x1b86>
    4202: 8c 6c a3     	sty	$a36c                   ; 0xa36c <_ZN12_GLOBAL__N_19free_sizeE>
    4205: 8d 6d a3     	sta	$a36d                   ; 0xa36d <_ZN12_GLOBAL__N_19free_sizeE+0x1>
    4208: a4 1b        	ldy	$1b                     ; 0x201b <main+0x1b87>
    420a: 84 1c        	sty	$1c                     ; 0x201c <main+0x1b88>
    420c: a5 1b        	lda	$1b                     ; 0x201b <main+0x1b87>
    420e: 18           	clc
    420f: 69 02        	adc	#$2
    4211: 85 1a        	sta	$1a                     ; 0x201a <main+0x1b86>
    4213: 86 1d        	stx	$1d                     ; 0x201d <main+0x1b89>
    4215: 8a           	txa
    4216: 69 00        	adc	#$0
    4218: a0 02        	ldy	#$2
    421a: 85 1b        	sta	$1b                     ; 0x201b <main+0x1b87>
    421c: b1 14        	lda	($14),y                 ; 0x2014 <main+0x1b80>
    421e: aa           	tax
    421f: 88           	dey
    4220: b1 1a        	lda	($1a),y                 ; 0x201a <main+0x1b86>
    4222: 85 23        	sta	$23                     ; 0x2023 <main+0x1b8f>
    4224: c5 15        	cmp	$15                     ; 0x2015 <main+0x1b81>
    4226: f0 03        	beq	$422b <main+0x3d97>
    4228: 4c 9b 45     	jmp	$459b <main+0x4107>
    422b: e4 14        	cpx	$14                     ; 0x2014 <main+0x1b80>
    422d: f0 03        	beq	$4232 <main+0x3d9e>
    422f: 4c 9b 45     	jmp	$459b <main+0x4107>
    4232: a2 00        	ldx	#$0
    4234: 86 1a        	stx	$1a                     ; 0x201a <main+0x1b86>
    4236: a2 00        	ldx	#$0
    4238: 86 1b        	stx	$1b                     ; 0x201b <main+0x1b87>
    423a: 4c 1e 46     	jmp	$461e <main+0x418a>
    423d: b2 18        	lda	($18)                   ; 0x2018 <main+0x1b84>
    423f: 09 01        	ora	#$1
    4241: 92 18        	sta	($18)                   ; 0x2018 <main+0x1b84>
    4243: a0 01        	ldy	#$1
    4245: a5 1e        	lda	$1e                     ; 0x201e <main+0x1b8a>
    4247: 91 18        	sta	($18),y                 ; 0x2018 <main+0x1b84>
    4249: a6 16        	ldx	$16                     ; 0x2016 <main+0x1b82>
    424b: a9 01        	lda	#$1
    424d: 32 14        	and	($14)                   ; 0x2014 <main+0x1b80>
    424f: a4 17        	ldy	$17                     ; 0x2017 <main+0x1b83>
    4251: 84 18        	sty	$18                     ; 0x2018 <main+0x1b84>
    4253: 05 17        	ora	$17                     ; 0x2017 <main+0x1b83>
    4255: 92 14        	sta	($14)                   ; 0x2014 <main+0x1b80>
    4257: a5 14        	lda	$14                     ; 0x2014 <main+0x1b80>
    4259: 18           	clc
    425a: 65 17        	adc	$17                     ; 0x2017 <main+0x1b83>
    425c: a8           	tay
    425d: 8a           	txa
    425e: 65 15        	adc	$15                     ; 0x2015 <main+0x1b81>
    4260: 85 17        	sta	$17                     ; 0x2017 <main+0x1b83>
    4262: 18           	clc
    4263: 98           	tya
    4264: 69 fe        	adc	#$fe
    4266: 85 16        	sta	$16                     ; 0x2016 <main+0x1b82>
    4268: a5 17        	lda	$17                     ; 0x2017 <main+0x1b83>
    426a: 69 ff        	adc	#$ff
    426c: 85 17        	sta	$17                     ; 0x2017 <main+0x1b83>
    426e: a0 01        	ldy	#$1
    4270: 8a           	txa
    4271: 91 14        	sta	($14),y                 ; 0x2014 <main+0x1b80>
    4273: a5 18        	lda	$18                     ; 0x2018 <main+0x1b84>
    4275: 92 16        	sta	($16)                   ; 0x2016 <main+0x1b82>
    4277: 8a           	txa
    4278: 91 16        	sta	($16),y                 ; 0x2016 <main+0x1b82>
    427a: b1 14        	lda	($14),y                 ; 0x2014 <main+0x1b80>
    427c: 85 16        	sta	$16                     ; 0x2016 <main+0x1b82>
    427e: a9 fe        	lda	#$fe
    4280: 32 14        	and	($14)                   ; 0x2014 <main+0x1b80>
    4282: 18           	clc
    4283: 6d 6c a3     	adc	$a36c                   ; 0xa36c <_ZN12_GLOBAL__N_19free_sizeE>
    4286: aa           	tax
    4287: a5 16        	lda	$16                     ; 0x2016 <main+0x1b82>
    4289: 6d 6d a3     	adc	$a36d                   ; 0xa36d <_ZN12_GLOBAL__N_19free_sizeE+0x1>
    428c: 85 16        	sta	$16                     ; 0x2016 <main+0x1b82>
    428e: 18           	clc
    428f: 8a           	txa
    4290: 69 fe        	adc	#$fe
    4292: 85 17        	sta	$17                     ; 0x2017 <main+0x1b83>
    4294: a5 16        	lda	$16                     ; 0x2016 <main+0x1b82>
    4296: 69 ff        	adc	#$ff
    4298: a6 17        	ldx	$17                     ; 0x2017 <main+0x1b83>
    429a: 8e 6c a3     	stx	$a36c                   ; 0xa36c <_ZN12_GLOBAL__N_19free_sizeE>
    429d: 8d 6d a3     	sta	$a36d                   ; 0xa36d <_ZN12_GLOBAL__N_19free_sizeE+0x1>
    42a0: ae 6e a3     	ldx	$a36e                   ; 0xa36e <_ZN12_GLOBAL__N_19free_listE>
    42a3: 86 18        	stx	$18                     ; 0x2018 <main+0x1b84>
    42a5: ac 6f a3     	ldy	$a36f                   ; 0xa36f <_ZN12_GLOBAL__N_19free_listE+0x1>
    42a8: a2 00        	ldx	#$0
    42aa: 86 16        	stx	$16                     ; 0x2016 <main+0x1b82>
    42ac: a2 00        	ldx	#$0
    42ae: 86 17        	stx	$17                     ; 0x2017 <main+0x1b83>
    42b0: c4 17        	cpy	$17                     ; 0x2017 <main+0x1b83>
    42b2: d0 40        	bne	$42f4 <main+0x3e60>
    42b4: a6 18        	ldx	$18                     ; 0x2018 <main+0x1b84>
    42b6: e4 16        	cpx	$16                     ; 0x2016 <main+0x1b82>
    42b8: d0 3a        	bne	$42f4 <main+0x3e60>
    42ba: a0 04        	ldy	#$4
    42bc: a5 14        	lda	$14                     ; 0x2014 <main+0x1b80>
    42be: 18           	clc
    42bf: 69 04        	adc	#$4
    42c1: 85 16        	sta	$16                     ; 0x2016 <main+0x1b82>
    42c3: a5 15        	lda	$15                     ; 0x2015 <main+0x1b81>
    42c5: 69 00        	adc	#$0
    42c7: 18           	clc
    42c8: 85 17        	sta	$17                     ; 0x2017 <main+0x1b83>
    42ca: a5 14        	lda	$14                     ; 0x2014 <main+0x1b80>
    42cc: 91 14        	sta	($14),y                 ; 0x2014 <main+0x1b80>
    42ce: a0 02        	ldy	#$2
    42d0: 85 19        	sta	$19                     ; 0x2019 <main+0x1b85>
    42d2: 69 02        	adc	#$2
    42d4: 85 18        	sta	$18                     ; 0x2018 <main+0x1b84>
    42d6: a5 19        	lda	$19                     ; 0x2019 <main+0x1b85>
    42d8: 91 14        	sta	($14),y                 ; 0x2014 <main+0x1b80>
    42da: a5 15        	lda	$15                     ; 0x2015 <main+0x1b81>
    42dc: 69 00        	adc	#$0
    42de: 85 19        	sta	$19                     ; 0x2019 <main+0x1b85>
    42e0: 88           	dey
    42e1: a5 15        	lda	$15                     ; 0x2015 <main+0x1b81>
    42e3: 91 16        	sta	($16),y                 ; 0x2016 <main+0x1b82>
    42e5: 91 18        	sta	($18),y                 ; 0x2018 <main+0x1b84>
    42e7: a6 14        	ldx	$14                     ; 0x2014 <main+0x1b80>
    42e9: 8e 6e a3     	stx	$a36e                   ; 0xa36e <_ZN12_GLOBAL__N_19free_listE>
    42ec: a6 15        	ldx	$15                     ; 0x2015 <main+0x1b81>
    42ee: 8e 6f a3     	stx	$a36f                   ; 0xa36f <_ZN12_GLOBAL__N_19free_listE+0x1>
    42f1: 4c 8c 43     	jmp	$438c <main+0x3ef8>
    42f4: a6 14        	ldx	$14                     ; 0x2014 <main+0x1b80>
    42f6: a5 14        	lda	$14                     ; 0x2014 <main+0x1b80>
    42f8: 86 1e        	stx	$1e                     ; 0x201e <main+0x1b8a>
    42fa: 18           	clc
    42fb: 69 02        	adc	#$2
    42fd: 85 16        	sta	$16                     ; 0x2016 <main+0x1b82>
    42ff: a6 15        	ldx	$15                     ; 0x2015 <main+0x1b81>
    4301: 84 1a        	sty	$1a                     ; 0x201a <main+0x1b86>
    4303: a5 15        	lda	$15                     ; 0x2015 <main+0x1b81>
    4305: 69 00        	adc	#$0
    4307: 85 17        	sta	$17                     ; 0x2017 <main+0x1b83>
    4309: a5 18        	lda	$18                     ; 0x2018 <main+0x1b84>
    430b: 84 19        	sty	$19                     ; 0x2019 <main+0x1b85>
    430d: a0 02        	ldy	#$2
    430f: 91 14        	sta	($14),y                 ; 0x2014 <main+0x1b80>
    4311: 85 1b        	sta	$1b                     ; 0x201b <main+0x1b87>
    4313: 88           	dey
    4314: a5 1a        	lda	$1a                     ; 0x201a <main+0x1b86>
    4316: 91 16        	sta	($16),y                 ; 0x2016 <main+0x1b82>
    4318: 18           	clc
    4319: a5 1b        	lda	$1b                     ; 0x201b <main+0x1b87>
    431b: 69 04        	adc	#$4
    431d: a8           	tay
    431e: a5 1a        	lda	$1a                     ; 0x201a <main+0x1b86>
    4320: 69 00        	adc	#$0
    4322: 84 1a        	sty	$1a                     ; 0x201a <main+0x1b86>
    4324: 85 1b        	sta	$1b                     ; 0x201b <main+0x1b87>
    4326: a5 1e        	lda	$1e                     ; 0x201e <main+0x1b8a>
    4328: 18           	clc
    4329: 69 04        	adc	#$4
    432b: 85 1c        	sta	$1c                     ; 0x201c <main+0x1b88>
    432d: a5 15        	lda	$15                     ; 0x2015 <main+0x1b81>
    432f: 69 00        	adc	#$0
    4331: 85 1d        	sta	$1d                     ; 0x201d <main+0x1b89>
    4333: a0 04        	ldy	#$4
    4335: b1 18        	lda	($18),y                 ; 0x2018 <main+0x1b84>
    4337: 85 18        	sta	$18                     ; 0x2018 <main+0x1b84>
    4339: 85 1f        	sta	$1f                     ; 0x201f <main+0x1b8b>
    433b: a0 01        	ldy	#$1
    433d: b1 1a        	lda	($1a),y                 ; 0x201a <main+0x1b86>
    433f: 85 19        	sta	$19                     ; 0x2019 <main+0x1b85>
    4341: 85 1b        	sta	$1b                     ; 0x201b <main+0x1b87>
    4343: a0 04        	ldy	#$4
    4345: a5 1f        	lda	$1f                     ; 0x201f <main+0x1b8b>
    4347: 91 14        	sta	($14),y                 ; 0x2014 <main+0x1b80>
    4349: a5 1b        	lda	$1b                     ; 0x201b <main+0x1b87>
    434b: a0 01        	ldy	#$1
    434d: 91 1c        	sta	($1c),y                 ; 0x201c <main+0x1b88>
    434f: 18           	clc
    4350: a5 1f        	lda	$1f                     ; 0x201f <main+0x1b8b>
    4352: 69 02        	adc	#$2
    4354: 85 1a        	sta	$1a                     ; 0x201a <main+0x1b86>
    4356: a5 1b        	lda	$1b                     ; 0x201b <main+0x1b87>
    4358: 69 00        	adc	#$0
    435a: 85 1b        	sta	$1b                     ; 0x201b <main+0x1b87>
    435c: a5 1e        	lda	$1e                     ; 0x201e <main+0x1b8a>
    435e: c8           	iny
    435f: 91 18        	sta	($18),y                 ; 0x2018 <main+0x1b84>
    4361: a5 15        	lda	$15                     ; 0x2015 <main+0x1b81>
    4363: 88           	dey
    4364: 91 1a        	sta	($1a),y                 ; 0x201a <main+0x1b86>
    4366: c8           	iny
    4367: b1 14        	lda	($14),y                 ; 0x2014 <main+0x1b80>
    4369: 85 14        	sta	$14                     ; 0x2014 <main+0x1b80>
    436b: 85 18        	sta	$18                     ; 0x2018 <main+0x1b84>
    436d: 88           	dey
    436e: b1 16        	lda	($16),y                 ; 0x2016 <main+0x1b82>
    4370: 85 15        	sta	$15                     ; 0x2015 <main+0x1b81>
    4372: 85 16        	sta	$16                     ; 0x2016 <main+0x1b82>
    4374: a5 1e        	lda	$1e                     ; 0x201e <main+0x1b8a>
    4376: a0 04        	ldy	#$4
    4378: 91 14        	sta	($14),y                 ; 0x2014 <main+0x1b80>
    437a: 18           	clc
    437b: a5 18        	lda	$18                     ; 0x2018 <main+0x1b84>
    437d: 69 04        	adc	#$4
    437f: 85 14        	sta	$14                     ; 0x2014 <main+0x1b80>
    4381: a5 16        	lda	$16                     ; 0x2016 <main+0x1b82>
    4383: 69 00        	adc	#$0
    4385: 85 15        	sta	$15                     ; 0x2015 <main+0x1b81>
    4387: 8a           	txa
    4388: a0 01        	ldy	#$1
    438a: 91 14        	sta	($14),y                 ; 0x2014 <main+0x1b80>
    438c: a2 39        	ldx	#$39
    438e: 86 14        	stx	$14                     ; 0x2014 <main+0x1b80>
    4390: a2 00        	ldx	#$0
    4392: 86 15        	stx	$15                     ; 0x2015 <main+0x1b81>
    4394: 64 3a        	stz	$3a                     ; 0x203a <main+0x1ba6>
    4396: 20 00 ff     	jsr	$ff00 <end_block9+0x5b90>
    4399: 92 12        	sta	($12)                   ; 0x2012 <main+0x1b7e>
    439b: a9 00        	lda	#$0
    439d: 6a           	ror
    439e: 85 14        	sta	$14                     ; 0x2014 <main+0x1b80>
    43a0: a6 3a        	ldx	$3a                     ; 0x203a <main+0x1ba6>
    43a2: e0 38        	cpx	#$38
    43a4: d0 03        	bne	$43a9 <main+0x3f15>
    43a6: 4c 31 4d     	jmp	$4d31 <main+0x489d>
    43a9: e0 32        	cpx	#$32
    43ab: d0 e7        	bne	$4394 <main+0x3f00>
    43ad: 4c 31 4d     	jmp	$4d31 <main+0x489d>
    43b0: a2 14        	ldx	#$14
    43b2: a0 0b        	ldy	#$b
    43b4: 4c 2a 22     	jmp	$222a <main+0x1d96>
    43b7: a2 14        	ldx	#$14
    43b9: a0 0b        	ldy	#$b
    43bb: 4c 92 22     	jmp	$2292 <main+0x1dfe>
    43be: 86 22        	stx	$22                     ; 0x2022 <main+0x1b8e>
    43c0: a5 1c        	lda	$1c                     ; 0x201c <main+0x1b88>
    43c2: a6 1c        	ldx	$1c                     ; 0x201c <main+0x1b88>
    43c4: 86 24        	stx	$24                     ; 0x2024 <main+0x1b90>
    43c6: 18           	clc
    43c7: 69 04        	adc	#$4
    43c9: 85 1a        	sta	$1a                     ; 0x201a <main+0x1b86>
    43cb: a6 1d        	ldx	$1d                     ; 0x201d <main+0x1b89>
    43cd: 86 25        	stx	$25                     ; 0x2025 <main+0x1b91>
    43cf: a5 1d        	lda	$1d                     ; 0x201d <main+0x1b89>
    43d1: 69 00        	adc	#$0
    43d3: a0 04        	ldy	#$4
    43d5: 85 1b        	sta	$1b                     ; 0x201b <main+0x1b87>
    43d7: b1 14        	lda	($14),y                 ; 0x2014 <main+0x1b80>
    43d9: 85 26        	sta	$26                     ; 0x2026 <main+0x1b92>
    43db: 18           	clc
    43dc: 69 02        	adc	#$2
    43de: 85 1c        	sta	$1c                     ; 0x201c <main+0x1b88>
    43e0: a0 01        	ldy	#$1
    43e2: b1 1a        	lda	($1a),y                 ; 0x201a <main+0x1b86>
    43e4: aa           	tax
    43e5: 69 00        	adc	#$0
    43e7: a4 1c        	ldy	$1c                     ; 0x201c <main+0x1b88>
    43e9: 84 1a        	sty	$1a                     ; 0x201a <main+0x1b86>
    43eb: 85 1b        	sta	$1b                     ; 0x201b <main+0x1b87>
    43ed: a4 26        	ldy	$26                     ; 0x2026 <main+0x1b92>
    43ef: 84 1c        	sty	$1c                     ; 0x201c <main+0x1b88>
    43f1: 86 1d        	stx	$1d                     ; 0x201d <main+0x1b89>
    43f3: a0 02        	ldy	#$2
    43f5: a5 22        	lda	$22                     ; 0x2022 <main+0x1b8e>
    43f7: 91 1c        	sta	($1c),y                 ; 0x201c <main+0x1b88>
    43f9: a5 23        	lda	$23                     ; 0x2023 <main+0x1b8f>
    43fb: 88           	dey
    43fc: 91 1a        	sta	($1a),y                 ; 0x201a <main+0x1b86>
    43fe: 18           	clc
    43ff: a5 24        	lda	$24                     ; 0x2024 <main+0x1b90>
    4401: 69 02        	adc	#$2
    4403: 85 1a        	sta	$1a                     ; 0x201a <main+0x1b86>
    4405: a5 25        	lda	$25                     ; 0x2025 <main+0x1b91>
    4407: 69 00        	adc	#$0
    4409: 85 1b        	sta	$1b                     ; 0x201b <main+0x1b87>
    440b: c8           	iny
    440c: b1 14        	lda	($14),y                 ; 0x2014 <main+0x1b80>
    440e: 85 1c        	sta	$1c                     ; 0x201c <main+0x1b88>
    4410: 88           	dey
    4411: b1 1a        	lda	($1a),y                 ; 0x201a <main+0x1b86>
    4413: a4 1c        	ldy	$1c                     ; 0x201c <main+0x1b88>
    4415: 84 1a        	sty	$1a                     ; 0x201a <main+0x1b86>
    4417: 85 1b        	sta	$1b                     ; 0x201b <main+0x1b87>
    4419: 85 1d        	sta	$1d                     ; 0x201d <main+0x1b89>
    441b: a0 04        	ldy	#$4
    441d: a5 26        	lda	$26                     ; 0x2026 <main+0x1b92>
    441f: 91 1a        	sta	($1a),y                 ; 0x201a <main+0x1b86>
    4421: 18           	clc
    4422: a5 1c        	lda	$1c                     ; 0x201c <main+0x1b88>
    4424: 69 04        	adc	#$4
    4426: 85 1c        	sta	$1c                     ; 0x201c <main+0x1b88>
    4428: a5 1d        	lda	$1d                     ; 0x201d <main+0x1b89>
    442a: 69 00        	adc	#$0
    442c: 85 1d        	sta	$1d                     ; 0x201d <main+0x1b89>
    442e: 8a           	txa
    442f: a0 01        	ldy	#$1
    4431: 91 1c        	sta	($1c),y                 ; 0x201c <main+0x1b88>
    4433: ae 6f a3     	ldx	$a36f                   ; 0xa36f <_ZN12_GLOBAL__N_19free_listE+0x1>
    4436: e4 15        	cpx	$15                     ; 0x2015 <main+0x1b81>
    4438: d0 11        	bne	$444b <main+0x3fb7>
    443a: ae 6e a3     	ldx	$a36e                   ; 0xa36e <_ZN12_GLOBAL__N_19free_listE>
    443d: e4 14        	cpx	$14                     ; 0x2014 <main+0x1b80>
    443f: d0 0a        	bne	$444b <main+0x3fb7>
    4441: a6 1a        	ldx	$1a                     ; 0x201a <main+0x1b86>
    4443: a4 1b        	ldy	$1b                     ; 0x201b <main+0x1b87>
    4445: 8e 6e a3     	stx	$a36e                   ; 0xa36e <_ZN12_GLOBAL__N_19free_listE>
    4448: 8c 6f a3     	sty	$a36f                   ; 0xa36f <_ZN12_GLOBAL__N_19free_listE+0x1>
    444b: 18           	clc
    444c: a5 1f        	lda	$1f                     ; 0x201f <main+0x1b8b>
    444e: 65 17        	adc	$17                     ; 0x2017 <main+0x1b83>
    4450: 85 17        	sta	$17                     ; 0x2017 <main+0x1b83>
    4452: a5 1e        	lda	$1e                     ; 0x201e <main+0x1b8a>
    4454: 65 16        	adc	$16                     ; 0x2016 <main+0x1b82>
    4456: 85 16        	sta	$16                     ; 0x2016 <main+0x1b82>
    4458: a2 00        	ldx	#$0
    445a: 86 1a        	stx	$1a                     ; 0x201a <main+0x1b86>
    445c: a2 00        	ldx	#$0
    445e: 86 1b        	stx	$1b                     ; 0x201b <main+0x1b87>
    4460: a6 19        	ldx	$19                     ; 0x2019 <main+0x1b85>
    4462: e4 1b        	cpx	$1b                     ; 0x201b <main+0x1b87>
    4464: d0 0e        	bne	$4474 <main+0x3fe0>
    4466: a6 18        	ldx	$18                     ; 0x2018 <main+0x1b84>
    4468: e4 1a        	cpx	$1a                     ; 0x201a <main+0x1b86>
    446a: d0 08        	bne	$4474 <main+0x3fe0>
    446c: a2 01        	ldx	#$1
    446e: 8e 6b a3     	stx	$a36b                   ; 0xa36b <_ZN12_GLOBAL__N_19last_freeE>
    4471: 4c 5d 4a     	jmp	$4a5d <main+0x45c9>
    4474: a0 01        	ldy	#$1
    4476: b1 18        	lda	($18),y                 ; 0x2018 <main+0x1b84>
    4478: a8           	tay
    4479: a9 fe        	lda	#$fe
    447b: 32 18        	and	($18)                   ; 0x2018 <main+0x1b84>
    447d: 18           	clc
    447e: 85 1f        	sta	$1f                     ; 0x201f <main+0x1b8b>
    4480: 65 18        	adc	$18                     ; 0x2018 <main+0x1b84>
    4482: aa           	tax
    4483: 98           	tya
    4484: 84 1e        	sty	$1e                     ; 0x201e <main+0x1b8a>
    4486: 65 19        	adc	$19                     ; 0x2019 <main+0x1b85>
    4488: c5 28        	cmp	$28                     ; 0x2028 <main+0x1b94>
    448a: d0 15        	bne	$44a1 <main+0x400d>
    448c: 48           	pha
    448d: a0 10        	ldy	#$10
    448f: b1 10        	lda	($10),y                 ; 0x2010 <main+0x1b7c>
    4491: 85 1a        	sta	$1a                     ; 0x201a <main+0x1b86>
    4493: 68           	pla
    4494: e4 1a        	cpx	$1a                     ; 0x201a <main+0x1b86>
    4496: d0 09        	bne	$44a1 <main+0x400d>
    4498: a9 01        	lda	#$1
    449a: 64 1a        	stz	$1a                     ; 0x201a <main+0x1b86>
    449c: 2d 6b a3     	and	$a36b                   ; 0xa36b <_ZN12_GLOBAL__N_19last_freeE>
    449f: 80 0a        	bra	$44ab <main+0x4017>
    44a1: 86 1a        	stx	$1a                     ; 0x201a <main+0x1b86>
    44a3: 85 1b        	sta	$1b                     ; 0x201b <main+0x1b87>
    44a5: a9 01        	lda	#$1
    44a7: 32 1a        	and	($1a)                   ; 0x201a <main+0x1b86>
    44a9: 64 1a        	stz	$1a                     ; 0x201a <main+0x1b86>
    44ab: a6 1a        	ldx	$1a                     ; 0x201a <main+0x1b86>
    44ad: d0 06        	bne	$44b5 <main+0x4021>
    44af: aa           	tax
    44b0: d0 03        	bne	$44b5 <main+0x4021>
    44b2: 4c 51 4a     	jmp	$4a51 <main+0x45bd>
    44b5: ad 6c a3     	lda	$a36c                   ; 0xa36c <_ZN12_GLOBAL__N_19free_sizeE>
    44b8: ae 6d a3     	ldx	$a36d                   ; 0xa36d <_ZN12_GLOBAL__N_19free_sizeE+0x1>
    44bb: 86 1b        	stx	$1b                     ; 0x201b <main+0x1b87>
    44bd: 38           	sec
    44be: e5 1f        	sbc	$1f                     ; 0x201f <main+0x1b8b>
    44c0: aa           	tax
    44c1: a5 1b        	lda	$1b                     ; 0x201b <main+0x1b87>
    44c3: e5 1e        	sbc	$1e                     ; 0x201e <main+0x1b8a>
    44c5: 85 1a        	sta	$1a                     ; 0x201a <main+0x1b86>
    44c7: 18           	clc
    44c8: 8a           	txa
    44c9: 69 02        	adc	#$2
    44cb: 85 1b        	sta	$1b                     ; 0x201b <main+0x1b87>
    44cd: a5 1a        	lda	$1a                     ; 0x201a <main+0x1b86>
    44cf: 69 00        	adc	#$0
    44d1: a6 1b        	ldx	$1b                     ; 0x201b <main+0x1b87>
    44d3: 8e 6c a3     	stx	$a36c                   ; 0xa36c <_ZN12_GLOBAL__N_19free_sizeE>
    44d6: 8d 6d a3     	sta	$a36d                   ; 0xa36d <_ZN12_GLOBAL__N_19free_sizeE+0x1>
    44d9: a5 18        	lda	$18                     ; 0x2018 <main+0x1b84>
    44db: 18           	clc
    44dc: 69 02        	adc	#$2
    44de: 85 1a        	sta	$1a                     ; 0x201a <main+0x1b86>
    44e0: a5 19        	lda	$19                     ; 0x2019 <main+0x1b85>
    44e2: 69 00        	adc	#$0
    44e4: a0 02        	ldy	#$2
    44e6: 85 1b        	sta	$1b                     ; 0x201b <main+0x1b87>
    44e8: b1 18        	lda	($18),y                 ; 0x2018 <main+0x1b84>
    44ea: aa           	tax
    44eb: 88           	dey
    44ec: b1 1a        	lda	($1a),y                 ; 0x201a <main+0x1b86>
    44ee: 85 23        	sta	$23                     ; 0x2023 <main+0x1b8f>
    44f0: c5 19        	cmp	$19                     ; 0x2019 <main+0x1b85>
    44f2: d0 0f        	bne	$4503 <main+0x406f>
    44f4: e4 18        	cpx	$18                     ; 0x2018 <main+0x1b84>
    44f6: d0 0b        	bne	$4503 <main+0x406f>
    44f8: a2 00        	ldx	#$0
    44fa: 86 1a        	stx	$1a                     ; 0x201a <main+0x1b86>
    44fc: a2 00        	ldx	#$0
    44fe: 86 1b        	stx	$1b                     ; 0x201b <main+0x1b87>
    4500: 4c 82 45     	jmp	$4582 <main+0x40ee>
    4503: 86 22        	stx	$22                     ; 0x2022 <main+0x1b8e>
    4505: a6 18        	ldx	$18                     ; 0x2018 <main+0x1b84>
    4507: a5 18        	lda	$18                     ; 0x2018 <main+0x1b84>
    4509: 86 25        	stx	$25                     ; 0x2025 <main+0x1b91>
    450b: 18           	clc
    450c: 69 04        	adc	#$4
    450e: 85 1a        	sta	$1a                     ; 0x201a <main+0x1b86>
    4510: a5 19        	lda	$19                     ; 0x2019 <main+0x1b85>
    4512: 69 00        	adc	#$0
    4514: a0 04        	ldy	#$4
    4516: 85 1b        	sta	$1b                     ; 0x201b <main+0x1b87>
    4518: b1 18        	lda	($18),y                 ; 0x2018 <main+0x1b84>
    451a: 85 26        	sta	$26                     ; 0x2026 <main+0x1b92>
    451c: 18           	clc
    451d: 69 02        	adc	#$2
    451f: 85 1c        	sta	$1c                     ; 0x201c <main+0x1b88>
    4521: a0 01        	ldy	#$1
    4523: b1 1a        	lda	($1a),y                 ; 0x201a <main+0x1b86>
    4525: aa           	tax
    4526: 69 00        	adc	#$0
    4528: a4 1c        	ldy	$1c                     ; 0x201c <main+0x1b88>
    452a: 84 1a        	sty	$1a                     ; 0x201a <main+0x1b86>
    452c: 85 1b        	sta	$1b                     ; 0x201b <main+0x1b87>
    452e: a4 26        	ldy	$26                     ; 0x2026 <main+0x1b92>
    4530: 84 1c        	sty	$1c                     ; 0x201c <main+0x1b88>
    4532: 86 1d        	stx	$1d                     ; 0x201d <main+0x1b89>
    4534: a0 02        	ldy	#$2
    4536: a5 22        	lda	$22                     ; 0x2022 <main+0x1b8e>
    4538: 91 1c        	sta	($1c),y                 ; 0x201c <main+0x1b88>
    453a: a5 23        	lda	$23                     ; 0x2023 <main+0x1b8f>
    453c: 88           	dey
    453d: 91 1a        	sta	($1a),y                 ; 0x201a <main+0x1b86>
    453f: 18           	clc
    4540: a5 25        	lda	$25                     ; 0x2025 <main+0x1b91>
    4542: 69 02        	adc	#$2
    4544: 85 1a        	sta	$1a                     ; 0x201a <main+0x1b86>
    4546: a5 19        	lda	$19                     ; 0x2019 <main+0x1b85>
    4548: 69 00        	adc	#$0
    454a: 85 1b        	sta	$1b                     ; 0x201b <main+0x1b87>
    454c: c8           	iny
    454d: b1 18        	lda	($18),y                 ; 0x2018 <main+0x1b84>
    454f: 85 1c        	sta	$1c                     ; 0x201c <main+0x1b88>
    4551: 88           	dey
    4552: b1 1a        	lda	($1a),y                 ; 0x201a <main+0x1b86>
    4554: a4 1c        	ldy	$1c                     ; 0x201c <main+0x1b88>
    4556: 84 1a        	sty	$1a                     ; 0x201a <main+0x1b86>
    4558: 85 1b        	sta	$1b                     ; 0x201b <main+0x1b87>
    455a: 85 1d        	sta	$1d                     ; 0x201d <main+0x1b89>
    455c: a0 04        	ldy	#$4
    455e: a5 26        	lda	$26                     ; 0x2026 <main+0x1b92>
    4560: 91 1a        	sta	($1a),y                 ; 0x201a <main+0x1b86>
    4562: 18           	clc
    4563: a5 1c        	lda	$1c                     ; 0x201c <main+0x1b88>
    4565: 69 04        	adc	#$4
    4567: 85 1c        	sta	$1c                     ; 0x201c <main+0x1b88>
    4569: a5 1d        	lda	$1d                     ; 0x201d <main+0x1b89>
    456b: 69 00        	adc	#$0
    456d: 85 1d        	sta	$1d                     ; 0x201d <main+0x1b89>
    456f: 8a           	txa
    4570: a0 01        	ldy	#$1
    4572: 91 1c        	sta	($1c),y                 ; 0x201c <main+0x1b88>
    4574: ae 6f a3     	ldx	$a36f                   ; 0xa36f <_ZN12_GLOBAL__N_19free_listE+0x1>
    4577: e4 19        	cpx	$19                     ; 0x2019 <main+0x1b85>
    4579: d0 11        	bne	$458c <main+0x40f8>
    457b: ae 6e a3     	ldx	$a36e                   ; 0xa36e <_ZN12_GLOBAL__N_19free_listE>
    457e: e4 18        	cpx	$18                     ; 0x2018 <main+0x1b84>
    4580: d0 0a        	bne	$458c <main+0x40f8>
    4582: a6 1a        	ldx	$1a                     ; 0x201a <main+0x1b86>
    4584: a4 1b        	ldy	$1b                     ; 0x201b <main+0x1b87>
    4586: 8e 6e a3     	stx	$a36e                   ; 0xa36e <_ZN12_GLOBAL__N_19free_listE>
    4589: 8c 6f a3     	sty	$a36f                   ; 0xa36f <_ZN12_GLOBAL__N_19free_listE+0x1>
    458c: 18           	clc
    458d: a5 1f        	lda	$1f                     ; 0x201f <main+0x1b8b>
    458f: 65 17        	adc	$17                     ; 0x2017 <main+0x1b83>
    4591: 85 17        	sta	$17                     ; 0x2017 <main+0x1b83>
    4593: a5 1e        	lda	$1e                     ; 0x201e <main+0x1b8a>
    4595: 65 16        	adc	$16                     ; 0x2016 <main+0x1b82>
    4597: aa           	tax
    4598: 4c 5f 4a     	jmp	$4a5f <main+0x45cb>
    459b: 86 22        	stx	$22                     ; 0x2022 <main+0x1b8e>
    459d: a5 1c        	lda	$1c                     ; 0x201c <main+0x1b88>
    459f: a6 1c        	ldx	$1c                     ; 0x201c <main+0x1b88>
    45a1: 86 24        	stx	$24                     ; 0x2024 <main+0x1b90>
    45a3: 18           	clc
    45a4: 69 04        	adc	#$4
    45a6: 85 1a        	sta	$1a                     ; 0x201a <main+0x1b86>
    45a8: a6 1d        	ldx	$1d                     ; 0x201d <main+0x1b89>
    45aa: 86 25        	stx	$25                     ; 0x2025 <main+0x1b91>
    45ac: a5 1d        	lda	$1d                     ; 0x201d <main+0x1b89>
    45ae: 69 00        	adc	#$0
    45b0: a0 04        	ldy	#$4
    45b2: 85 1b        	sta	$1b                     ; 0x201b <main+0x1b87>
    45b4: b1 14        	lda	($14),y                 ; 0x2014 <main+0x1b80>
    45b6: 85 26        	sta	$26                     ; 0x2026 <main+0x1b92>
    45b8: 18           	clc
    45b9: 69 02        	adc	#$2
    45bb: 85 1c        	sta	$1c                     ; 0x201c <main+0x1b88>
    45bd: a0 01        	ldy	#$1
    45bf: b1 1a        	lda	($1a),y                 ; 0x201a <main+0x1b86>
    45c1: aa           	tax
    45c2: 69 00        	adc	#$0
    45c4: a4 1c        	ldy	$1c                     ; 0x201c <main+0x1b88>
    45c6: 84 1a        	sty	$1a                     ; 0x201a <main+0x1b86>
    45c8: 85 1b        	sta	$1b                     ; 0x201b <main+0x1b87>
    45ca: a4 26        	ldy	$26                     ; 0x2026 <main+0x1b92>
    45cc: 84 1c        	sty	$1c                     ; 0x201c <main+0x1b88>
    45ce: 86 1d        	stx	$1d                     ; 0x201d <main+0x1b89>
    45d0: a0 02        	ldy	#$2
    45d2: a5 22        	lda	$22                     ; 0x2022 <main+0x1b8e>
    45d4: 91 1c        	sta	($1c),y                 ; 0x201c <main+0x1b88>
    45d6: a5 23        	lda	$23                     ; 0x2023 <main+0x1b8f>
    45d8: 88           	dey
    45d9: 91 1a        	sta	($1a),y                 ; 0x201a <main+0x1b86>
    45db: 18           	clc
    45dc: a5 24        	lda	$24                     ; 0x2024 <main+0x1b90>
    45de: 69 02        	adc	#$2
    45e0: 85 1a        	sta	$1a                     ; 0x201a <main+0x1b86>
    45e2: a5 25        	lda	$25                     ; 0x2025 <main+0x1b91>
    45e4: 69 00        	adc	#$0
    45e6: 85 1b        	sta	$1b                     ; 0x201b <main+0x1b87>
    45e8: c8           	iny
    45e9: b1 14        	lda	($14),y                 ; 0x2014 <main+0x1b80>
    45eb: 85 1c        	sta	$1c                     ; 0x201c <main+0x1b88>
    45ed: 88           	dey
    45ee: b1 1a        	lda	($1a),y                 ; 0x201a <main+0x1b86>
    45f0: a4 1c        	ldy	$1c                     ; 0x201c <main+0x1b88>
    45f2: 84 1a        	sty	$1a                     ; 0x201a <main+0x1b86>
    45f4: 85 1b        	sta	$1b                     ; 0x201b <main+0x1b87>
    45f6: 85 1d        	sta	$1d                     ; 0x201d <main+0x1b89>
    45f8: a0 04        	ldy	#$4
    45fa: a5 26        	lda	$26                     ; 0x2026 <main+0x1b92>
    45fc: 91 1a        	sta	($1a),y                 ; 0x201a <main+0x1b86>
    45fe: 18           	clc
    45ff: a5 1c        	lda	$1c                     ; 0x201c <main+0x1b88>
    4601: 69 04        	adc	#$4
    4603: 85 1c        	sta	$1c                     ; 0x201c <main+0x1b88>
    4605: a5 1d        	lda	$1d                     ; 0x201d <main+0x1b89>
    4607: 69 00        	adc	#$0
    4609: 85 1d        	sta	$1d                     ; 0x201d <main+0x1b89>
    460b: 8a           	txa
    460c: a0 01        	ldy	#$1
    460e: 91 1c        	sta	($1c),y                 ; 0x201c <main+0x1b88>
    4610: ae 6f a3     	ldx	$a36f                   ; 0xa36f <_ZN12_GLOBAL__N_19free_listE+0x1>
    4613: e4 15        	cpx	$15                     ; 0x2015 <main+0x1b81>
    4615: d0 11        	bne	$4628 <main+0x4194>
    4617: ae 6e a3     	ldx	$a36e                   ; 0xa36e <_ZN12_GLOBAL__N_19free_listE>
    461a: e4 14        	cpx	$14                     ; 0x2014 <main+0x1b80>
    461c: d0 0a        	bne	$4628 <main+0x4194>
    461e: a6 1a        	ldx	$1a                     ; 0x201a <main+0x1b86>
    4620: a4 1b        	ldy	$1b                     ; 0x201b <main+0x1b87>
    4622: 8e 6e a3     	stx	$a36e                   ; 0xa36e <_ZN12_GLOBAL__N_19free_listE>
    4625: 8c 6f a3     	sty	$a36f                   ; 0xa36f <_ZN12_GLOBAL__N_19free_listE+0x1>
    4628: 18           	clc
    4629: a5 1f        	lda	$1f                     ; 0x201f <main+0x1b8b>
    462b: 65 17        	adc	$17                     ; 0x2017 <main+0x1b83>
    462d: 85 17        	sta	$17                     ; 0x2017 <main+0x1b83>
    462f: a5 1e        	lda	$1e                     ; 0x201e <main+0x1b8a>
    4631: 65 16        	adc	$16                     ; 0x2016 <main+0x1b82>
    4633: 85 16        	sta	$16                     ; 0x2016 <main+0x1b82>
    4635: a2 00        	ldx	#$0
    4637: 86 1a        	stx	$1a                     ; 0x201a <main+0x1b86>
    4639: a2 00        	ldx	#$0
    463b: 86 1b        	stx	$1b                     ; 0x201b <main+0x1b87>
    463d: a6 19        	ldx	$19                     ; 0x2019 <main+0x1b85>
    463f: e4 1b        	cpx	$1b                     ; 0x201b <main+0x1b87>
    4641: d0 0e        	bne	$4651 <main+0x41bd>
    4643: a6 18        	ldx	$18                     ; 0x2018 <main+0x1b84>
    4645: e4 1a        	cpx	$1a                     ; 0x201a <main+0x1b86>
    4647: d0 08        	bne	$4651 <main+0x41bd>
    4649: a2 01        	ldx	#$1
    464b: 8e 6b a3     	stx	$a36b                   ; 0xa36b <_ZN12_GLOBAL__N_19last_freeE>
    464e: 4c d0 4b     	jmp	$4bd0 <main+0x473c>
    4651: a0 01        	ldy	#$1
    4653: b1 18        	lda	($18),y                 ; 0x2018 <main+0x1b84>
    4655: a8           	tay
    4656: a9 fe        	lda	#$fe
    4658: 32 18        	and	($18)                   ; 0x2018 <main+0x1b84>
    465a: 18           	clc
    465b: 85 1f        	sta	$1f                     ; 0x201f <main+0x1b8b>
    465d: 65 18        	adc	$18                     ; 0x2018 <main+0x1b84>
    465f: aa           	tax
    4660: 98           	tya
    4661: 84 1e        	sty	$1e                     ; 0x201e <main+0x1b8a>
    4663: 65 19        	adc	$19                     ; 0x2019 <main+0x1b85>
    4665: c5 28        	cmp	$28                     ; 0x2028 <main+0x1b94>
    4667: d0 15        	bne	$467e <main+0x41ea>
    4669: 48           	pha
    466a: a0 10        	ldy	#$10
    466c: b1 10        	lda	($10),y                 ; 0x2010 <main+0x1b7c>
    466e: 85 1a        	sta	$1a                     ; 0x201a <main+0x1b86>
    4670: 68           	pla
    4671: e4 1a        	cpx	$1a                     ; 0x201a <main+0x1b86>
    4673: d0 09        	bne	$467e <main+0x41ea>
    4675: a9 01        	lda	#$1
    4677: 64 1a        	stz	$1a                     ; 0x201a <main+0x1b86>
    4679: 2d 6b a3     	and	$a36b                   ; 0xa36b <_ZN12_GLOBAL__N_19last_freeE>
    467c: 80 0a        	bra	$4688 <main+0x41f4>
    467e: 86 1a        	stx	$1a                     ; 0x201a <main+0x1b86>
    4680: 85 1b        	sta	$1b                     ; 0x201b <main+0x1b87>
    4682: a9 01        	lda	#$1
    4684: 32 1a        	and	($1a)                   ; 0x201a <main+0x1b86>
    4686: 64 1a        	stz	$1a                     ; 0x201a <main+0x1b86>
    4688: a6 1a        	ldx	$1a                     ; 0x201a <main+0x1b86>
    468a: d0 06        	bne	$4692 <main+0x41fe>
    468c: aa           	tax
    468d: d0 03        	bne	$4692 <main+0x41fe>
    468f: 4c c4 4b     	jmp	$4bc4 <main+0x4730>
    4692: ad 6c a3     	lda	$a36c                   ; 0xa36c <_ZN12_GLOBAL__N_19free_sizeE>
    4695: ae 6d a3     	ldx	$a36d                   ; 0xa36d <_ZN12_GLOBAL__N_19free_sizeE+0x1>
    4698: 86 1b        	stx	$1b                     ; 0x201b <main+0x1b87>
    469a: 38           	sec
    469b: e5 1f        	sbc	$1f                     ; 0x201f <main+0x1b8b>
    469d: aa           	tax
    469e: a5 1b        	lda	$1b                     ; 0x201b <main+0x1b87>
    46a0: e5 1e        	sbc	$1e                     ; 0x201e <main+0x1b8a>
    46a2: 85 1a        	sta	$1a                     ; 0x201a <main+0x1b86>
    46a4: 18           	clc
    46a5: 8a           	txa
    46a6: 69 02        	adc	#$2
    46a8: 85 1b        	sta	$1b                     ; 0x201b <main+0x1b87>
    46aa: a5 1a        	lda	$1a                     ; 0x201a <main+0x1b86>
    46ac: 69 00        	adc	#$0
    46ae: a6 1b        	ldx	$1b                     ; 0x201b <main+0x1b87>
    46b0: 8e 6c a3     	stx	$a36c                   ; 0xa36c <_ZN12_GLOBAL__N_19free_sizeE>
    46b3: 8d 6d a3     	sta	$a36d                   ; 0xa36d <_ZN12_GLOBAL__N_19free_sizeE+0x1>
    46b6: a5 18        	lda	$18                     ; 0x2018 <main+0x1b84>
    46b8: 18           	clc
    46b9: 69 02        	adc	#$2
    46bb: 85 1a        	sta	$1a                     ; 0x201a <main+0x1b86>
    46bd: a5 19        	lda	$19                     ; 0x2019 <main+0x1b85>
    46bf: 69 00        	adc	#$0
    46c1: a0 02        	ldy	#$2
    46c3: 85 1b        	sta	$1b                     ; 0x201b <main+0x1b87>
    46c5: b1 18        	lda	($18),y                 ; 0x2018 <main+0x1b84>
    46c7: aa           	tax
    46c8: 88           	dey
    46c9: b1 1a        	lda	($1a),y                 ; 0x201a <main+0x1b86>
    46cb: 85 23        	sta	$23                     ; 0x2023 <main+0x1b8f>
    46cd: c5 19        	cmp	$19                     ; 0x2019 <main+0x1b85>
    46cf: d0 0f        	bne	$46e0 <main+0x424c>
    46d1: e4 18        	cpx	$18                     ; 0x2018 <main+0x1b84>
    46d3: d0 0b        	bne	$46e0 <main+0x424c>
    46d5: a2 00        	ldx	#$0
    46d7: 86 1a        	stx	$1a                     ; 0x201a <main+0x1b86>
    46d9: a2 00        	ldx	#$0
    46db: 86 1b        	stx	$1b                     ; 0x201b <main+0x1b87>
    46dd: 4c 5f 47     	jmp	$475f <main+0x42cb>
    46e0: 86 22        	stx	$22                     ; 0x2022 <main+0x1b8e>
    46e2: a6 18        	ldx	$18                     ; 0x2018 <main+0x1b84>
    46e4: a5 18        	lda	$18                     ; 0x2018 <main+0x1b84>
    46e6: 86 25        	stx	$25                     ; 0x2025 <main+0x1b91>
    46e8: 18           	clc
    46e9: 69 04        	adc	#$4
    46eb: 85 1a        	sta	$1a                     ; 0x201a <main+0x1b86>
    46ed: a5 19        	lda	$19                     ; 0x2019 <main+0x1b85>
    46ef: 69 00        	adc	#$0
    46f1: a0 04        	ldy	#$4
    46f3: 85 1b        	sta	$1b                     ; 0x201b <main+0x1b87>
    46f5: b1 18        	lda	($18),y                 ; 0x2018 <main+0x1b84>
    46f7: 85 26        	sta	$26                     ; 0x2026 <main+0x1b92>
    46f9: 18           	clc
    46fa: 69 02        	adc	#$2
    46fc: 85 1c        	sta	$1c                     ; 0x201c <main+0x1b88>
    46fe: a0 01        	ldy	#$1
    4700: b1 1a        	lda	($1a),y                 ; 0x201a <main+0x1b86>
    4702: aa           	tax
    4703: 69 00        	adc	#$0
    4705: a4 1c        	ldy	$1c                     ; 0x201c <main+0x1b88>
    4707: 84 1a        	sty	$1a                     ; 0x201a <main+0x1b86>
    4709: 85 1b        	sta	$1b                     ; 0x201b <main+0x1b87>
    470b: a4 26        	ldy	$26                     ; 0x2026 <main+0x1b92>
    470d: 84 1c        	sty	$1c                     ; 0x201c <main+0x1b88>
    470f: 86 1d        	stx	$1d                     ; 0x201d <main+0x1b89>
    4711: a0 02        	ldy	#$2
    4713: a5 22        	lda	$22                     ; 0x2022 <main+0x1b8e>
    4715: 91 1c        	sta	($1c),y                 ; 0x201c <main+0x1b88>
    4717: a5 23        	lda	$23                     ; 0x2023 <main+0x1b8f>
    4719: 88           	dey
    471a: 91 1a        	sta	($1a),y                 ; 0x201a <main+0x1b86>
    471c: 18           	clc
    471d: a5 25        	lda	$25                     ; 0x2025 <main+0x1b91>
    471f: 69 02        	adc	#$2
    4721: 85 1a        	sta	$1a                     ; 0x201a <main+0x1b86>
    4723: a5 19        	lda	$19                     ; 0x2019 <main+0x1b85>
    4725: 69 00        	adc	#$0
    4727: 85 1b        	sta	$1b                     ; 0x201b <main+0x1b87>
    4729: c8           	iny
    472a: b1 18        	lda	($18),y                 ; 0x2018 <main+0x1b84>
    472c: 85 1c        	sta	$1c                     ; 0x201c <main+0x1b88>
    472e: 88           	dey
    472f: b1 1a        	lda	($1a),y                 ; 0x201a <main+0x1b86>
    4731: a4 1c        	ldy	$1c                     ; 0x201c <main+0x1b88>
    4733: 84 1a        	sty	$1a                     ; 0x201a <main+0x1b86>
    4735: 85 1b        	sta	$1b                     ; 0x201b <main+0x1b87>
    4737: 85 1d        	sta	$1d                     ; 0x201d <main+0x1b89>
    4739: a0 04        	ldy	#$4
    473b: a5 26        	lda	$26                     ; 0x2026 <main+0x1b92>
    473d: 91 1a        	sta	($1a),y                 ; 0x201a <main+0x1b86>
    473f: 18           	clc
    4740: a5 1c        	lda	$1c                     ; 0x201c <main+0x1b88>
    4742: 69 04        	adc	#$4
    4744: 85 1c        	sta	$1c                     ; 0x201c <main+0x1b88>
    4746: a5 1d        	lda	$1d                     ; 0x201d <main+0x1b89>
    4748: 69 00        	adc	#$0
    474a: 85 1d        	sta	$1d                     ; 0x201d <main+0x1b89>
    474c: 8a           	txa
    474d: a0 01        	ldy	#$1
    474f: 91 1c        	sta	($1c),y                 ; 0x201c <main+0x1b88>
    4751: ae 6f a3     	ldx	$a36f                   ; 0xa36f <_ZN12_GLOBAL__N_19free_listE+0x1>
    4754: e4 19        	cpx	$19                     ; 0x2019 <main+0x1b85>
    4756: d0 11        	bne	$4769 <main+0x42d5>
    4758: ae 6e a3     	ldx	$a36e                   ; 0xa36e <_ZN12_GLOBAL__N_19free_listE>
    475b: e4 18        	cpx	$18                     ; 0x2018 <main+0x1b84>
    475d: d0 0a        	bne	$4769 <main+0x42d5>
    475f: a6 1a        	ldx	$1a                     ; 0x201a <main+0x1b86>
    4761: a4 1b        	ldy	$1b                     ; 0x201b <main+0x1b87>
    4763: 8e 6e a3     	stx	$a36e                   ; 0xa36e <_ZN12_GLOBAL__N_19free_listE>
    4766: 8c 6f a3     	sty	$a36f                   ; 0xa36f <_ZN12_GLOBAL__N_19free_listE+0x1>
    4769: 18           	clc
    476a: a5 1f        	lda	$1f                     ; 0x201f <main+0x1b8b>
    476c: 65 17        	adc	$17                     ; 0x2017 <main+0x1b83>
    476e: 85 17        	sta	$17                     ; 0x2017 <main+0x1b83>
    4770: a5 1e        	lda	$1e                     ; 0x201e <main+0x1b8a>
    4772: 65 16        	adc	$16                     ; 0x2016 <main+0x1b82>
    4774: aa           	tax
    4775: 4c d2 4b     	jmp	$4bd2 <main+0x473e>
    4778: 86 19        	stx	$19                     ; 0x2019 <main+0x1b85>
    477a: a2 10        	ldx	#$10
    477c: 86 14        	stx	$14                     ; 0x2014 <main+0x1b80>
    477e: a9 00        	lda	#$0
    4780: 29 fe        	and	#$fe
    4782: 85 15        	sta	$15                     ; 0x2015 <main+0x1b81>
    4784: a9 01        	lda	#$1
    4786: 2d 70 a3     	and	$a370                   ; 0xa370 <end_block9>
    4789: 05 15        	ora	$15                     ; 0x2015 <main+0x1b81>
    478b: 8d 70 a3     	sta	$a370                   ; 0xa370 <end_block9>
    478e: 8e 71 a3     	stx	$a371                   ; 0xa371 <end_block9+0x1>
    4791: a9 70        	lda	#$70
    4793: 18           	clc
    4794: 65 15        	adc	$15                     ; 0x2015 <main+0x1b81>
    4796: aa           	tax
    4797: a9 a3        	lda	#$a3
    4799: 65 14        	adc	$14                     ; 0x2014 <main+0x1b80>
    479b: 85 14        	sta	$14                     ; 0x2014 <main+0x1b80>
    479d: 18           	clc
    479e: 8a           	txa
    479f: 69 fe        	adc	#$fe
    47a1: aa           	tax
    47a2: a5 14        	lda	$14                     ; 0x2014 <main+0x1b80>
    47a4: 69 ff        	adc	#$ff
    47a6: 85 15        	sta	$15                     ; 0x2015 <main+0x1b81>
    47a8: 86 14        	stx	$14                     ; 0x2014 <main+0x1b80>
    47aa: a9 00        	lda	#$0
    47ac: 92 14        	sta	($14)                   ; 0x2014 <main+0x1b80>
    47ae: 5a           	phy
    47af: fa           	plx
    47b0: a0 01        	ldy	#$1
    47b2: a9 10        	lda	#$10
    47b4: 91 14        	sta	($14),y                 ; 0x2014 <main+0x1b80>
    47b6: ac 71 a3     	ldy	$a371                   ; 0xa371 <end_block9+0x1>
    47b9: 84 1a        	sty	$1a                     ; 0x201a <main+0x1b86>
    47bb: a9 fe        	lda	#$fe
    47bd: 2d 70 a3     	and	$a370                   ; 0xa370 <end_block9>
    47c0: ac 6d a3     	ldy	$a36d                   ; 0xa36d <_ZN12_GLOBAL__N_19free_sizeE+0x1>
    47c3: 84 14        	sty	$14                     ; 0x2014 <main+0x1b80>
    47c5: 85 18        	sta	$18                     ; 0x2018 <main+0x1b84>
    47c7: 18           	clc
    47c8: 6d 6c a3     	adc	$a36c                   ; 0xa36c <_ZN12_GLOBAL__N_19free_sizeE>
    47cb: a8           	tay
    47cc: a5 14        	lda	$14                     ; 0x2014 <main+0x1b80>
    47ce: 6d 71 a3     	adc	$a371                   ; 0xa371 <end_block9+0x1>
    47d1: 85 14        	sta	$14                     ; 0x2014 <main+0x1b80>
    47d3: 18           	clc
    47d4: 98           	tya
    47d5: 69 fe        	adc	#$fe
    47d7: 85 15        	sta	$15                     ; 0x2015 <main+0x1b81>
    47d9: a5 14        	lda	$14                     ; 0x2014 <main+0x1b80>
    47db: 69 ff        	adc	#$ff
    47dd: a4 15        	ldy	$15                     ; 0x2015 <main+0x1b81>
    47df: 8c 6c a3     	sty	$a36c                   ; 0xa36c <_ZN12_GLOBAL__N_19free_sizeE>
    47e2: 8d 6d a3     	sta	$a36d                   ; 0xa36d <_ZN12_GLOBAL__N_19free_sizeE+0x1>
    47e5: a0 00        	ldy	#$0
    47e7: 84 14        	sty	$14                     ; 0x2014 <main+0x1b80>
    47e9: a0 00        	ldy	#$0
    47eb: 84 15        	sty	$15                     ; 0x2015 <main+0x1b81>
    47ed: a0 11        	ldy	#$11
    47ef: b1 10        	lda	($10),y                 ; 0x2010 <main+0x1b7c>
    47f1: 85 26        	sta	$26                     ; 0x2026 <main+0x1b92>
    47f3: a5 19        	lda	$19                     ; 0x2019 <main+0x1b85>
    47f5: e4 15        	cpx	$15                     ; 0x2015 <main+0x1b81>
    47f7: d0 25        	bne	$481e <main+0x438a>
    47f9: c5 14        	cmp	$14                     ; 0x2014 <main+0x1b80>
    47fb: d0 21        	bne	$481e <main+0x438a>
    47fd: a2 70        	ldx	#$70
    47ff: a9 a3        	lda	#$a3
    4801: a0 70        	ldy	#$70
    4803: 84 12        	sty	$12                     ; 0x2012 <main+0x1b7e>
    4805: a0 a3        	ldy	#$a3
    4807: 84 13        	sty	$13                     ; 0x2013 <main+0x1b7f>
    4809: 8e 74 a3     	stx	$a374                   ; 0xa374 <end_block9+0x4>
    480c: 8d 75 a3     	sta	$a375                   ; 0xa375 <end_block9+0x5>
    480f: 8e 72 a3     	stx	$a372                   ; 0xa372 <end_block9+0x2>
    4812: 8d 73 a3     	sta	$a373                   ; 0xa373 <end_block9+0x3>
    4815: 8e 6e a3     	stx	$a36e                   ; 0xa36e <_ZN12_GLOBAL__N_19free_listE>
    4818: 8d 6f a3     	sta	$a36f                   ; 0xa36f <_ZN12_GLOBAL__N_19free_listE+0x1>
    481b: 4c 80 48     	jmp	$4880 <main+0x43ec>
    481e: 8d 72 a3     	sta	$a372                   ; 0xa372 <end_block9+0x2>
    4821: 8e 73 a3     	stx	$a373                   ; 0xa373 <end_block9+0x3>
    4824: a0 04        	ldy	#$4
    4826: 18           	clc
    4827: 69 04        	adc	#$4
    4829: 85 14        	sta	$14                     ; 0x2014 <main+0x1b80>
    482b: 8a           	txa
    482c: 69 00        	adc	#$0
    482e: 85 15        	sta	$15                     ; 0x2015 <main+0x1b81>
    4830: b1 12        	lda	($12),y                 ; 0x2012 <main+0x1b7e>
    4832: 85 16        	sta	$16                     ; 0x2016 <main+0x1b82>
    4834: a0 01        	ldy	#$1
    4836: b1 14        	lda	($14),y                 ; 0x2014 <main+0x1b80>
    4838: aa           	tax
    4839: a4 16        	ldy	$16                     ; 0x2016 <main+0x1b82>
    483b: 84 14        	sty	$14                     ; 0x2014 <main+0x1b80>
    483d: 85 15        	sta	$15                     ; 0x2015 <main+0x1b81>
    483f: 8c 74 a3     	sty	$a374                   ; 0xa374 <end_block9+0x4>
    4842: 8d 75 a3     	sta	$a375                   ; 0xa375 <end_block9+0x5>
    4845: 18           	clc
    4846: a5 16        	lda	$16                     ; 0x2016 <main+0x1b82>
    4848: 69 02        	adc	#$2
    484a: 85 16        	sta	$16                     ; 0x2016 <main+0x1b82>
    484c: 8a           	txa
    484d: 69 00        	adc	#$0
    484f: a0 02        	ldy	#$2
    4851: 85 17        	sta	$17                     ; 0x2017 <main+0x1b83>
    4853: a9 70        	lda	#$70
    4855: 91 14        	sta	($14),y                 ; 0x2014 <main+0x1b80>
    4857: a9 a3        	lda	#$a3
    4859: 88           	dey
    485a: 91 16        	sta	($16),y                 ; 0x2016 <main+0x1b82>
    485c: ae 72 a3     	ldx	$a372                   ; 0xa372 <end_block9+0x2>
    485f: ac 73 a3     	ldy	$a373                   ; 0xa373 <end_block9+0x3>
    4862: 86 14        	stx	$14                     ; 0x2014 <main+0x1b80>
    4864: 84 15        	sty	$15                     ; 0x2015 <main+0x1b81>
    4866: 84 16        	sty	$16                     ; 0x2016 <main+0x1b82>
    4868: a0 04        	ldy	#$4
    486a: a9 70        	lda	#$70
    486c: 91 14        	sta	($14),y                 ; 0x2014 <main+0x1b80>
    486e: 18           	clc
    486f: 8a           	txa
    4870: 69 04        	adc	#$4
    4872: 85 14        	sta	$14                     ; 0x2014 <main+0x1b80>
    4874: a5 16        	lda	$16                     ; 0x2016 <main+0x1b82>
    4876: 69 00        	adc	#$0
    4878: 85 15        	sta	$15                     ; 0x2015 <main+0x1b81>
    487a: a9 a3        	lda	#$a3
    487c: a0 01        	ldy	#$1
    487e: 91 14        	sta	($14),y                 ; 0x2014 <main+0x1b80>
    4880: a6 1a        	ldx	$1a                     ; 0x201a <main+0x1b86>
    4882: a4 18        	ldy	$18                     ; 0x2018 <main+0x1b84>
    4884: 8c 70 a3     	sty	$a370                   ; 0xa370 <end_block9>
    4887: 8e 71 a3     	stx	$a371                   ; 0xa371 <end_block9+0x1>
    488a: a2 01        	ldx	#$1
    488c: 8e 6b a3     	stx	$a36b                   ; 0xa36b <_ZN12_GLOBAL__N_19last_freeE>
    488f: 8e 6a a3     	stx	$a36a                   ; 0xa36a <_ZN12_GLOBAL__N_111initializedE>
    4892: a0 01        	ldy	#$1
    4894: a6 12        	ldx	$12                     ; 0x2012 <main+0x1b7e>
    4896: 86 2a        	stx	$2a                     ; 0x202a <main+0x1b96>
    4898: a6 13        	ldx	$13                     ; 0x2013 <main+0x1b7f>
    489a: 86 2b        	stx	$2b                     ; 0x202b <main+0x1b97>
    489c: 80 1d        	bra	$48bb <main+0x4427>
    489e: c9 00        	cmp	#$0
    48a0: 8a           	txa
    48a1: b0 26        	bcs	$48c9 <main+0x4435>
    48a3: a5 2a        	lda	$2a                     ; 0x202a <main+0x1b96>
    48a5: 18           	clc
    48a6: 69 02        	adc	#$2
    48a8: 85 14        	sta	$14                     ; 0x2014 <main+0x1b80>
    48aa: a5 2b        	lda	$2b                     ; 0x202b <main+0x1b97>
    48ac: 69 00        	adc	#$0
    48ae: 85 15        	sta	$15                     ; 0x2015 <main+0x1b81>
    48b0: a0 02        	ldy	#$2
    48b2: b1 2a        	lda	($2a),y                 ; 0x202a <main+0x1b96>
    48b4: 85 2a        	sta	$2a                     ; 0x202a <main+0x1b96>
    48b6: 88           	dey
    48b7: b1 14        	lda	($14),y                 ; 0x2014 <main+0x1b80>
    48b9: 85 2b        	sta	$2b                     ; 0x202b <main+0x1b97>
    48bb: b2 2a        	lda	($2a)                   ; 0x202a <main+0x1b96>
    48bd: aa           	tax
    48be: b1 2a        	lda	($2a),y                 ; 0x202a <main+0x1b96>
    48c0: 85 14        	sta	$14                     ; 0x2014 <main+0x1b80>
    48c2: d0 da        	bne	$489e <main+0x440a>
    48c4: 8a           	txa
    48c5: e0 08        	cpx	#$8
    48c7: 90 da        	bcc	$48a3 <main+0x440f>
    48c9: 29 fe        	and	#$fe
    48cb: 85 15        	sta	$15                     ; 0x2015 <main+0x1b81>
    48cd: ad 6c a3     	lda	$a36c                   ; 0xa36c <_ZN12_GLOBAL__N_19free_sizeE>
    48d0: ae 6d a3     	ldx	$a36d                   ; 0xa36d <_ZN12_GLOBAL__N_19free_sizeE+0x1>
    48d3: 86 16        	stx	$16                     ; 0x2016 <main+0x1b82>
    48d5: 38           	sec
    48d6: e5 15        	sbc	$15                     ; 0x2015 <main+0x1b81>
    48d8: aa           	tax
    48d9: a5 16        	lda	$16                     ; 0x2016 <main+0x1b82>
    48db: e5 14        	sbc	$14                     ; 0x2014 <main+0x1b80>
    48dd: 85 14        	sta	$14                     ; 0x2014 <main+0x1b80>
    48df: 18           	clc
    48e0: 8a           	txa
    48e1: 69 02        	adc	#$2
    48e3: 85 15        	sta	$15                     ; 0x2015 <main+0x1b81>
    48e5: a5 14        	lda	$14                     ; 0x2014 <main+0x1b80>
    48e7: 69 00        	adc	#$0
    48e9: a6 15        	ldx	$15                     ; 0x2015 <main+0x1b81>
    48eb: 8e 6c a3     	stx	$a36c                   ; 0xa36c <_ZN12_GLOBAL__N_19free_sizeE>
    48ee: 8d 6d a3     	sta	$a36d                   ; 0xa36d <_ZN12_GLOBAL__N_19free_sizeE+0x1>
    48f1: a0 02        	ldy	#$2
    48f3: a5 2a        	lda	$2a                     ; 0x202a <main+0x1b96>
    48f5: 18           	clc
    48f6: 69 02        	adc	#$2
    48f8: 85 14        	sta	$14                     ; 0x2014 <main+0x1b80>
    48fa: a5 2b        	lda	$2b                     ; 0x202b <main+0x1b97>
    48fc: 69 00        	adc	#$0
    48fe: aa           	tax
    48ff: a5 14        	lda	$14                     ; 0x2014 <main+0x1b80>
    4901: 85 27        	sta	$27                     ; 0x2027 <main+0x1b93>
    4903: 86 28        	stx	$28                     ; 0x2028 <main+0x1b94>
    4905: 86 15        	stx	$15                     ; 0x2015 <main+0x1b81>
    4907: b1 2a        	lda	($2a),y                 ; 0x202a <main+0x1b96>
    4909: aa           	tax
    490a: 88           	dey
    490b: b1 14        	lda	($14),y                 ; 0x2014 <main+0x1b80>
    490d: 85 19        	sta	$19                     ; 0x2019 <main+0x1b85>
    490f: c5 2b        	cmp	$2b                     ; 0x202b <main+0x1b97>
    4911: d0 0f        	bne	$4922 <main+0x448e>
    4913: e4 2a        	cpx	$2a                     ; 0x202a <main+0x1b96>
    4915: d0 0b        	bne	$4922 <main+0x448e>
    4917: a2 00        	ldx	#$0
    4919: 86 14        	stx	$14                     ; 0x2014 <main+0x1b80>
    491b: a2 00        	ldx	#$0
    491d: 86 15        	stx	$15                     ; 0x2015 <main+0x1b81>
    491f: 4c 9f 49     	jmp	$499f <main+0x450b>
    4922: 86 18        	stx	$18                     ; 0x2018 <main+0x1b84>
    4924: a6 2a        	ldx	$2a                     ; 0x202a <main+0x1b96>
    4926: a5 2a        	lda	$2a                     ; 0x202a <main+0x1b96>
    4928: 86 1b        	stx	$1b                     ; 0x201b <main+0x1b87>
    492a: 18           	clc
    492b: 69 04        	adc	#$4
    492d: 85 14        	sta	$14                     ; 0x2014 <main+0x1b80>
    492f: a5 2b        	lda	$2b                     ; 0x202b <main+0x1b97>
    4931: 69 00        	adc	#$0
    4933: a0 04        	ldy	#$4
    4935: 85 15        	sta	$15                     ; 0x2015 <main+0x1b81>
    4937: b1 2a        	lda	($2a),y                 ; 0x202a <main+0x1b96>
    4939: 85 1c        	sta	$1c                     ; 0x201c <main+0x1b88>
    493b: 18           	clc
    493c: 69 02        	adc	#$2
    493e: 85 16        	sta	$16                     ; 0x2016 <main+0x1b82>
    4940: a0 01        	ldy	#$1
    4942: b1 14        	lda	($14),y                 ; 0x2014 <main+0x1b80>
    4944: aa           	tax
    4945: 69 00        	adc	#$0
    4947: a4 16        	ldy	$16                     ; 0x2016 <main+0x1b82>
    4949: 84 14        	sty	$14                     ; 0x2014 <main+0x1b80>
    494b: 85 15        	sta	$15                     ; 0x2015 <main+0x1b81>
    494d: a4 1c        	ldy	$1c                     ; 0x201c <main+0x1b88>
    494f: 84 16        	sty	$16                     ; 0x2016 <main+0x1b82>
    4951: 86 17        	stx	$17                     ; 0x2017 <main+0x1b83>
    4953: a0 02        	ldy	#$2
    4955: a5 18        	lda	$18                     ; 0x2018 <main+0x1b84>
    4957: 91 16        	sta	($16),y                 ; 0x2016 <main+0x1b82>
    4959: a5 19        	lda	$19                     ; 0x2019 <main+0x1b85>
    495b: 88           	dey
    495c: 91 14        	sta	($14),y                 ; 0x2014 <main+0x1b80>
    495e: 18           	clc
    495f: a5 1b        	lda	$1b                     ; 0x201b <main+0x1b87>
    4961: 69 02        	adc	#$2
    4963: 85 14        	sta	$14                     ; 0x2014 <main+0x1b80>
    4965: a5 2b        	lda	$2b                     ; 0x202b <main+0x1b97>
    4967: 69 00        	adc	#$0
    4969: 85 15        	sta	$15                     ; 0x2015 <main+0x1b81>
    496b: c8           	iny
    496c: b1 2a        	lda	($2a),y                 ; 0x202a <main+0x1b96>
    496e: 85 16        	sta	$16                     ; 0x2016 <main+0x1b82>
    4970: 88           	dey
    4971: b1 14        	lda	($14),y                 ; 0x2014 <main+0x1b80>
    4973: a4 16        	ldy	$16                     ; 0x2016 <main+0x1b82>
    4975: 84 14        	sty	$14                     ; 0x2014 <main+0x1b80>
    4977: 85 15        	sta	$15                     ; 0x2015 <main+0x1b81>
    4979: 85 17        	sta	$17                     ; 0x2017 <main+0x1b83>
    497b: a0 04        	ldy	#$4
    497d: a5 1c        	lda	$1c                     ; 0x201c <main+0x1b88>
    497f: 91 14        	sta	($14),y                 ; 0x2014 <main+0x1b80>
    4981: 18           	clc
    4982: a5 16        	lda	$16                     ; 0x2016 <main+0x1b82>
    4984: 69 04        	adc	#$4
    4986: 85 16        	sta	$16                     ; 0x2016 <main+0x1b82>
    4988: a5 17        	lda	$17                     ; 0x2017 <main+0x1b83>
    498a: 69 00        	adc	#$0
    498c: 85 17        	sta	$17                     ; 0x2017 <main+0x1b83>
    498e: 8a           	txa
    498f: a0 01        	ldy	#$1
    4991: 91 16        	sta	($16),y                 ; 0x2016 <main+0x1b82>
    4993: a6 13        	ldx	$13                     ; 0x2013 <main+0x1b7f>
    4995: e4 2b        	cpx	$2b                     ; 0x202b <main+0x1b97>
    4997: d0 10        	bne	$49a9 <main+0x4515>
    4999: a6 12        	ldx	$12                     ; 0x2012 <main+0x1b7e>
    499b: e4 2a        	cpx	$2a                     ; 0x202a <main+0x1b96>
    499d: d0 0a        	bne	$49a9 <main+0x4515>
    499f: a6 14        	ldx	$14                     ; 0x2014 <main+0x1b80>
    49a1: a4 15        	ldy	$15                     ; 0x2015 <main+0x1b81>
    49a3: 8e 6e a3     	stx	$a36e                   ; 0xa36e <_ZN12_GLOBAL__N_19free_listE>
    49a6: 8c 6f a3     	sty	$a36f                   ; 0xa36f <_ZN12_GLOBAL__N_19free_listE+0x1>
    49a9: a0 01        	ldy	#$1
    49ab: b1 2a        	lda	($2a),y                 ; 0x202a <main+0x1b96>
    49ad: 85 12        	sta	$12                     ; 0x2012 <main+0x1b7e>
    49af: a9 fe        	lda	#$fe
    49b1: 32 2a        	and	($2a)                   ; 0x202a <main+0x1b96>
    49b3: 18           	clc
    49b4: aa           	tax
    49b5: 69 f8        	adc	#$f8
    49b7: a8           	tay
    49b8: a5 12        	lda	$12                     ; 0x2012 <main+0x1b7e>
    49ba: 69 ff        	adc	#$ff
    49bc: f0 03        	beq	$49c1 <main+0x452d>
    49be: 4c 2c 4a     	jmp	$4a2c <main+0x4598>
    49c1: 85 14        	sta	$14                     ; 0x2014 <main+0x1b80>
    49c3: c0 08        	cpy	#$8
    49c5: 90 24        	bcc	$49eb <main+0x4557>
    49c7: a5 2a        	lda	$2a                     ; 0x202a <main+0x1b96>
    49c9: 18           	clc
    49ca: 69 08        	adc	#$8
    49cc: 85 12        	sta	$12                     ; 0x2012 <main+0x1b7e>
    49ce: a5 2b        	lda	$2b                     ; 0x202b <main+0x1b97>
    49d0: 69 00        	adc	#$0
    49d2: 85 13        	sta	$13                     ; 0x2013 <main+0x1b7f>
    49d4: a6 14        	ldx	$14                     ; 0x2014 <main+0x1b80>
    49d6: 98           	tya
    49d7: 20 1a 03     	jsr	$31a <_ZN12_GLOBAL__N_19FreeChunk6insertEPvj>
    49da: a0 01        	ldy	#$1
    49dc: 98           	tya
    49dd: 32 2a        	and	($2a)                   ; 0x202a <main+0x1b96>
    49df: 09 08        	ora	#$8
    49e1: 92 2a        	sta	($2a)                   ; 0x202a <main+0x1b96>
    49e3: a2 08        	ldx	#$8
    49e5: 64 12        	stz	$12                     ; 0x2012 <main+0x1b7e>
    49e7: a9 00        	lda	#$0
    49e9: 91 2a        	sta	($2a),y                 ; 0x202a <main+0x1b96>
    49eb: 18           	clc
    49ec: 8a           	txa
    49ed: 65 2a        	adc	$2a                     ; 0x202a <main+0x1b96>
    49ef: aa           	tax
    49f0: a5 12        	lda	$12                     ; 0x2012 <main+0x1b7e>
    49f2: 65 2b        	adc	$2b                     ; 0x202b <main+0x1b97>
    49f4: 85 13        	sta	$13                     ; 0x2013 <main+0x1b7f>
    49f6: c5 26        	cmp	$26                     ; 0x2026 <main+0x1b92>
    49f8: d0 0f        	bne	$4a09 <main+0x4575>
    49fa: a0 10        	ldy	#$10
    49fc: b1 10        	lda	($10),y                 ; 0x2010 <main+0x1b7c>
    49fe: 85 12        	sta	$12                     ; 0x2012 <main+0x1b7e>
    4a00: e4 12        	cpx	$12                     ; 0x2012 <main+0x1b7e>
    4a02: d0 05        	bne	$4a09 <main+0x4575>
    4a04: 9c 6b a3     	stz	$a36b                   ; 0xa36b <_ZN12_GLOBAL__N_19last_freeE>
    4a07: 80 12        	bra	$4a1b <main+0x4587>
    4a09: 86 12        	stx	$12                     ; 0x2012 <main+0x1b7e>
    4a0b: a0 01        	ldy	#$1
    4a0d: b1 12        	lda	($12),y                 ; 0x2012 <main+0x1b7e>
    4a0f: 85 14        	sta	$14                     ; 0x2014 <main+0x1b80>
    4a11: a9 fe        	lda	#$fe
    4a13: 32 12        	and	($12)                   ; 0x2012 <main+0x1b7e>
    4a15: 92 12        	sta	($12)                   ; 0x2012 <main+0x1b7e>
    4a17: a5 14        	lda	$14                     ; 0x2014 <main+0x1b80>
    4a19: 91 12        	sta	($12),y                 ; 0x2012 <main+0x1b7e>
    4a1b: a0 02        	ldy	#$2
    4a1d: a5 25        	lda	$25                     ; 0x2025 <main+0x1b91>
    4a1f: 91 2a        	sta	($2a),y                 ; 0x202a <main+0x1b96>
    4a21: a6 27        	ldx	$27                     ; 0x2027 <main+0x1b93>
    4a23: 86 37        	stx	$37                     ; 0x2037 <main+0x1ba3>
    4a25: a6 28        	ldx	$28                     ; 0x2028 <main+0x1b94>
    4a27: 86 38        	stx	$38                     ; 0x2038 <main+0x1ba4>
    4a29: 4c f5 26     	jmp	$26f5 <main+0x2261>
    4a2c: 85 14        	sta	$14                     ; 0x2014 <main+0x1b80>
    4a2e: c9 00        	cmp	#$0
    4a30: 90 b9        	bcc	$49eb <main+0x4557>
    4a32: 4c c7 49     	jmp	$49c7 <main+0x4533>
    4a35: a2 13        	ldx	#$13
    4a37: a0 0c        	ldy	#$c
    4a39: 4c 2a 22     	jmp	$222a <main+0x1d96>
    4a3c: a2 13        	ldx	#$13
    4a3e: a0 0c        	ldy	#$c
    4a40: 4c 92 22     	jmp	$2292 <main+0x1dfe>
    4a43: a2 12        	ldx	#$12
    4a45: a0 0d        	ldy	#$d
    4a47: 4c 2a 22     	jmp	$222a <main+0x1d96>
    4a4a: a2 12        	ldx	#$12
    4a4c: a0 0d        	ldy	#$d
    4a4e: 4c 92 22     	jmp	$2292 <main+0x1dfe>
    4a51: b2 18        	lda	($18)                   ; 0x2018 <main+0x1b84>
    4a53: 09 01        	ora	#$1
    4a55: 92 18        	sta	($18)                   ; 0x2018 <main+0x1b84>
    4a57: a0 01        	ldy	#$1
    4a59: a5 1e        	lda	$1e                     ; 0x201e <main+0x1b8a>
    4a5b: 91 18        	sta	($18),y                 ; 0x2018 <main+0x1b84>
    4a5d: a6 16        	ldx	$16                     ; 0x2016 <main+0x1b82>
    4a5f: a9 01        	lda	#$1
    4a61: 32 14        	and	($14)                   ; 0x2014 <main+0x1b80>
    4a63: a4 17        	ldy	$17                     ; 0x2017 <main+0x1b83>
    4a65: 84 18        	sty	$18                     ; 0x2018 <main+0x1b84>
    4a67: 05 17        	ora	$17                     ; 0x2017 <main+0x1b83>
    4a69: 92 14        	sta	($14)                   ; 0x2014 <main+0x1b80>
    4a6b: a5 14        	lda	$14                     ; 0x2014 <main+0x1b80>
    4a6d: 18           	clc
    4a6e: 65 17        	adc	$17                     ; 0x2017 <main+0x1b83>
    4a70: a8           	tay
    4a71: 8a           	txa
    4a72: 65 15        	adc	$15                     ; 0x2015 <main+0x1b81>
    4a74: 85 17        	sta	$17                     ; 0x2017 <main+0x1b83>
    4a76: 18           	clc
    4a77: 98           	tya
    4a78: 69 fe        	adc	#$fe
    4a7a: 85 16        	sta	$16                     ; 0x2016 <main+0x1b82>
    4a7c: a5 17        	lda	$17                     ; 0x2017 <main+0x1b83>
    4a7e: 69 ff        	adc	#$ff
    4a80: 85 17        	sta	$17                     ; 0x2017 <main+0x1b83>
    4a82: a0 01        	ldy	#$1
    4a84: 8a           	txa
    4a85: 91 14        	sta	($14),y                 ; 0x2014 <main+0x1b80>
    4a87: a5 18        	lda	$18                     ; 0x2018 <main+0x1b84>
    4a89: 92 16        	sta	($16)                   ; 0x2016 <main+0x1b82>
    4a8b: 8a           	txa
    4a8c: 91 16        	sta	($16),y                 ; 0x2016 <main+0x1b82>
    4a8e: b1 14        	lda	($14),y                 ; 0x2014 <main+0x1b80>
    4a90: 85 16        	sta	$16                     ; 0x2016 <main+0x1b82>
    4a92: a9 fe        	lda	#$fe
    4a94: 32 14        	and	($14)                   ; 0x2014 <main+0x1b80>
    4a96: 18           	clc
    4a97: 6d 6c a3     	adc	$a36c                   ; 0xa36c <_ZN12_GLOBAL__N_19free_sizeE>
    4a9a: aa           	tax
    4a9b: a5 16        	lda	$16                     ; 0x2016 <main+0x1b82>
    4a9d: 6d 6d a3     	adc	$a36d                   ; 0xa36d <_ZN12_GLOBAL__N_19free_sizeE+0x1>
    4aa0: 85 16        	sta	$16                     ; 0x2016 <main+0x1b82>
    4aa2: 18           	clc
    4aa3: 8a           	txa
    4aa4: 69 fe        	adc	#$fe
    4aa6: 85 17        	sta	$17                     ; 0x2017 <main+0x1b83>
    4aa8: a5 16        	lda	$16                     ; 0x2016 <main+0x1b82>
    4aaa: 69 ff        	adc	#$ff
    4aac: a6 17        	ldx	$17                     ; 0x2017 <main+0x1b83>
    4aae: 8e 6c a3     	stx	$a36c                   ; 0xa36c <_ZN12_GLOBAL__N_19free_sizeE>
    4ab1: 8d 6d a3     	sta	$a36d                   ; 0xa36d <_ZN12_GLOBAL__N_19free_sizeE+0x1>
    4ab4: ae 6e a3     	ldx	$a36e                   ; 0xa36e <_ZN12_GLOBAL__N_19free_listE>
    4ab7: 86 18        	stx	$18                     ; 0x2018 <main+0x1b84>
    4ab9: ac 6f a3     	ldy	$a36f                   ; 0xa36f <_ZN12_GLOBAL__N_19free_listE+0x1>
    4abc: a2 00        	ldx	#$0
    4abe: 86 16        	stx	$16                     ; 0x2016 <main+0x1b82>
    4ac0: a2 00        	ldx	#$0
    4ac2: 86 17        	stx	$17                     ; 0x2017 <main+0x1b83>
    4ac4: c4 17        	cpy	$17                     ; 0x2017 <main+0x1b83>
    4ac6: d0 40        	bne	$4b08 <main+0x4674>
    4ac8: a6 18        	ldx	$18                     ; 0x2018 <main+0x1b84>
    4aca: e4 16        	cpx	$16                     ; 0x2016 <main+0x1b82>
    4acc: d0 3a        	bne	$4b08 <main+0x4674>
    4ace: a0 04        	ldy	#$4
    4ad0: a5 14        	lda	$14                     ; 0x2014 <main+0x1b80>
    4ad2: 18           	clc
    4ad3: 69 04        	adc	#$4
    4ad5: 85 16        	sta	$16                     ; 0x2016 <main+0x1b82>
    4ad7: a5 15        	lda	$15                     ; 0x2015 <main+0x1b81>
    4ad9: 69 00        	adc	#$0
    4adb: 18           	clc
    4adc: 85 17        	sta	$17                     ; 0x2017 <main+0x1b83>
    4ade: a5 14        	lda	$14                     ; 0x2014 <main+0x1b80>
    4ae0: 91 14        	sta	($14),y                 ; 0x2014 <main+0x1b80>
    4ae2: a0 02        	ldy	#$2
    4ae4: 85 19        	sta	$19                     ; 0x2019 <main+0x1b85>
    4ae6: 69 02        	adc	#$2
    4ae8: 85 18        	sta	$18                     ; 0x2018 <main+0x1b84>
    4aea: a5 19        	lda	$19                     ; 0x2019 <main+0x1b85>
    4aec: 91 14        	sta	($14),y                 ; 0x2014 <main+0x1b80>
    4aee: a5 15        	lda	$15                     ; 0x2015 <main+0x1b81>
    4af0: 69 00        	adc	#$0
    4af2: 85 19        	sta	$19                     ; 0x2019 <main+0x1b85>
    4af4: 88           	dey
    4af5: a5 15        	lda	$15                     ; 0x2015 <main+0x1b81>
    4af7: 91 16        	sta	($16),y                 ; 0x2016 <main+0x1b82>
    4af9: 91 18        	sta	($18),y                 ; 0x2018 <main+0x1b84>
    4afb: a6 14        	ldx	$14                     ; 0x2014 <main+0x1b80>
    4afd: 8e 6e a3     	stx	$a36e                   ; 0xa36e <_ZN12_GLOBAL__N_19free_listE>
    4b00: a6 15        	ldx	$15                     ; 0x2015 <main+0x1b81>
    4b02: 8e 6f a3     	stx	$a36f                   ; 0xa36f <_ZN12_GLOBAL__N_19free_listE+0x1>
    4b05: 4c a0 4b     	jmp	$4ba0 <main+0x470c>
    4b08: a6 14        	ldx	$14                     ; 0x2014 <main+0x1b80>
    4b0a: a5 14        	lda	$14                     ; 0x2014 <main+0x1b80>
    4b0c: 86 1e        	stx	$1e                     ; 0x201e <main+0x1b8a>
    4b0e: 18           	clc
    4b0f: 69 02        	adc	#$2
    4b11: 85 16        	sta	$16                     ; 0x2016 <main+0x1b82>
    4b13: a6 15        	ldx	$15                     ; 0x2015 <main+0x1b81>
    4b15: 84 1a        	sty	$1a                     ; 0x201a <main+0x1b86>
    4b17: a5 15        	lda	$15                     ; 0x2015 <main+0x1b81>
    4b19: 69 00        	adc	#$0
    4b1b: 85 17        	sta	$17                     ; 0x2017 <main+0x1b83>
    4b1d: a5 18        	lda	$18                     ; 0x2018 <main+0x1b84>
    4b1f: 84 19        	sty	$19                     ; 0x2019 <main+0x1b85>
    4b21: a0 02        	ldy	#$2
    4b23: 91 14        	sta	($14),y                 ; 0x2014 <main+0x1b80>
    4b25: 85 1b        	sta	$1b                     ; 0x201b <main+0x1b87>
    4b27: 88           	dey
    4b28: a5 1a        	lda	$1a                     ; 0x201a <main+0x1b86>
    4b2a: 91 16        	sta	($16),y                 ; 0x2016 <main+0x1b82>
    4b2c: 18           	clc
    4b2d: a5 1b        	lda	$1b                     ; 0x201b <main+0x1b87>
    4b2f: 69 04        	adc	#$4
    4b31: a8           	tay
    4b32: a5 1a        	lda	$1a                     ; 0x201a <main+0x1b86>
    4b34: 69 00        	adc	#$0
    4b36: 84 1a        	sty	$1a                     ; 0x201a <main+0x1b86>
    4b38: 85 1b        	sta	$1b                     ; 0x201b <main+0x1b87>
    4b3a: a5 1e        	lda	$1e                     ; 0x201e <main+0x1b8a>
    4b3c: 18           	clc
    4b3d: 69 04        	adc	#$4
    4b3f: 85 1c        	sta	$1c                     ; 0x201c <main+0x1b88>
    4b41: a5 15        	lda	$15                     ; 0x2015 <main+0x1b81>
    4b43: 69 00        	adc	#$0
    4b45: 85 1d        	sta	$1d                     ; 0x201d <main+0x1b89>
    4b47: a0 04        	ldy	#$4
    4b49: b1 18        	lda	($18),y                 ; 0x2018 <main+0x1b84>
    4b4b: 85 18        	sta	$18                     ; 0x2018 <main+0x1b84>
    4b4d: 85 1f        	sta	$1f                     ; 0x201f <main+0x1b8b>
    4b4f: a0 01        	ldy	#$1
    4b51: b1 1a        	lda	($1a),y                 ; 0x201a <main+0x1b86>
    4b53: 85 19        	sta	$19                     ; 0x2019 <main+0x1b85>
    4b55: 85 1b        	sta	$1b                     ; 0x201b <main+0x1b87>
    4b57: a0 04        	ldy	#$4
    4b59: a5 1f        	lda	$1f                     ; 0x201f <main+0x1b8b>
    4b5b: 91 14        	sta	($14),y                 ; 0x2014 <main+0x1b80>
    4b5d: a5 1b        	lda	$1b                     ; 0x201b <main+0x1b87>
    4b5f: a0 01        	ldy	#$1
    4b61: 91 1c        	sta	($1c),y                 ; 0x201c <main+0x1b88>
    4b63: 18           	clc
    4b64: a5 1f        	lda	$1f                     ; 0x201f <main+0x1b8b>
    4b66: 69 02        	adc	#$2
    4b68: 85 1a        	sta	$1a                     ; 0x201a <main+0x1b86>
    4b6a: a5 1b        	lda	$1b                     ; 0x201b <main+0x1b87>
    4b6c: 69 00        	adc	#$0
    4b6e: 85 1b        	sta	$1b                     ; 0x201b <main+0x1b87>
    4b70: a5 1e        	lda	$1e                     ; 0x201e <main+0x1b8a>
    4b72: c8           	iny
    4b73: 91 18        	sta	($18),y                 ; 0x2018 <main+0x1b84>
    4b75: a5 15        	lda	$15                     ; 0x2015 <main+0x1b81>
    4b77: 88           	dey
    4b78: 91 1a        	sta	($1a),y                 ; 0x201a <main+0x1b86>
    4b7a: c8           	iny
    4b7b: b1 14        	lda	($14),y                 ; 0x2014 <main+0x1b80>
    4b7d: 85 14        	sta	$14                     ; 0x2014 <main+0x1b80>
    4b7f: 85 18        	sta	$18                     ; 0x2018 <main+0x1b84>
    4b81: 88           	dey
    4b82: b1 16        	lda	($16),y                 ; 0x2016 <main+0x1b82>
    4b84: 85 15        	sta	$15                     ; 0x2015 <main+0x1b81>
    4b86: 85 16        	sta	$16                     ; 0x2016 <main+0x1b82>
    4b88: a5 1e        	lda	$1e                     ; 0x201e <main+0x1b8a>
    4b8a: a0 04        	ldy	#$4
    4b8c: 91 14        	sta	($14),y                 ; 0x2014 <main+0x1b80>
    4b8e: 18           	clc
    4b8f: a5 18        	lda	$18                     ; 0x2018 <main+0x1b84>
    4b91: 69 04        	adc	#$4
    4b93: 85 14        	sta	$14                     ; 0x2014 <main+0x1b80>
    4b95: a5 16        	lda	$16                     ; 0x2016 <main+0x1b82>
    4b97: 69 00        	adc	#$0
    4b99: 85 15        	sta	$15                     ; 0x2015 <main+0x1b81>
    4b9b: 8a           	txa
    4b9c: a0 01        	ldy	#$1
    4b9e: 91 14        	sta	($14),y                 ; 0x2014 <main+0x1b80>
    4ba0: a2 39        	ldx	#$39
    4ba2: 86 14        	stx	$14                     ; 0x2014 <main+0x1b80>
    4ba4: a2 00        	ldx	#$0
    4ba6: 86 15        	stx	$15                     ; 0x2015 <main+0x1b81>
    4ba8: 64 3a        	stz	$3a                     ; 0x203a <main+0x1ba6>
    4baa: 20 00 ff     	jsr	$ff00 <end_block9+0x5b90>
    4bad: 92 12        	sta	($12)                   ; 0x2012 <main+0x1b7e>
    4baf: a9 00        	lda	#$0
    4bb1: 6a           	ror
    4bb2: 85 14        	sta	$14                     ; 0x2014 <main+0x1b80>
    4bb4: a6 3a        	ldx	$3a                     ; 0x203a <main+0x1ba6>
    4bb6: e0 32        	cpx	#$32
    4bb8: d0 03        	bne	$4bbd <main+0x4729>
    4bba: 4c 31 4d     	jmp	$4d31 <main+0x489d>
    4bbd: e0 38        	cpx	#$38
    4bbf: d0 e7        	bne	$4ba8 <main+0x4714>
    4bc1: 4c 31 4d     	jmp	$4d31 <main+0x489d>
    4bc4: b2 18        	lda	($18)                   ; 0x2018 <main+0x1b84>
    4bc6: 09 01        	ora	#$1
    4bc8: 92 18        	sta	($18)                   ; 0x2018 <main+0x1b84>
    4bca: a0 01        	ldy	#$1
    4bcc: a5 1e        	lda	$1e                     ; 0x201e <main+0x1b8a>
    4bce: 91 18        	sta	($18),y                 ; 0x2018 <main+0x1b84>
    4bd0: a6 16        	ldx	$16                     ; 0x2016 <main+0x1b82>
    4bd2: a9 01        	lda	#$1
    4bd4: 32 14        	and	($14)                   ; 0x2014 <main+0x1b80>
    4bd6: a4 17        	ldy	$17                     ; 0x2017 <main+0x1b83>
    4bd8: 84 18        	sty	$18                     ; 0x2018 <main+0x1b84>
    4bda: 05 17        	ora	$17                     ; 0x2017 <main+0x1b83>
    4bdc: 92 14        	sta	($14)                   ; 0x2014 <main+0x1b80>
    4bde: a5 14        	lda	$14                     ; 0x2014 <main+0x1b80>
    4be0: 18           	clc
    4be1: 65 17        	adc	$17                     ; 0x2017 <main+0x1b83>
    4be3: a8           	tay
    4be4: 8a           	txa
    4be5: 65 15        	adc	$15                     ; 0x2015 <main+0x1b81>
    4be7: 85 17        	sta	$17                     ; 0x2017 <main+0x1b83>
    4be9: 18           	clc
    4bea: 98           	tya
    4beb: 69 fe        	adc	#$fe
    4bed: 85 16        	sta	$16                     ; 0x2016 <main+0x1b82>
    4bef: a5 17        	lda	$17                     ; 0x2017 <main+0x1b83>
    4bf1: 69 ff        	adc	#$ff
    4bf3: 85 17        	sta	$17                     ; 0x2017 <main+0x1b83>
    4bf5: a0 01        	ldy	#$1
    4bf7: 8a           	txa
    4bf8: 91 14        	sta	($14),y                 ; 0x2014 <main+0x1b80>
    4bfa: a5 18        	lda	$18                     ; 0x2018 <main+0x1b84>
    4bfc: 92 16        	sta	($16)                   ; 0x2016 <main+0x1b82>
    4bfe: 8a           	txa
    4bff: 91 16        	sta	($16),y                 ; 0x2016 <main+0x1b82>
    4c01: b1 14        	lda	($14),y                 ; 0x2014 <main+0x1b80>
    4c03: 85 16        	sta	$16                     ; 0x2016 <main+0x1b82>
    4c05: a9 fe        	lda	#$fe
    4c07: 32 14        	and	($14)                   ; 0x2014 <main+0x1b80>
    4c09: 18           	clc
    4c0a: 6d 6c a3     	adc	$a36c                   ; 0xa36c <_ZN12_GLOBAL__N_19free_sizeE>
    4c0d: aa           	tax
    4c0e: a5 16        	lda	$16                     ; 0x2016 <main+0x1b82>
    4c10: 6d 6d a3     	adc	$a36d                   ; 0xa36d <_ZN12_GLOBAL__N_19free_sizeE+0x1>
    4c13: 85 16        	sta	$16                     ; 0x2016 <main+0x1b82>
    4c15: 18           	clc
    4c16: 8a           	txa
    4c17: 69 fe        	adc	#$fe
    4c19: 85 17        	sta	$17                     ; 0x2017 <main+0x1b83>
    4c1b: a5 16        	lda	$16                     ; 0x2016 <main+0x1b82>
    4c1d: 69 ff        	adc	#$ff
    4c1f: a6 17        	ldx	$17                     ; 0x2017 <main+0x1b83>
    4c21: 8e 6c a3     	stx	$a36c                   ; 0xa36c <_ZN12_GLOBAL__N_19free_sizeE>
    4c24: 8d 6d a3     	sta	$a36d                   ; 0xa36d <_ZN12_GLOBAL__N_19free_sizeE+0x1>
    4c27: ae 6e a3     	ldx	$a36e                   ; 0xa36e <_ZN12_GLOBAL__N_19free_listE>
    4c2a: 86 18        	stx	$18                     ; 0x2018 <main+0x1b84>
    4c2c: ac 6f a3     	ldy	$a36f                   ; 0xa36f <_ZN12_GLOBAL__N_19free_listE+0x1>
    4c2f: a2 00        	ldx	#$0
    4c31: 86 16        	stx	$16                     ; 0x2016 <main+0x1b82>
    4c33: a2 00        	ldx	#$0
    4c35: 86 17        	stx	$17                     ; 0x2017 <main+0x1b83>
    4c37: c4 17        	cpy	$17                     ; 0x2017 <main+0x1b83>
    4c39: d0 40        	bne	$4c7b <main+0x47e7>
    4c3b: a6 18        	ldx	$18                     ; 0x2018 <main+0x1b84>
    4c3d: e4 16        	cpx	$16                     ; 0x2016 <main+0x1b82>
    4c3f: d0 3a        	bne	$4c7b <main+0x47e7>
    4c41: a0 04        	ldy	#$4
    4c43: a5 14        	lda	$14                     ; 0x2014 <main+0x1b80>
    4c45: 18           	clc
    4c46: 69 04        	adc	#$4
    4c48: 85 16        	sta	$16                     ; 0x2016 <main+0x1b82>
    4c4a: a5 15        	lda	$15                     ; 0x2015 <main+0x1b81>
    4c4c: 69 00        	adc	#$0
    4c4e: 18           	clc
    4c4f: 85 17        	sta	$17                     ; 0x2017 <main+0x1b83>
    4c51: a5 14        	lda	$14                     ; 0x2014 <main+0x1b80>
    4c53: 91 14        	sta	($14),y                 ; 0x2014 <main+0x1b80>
    4c55: a0 02        	ldy	#$2
    4c57: 85 19        	sta	$19                     ; 0x2019 <main+0x1b85>
    4c59: 69 02        	adc	#$2
    4c5b: 85 18        	sta	$18                     ; 0x2018 <main+0x1b84>
    4c5d: a5 19        	lda	$19                     ; 0x2019 <main+0x1b85>
    4c5f: 91 14        	sta	($14),y                 ; 0x2014 <main+0x1b80>
    4c61: a5 15        	lda	$15                     ; 0x2015 <main+0x1b81>
    4c63: 69 00        	adc	#$0
    4c65: 85 19        	sta	$19                     ; 0x2019 <main+0x1b85>
    4c67: 88           	dey
    4c68: a5 15        	lda	$15                     ; 0x2015 <main+0x1b81>
    4c6a: 91 16        	sta	($16),y                 ; 0x2016 <main+0x1b82>
    4c6c: 91 18        	sta	($18),y                 ; 0x2018 <main+0x1b84>
    4c6e: a6 14        	ldx	$14                     ; 0x2014 <main+0x1b80>
    4c70: 8e 6e a3     	stx	$a36e                   ; 0xa36e <_ZN12_GLOBAL__N_19free_listE>
    4c73: a6 15        	ldx	$15                     ; 0x2015 <main+0x1b81>
    4c75: 8e 6f a3     	stx	$a36f                   ; 0xa36f <_ZN12_GLOBAL__N_19free_listE+0x1>
    4c78: 4c 13 4d     	jmp	$4d13 <main+0x487f>
    4c7b: a6 14        	ldx	$14                     ; 0x2014 <main+0x1b80>
    4c7d: a5 14        	lda	$14                     ; 0x2014 <main+0x1b80>
    4c7f: 86 1e        	stx	$1e                     ; 0x201e <main+0x1b8a>
    4c81: 18           	clc
    4c82: 69 02        	adc	#$2
    4c84: 85 16        	sta	$16                     ; 0x2016 <main+0x1b82>
    4c86: a6 15        	ldx	$15                     ; 0x2015 <main+0x1b81>
    4c88: 84 1a        	sty	$1a                     ; 0x201a <main+0x1b86>
    4c8a: a5 15        	lda	$15                     ; 0x2015 <main+0x1b81>
    4c8c: 69 00        	adc	#$0
    4c8e: 85 17        	sta	$17                     ; 0x2017 <main+0x1b83>
    4c90: a5 18        	lda	$18                     ; 0x2018 <main+0x1b84>
    4c92: 84 19        	sty	$19                     ; 0x2019 <main+0x1b85>
    4c94: a0 02        	ldy	#$2
    4c96: 91 14        	sta	($14),y                 ; 0x2014 <main+0x1b80>
    4c98: 85 1b        	sta	$1b                     ; 0x201b <main+0x1b87>
    4c9a: 88           	dey
    4c9b: a5 1a        	lda	$1a                     ; 0x201a <main+0x1b86>
    4c9d: 91 16        	sta	($16),y                 ; 0x2016 <main+0x1b82>
    4c9f: 18           	clc
    4ca0: a5 1b        	lda	$1b                     ; 0x201b <main+0x1b87>
    4ca2: 69 04        	adc	#$4
    4ca4: a8           	tay
    4ca5: a5 1a        	lda	$1a                     ; 0x201a <main+0x1b86>
    4ca7: 69 00        	adc	#$0
    4ca9: 84 1a        	sty	$1a                     ; 0x201a <main+0x1b86>
    4cab: 85 1b        	sta	$1b                     ; 0x201b <main+0x1b87>
    4cad: a5 1e        	lda	$1e                     ; 0x201e <main+0x1b8a>
    4caf: 18           	clc
    4cb0: 69 04        	adc	#$4
    4cb2: 85 1c        	sta	$1c                     ; 0x201c <main+0x1b88>
    4cb4: a5 15        	lda	$15                     ; 0x2015 <main+0x1b81>
    4cb6: 69 00        	adc	#$0
    4cb8: 85 1d        	sta	$1d                     ; 0x201d <main+0x1b89>
    4cba: a0 04        	ldy	#$4
    4cbc: b1 18        	lda	($18),y                 ; 0x2018 <main+0x1b84>
    4cbe: 85 18        	sta	$18                     ; 0x2018 <main+0x1b84>
    4cc0: 85 1f        	sta	$1f                     ; 0x201f <main+0x1b8b>
    4cc2: a0 01        	ldy	#$1
    4cc4: b1 1a        	lda	($1a),y                 ; 0x201a <main+0x1b86>
    4cc6: 85 19        	sta	$19                     ; 0x2019 <main+0x1b85>
    4cc8: 85 1b        	sta	$1b                     ; 0x201b <main+0x1b87>
    4cca: a0 04        	ldy	#$4
    4ccc: a5 1f        	lda	$1f                     ; 0x201f <main+0x1b8b>
    4cce: 91 14        	sta	($14),y                 ; 0x2014 <main+0x1b80>
    4cd0: a5 1b        	lda	$1b                     ; 0x201b <main+0x1b87>
    4cd2: a0 01        	ldy	#$1
    4cd4: 91 1c        	sta	($1c),y                 ; 0x201c <main+0x1b88>
    4cd6: 18           	clc
    4cd7: a5 1f        	lda	$1f                     ; 0x201f <main+0x1b8b>
    4cd9: 69 02        	adc	#$2
    4cdb: 85 1a        	sta	$1a                     ; 0x201a <main+0x1b86>
    4cdd: a5 1b        	lda	$1b                     ; 0x201b <main+0x1b87>
    4cdf: 69 00        	adc	#$0
    4ce1: 85 1b        	sta	$1b                     ; 0x201b <main+0x1b87>
    4ce3: a5 1e        	lda	$1e                     ; 0x201e <main+0x1b8a>
    4ce5: c8           	iny
    4ce6: 91 18        	sta	($18),y                 ; 0x2018 <main+0x1b84>
    4ce8: a5 15        	lda	$15                     ; 0x2015 <main+0x1b81>
    4cea: 88           	dey
    4ceb: 91 1a        	sta	($1a),y                 ; 0x201a <main+0x1b86>
    4ced: c8           	iny
    4cee: b1 14        	lda	($14),y                 ; 0x2014 <main+0x1b80>
    4cf0: 85 14        	sta	$14                     ; 0x2014 <main+0x1b80>
    4cf2: 85 18        	sta	$18                     ; 0x2018 <main+0x1b84>
    4cf4: 88           	dey
    4cf5: b1 16        	lda	($16),y                 ; 0x2016 <main+0x1b82>
    4cf7: 85 15        	sta	$15                     ; 0x2015 <main+0x1b81>
    4cf9: 85 16        	sta	$16                     ; 0x2016 <main+0x1b82>
    4cfb: a5 1e        	lda	$1e                     ; 0x201e <main+0x1b8a>
    4cfd: a0 04        	ldy	#$4
    4cff: 91 14        	sta	($14),y                 ; 0x2014 <main+0x1b80>
    4d01: 18           	clc
    4d02: a5 18        	lda	$18                     ; 0x2018 <main+0x1b84>
    4d04: 69 04        	adc	#$4
    4d06: 85 14        	sta	$14                     ; 0x2014 <main+0x1b80>
    4d08: a5 16        	lda	$16                     ; 0x2016 <main+0x1b82>
    4d0a: 69 00        	adc	#$0
    4d0c: 85 15        	sta	$15                     ; 0x2015 <main+0x1b81>
    4d0e: 8a           	txa
    4d0f: a0 01        	ldy	#$1
    4d11: 91 14        	sta	($14),y                 ; 0x2014 <main+0x1b80>
    4d13: a2 39        	ldx	#$39
    4d15: 86 14        	stx	$14                     ; 0x2014 <main+0x1b80>
    4d17: a2 00        	ldx	#$0
    4d19: 86 15        	stx	$15                     ; 0x2015 <main+0x1b81>
    4d1b: 64 3a        	stz	$3a                     ; 0x203a <main+0x1ba6>
    4d1d: 20 00 ff     	jsr	$ff00 <end_block9+0x5b90>
    4d20: 92 12        	sta	($12)                   ; 0x2012 <main+0x1b7e>
    4d22: a9 00        	lda	#$0
    4d24: 6a           	ror
    4d25: 85 14        	sta	$14                     ; 0x2014 <main+0x1b80>
    4d27: a6 3a        	ldx	$3a                     ; 0x203a <main+0x1ba6>
    4d29: e0 32        	cpx	#$32
    4d2b: f0 04        	beq	$4d31 <main+0x489d>
    4d2d: e0 38        	cpx	#$38
    4d2f: d0 ea        	bne	$4d1b <main+0x4887>
    4d31: 78           	sei
    4d32: a2 07        	ldx	#$7
    4d34: 86 0f        	stx	$f                      ; 0x200f <main+0x1b7b>
    4d36: a2 de        	ldx	#$de
    4d38: 8e a2 d6     	stx	$d6a2                   ; 0xd6a2 <end_block9+0x3332>
    4d3b: a2 ad        	ldx	#$ad
    4d3d: 8e a3 d6     	stx	$d6a3                   ; 0xd6a3 <end_block9+0x3333>
    4d40: a2 f0        	ldx	#$f0
    4d42: 8e a0 d6     	stx	$d6a0                   ; 0xd6a0 <end_block9+0x3330>
    4d45: 9c a0 d6     	stz	$d6a0                   ; 0xd6a0 <end_block9+0x3330>
    4d48: 6c fc ff     	jmp	($fffc)                 ; 0xfffc <end_block9+0x5c8c>
    4d4b: a2 00        	ldx	#$0
    4d4d: 8a           	txa
    4d4e: 85 20        	sta	$20                     ; 0x2020 <main+0x1b8c>
    4d50: a0 08        	ldy	#$8
    4d52: b1 10        	lda	($10),y                 ; 0x2010 <main+0x1b7c>
    4d54: 85 2f        	sta	$2f                     ; 0x202f <main+0x1b9b>
    4d56: c8           	iny
    4d57: b1 10        	lda	($10),y                 ; 0x2010 <main+0x1b7c>
    4d59: 85 2e        	sta	$2e                     ; 0x202e <main+0x1b9a>
    4d5b: c8           	iny
    4d5c: b1 10        	lda	($10),y                 ; 0x2010 <main+0x1b7c>
    4d5e: 85 2d        	sta	$2d                     ; 0x202d <main+0x1b99>
    4d60: c8           	iny
    4d61: b1 10        	lda	($10),y                 ; 0x2010 <main+0x1b7c>
    4d63: 85 2c        	sta	$2c                     ; 0x202c <main+0x1b98>
    4d65: c8           	iny
    4d66: b1 10        	lda	($10),y                 ; 0x2010 <main+0x1b7c>
    4d68: 85 2b        	sta	$2b                     ; 0x202b <main+0x1b97>
    4d6a: c8           	iny
    4d6b: b1 10        	lda	($10),y                 ; 0x2010 <main+0x1b7c>
    4d6d: 85 2a        	sta	$2a                     ; 0x202a <main+0x1b96>
    4d6f: c8           	iny
    4d70: b1 10        	lda	($10),y                 ; 0x2010 <main+0x1b7c>
    4d72: 85 29        	sta	$29                     ; 0x2029 <main+0x1b95>
    4d74: c8           	iny
    4d75: b1 10        	lda	($10),y                 ; 0x2010 <main+0x1b7c>
    4d77: 85 28        	sta	$28                     ; 0x2028 <main+0x1b94>
    4d79: 7a           	ply
    4d7a: 84 27        	sty	$27                     ; 0x2027 <main+0x1b93>
    4d7c: 7a           	ply
    4d7d: 84 26        	sty	$26                     ; 0x2026 <main+0x1b92>
    4d7f: 7a           	ply
    4d80: 84 25        	sty	$25                     ; 0x2025 <main+0x1b91>
    4d82: 7a           	ply
    4d83: 84 24        	sty	$24                     ; 0x2024 <main+0x1b90>
    4d85: 18           	clc
    4d86: a5 10        	lda	$10                     ; 0x2010 <main+0x1b7c>
    4d88: 69 77        	adc	#$77
    4d8a: 85 10        	sta	$10                     ; 0x2010 <main+0x1b7c>
    4d8c: a5 11        	lda	$11                     ; 0x2011 <main+0x1b7d>
    4d8e: 69 20        	adc	#$20
    4d90: 85 11        	sta	$11                     ; 0x2011 <main+0x1b7d>
    4d92: a5 20        	lda	$20                     ; 0x2020 <main+0x1b8c>
    4d94: 60           	rts
    4d95: a0 0e        	ldy	#$e
    4d97: a2 11        	ldx	#$11
    4d99: 4c 2a 22     	jmp	$222a <main+0x1d96>
    4d9c: a0 0e        	ldy	#$e
    4d9e: a2 11        	ldx	#$11
    4da0: 4c 92 22     	jmp	$2292 <main+0x1dfe>
    4da3: a2 10        	ldx	#$10
    4da5: a0 0f        	ldy	#$f
    4da7: 4c 2a 22     	jmp	$222a <main+0x1d96>
    4daa: a2 10        	ldx	#$10
    4dac: a0 0f        	ldy	#$f
    4dae: 4c 92 22     	jmp	$2292 <main+0x1dfe>
    4db1: a0 10        	ldy	#$10
    4db3: a2 0f        	ldx	#$f
    4db5: 4c 2a 22     	jmp	$222a <main+0x1d96>
    4db8: a0 10        	ldy	#$10
    4dba: a2 0f        	ldx	#$f
    4dbc: 4c 92 22     	jmp	$2292 <main+0x1dfe>
    4dbf: a2 0e        	ldx	#$e
    4dc1: a0 11        	ldy	#$11
    4dc3: 4c 2a 22     	jmp	$222a <main+0x1d96>
    4dc6: a2 0e        	ldx	#$e
    4dc8: a0 11        	ldy	#$11
    4dca: 4c 92 22     	jmp	$2292 <main+0x1dfe>
    4dcd: a0 12        	ldy	#$12
    4dcf: a2 0d        	ldx	#$d
    4dd1: 4c 2a 22     	jmp	$222a <main+0x1d96>
    4dd4: a0 12        	ldy	#$12
    4dd6: a2 0d        	ldx	#$d
    4dd8: 4c 92 22     	jmp	$2292 <main+0x1dfe>
    4ddb: a0 13        	ldy	#$13
    4ddd: a2 0c        	ldx	#$c
    4ddf: 4c 2a 22     	jmp	$222a <main+0x1d96>
    4de2: a0 13        	ldy	#$13
    4de4: a2 0c        	ldx	#$c
    4de6: 4c 92 22     	jmp	$2292 <main+0x1dfe>
    4de9: a0 14        	ldy	#$14
    4deb: a2 0b        	ldx	#$b
    4ded: 4c 2a 22     	jmp	$222a <main+0x1d96>
    4df0: a0 14        	ldy	#$14
    4df2: a2 0b        	ldx	#$b
    4df4: 4c 92 22     	jmp	$2292 <main+0x1dfe>
    4df7: a0 15        	ldy	#$15
    4df9: a2 0a        	ldx	#$a
    4dfb: 4c 2a 22     	jmp	$222a <main+0x1d96>
    4dfe: a0 15        	ldy	#$15
    4e00: a2 0a        	ldx	#$a
    4e02: 4c 92 22     	jmp	$2292 <main+0x1dfe>
    4e05: a0 16        	ldy	#$16
    4e07: a2 09        	ldx	#$9
    4e09: 4c 2a 22     	jmp	$222a <main+0x1d96>
    4e0c: a0 16        	ldy	#$16
    4e0e: a2 09        	ldx	#$9
    4e10: 4c 92 22     	jmp	$2292 <main+0x1dfe>
    4e13: a0 17        	ldy	#$17
    4e15: a2 08        	ldx	#$8
    4e17: 4c 2a 22     	jmp	$222a <main+0x1d96>
    4e1a: a0 17        	ldy	#$17
    4e1c: a2 08        	ldx	#$8
    4e1e: 4c 92 22     	jmp	$2292 <main+0x1dfe>
    4e21: a0 18        	ldy	#$18
    4e23: a2 07        	ldx	#$7
    4e25: 4c 2a 22     	jmp	$222a <main+0x1d96>
    4e28: a0 18        	ldy	#$18
    4e2a: a2 07        	ldx	#$7
    4e2c: 4c 92 22     	jmp	$2292 <main+0x1dfe>
    4e2f: a0 19        	ldy	#$19
    4e31: a2 06        	ldx	#$6
    4e33: 4c 2a 22     	jmp	$222a <main+0x1d96>
    4e36: a0 19        	ldy	#$19
    4e38: a2 06        	ldx	#$6
    4e3a: 4c 92 22     	jmp	$2292 <main+0x1dfe>
    4e3d: a0 1a        	ldy	#$1a
    4e3f: a2 05        	ldx	#$5
    4e41: 4c 2a 22     	jmp	$222a <main+0x1d96>
    4e44: a0 1a        	ldy	#$1a
    4e46: a2 05        	ldx	#$5
    4e48: 4c 92 22     	jmp	$2292 <main+0x1dfe>
    4e4b: a0 1b        	ldy	#$1b
    4e4d: a2 04        	ldx	#$4
    4e4f: 80 22        	bra	$4e73 <main+0x49df>
    4e51: a0 1b        	ldy	#$1b
    4e53: a2 04        	ldx	#$4
    4e55: 80 27        	bra	$4e7e <main+0x49ea>
    4e57: a0 1c        	ldy	#$1c
    4e59: a2 03        	ldx	#$3
    4e5b: 80 16        	bra	$4e73 <main+0x49df>
    4e5d: a0 1c        	ldy	#$1c
    4e5f: a2 03        	ldx	#$3
    4e61: 80 1b        	bra	$4e7e <main+0x49ea>
    4e63: a0 1d        	ldy	#$1d
    4e65: a2 02        	ldx	#$2
    4e67: 80 0a        	bra	$4e73 <main+0x49df>
    4e69: a0 1d        	ldy	#$1d
    4e6b: a2 02        	ldx	#$2
    4e6d: 80 0f        	bra	$4e7e <main+0x49ea>
    4e6f: a0 1e        	ldy	#$1e
    4e71: a2 01        	ldx	#$1
    4e73: 84 12        	sty	$12                     ; 0x2012 <main+0x1b7e>
    4e75: 64 24        	stz	$24                     ; 0x2024 <main+0x1b90>
    4e77: 4c 2c 22     	jmp	$222c <main+0x1d98>
    4e7a: a0 1e        	ldy	#$1e
    4e7c: a2 01        	ldx	#$1
    4e7e: 84 12        	sty	$12                     ; 0x2012 <main+0x1b7e>
    4e80: 64 24        	stz	$24                     ; 0x2024 <main+0x1b90>
    4e82: 4c 94 22     	jmp	$2294 <main+0x1e00>

00004e85 <textPrint>:
    4e85: a6 01        	ldx	$1                      ; 0x2001 <main+0x1b6d>
    4e87: 86 1c        	stx	$1c                     ; 0x201c <main+0x1b88>
    4e89: a6 34        	ldx	$34                     ; 0x2034 <main+0x1ba0>
    4e8b: a0 50        	ldy	#$50
    4e8d: 8c 00 de     	sty	$de00                   ; 0xde00 <end_block9+0x3a90>
    4e90: 9c 01 de     	stz	$de01                   ; 0xde01 <end_block9+0x3a91>
    4e93: 8e 02 de     	stx	$de02                   ; 0xde02 <end_block9+0x3a92>
    4e96: 9c 03 de     	stz	$de03                   ; 0xde03 <end_block9+0x3a93>
    4e99: ae 10 de     	ldx	$de10                   ; 0xde10 <end_block9+0x3aa0>
    4e9c: ac 11 de     	ldy	$de11                   ; 0xde11 <end_block9+0x3aa1>
    4e9f: 84 15        	sty	$15                     ; 0x2015 <main+0x1b81>
    4ea1: ad 12 de     	lda	$de12                   ; 0xde12 <end_block9+0x3aa2>
    4ea4: ac 13 de     	ldy	$de13                   ; 0xde13 <end_block9+0x3aa3>
    4ea7: 84 18        	sty	$18                     ; 0x2018 <main+0x1b84>
    4ea9: 9c 08 de     	stz	$de08                   ; 0xde08 <end_block9+0x3a98>
    4eac: a0 c0        	ldy	#$c0
    4eae: 8c 09 de     	sty	$de09                   ; 0xde09 <end_block9+0x3a99>
    4eb1: 9c 0a de     	stz	$de0a                   ; 0xde0a <end_block9+0x3a9a>
    4eb4: 9c 0b de     	stz	$de0b                   ; 0xde0b <end_block9+0x3a9b>
    4eb7: 8e 0c de     	stx	$de0c                   ; 0xde0c <end_block9+0x3a9c>
    4eba: 64 14        	stz	$14                     ; 0x2014 <main+0x1b80>
    4ebc: a2 00        	ldx	#$0
    4ebe: 86 16        	stx	$16                     ; 0x2016 <main+0x1b82>
    4ec0: a2 c0        	ldx	#$c0
    4ec2: 86 17        	stx	$17                     ; 0x2017 <main+0x1b83>
    4ec4: a6 15        	ldx	$15                     ; 0x2015 <main+0x1b81>
    4ec6: 8e 0d de     	stx	$de0d                   ; 0xde0d <end_block9+0x3a9d>
    4ec9: 8d 0e de     	sta	$de0e                   ; 0xde0e <end_block9+0x3a9e>
    4ecc: a6 18        	ldx	$18                     ; 0x2018 <main+0x1b84>
    4ece: 8e 0f de     	stx	$de0f                   ; 0xde0f <end_block9+0x3a9f>
    4ed1: ac 18 de     	ldy	$de18                   ; 0xde18 <end_block9+0x3aa8>
    4ed4: ad 19 de     	lda	$de19                   ; 0xde19 <end_block9+0x3aa9>
    4ed7: ae 1a de     	ldx	$de1a                   ; 0xde1a <end_block9+0x3aaa>
    4eda: ae 1b de     	ldx	$de1b                   ; 0xde1b <end_block9+0x3aab>
    4edd: 84 18        	sty	$18                     ; 0x2018 <main+0x1b84>
    4edf: 85 19        	sta	$19                     ; 0x2019 <main+0x1b85>
    4ee1: 64 15        	stz	$15                     ; 0x2015 <main+0x1b81>
    4ee3: a2 20        	ldx	#$20
    4ee5: 4c 89 51     	jmp	$5189 <textPrint+0x304>
    4ee8: a5 1a        	lda	$1a                     ; 0x201a <main+0x1b86>
    4eea: f0 1c        	beq	$4f08 <textPrint+0x83>
    4eec: b1 18        	lda	($18),y                 ; 0x2018 <main+0x1b84>
    4eee: 92 18        	sta	($18)                   ; 0x2018 <main+0x1b84>
    4ef0: a9 ff        	lda	#$ff
    4ef2: c6 1b        	dec	$1b                     ; 0x201b <main+0x1b87>
    4ef4: c5 1b        	cmp	$1b                     ; 0x201b <main+0x1b87>
    4ef6: f0 06        	beq	$4efe <textPrint+0x79>
    4ef8: e6 18        	inc	$18                     ; 0x2018 <main+0x1b84>
    4efa: d0 ec        	bne	$4ee8 <textPrint+0x63>
    4efc: 80 06        	bra	$4f04 <textPrint+0x7f>
    4efe: c6 1a        	dec	$1a                     ; 0x201a <main+0x1b86>
    4f00: e6 18        	inc	$18                     ; 0x2018 <main+0x1b84>
    4f02: d0 e4        	bne	$4ee8 <textPrint+0x63>
    4f04: e6 19        	inc	$19                     ; 0x2019 <main+0x1b85>
    4f06: 80 e0        	bra	$4ee8 <textPrint+0x63>
    4f08: a5 1b        	lda	$1b                     ; 0x201b <main+0x1b87>
    4f0a: d0 e0        	bne	$4eec <textPrint+0x67>
    4f0c: a9 02        	lda	#$2
    4f0e: 85 01        	sta	$1                      ; 0x2001 <main+0x1b6d>
    4f10: a9 10        	lda	#$10
    4f12: 5a           	phy
    4f13: a0 00        	ldy	#$0
    4f15: 84 18        	sty	$18                     ; 0x2018 <main+0x1b84>
    4f17: a0 c0        	ldy	#$c0
    4f19: 84 19        	sty	$19                     ; 0x2019 <main+0x1b85>
    4f1b: 7a           	ply
    4f1c: 85 1b        	sta	$1b                     ; 0x201b <main+0x1b87>
    4f1e: a9 09        	lda	#$9
    4f20: 85 1a        	sta	$1a                     ; 0x201a <main+0x1b86>
    4f22: 80 04        	bra	$4f28 <textPrint+0xa3>
    4f24: a5 1a        	lda	$1a                     ; 0x201a <main+0x1b86>
    4f26: f0 1c        	beq	$4f44 <textPrint+0xbf>
    4f28: b1 18        	lda	($18),y                 ; 0x2018 <main+0x1b84>
    4f2a: 92 18        	sta	($18)                   ; 0x2018 <main+0x1b84>
    4f2c: a9 ff        	lda	#$ff
    4f2e: c6 1b        	dec	$1b                     ; 0x201b <main+0x1b87>
    4f30: c5 1b        	cmp	$1b                     ; 0x201b <main+0x1b87>
    4f32: f0 06        	beq	$4f3a <textPrint+0xb5>
    4f34: e6 18        	inc	$18                     ; 0x2018 <main+0x1b84>
    4f36: d0 ec        	bne	$4f24 <textPrint+0x9f>
    4f38: 80 06        	bra	$4f40 <textPrint+0xbb>
    4f3a: c6 1a        	dec	$1a                     ; 0x201a <main+0x1b86>
    4f3c: e6 18        	inc	$18                     ; 0x2018 <main+0x1b84>
    4f3e: d0 e4        	bne	$4f24 <textPrint+0x9f>
    4f40: e6 19        	inc	$19                     ; 0x2019 <main+0x1b85>
    4f42: 80 e0        	bra	$4f24 <textPrint+0x9f>
    4f44: a5 1b        	lda	$1b                     ; 0x201b <main+0x1b87>
    4f46: d0 e0        	bne	$4f28 <textPrint+0xa3>
    4f48: a0 02        	ldy	#$2
    4f4a: 84 01        	sty	$1                      ; 0x2001 <main+0x1b6d>
    4f4c: c8           	iny
    4f4d: 84 01        	sty	$1                      ; 0x2001 <main+0x1b6d>
    4f4f: a5 32        	lda	$32                     ; 0x2032 <main+0x1b9e>
    4f51: 29 01        	and	#$1
    4f53: a8           	tay
    4f54: a9 50        	lda	#$50
    4f56: c0 00        	cpy	#$0
    4f58: d0 02        	bne	$4f5c <textPrint+0xd7>
    4f5a: a9 f0        	lda	#$f0
    4f5c: 8d 10 c9     	sta	$c910                   ; 0xc910 <end_block9+0x25a0>
    4f5f: 8d 11 c9     	sta	$c911                   ; 0xc911 <end_block9+0x25a1>
    4f62: 8d 12 c9     	sta	$c912                   ; 0xc912 <end_block9+0x25a2>
    4f65: 8d 13 c9     	sta	$c913                   ; 0xc913 <end_block9+0x25a3>
    4f68: 8d 14 c9     	sta	$c914                   ; 0xc914 <end_block9+0x25a4>
    4f6b: 8d 15 c9     	sta	$c915                   ; 0xc915 <end_block9+0x25a5>
    4f6e: 8d 16 c9     	sta	$c916                   ; 0xc916 <end_block9+0x25a6>
    4f71: 8d 17 c9     	sta	$c917                   ; 0xc917 <end_block9+0x25a7>
    4f74: 8d 18 c9     	sta	$c918                   ; 0xc918 <end_block9+0x25a8>
    4f77: 8d 19 c9     	sta	$c919                   ; 0xc919 <end_block9+0x25a9>
    4f7a: 8d 1a c9     	sta	$c91a                   ; 0xc91a <end_block9+0x25aa>
    4f7d: 8d 1b c9     	sta	$c91b                   ; 0xc91b <end_block9+0x25ab>
    4f80: 8d 1c c9     	sta	$c91c                   ; 0xc91c <end_block9+0x25ac>
    4f83: 8d 1d c9     	sta	$c91d                   ; 0xc91d <end_block9+0x25ad>
    4f86: 8d 1e c9     	sta	$c91e                   ; 0xc91e <end_block9+0x25ae>
    4f89: 8d 1f c9     	sta	$c91f                   ; 0xc91f <end_block9+0x25af>
    4f8c: 8d 20 c9     	sta	$c920                   ; 0xc920 <end_block9+0x25b0>
    4f8f: 8d 21 c9     	sta	$c921                   ; 0xc921 <end_block9+0x25b1>
    4f92: 8d 22 c9     	sta	$c922                   ; 0xc922 <end_block9+0x25b2>
    4f95: 8d 23 c9     	sta	$c923                   ; 0xc923 <end_block9+0x25b3>
    4f98: 8d 24 c9     	sta	$c924                   ; 0xc924 <end_block9+0x25b4>
    4f9b: 8d 25 c9     	sta	$c925                   ; 0xc925 <end_block9+0x25b5>
    4f9e: 8d 26 c9     	sta	$c926                   ; 0xc926 <end_block9+0x25b6>
    4fa1: 8d 27 c9     	sta	$c927                   ; 0xc927 <end_block9+0x25b7>
    4fa4: 8d 28 c9     	sta	$c928                   ; 0xc928 <end_block9+0x25b8>
    4fa7: 8d 29 c9     	sta	$c929                   ; 0xc929 <end_block9+0x25b9>
    4faa: 8d 2a c9     	sta	$c92a                   ; 0xc92a <end_block9+0x25ba>
    4fad: 8d 2b c9     	sta	$c92b                   ; 0xc92b <end_block9+0x25bb>
    4fb0: 8d 2c c9     	sta	$c92c                   ; 0xc92c <end_block9+0x25bc>
    4fb3: 8d 2d c9     	sta	$c92d                   ; 0xc92d <end_block9+0x25bd>
    4fb6: 8d 2e c9     	sta	$c92e                   ; 0xc92e <end_block9+0x25be>
    4fb9: 8d 2f c9     	sta	$c92f                   ; 0xc92f <end_block9+0x25bf>
    4fbc: 8d 30 c9     	sta	$c930                   ; 0xc930 <end_block9+0x25c0>
    4fbf: 8d 31 c9     	sta	$c931                   ; 0xc931 <end_block9+0x25c1>
    4fc2: 8d 32 c9     	sta	$c932                   ; 0xc932 <end_block9+0x25c2>
    4fc5: 8d 33 c9     	sta	$c933                   ; 0xc933 <end_block9+0x25c3>
    4fc8: 8d 34 c9     	sta	$c934                   ; 0xc934 <end_block9+0x25c4>
    4fcb: 8d 35 c9     	sta	$c935                   ; 0xc935 <end_block9+0x25c5>
    4fce: 8d 36 c9     	sta	$c936                   ; 0xc936 <end_block9+0x25c6>
    4fd1: 8d 37 c9     	sta	$c937                   ; 0xc937 <end_block9+0x25c7>
    4fd4: 8d 38 c9     	sta	$c938                   ; 0xc938 <end_block9+0x25c8>
    4fd7: 8d 39 c9     	sta	$c939                   ; 0xc939 <end_block9+0x25c9>
    4fda: 8d 3a c9     	sta	$c93a                   ; 0xc93a <end_block9+0x25ca>
    4fdd: 8d 3b c9     	sta	$c93b                   ; 0xc93b <end_block9+0x25cb>
    4fe0: 8d 3c c9     	sta	$c93c                   ; 0xc93c <end_block9+0x25cc>
    4fe3: 8d 3d c9     	sta	$c93d                   ; 0xc93d <end_block9+0x25cd>
    4fe6: 8d 3e c9     	sta	$c93e                   ; 0xc93e <end_block9+0x25ce>
    4fe9: 8d 3f c9     	sta	$c93f                   ; 0xc93f <end_block9+0x25cf>
    4fec: 8d 40 c9     	sta	$c940                   ; 0xc940 <end_block9+0x25d0>
    4fef: 8d 41 c9     	sta	$c941                   ; 0xc941 <end_block9+0x25d1>
    4ff2: 8d 42 c9     	sta	$c942                   ; 0xc942 <end_block9+0x25d2>
    4ff5: 8d 43 c9     	sta	$c943                   ; 0xc943 <end_block9+0x25d3>
    4ff8: 8d 44 c9     	sta	$c944                   ; 0xc944 <end_block9+0x25d4>
    4ffb: 8d 45 c9     	sta	$c945                   ; 0xc945 <end_block9+0x25d5>
    4ffe: 8d 46 c9     	sta	$c946                   ; 0xc946 <end_block9+0x25d6>
    5001: 8d 47 c9     	sta	$c947                   ; 0xc947 <end_block9+0x25d7>
    5004: 8d 48 c9     	sta	$c948                   ; 0xc948 <end_block9+0x25d8>
    5007: 8d 49 c9     	sta	$c949                   ; 0xc949 <end_block9+0x25d9>
    500a: 8d 4a c9     	sta	$c94a                   ; 0xc94a <end_block9+0x25da>
    500d: 8d 4b c9     	sta	$c94b                   ; 0xc94b <end_block9+0x25db>
    5010: 8d 4c c9     	sta	$c94c                   ; 0xc94c <end_block9+0x25dc>
    5013: 8d 4d c9     	sta	$c94d                   ; 0xc94d <end_block9+0x25dd>
    5016: 8d 4e c9     	sta	$c94e                   ; 0xc94e <end_block9+0x25de>
    5019: 8d 4f c9     	sta	$c94f                   ; 0xc94f <end_block9+0x25df>
    501c: 8d 50 c9     	sta	$c950                   ; 0xc950 <end_block9+0x25e0>
    501f: 8d 51 c9     	sta	$c951                   ; 0xc951 <end_block9+0x25e1>
    5022: 8d 52 c9     	sta	$c952                   ; 0xc952 <end_block9+0x25e2>
    5025: 8d 53 c9     	sta	$c953                   ; 0xc953 <end_block9+0x25e3>
    5028: 8d 54 c9     	sta	$c954                   ; 0xc954 <end_block9+0x25e4>
    502b: 8d 55 c9     	sta	$c955                   ; 0xc955 <end_block9+0x25e5>
    502e: 8d 56 c9     	sta	$c956                   ; 0xc956 <end_block9+0x25e6>
    5031: 8d 57 c9     	sta	$c957                   ; 0xc957 <end_block9+0x25e7>
    5034: 8d 58 c9     	sta	$c958                   ; 0xc958 <end_block9+0x25e8>
    5037: 8d 59 c9     	sta	$c959                   ; 0xc959 <end_block9+0x25e9>
    503a: 8d 5a c9     	sta	$c95a                   ; 0xc95a <end_block9+0x25ea>
    503d: 8d 5b c9     	sta	$c95b                   ; 0xc95b <end_block9+0x25eb>
    5040: 8d 5c c9     	sta	$c95c                   ; 0xc95c <end_block9+0x25ec>
    5043: 8d 5d c9     	sta	$c95d                   ; 0xc95d <end_block9+0x25ed>
    5046: 8d 5e c9     	sta	$c95e                   ; 0xc95e <end_block9+0x25ee>
    5049: 8d 5f c9     	sta	$c95f                   ; 0xc95f <end_block9+0x25ef>
    504c: a0 02        	ldy	#$2
    504e: 84 01        	sty	$1                      ; 0x2001 <main+0x1b6d>
    5050: 8e 10 c9     	stx	$c910                   ; 0xc910 <end_block9+0x25a0>
    5053: 8e 11 c9     	stx	$c911                   ; 0xc911 <end_block9+0x25a1>
    5056: 8e 12 c9     	stx	$c912                   ; 0xc912 <end_block9+0x25a2>
    5059: 8e 13 c9     	stx	$c913                   ; 0xc913 <end_block9+0x25a3>
    505c: 8e 14 c9     	stx	$c914                   ; 0xc914 <end_block9+0x25a4>
    505f: 8e 15 c9     	stx	$c915                   ; 0xc915 <end_block9+0x25a5>
    5062: 8e 16 c9     	stx	$c916                   ; 0xc916 <end_block9+0x25a6>
    5065: 8e 17 c9     	stx	$c917                   ; 0xc917 <end_block9+0x25a7>
    5068: 8e 18 c9     	stx	$c918                   ; 0xc918 <end_block9+0x25a8>
    506b: 8e 19 c9     	stx	$c919                   ; 0xc919 <end_block9+0x25a9>
    506e: 8e 1a c9     	stx	$c91a                   ; 0xc91a <end_block9+0x25aa>
    5071: 8e 1b c9     	stx	$c91b                   ; 0xc91b <end_block9+0x25ab>
    5074: 8e 1c c9     	stx	$c91c                   ; 0xc91c <end_block9+0x25ac>
    5077: 8e 1d c9     	stx	$c91d                   ; 0xc91d <end_block9+0x25ad>
    507a: 8e 1e c9     	stx	$c91e                   ; 0xc91e <end_block9+0x25ae>
    507d: 8e 1f c9     	stx	$c91f                   ; 0xc91f <end_block9+0x25af>
    5080: 8e 20 c9     	stx	$c920                   ; 0xc920 <end_block9+0x25b0>
    5083: 8e 21 c9     	stx	$c921                   ; 0xc921 <end_block9+0x25b1>
    5086: 8e 22 c9     	stx	$c922                   ; 0xc922 <end_block9+0x25b2>
    5089: 8e 23 c9     	stx	$c923                   ; 0xc923 <end_block9+0x25b3>
    508c: 8e 24 c9     	stx	$c924                   ; 0xc924 <end_block9+0x25b4>
    508f: 8e 25 c9     	stx	$c925                   ; 0xc925 <end_block9+0x25b5>
    5092: 8e 26 c9     	stx	$c926                   ; 0xc926 <end_block9+0x25b6>
    5095: 8e 27 c9     	stx	$c927                   ; 0xc927 <end_block9+0x25b7>
    5098: 8e 28 c9     	stx	$c928                   ; 0xc928 <end_block9+0x25b8>
    509b: 8e 29 c9     	stx	$c929                   ; 0xc929 <end_block9+0x25b9>
    509e: 8e 2a c9     	stx	$c92a                   ; 0xc92a <end_block9+0x25ba>
    50a1: 8e 2b c9     	stx	$c92b                   ; 0xc92b <end_block9+0x25bb>
    50a4: 8e 2c c9     	stx	$c92c                   ; 0xc92c <end_block9+0x25bc>
    50a7: 8e 2d c9     	stx	$c92d                   ; 0xc92d <end_block9+0x25bd>
    50aa: 8e 2e c9     	stx	$c92e                   ; 0xc92e <end_block9+0x25be>
    50ad: 8e 2f c9     	stx	$c92f                   ; 0xc92f <end_block9+0x25bf>
    50b0: 8e 30 c9     	stx	$c930                   ; 0xc930 <end_block9+0x25c0>
    50b3: 8e 31 c9     	stx	$c931                   ; 0xc931 <end_block9+0x25c1>
    50b6: 8e 32 c9     	stx	$c932                   ; 0xc932 <end_block9+0x25c2>
    50b9: 8e 33 c9     	stx	$c933                   ; 0xc933 <end_block9+0x25c3>
    50bc: 8e 34 c9     	stx	$c934                   ; 0xc934 <end_block9+0x25c4>
    50bf: 8e 35 c9     	stx	$c935                   ; 0xc935 <end_block9+0x25c5>
    50c2: 8e 36 c9     	stx	$c936                   ; 0xc936 <end_block9+0x25c6>
    50c5: 8e 37 c9     	stx	$c937                   ; 0xc937 <end_block9+0x25c7>
    50c8: 8e 38 c9     	stx	$c938                   ; 0xc938 <end_block9+0x25c8>
    50cb: 8e 39 c9     	stx	$c939                   ; 0xc939 <end_block9+0x25c9>
    50ce: 8e 3a c9     	stx	$c93a                   ; 0xc93a <end_block9+0x25ca>
    50d1: 8e 3b c9     	stx	$c93b                   ; 0xc93b <end_block9+0x25cb>
    50d4: 8e 3c c9     	stx	$c93c                   ; 0xc93c <end_block9+0x25cc>
    50d7: 8e 3d c9     	stx	$c93d                   ; 0xc93d <end_block9+0x25cd>
    50da: 8e 3e c9     	stx	$c93e                   ; 0xc93e <end_block9+0x25ce>
    50dd: 8e 3f c9     	stx	$c93f                   ; 0xc93f <end_block9+0x25cf>
    50e0: 8e 40 c9     	stx	$c940                   ; 0xc940 <end_block9+0x25d0>
    50e3: 8e 41 c9     	stx	$c941                   ; 0xc941 <end_block9+0x25d1>
    50e6: 8e 42 c9     	stx	$c942                   ; 0xc942 <end_block9+0x25d2>
    50e9: 8e 43 c9     	stx	$c943                   ; 0xc943 <end_block9+0x25d3>
    50ec: 8e 44 c9     	stx	$c944                   ; 0xc944 <end_block9+0x25d4>
    50ef: 8e 45 c9     	stx	$c945                   ; 0xc945 <end_block9+0x25d5>
    50f2: 8e 46 c9     	stx	$c946                   ; 0xc946 <end_block9+0x25d6>
    50f5: 8e 47 c9     	stx	$c947                   ; 0xc947 <end_block9+0x25d7>
    50f8: 8e 48 c9     	stx	$c948                   ; 0xc948 <end_block9+0x25d8>
    50fb: 8e 49 c9     	stx	$c949                   ; 0xc949 <end_block9+0x25d9>
    50fe: 8e 4a c9     	stx	$c94a                   ; 0xc94a <end_block9+0x25da>
    5101: 8e 4b c9     	stx	$c94b                   ; 0xc94b <end_block9+0x25db>
    5104: 8e 4c c9     	stx	$c94c                   ; 0xc94c <end_block9+0x25dc>
    5107: 8e 4d c9     	stx	$c94d                   ; 0xc94d <end_block9+0x25dd>
    510a: 8e 4e c9     	stx	$c94e                   ; 0xc94e <end_block9+0x25de>
    510d: 8e 4f c9     	stx	$c94f                   ; 0xc94f <end_block9+0x25df>
    5110: 8e 50 c9     	stx	$c950                   ; 0xc950 <end_block9+0x25e0>
    5113: 8e 51 c9     	stx	$c951                   ; 0xc951 <end_block9+0x25e1>
    5116: 8e 52 c9     	stx	$c952                   ; 0xc952 <end_block9+0x25e2>
    5119: 8e 53 c9     	stx	$c953                   ; 0xc953 <end_block9+0x25e3>
    511c: 8e 54 c9     	stx	$c954                   ; 0xc954 <end_block9+0x25e4>
    511f: 8e 55 c9     	stx	$c955                   ; 0xc955 <end_block9+0x25e5>
    5122: 8e 56 c9     	stx	$c956                   ; 0xc956 <end_block9+0x25e6>
    5125: 8e 57 c9     	stx	$c957                   ; 0xc957 <end_block9+0x25e7>
    5128: 8e 58 c9     	stx	$c958                   ; 0xc958 <end_block9+0x25e8>
    512b: 8e 59 c9     	stx	$c959                   ; 0xc959 <end_block9+0x25e9>
    512e: 8e 5a c9     	stx	$c95a                   ; 0xc95a <end_block9+0x25ea>
    5131: 8e 5b c9     	stx	$c95b                   ; 0xc95b <end_block9+0x25eb>
    5134: 8e 5c c9     	stx	$c95c                   ; 0xc95c <end_block9+0x25ec>
    5137: 8e 5d c9     	stx	$c95d                   ; 0xc95d <end_block9+0x25ed>
    513a: 8e 5e c9     	stx	$c95e                   ; 0xc95e <end_block9+0x25ee>
    513d: 8e 5f c9     	stx	$c95f                   ; 0xc95f <end_block9+0x25ef>
    5140: c6 34        	dec	$34                     ; 0x2034 <main+0x1ba0>
    5142: 9c 08 de     	stz	$de08                   ; 0xde08 <end_block9+0x3a98>
    5145: a0 c0        	ldy	#$c0
    5147: 8c 09 de     	sty	$de09                   ; 0xde09 <end_block9+0x3a99>
    514a: 9c 0a de     	stz	$de0a                   ; 0xde0a <end_block9+0x3a9a>
    514d: 9c 0b de     	stz	$de0b                   ; 0xde0b <end_block9+0x3a9b>
    5150: a0 1d        	ldy	#$1d
    5152: 8c 0c de     	sty	$de0c                   ; 0xde0c <end_block9+0x3a9c>
    5155: 9c 0d de     	stz	$de0d                   ; 0xde0d <end_block9+0x3a9d>
    5158: 9c 0e de     	stz	$de0e                   ; 0xde0e <end_block9+0x3a9e>
    515b: 9c 0f de     	stz	$de0f                   ; 0xde0f <end_block9+0x3a9f>
    515e: ac 18 de     	ldy	$de18                   ; 0xde18 <end_block9+0x3aa8>
    5161: ad 19 de     	lda	$de19                   ; 0xde19 <end_block9+0x3aa9>
    5164: 85 19        	sta	$19                     ; 0x2019 <main+0x1b85>
    5166: ad 1a de     	lda	$de1a                   ; 0xde1a <end_block9+0x3aaa>
    5169: 84 18        	sty	$18                     ; 0x2018 <main+0x1b84>
    516b: ac 1b de     	ldy	$de1b                   ; 0xde1b <end_block9+0x3aab>
    516e: e6 14        	inc	$14                     ; 0x2014 <main+0x1b80>
    5170: d0 02        	bne	$5174 <textPrint+0x2ef>
    5172: e6 15        	inc	$15                     ; 0x2015 <main+0x1b81>
    5174: 80 13        	bra	$5189 <textPrint+0x304>
    5176: a5 18        	lda	$18                     ; 0x2018 <main+0x1b84>
    5178: 18           	clc
    5179: 69 50        	adc	#$50
    517b: 85 18        	sta	$18                     ; 0x2018 <main+0x1b84>
    517d: a5 19        	lda	$19                     ; 0x2019 <main+0x1b85>
    517f: 69 00        	adc	#$0
    5181: 85 19        	sta	$19                     ; 0x2019 <main+0x1b85>
    5183: e6 14        	inc	$14                     ; 0x2014 <main+0x1b80>
    5185: d0 02        	bne	$5189 <textPrint+0x304>
    5187: e6 15        	inc	$15                     ; 0x2015 <main+0x1b81>
    5189: a5 12        	lda	$12                     ; 0x2012 <main+0x1b7e>
    518b: 18           	clc
    518c: 65 14        	adc	$14                     ; 0x2014 <main+0x1b80>
    518e: 85 1a        	sta	$1a                     ; 0x201a <main+0x1b86>
    5190: a5 13        	lda	$13                     ; 0x2013 <main+0x1b7f>
    5192: 65 15        	adc	$15                     ; 0x2015 <main+0x1b81>
    5194: 85 1b        	sta	$1b                     ; 0x201b <main+0x1b87>
    5196: b2 1a        	lda	($1a)                   ; 0x201a <main+0x1b86>
    5198: c9 0a        	cmp	#$a
    519a: f0 36        	beq	$51d2 <textPrint+0x34d>
    519c: c9 0d        	cmp	#$d
    519e: f0 32        	beq	$51d2 <textPrint+0x34d>
    51a0: a8           	tay
    51a1: d0 03        	bne	$51a6 <textPrint+0x321>
    51a3: 4c fb 51     	jmp	$51fb <textPrint+0x376>
    51a6: a0 03        	ldy	#$3
    51a8: 84 01        	sty	$1                      ; 0x2001 <main+0x1b6d>
    51aa: a5 32        	lda	$32                     ; 0x2032 <main+0x1b9e>
    51ac: 29 01        	and	#$1
    51ae: a0 50        	ldy	#$50
    51b0: 84 99        	sty	$99                     ; 0x2099 <main+0x1c05>
    51b2: a8           	tay
    51b3: d0 04        	bne	$51b9 <textPrint+0x334>
    51b5: a0 f0        	ldy	#$f0
    51b7: 84 99        	sty	$99                     ; 0x2099 <main+0x1c05>
    51b9: a4 33        	ldy	$33                     ; 0x2033 <main+0x1b9f>
    51bb: a5 99        	lda	$99                     ; 0x2099 <main+0x1c05>
    51bd: 91 18        	sta	($18),y                 ; 0x2018 <main+0x1b84>
    51bf: a0 02        	ldy	#$2
    51c1: 84 01        	sty	$1                      ; 0x2001 <main+0x1b6d>
    51c3: b2 1a        	lda	($1a)                   ; 0x201a <main+0x1b86>
    51c5: a4 33        	ldy	$33                     ; 0x2033 <main+0x1b9f>
    51c7: 91 18        	sta	($18),y                 ; 0x2018 <main+0x1b84>
    51c9: a4 33        	ldy	$33                     ; 0x2033 <main+0x1b9f>
    51cb: c8           	iny
    51cc: e6 33        	inc	$33                     ; 0x2033 <main+0x1b9f>
    51ce: c0 50        	cpy	#$50
    51d0: d0 b1        	bne	$5183 <textPrint+0x2fe>
    51d2: 64 33        	stz	$33                     ; 0x2033 <main+0x1b9f>
    51d4: a4 34        	ldy	$34                     ; 0x2034 <main+0x1ba0>
    51d6: c8           	iny
    51d7: e6 34        	inc	$34                     ; 0x2034 <main+0x1ba0>
    51d9: c0 1e        	cpy	#$1e
    51db: f0 03        	beq	$51e0 <textPrint+0x35b>
    51dd: 4c 76 51     	jmp	$5176 <textPrint+0x2f1>
    51e0: a0 03        	ldy	#$3
    51e2: 84 01        	sty	$1                      ; 0x2001 <main+0x1b6d>
    51e4: a0 09        	ldy	#$9
    51e6: a9 10        	lda	#$10
    51e8: 5a           	phy
    51e9: a0 00        	ldy	#$0
    51eb: 84 18        	sty	$18                     ; 0x2018 <main+0x1b84>
    51ed: a0 c0        	ldy	#$c0
    51ef: 84 19        	sty	$19                     ; 0x2019 <main+0x1b85>
    51f1: 7a           	ply
    51f2: 85 1b        	sta	$1b                     ; 0x201b <main+0x1b87>
    51f4: 84 1a        	sty	$1a                     ; 0x201a <main+0x1b86>
    51f6: a0 50        	ldy	#$50
    51f8: 4c ec 4e     	jmp	$4eec <textPrint+0x67>
    51fb: a6 1c        	ldx	$1c                     ; 0x201c <main+0x1b88>
    51fd: 86 01        	stx	$1                      ; 0x2001 <main+0x1b6d>
    51ff: a6 33        	ldx	$33                     ; 0x2033 <main+0x1b9f>
    5201: a4 34        	ldy	$34                     ; 0x2034 <main+0x1ba0>
    5203: 8e 14 d0     	stx	$d014                   ; 0xd014 <end_block9+0x2ca4>
    5206: 9c 15 d0     	stz	$d015                   ; 0xd015 <end_block9+0x2ca5>
    5209: 84 34        	sty	$34                     ; 0x2034 <main+0x1ba0>
    520b: 8c 16 d0     	sty	$d016                   ; 0xd016 <end_block9+0x2ca6>
    520e: 9c 17 d0     	stz	$d017                   ; 0xd017 <end_block9+0x2ca7>
    5211: 60           	rts

00005212 <textGotoXY>:
    5212: 85 33        	sta	$33                     ; 0x2033 <main+0x1b9f>
    5214: 8d 14 d0     	sta	$d014                   ; 0xd014 <end_block9+0x2ca4>
    5217: 9c 15 d0     	stz	$d015                   ; 0xd015 <end_block9+0x2ca5>
    521a: 86 34        	stx	$34                     ; 0x2034 <main+0x1ba0>
    521c: 8e 16 d0     	stx	$d016                   ; 0xd016 <end_block9+0x2ca6>
    521f: 9c 17 d0     	stz	$d017                   ; 0xd017 <end_block9+0x2ca7>
    5222: 60           	rts

00005223 <textSetColor>:
    5223: 64 32        	stz	$32                     ; 0x2032 <main+0x1b9e>
    5225: 60           	rts

00005226 <fileReadDir>:
    5226: b2 12        	lda	($12)                   ; 0x2012 <main+0x1b7e>
    5228: 85 f3        	sta	$f3                     ; 0x20f3 <main+0x1c5f>
    522a: a2 41        	ldx	#$41
    522c: a0 00        	ldy	#$0
    522e: 86 14        	stx	$14                     ; 0x2014 <main+0x1b80>
    5230: 84 15        	sty	$15                     ; 0x2015 <main+0x1b81>
    5232: a2 39        	ldx	#$39
    5234: 86 16        	stx	$16                     ; 0x2016 <main+0x1b82>
    5236: a2 00        	ldx	#$0
    5238: 86 17        	stx	$17                     ; 0x2017 <main+0x1b83>
    523a: 20 7c ff     	jsr	$ff7c <end_block9+0x5c0c>
    523d: 92 14        	sta	($14)                   ; 0x2014 <main+0x1b80>
    523f: a9 00        	lda	#$0
    5241: 6a           	ror
    5242: 85 16        	sta	$16                     ; 0x2016 <main+0x1b82>
    5244: a6 39        	ldx	$39                     ; 0x2039 <main+0x1ba5>
    5246: a0 00        	ldy	#$0
    5248: 84 14        	sty	$14                     ; 0x2014 <main+0x1b80>
    524a: a0 00        	ldy	#$0
    524c: 84 15        	sty	$15                     ; 0x2015 <main+0x1b81>
    524e: 8a           	txa
    524f: f0 09        	beq	$525a <fileReadDir+0x34>
    5251: a6 14        	ldx	$14                     ; 0x2014 <main+0x1b80>
    5253: 86 12        	stx	$12                     ; 0x2012 <main+0x1b7e>
    5255: a6 15        	ldx	$15                     ; 0x2015 <main+0x1b81>
    5257: 86 13        	stx	$13                     ; 0x2013 <main+0x1b7f>
    5259: 60           	rts
    525a: a2 42        	ldx	#$42
    525c: a0 00        	ldy	#$0
    525e: 86 18        	stx	$18                     ; 0x2018 <main+0x1b84>
    5260: 84 19        	sty	$19                     ; 0x2019 <main+0x1b85>
    5262: a0 00        	ldy	#$0
    5264: 80 18        	bra	$527e <fileReadDir+0x58>
    5266: b2 12        	lda	($12)                   ; 0x2012 <main+0x1b7e>
    5268: 85 f3        	sta	$f3                     ; 0x20f3 <main+0x1c5f>
    526a: a2 44        	ldx	#$44
    526c: 86 1a        	stx	$1a                     ; 0x201a <main+0x1b86>
    526e: 84 1b        	sty	$1b                     ; 0x201b <main+0x1b87>
    5270: 20 7c ff     	jsr	$ff7c <end_block9+0x5c0c>
    5273: 92 1a        	sta	($1a)                   ; 0x201a <main+0x1b86>
    5275: a9 00        	lda	#$0
    5277: 6a           	ror
    5278: 85 16        	sta	$16                     ; 0x2016 <main+0x1b82>
    527a: a6 39        	ldx	$39                     ; 0x2039 <main+0x1ba5>
    527c: d0 d3        	bne	$5251 <fileReadDir+0x2b>
    527e: 64 3a        	stz	$3a                     ; 0x203a <main+0x1ba6>
    5280: 20 00 ff     	jsr	$ff00 <end_block9+0x5b90>
    5283: 92 18        	sta	($18)                   ; 0x2018 <main+0x1b84>
    5285: a9 00        	lda	#$0
    5287: 6a           	ror
    5288: 85 16        	sta	$16                     ; 0x2016 <main+0x1b82>
    528a: a9 c2        	lda	#$c2
    528c: 18           	clc
    528d: 65 3a        	adc	$3a                     ; 0x203a <main+0x1ba6>
    528f: c9 0b        	cmp	#$b
    5291: b0 eb        	bcs	$527e <fileReadDir+0x58>
    5293: 0a           	asl
    5294: aa           	tax
    5295: 7c 50 66     	jmp	($6650,x)               ; 0x6650 <__set_v+0x1>
    5298: 9c f0 94     	stz	$94f0                   ; 0x94f0 <fileReadDir.fileDirEntS>
    529b: a2 02        	ldx	#$2
    529d: 80 2d        	bra	$52cc <fileReadDir+0xa6>
    529f: a2 f0        	ldx	#$f0
    52a1: a0 94        	ldy	#$94
    52a3: 86 fb        	stx	$fb                     ; 0x20fb <main+0x1c67>
    52a5: 84 fc        	sty	$fc                     ; 0x20fc <main+0x1c68>
    52a7: a2 01        	ldx	#$1
    52a9: 86 fd        	stx	$fd                     ; 0x20fd <main+0x1c69>
    52ab: a0 43        	ldy	#$43
    52ad: a9 00        	lda	#$0
    52af: 84 12        	sty	$12                     ; 0x2012 <main+0x1b7e>
    52b1: 85 13        	sta	$13                     ; 0x2013 <main+0x1b7f>
    52b3: a0 39        	ldy	#$39
    52b5: 84 14        	sty	$14                     ; 0x2014 <main+0x1b80>
    52b7: a0 00        	ldy	#$0
    52b9: 84 15        	sty	$15                     ; 0x2015 <main+0x1b81>
    52bb: 20 08 ff     	jsr	$ff08 <end_block9+0x5b98>
    52be: 92 12        	sta	($12)                   ; 0x2012 <main+0x1b7e>
    52c0: a9 00        	lda	#$0
    52c2: 6a           	ror
    52c3: 85 14        	sta	$14                     ; 0x2014 <main+0x1b80>
    52c5: ac f0 94     	ldy	$94f0                   ; 0x94f0 <fileReadDir.fileDirEntS>
    52c8: f0 02        	beq	$52cc <fileReadDir+0xa6>
    52ca: a2 00        	ldx	#$0
    52cc: 8e f1 94     	stx	$94f1                   ; 0x94f1 <fileReadDir.fileDirEntS+0x1>
    52cf: a6 3f        	ldx	$3f                     ; 0x203f <main+0x1bab>
    52d1: f0 24        	beq	$52f7 <fileReadDir+0xd1>
    52d3: a0 f2        	ldy	#$f2
    52d5: a9 94        	lda	#$94
    52d7: 84 fb        	sty	$fb                     ; 0x20fb <main+0x1c67>
    52d9: 85 fc        	sta	$fc                     ; 0x20fc <main+0x1c68>
    52db: 86 fd        	stx	$fd                     ; 0x20fd <main+0x1c69>
    52dd: a0 45        	ldy	#$45
    52df: a9 00        	lda	#$0
    52e1: 84 12        	sty	$12                     ; 0x2012 <main+0x1b7e>
    52e3: 85 13        	sta	$13                     ; 0x2013 <main+0x1b7f>
    52e5: a0 39        	ldy	#$39
    52e7: 84 14        	sty	$14                     ; 0x2014 <main+0x1b80>
    52e9: a0 00        	ldy	#$0
    52eb: 84 15        	sty	$15                     ; 0x2015 <main+0x1b81>
    52ed: 20 04 ff     	jsr	$ff04 <end_block9+0x5b94>
    52f0: 92 12        	sta	($12)                   ; 0x2012 <main+0x1b7e>
    52f2: a9 00        	lda	#$0
    52f4: 6a           	ror
    52f5: 85 14        	sta	$14                     ; 0x2014 <main+0x1b80>
    52f7: 9e f2 94     	stz	$94f2,x                 ; 0x94f2 <fileReadDir.fileDirEntS+0x2>
    52fa: a2 f0        	ldx	#$f0
    52fc: 86 14        	stx	$14                     ; 0x2014 <main+0x1b80>
    52fe: a2 94        	ldx	#$94
    5300: 86 15        	stx	$15                     ; 0x2015 <main+0x1b81>
    5302: 4c 51 52     	jmp	$5251 <fileReadDir+0x2b>

00005305 <pickFile>:
    5305: 18           	clc
    5306: a5 10        	lda	$10                     ; 0x2010 <main+0x1b7c>
    5308: 69 f8        	adc	#$f8
    530a: 85 10        	sta	$10                     ; 0x2010 <main+0x1b7c>
    530c: a5 11        	lda	$11                     ; 0x2011 <main+0x1b7d>
    530e: 69 ff        	adc	#$ff
    5310: 85 11        	sta	$11                     ; 0x2011 <main+0x1b7d>
    5312: a6 24        	ldx	$24                     ; 0x2024 <main+0x1b90>
    5314: da           	phx
    5315: a6 25        	ldx	$25                     ; 0x2025 <main+0x1b91>
    5317: da           	phx
    5318: a6 26        	ldx	$26                     ; 0x2026 <main+0x1b92>
    531a: da           	phx
    531b: a6 27        	ldx	$27                     ; 0x2027 <main+0x1b93>
    531d: da           	phx
    531e: a2 08        	ldx	#$8
    5320: 86 26        	stx	$26                     ; 0x2026 <main+0x1b92>
    5322: a2 00        	ldx	#$0
    5324: 86 27        	stx	$27                     ; 0x2027 <main+0x1b93>
    5326: a9 f2        	lda	#$f2
    5328: 18           	clc
    5329: 48           	pha
    532a: a5 10        	lda	$10                     ; 0x2010 <main+0x1b7c>
    532c: 69 05        	adc	#$5
    532e: 85 12        	sta	$12                     ; 0x2012 <main+0x1b7e>
    5330: a5 11        	lda	$11                     ; 0x2011 <main+0x1b7d>
    5332: 69 00        	adc	#$0
    5334: 85 13        	sta	$13                     ; 0x2013 <main+0x1b7f>
    5336: 68           	pla
    5337: 92 12        	sta	($12)                   ; 0x2012 <main+0x1b7e>
    5339: a0 01        	ldy	#$1
    533b: a9 95        	lda	#$95
    533d: 91 12        	sta	($12),y                 ; 0x2012 <main+0x1b7e>
    533f: 64 3a        	stz	$3a                     ; 0x203a <main+0x1ba6>
    5341: 18           	clc
    5342: a5 10        	lda	$10                     ; 0x2010 <main+0x1b7c>
    5344: 69 03        	adc	#$3
    5346: 85 12        	sta	$12                     ; 0x2012 <main+0x1b7e>
    5348: a5 11        	lda	$11                     ; 0x2011 <main+0x1b7d>
    534a: 69 00        	adc	#$0
    534c: 85 13        	sta	$13                     ; 0x2013 <main+0x1b7f>
    534e: a2 39        	ldx	#$39
    5350: 86 14        	stx	$14                     ; 0x2014 <main+0x1b80>
    5352: a2 00        	ldx	#$0
    5354: 86 15        	stx	$15                     ; 0x2015 <main+0x1b81>
    5356: 20 00 ff     	jsr	$ff00 <end_block9+0x5b90>
    5359: 92 12        	sta	($12)                   ; 0x2012 <main+0x1b7e>
    535b: a9 00        	lda	#$0
    535d: 6a           	ror
    535e: 85 14        	sta	$14                     ; 0x2014 <main+0x1b80>
    5360: b2 12        	lda	($12)                   ; 0x2012 <main+0x1b7e>
    5362: 18           	clc
    5363: 48           	pha
    5364: a5 10        	lda	$10                     ; 0x2010 <main+0x1b7c>
    5366: 69 02        	adc	#$2
    5368: 85 12        	sta	$12                     ; 0x2012 <main+0x1b7e>
    536a: a5 11        	lda	$11                     ; 0x2011 <main+0x1b7d>
    536c: 69 00        	adc	#$0
    536e: 85 13        	sta	$13                     ; 0x2013 <main+0x1b7f>
    5370: 68           	pla
    5371: 92 12        	sta	($12)                   ; 0x2012 <main+0x1b7e>
    5373: b2 12        	lda	($12)                   ; 0x2012 <main+0x1b7e>
    5375: 18           	clc
    5376: 48           	pha
    5377: a5 10        	lda	$10                     ; 0x2010 <main+0x1b7c>
    5379: 69 04        	adc	#$4
    537b: 85 12        	sta	$12                     ; 0x2012 <main+0x1b7e>
    537d: a5 11        	lda	$11                     ; 0x2011 <main+0x1b7d>
    537f: 69 00        	adc	#$0
    5381: 85 13        	sta	$13                     ; 0x2013 <main+0x1b7f>
    5383: 68           	pla
    5384: 92 12        	sta	($12)                   ; 0x2012 <main+0x1b7e>
    5386: a6 3a        	ldx	$3a                     ; 0x203a <main+0x1ba6>
    5388: a0 00        	ldy	#$0
    538a: c4 27        	cpy	$27                     ; 0x2027 <main+0x1b93>
    538c: f0 02        	beq	$5390 <pickFile+0x8b>
    538e: 80 0d        	bra	$539d <pickFile+0x98>
    5390: e4 26        	cpx	$26                     ; 0x2026 <main+0x1b92>
    5392: f0 02        	beq	$5396 <pickFile+0x91>
    5394: 80 02        	bra	$5398 <pickFile+0x93>
    5396: 80 03        	bra	$539b <pickFile+0x96>
    5398: 4c 59 57     	jmp	$5759 <pickFile+0x454>
    539b: 80 03        	bra	$53a0 <pickFile+0x9b>
    539d: 4c 59 57     	jmp	$5759 <pickFile+0x454>
    53a0: 80 00        	bra	$53a2 <pickFile+0x9d>
    53a2: a6 3e        	ldx	$3e                     ; 0x203e <main+0x1baa>
    53a4: e0 94        	cpx	#$94
    53a6: f0 02        	beq	$53aa <pickFile+0xa5>
    53a8: 80 02        	bra	$53ac <pickFile+0xa7>
    53aa: 80 1f        	bra	$53cb <pickFile+0xc6>
    53ac: 80 00        	bra	$53ae <pickFile+0xa9>
    53ae: 80 00        	bra	$53b0 <pickFile+0xab>
    53b0: e0 b6        	cpx	#$b6
    53b2: f0 02        	beq	$53b6 <pickFile+0xb1>
    53b4: 80 03        	bra	$53b9 <pickFile+0xb4>
    53b6: 4c ef 54     	jmp	$54ef <pickFile+0x1ea>
    53b9: 80 00        	bra	$53bb <pickFile+0xb6>
    53bb: 80 00        	bra	$53bd <pickFile+0xb8>
    53bd: e0 b7        	cpx	#$b7
    53bf: f0 02        	beq	$53c3 <pickFile+0xbe>
    53c1: 80 03        	bra	$53c6 <pickFile+0xc1>
    53c3: 4c 08 56     	jmp	$5608 <pickFile+0x303>
    53c6: 80 00        	bra	$53c8 <pickFile+0xc3>
    53c8: 4c 59 57     	jmp	$5759 <pickFile+0x454>
    53cb: 18           	clc
    53cc: a5 10        	lda	$10                     ; 0x2010 <main+0x1b7c>
    53ce: 69 05        	adc	#$5
    53d0: 85 24        	sta	$24                     ; 0x2024 <main+0x1b90>
    53d2: a5 11        	lda	$11                     ; 0x2011 <main+0x1b7d>
    53d4: 69 00        	adc	#$0
    53d6: 85 25        	sta	$25                     ; 0x2025 <main+0x1b91>
    53d8: b2 24        	lda	($24)                   ; 0x2024 <main+0x1b90>
    53da: 85 12        	sta	$12                     ; 0x2012 <main+0x1b7e>
    53dc: a0 01        	ldy	#$1
    53de: b1 24        	lda	($24),y                 ; 0x2024 <main+0x1b90>
    53e0: aa           	tax
    53e1: a0 01        	ldy	#$1
    53e3: 18           	clc
    53e4: a5 12        	lda	$12                     ; 0x2012 <main+0x1b7e>
    53e6: 69 22        	adc	#$22
    53e8: 85 12        	sta	$12                     ; 0x2012 <main+0x1b7e>
    53ea: 8a           	txa
    53eb: 69 00        	adc	#$0
    53ed: 85 13        	sta	$13                     ; 0x2013 <main+0x1b7f>
    53ef: b2 24        	lda	($24)                   ; 0x2024 <main+0x1b90>
    53f1: 85 15        	sta	$15                     ; 0x2015 <main+0x1b81>
    53f3: b1 24        	lda	($24),y                 ; 0x2024 <main+0x1b90>
    53f5: 85 14        	sta	$14                     ; 0x2014 <main+0x1b80>
    53f7: 18           	clc
    53f8: a5 15        	lda	$15                     ; 0x2015 <main+0x1b81>
    53fa: 69 28        	adc	#$28
    53fc: aa           	tax
    53fd: a5 14        	lda	$14                     ; 0x2014 <main+0x1b80>
    53ff: 69 0d        	adc	#$d
    5401: 86 14        	stx	$14                     ; 0x2014 <main+0x1b80>
    5403: 85 15        	sta	$15                     ; 0x2015 <main+0x1b81>
    5405: b2 14        	lda	($14)                   ; 0x2014 <main+0x1b80>
    5407: aa           	tax
    5408: b1 14        	lda	($14),y                 ; 0x2014 <main+0x1b80>
    540a: 4a           	lsr
    540b: 85 15        	sta	$15                     ; 0x2015 <main+0x1b81>
    540d: 8a           	txa
    540e: 6a           	ror
    540f: 64 14        	stz	$14                     ; 0x2014 <main+0x1b80>
    5411: 66 14        	ror	$14                     ; 0x2014 <main+0x1b80>
    5413: 46 15        	lsr	$15                     ; 0x2015 <main+0x1b81>
    5415: 6a           	ror
    5416: 66 14        	ror	$14                     ; 0x2014 <main+0x1b80>
    5418: 46 15        	lsr	$15                     ; 0x2015 <main+0x1b81>
    541a: 6a           	ror
    541b: aa           	tax
    541c: a5 14        	lda	$14                     ; 0x2014 <main+0x1b80>
    541e: 6a           	ror
    541f: 18           	clc
    5420: 72 24        	adc	($24)                   ; 0x2024 <main+0x1b90>
    5422: 85 14        	sta	$14                     ; 0x2014 <main+0x1b80>
    5424: 8a           	txa
    5425: 71 24        	adc	($24),y                 ; 0x2024 <main+0x1b90>
    5427: aa           	tax
    5428: 18           	clc
    5429: a5 14        	lda	$14                     ; 0x2014 <main+0x1b80>
    542b: 69 42        	adc	#$42
    542d: 85 14        	sta	$14                     ; 0x2014 <main+0x1b80>
    542f: 8a           	txa
    5430: 69 00        	adc	#$0
    5432: 85 15        	sta	$15                     ; 0x2015 <main+0x1b81>
    5434: a9 20        	lda	#$20
    5436: a2 00        	ldx	#$0
    5438: 20 03 66     	jsr	$6603 <memcpy>
    543b: b2 24        	lda	($24)                   ; 0x2024 <main+0x1b90>
    543d: 85 13        	sta	$13                     ; 0x2013 <main+0x1b7f>
    543f: a0 01        	ldy	#$1
    5441: b1 24        	lda	($24),y                 ; 0x2024 <main+0x1b90>
    5443: 85 12        	sta	$12                     ; 0x2012 <main+0x1b7e>
    5445: 18           	clc
    5446: a5 13        	lda	$13                     ; 0x2013 <main+0x1b7f>
    5448: 69 28        	adc	#$28
    544a: aa           	tax
    544b: a5 12        	lda	$12                     ; 0x2012 <main+0x1b7e>
    544d: 69 0d        	adc	#$d
    544f: 86 12        	stx	$12                     ; 0x2012 <main+0x1b7e>
    5451: 85 13        	sta	$13                     ; 0x2013 <main+0x1b7f>
    5453: b2 12        	lda	($12)                   ; 0x2012 <main+0x1b7e>
    5455: 85 14        	sta	$14                     ; 0x2014 <main+0x1b80>
    5457: b1 12        	lda	($12),y                 ; 0x2012 <main+0x1b7e>
    5459: d0 1c        	bne	$5477 <pickFile+0x172>
    545b: 80 00        	bra	$545d <pickFile+0x158>
    545d: a5 14        	lda	$14                     ; 0x2014 <main+0x1b80>
    545f: d0 16        	bne	$5477 <pickFile+0x172>
    5461: 80 00        	bra	$5463 <pickFile+0x15e>
    5463: 18           	clc
    5464: a5 10        	lda	$10                     ; 0x2010 <main+0x1b7c>
    5466: 69 07        	adc	#$7
    5468: 85 12        	sta	$12                     ; 0x2012 <main+0x1b7e>
    546a: a5 11        	lda	$11                     ; 0x2011 <main+0x1b7d>
    546c: 69 00        	adc	#$0
    546e: 85 13        	sta	$13                     ; 0x2013 <main+0x1b7f>
    5470: a9 00        	lda	#$0
    5472: 92 12        	sta	($12)                   ; 0x2012 <main+0x1b7e>
    5474: 4c 5c 57     	jmp	$575c <pickFile+0x457>
    5477: 18           	clc
    5478: a5 10        	lda	$10                     ; 0x2010 <main+0x1b7c>
    547a: 69 05        	adc	#$5
    547c: 85 12        	sta	$12                     ; 0x2012 <main+0x1b7e>
    547e: a5 11        	lda	$11                     ; 0x2011 <main+0x1b7d>
    5480: 69 00        	adc	#$0
    5482: 85 13        	sta	$13                     ; 0x2013 <main+0x1b7f>
    5484: a0 01        	ldy	#$1
    5486: b2 12        	lda	($12)                   ; 0x2012 <main+0x1b7e>
    5488: 85 15        	sta	$15                     ; 0x2015 <main+0x1b81>
    548a: b1 12        	lda	($12),y                 ; 0x2012 <main+0x1b7e>
    548c: 85 14        	sta	$14                     ; 0x2014 <main+0x1b80>
    548e: 18           	clc
    548f: a5 15        	lda	$15                     ; 0x2015 <main+0x1b81>
    5491: 69 28        	adc	#$28
    5493: aa           	tax
    5494: a5 14        	lda	$14                     ; 0x2014 <main+0x1b80>
    5496: 69 0d        	adc	#$d
    5498: 86 14        	stx	$14                     ; 0x2014 <main+0x1b80>
    549a: 85 15        	sta	$15                     ; 0x2015 <main+0x1b81>
    549c: b2 14        	lda	($14)                   ; 0x2014 <main+0x1b80>
    549e: 85 16        	sta	$16                     ; 0x2016 <main+0x1b82>
    54a0: b1 14        	lda	($14),y                 ; 0x2014 <main+0x1b80>
    54a2: 85 14        	sta	$14                     ; 0x2014 <main+0x1b80>
    54a4: 18           	clc
    54a5: a5 16        	lda	$16                     ; 0x2016 <main+0x1b82>
    54a7: 72 12        	adc	($12)                   ; 0x2012 <main+0x1b7e>
    54a9: 85 15        	sta	$15                     ; 0x2015 <main+0x1b81>
    54ab: a5 14        	lda	$14                     ; 0x2014 <main+0x1b80>
    54ad: 71 12        	adc	($12),y                 ; 0x2012 <main+0x1b7e>
    54af: 85 12        	sta	$12                     ; 0x2012 <main+0x1b7e>
    54b1: 18           	clc
    54b2: a5 15        	lda	$15                     ; 0x2015 <main+0x1b81>
    54b4: 69 c2        	adc	#$c2
    54b6: aa           	tax
    54b7: a5 12        	lda	$12                     ; 0x2012 <main+0x1b7e>
    54b9: 69 0c        	adc	#$c
    54bb: 85 13        	sta	$13                     ; 0x2013 <main+0x1b7f>
    54bd: 86 12        	stx	$12                     ; 0x2012 <main+0x1b7e>
    54bf: b2 12        	lda	($12)                   ; 0x2012 <main+0x1b7e>
    54c1: 29 01        	and	#$1
    54c3: f0 16        	beq	$54db <pickFile+0x1d6>
    54c5: 80 00        	bra	$54c7 <pickFile+0x1c2>
    54c7: 18           	clc
    54c8: a5 10        	lda	$10                     ; 0x2010 <main+0x1b7c>
    54ca: 69 07        	adc	#$7
    54cc: 85 12        	sta	$12                     ; 0x2012 <main+0x1b7e>
    54ce: a5 11        	lda	$11                     ; 0x2011 <main+0x1b7d>
    54d0: 69 00        	adc	#$0
    54d2: 85 13        	sta	$13                     ; 0x2013 <main+0x1b7f>
    54d4: a9 01        	lda	#$1
    54d6: 92 12        	sta	($12)                   ; 0x2012 <main+0x1b7e>
    54d8: 4c 5c 57     	jmp	$575c <pickFile+0x457>
    54db: 18           	clc
    54dc: a5 10        	lda	$10                     ; 0x2010 <main+0x1b7c>
    54de: 69 07        	adc	#$7
    54e0: 85 12        	sta	$12                     ; 0x2012 <main+0x1b7e>
    54e2: a5 11        	lda	$11                     ; 0x2011 <main+0x1b7d>
    54e4: 69 00        	adc	#$0
    54e6: 85 13        	sta	$13                     ; 0x2013 <main+0x1b7f>
    54e8: a9 02        	lda	#$2
    54ea: 92 12        	sta	($12)                   ; 0x2012 <main+0x1b7e>
    54ec: 4c 5c 57     	jmp	$575c <pickFile+0x457>
    54ef: 18           	clc
    54f0: a5 10        	lda	$10                     ; 0x2010 <main+0x1b7c>
    54f2: 69 05        	adc	#$5
    54f4: 85 12        	sta	$12                     ; 0x2012 <main+0x1b7e>
    54f6: a5 11        	lda	$11                     ; 0x2011 <main+0x1b7d>
    54f8: 69 00        	adc	#$0
    54fa: 85 13        	sta	$13                     ; 0x2013 <main+0x1b7f>
    54fc: b2 12        	lda	($12)                   ; 0x2012 <main+0x1b7e>
    54fe: 85 14        	sta	$14                     ; 0x2014 <main+0x1b80>
    5500: a0 01        	ldy	#$1
    5502: b1 12        	lda	($12),y                 ; 0x2012 <main+0x1b7e>
    5504: aa           	tax
    5505: 18           	clc
    5506: a5 14        	lda	$14                     ; 0x2014 <main+0x1b80>
    5508: 69 28        	adc	#$28
    550a: 85 12        	sta	$12                     ; 0x2012 <main+0x1b7e>
    550c: 8a           	txa
    550d: 69 0d        	adc	#$d
    550f: 85 13        	sta	$13                     ; 0x2013 <main+0x1b7f>
    5511: b2 12        	lda	($12)                   ; 0x2012 <main+0x1b7e>
    5513: 85 14        	sta	$14                     ; 0x2014 <main+0x1b80>
    5515: b1 12        	lda	($12),y                 ; 0x2012 <main+0x1b7e>
    5517: d0 09        	bne	$5522 <pickFile+0x21d>
    5519: 80 00        	bra	$551b <pickFile+0x216>
    551b: a5 14        	lda	$14                     ; 0x2014 <main+0x1b80>
    551d: d0 03        	bne	$5522 <pickFile+0x21d>
    551f: 4c 05 56     	jmp	$5605 <pickFile+0x300>
    5522: 18           	clc
    5523: a5 10        	lda	$10                     ; 0x2010 <main+0x1b7c>
    5525: 69 05        	adc	#$5
    5527: 85 24        	sta	$24                     ; 0x2024 <main+0x1b90>
    5529: a5 11        	lda	$11                     ; 0x2011 <main+0x1b7d>
    552b: 69 00        	adc	#$0
    552d: 85 25        	sta	$25                     ; 0x2025 <main+0x1b91>
    552f: b2 24        	lda	($24)                   ; 0x2024 <main+0x1b90>
    5531: 85 12        	sta	$12                     ; 0x2012 <main+0x1b7e>
    5533: a0 01        	ldy	#$1
    5535: b1 24        	lda	($24),y                 ; 0x2024 <main+0x1b90>
    5537: 85 13        	sta	$13                     ; 0x2013 <main+0x1b7f>
    5539: b2 12        	lda	($12)                   ; 0x2012 <main+0x1b7e>
    553b: 85 14        	sta	$14                     ; 0x2014 <main+0x1b80>
    553d: b2 24        	lda	($24)                   ; 0x2024 <main+0x1b90>
    553f: 85 12        	sta	$12                     ; 0x2012 <main+0x1b7e>
    5541: b1 24        	lda	($24),y                 ; 0x2024 <main+0x1b90>
    5543: 85 13        	sta	$13                     ; 0x2013 <main+0x1b7f>
    5545: b2 24        	lda	($24)                   ; 0x2024 <main+0x1b90>
    5547: 85 16        	sta	$16                     ; 0x2016 <main+0x1b82>
    5549: b1 24        	lda	($24),y                 ; 0x2024 <main+0x1b90>
    554b: 85 15        	sta	$15                     ; 0x2015 <main+0x1b81>
    554d: 18           	clc
    554e: a5 16        	lda	$16                     ; 0x2016 <main+0x1b82>
    5550: 69 28        	adc	#$28
    5552: aa           	tax
    5553: a5 15        	lda	$15                     ; 0x2015 <main+0x1b81>
    5555: 69 0d        	adc	#$d
    5557: 85 15        	sta	$15                     ; 0x2015 <main+0x1b81>
    5559: b1 12        	lda	($12),y                 ; 0x2012 <main+0x1b7e>
    555b: 86 12        	stx	$12                     ; 0x2012 <main+0x1b7e>
    555d: a6 15        	ldx	$15                     ; 0x2015 <main+0x1b81>
    555f: 86 13        	stx	$13                     ; 0x2013 <main+0x1b7f>
    5561: 18           	clc
    5562: 72 12        	adc	($12)                   ; 0x2012 <main+0x1b7e>
    5564: aa           	tax
    5565: a5 14        	lda	$14                     ; 0x2014 <main+0x1b80>
    5567: 20 12 52     	jsr	$5212 <textGotoXY>
    556a: a9 20        	lda	#$20
    556c: 92 10        	sta	($10)                   ; 0x2010 <main+0x1b7c>
    556e: a9 00        	lda	#$0
    5570: a0 01        	ldy	#$1
    5572: 91 10        	sta	($10),y                 ; 0x2010 <main+0x1b7c>
    5574: a2 ec        	ldx	#$ec
    5576: 86 12        	stx	$12                     ; 0x2012 <main+0x1b7e>
    5578: a2 67        	ldx	#$67
    557a: 86 13        	stx	$13                     ; 0x2013 <main+0x1b7f>
    557c: 20 a9 64     	jsr	$64a9 <printf>
    557f: b2 24        	lda	($24)                   ; 0x2024 <main+0x1b90>
    5581: 85 13        	sta	$13                     ; 0x2013 <main+0x1b7f>
    5583: a0 01        	ldy	#$1
    5585: b1 24        	lda	($24),y                 ; 0x2024 <main+0x1b90>
    5587: 85 12        	sta	$12                     ; 0x2012 <main+0x1b7e>
    5589: 18           	clc
    558a: a5 13        	lda	$13                     ; 0x2013 <main+0x1b7f>
    558c: 69 28        	adc	#$28
    558e: aa           	tax
    558f: a5 12        	lda	$12                     ; 0x2012 <main+0x1b7e>
    5591: 69 0d        	adc	#$d
    5593: 86 12        	stx	$12                     ; 0x2012 <main+0x1b7e>
    5595: 85 13        	sta	$13                     ; 0x2013 <main+0x1b7f>
    5597: b2 12        	lda	($12)                   ; 0x2012 <main+0x1b7e>
    5599: aa           	tax
    559a: b1 12        	lda	($12),y                 ; 0x2012 <main+0x1b7e>
    559c: 85 14        	sta	$14                     ; 0x2014 <main+0x1b80>
    559e: 8a           	txa
    559f: 3a           	dec
    55a0: c9 ff        	cmp	#$ff
    55a2: f0 03        	beq	$55a7 <pickFile+0x2a2>
    55a4: 4c ac 55     	jmp	$55ac <pickFile+0x2a7>
    55a7: c6 14        	dec	$14                     ; 0x2014 <main+0x1b80>
    55a9: 4c ac 55     	jmp	$55ac <pickFile+0x2a7>
    55ac: 92 12        	sta	($12)                   ; 0x2012 <main+0x1b7e>
    55ae: a5 14        	lda	$14                     ; 0x2014 <main+0x1b80>
    55b0: 91 12        	sta	($12),y                 ; 0x2012 <main+0x1b7e>
    55b2: b2 24        	lda	($24)                   ; 0x2024 <main+0x1b90>
    55b4: 85 12        	sta	$12                     ; 0x2012 <main+0x1b7e>
    55b6: b1 24        	lda	($24),y                 ; 0x2024 <main+0x1b90>
    55b8: 85 13        	sta	$13                     ; 0x2013 <main+0x1b7f>
    55ba: b2 24        	lda	($24)                   ; 0x2024 <main+0x1b90>
    55bc: 85 14        	sta	$14                     ; 0x2014 <main+0x1b80>
    55be: b1 24        	lda	($24),y                 ; 0x2024 <main+0x1b90>
    55c0: 85 15        	sta	$15                     ; 0x2015 <main+0x1b81>
    55c2: b2 24        	lda	($24)                   ; 0x2024 <main+0x1b90>
    55c4: 85 16        	sta	$16                     ; 0x2016 <main+0x1b82>
    55c6: b1 24        	lda	($24),y                 ; 0x2024 <main+0x1b90>
    55c8: 85 18        	sta	$18                     ; 0x2018 <main+0x1b84>
    55ca: a0 01        	ldy	#$1
    55cc: 18           	clc
    55cd: a5 16        	lda	$16                     ; 0x2016 <main+0x1b82>
    55cf: 69 28        	adc	#$28
    55d1: 85 17        	sta	$17                     ; 0x2017 <main+0x1b83>
    55d3: a5 18        	lda	$18                     ; 0x2018 <main+0x1b84>
    55d5: 69 0d        	adc	#$d
    55d7: aa           	tax
    55d8: b2 12        	lda	($12)                   ; 0x2012 <main+0x1b7e>
    55da: 85 16        	sta	$16                     ; 0x2016 <main+0x1b82>
    55dc: a5 17        	lda	$17                     ; 0x2017 <main+0x1b83>
    55de: 85 12        	sta	$12                     ; 0x2012 <main+0x1b7e>
    55e0: b1 14        	lda	($14),y                 ; 0x2014 <main+0x1b80>
    55e2: 86 13        	stx	$13                     ; 0x2013 <main+0x1b7f>
    55e4: 18           	clc
    55e5: 72 12        	adc	($12)                   ; 0x2012 <main+0x1b7e>
    55e7: aa           	tax
    55e8: a5 16        	lda	$16                     ; 0x2016 <main+0x1b82>
    55ea: 20 12 52     	jsr	$5212 <textGotoXY>
    55ed: a9 fa        	lda	#$fa
    55ef: 92 10        	sta	($10)                   ; 0x2010 <main+0x1b7c>
    55f1: a9 00        	lda	#$0
    55f3: a0 01        	ldy	#$1
    55f5: 91 10        	sta	($10),y                 ; 0x2010 <main+0x1b7c>
    55f7: a2 ec        	ldx	#$ec
    55f9: 86 12        	stx	$12                     ; 0x2012 <main+0x1b7e>
    55fb: a2 67        	ldx	#$67
    55fd: 86 13        	stx	$13                     ; 0x2013 <main+0x1b7f>
    55ff: 20 a9 64     	jsr	$64a9 <printf>
    5602: 20 23 52     	jsr	$5223 <textSetColor>
    5605: 4c 59 57     	jmp	$5759 <pickFile+0x454>
    5608: 18           	clc
    5609: a5 10        	lda	$10                     ; 0x2010 <main+0x1b7c>
    560b: 69 05        	adc	#$5
    560d: 85 12        	sta	$12                     ; 0x2012 <main+0x1b7e>
    560f: a5 11        	lda	$11                     ; 0x2011 <main+0x1b7d>
    5611: 69 00        	adc	#$0
    5613: 85 13        	sta	$13                     ; 0x2013 <main+0x1b7f>
    5615: b2 12        	lda	($12)                   ; 0x2012 <main+0x1b7e>
    5617: 85 14        	sta	$14                     ; 0x2014 <main+0x1b80>
    5619: a0 01        	ldy	#$1
    561b: b1 12        	lda	($12),y                 ; 0x2012 <main+0x1b7e>
    561d: aa           	tax
    561e: 18           	clc
    561f: a5 14        	lda	$14                     ; 0x2014 <main+0x1b80>
    5621: 69 28        	adc	#$28
    5623: 85 14        	sta	$14                     ; 0x2014 <main+0x1b80>
    5625: 8a           	txa
    5626: 69 0d        	adc	#$d
    5628: 85 15        	sta	$15                     ; 0x2015 <main+0x1b81>
    562a: b2 14        	lda	($14)                   ; 0x2014 <main+0x1b80>
    562c: 85 16        	sta	$16                     ; 0x2016 <main+0x1b82>
    562e: b2 12        	lda	($12)                   ; 0x2012 <main+0x1b7e>
    5630: 85 17        	sta	$17                     ; 0x2017 <main+0x1b83>
    5632: b1 12        	lda	($12),y                 ; 0x2012 <main+0x1b7e>
    5634: 85 12        	sta	$12                     ; 0x2012 <main+0x1b7e>
    5636: 18           	clc
    5637: a5 17        	lda	$17                     ; 0x2017 <main+0x1b83>
    5639: 69 26        	adc	#$26
    563b: aa           	tax
    563c: a5 12        	lda	$12                     ; 0x2012 <main+0x1b7e>
    563e: 69 0d        	adc	#$d
    5640: 85 13        	sta	$13                     ; 0x2013 <main+0x1b7f>
    5642: b1 14        	lda	($14),y                 ; 0x2014 <main+0x1b80>
    5644: 85 14        	sta	$14                     ; 0x2014 <main+0x1b80>
    5646: 86 12        	stx	$12                     ; 0x2012 <main+0x1b7e>
    5648: b2 12        	lda	($12)                   ; 0x2012 <main+0x1b7e>
    564a: aa           	tax
    564b: b1 12        	lda	($12),y                 ; 0x2012 <main+0x1b7e>
    564d: 85 13        	sta	$13                     ; 0x2013 <main+0x1b7f>
    564f: 86 12        	stx	$12                     ; 0x2012 <main+0x1b7e>
    5651: a5 14        	lda	$14                     ; 0x2014 <main+0x1b80>
    5653: a2 ff        	ldx	#$ff
    5655: c6 12        	dec	$12                     ; 0x2012 <main+0x1b7e>
    5657: e4 12        	cpx	$12                     ; 0x2012 <main+0x1b7e>
    5659: f0 03        	beq	$565e <pickFile+0x359>
    565b: 4c 63 56     	jmp	$5663 <pickFile+0x35e>
    565e: c6 13        	dec	$13                     ; 0x2013 <main+0x1b7f>
    5660: 4c 63 56     	jmp	$5663 <pickFile+0x35e>
    5663: a6 16        	ldx	$16                     ; 0x2016 <main+0x1b82>
    5665: e4 12        	cpx	$12                     ; 0x2012 <main+0x1b7e>
    5667: e5 13        	sbc	$13                     ; 0x2013 <main+0x1b7f>
    5669: 70 02        	bvs	$566d <pickFile+0x368>
    566b: 80 04        	bra	$5671 <pickFile+0x36c>
    566d: 49 80        	eor	#$80
    566f: 80 02        	bra	$5673 <pickFile+0x36e>
    5671: 80 00        	bra	$5673 <pickFile+0x36e>
    5673: aa           	tax
    5674: 30 03        	bmi	$5679 <pickFile+0x374>
    5676: 4c 59 57     	jmp	$5759 <pickFile+0x454>
    5679: 18           	clc
    567a: a5 10        	lda	$10                     ; 0x2010 <main+0x1b7c>
    567c: 69 05        	adc	#$5
    567e: 85 24        	sta	$24                     ; 0x2024 <main+0x1b90>
    5680: a5 11        	lda	$11                     ; 0x2011 <main+0x1b7d>
    5682: 69 00        	adc	#$0
    5684: 85 25        	sta	$25                     ; 0x2025 <main+0x1b91>
    5686: b2 24        	lda	($24)                   ; 0x2024 <main+0x1b90>
    5688: 85 12        	sta	$12                     ; 0x2012 <main+0x1b7e>
    568a: a0 01        	ldy	#$1
    568c: b1 24        	lda	($24),y                 ; 0x2024 <main+0x1b90>
    568e: 85 13        	sta	$13                     ; 0x2013 <main+0x1b7f>
    5690: b2 12        	lda	($12)                   ; 0x2012 <main+0x1b7e>
    5692: 85 14        	sta	$14                     ; 0x2014 <main+0x1b80>
    5694: b2 24        	lda	($24)                   ; 0x2024 <main+0x1b90>
    5696: 85 12        	sta	$12                     ; 0x2012 <main+0x1b7e>
    5698: b1 24        	lda	($24),y                 ; 0x2024 <main+0x1b90>
    569a: 85 13        	sta	$13                     ; 0x2013 <main+0x1b7f>
    569c: b2 24        	lda	($24)                   ; 0x2024 <main+0x1b90>
    569e: 85 16        	sta	$16                     ; 0x2016 <main+0x1b82>
    56a0: b1 24        	lda	($24),y                 ; 0x2024 <main+0x1b90>
    56a2: 85 15        	sta	$15                     ; 0x2015 <main+0x1b81>
    56a4: 18           	clc
    56a5: a5 16        	lda	$16                     ; 0x2016 <main+0x1b82>
    56a7: 69 28        	adc	#$28
    56a9: aa           	tax
    56aa: a5 15        	lda	$15                     ; 0x2015 <main+0x1b81>
    56ac: 69 0d        	adc	#$d
    56ae: 85 15        	sta	$15                     ; 0x2015 <main+0x1b81>
    56b0: b1 12        	lda	($12),y                 ; 0x2012 <main+0x1b7e>
    56b2: 86 12        	stx	$12                     ; 0x2012 <main+0x1b7e>
    56b4: a6 15        	ldx	$15                     ; 0x2015 <main+0x1b81>
    56b6: 86 13        	stx	$13                     ; 0x2013 <main+0x1b7f>
    56b8: 18           	clc
    56b9: 72 12        	adc	($12)                   ; 0x2012 <main+0x1b7e>
    56bb: aa           	tax
    56bc: a5 14        	lda	$14                     ; 0x2014 <main+0x1b80>
    56be: 20 12 52     	jsr	$5212 <textGotoXY>
    56c1: a9 20        	lda	#$20
    56c3: 92 10        	sta	($10)                   ; 0x2010 <main+0x1b7c>
    56c5: a9 00        	lda	#$0
    56c7: a0 01        	ldy	#$1
    56c9: 91 10        	sta	($10),y                 ; 0x2010 <main+0x1b7c>
    56cb: a2 ec        	ldx	#$ec
    56cd: 86 12        	stx	$12                     ; 0x2012 <main+0x1b7e>
    56cf: a2 67        	ldx	#$67
    56d1: 86 13        	stx	$13                     ; 0x2013 <main+0x1b7f>
    56d3: 20 a9 64     	jsr	$64a9 <printf>
    56d6: b2 24        	lda	($24)                   ; 0x2024 <main+0x1b90>
    56d8: 85 13        	sta	$13                     ; 0x2013 <main+0x1b7f>
    56da: a0 01        	ldy	#$1
    56dc: b1 24        	lda	($24),y                 ; 0x2024 <main+0x1b90>
    56de: 85 12        	sta	$12                     ; 0x2012 <main+0x1b7e>
    56e0: 18           	clc
    56e1: a5 13        	lda	$13                     ; 0x2013 <main+0x1b7f>
    56e3: 69 28        	adc	#$28
    56e5: aa           	tax
    56e6: a5 12        	lda	$12                     ; 0x2012 <main+0x1b7e>
    56e8: 69 0d        	adc	#$d
    56ea: 86 12        	stx	$12                     ; 0x2012 <main+0x1b7e>
    56ec: 85 13        	sta	$13                     ; 0x2013 <main+0x1b7f>
    56ee: b2 12        	lda	($12)                   ; 0x2012 <main+0x1b7e>
    56f0: 85 14        	sta	$14                     ; 0x2014 <main+0x1b80>
    56f2: b1 12        	lda	($12),y                 ; 0x2012 <main+0x1b7e>
    56f4: aa           	tax
    56f5: a5 14        	lda	$14                     ; 0x2014 <main+0x1b80>
    56f7: 1a           	inc
    56f8: f0 03        	beq	$56fd <pickFile+0x3f8>
    56fa: 4c 01 57     	jmp	$5701 <pickFile+0x3fc>
    56fd: e8           	inx
    56fe: 4c 01 57     	jmp	$5701 <pickFile+0x3fc>
    5701: 92 12        	sta	($12)                   ; 0x2012 <main+0x1b7e>
    5703: 8a           	txa
    5704: 91 12        	sta	($12),y                 ; 0x2012 <main+0x1b7e>
    5706: b2 24        	lda	($24)                   ; 0x2024 <main+0x1b90>
    5708: 85 12        	sta	$12                     ; 0x2012 <main+0x1b7e>
    570a: b1 24        	lda	($24),y                 ; 0x2024 <main+0x1b90>
    570c: 85 13        	sta	$13                     ; 0x2013 <main+0x1b7f>
    570e: b2 24        	lda	($24)                   ; 0x2024 <main+0x1b90>
    5710: 85 14        	sta	$14                     ; 0x2014 <main+0x1b80>
    5712: b1 24        	lda	($24),y                 ; 0x2024 <main+0x1b90>
    5714: 85 15        	sta	$15                     ; 0x2015 <main+0x1b81>
    5716: b2 24        	lda	($24)                   ; 0x2024 <main+0x1b90>
    5718: 85 16        	sta	$16                     ; 0x2016 <main+0x1b82>
    571a: b1 24        	lda	($24),y                 ; 0x2024 <main+0x1b90>
    571c: 85 18        	sta	$18                     ; 0x2018 <main+0x1b84>
    571e: a0 01        	ldy	#$1
    5720: 18           	clc
    5721: a5 16        	lda	$16                     ; 0x2016 <main+0x1b82>
    5723: 69 28        	adc	#$28
    5725: 85 17        	sta	$17                     ; 0x2017 <main+0x1b83>
    5727: a5 18        	lda	$18                     ; 0x2018 <main+0x1b84>
    5729: 69 0d        	adc	#$d
    572b: aa           	tax
    572c: b2 12        	lda	($12)                   ; 0x2012 <main+0x1b7e>
    572e: 85 16        	sta	$16                     ; 0x2016 <main+0x1b82>
    5730: a5 17        	lda	$17                     ; 0x2017 <main+0x1b83>
    5732: 85 12        	sta	$12                     ; 0x2012 <main+0x1b7e>
    5734: b1 14        	lda	($14),y                 ; 0x2014 <main+0x1b80>
    5736: 86 13        	stx	$13                     ; 0x2013 <main+0x1b7f>
    5738: 18           	clc
    5739: 72 12        	adc	($12)                   ; 0x2012 <main+0x1b7e>
    573b: aa           	tax
    573c: a5 16        	lda	$16                     ; 0x2016 <main+0x1b82>
    573e: 20 12 52     	jsr	$5212 <textGotoXY>
    5741: a9 fa        	lda	#$fa
    5743: 92 10        	sta	($10)                   ; 0x2010 <main+0x1b7c>
    5745: a9 00        	lda	#$0
    5747: a0 01        	ldy	#$1
    5749: 91 10        	sta	($10),y                 ; 0x2010 <main+0x1b7c>
    574b: a2 ec        	ldx	#$ec
    574d: 86 12        	stx	$12                     ; 0x2012 <main+0x1b7e>
    574f: a2 67        	ldx	#$67
    5751: 86 13        	stx	$13                     ; 0x2013 <main+0x1b7f>
    5753: 20 a9 64     	jsr	$64a9 <printf>
    5756: 20 23 52     	jsr	$5223 <textSetColor>
    5759: 4c 3f 53     	jmp	$533f <pickFile+0x3a>
    575c: 18           	clc
    575d: a5 10        	lda	$10                     ; 0x2010 <main+0x1b7c>
    575f: 69 07        	adc	#$7
    5761: 85 12        	sta	$12                     ; 0x2012 <main+0x1b7e>
    5763: a5 11        	lda	$11                     ; 0x2011 <main+0x1b7d>
    5765: 69 00        	adc	#$0
    5767: 85 13        	sta	$13                     ; 0x2013 <main+0x1b7f>
    5769: b2 12        	lda	($12)                   ; 0x2012 <main+0x1b7e>
    576b: 85 20        	sta	$20                     ; 0x2020 <main+0x1b8c>
    576d: fa           	plx
    576e: 86 27        	stx	$27                     ; 0x2027 <main+0x1b93>
    5770: fa           	plx
    5771: 86 26        	stx	$26                     ; 0x2026 <main+0x1b92>
    5773: fa           	plx
    5774: 86 25        	stx	$25                     ; 0x2025 <main+0x1b91>
    5776: fa           	plx
    5777: 86 24        	stx	$24                     ; 0x2024 <main+0x1b90>
    5779: 18           	clc
    577a: a5 10        	lda	$10                     ; 0x2010 <main+0x1b7c>
    577c: 69 08        	adc	#$8
    577e: 85 10        	sta	$10                     ; 0x2010 <main+0x1b7c>
    5780: a5 11        	lda	$11                     ; 0x2011 <main+0x1b7d>
    5782: 69 00        	adc	#$0
    5784: 85 11        	sta	$11                     ; 0x2011 <main+0x1b7d>
    5786: a5 20        	lda	$20                     ; 0x2020 <main+0x1b8c>
    5788: 60           	rts

00005789 <exit>:
    5789: 20 19 03     	jsr	$319 <_fini>
    578c: 80 fe        	bra	$578c <exit+0x3>

0000578e <_ZN12_GLOBAL__N_15printEPKcP6Status>:
    578e: a6 14        	ldx	$14                     ; 0x2014 <main+0x1b80>
    5790: 86 5a        	stx	$5a                     ; 0x205a <main+0x1bc6>
    5792: a6 15        	ldx	$15                     ; 0x2015 <main+0x1b81>
    5794: 86 5b        	stx	$5b                     ; 0x205b <main+0x1bc7>
    5796: a6 12        	ldx	$12                     ; 0x2012 <main+0x1b7e>
    5798: 86 14        	stx	$14                     ; 0x2014 <main+0x1b80>
    579a: a6 13        	ldx	$13                     ; 0x2013 <main+0x1b7f>
    579c: 86 15        	stx	$15                     ; 0x2015 <main+0x1b81>
    579e: e6 14        	inc	$14                     ; 0x2014 <main+0x1b80>
    57a0: d0 02        	bne	$57a4 <_ZN12_GLOBAL__N_15printEPKcP6Status+0x16>
    57a2: e6 15        	inc	$15                     ; 0x2015 <main+0x1b81>
    57a4: a0 01        	ldy	#$1
    57a6: b1 12        	lda	($12),y                 ; 0x2012 <main+0x1b7e>
    57a8: c9 25        	cmp	#$25
    57aa: d0 23        	bne	$57cf <_ZN12_GLOBAL__N_15printEPKcP6Status+0x41>
    57ac: a9 25        	lda	#$25
    57ae: a6 12        	ldx	$12                     ; 0x2012 <main+0x1b7e>
    57b0: 86 5c        	stx	$5c                     ; 0x205c <main+0x1bc8>
    57b2: a6 13        	ldx	$13                     ; 0x2013 <main+0x1b7f>
    57b4: 86 5d        	stx	$5d                     ; 0x205d <main+0x1bc9>
    57b6: a6 5a        	ldx	$5a                     ; 0x205a <main+0x1bc6>
    57b8: 86 12        	stx	$12                     ; 0x2012 <main+0x1b7e>
    57ba: a6 5b        	ldx	$5b                     ; 0x205b <main+0x1bc7>
    57bc: 86 13        	stx	$13                     ; 0x2013 <main+0x1b7f>
    57be: 20 c2 62     	jsr	$62c2 <_ZN12_GLOBAL__N_13putEcP6Status>
    57c1: a5 5c        	lda	$5c                     ; 0x205c <main+0x1bc8>
    57c3: 18           	clc
    57c4: 69 02        	adc	#$2
    57c6: 85 12        	sta	$12                     ; 0x2012 <main+0x1b7e>
    57c8: a5 5d        	lda	$5d                     ; 0x205d <main+0x1bc9>
    57ca: 69 00        	adc	#$0
    57cc: 85 13        	sta	$13                     ; 0x2013 <main+0x1b7f>
    57ce: 60           	rts
    57cf: 18           	clc
    57d0: a5 5a        	lda	$5a                     ; 0x205a <main+0x1bc6>
    57d2: 69 0b        	adc	#$b
    57d4: 85 18        	sta	$18                     ; 0x2018 <main+0x1b84>
    57d6: a5 5b        	lda	$5b                     ; 0x205b <main+0x1bc7>
    57d8: 69 00        	adc	#$0
    57da: 85 19        	sta	$19                     ; 0x2019 <main+0x1b85>
    57dc: a2 10        	ldx	#$10
    57de: 86 83        	stx	$83                     ; 0x2083 <main+0x1bef>
    57e0: a9 00        	lda	#$0
    57e2: a0 0b        	ldy	#$b
    57e4: 91 5a        	sta	($5a),y                 ; 0x205a <main+0x1bc6>
    57e6: 18           	clc
    57e7: a5 5a        	lda	$5a                     ; 0x205a <main+0x1bc6>
    57e9: 69 0d        	adc	#$d
    57eb: aa           	tax
    57ec: a5 5b        	lda	$5b                     ; 0x205b <main+0x1bc7>
    57ee: 69 00        	adc	#$0
    57f0: 86 16        	stx	$16                     ; 0x2016 <main+0x1b82>
    57f2: a0 0d        	ldy	#$d
    57f4: 85 17        	sta	$17                     ; 0x2017 <main+0x1b83>
    57f6: a9 ff        	lda	#$ff
    57f8: 91 5a        	sta	($5a),y                 ; 0x205a <main+0x1bc6>
    57fa: a0 01        	ldy	#$1
    57fc: 91 16        	sta	($16),y                 ; 0x2016 <main+0x1b82>
    57fe: a2 00        	ldx	#$0
    5800: 86 86        	stx	$86                     ; 0x2086 <main+0x1bf2>
    5802: a6 5a        	ldx	$5a                     ; 0x205a <main+0x1bc6>
    5804: 86 16        	stx	$16                     ; 0x2016 <main+0x1b82>
    5806: a6 5b        	ldx	$5b                     ; 0x205b <main+0x1bc7>
    5808: 86 17        	stx	$17                     ; 0x2017 <main+0x1b83>
    580a: e6 16        	inc	$16                     ; 0x2016 <main+0x1b82>
    580c: d0 02        	bne	$5810 <_ZN12_GLOBAL__N_15printEPKcP6Status+0x82>
    580e: e6 17        	inc	$17                     ; 0x2017 <main+0x1b83>
    5810: a9 00        	lda	#$0
    5812: 91 5a        	sta	($5a),y                 ; 0x205a <main+0x1bc6>
    5814: 91 16        	sta	($16),y                 ; 0x2016 <main+0x1b82>
    5816: 92 5a        	sta	($5a)                   ; 0x205a <main+0x1bc6>
    5818: 91 18        	sta	($18),y                 ; 0x2018 <main+0x1b84>
    581a: 64 60        	stz	$60                     ; 0x2060 <main+0x1bcc>
    581c: 80 33        	bra	$5851 <_ZN12_GLOBAL__N_15printEPKcP6Status+0xc3>
    581e: a2 02        	ldx	#$2
    5820: 80 15        	bra	$5837 <_ZN12_GLOBAL__N_15printEPKcP6Status+0xa9>
    5822: e0 20        	cpx	#$20
    5824: f0 15        	beq	$583b <_ZN12_GLOBAL__N_15printEPKcP6Status+0xad>
    5826: 86 19        	stx	$19                     ; 0x2019 <main+0x1b85>
    5828: e0 23        	cpx	#$23
    582a: f0 03        	beq	$582f <_ZN12_GLOBAL__N_15printEPKcP6Status+0xa1>
    582c: 4c 9e 58     	jmp	$589e <_ZN12_GLOBAL__N_15printEPKcP6Status+0x110>
    582f: a5 60        	lda	$60                     ; 0x2060 <main+0x1bcc>
    5831: a2 04        	ldx	#$4
    5833: 80 02        	bra	$5837 <_ZN12_GLOBAL__N_15printEPKcP6Status+0xa9>
    5835: a2 10        	ldx	#$10
    5837: 86 18        	stx	$18                     ; 0x2018 <main+0x1b84>
    5839: 80 06        	bra	$5841 <_ZN12_GLOBAL__N_15printEPKcP6Status+0xb3>
    583b: a2 08        	ldx	#$8
    583d: 86 18        	stx	$18                     ; 0x2018 <main+0x1b84>
    583f: a5 60        	lda	$60                     ; 0x2060 <main+0x1bcc>
    5841: 05 18        	ora	$18                     ; 0x2018 <main+0x1b84>
    5843: 85 60        	sta	$60                     ; 0x2060 <main+0x1bcc>
    5845: 91 5a        	sta	($5a),y                 ; 0x205a <main+0x1bc6>
    5847: a9 00        	lda	#$0
    5849: 91 16        	sta	($16),y                 ; 0x2016 <main+0x1b82>
    584b: e6 14        	inc	$14                     ; 0x2014 <main+0x1b80>
    584d: d0 02        	bne	$5851 <_ZN12_GLOBAL__N_15printEPKcP6Status+0xc3>
    584f: e6 15        	inc	$15                     ; 0x2015 <main+0x1b81>
    5851: b2 14        	lda	($14)                   ; 0x2014 <main+0x1b80>
    5853: aa           	tax
    5854: 18           	clc
    5855: 69 d6        	adc	#$d6
    5857: c9 07        	cmp	#$7
    5859: b0 c7        	bcs	$5822 <_ZN12_GLOBAL__N_15printEPKcP6Status+0x94>
    585b: 86 19        	stx	$19                     ; 0x2019 <main+0x1b85>
    585d: 0a           	asl
    585e: aa           	tax
    585f: a9 01        	lda	#$1
    5861: 85 18        	sta	$18                     ; 0x2018 <main+0x1b84>
    5863: a5 60        	lda	$60                     ; 0x2060 <main+0x1bcc>
    5865: 7c 66 66     	jmp	($6666,x)               ; 0x6666 <__set_v+0x17>
    5868: a0 11        	ldy	#$11
    586a: a5 5a        	lda	$5a                     ; 0x205a <main+0x1bc6>
    586c: 18           	clc
    586d: 69 11        	adc	#$11
    586f: 85 16        	sta	$16                     ; 0x2016 <main+0x1b82>
    5871: a5 5b        	lda	$5b                     ; 0x205b <main+0x1bc7>
    5873: 69 00        	adc	#$0
    5875: 85 17        	sta	$17                     ; 0x2017 <main+0x1b83>
    5877: b1 5a        	lda	($5a),y                 ; 0x205a <main+0x1bc6>
    5879: 85 18        	sta	$18                     ; 0x2018 <main+0x1b84>
    587b: 18           	clc
    587c: 69 02        	adc	#$2
    587e: 91 5a        	sta	($5a),y                 ; 0x205a <main+0x1bc6>
    5880: a0 01        	ldy	#$1
    5882: b1 16        	lda	($16),y                 ; 0x2016 <main+0x1b82>
    5884: 85 19        	sta	$19                     ; 0x2019 <main+0x1b85>
    5886: 69 00        	adc	#$0
    5888: 91 16        	sta	($16),y                 ; 0x2016 <main+0x1b82>
    588a: b2 18        	lda	($18)                   ; 0x2018 <main+0x1b84>
    588c: 85 17        	sta	$17                     ; 0x2017 <main+0x1b83>
    588e: b1 18        	lda	($18),y                 ; 0x2018 <main+0x1b84>
    5890: 85 16        	sta	$16                     ; 0x2016 <main+0x1b82>
    5892: 10 03        	bpl	$5897 <_ZN12_GLOBAL__N_15printEPKcP6Status+0x109>
    5894: 4c 25 59     	jmp	$5925 <_ZN12_GLOBAL__N_15printEPKcP6Status+0x197>
    5897: a6 17        	ldx	$17                     ; 0x2017 <main+0x1b83>
    5899: 85 1a        	sta	$1a                     ; 0x201a <main+0x1b86>
    589b: 4c 4f 59     	jmp	$594f <_ZN12_GLOBAL__N_15printEPKcP6Status+0x1c1>
    589e: 18           	clc
    589f: a5 19        	lda	$19                     ; 0x2019 <main+0x1b85>
    58a1: 69 d0        	adc	#$d0
    58a3: c9 0a        	cmp	#$a
    58a5: 90 03        	bcc	$58aa <_ZN12_GLOBAL__N_15printEPKcP6Status+0x11c>
    58a7: 4c 00 59     	jmp	$5900 <_ZN12_GLOBAL__N_15printEPKcP6Status+0x172>
    58aa: a6 19        	ldx	$19                     ; 0x2019 <main+0x1b85>
    58ac: 86 16        	stx	$16                     ; 0x2016 <main+0x1b82>
    58ae: 64 18        	stz	$18                     ; 0x2018 <main+0x1b84>
    58b0: a0 01        	ldy	#$1
    58b2: 64 17        	stz	$17                     ; 0x2017 <main+0x1b83>
    58b4: 64 19        	stz	$19                     ; 0x2019 <main+0x1b85>
    58b6: 06 18        	asl	$18                     ; 0x2018 <main+0x1b84>
    58b8: 26 19        	rol	$19                     ; 0x2019 <main+0x1b85>
    58ba: a5 18        	lda	$18                     ; 0x2018 <main+0x1b84>
    58bc: 0a           	asl
    58bd: aa           	tax
    58be: a5 19        	lda	$19                     ; 0x2019 <main+0x1b85>
    58c0: 2a           	rol
    58c1: 86 1a        	stx	$1a                     ; 0x201a <main+0x1b86>
    58c3: 06 1a        	asl	$1a                     ; 0x201a <main+0x1b86>
    58c5: 2a           	rol
    58c6: aa           	tax
    58c7: a5 1a        	lda	$1a                     ; 0x201a <main+0x1b86>
    58c9: 18           	clc
    58ca: 65 18        	adc	$18                     ; 0x2018 <main+0x1b84>
    58cc: 85 18        	sta	$18                     ; 0x2018 <main+0x1b84>
    58ce: 8a           	txa
    58cf: 65 19        	adc	$19                     ; 0x2019 <main+0x1b85>
    58d1: 85 19        	sta	$19                     ; 0x2019 <main+0x1b85>
    58d3: a5 18        	lda	$18                     ; 0x2018 <main+0x1b84>
    58d5: 18           	clc
    58d6: 65 16        	adc	$16                     ; 0x2016 <main+0x1b82>
    58d8: 85 16        	sta	$16                     ; 0x2016 <main+0x1b82>
    58da: a5 19        	lda	$19                     ; 0x2019 <main+0x1b85>
    58dc: 65 17        	adc	$17                     ; 0x2017 <main+0x1b83>
    58de: aa           	tax
    58df: 18           	clc
    58e0: a5 16        	lda	$16                     ; 0x2016 <main+0x1b82>
    58e2: 69 d0        	adc	#$d0
    58e4: 85 18        	sta	$18                     ; 0x2018 <main+0x1b84>
    58e6: 8a           	txa
    58e7: 69 ff        	adc	#$ff
    58e9: 85 19        	sta	$19                     ; 0x2019 <main+0x1b85>
    58eb: b1 14        	lda	($14),y                 ; 0x2014 <main+0x1b80>
    58ed: 85 16        	sta	$16                     ; 0x2016 <main+0x1b82>
    58ef: 18           	clc
    58f0: 69 d0        	adc	#$d0
    58f2: e6 14        	inc	$14                     ; 0x2014 <main+0x1b80>
    58f4: d0 02        	bne	$58f8 <_ZN12_GLOBAL__N_15printEPKcP6Status+0x16a>
    58f6: e6 15        	inc	$15                     ; 0x2015 <main+0x1b81>
    58f8: c9 0a        	cmp	#$a
    58fa: 64 17        	stz	$17                     ; 0x2017 <main+0x1b83>
    58fc: 90 b8        	bcc	$58b6 <_ZN12_GLOBAL__N_15printEPKcP6Status+0x128>
    58fe: 80 04        	bra	$5904 <_ZN12_GLOBAL__N_15printEPKcP6Status+0x176>
    5900: 64 18        	stz	$18                     ; 0x2018 <main+0x1b84>
    5902: 64 19        	stz	$19                     ; 0x2019 <main+0x1b85>
    5904: a5 5a        	lda	$5a                     ; 0x205a <main+0x1bc6>
    5906: 18           	clc
    5907: 69 0b        	adc	#$b
    5909: 85 16        	sta	$16                     ; 0x2016 <main+0x1b82>
    590b: a5 5b        	lda	$5b                     ; 0x205b <main+0x1bc7>
    590d: 69 00        	adc	#$0
    590f: 85 17        	sta	$17                     ; 0x2017 <main+0x1b83>
    5911: a0 0b        	ldy	#$b
    5913: a5 18        	lda	$18                     ; 0x2018 <main+0x1b84>
    5915: 91 5a        	sta	($5a),y                 ; 0x205a <main+0x1bc6>
    5917: a6 18        	ldx	$18                     ; 0x2018 <main+0x1b84>
    5919: a0 01        	ldy	#$1
    591b: a5 19        	lda	$19                     ; 0x2019 <main+0x1b85>
    591d: 91 16        	sta	($16),y                 ; 0x2016 <main+0x1b82>
    591f: 86 16        	stx	$16                     ; 0x2016 <main+0x1b82>
    5921: 85 17        	sta	$17                     ; 0x2017 <main+0x1b83>
    5923: 80 4c        	bra	$5971 <_ZN12_GLOBAL__N_15printEPKcP6Status+0x1e3>
    5925: a5 60        	lda	$60                     ; 0x2060 <main+0x1bcc>
    5927: 09 01        	ora	#$1
    5929: 85 1b        	sta	$1b                     ; 0x201b <main+0x1b87>
    592b: a6 5a        	ldx	$5a                     ; 0x205a <main+0x1bc6>
    592d: 86 18        	stx	$18                     ; 0x2018 <main+0x1b84>
    592f: a6 5b        	ldx	$5b                     ; 0x205b <main+0x1bc7>
    5931: 86 19        	stx	$19                     ; 0x2019 <main+0x1b85>
    5933: 38           	sec
    5934: a9 00        	lda	#$0
    5936: e5 17        	sbc	$17                     ; 0x2017 <main+0x1b83>
    5938: aa           	tax
    5939: a9 00        	lda	#$0
    593b: e5 16        	sbc	$16                     ; 0x2016 <main+0x1b82>
    593d: 85 1a        	sta	$1a                     ; 0x201a <main+0x1b86>
    593f: e6 18        	inc	$18                     ; 0x2018 <main+0x1b84>
    5941: d0 02        	bne	$5945 <_ZN12_GLOBAL__N_15printEPKcP6Status+0x1b7>
    5943: e6 19        	inc	$19                     ; 0x2019 <main+0x1b85>
    5945: a5 1b        	lda	$1b                     ; 0x201b <main+0x1b87>
    5947: 85 60        	sta	$60                     ; 0x2060 <main+0x1bcc>
    5949: 91 5a        	sta	($5a),y                 ; 0x205a <main+0x1bc6>
    594b: a9 00        	lda	#$0
    594d: 91 18        	sta	($18),y                 ; 0x2018 <main+0x1b84>
    594f: a5 5a        	lda	$5a                     ; 0x205a <main+0x1bc6>
    5951: 18           	clc
    5952: 69 0b        	adc	#$b
    5954: 85 16        	sta	$16                     ; 0x2016 <main+0x1b82>
    5956: a5 5b        	lda	$5b                     ; 0x205b <main+0x1bc7>
    5958: 69 00        	adc	#$0
    595a: 85 17        	sta	$17                     ; 0x2017 <main+0x1b83>
    595c: a0 0b        	ldy	#$b
    595e: 8a           	txa
    595f: 91 5a        	sta	($5a),y                 ; 0x205a <main+0x1bc6>
    5961: a5 1a        	lda	$1a                     ; 0x201a <main+0x1b86>
    5963: a0 01        	ldy	#$1
    5965: 91 16        	sta	($16),y                 ; 0x2016 <main+0x1b82>
    5967: 86 16        	stx	$16                     ; 0x2016 <main+0x1b82>
    5969: 85 17        	sta	$17                     ; 0x2017 <main+0x1b83>
    596b: e6 14        	inc	$14                     ; 0x2014 <main+0x1b80>
    596d: d0 02        	bne	$5971 <_ZN12_GLOBAL__N_15printEPKcP6Status+0x1e3>
    596f: e6 15        	inc	$15                     ; 0x2015 <main+0x1b81>
    5971: b2 14        	lda	($14)                   ; 0x2014 <main+0x1b80>
    5973: a2 ff        	ldx	#$ff
    5975: c9 2e        	cmp	#$2e
    5977: f0 03        	beq	$597c <_ZN12_GLOBAL__N_15printEPKcP6Status+0x1ee>
    5979: 4c fb 59     	jmp	$59fb <_ZN12_GLOBAL__N_15printEPKcP6Status+0x26d>
    597c: a6 14        	ldx	$14                     ; 0x2014 <main+0x1b80>
    597e: 86 18        	stx	$18                     ; 0x2018 <main+0x1b84>
    5980: a6 15        	ldx	$15                     ; 0x2015 <main+0x1b81>
    5982: 86 19        	stx	$19                     ; 0x2019 <main+0x1b85>
    5984: e6 18        	inc	$18                     ; 0x2018 <main+0x1b84>
    5986: d0 02        	bne	$598a <_ZN12_GLOBAL__N_15printEPKcP6Status+0x1fc>
    5988: e6 19        	inc	$19                     ; 0x2019 <main+0x1b85>
    598a: b1 14        	lda	($14),y                 ; 0x2014 <main+0x1b80>
    598c: c9 2a        	cmp	#$2a
    598e: f0 03        	beq	$5993 <_ZN12_GLOBAL__N_15printEPKcP6Status+0x205>
    5990: 4c 02 5a     	jmp	$5a02 <_ZN12_GLOBAL__N_15printEPKcP6Status+0x274>
    5993: a0 11        	ldy	#$11
    5995: b1 5a        	lda	($5a),y                 ; 0x205a <main+0x1bc6>
    5997: 85 18        	sta	$18                     ; 0x2018 <main+0x1b84>
    5999: 18           	clc
    599a: 69 02        	adc	#$2
    599c: a2 01        	ldx	#$1
    599e: b0 02        	bcs	$59a2 <_ZN12_GLOBAL__N_15printEPKcP6Status+0x214>
    59a0: a2 00        	ldx	#$0
    59a2: 86 1d        	stx	$1d                     ; 0x201d <main+0x1b89>
    59a4: 91 5a        	sta	($5a),y                 ; 0x205a <main+0x1bc6>
    59a6: 18           	clc
    59a7: a5 5a        	lda	$5a                     ; 0x205a <main+0x1bc6>
    59a9: 69 11        	adc	#$11
    59ab: 85 1a        	sta	$1a                     ; 0x201a <main+0x1b86>
    59ad: a5 5b        	lda	$5b                     ; 0x205b <main+0x1bc7>
    59af: 69 00        	adc	#$0
    59b1: 85 1b        	sta	$1b                     ; 0x201b <main+0x1b87>
    59b3: a0 01        	ldy	#$1
    59b5: b1 1a        	lda	($1a),y                 ; 0x201a <main+0x1b86>
    59b7: 85 19        	sta	$19                     ; 0x2019 <main+0x1b85>
    59b9: a6 1d        	ldx	$1d                     ; 0x201d <main+0x1b89>
    59bb: e0 01        	cpx	#$1
    59bd: 69 00        	adc	#$0
    59bf: 91 1a        	sta	($1a),y                 ; 0x201a <main+0x1b86>
    59c1: b2 18        	lda	($18)                   ; 0x2018 <main+0x1b84>
    59c3: 85 1b        	sta	$1b                     ; 0x201b <main+0x1b87>
    59c5: 18           	clc
    59c6: a5 5a        	lda	$5a                     ; 0x205a <main+0x1bc6>
    59c8: 69 0d        	adc	#$d
    59ca: 85 1a        	sta	$1a                     ; 0x201a <main+0x1b86>
    59cc: a5 5b        	lda	$5b                     ; 0x205b <main+0x1bc7>
    59ce: 69 00        	adc	#$0
    59d0: aa           	tax
    59d1: b1 18        	lda	($18),y                 ; 0x2018 <main+0x1b84>
    59d3: 85 1c        	sta	$1c                     ; 0x201c <main+0x1b88>
    59d5: a4 1a        	ldy	$1a                     ; 0x201a <main+0x1b86>
    59d7: 84 18        	sty	$18                     ; 0x2018 <main+0x1b84>
    59d9: 86 19        	stx	$19                     ; 0x2019 <main+0x1b85>
    59db: a5 1b        	lda	$1b                     ; 0x201b <main+0x1b87>
    59dd: 85 1a        	sta	$1a                     ; 0x201a <main+0x1b86>
    59df: a0 0d        	ldy	#$d
    59e1: 91 5a        	sta	($5a),y                 ; 0x205a <main+0x1bc6>
    59e3: a5 1c        	lda	$1c                     ; 0x201c <main+0x1b88>
    59e5: 85 1e        	sta	$1e                     ; 0x201e <main+0x1b8a>
    59e7: a0 01        	ldy	#$1
    59e9: 91 18        	sta	($18),y                 ; 0x2018 <main+0x1b84>
    59eb: a5 14        	lda	$14                     ; 0x2014 <main+0x1b80>
    59ed: 18           	clc
    59ee: 69 02        	adc	#$2
    59f0: 85 18        	sta	$18                     ; 0x2018 <main+0x1b84>
    59f2: a5 15        	lda	$15                     ; 0x2015 <main+0x1b81>
    59f4: 69 00        	adc	#$0
    59f6: 85 19        	sta	$19                     ; 0x2019 <main+0x1b85>
    59f8: 4c c8 5a     	jmp	$5ac8 <_ZN12_GLOBAL__N_15printEPKcP6Status+0x33a>
    59fb: 86 1a        	stx	$1a                     ; 0x201a <main+0x1b86>
    59fd: 86 1b        	stx	$1b                     ; 0x201b <main+0x1b87>
    59ff: 4c f0 5a     	jmp	$5af0 <_ZN12_GLOBAL__N_15printEPKcP6Status+0x362>
    5a02: 18           	clc
    5a03: 85 1c        	sta	$1c                     ; 0x201c <main+0x1b88>
    5a05: 69 d0        	adc	#$d0
    5a07: c9 0a        	cmp	#$a
    5a09: 90 03        	bcc	$5a0e <_ZN12_GLOBAL__N_15printEPKcP6Status+0x280>
    5a0b: 4c ad 5a     	jmp	$5aad <_ZN12_GLOBAL__N_15printEPKcP6Status+0x31f>
    5a0e: 64 1b        	stz	$1b                     ; 0x201b <main+0x1b87>
    5a10: 64 1f        	stz	$1f                     ; 0x201f <main+0x1b8b>
    5a12: 64 1e        	stz	$1e                     ; 0x201e <main+0x1b8a>
    5a14: a2 01        	ldx	#$1
    5a16: 64 1a        	stz	$1a                     ; 0x201a <main+0x1b86>
    5a18: 5a           	phy
    5a19: a4 1a        	ldy	$1a                     ; 0x201a <main+0x1b86>
    5a1b: 84 18        	sty	$18                     ; 0x2018 <main+0x1b84>
    5a1d: 86 19        	stx	$19                     ; 0x2019 <main+0x1b85>
    5a1f: a5 1f        	lda	$1f                     ; 0x201f <main+0x1b8b>
    5a21: 0a           	asl
    5a22: 85 1d        	sta	$1d                     ; 0x201d <main+0x1b89>
    5a24: 26 1e        	rol	$1e                     ; 0x201e <main+0x1b8a>
    5a26: 0a           	asl
    5a27: a4 1e        	ldy	$1e                     ; 0x201e <main+0x1b8a>
    5a29: 84 1f        	sty	$1f                     ; 0x201f <main+0x1b8b>
    5a2b: 7a           	ply
    5a2c: 26 1f        	rol	$1f                     ; 0x201f <main+0x1b8b>
    5a2e: 0a           	asl
    5a2f: 26 1f        	rol	$1f                     ; 0x201f <main+0x1b8b>
    5a31: 18           	clc
    5a32: 65 1d        	adc	$1d                     ; 0x201d <main+0x1b89>
    5a34: 85 22        	sta	$22                     ; 0x2022 <main+0x1b8e>
    5a36: a5 1f        	lda	$1f                     ; 0x201f <main+0x1b8b>
    5a38: 65 1e        	adc	$1e                     ; 0x201e <main+0x1b8a>
    5a3a: 85 1d        	sta	$1d                     ; 0x201d <main+0x1b89>
    5a3c: 18           	clc
    5a3d: a5 22        	lda	$22                     ; 0x2022 <main+0x1b8e>
    5a3f: 65 1c        	adc	$1c                     ; 0x201c <main+0x1b88>
    5a41: 85 1c        	sta	$1c                     ; 0x201c <main+0x1b88>
    5a43: a5 1d        	lda	$1d                     ; 0x201d <main+0x1b89>
    5a45: 65 1b        	adc	$1b                     ; 0x201b <main+0x1b87>
    5a47: 85 1b        	sta	$1b                     ; 0x201b <main+0x1b87>
    5a49: 18           	clc
    5a4a: a5 1c        	lda	$1c                     ; 0x201c <main+0x1b88>
    5a4c: 69 d0        	adc	#$d0
    5a4e: 85 1c        	sta	$1c                     ; 0x201c <main+0x1b88>
    5a50: a5 1b        	lda	$1b                     ; 0x201b <main+0x1b87>
    5a52: 69 ff        	adc	#$ff
    5a54: 85 1e        	sta	$1e                     ; 0x201e <main+0x1b8a>
    5a56: a5 1c        	lda	$1c                     ; 0x201c <main+0x1b88>
    5a58: 85 1f        	sta	$1f                     ; 0x201f <main+0x1b8b>
    5a5a: e8           	inx
    5a5b: d0 02        	bne	$5a5f <_ZN12_GLOBAL__N_15printEPKcP6Status+0x2d1>
    5a5d: e6 1a        	inc	$1a                     ; 0x201a <main+0x1b86>
    5a5f: a5 14        	lda	$14                     ; 0x2014 <main+0x1b80>
    5a61: 18           	clc
    5a62: 65 19        	adc	$19                     ; 0x2019 <main+0x1b85>
    5a64: 85 1c        	sta	$1c                     ; 0x201c <main+0x1b88>
    5a66: a5 15        	lda	$15                     ; 0x2015 <main+0x1b81>
    5a68: 65 18        	adc	$18                     ; 0x2018 <main+0x1b84>
    5a6a: 85 1d        	sta	$1d                     ; 0x201d <main+0x1b89>
    5a6c: b1 1c        	lda	($1c),y                 ; 0x201c <main+0x1b88>
    5a6e: 85 1c        	sta	$1c                     ; 0x201c <main+0x1b88>
    5a70: 18           	clc
    5a71: 69 d0        	adc	#$d0
    5a73: c9 0a        	cmp	#$a
    5a75: 64 1b        	stz	$1b                     ; 0x201b <main+0x1b87>
    5a77: b0 03        	bcs	$5a7c <_ZN12_GLOBAL__N_15printEPKcP6Status+0x2ee>
    5a79: 4c 18 5a     	jmp	$5a18 <_ZN12_GLOBAL__N_15printEPKcP6Status+0x28a>
    5a7c: a5 14        	lda	$14                     ; 0x2014 <main+0x1b80>
    5a7e: 18           	clc
    5a7f: 65 19        	adc	$19                     ; 0x2019 <main+0x1b85>
    5a81: aa           	tax
    5a82: a5 15        	lda	$15                     ; 0x2015 <main+0x1b81>
    5a84: 65 18        	adc	$18                     ; 0x2018 <main+0x1b84>
    5a86: 86 18        	stx	$18                     ; 0x2018 <main+0x1b84>
    5a88: 85 19        	sta	$19                     ; 0x2019 <main+0x1b85>
    5a8a: a5 5a        	lda	$5a                     ; 0x205a <main+0x1bc6>
    5a8c: 18           	clc
    5a8d: 69 0d        	adc	#$d
    5a8f: 85 14        	sta	$14                     ; 0x2014 <main+0x1b80>
    5a91: a5 5b        	lda	$5b                     ; 0x205b <main+0x1bc7>
    5a93: 69 00        	adc	#$0
    5a95: a0 0d        	ldy	#$d
    5a97: 85 15        	sta	$15                     ; 0x2015 <main+0x1b81>
    5a99: a5 1f        	lda	$1f                     ; 0x201f <main+0x1b8b>
    5a9b: 85 1a        	sta	$1a                     ; 0x201a <main+0x1b86>
    5a9d: 91 5a        	sta	($5a),y                 ; 0x205a <main+0x1bc6>
    5a9f: a0 01        	ldy	#$1
    5aa1: a5 1e        	lda	$1e                     ; 0x201e <main+0x1b8a>
    5aa3: 91 14        	sta	($14),y                 ; 0x2014 <main+0x1b80>
    5aa5: e6 18        	inc	$18                     ; 0x2018 <main+0x1b84>
    5aa7: d0 1f        	bne	$5ac8 <_ZN12_GLOBAL__N_15printEPKcP6Status+0x33a>
    5aa9: e6 19        	inc	$19                     ; 0x2019 <main+0x1b85>
    5aab: 80 1b        	bra	$5ac8 <_ZN12_GLOBAL__N_15printEPKcP6Status+0x33a>
    5aad: a0 0d        	ldy	#$d
    5aaf: a5 5a        	lda	$5a                     ; 0x205a <main+0x1bc6>
    5ab1: 18           	clc
    5ab2: 69 0d        	adc	#$d
    5ab4: 85 14        	sta	$14                     ; 0x2014 <main+0x1b80>
    5ab6: a5 5b        	lda	$5b                     ; 0x205b <main+0x1bc7>
    5ab8: 69 00        	adc	#$0
    5aba: 85 15        	sta	$15                     ; 0x2015 <main+0x1b81>
    5abc: a9 00        	lda	#$0
    5abe: 91 5a        	sta	($5a),y                 ; 0x205a <main+0x1bc6>
    5ac0: a0 01        	ldy	#$1
    5ac2: 64 1a        	stz	$1a                     ; 0x201a <main+0x1b86>
    5ac4: 91 14        	sta	($14),y                 ; 0x2014 <main+0x1b80>
    5ac6: 64 1e        	stz	$1e                     ; 0x201e <main+0x1b8a>
    5ac8: a5 60        	lda	$60                     ; 0x2060 <main+0x1bcc>
    5aca: 29 ef        	and	#$ef
    5acc: a6 5a        	ldx	$5a                     ; 0x205a <main+0x1bc6>
    5ace: 86 14        	stx	$14                     ; 0x2014 <main+0x1b80>
    5ad0: a6 5b        	ldx	$5b                     ; 0x205b <main+0x1bc7>
    5ad2: 86 15        	stx	$15                     ; 0x2015 <main+0x1b81>
    5ad4: e6 14        	inc	$14                     ; 0x2014 <main+0x1b80>
    5ad6: d0 02        	bne	$5ada <_ZN12_GLOBAL__N_15printEPKcP6Status+0x34c>
    5ad8: e6 15        	inc	$15                     ; 0x2015 <main+0x1b81>
    5ada: 85 60        	sta	$60                     ; 0x2060 <main+0x1bcc>
    5adc: 91 5a        	sta	($5a),y                 ; 0x205a <main+0x1bc6>
    5ade: a9 00        	lda	#$0
    5ae0: 91 14        	sta	($14),y                 ; 0x2014 <main+0x1b80>
    5ae2: b2 18        	lda	($18)                   ; 0x2018 <main+0x1b84>
    5ae4: a6 1e        	ldx	$1e                     ; 0x201e <main+0x1b8a>
    5ae6: 86 1b        	stx	$1b                     ; 0x201b <main+0x1b87>
    5ae8: a6 18        	ldx	$18                     ; 0x2018 <main+0x1b84>
    5aea: 86 14        	stx	$14                     ; 0x2014 <main+0x1b80>
    5aec: a6 19        	ldx	$19                     ; 0x2019 <main+0x1b85>
    5aee: 86 15        	stx	$15                     ; 0x2015 <main+0x1b81>
    5af0: a6 14        	ldx	$14                     ; 0x2014 <main+0x1b80>
    5af2: 86 18        	stx	$18                     ; 0x2018 <main+0x1b84>
    5af4: a6 15        	ldx	$15                     ; 0x2015 <main+0x1b81>
    5af6: 86 19        	stx	$19                     ; 0x2019 <main+0x1b85>
    5af8: e6 18        	inc	$18                     ; 0x2018 <main+0x1b84>
    5afa: d0 02        	bne	$5afe <_ZN12_GLOBAL__N_15printEPKcP6Status+0x370>
    5afc: e6 19        	inc	$19                     ; 0x2019 <main+0x1b85>
    5afe: 38           	sec
    5aff: aa           	tax
    5b00: e9 6c        	sbc	#$6c
    5b02: 50 02        	bvc	$5b06 <_ZN12_GLOBAL__N_15printEPKcP6Status+0x378>
    5b04: 49 80        	eor	#$80
    5b06: c9 00        	cmp	#$0
    5b08: 10 20        	bpl	$5b2a <_ZN12_GLOBAL__N_15printEPKcP6Status+0x39c>
    5b0a: e0 4c        	cpx	#$4c
    5b0c: f0 3a        	beq	$5b48 <_ZN12_GLOBAL__N_15printEPKcP6Status+0x3ba>
    5b0e: 8a           	txa
    5b0f: e0 68        	cpx	#$68
    5b11: d0 03        	bne	$5b16 <_ZN12_GLOBAL__N_15printEPKcP6Status+0x388>
    5b13: 4c da 5b     	jmp	$5bda <_ZN12_GLOBAL__N_15printEPKcP6Status+0x44c>
    5b16: a0 08        	ldy	#$8
    5b18: a2 02        	ldx	#$2
    5b1a: c9 6a        	cmp	#$6a
    5b1c: d0 26        	bne	$5b44 <_ZN12_GLOBAL__N_15printEPKcP6Status+0x3b6>
    5b1e: a6 18        	ldx	$18                     ; 0x2018 <main+0x1b84>
    5b20: 86 14        	stx	$14                     ; 0x2014 <main+0x1b80>
    5b22: a6 19        	ldx	$19                     ; 0x2019 <main+0x1b85>
    5b24: 86 15        	stx	$15                     ; 0x2015 <main+0x1b81>
    5b26: a2 08        	ldx	#$8
    5b28: 80 44        	bra	$5b6e <_ZN12_GLOBAL__N_15printEPKcP6Status+0x3e0>
    5b2a: e0 6c        	cpx	#$6c
    5b2c: d0 03        	bne	$5b31 <_ZN12_GLOBAL__N_15printEPKcP6Status+0x3a3>
    5b2e: 4c be 5b     	jmp	$5bbe <_ZN12_GLOBAL__N_15printEPKcP6Status+0x430>
    5b31: 8a           	txa
    5b32: e0 74        	cpx	#$74
    5b34: f0 2c        	beq	$5b62 <_ZN12_GLOBAL__N_15printEPKcP6Status+0x3d4>
    5b36: a2 02        	ldx	#$2
    5b38: c9 7a        	cmp	#$7a
    5b3a: d0 08        	bne	$5b44 <_ZN12_GLOBAL__N_15printEPKcP6Status+0x3b6>
    5b3c: a4 18        	ldy	$18                     ; 0x2018 <main+0x1b84>
    5b3e: 84 14        	sty	$14                     ; 0x2014 <main+0x1b80>
    5b40: a4 19        	ldy	$19                     ; 0x2019 <main+0x1b85>
    5b42: 84 15        	sty	$15                     ; 0x2015 <main+0x1b81>
    5b44: a0 02        	ldy	#$2
    5b46: 80 26        	bra	$5b6e <_ZN12_GLOBAL__N_15printEPKcP6Status+0x3e0>
    5b48: a5 60        	lda	$60                     ; 0x2060 <main+0x1bcc>
    5b4a: 09 40        	ora	#$40
    5b4c: a6 5a        	ldx	$5a                     ; 0x205a <main+0x1bc6>
    5b4e: 86 14        	stx	$14                     ; 0x2014 <main+0x1b80>
    5b50: a6 5b        	ldx	$5b                     ; 0x205b <main+0x1bc7>
    5b52: 86 15        	stx	$15                     ; 0x2015 <main+0x1b81>
    5b54: e6 14        	inc	$14                     ; 0x2014 <main+0x1b80>
    5b56: d0 02        	bne	$5b5a <_ZN12_GLOBAL__N_15printEPKcP6Status+0x3cc>
    5b58: e6 15        	inc	$15                     ; 0x2015 <main+0x1b81>
    5b5a: 85 60        	sta	$60                     ; 0x2060 <main+0x1bcc>
    5b5c: 91 5a        	sta	($5a),y                 ; 0x205a <main+0x1bc6>
    5b5e: a9 00        	lda	#$0
    5b60: 91 14        	sta	($14),y                 ; 0x2014 <main+0x1b80>
    5b62: a6 18        	ldx	$18                     ; 0x2018 <main+0x1b84>
    5b64: 86 14        	stx	$14                     ; 0x2014 <main+0x1b80>
    5b66: a6 19        	ldx	$19                     ; 0x2019 <main+0x1b85>
    5b68: 86 15        	stx	$15                     ; 0x2015 <main+0x1b81>
    5b6a: a0 02        	ldy	#$2
    5b6c: a2 02        	ldx	#$2
    5b6e: b2 14        	lda	($14)                   ; 0x2014 <main+0x1b80>
    5b70: 5a           	phy
    5b71: a4 14        	ldy	$14                     ; 0x2014 <main+0x1b80>
    5b73: 84 18        	sty	$18                     ; 0x2018 <main+0x1b84>
    5b75: a4 15        	ldy	$15                     ; 0x2015 <main+0x1b81>
    5b77: 84 19        	sty	$19                     ; 0x2019 <main+0x1b85>
    5b79: 7a           	ply
    5b7a: 86 5c        	stx	$5c                     ; 0x205c <main+0x1bc8>
    5b7c: 5a           	phy
    5b7d: fa           	plx
    5b7e: 18           	clc
    5b7f: a8           	tay
    5b80: 69 9d        	adc	#$9d
    5b82: c9 16        	cmp	#$16
    5b84: 86 61        	stx	$61                     ; 0x2061 <main+0x1bcd>
    5b86: 90 03        	bcc	$5b8b <_ZN12_GLOBAL__N_15printEPKcP6Status+0x3fd>
    5b88: 4c f7 5b     	jmp	$5bf7 <_ZN12_GLOBAL__N_15printEPKcP6Status+0x469>
    5b8b: 0a           	asl
    5b8c: aa           	tax
    5b8d: 7c 74 66     	jmp	($6674,x)               ; 0x6674 <__set_v+0x25>
    5b90: a5 1b        	lda	$1b                     ; 0x201b <main+0x1b87>
    5b92: 85 88        	sta	$88                     ; 0x2088 <main+0x1bf4>
    5b94: a4 1a        	ldy	$1a                     ; 0x201a <main+0x1b86>
    5b96: 84 89        	sty	$89                     ; 0x2089 <main+0x1bf5>
    5b98: a6 16        	ldx	$16                     ; 0x2016 <main+0x1b82>
    5b9a: 86 8b        	stx	$8b                     ; 0x208b <main+0x1bf7>
    5b9c: a6 17        	ldx	$17                     ; 0x2017 <main+0x1b83>
    5b9e: 86 8a        	stx	$8a                     ; 0x208a <main+0x1bf6>
    5ba0: a6 18        	ldx	$18                     ; 0x2018 <main+0x1b84>
    5ba2: 86 12        	stx	$12                     ; 0x2012 <main+0x1b7e>
    5ba4: a6 19        	ldx	$19                     ; 0x2019 <main+0x1b85>
    5ba6: 86 13        	stx	$13                     ; 0x2013 <main+0x1b7f>
    5ba8: a6 12        	ldx	$12                     ; 0x2012 <main+0x1b7e>
    5baa: 86 84        	stx	$84                     ; 0x2084 <main+0x1bf0>
    5bac: a6 13        	ldx	$13                     ; 0x2013 <main+0x1b7f>
    5bae: 86 85        	stx	$85                     ; 0x2085 <main+0x1bf1>
    5bb0: a9 0a        	lda	#$a
    5bb2: aa           	tax
    5bb3: 86 83        	stx	$83                     ; 0x2083 <main+0x1bef>
    5bb5: 92 5a        	sta	($5a)                   ; 0x205a <main+0x1bc6>
    5bb7: a2 00        	ldx	#$0
    5bb9: 86 8c        	stx	$8c                     ; 0x208c <main+0x1bf8>
    5bbb: 4c 1b 5e     	jmp	$5e1b <_ZN12_GLOBAL__N_15printEPKcP6Status+0x68d>
    5bbe: b1 14        	lda	($14),y                 ; 0x2014 <main+0x1b80>
    5bc0: a2 04        	ldx	#$4
    5bc2: c9 6c        	cmp	#$6c
    5bc4: d0 2c        	bne	$5bf2 <_ZN12_GLOBAL__N_15printEPKcP6Status+0x464>
    5bc6: a5 14        	lda	$14                     ; 0x2014 <main+0x1b80>
    5bc8: 18           	clc
    5bc9: 69 02        	adc	#$2
    5bcb: 85 14        	sta	$14                     ; 0x2014 <main+0x1b80>
    5bcd: a5 15        	lda	$15                     ; 0x2015 <main+0x1b81>
    5bcf: 69 00        	adc	#$0
    5bd1: 85 15        	sta	$15                     ; 0x2015 <main+0x1b81>
    5bd3: a2 08        	ldx	#$8
    5bd5: a0 08        	ldy	#$8
    5bd7: 4c 6e 5b     	jmp	$5b6e <_ZN12_GLOBAL__N_15printEPKcP6Status+0x3e0>
    5bda: b1 14        	lda	($14),y                 ; 0x2014 <main+0x1b80>
    5bdc: a2 02        	ldx	#$2
    5bde: c9 68        	cmp	#$68
    5be0: d0 10        	bne	$5bf2 <_ZN12_GLOBAL__N_15printEPKcP6Status+0x464>
    5be2: a5 14        	lda	$14                     ; 0x2014 <main+0x1b80>
    5be4: 18           	clc
    5be5: 69 02        	adc	#$2
    5be7: 85 14        	sta	$14                     ; 0x2014 <main+0x1b80>
    5be9: a5 15        	lda	$15                     ; 0x2015 <main+0x1b81>
    5beb: 69 00        	adc	#$0
    5bed: 85 15        	sta	$15                     ; 0x2015 <main+0x1b81>
    5bef: 4c 6e 5b     	jmp	$5b6e <_ZN12_GLOBAL__N_15printEPKcP6Status+0x3e0>
    5bf2: 86 5c        	stx	$5c                     ; 0x205c <main+0x1bc8>
    5bf4: 4c 7e 5b     	jmp	$5b7e <_ZN12_GLOBAL__N_15printEPKcP6Status+0x3f0>
    5bf7: c0 58        	cpy	#$58
    5bf9: f0 03        	beq	$5bfe <_ZN12_GLOBAL__N_15printEPKcP6Status+0x470>
    5bfb: 4c c1 62     	jmp	$62c1 <_ZN12_GLOBAL__N_15printEPKcP6Status+0xb33>
    5bfe: a5 1b        	lda	$1b                     ; 0x201b <main+0x1b87>
    5c00: 85 88        	sta	$88                     ; 0x2088 <main+0x1bf4>
    5c02: a4 1a        	ldy	$1a                     ; 0x201a <main+0x1b86>
    5c04: 84 89        	sty	$89                     ; 0x2089 <main+0x1bf5>
    5c06: a6 16        	ldx	$16                     ; 0x2016 <main+0x1b82>
    5c08: 86 8b        	stx	$8b                     ; 0x208b <main+0x1bf7>
    5c0a: a6 17        	ldx	$17                     ; 0x2017 <main+0x1b83>
    5c0c: 86 8a        	stx	$8a                     ; 0x208a <main+0x1bf6>
    5c0e: a6 18        	ldx	$18                     ; 0x2018 <main+0x1b84>
    5c10: 86 12        	stx	$12                     ; 0x2012 <main+0x1b7e>
    5c12: a6 19        	ldx	$19                     ; 0x2019 <main+0x1b85>
    5c14: 86 13        	stx	$13                     ; 0x2013 <main+0x1b7f>
    5c16: a6 12        	ldx	$12                     ; 0x2012 <main+0x1b7e>
    5c18: 86 84        	stx	$84                     ; 0x2084 <main+0x1bf0>
    5c1a: a6 13        	ldx	$13                     ; 0x2013 <main+0x1b7f>
    5c1c: 86 85        	stx	$85                     ; 0x2085 <main+0x1bf1>
    5c1e: a9 10        	lda	#$10
    5c20: 4c fb 5d     	jmp	$5dfb <_ZN12_GLOBAL__N_15printEPKcP6Status+0x66d>
    5c23: a5 1b        	lda	$1b                     ; 0x201b <main+0x1b87>
    5c25: 85 88        	sta	$88                     ; 0x2088 <main+0x1bf4>
    5c27: a4 1a        	ldy	$1a                     ; 0x201a <main+0x1b86>
    5c29: 84 89        	sty	$89                     ; 0x2089 <main+0x1bf5>
    5c2b: a6 16        	ldx	$16                     ; 0x2016 <main+0x1b82>
    5c2d: 86 8b        	stx	$8b                     ; 0x208b <main+0x1bf7>
    5c2f: a6 17        	ldx	$17                     ; 0x2017 <main+0x1b83>
    5c31: 86 8a        	stx	$8a                     ; 0x208a <main+0x1bf6>
    5c33: a6 18        	ldx	$18                     ; 0x2018 <main+0x1b84>
    5c35: 86 12        	stx	$12                     ; 0x2012 <main+0x1b7e>
    5c37: a6 19        	ldx	$19                     ; 0x2019 <main+0x1b85>
    5c39: 86 13        	stx	$13                     ; 0x2013 <main+0x1b7f>
    5c3b: a6 12        	ldx	$12                     ; 0x2012 <main+0x1b7e>
    5c3d: 86 84        	stx	$84                     ; 0x2084 <main+0x1bf0>
    5c3f: a6 13        	ldx	$13                     ; 0x2013 <main+0x1b7f>
    5c41: 86 85        	stx	$85                     ; 0x2085 <main+0x1bf1>
    5c43: a9 10        	lda	#$10
    5c45: 92 5a        	sta	($5a)                   ; 0x205a <main+0x1bc6>
    5c47: a5 60        	lda	$60                     ; 0x2060 <main+0x1bcc>
    5c49: 09 84        	ora	#$84
    5c4b: aa           	tax
    5c4c: a9 00        	lda	#$0
    5c4e: 09 01        	ora	#$1
    5c50: 85 14        	sta	$14                     ; 0x2014 <main+0x1b80>
    5c52: a4 5a        	ldy	$5a                     ; 0x205a <main+0x1bc6>
    5c54: 84 12        	sty	$12                     ; 0x2012 <main+0x1b7e>
    5c56: a4 5b        	ldy	$5b                     ; 0x205b <main+0x1bc7>
    5c58: 84 13        	sty	$13                     ; 0x2013 <main+0x1b7f>
    5c5a: e6 12        	inc	$12                     ; 0x2012 <main+0x1b7e>
    5c5c: d0 02        	bne	$5c60 <_ZN12_GLOBAL__N_15printEPKcP6Status+0x4d2>
    5c5e: e6 13        	inc	$13                     ; 0x2013 <main+0x1b7f>
    5c60: a0 01        	ldy	#$1
    5c62: 86 60        	stx	$60                     ; 0x2060 <main+0x1bcc>
    5c64: 8a           	txa
    5c65: 91 5a        	sta	($5a),y                 ; 0x205a <main+0x1bc6>
    5c67: a5 14        	lda	$14                     ; 0x2014 <main+0x1b80>
    5c69: a6 14        	ldx	$14                     ; 0x2014 <main+0x1b80>
    5c6b: 4c 17 5e     	jmp	$5e17 <_ZN12_GLOBAL__N_15printEPKcP6Status+0x689>
    5c6e: a5 1b        	lda	$1b                     ; 0x201b <main+0x1b87>
    5c70: 85 88        	sta	$88                     ; 0x2088 <main+0x1bf4>
    5c72: a4 1a        	ldy	$1a                     ; 0x201a <main+0x1b86>
    5c74: 84 89        	sty	$89                     ; 0x2089 <main+0x1bf5>
    5c76: a6 16        	ldx	$16                     ; 0x2016 <main+0x1b82>
    5c78: 86 8b        	stx	$8b                     ; 0x208b <main+0x1bf7>
    5c7a: a6 17        	ldx	$17                     ; 0x2017 <main+0x1b83>
    5c7c: 86 8a        	stx	$8a                     ; 0x208a <main+0x1bf6>
    5c7e: a6 18        	ldx	$18                     ; 0x2018 <main+0x1b84>
    5c80: 86 12        	stx	$12                     ; 0x2012 <main+0x1b7e>
    5c82: a6 19        	ldx	$19                     ; 0x2019 <main+0x1b85>
    5c84: 86 13        	stx	$13                     ; 0x2013 <main+0x1b7f>
    5c86: a6 12        	ldx	$12                     ; 0x2012 <main+0x1b7e>
    5c88: 86 84        	stx	$84                     ; 0x2084 <main+0x1bf0>
    5c8a: a6 13        	ldx	$13                     ; 0x2013 <main+0x1b7f>
    5c8c: 86 85        	stx	$85                     ; 0x2085 <main+0x1bf1>
    5c8e: a9 10        	lda	#$10
    5c90: 92 5a        	sta	($5a)                   ; 0x205a <main+0x1bc6>
    5c92: a5 60        	lda	$60                     ; 0x2060 <main+0x1bcc>
    5c94: 09 80        	ora	#$80
    5c96: 85 14        	sta	$14                     ; 0x2014 <main+0x1b80>
    5c98: a9 00        	lda	#$0
    5c9a: 09 01        	ora	#$1
    5c9c: aa           	tax
    5c9d: a4 5a        	ldy	$5a                     ; 0x205a <main+0x1bc6>
    5c9f: 84 12        	sty	$12                     ; 0x2012 <main+0x1b7e>
    5ca1: a4 5b        	ldy	$5b                     ; 0x205b <main+0x1bc7>
    5ca3: 84 13        	sty	$13                     ; 0x2013 <main+0x1b7f>
    5ca5: e6 12        	inc	$12                     ; 0x2012 <main+0x1b7e>
    5ca7: d0 02        	bne	$5cab <_ZN12_GLOBAL__N_15printEPKcP6Status+0x51d>
    5ca9: e6 13        	inc	$13                     ; 0x2013 <main+0x1b7f>
    5cab: a0 01        	ldy	#$1
    5cad: a5 14        	lda	$14                     ; 0x2014 <main+0x1b80>
    5caf: 85 60        	sta	$60                     ; 0x2060 <main+0x1bcc>
    5cb1: 4c 14 5e     	jmp	$5e14 <_ZN12_GLOBAL__N_15printEPKcP6Status+0x686>
    5cb4: a4 5a        	ldy	$5a                     ; 0x205a <main+0x1bc6>
    5cb6: a5 5a        	lda	$5a                     ; 0x205a <main+0x1bc6>
    5cb8: 84 16        	sty	$16                     ; 0x2016 <main+0x1b82>
    5cba: 18           	clc
    5cbb: 69 11        	adc	#$11
    5cbd: 85 12        	sta	$12                     ; 0x2012 <main+0x1b7e>
    5cbf: a5 5b        	lda	$5b                     ; 0x205b <main+0x1bc7>
    5cc1: 69 00        	adc	#$0
    5cc3: 85 13        	sta	$13                     ; 0x2013 <main+0x1b7f>
    5cc5: a0 11        	ldy	#$11
    5cc7: b1 5a        	lda	($5a),y                 ; 0x205a <main+0x1bc6>
    5cc9: 85 14        	sta	$14                     ; 0x2014 <main+0x1b80>
    5ccb: 18           	clc
    5ccc: 69 02        	adc	#$2
    5cce: 91 5a        	sta	($5a),y                 ; 0x205a <main+0x1bc6>
    5cd0: a0 01        	ldy	#$1
    5cd2: b1 12        	lda	($12),y                 ; 0x2012 <main+0x1b7e>
    5cd4: 85 15        	sta	$15                     ; 0x2015 <main+0x1b81>
    5cd6: 69 00        	adc	#$0
    5cd8: 18           	clc
    5cd9: 91 12        	sta	($12),y                 ; 0x2012 <main+0x1b7e>
    5cdb: b2 14        	lda	($14)                   ; 0x2014 <main+0x1b80>
    5cdd: 85 12        	sta	$12                     ; 0x2012 <main+0x1b7e>
    5cdf: b1 14        	lda	($14),y                 ; 0x2014 <main+0x1b80>
    5ce1: 85 13        	sta	$13                     ; 0x2013 <main+0x1b7f>
    5ce3: a5 16        	lda	$16                     ; 0x2016 <main+0x1b82>
    5ce5: 69 05        	adc	#$5
    5ce7: 85 14        	sta	$14                     ; 0x2014 <main+0x1b80>
    5ce9: a5 5b        	lda	$5b                     ; 0x205b <main+0x1bc7>
    5ceb: 69 00        	adc	#$0
    5ced: 85 15        	sta	$15                     ; 0x2015 <main+0x1b81>
    5cef: a0 05        	ldy	#$5
    5cf1: b1 5a        	lda	($5a),y                 ; 0x205a <main+0x1bc6>
    5cf3: 85 16        	sta	$16                     ; 0x2016 <main+0x1b82>
    5cf5: a0 01        	ldy	#$1
    5cf7: b1 14        	lda	($14),y                 ; 0x2014 <main+0x1b80>
    5cf9: 85 14        	sta	$14                     ; 0x2014 <main+0x1b80>
    5cfb: a5 16        	lda	$16                     ; 0x2016 <main+0x1b82>
    5cfd: 92 12        	sta	($12)                   ; 0x2012 <main+0x1b7e>
    5cff: a5 14        	lda	$14                     ; 0x2014 <main+0x1b80>
    5d01: 91 12        	sta	($12),y                 ; 0x2012 <main+0x1b7e>
    5d03: e6 18        	inc	$18                     ; 0x2018 <main+0x1b84>
    5d05: d0 02        	bne	$5d09 <_ZN12_GLOBAL__N_15printEPKcP6Status+0x57b>
    5d07: e6 19        	inc	$19                     ; 0x2019 <main+0x1b85>
    5d09: a6 18        	ldx	$18                     ; 0x2018 <main+0x1b84>
    5d0b: 86 12        	stx	$12                     ; 0x2012 <main+0x1b7e>
    5d0d: a6 19        	ldx	$19                     ; 0x2019 <main+0x1b85>
    5d0f: 4c d3 5d     	jmp	$5dd3 <_ZN12_GLOBAL__N_15printEPKcP6Status+0x645>
    5d12: a0 11        	ldy	#$11
    5d14: a5 5a        	lda	$5a                     ; 0x205a <main+0x1bc6>
    5d16: 18           	clc
    5d17: 69 11        	adc	#$11
    5d19: 85 12        	sta	$12                     ; 0x2012 <main+0x1b7e>
    5d1b: a5 5b        	lda	$5b                     ; 0x205b <main+0x1bc7>
    5d1d: 69 00        	adc	#$0
    5d1f: 85 13        	sta	$13                     ; 0x2013 <main+0x1b7f>
    5d21: b1 5a        	lda	($5a),y                 ; 0x205a <main+0x1bc6>
    5d23: aa           	tax
    5d24: a0 01        	ldy	#$1
    5d26: b1 12        	lda	($12),y                 ; 0x2012 <main+0x1b7e>
    5d28: 86 14        	stx	$14                     ; 0x2014 <main+0x1b80>
    5d2a: 85 15        	sta	$15                     ; 0x2015 <main+0x1b81>
    5d2c: a8           	tay
    5d2d: 18           	clc
    5d2e: 8a           	txa
    5d2f: 69 02        	adc	#$2
    5d31: 85 16        	sta	$16                     ; 0x2016 <main+0x1b82>
    5d33: 98           	tya
    5d34: 69 00        	adc	#$0
    5d36: 85 17        	sta	$17                     ; 0x2017 <main+0x1b83>
    5d38: a5 16        	lda	$16                     ; 0x2016 <main+0x1b82>
    5d3a: a0 11        	ldy	#$11
    5d3c: 91 5a        	sta	($5a),y                 ; 0x205a <main+0x1bc6>
    5d3e: a0 01        	ldy	#$1
    5d40: a5 17        	lda	$17                     ; 0x2017 <main+0x1b83>
    5d42: 91 12        	sta	($12),y                 ; 0x2012 <main+0x1b7e>
    5d44: b2 14        	lda	($14)                   ; 0x2014 <main+0x1b80>
    5d46: 85 12        	sta	$12                     ; 0x2012 <main+0x1b7e>
    5d48: b1 14        	lda	($14),y                 ; 0x2014 <main+0x1b80>
    5d4a: 85 13        	sta	$13                     ; 0x2013 <main+0x1b7f>
    5d4c: 4c b4 5d     	jmp	$5db4 <_ZN12_GLOBAL__N_15printEPKcP6Status+0x626>
    5d4f: a5 1b        	lda	$1b                     ; 0x201b <main+0x1b87>
    5d51: 85 88        	sta	$88                     ; 0x2088 <main+0x1bf4>
    5d53: a4 1a        	ldy	$1a                     ; 0x201a <main+0x1b86>
    5d55: 84 89        	sty	$89                     ; 0x2089 <main+0x1bf5>
    5d57: a6 16        	ldx	$16                     ; 0x2016 <main+0x1b82>
    5d59: 86 8b        	stx	$8b                     ; 0x208b <main+0x1bf7>
    5d5b: a6 17        	ldx	$17                     ; 0x2017 <main+0x1b83>
    5d5d: 86 8a        	stx	$8a                     ; 0x208a <main+0x1bf6>
    5d5f: a6 18        	ldx	$18                     ; 0x2018 <main+0x1b84>
    5d61: 86 12        	stx	$12                     ; 0x2012 <main+0x1b7e>
    5d63: a6 19        	ldx	$19                     ; 0x2019 <main+0x1b85>
    5d65: 86 13        	stx	$13                     ; 0x2013 <main+0x1b7f>
    5d67: a6 12        	ldx	$12                     ; 0x2012 <main+0x1b7e>
    5d69: 86 84        	stx	$84                     ; 0x2084 <main+0x1bf0>
    5d6b: a6 13        	ldx	$13                     ; 0x2013 <main+0x1b7f>
    5d6d: 86 85        	stx	$85                     ; 0x2085 <main+0x1bf1>
    5d6f: a9 08        	lda	#$8
    5d71: 4c f8 5d     	jmp	$5df8 <_ZN12_GLOBAL__N_15printEPKcP6Status+0x66a>
    5d74: a0 11        	ldy	#$11
    5d76: a5 5a        	lda	$5a                     ; 0x205a <main+0x1bc6>
    5d78: 18           	clc
    5d79: 69 11        	adc	#$11
    5d7b: 85 12        	sta	$12                     ; 0x2012 <main+0x1b7e>
    5d7d: a5 5b        	lda	$5b                     ; 0x205b <main+0x1bc7>
    5d7f: 69 00        	adc	#$0
    5d81: 85 13        	sta	$13                     ; 0x2013 <main+0x1b7f>
    5d83: b1 5a        	lda	($5a),y                 ; 0x205a <main+0x1bc6>
    5d85: aa           	tax
    5d86: a0 01        	ldy	#$1
    5d88: b1 12        	lda	($12),y                 ; 0x2012 <main+0x1b7e>
    5d8a: 86 14        	stx	$14                     ; 0x2014 <main+0x1b80>
    5d8c: 85 15        	sta	$15                     ; 0x2015 <main+0x1b81>
    5d8e: a8           	tay
    5d8f: 18           	clc
    5d90: 8a           	txa
    5d91: 69 02        	adc	#$2
    5d93: 85 16        	sta	$16                     ; 0x2016 <main+0x1b82>
    5d95: 98           	tya
    5d96: 69 00        	adc	#$0
    5d98: 85 17        	sta	$17                     ; 0x2017 <main+0x1b83>
    5d9a: a5 16        	lda	$16                     ; 0x2016 <main+0x1b82>
    5d9c: a0 11        	ldy	#$11
    5d9e: 91 5a        	sta	($5a),y                 ; 0x205a <main+0x1bc6>
    5da0: a0 01        	ldy	#$1
    5da2: a5 17        	lda	$17                     ; 0x2017 <main+0x1b83>
    5da4: 91 12        	sta	($12),y                 ; 0x2012 <main+0x1b7e>
    5da6: b2 14        	lda	($14)                   ; 0x2014 <main+0x1b80>
    5da8: 85 63        	sta	$63                     ; 0x2063 <main+0x1bcf>
    5daa: 64 64        	stz	$64                     ; 0x2064 <main+0x1bd0>
    5dac: a2 63        	ldx	#$63
    5dae: a0 00        	ldy	#$0
    5db0: 86 12        	stx	$12                     ; 0x2012 <main+0x1b7e>
    5db2: 84 13        	sty	$13                     ; 0x2013 <main+0x1b7f>
    5db4: a6 18        	ldx	$18                     ; 0x2018 <main+0x1b84>
    5db6: 86 5c        	stx	$5c                     ; 0x205c <main+0x1bc8>
    5db8: a6 19        	ldx	$19                     ; 0x2019 <main+0x1b85>
    5dba: 86 5d        	stx	$5d                     ; 0x205d <main+0x1bc9>
    5dbc: a6 5a        	ldx	$5a                     ; 0x205a <main+0x1bc6>
    5dbe: 86 14        	stx	$14                     ; 0x2014 <main+0x1b80>
    5dc0: a6 5b        	ldx	$5b                     ; 0x205b <main+0x1bc7>
    5dc2: 86 15        	stx	$15                     ; 0x2015 <main+0x1b81>
    5dc4: 20 9d 63     	jsr	$639d <_ZN12_GLOBAL__N_112print_stringEPKcP6Status>
    5dc7: e6 5c        	inc	$5c                     ; 0x205c <main+0x1bc8>
    5dc9: d0 02        	bne	$5dcd <_ZN12_GLOBAL__N_15printEPKcP6Status+0x63f>
    5dcb: e6 5d        	inc	$5d                     ; 0x205d <main+0x1bc9>
    5dcd: a6 5c        	ldx	$5c                     ; 0x205c <main+0x1bc8>
    5dcf: 86 12        	stx	$12                     ; 0x2012 <main+0x1b7e>
    5dd1: a6 5d        	ldx	$5d                     ; 0x205d <main+0x1bc9>
    5dd3: 86 13        	stx	$13                     ; 0x2013 <main+0x1b7f>
    5dd5: 60           	rts
    5dd6: a5 1b        	lda	$1b                     ; 0x201b <main+0x1b87>
    5dd8: 85 88        	sta	$88                     ; 0x2088 <main+0x1bf4>
    5dda: a4 1a        	ldy	$1a                     ; 0x201a <main+0x1b86>
    5ddc: 84 89        	sty	$89                     ; 0x2089 <main+0x1bf5>
    5dde: a6 16        	ldx	$16                     ; 0x2016 <main+0x1b82>
    5de0: 86 8b        	stx	$8b                     ; 0x208b <main+0x1bf7>
    5de2: a6 17        	ldx	$17                     ; 0x2017 <main+0x1b83>
    5de4: 86 8a        	stx	$8a                     ; 0x208a <main+0x1bf6>
    5de6: a6 18        	ldx	$18                     ; 0x2018 <main+0x1b84>
    5de8: 86 12        	stx	$12                     ; 0x2012 <main+0x1b7e>
    5dea: a6 19        	ldx	$19                     ; 0x2019 <main+0x1b85>
    5dec: 86 13        	stx	$13                     ; 0x2013 <main+0x1b7f>
    5dee: a6 12        	ldx	$12                     ; 0x2012 <main+0x1b7e>
    5df0: 86 84        	stx	$84                     ; 0x2084 <main+0x1bf0>
    5df2: a6 13        	ldx	$13                     ; 0x2013 <main+0x1b7f>
    5df4: 86 85        	stx	$85                     ; 0x2085 <main+0x1bf1>
    5df6: a9 0a        	lda	#$a
    5df8: aa           	tax
    5df9: 86 83        	stx	$83                     ; 0x2083 <main+0x1bef>
    5dfb: 92 5a        	sta	($5a)                   ; 0x205a <main+0x1bc6>
    5dfd: a9 00        	lda	#$0
    5dff: 09 01        	ora	#$1
    5e01: aa           	tax
    5e02: a4 5a        	ldy	$5a                     ; 0x205a <main+0x1bc6>
    5e04: 84 12        	sty	$12                     ; 0x2012 <main+0x1b7e>
    5e06: a4 5b        	ldy	$5b                     ; 0x205b <main+0x1bc7>
    5e08: 84 13        	sty	$13                     ; 0x2013 <main+0x1b7f>
    5e0a: e6 12        	inc	$12                     ; 0x2012 <main+0x1b7e>
    5e0c: d0 02        	bne	$5e10 <_ZN12_GLOBAL__N_15printEPKcP6Status+0x682>
    5e0e: e6 13        	inc	$13                     ; 0x2013 <main+0x1b7f>
    5e10: a0 01        	ldy	#$1
    5e12: a5 60        	lda	$60                     ; 0x2060 <main+0x1bcc>
    5e14: 91 5a        	sta	($5a),y                 ; 0x205a <main+0x1bc6>
    5e16: 8a           	txa
    5e17: 86 8c        	stx	$8c                     ; 0x208c <main+0x1bf8>
    5e19: 91 12        	sta	($12),y                 ; 0x2012 <main+0x1b7e>
    5e1b: a2 7a        	ldx	#$7a
    5e1d: a0 00        	ldy	#$0
    5e1f: 86 12        	stx	$12                     ; 0x2012 <main+0x1b7e>
    5e21: 84 13        	sty	$13                     ; 0x2013 <main+0x1b7f>
    5e23: e6 12        	inc	$12                     ; 0x2012 <main+0x1b7e>
    5e25: d0 02        	bne	$5e29 <_ZN12_GLOBAL__N_15printEPKcP6Status+0x69b>
    5e27: e6 13        	inc	$13                     ; 0x2013 <main+0x1b7f>
    5e29: a0 11        	ldy	#$11
    5e2b: a2 00        	ldx	#$0
    5e2d: a5 5a        	lda	$5a                     ; 0x205a <main+0x1bc6>
    5e2f: 18           	clc
    5e30: 69 11        	adc	#$11
    5e32: 85 5e        	sta	$5e                     ; 0x205e <main+0x1bca>
    5e34: a5 5b        	lda	$5b                     ; 0x205b <main+0x1bc7>
    5e36: 69 00        	adc	#$0
    5e38: 85 5f        	sta	$5f                     ; 0x205f <main+0x1bcb>
    5e3a: b1 5a        	lda	($5a),y                 ; 0x205a <main+0x1bc6>
    5e3c: 85 5d        	sta	$5d                     ; 0x205d <main+0x1bc9>
    5e3e: a0 01        	ldy	#$1
    5e40: b1 5e        	lda	($5e),y                 ; 0x205e <main+0x1bca>
    5e42: 85 8d        	sta	$8d                     ; 0x208d <main+0x1bf9>
    5e44: a4 5d        	ldy	$5d                     ; 0x205d <main+0x1bc9>
    5e46: 84 14        	sty	$14                     ; 0x2014 <main+0x1b80>
    5e48: 85 15        	sta	$15                     ; 0x2015 <main+0x1b81>
    5e4a: 64 62        	stz	$62                     ; 0x2062 <main+0x1bce>
    5e4c: a5 61        	lda	$61                     ; 0x2061 <main+0x1bcd>
    5e4e: a4 61        	ldy	$61                     ; 0x2061 <main+0x1bcd>
    5e50: 84 8e        	sty	$8e                     ; 0x208e <main+0x1bfa>
    5e52: 20 03 66     	jsr	$6603 <memcpy>
    5e55: a2 00        	ldx	#$0
    5e57: 86 87        	stx	$87                     ; 0x2087 <main+0x1bf3>
    5e59: 18           	clc
    5e5a: a5 5d        	lda	$5d                     ; 0x205d <main+0x1bc9>
    5e5c: 65 5c        	adc	$5c                     ; 0x205c <main+0x1bc8>
    5e5e: 85 13        	sta	$13                     ; 0x2013 <main+0x1b7f>
    5e60: a5 8d        	lda	$8d                     ; 0x208d <main+0x1bf9>
    5e62: 69 00        	adc	#$0
    5e64: 85 12        	sta	$12                     ; 0x2012 <main+0x1b7e>
    5e66: a0 11        	ldy	#$11
    5e68: a5 13        	lda	$13                     ; 0x2013 <main+0x1b7f>
    5e6a: 91 5a        	sta	($5a),y                 ; 0x205a <main+0x1bc6>
    5e6c: a0 01        	ldy	#$1
    5e6e: a5 12        	lda	$12                     ; 0x2012 <main+0x1b7e>
    5e70: 91 5e        	sta	($5e),y                 ; 0x205e <main+0x1bca>
    5e72: a5 8c        	lda	$8c                     ; 0x208c <main+0x1bf8>
    5e74: 29 01        	and	#$1
    5e76: d0 4c        	bne	$5ec4 <_ZN12_GLOBAL__N_15printEPKcP6Status+0x736>
    5e78: a6 8e        	ldx	$8e                     ; 0x208e <main+0x1bfa>
    5e7a: b4 7a        	ldy	$7a,x                   ; 0x207a <main+0x1be6>
    5e7c: a6 8a        	ldx	$8a                     ; 0x208a <main+0x1bf6>
    5e7e: 86 12        	stx	$12                     ; 0x2012 <main+0x1b7e>
    5e80: a6 8b        	ldx	$8b                     ; 0x208b <main+0x1bf7>
    5e82: 86 13        	stx	$13                     ; 0x2013 <main+0x1b7f>
    5e84: a6 89        	ldx	$89                     ; 0x2089 <main+0x1bf5>
    5e86: 86 5c        	stx	$5c                     ; 0x205c <main+0x1bc8>
    5e88: a6 88        	ldx	$88                     ; 0x2088 <main+0x1bf4>
    5e8a: 86 5d        	stx	$5d                     ; 0x205d <main+0x1bc9>
    5e8c: 98           	tya
    5e8d: 10 45        	bpl	$5ed4 <_ZN12_GLOBAL__N_15printEPKcP6Status+0x746>
    5e8f: a2 00        	ldx	#$0
    5e91: 64 14        	stz	$14                     ; 0x2014 <main+0x1b80>
    5e93: 38           	sec
    5e94: a9 00        	lda	#$0
    5e96: f5 7b        	sbc	$7b,x                   ; 0x207b <main+0x1be7>
    5e98: a0 00        	ldy	#$0
    5e9a: b0 02        	bcs	$5e9e <_ZN12_GLOBAL__N_15printEPKcP6Status+0x710>
    5e9c: a0 01        	ldy	#$1
    5e9e: 38           	sec
    5e9f: e5 14        	sbc	$14                     ; 0x2014 <main+0x1b80>
    5ea1: 85 15        	sta	$15                     ; 0x2015 <main+0x1b81>
    5ea3: 64 14        	stz	$14                     ; 0x2014 <main+0x1b80>
    5ea5: b0 04        	bcs	$5eab <_ZN12_GLOBAL__N_15printEPKcP6Status+0x71d>
    5ea7: a9 01        	lda	#$1
    5ea9: 85 14        	sta	$14                     ; 0x2014 <main+0x1b80>
    5eab: 98           	tya
    5eac: 05 14        	ora	$14                     ; 0x2014 <main+0x1b80>
    5eae: 85 14        	sta	$14                     ; 0x2014 <main+0x1b80>
    5eb0: a5 15        	lda	$15                     ; 0x2015 <main+0x1b81>
    5eb2: 9d 7b 00     	sta	$7b,x                   ; 0x7b <__rc31+0x4c>
    5eb5: e8           	inx
    5eb6: 86 15        	stx	$15                     ; 0x2015 <main+0x1b81>
    5eb8: a4 61        	ldy	$61                     ; 0x2061 <main+0x1bcd>
    5eba: c4 15        	cpy	$15                     ; 0x2015 <main+0x1b81>
    5ebc: d0 d5        	bne	$5e93 <_ZN12_GLOBAL__N_15printEPKcP6Status+0x705>
    5ebe: a2 01        	ldx	#$1
    5ec0: 86 87        	stx	$87                     ; 0x2087 <main+0x1bf3>
    5ec2: 80 10        	bra	$5ed4 <_ZN12_GLOBAL__N_15printEPKcP6Status+0x746>
    5ec4: a6 8a        	ldx	$8a                     ; 0x208a <main+0x1bf6>
    5ec6: 86 12        	stx	$12                     ; 0x2012 <main+0x1b7e>
    5ec8: a6 8b        	ldx	$8b                     ; 0x208b <main+0x1bf7>
    5eca: 86 13        	stx	$13                     ; 0x2013 <main+0x1b7f>
    5ecc: a6 89        	ldx	$89                     ; 0x2089 <main+0x1bf5>
    5ece: 86 5c        	stx	$5c                     ; 0x205c <main+0x1bc8>
    5ed0: a6 88        	ldx	$88                     ; 0x2088 <main+0x1bf4>
    5ed2: 86 5d        	stx	$5d                     ; 0x205d <main+0x1bc9>
    5ed4: a5 61        	lda	$61                     ; 0x2061 <main+0x1bcd>
    5ed6: 0a           	asl
    5ed7: 0a           	asl
    5ed8: 0a           	asl
    5ed9: 85 14        	sta	$14                     ; 0x2014 <main+0x1b80>
    5edb: 64 5f        	stz	$5f                     ; 0x205f <main+0x1bcb>
    5edd: a5 5f        	lda	$5f                     ; 0x205f <main+0x1bcb>
    5edf: f0 50        	beq	$5f31 <_ZN12_GLOBAL__N_15printEPKcP6Status+0x7a3>
    5ee1: a6 5f        	ldx	$5f                     ; 0x205f <main+0x1bcb>
    5ee3: ca           	dex
    5ee4: 86 17        	stx	$17                     ; 0x2017 <main+0x1b83>
    5ee6: a2 00        	ldx	#$0
    5ee8: 64 15        	stz	$15                     ; 0x2015 <main+0x1b81>
    5eea: 80 0d        	bra	$5ef9 <_ZN12_GLOBAL__N_15printEPKcP6Status+0x76b>
    5eec: a4 15        	ldy	$15                     ; 0x2015 <main+0x1b81>
    5eee: 99 65 00     	sta	$65,y                   ; 0x65 <__rc31+0x36>
    5ef1: a4 17        	ldy	$17                     ; 0x2017 <main+0x1b83>
    5ef3: c4 15        	cpy	$15                     ; 0x2015 <main+0x1b81>
    5ef5: f0 46        	beq	$5f3d <_ZN12_GLOBAL__N_15printEPKcP6Status+0x7af>
    5ef7: e6 15        	inc	$15                     ; 0x2015 <main+0x1b81>
    5ef9: a4 15        	ldy	$15                     ; 0x2015 <main+0x1b81>
    5efb: b9 65 00     	lda	$65,y                   ; 0x65 <__rc31+0x36>
    5efe: 0a           	asl
    5eff: e0 00        	cpx	#$0
    5f01: f0 02        	beq	$5f05 <_ZN12_GLOBAL__N_15printEPKcP6Status+0x777>
    5f03: 09 01        	ora	#$1
    5f05: a4 83        	ldy	$83                     ; 0x2083 <main+0x1bef>
    5f07: 84 16        	sty	$16                     ; 0x2016 <main+0x1b82>
    5f09: c5 16        	cmp	$16                     ; 0x2016 <main+0x1b82>
    5f0b: a2 01        	ldx	#$1
    5f0d: b0 02        	bcs	$5f11 <_ZN12_GLOBAL__N_15printEPKcP6Status+0x783>
    5f0f: a2 00        	ldx	#$0
    5f11: 90 d9        	bcc	$5eec <_ZN12_GLOBAL__N_15printEPKcP6Status+0x75e>
    5f13: 84 16        	sty	$16                     ; 0x2016 <main+0x1b82>
    5f15: 38           	sec
    5f16: e5 16        	sbc	$16                     ; 0x2016 <main+0x1b82>
    5f18: a4 15        	ldy	$15                     ; 0x2015 <main+0x1b81>
    5f1a: 99 65 00     	sta	$65,y                   ; 0x65 <__rc31+0x36>
    5f1d: a4 17        	ldy	$17                     ; 0x2017 <main+0x1b83>
    5f1f: c4 15        	cpy	$15                     ; 0x2015 <main+0x1b81>
    5f21: d0 d4        	bne	$5ef7 <_ZN12_GLOBAL__N_15printEPKcP6Status+0x769>
    5f23: a4 5f        	ldy	$5f                     ; 0x205f <main+0x1bcb>
    5f25: a6 5f        	ldx	$5f                     ; 0x205f <main+0x1bcb>
    5f27: e8           	inx
    5f28: a9 01        	lda	#$1
    5f2a: 99 65 00     	sta	$65,y                   ; 0x65 <__rc31+0x36>
    5f2d: da           	phx
    5f2e: 7a           	ply
    5f2f: 80 0e        	bra	$5f3f <_ZN12_GLOBAL__N_15printEPKcP6Status+0x7b1>
    5f31: a6 61        	ldx	$61                     ; 0x2061 <main+0x1bcd>
    5f33: b5 7a        	lda	$7a,x                   ; 0x207a <main+0x1be6>
    5f35: aa           	tax
    5f36: a0 00        	ldy	#$0
    5f38: 8a           	txa
    5f39: 30 36        	bmi	$5f71 <_ZN12_GLOBAL__N_15printEPKcP6Status+0x7e3>
    5f3b: 80 3e        	bra	$5f7b <_ZN12_GLOBAL__N_15printEPKcP6Status+0x7ed>
    5f3d: a4 5f        	ldy	$5f                     ; 0x205f <main+0x1bcb>
    5f3f: a6 61        	ldx	$61                     ; 0x2061 <main+0x1bcd>
    5f41: b5 7a        	lda	$7a,x                   ; 0x207a <main+0x1be6>
    5f43: aa           	tax
    5f44: 10 35        	bpl	$5f7b <_ZN12_GLOBAL__N_15printEPKcP6Status+0x7ed>
    5f46: 98           	tya
    5f47: f0 26        	beq	$5f6f <_ZN12_GLOBAL__N_15printEPKcP6Status+0x7e1>
    5f49: 84 16        	sty	$16                     ; 0x2016 <main+0x1b82>
    5f4b: a2 00        	ldx	#$0
    5f4d: a4 83        	ldy	$83                     ; 0x2083 <main+0x1bef>
    5f4f: b5 65        	lda	$65,x                   ; 0x2065 <main+0x1bd1>
    5f51: 1a           	inc
    5f52: f6 65        	inc	$65,x                   ; 0x2065 <main+0x1bd1>
    5f54: 84 15        	sty	$15                     ; 0x2015 <main+0x1b81>
    5f56: c5 15        	cmp	$15                     ; 0x2015 <main+0x1b81>
    5f58: 90 4a        	bcc	$5fa4 <_ZN12_GLOBAL__N_15printEPKcP6Status+0x816>
    5f5a: 84 15        	sty	$15                     ; 0x2015 <main+0x1b81>
    5f5c: 38           	sec
    5f5d: e5 15        	sbc	$15                     ; 0x2015 <main+0x1b81>
    5f5f: 9d 65 00     	sta	$65,x                   ; 0x65 <__rc31+0x36>
    5f62: e8           	inx
    5f63: 86 15        	stx	$15                     ; 0x2015 <main+0x1b81>
    5f65: a5 16        	lda	$16                     ; 0x2016 <main+0x1b82>
    5f67: c5 15        	cmp	$15                     ; 0x2015 <main+0x1b81>
    5f69: d0 e4        	bne	$5f4f <_ZN12_GLOBAL__N_15printEPKcP6Status+0x7c1>
    5f6b: a4 16        	ldy	$16                     ; 0x2016 <main+0x1b82>
    5f6d: 80 02        	bra	$5f71 <_ZN12_GLOBAL__N_15printEPKcP6Status+0x7e3>
    5f6f: a0 00        	ldy	#$0
    5f71: 5a           	phy
    5f72: fa           	plx
    5f73: e8           	inx
    5f74: a9 01        	lda	#$1
    5f76: 99 65 00     	sta	$65,y                   ; 0x65 <__rc31+0x36>
    5f79: da           	phx
    5f7a: 7a           	ply
    5f7b: 84 5f        	sty	$5f                     ; 0x205f <main+0x1bcb>
    5f7d: a2 01        	ldx	#$1
    5f7f: 64 15        	stz	$15                     ; 0x2015 <main+0x1b81>
    5f81: a4 61        	ldy	$61                     ; 0x2061 <main+0x1bcd>
    5f83: b5 7a        	lda	$7a,x                   ; 0x207a <main+0x1be6>
    5f85: 0a           	asl
    5f86: 64 16        	stz	$16                     ; 0x2016 <main+0x1b82>
    5f88: 26 16        	rol	$16                     ; 0x2016 <main+0x1b82>
    5f8a: 05 15        	ora	$15                     ; 0x2015 <main+0x1b81>
    5f8c: 9d 7a 00     	sta	$7a,x                   ; 0x7a <__rc31+0x4b>
    5f8f: e8           	inx
    5f90: 88           	dey
    5f91: a5 16        	lda	$16                     ; 0x2016 <main+0x1b82>
    5f93: 85 15        	sta	$15                     ; 0x2015 <main+0x1b81>
    5f95: 98           	tya
    5f96: d0 eb        	bne	$5f83 <_ZN12_GLOBAL__N_15printEPKcP6Status+0x7f5>
    5f98: a6 62        	ldx	$62                     ; 0x2062 <main+0x1bce>
    5f9a: e8           	inx
    5f9b: 86 62        	stx	$62                     ; 0x2062 <main+0x1bce>
    5f9d: e4 14        	cpx	$14                     ; 0x2014 <main+0x1b80>
    5f9f: b0 07        	bcs	$5fa8 <_ZN12_GLOBAL__N_15printEPKcP6Status+0x81a>
    5fa1: 4c dd 5e     	jmp	$5edd <_ZN12_GLOBAL__N_15printEPKcP6Status+0x74f>
    5fa4: a4 16        	ldy	$16                     ; 0x2016 <main+0x1b82>
    5fa6: 80 d3        	bra	$5f7b <_ZN12_GLOBAL__N_15printEPKcP6Status+0x7ed>
    5fa8: a5 60        	lda	$60                     ; 0x2060 <main+0x1bcc>
    5faa: a6 5d        	ldx	$5d                     ; 0x205d <main+0x1bc9>
    5fac: 10 06        	bpl	$5fb4 <_ZN12_GLOBAL__N_15printEPKcP6Status+0x826>
    5fae: a2 01        	ldx	#$1
    5fb0: 64 5d        	stz	$5d                     ; 0x205d <main+0x1bc9>
    5fb2: 86 5c        	stx	$5c                     ; 0x205c <main+0x1bc8>
    5fb4: 29 04        	and	#$4
    5fb6: f0 2c        	beq	$5fe4 <_ZN12_GLOBAL__N_15printEPKcP6Status+0x856>
    5fb8: a6 83        	ldx	$83                     ; 0x2083 <main+0x1bef>
    5fba: e0 10        	cpx	#$10
    5fbc: f0 14        	beq	$5fd2 <_ZN12_GLOBAL__N_15printEPKcP6Status+0x844>
    5fbe: e0 08        	cpx	#$8
    5fc0: d0 22        	bne	$5fe4 <_ZN12_GLOBAL__N_15printEPKcP6Status+0x856>
    5fc2: a2 00        	ldx	#$0
    5fc4: e4 5d        	cpx	$5d                     ; 0x205d <main+0x1bc9>
    5fc6: f0 03        	beq	$5fcb <_ZN12_GLOBAL__N_15printEPKcP6Status+0x83d>
    5fc8: 4c 0b 61     	jmp	$610b <_ZN12_GLOBAL__N_15printEPKcP6Status+0x97d>
    5fcb: a5 5f        	lda	$5f                     ; 0x205f <main+0x1bcb>
    5fcd: c5 5c        	cmp	$5c                     ; 0x205c <main+0x1bc8>
    5fcf: 4c 0d 61     	jmp	$610d <_ZN12_GLOBAL__N_15printEPKcP6Status+0x97f>
    5fd2: a5 5f        	lda	$5f                     ; 0x205f <main+0x1bcb>
    5fd4: f0 0e        	beq	$5fe4 <_ZN12_GLOBAL__N_15printEPKcP6Status+0x856>
    5fd6: a5 60        	lda	$60                     ; 0x2060 <main+0x1bcc>
    5fd8: 29 80        	and	#$80
    5fda: d0 03        	bne	$5fdf <_ZN12_GLOBAL__N_15printEPKcP6Status+0x851>
    5fdc: 4c 22 61     	jmp	$6122 <_ZN12_GLOBAL__N_15printEPKcP6Status+0x994>
    5fdf: a2 78        	ldx	#$78
    5fe1: 4c 24 61     	jmp	$6124 <_ZN12_GLOBAL__N_15printEPKcP6Status+0x996>
    5fe4: a5 60        	lda	$60                     ; 0x2060 <main+0x1bcc>
    5fe6: a2 2d        	ldx	#$2d
    5fe8: 86 83        	stx	$83                     ; 0x2083 <main+0x1bef>
    5fea: a6 87        	ldx	$87                     ; 0x2087 <main+0x1bf3>
    5fec: d0 1b        	bne	$6009 <_ZN12_GLOBAL__N_15printEPKcP6Status+0x87b>
    5fee: aa           	tax
    5fef: 29 02        	and	#$2
    5ff1: a0 2b        	ldy	#$2b
    5ff3: 84 83        	sty	$83                     ; 0x2083 <main+0x1bef>
    5ff5: a8           	tay
    5ff6: d0 11        	bne	$6009 <_ZN12_GLOBAL__N_15printEPKcP6Status+0x87b>
    5ff8: 8a           	txa
    5ff9: 29 08        	and	#$8
    5ffb: d0 08        	bne	$6005 <_ZN12_GLOBAL__N_15printEPKcP6Status+0x877>
    5ffd: a2 01        	ldx	#$1
    5fff: 86 87        	stx	$87                     ; 0x2087 <main+0x1bf3>
    6001: a9 00        	lda	#$0
    6003: 80 0a        	bra	$600f <_ZN12_GLOBAL__N_15printEPKcP6Status+0x881>
    6005: a2 20        	ldx	#$20
    6007: 86 83        	stx	$83                     ; 0x2083 <main+0x1bef>
    6009: a2 00        	ldx	#$0
    600b: 86 87        	stx	$87                     ; 0x2087 <main+0x1bf3>
    600d: a9 01        	lda	#$1
    600f: a4 5f        	ldy	$5f                     ; 0x205f <main+0x1bcb>
    6011: a6 5d        	ldx	$5d                     ; 0x205d <main+0x1bc9>
    6013: d0 08        	bne	$601d <_ZN12_GLOBAL__N_15printEPKcP6Status+0x88f>
    6015: a6 5c        	ldx	$5c                     ; 0x205c <main+0x1bc8>
    6017: 84 14        	sty	$14                     ; 0x2014 <main+0x1b80>
    6019: e4 14        	cpx	$14                     ; 0x2014 <main+0x1b80>
    601b: 80 04        	bra	$6021 <_ZN12_GLOBAL__N_15printEPKcP6Status+0x893>
    601d: a6 5d        	ldx	$5d                     ; 0x205d <main+0x1bc9>
    601f: e0 00        	cpx	#$0
    6021: a6 5c        	ldx	$5c                     ; 0x205c <main+0x1bc8>
    6023: 86 14        	stx	$14                     ; 0x2014 <main+0x1b80>
    6025: a6 5d        	ldx	$5d                     ; 0x205d <main+0x1bc9>
    6027: 86 15        	stx	$15                     ; 0x2015 <main+0x1b81>
    6029: b0 04        	bcs	$602f <_ZN12_GLOBAL__N_15printEPKcP6Status+0x8a1>
    602b: 84 14        	sty	$14                     ; 0x2014 <main+0x1b80>
    602d: 64 15        	stz	$15                     ; 0x2015 <main+0x1b81>
    602f: 18           	clc
    6030: aa           	tax
    6031: 65 14        	adc	$14                     ; 0x2014 <main+0x1b80>
    6033: a8           	tay
    6034: 85 16        	sta	$16                     ; 0x2016 <main+0x1b82>
    6036: a5 15        	lda	$15                     ; 0x2015 <main+0x1b81>
    6038: 69 00        	adc	#$0
    603a: 85 17        	sta	$17                     ; 0x2017 <main+0x1b83>
    603c: c5 12        	cmp	$12                     ; 0x2012 <main+0x1b7e>
    603e: d0 04        	bne	$6044 <_ZN12_GLOBAL__N_15printEPKcP6Status+0x8b6>
    6040: c4 13        	cpy	$13                     ; 0x2013 <main+0x1b7f>
    6042: 80 02        	bra	$6046 <_ZN12_GLOBAL__N_15printEPKcP6Status+0x8b8>
    6044: c5 12        	cmp	$12                     ; 0x2012 <main+0x1b7e>
    6046: 64 5e        	stz	$5e                     ; 0x205e <main+0x1bca>
    6048: 90 04        	bcc	$604e <_ZN12_GLOBAL__N_15printEPKcP6Status+0x8c0>
    604a: 64 60        	stz	$60                     ; 0x2060 <main+0x1bcc>
    604c: 80 4d        	bra	$609b <_ZN12_GLOBAL__N_15printEPKcP6Status+0x90d>
    604e: a5 60        	lda	$60                     ; 0x2060 <main+0x1bcc>
    6050: 29 11        	and	#$11
    6052: f0 0f        	beq	$6063 <_ZN12_GLOBAL__N_15printEPKcP6Status+0x8d5>
    6054: a5 13        	lda	$13                     ; 0x2013 <main+0x1b7f>
    6056: 38           	sec
    6057: e5 16        	sbc	$16                     ; 0x2016 <main+0x1b82>
    6059: 85 5e        	sta	$5e                     ; 0x205e <main+0x1bca>
    605b: a5 12        	lda	$12                     ; 0x2012 <main+0x1b7e>
    605d: e5 17        	sbc	$17                     ; 0x2017 <main+0x1b83>
    605f: 85 60        	sta	$60                     ; 0x2060 <main+0x1bcc>
    6061: 80 38        	bra	$609b <_ZN12_GLOBAL__N_15printEPKcP6Status+0x90d>
    6063: 8a           	txa
    6064: 38           	sec
    6065: e5 13        	sbc	$13                     ; 0x2013 <main+0x1b7f>
    6067: aa           	tax
    6068: a9 00        	lda	#$0
    606a: e5 12        	sbc	$12                     ; 0x2012 <main+0x1b7e>
    606c: 85 12        	sta	$12                     ; 0x2012 <main+0x1b7e>
    606e: 18           	clc
    606f: 8a           	txa
    6070: 65 14        	adc	$14                     ; 0x2014 <main+0x1b80>
    6072: 85 5e        	sta	$5e                     ; 0x205e <main+0x1bca>
    6074: a5 12        	lda	$12                     ; 0x2012 <main+0x1b7e>
    6076: 65 15        	adc	$15                     ; 0x2015 <main+0x1b81>
    6078: 85 60        	sta	$60                     ; 0x2060 <main+0x1bcc>
    607a: a6 5a        	ldx	$5a                     ; 0x205a <main+0x1bc6>
    607c: 86 12        	stx	$12                     ; 0x2012 <main+0x1b7e>
    607e: a6 5b        	ldx	$5b                     ; 0x205b <main+0x1bc7>
    6080: 86 13        	stx	$13                     ; 0x2013 <main+0x1b7f>
    6082: a9 20        	lda	#$20
    6084: 20 c2 62     	jsr	$62c2 <_ZN12_GLOBAL__N_13putEcP6Status>
    6087: a6 60        	ldx	$60                     ; 0x2060 <main+0x1bcc>
    6089: e6 5e        	inc	$5e                     ; 0x205e <main+0x1bca>
    608b: d0 01        	bne	$608e <_ZN12_GLOBAL__N_15printEPKcP6Status+0x900>
    608d: e8           	inx
    608e: 86 60        	stx	$60                     ; 0x2060 <main+0x1bcc>
    6090: 8a           	txa
    6091: d0 e7        	bne	$607a <_ZN12_GLOBAL__N_15printEPKcP6Status+0x8ec>
    6093: a5 5e        	lda	$5e                     ; 0x205e <main+0x1bca>
    6095: d0 e3        	bne	$607a <_ZN12_GLOBAL__N_15printEPKcP6Status+0x8ec>
    6097: 64 60        	stz	$60                     ; 0x2060 <main+0x1bcc>
    6099: 64 5e        	stz	$5e                     ; 0x205e <main+0x1bca>
    609b: a6 87        	ldx	$87                     ; 0x2087 <main+0x1bf3>
    609d: d0 0d        	bne	$60ac <_ZN12_GLOBAL__N_15printEPKcP6Status+0x91e>
    609f: a6 5a        	ldx	$5a                     ; 0x205a <main+0x1bc6>
    60a1: 86 12        	stx	$12                     ; 0x2012 <main+0x1b7e>
    60a3: a6 5b        	ldx	$5b                     ; 0x205b <main+0x1bc7>
    60a5: 86 13        	stx	$13                     ; 0x2013 <main+0x1b7f>
    60a7: a5 83        	lda	$83                     ; 0x2083 <main+0x1bef>
    60a9: 20 c2 62     	jsr	$62c2 <_ZN12_GLOBAL__N_13putEcP6Status>
    60ac: a6 86        	ldx	$86                     ; 0x2086 <main+0x1bf2>
    60ae: f0 0d        	beq	$60bd <_ZN12_GLOBAL__N_15printEPKcP6Status+0x92f>
    60b0: a6 5a        	ldx	$5a                     ; 0x205a <main+0x1bc6>
    60b2: 86 12        	stx	$12                     ; 0x2012 <main+0x1b7e>
    60b4: a6 5b        	ldx	$5b                     ; 0x205b <main+0x1bc7>
    60b6: 86 13        	stx	$13                     ; 0x2013 <main+0x1b7f>
    60b8: a5 88        	lda	$88                     ; 0x2088 <main+0x1bf4>
    60ba: 20 c2 62     	jsr	$62c2 <_ZN12_GLOBAL__N_13putEcP6Status>
    60bd: a0 01        	ldy	#$1
    60bf: b1 5a        	lda	($5a),y                 ; 0x205a <main+0x1bc6>
    60c1: aa           	tax
    60c2: 29 10        	and	#$10
    60c4: f0 36        	beq	$60fc <_ZN12_GLOBAL__N_15printEPKcP6Status+0x96e>
    60c6: 8a           	txa
    60c7: 29 01        	and	#$1
    60c9: a6 5f        	ldx	$5f                     ; 0x205f <main+0x1bcb>
    60cb: a8           	tay
    60cc: d0 30        	bne	$60fe <_ZN12_GLOBAL__N_15printEPKcP6Status+0x970>
    60ce: a5 60        	lda	$60                     ; 0x2060 <main+0x1bcc>
    60d0: d0 07        	bne	$60d9 <_ZN12_GLOBAL__N_15printEPKcP6Status+0x94b>
    60d2: a5 5e        	lda	$5e                     ; 0x205e <main+0x1bca>
    60d4: d0 03        	bne	$60d9 <_ZN12_GLOBAL__N_15printEPKcP6Status+0x94b>
    60d6: 4c 39 61     	jmp	$6139 <_ZN12_GLOBAL__N_15printEPKcP6Status+0x9ab>
    60d9: a6 5a        	ldx	$5a                     ; 0x205a <main+0x1bc6>
    60db: 86 12        	stx	$12                     ; 0x2012 <main+0x1b7e>
    60dd: a6 5b        	ldx	$5b                     ; 0x205b <main+0x1bc7>
    60df: 86 13        	stx	$13                     ; 0x2013 <main+0x1b7f>
    60e1: a9 30        	lda	#$30
    60e3: 20 c2 62     	jsr	$62c2 <_ZN12_GLOBAL__N_13putEcP6Status>
    60e6: a2 ff        	ldx	#$ff
    60e8: c6 5e        	dec	$5e                     ; 0x205e <main+0x1bca>
    60ea: e4 5e        	cpx	$5e                     ; 0x205e <main+0x1bca>
    60ec: d0 02        	bne	$60f0 <_ZN12_GLOBAL__N_15printEPKcP6Status+0x962>
    60ee: c6 60        	dec	$60                     ; 0x2060 <main+0x1bcc>
    60f0: a5 60        	lda	$60                     ; 0x2060 <main+0x1bcc>
    60f2: d0 e5        	bne	$60d9 <_ZN12_GLOBAL__N_15printEPKcP6Status+0x94b>
    60f4: a5 5e        	lda	$5e                     ; 0x205e <main+0x1bca>
    60f6: d0 e1        	bne	$60d9 <_ZN12_GLOBAL__N_15printEPKcP6Status+0x94b>
    60f8: 64 5e        	stz	$5e                     ; 0x205e <main+0x1bca>
    60fa: 64 60        	stz	$60                     ; 0x2060 <main+0x1bcc>
    60fc: a6 5f        	ldx	$5f                     ; 0x205f <main+0x1bcb>
    60fe: a0 00        	ldy	#$0
    6100: c4 5d        	cpy	$5d                     ; 0x205d <main+0x1bc9>
    6102: f0 3d        	beq	$6141 <_ZN12_GLOBAL__N_15printEPKcP6Status+0x9b3>
    6104: c4 5d        	cpy	$5d                     ; 0x205d <main+0x1bc9>
    6106: 90 3d        	bcc	$6145 <_ZN12_GLOBAL__N_15printEPKcP6Status+0x9b7>
    6108: 4c 68 61     	jmp	$6168 <_ZN12_GLOBAL__N_15printEPKcP6Status+0x9da>
    610b: e4 5d        	cpx	$5d                     ; 0x205d <main+0x1bc9>
    610d: a5 60        	lda	$60                     ; 0x2060 <main+0x1bcc>
    610f: b0 03        	bcs	$6114 <_ZN12_GLOBAL__N_15printEPKcP6Status+0x986>
    6111: 4c e6 5f     	jmp	$5fe6 <_ZN12_GLOBAL__N_15printEPKcP6Status+0x858>
    6114: a4 5f        	ldy	$5f                     ; 0x205f <main+0x1bcb>
    6116: 84 5c        	sty	$5c                     ; 0x205c <main+0x1bc8>
    6118: e6 5c        	inc	$5c                     ; 0x205c <main+0x1bc8>
    611a: d0 01        	bne	$611d <_ZN12_GLOBAL__N_15printEPKcP6Status+0x98f>
    611c: e8           	inx
    611d: 86 5d        	stx	$5d                     ; 0x205d <main+0x1bc9>
    611f: 4c e6 5f     	jmp	$5fe6 <_ZN12_GLOBAL__N_15printEPKcP6Status+0x858>
    6122: a2 58        	ldx	#$58
    6124: 86 88        	stx	$88                     ; 0x2088 <main+0x1bf4>
    6126: a4 5f        	ldy	$5f                     ; 0x205f <main+0x1bcb>
    6128: a2 01        	ldx	#$1
    612a: 86 86        	stx	$86                     ; 0x2086 <main+0x1bf2>
    612c: a2 30        	ldx	#$30
    612e: 86 83        	stx	$83                     ; 0x2083 <main+0x1bef>
    6130: a9 02        	lda	#$2
    6132: a2 00        	ldx	#$0
    6134: 86 87        	stx	$87                     ; 0x2087 <main+0x1bf3>
    6136: 4c 11 60     	jmp	$6011 <_ZN12_GLOBAL__N_15printEPKcP6Status+0x883>
    6139: 64 5e        	stz	$5e                     ; 0x205e <main+0x1bca>
    613b: 64 60        	stz	$60                     ; 0x2060 <main+0x1bcc>
    613d: 80 bf        	bra	$60fe <_ZN12_GLOBAL__N_15printEPKcP6Status+0x970>
    613f: a6 5f        	ldx	$5f                     ; 0x205f <main+0x1bcb>
    6141: e4 5c        	cpx	$5c                     ; 0x205c <main+0x1bc8>
    6143: b0 23        	bcs	$6168 <_ZN12_GLOBAL__N_15printEPKcP6Status+0x9da>
    6145: a2 ff        	ldx	#$ff
    6147: c6 5c        	dec	$5c                     ; 0x205c <main+0x1bc8>
    6149: e4 5c        	cpx	$5c                     ; 0x205c <main+0x1bc8>
    614b: d0 02        	bne	$614f <_ZN12_GLOBAL__N_15printEPKcP6Status+0x9c1>
    614d: c6 5d        	dec	$5d                     ; 0x205d <main+0x1bc9>
    614f: a6 5a        	ldx	$5a                     ; 0x205a <main+0x1bc6>
    6151: 86 12        	stx	$12                     ; 0x2012 <main+0x1b7e>
    6153: a6 5b        	ldx	$5b                     ; 0x205b <main+0x1bc7>
    6155: 86 13        	stx	$13                     ; 0x2013 <main+0x1b7f>
    6157: a9 30        	lda	#$30
    6159: 20 c2 62     	jsr	$62c2 <_ZN12_GLOBAL__N_13putEcP6Status>
    615c: a2 00        	ldx	#$0
    615e: e4 5d        	cpx	$5d                     ; 0x205d <main+0x1bc9>
    6160: f0 dd        	beq	$613f <_ZN12_GLOBAL__N_15printEPKcP6Status+0x9b1>
    6162: e4 5d        	cpx	$5d                     ; 0x205d <main+0x1bc9>
    6164: a6 5f        	ldx	$5f                     ; 0x205f <main+0x1bcb>
    6166: 90 dd        	bcc	$6145 <_ZN12_GLOBAL__N_15printEPKcP6Status+0x9b7>
    6168: a4 5e        	ldy	$5e                     ; 0x205e <main+0x1bca>
    616a: 84 5f        	sty	$5f                     ; 0x205f <main+0x1bcb>
    616c: 8a           	txa
    616d: d0 03        	bne	$6172 <_ZN12_GLOBAL__N_15printEPKcP6Status+0x9e4>
    616f: 4c 02 62     	jmp	$6202 <_ZN12_GLOBAL__N_15printEPKcP6Status+0xa74>
    6172: ca           	dex
    6173: d0 03        	bne	$6178 <_ZN12_GLOBAL__N_15printEPKcP6Status+0x9ea>
    6175: 4c d3 61     	jmp	$61d3 <_ZN12_GLOBAL__N_15printEPKcP6Status+0xa45>
    6178: 86 5e        	stx	$5e                     ; 0x205e <main+0x1bca>
    617a: a9 63        	lda	#$63
    617c: 18           	clc
    617d: 65 5e        	adc	$5e                     ; 0x205e <main+0x1bca>
    617f: aa           	tax
    6180: a9 00        	lda	#$0
    6182: 69 00        	adc	#$0
    6184: 85 12        	sta	$12                     ; 0x2012 <main+0x1b7e>
    6186: 18           	clc
    6187: 8a           	txa
    6188: 69 02        	adc	#$2
    618a: 85 5c        	sta	$5c                     ; 0x205c <main+0x1bc8>
    618c: a5 12        	lda	$12                     ; 0x2012 <main+0x1b7e>
    618e: 69 00        	adc	#$0
    6190: 85 5d        	sta	$5d                     ; 0x205d <main+0x1bc9>
    6192: 80 35        	bra	$61c9 <_ZN12_GLOBAL__N_15printEPKcP6Status+0xa3b>
    6194: 85 13        	sta	$13                     ; 0x2013 <main+0x1b7f>
    6196: a9 80        	lda	#$80
    6198: a0 01        	ldy	#$1
    619a: 31 5a        	and	($5a),y                 ; 0x205a <main+0x1bc6>
    619c: f0 04        	beq	$61a2 <_ZN12_GLOBAL__N_15printEPKcP6Status+0xa14>
    619e: a2 61        	ldx	#$61
    61a0: 80 02        	bra	$61a4 <_ZN12_GLOBAL__N_15printEPKcP6Status+0xa16>
    61a2: a2 41        	ldx	#$41
    61a4: 86 12        	stx	$12                     ; 0x2012 <main+0x1b7e>
    61a6: 18           	clc
    61a7: a5 13        	lda	$13                     ; 0x2013 <main+0x1b7f>
    61a9: 65 12        	adc	$12                     ; 0x2012 <main+0x1b7e>
    61ab: 18           	clc
    61ac: 69 f6        	adc	#$f6
    61ae: a6 5a        	ldx	$5a                     ; 0x205a <main+0x1bc6>
    61b0: 86 12        	stx	$12                     ; 0x2012 <main+0x1b7e>
    61b2: a6 5b        	ldx	$5b                     ; 0x205b <main+0x1bc7>
    61b4: 86 13        	stx	$13                     ; 0x2013 <main+0x1b7f>
    61b6: 20 c2 62     	jsr	$62c2 <_ZN12_GLOBAL__N_13putEcP6Status>
    61b9: c6 5e        	dec	$5e                     ; 0x205e <main+0x1bca>
    61bb: a2 ff        	ldx	#$ff
    61bd: c6 5c        	dec	$5c                     ; 0x205c <main+0x1bc8>
    61bf: e4 5c        	cpx	$5c                     ; 0x205c <main+0x1bc8>
    61c1: d0 02        	bne	$61c5 <_ZN12_GLOBAL__N_15printEPKcP6Status+0xa37>
    61c3: c6 5d        	dec	$5d                     ; 0x205d <main+0x1bc9>
    61c5: a5 5e        	lda	$5e                     ; 0x205e <main+0x1bca>
    61c7: f0 0a        	beq	$61d3 <_ZN12_GLOBAL__N_15printEPKcP6Status+0xa45>
    61c9: b2 5c        	lda	($5c)                   ; 0x205c <main+0x1bc8>
    61cb: c9 0a        	cmp	#$a
    61cd: b0 c5        	bcs	$6194 <_ZN12_GLOBAL__N_15printEPKcP6Status+0xa06>
    61cf: 09 30        	ora	#$30
    61d1: 80 db        	bra	$61ae <_ZN12_GLOBAL__N_15printEPKcP6Status+0xa20>
    61d3: a5 65        	lda	$65                     ; 0x2065 <main+0x1bd1>
    61d5: c9 0a        	cmp	#$a
    61d7: b0 04        	bcs	$61dd <_ZN12_GLOBAL__N_15printEPKcP6Status+0xa4f>
    61d9: 09 30        	ora	#$30
    61db: 80 1a        	bra	$61f7 <_ZN12_GLOBAL__N_15printEPKcP6Status+0xa69>
    61dd: 85 13        	sta	$13                     ; 0x2013 <main+0x1b7f>
    61df: a0 01        	ldy	#$1
    61e1: a9 80        	lda	#$80
    61e3: 31 5a        	and	($5a),y                 ; 0x205a <main+0x1bc6>
    61e5: f0 04        	beq	$61eb <_ZN12_GLOBAL__N_15printEPKcP6Status+0xa5d>
    61e7: a2 61        	ldx	#$61
    61e9: 80 02        	bra	$61ed <_ZN12_GLOBAL__N_15printEPKcP6Status+0xa5f>
    61eb: a2 41        	ldx	#$41
    61ed: 86 12        	stx	$12                     ; 0x2012 <main+0x1b7e>
    61ef: a5 13        	lda	$13                     ; 0x2013 <main+0x1b7f>
    61f1: 18           	clc
    61f2: 65 12        	adc	$12                     ; 0x2012 <main+0x1b7e>
    61f4: 18           	clc
    61f5: 69 f6        	adc	#$f6
    61f7: a6 5a        	ldx	$5a                     ; 0x205a <main+0x1bc6>
    61f9: 86 12        	stx	$12                     ; 0x2012 <main+0x1b7e>
    61fb: a6 5b        	ldx	$5b                     ; 0x205b <main+0x1bc7>
    61fd: 86 13        	stx	$13                     ; 0x2013 <main+0x1b7f>
    61ff: 20 c2 62     	jsr	$62c2 <_ZN12_GLOBAL__N_13putEcP6Status>
    6202: a0 01        	ldy	#$1
    6204: 98           	tya
    6205: 31 5a        	and	($5a),y                 ; 0x205a <main+0x1bc6>
    6207: f0 21        	beq	$622a <_ZN12_GLOBAL__N_15printEPKcP6Status+0xa9c>
    6209: a5 60        	lda	$60                     ; 0x2060 <main+0x1bcc>
    620b: f0 19        	beq	$6226 <_ZN12_GLOBAL__N_15printEPKcP6Status+0xa98>
    620d: a6 5a        	ldx	$5a                     ; 0x205a <main+0x1bc6>
    620f: 86 12        	stx	$12                     ; 0x2012 <main+0x1b7e>
    6211: a6 5b        	ldx	$5b                     ; 0x205b <main+0x1bc7>
    6213: 86 13        	stx	$13                     ; 0x2013 <main+0x1b7f>
    6215: a9 20        	lda	#$20
    6217: 20 c2 62     	jsr	$62c2 <_ZN12_GLOBAL__N_13putEcP6Status>
    621a: a2 ff        	ldx	#$ff
    621c: c6 5f        	dec	$5f                     ; 0x205f <main+0x1bcb>
    621e: e4 5f        	cpx	$5f                     ; 0x205f <main+0x1bcb>
    6220: d0 e7        	bne	$6209 <_ZN12_GLOBAL__N_15printEPKcP6Status+0xa7b>
    6222: c6 60        	dec	$60                     ; 0x2060 <main+0x1bcc>
    6224: 80 e3        	bra	$6209 <_ZN12_GLOBAL__N_15printEPKcP6Status+0xa7b>
    6226: a5 5f        	lda	$5f                     ; 0x205f <main+0x1bcb>
    6228: d0 e3        	bne	$620d <_ZN12_GLOBAL__N_15printEPKcP6Status+0xa7f>
    622a: a4 5a        	ldy	$5a                     ; 0x205a <main+0x1bc6>
    622c: a5 5a        	lda	$5a                     ; 0x205a <main+0x1bc6>
    622e: 84 14        	sty	$14                     ; 0x2014 <main+0x1b80>
    6230: 18           	clc
    6231: 69 05        	adc	#$5
    6233: 85 12        	sta	$12                     ; 0x2012 <main+0x1b7e>
    6235: a5 5b        	lda	$5b                     ; 0x205b <main+0x1bc7>
    6237: 69 00        	adc	#$0
    6239: 18           	clc
    623a: 85 13        	sta	$13                     ; 0x2013 <main+0x1b7f>
    623c: a0 01        	ldy	#$1
    623e: a5 14        	lda	$14                     ; 0x2014 <main+0x1b80>
    6240: 69 03        	adc	#$3
    6242: 85 14        	sta	$14                     ; 0x2014 <main+0x1b80>
    6244: a5 5b        	lda	$5b                     ; 0x205b <main+0x1bc7>
    6246: 69 00        	adc	#$0
    6248: aa           	tax
    6249: b1 12        	lda	($12),y                 ; 0x2012 <main+0x1b7e>
    624b: 85 15        	sta	$15                     ; 0x2015 <main+0x1b81>
    624d: a4 14        	ldy	$14                     ; 0x2014 <main+0x1b80>
    624f: 84 12        	sty	$12                     ; 0x2012 <main+0x1b7e>
    6251: 86 13        	stx	$13                     ; 0x2013 <main+0x1b7f>
    6253: a0 03        	ldy	#$3
    6255: b1 5a        	lda	($5a),y                 ; 0x205a <main+0x1bc6>
    6257: 85 16        	sta	$16                     ; 0x2016 <main+0x1b82>
    6259: a0 01        	ldy	#$1
    625b: b1 12        	lda	($12),y                 ; 0x2012 <main+0x1b7e>
    625d: 85 17        	sta	$17                     ; 0x2017 <main+0x1b83>
    625f: 85 12        	sta	$12                     ; 0x2012 <main+0x1b7e>
    6261: a4 15        	ldy	$15                     ; 0x2015 <main+0x1b81>
    6263: c4 12        	cpy	$12                     ; 0x2012 <main+0x1b7e>
    6265: d0 0c        	bne	$6273 <_ZN12_GLOBAL__N_15printEPKcP6Status+0xae5>
    6267: a6 16        	ldx	$16                     ; 0x2016 <main+0x1b82>
    6269: a0 05        	ldy	#$5
    626b: b1 5a        	lda	($5a),y                 ; 0x205a <main+0x1bc6>
    626d: 86 12        	stx	$12                     ; 0x2012 <main+0x1b7e>
    626f: c5 12        	cmp	$12                     ; 0x2012 <main+0x1b7e>
    6271: 80 08        	bra	$627b <_ZN12_GLOBAL__N_15printEPKcP6Status+0xaed>
    6273: 84 13        	sty	$13                     ; 0x2013 <main+0x1b7f>
    6275: 85 12        	sta	$12                     ; 0x2012 <main+0x1b7e>
    6277: a6 13        	ldx	$13                     ; 0x2013 <main+0x1b7f>
    6279: e4 12        	cpx	$12                     ; 0x2012 <main+0x1b7e>
    627b: a6 84        	ldx	$84                     ; 0x2084 <main+0x1bf0>
    627d: 86 12        	stx	$12                     ; 0x2012 <main+0x1b7e>
    627f: a6 85        	ldx	$85                     ; 0x2085 <main+0x1bf1>
    6281: 86 13        	stx	$13                     ; 0x2013 <main+0x1b7f>
    6283: 90 36        	bcc	$62bb <_ZN12_GLOBAL__N_15printEPKcP6Status+0xb2d>
    6285: a6 16        	ldx	$16                     ; 0x2016 <main+0x1b82>
    6287: a5 17        	lda	$17                     ; 0x2017 <main+0x1b83>
    6289: d0 03        	bne	$628e <_ZN12_GLOBAL__N_15printEPKcP6Status+0xb00>
    628b: 8a           	txa
    628c: f0 2d        	beq	$62bb <_ZN12_GLOBAL__N_15printEPKcP6Status+0xb2d>
    628e: a5 5a        	lda	$5a                     ; 0x205a <main+0x1bc6>
    6290: 18           	clc
    6291: 69 09        	adc	#$9
    6293: 85 14        	sta	$14                     ; 0x2014 <main+0x1b80>
    6295: a5 5b        	lda	$5b                     ; 0x205b <main+0x1bc7>
    6297: 69 00        	adc	#$0
    6299: a0 09        	ldy	#$9
    629b: 85 15        	sta	$15                     ; 0x2015 <main+0x1b81>
    629d: 18           	clc
    629e: a5 16        	lda	$16                     ; 0x2016 <main+0x1b82>
    62a0: 71 5a        	adc	($5a),y                 ; 0x205a <main+0x1bc6>
    62a2: aa           	tax
    62a3: a0 01        	ldy	#$1
    62a5: a5 17        	lda	$17                     ; 0x2017 <main+0x1b83>
    62a7: 71 14        	adc	($14),y                 ; 0x2014 <main+0x1b80>
    62a9: 86 14        	stx	$14                     ; 0x2014 <main+0x1b80>
    62ab: 85 15        	sta	$15                     ; 0x2015 <main+0x1b81>
    62ad: a2 ff        	ldx	#$ff
    62af: c6 14        	dec	$14                     ; 0x2014 <main+0x1b80>
    62b1: e4 14        	cpx	$14                     ; 0x2014 <main+0x1b80>
    62b3: d0 02        	bne	$62b7 <_ZN12_GLOBAL__N_15printEPKcP6Status+0xb29>
    62b5: c6 15        	dec	$15                     ; 0x2015 <main+0x1b81>
    62b7: a9 00        	lda	#$0
    62b9: 92 14        	sta	($14)                   ; 0x2014 <main+0x1b80>
    62bb: e6 12        	inc	$12                     ; 0x2012 <main+0x1b7e>
    62bd: d0 02        	bne	$62c1 <_ZN12_GLOBAL__N_15printEPKcP6Status+0xb33>
    62bf: e6 13        	inc	$13                     ; 0x2013 <main+0x1b7f>
    62c1: 60           	rts

000062c2 <_ZN12_GLOBAL__N_13putEcP6Status>:
    62c2: 85 18        	sta	$18                     ; 0x2018 <main+0x1b84>
    62c4: a6 13        	ldx	$13                     ; 0x2013 <main+0x1b7f>
    62c6: 18           	clc
    62c7: a5 12        	lda	$12                     ; 0x2012 <main+0x1b7e>
    62c9: 69 05        	adc	#$5
    62cb: a8           	tay
    62cc: a5 13        	lda	$13                     ; 0x2013 <main+0x1b7f>
    62ce: 86 15        	stx	$15                     ; 0x2015 <main+0x1b81>
    62d0: 69 00        	adc	#$0
    62d2: 18           	clc
    62d3: 84 16        	sty	$16                     ; 0x2016 <main+0x1b82>
    62d5: a0 05        	ldy	#$5
    62d7: 85 17        	sta	$17                     ; 0x2017 <main+0x1b83>
    62d9: b1 12        	lda	($12),y                 ; 0x2012 <main+0x1b7e>
    62db: aa           	tax
    62dc: a5 12        	lda	$12                     ; 0x2012 <main+0x1b7e>
    62de: 69 03        	adc	#$3
    62e0: 85 14        	sta	$14                     ; 0x2014 <main+0x1b80>
    62e2: a5 15        	lda	$15                     ; 0x2015 <main+0x1b81>
    62e4: 69 00        	adc	#$0
    62e6: 85 15        	sta	$15                     ; 0x2015 <main+0x1b81>
    62e8: a0 01        	ldy	#$1
    62ea: b1 16        	lda	($16),y                 ; 0x2016 <main+0x1b82>
    62ec: d1 14        	cmp	($14),y                 ; 0x2014 <main+0x1b80>
    62ee: d0 11        	bne	$6301 <_ZN12_GLOBAL__N_13putEcP6Status+0x3f>
    62f0: a0 03        	ldy	#$3
    62f2: 85 17        	sta	$17                     ; 0x2017 <main+0x1b83>
    62f4: b1 12        	lda	($12),y                 ; 0x2012 <main+0x1b7e>
    62f6: 85 14        	sta	$14                     ; 0x2014 <main+0x1b80>
    62f8: 86 16        	stx	$16                     ; 0x2016 <main+0x1b82>
    62fa: e4 14        	cpx	$14                     ; 0x2014 <main+0x1b80>
    62fc: 90 0e        	bcc	$630c <_ZN12_GLOBAL__N_13putEcP6Status+0x4a>
    62fe: 4c 75 63     	jmp	$6375 <_ZN12_GLOBAL__N_13putEcP6Status+0xb3>
    6301: 86 16        	stx	$16                     ; 0x2016 <main+0x1b82>
    6303: d1 14        	cmp	($14),y                 ; 0x2014 <main+0x1b80>
    6305: 85 17        	sta	$17                     ; 0x2017 <main+0x1b83>
    6307: 90 03        	bcc	$630c <_ZN12_GLOBAL__N_13putEcP6Status+0x4a>
    6309: 4c 75 63     	jmp	$6375 <_ZN12_GLOBAL__N_13putEcP6Status+0xb3>
    630c: a5 12        	lda	$12                     ; 0x2012 <main+0x1b7e>
    630e: 18           	clc
    630f: 69 0f        	adc	#$f
    6311: 85 14        	sta	$14                     ; 0x2014 <main+0x1b80>
    6313: a5 13        	lda	$13                     ; 0x2013 <main+0x1b7f>
    6315: 69 00        	adc	#$0
    6317: 85 15        	sta	$15                     ; 0x2015 <main+0x1b81>
    6319: a0 01        	ldy	#$1
    631b: b1 14        	lda	($14),y                 ; 0x2014 <main+0x1b80>
    631d: a2 00        	ldx	#$0
    631f: 86 14        	stx	$14                     ; 0x2014 <main+0x1b80>
    6321: a2 00        	ldx	#$0
    6323: 86 15        	stx	$15                     ; 0x2015 <main+0x1b81>
    6325: c5 15        	cmp	$15                     ; 0x2015 <main+0x1b81>
    6327: d0 2d        	bne	$6356 <_ZN12_GLOBAL__N_13putEcP6Status+0x94>
    6329: a0 0f        	ldy	#$f
    632b: b1 12        	lda	($12),y                 ; 0x2012 <main+0x1b7e>
    632d: c5 14        	cmp	$14                     ; 0x2014 <main+0x1b80>
    632f: d0 25        	bne	$6356 <_ZN12_GLOBAL__N_13putEcP6Status+0x94>
    6331: a5 12        	lda	$12                     ; 0x2012 <main+0x1b7e>
    6333: 18           	clc
    6334: 69 09        	adc	#$9
    6336: 85 14        	sta	$14                     ; 0x2014 <main+0x1b80>
    6338: a5 13        	lda	$13                     ; 0x2013 <main+0x1b7f>
    633a: 69 00        	adc	#$0
    633c: a0 09        	ldy	#$9
    633e: 85 15        	sta	$15                     ; 0x2015 <main+0x1b81>
    6340: 18           	clc
    6341: a5 16        	lda	$16                     ; 0x2016 <main+0x1b82>
    6343: 71 12        	adc	($12),y                 ; 0x2012 <main+0x1b7e>
    6345: aa           	tax
    6346: a0 01        	ldy	#$1
    6348: a5 17        	lda	$17                     ; 0x2017 <main+0x1b83>
    634a: 71 14        	adc	($14),y                 ; 0x2014 <main+0x1b80>
    634c: 86 14        	stx	$14                     ; 0x2014 <main+0x1b80>
    634e: 85 15        	sta	$15                     ; 0x2015 <main+0x1b81>
    6350: a5 18        	lda	$18                     ; 0x2018 <main+0x1b84>
    6352: 92 14        	sta	($14)                   ; 0x2014 <main+0x1b80>
    6354: 80 1f        	bra	$6375 <_ZN12_GLOBAL__N_13putEcP6Status+0xb3>
    6356: a6 12        	ldx	$12                     ; 0x2012 <main+0x1b7e>
    6358: 86 97        	stx	$97                     ; 0x2097 <main+0x1c03>
    635a: a6 13        	ldx	$13                     ; 0x2013 <main+0x1b7f>
    635c: 86 98        	stx	$98                     ; 0x2098 <main+0x1c04>
    635e: a5 18        	lda	$18                     ; 0x2018 <main+0x1b84>
    6360: 85 35        	sta	$35                     ; 0x2035 <main+0x1ba1>
    6362: a2 35        	ldx	#$35
    6364: 86 12        	stx	$12                     ; 0x2012 <main+0x1b7e>
    6366: a2 00        	ldx	#$0
    6368: 86 13        	stx	$13                     ; 0x2013 <main+0x1b7f>
    636a: 20 85 4e     	jsr	$4e85 <textPrint>
    636d: a6 97        	ldx	$97                     ; 0x2097 <main+0x1c03>
    636f: 86 12        	stx	$12                     ; 0x2012 <main+0x1b7e>
    6371: a6 98        	ldx	$98                     ; 0x2098 <main+0x1c04>
    6373: 86 13        	stx	$13                     ; 0x2013 <main+0x1b7f>
    6375: a0 05        	ldy	#$5
    6377: a5 12        	lda	$12                     ; 0x2012 <main+0x1b7e>
    6379: 18           	clc
    637a: 69 05        	adc	#$5
    637c: 85 14        	sta	$14                     ; 0x2014 <main+0x1b80>
    637e: a5 13        	lda	$13                     ; 0x2013 <main+0x1b7f>
    6380: 69 00        	adc	#$0
    6382: 85 15        	sta	$15                     ; 0x2015 <main+0x1b81>
    6384: b1 12        	lda	($12),y                 ; 0x2012 <main+0x1b7e>
    6386: aa           	tax
    6387: a0 01        	ldy	#$1
    6389: b1 14        	lda	($14),y                 ; 0x2014 <main+0x1b80>
    638b: e8           	inx
    638c: d0 01        	bne	$638f <_ZN12_GLOBAL__N_13putEcP6Status+0xcd>
    638e: 1a           	inc
    638f: 85 16        	sta	$16                     ; 0x2016 <main+0x1b82>
    6391: 8a           	txa
    6392: a0 05        	ldy	#$5
    6394: 91 12        	sta	($12),y                 ; 0x2012 <main+0x1b7e>
    6396: a0 01        	ldy	#$1
    6398: a5 16        	lda	$16                     ; 0x2016 <main+0x1b82>
    639a: 91 14        	sta	($14),y                 ; 0x2014 <main+0x1b80>
    639c: 60           	rts

0000639d <_ZN12_GLOBAL__N_112print_stringEPKcP6Status>:
    639d: a6 12        	ldx	$12                     ; 0x2012 <main+0x1b7e>
    639f: 86 8f        	stx	$8f                     ; 0x208f <main+0x1bfb>
    63a1: a6 13        	ldx	$13                     ; 0x2013 <main+0x1b7f>
    63a3: 86 90        	stx	$90                     ; 0x2090 <main+0x1bfc>
    63a5: a6 14        	ldx	$14                     ; 0x2014 <main+0x1b80>
    63a7: 86 91        	stx	$91                     ; 0x2091 <main+0x1bfd>
    63a9: a6 15        	ldx	$15                     ; 0x2015 <main+0x1b81>
    63ab: 86 92        	stx	$92                     ; 0x2092 <main+0x1bfe>
    63ad: a5 91        	lda	$91                     ; 0x2091 <main+0x1bfd>
    63af: 18           	clc
    63b0: 69 0d        	adc	#$d
    63b2: 85 12        	sta	$12                     ; 0x2012 <main+0x1b7e>
    63b4: a5 92        	lda	$92                     ; 0x2092 <main+0x1bfe>
    63b6: 69 00        	adc	#$0
    63b8: 85 13        	sta	$13                     ; 0x2013 <main+0x1b7f>
    63ba: a0 01        	ldy	#$1
    63bc: b1 12        	lda	($12),y                 ; 0x2012 <main+0x1b7e>
    63be: 30 16        	bmi	$63d6 <_ZN12_GLOBAL__N_112print_stringEPKcP6Status+0x39>
    63c0: a0 0d        	ldy	#$d
    63c2: 85 12        	sta	$12                     ; 0x2012 <main+0x1b7e>
    63c4: b1 91        	lda	($91),y                 ; 0x2091 <main+0x1bfd>
    63c6: a6 12        	ldx	$12                     ; 0x2012 <main+0x1b7e>
    63c8: 86 96        	stx	$96                     ; 0x2096 <main+0x1c02>
    63ca: d0 0f        	bne	$63db <_ZN12_GLOBAL__N_112print_stringEPKcP6Status+0x3e>
    63cc: aa           	tax
    63cd: d0 0c        	bne	$63db <_ZN12_GLOBAL__N_112print_stringEPKcP6Status+0x3e>
    63cf: 64 93        	stz	$93                     ; 0x2093 <main+0x1bff>
    63d1: a2 00        	ldx	#$0
    63d3: 4c a4 64     	jmp	$64a4 <_ZN12_GLOBAL__N_112print_stringEPKcP6Status+0x107>
    63d6: a9 ff        	lda	#$ff
    63d8: aa           	tax
    63d9: 86 96        	stx	$96                     ; 0x2096 <main+0x1c02>
    63db: 85 93        	sta	$93                     ; 0x2093 <main+0x1bff>
    63dd: 64 12        	stz	$12                     ; 0x2012 <main+0x1b7e>
    63df: a4 8f        	ldy	$8f                     ; 0x208f <main+0x1bfb>
    63e1: a6 90        	ldx	$90                     ; 0x2090 <main+0x1bfc>
    63e3: 86 16        	stx	$16                     ; 0x2016 <main+0x1b82>
    63e5: 64 13        	stz	$13                     ; 0x2013 <main+0x1b7f>
    63e7: 98           	tya
    63e8: 18           	clc
    63e9: 65 12        	adc	$12                     ; 0x2012 <main+0x1b7e>
    63eb: 85 14        	sta	$14                     ; 0x2014 <main+0x1b80>
    63ed: a5 90        	lda	$90                     ; 0x2090 <main+0x1bfc>
    63ef: 65 13        	adc	$13                     ; 0x2013 <main+0x1b7f>
    63f1: 85 15        	sta	$15                     ; 0x2015 <main+0x1b81>
    63f3: b2 14        	lda	($14)                   ; 0x2014 <main+0x1b80>
    63f5: d0 03        	bne	$63fa <_ZN12_GLOBAL__N_112print_stringEPKcP6Status+0x5d>
    63f7: 4c 9e 64     	jmp	$649e <_ZN12_GLOBAL__N_112print_stringEPKcP6Status+0x101>
    63fa: e6 12        	inc	$12                     ; 0x2012 <main+0x1b7e>
    63fc: d0 02        	bne	$6400 <_ZN12_GLOBAL__N_112print_stringEPKcP6Status+0x63>
    63fe: e6 13        	inc	$13                     ; 0x2013 <main+0x1b7f>
    6400: a6 96        	ldx	$96                     ; 0x2096 <main+0x1c02>
    6402: e4 13        	cpx	$13                     ; 0x2013 <main+0x1b7f>
    6404: d0 e1        	bne	$63e7 <_ZN12_GLOBAL__N_112print_stringEPKcP6Status+0x4a>
    6406: a6 93        	ldx	$93                     ; 0x2093 <main+0x1bff>
    6408: e4 12        	cpx	$12                     ; 0x2012 <main+0x1b7e>
    640a: d0 db        	bne	$63e7 <_ZN12_GLOBAL__N_112print_stringEPKcP6Status+0x4a>
    640c: a0 01        	ldy	#$1
    640e: b1 91        	lda	($91),y                 ; 0x2091 <main+0x1bfd>
    6410: 29 01        	and	#$1
    6412: f0 03        	beq	$6417 <_ZN12_GLOBAL__N_112print_stringEPKcP6Status+0x7a>
    6414: 4c 6f 64     	jmp	$646f <_ZN12_GLOBAL__N_112print_stringEPKcP6Status+0xd2>
    6417: a5 91        	lda	$91                     ; 0x2091 <main+0x1bfd>
    6419: 18           	clc
    641a: 69 0b        	adc	#$b
    641c: 85 14        	sta	$14                     ; 0x2014 <main+0x1b80>
    641e: a5 92        	lda	$92                     ; 0x2092 <main+0x1bfe>
    6420: 69 00        	adc	#$0
    6422: 85 15        	sta	$15                     ; 0x2015 <main+0x1b81>
    6424: a0 0b        	ldy	#$b
    6426: b1 91        	lda	($91),y                 ; 0x2091 <main+0x1bfd>
    6428: 85 13        	sta	$13                     ; 0x2013 <main+0x1b7f>
    642a: a0 01        	ldy	#$1
    642c: b1 14        	lda	($14),y                 ; 0x2014 <main+0x1b80>
    642e: 85 12        	sta	$12                     ; 0x2012 <main+0x1b7e>
    6430: a6 96        	ldx	$96                     ; 0x2096 <main+0x1c02>
    6432: e4 12        	cpx	$12                     ; 0x2012 <main+0x1b7e>
    6434: d0 08        	bne	$643e <_ZN12_GLOBAL__N_112print_stringEPKcP6Status+0xa1>
    6436: a6 93        	ldx	$93                     ; 0x2093 <main+0x1bff>
    6438: e4 13        	cpx	$13                     ; 0x2013 <main+0x1b7f>
    643a: 90 06        	bcc	$6442 <_ZN12_GLOBAL__N_112print_stringEPKcP6Status+0xa5>
    643c: 80 31        	bra	$646f <_ZN12_GLOBAL__N_112print_stringEPKcP6Status+0xd2>
    643e: e4 12        	cpx	$12                     ; 0x2012 <main+0x1b7e>
    6440: b0 2d        	bcs	$646f <_ZN12_GLOBAL__N_112print_stringEPKcP6Status+0xd2>
    6442: 38           	sec
    6443: a5 93        	lda	$93                     ; 0x2093 <main+0x1bff>
    6445: e5 13        	sbc	$13                     ; 0x2013 <main+0x1b7f>
    6447: a8           	tay
    6448: a5 96        	lda	$96                     ; 0x2096 <main+0x1c02>
    644a: e5 12        	sbc	$12                     ; 0x2012 <main+0x1b7e>
    644c: 85 95        	sta	$95                     ; 0x2095 <main+0x1c01>
    644e: a6 91        	ldx	$91                     ; 0x2091 <main+0x1bfd>
    6450: 86 12        	stx	$12                     ; 0x2012 <main+0x1b7e>
    6452: a6 92        	ldx	$92                     ; 0x2092 <main+0x1bfe>
    6454: 86 13        	stx	$13                     ; 0x2013 <main+0x1b7f>
    6456: 84 94        	sty	$94                     ; 0x2094 <main+0x1c00>
    6458: a9 20        	lda	#$20
    645a: 20 c2 62     	jsr	$62c2 <_ZN12_GLOBAL__N_13putEcP6Status>
    645d: a6 95        	ldx	$95                     ; 0x2095 <main+0x1c01>
    645f: e6 94        	inc	$94                     ; 0x2094 <main+0x1c00>
    6461: d0 01        	bne	$6464 <_ZN12_GLOBAL__N_112print_stringEPKcP6Status+0xc7>
    6463: e8           	inx
    6464: 86 95        	stx	$95                     ; 0x2095 <main+0x1c01>
    6466: a4 94        	ldy	$94                     ; 0x2094 <main+0x1c00>
    6468: 8a           	txa
    6469: d0 e3        	bne	$644e <_ZN12_GLOBAL__N_112print_stringEPKcP6Status+0xb1>
    646b: a5 94        	lda	$94                     ; 0x2094 <main+0x1c00>
    646d: d0 df        	bne	$644e <_ZN12_GLOBAL__N_112print_stringEPKcP6Status+0xb1>
    646f: a4 96        	ldy	$96                     ; 0x2096 <main+0x1c02>
    6471: d0 04        	bne	$6477 <_ZN12_GLOBAL__N_112print_stringEPKcP6Status+0xda>
    6473: a5 93        	lda	$93                     ; 0x2093 <main+0x1bff>
    6475: f0 26        	beq	$649d <_ZN12_GLOBAL__N_112print_stringEPKcP6Status+0x100>
    6477: a2 ff        	ldx	#$ff
    6479: c6 93        	dec	$93                     ; 0x2093 <main+0x1bff>
    647b: e4 93        	cpx	$93                     ; 0x2093 <main+0x1bff>
    647d: d0 01        	bne	$6480 <_ZN12_GLOBAL__N_112print_stringEPKcP6Status+0xe3>
    647f: 88           	dey
    6480: 84 94        	sty	$94                     ; 0x2094 <main+0x1c00>
    6482: b2 8f        	lda	($8f)                   ; 0x208f <main+0x1bfb>
    6484: e6 8f        	inc	$8f                     ; 0x208f <main+0x1bfb>
    6486: d0 02        	bne	$648a <_ZN12_GLOBAL__N_112print_stringEPKcP6Status+0xed>
    6488: e6 90        	inc	$90                     ; 0x2090 <main+0x1bfc>
    648a: a6 91        	ldx	$91                     ; 0x2091 <main+0x1bfd>
    648c: 86 12        	stx	$12                     ; 0x2012 <main+0x1b7e>
    648e: a6 92        	ldx	$92                     ; 0x2092 <main+0x1bfe>
    6490: 86 13        	stx	$13                     ; 0x2013 <main+0x1b7f>
    6492: 20 c2 62     	jsr	$62c2 <_ZN12_GLOBAL__N_13putEcP6Status>
    6495: a4 94        	ldy	$94                     ; 0x2094 <main+0x1c00>
    6497: d0 de        	bne	$6477 <_ZN12_GLOBAL__N_112print_stringEPKcP6Status+0xda>
    6499: a5 93        	lda	$93                     ; 0x2093 <main+0x1bff>
    649b: d0 da        	bne	$6477 <_ZN12_GLOBAL__N_112print_stringEPKcP6Status+0xda>
    649d: 60           	rts
    649e: a6 12        	ldx	$12                     ; 0x2012 <main+0x1b7e>
    64a0: 86 93        	stx	$93                     ; 0x2093 <main+0x1bff>
    64a2: a6 13        	ldx	$13                     ; 0x2013 <main+0x1b7f>
    64a4: 86 96        	stx	$96                     ; 0x2096 <main+0x1c02>
    64a6: 4c 0c 64     	jmp	$640c <_ZN12_GLOBAL__N_112print_stringEPKcP6Status+0x6f>

000064a9 <printf>:
    64a9: 18           	clc
    64aa: a6 10        	ldx	$10                     ; 0x2010 <main+0x1b7c>
    64ac: a4 11        	ldy	$11                     ; 0x2011 <main+0x1b7d>
    64ae: 86 58        	stx	$58                     ; 0x2058 <main+0x1bc4>
    64b0: 84 59        	sty	$59                     ; 0x2059 <main+0x1bc5>
    64b2: a6 58        	ldx	$58                     ; 0x2058 <main+0x1bc4>
    64b4: a4 59        	ldy	$59                     ; 0x2059 <main+0x1bc5>
    64b6: 86 43        	stx	$43                     ; 0x2043 <main+0x1baf>
    64b8: 84 44        	sty	$44                     ; 0x2044 <main+0x1bb0>
    64ba: a2 ff        	ldx	#$ff
    64bc: 86 48        	stx	$48                     ; 0x2048 <main+0x1bb4>
    64be: 86 49        	stx	$49                     ; 0x2049 <main+0x1bb5>
    64c0: 64 4a        	stz	$4a                     ; 0x204a <main+0x1bb6>
    64c2: 64 4b        	stz	$4b                     ; 0x204b <main+0x1bb7>
    64c4: e8           	inx
    64c5: 86 14        	stx	$14                     ; 0x2014 <main+0x1b80>
    64c7: a2 00        	ldx	#$0
    64c9: 86 15        	stx	$15                     ; 0x2015 <main+0x1b81>
    64cb: a6 14        	ldx	$14                     ; 0x2014 <main+0x1b80>
    64cd: a4 15        	ldy	$15                     ; 0x2015 <main+0x1b81>
    64cf: 86 4e        	stx	$4e                     ; 0x204e <main+0x1bba>
    64d1: 84 4f        	sty	$4f                     ; 0x204f <main+0x1bbb>
    64d3: a2 02        	ldx	#$2
    64d5: 86 54        	stx	$54                     ; 0x2054 <main+0x1bc0>
    64d7: 64 55        	stz	$55                     ; 0x2055 <main+0x1bc1>
    64d9: a6 43        	ldx	$43                     ; 0x2043 <main+0x1baf>
    64db: a4 44        	ldy	$44                     ; 0x2044 <main+0x1bb0>
    64dd: 86 56        	stx	$56                     ; 0x2056 <main+0x1bc2>
    64df: 84 57        	sty	$57                     ; 0x2057 <main+0x1bc3>
    64e1: a6 12        	ldx	$12                     ; 0x2012 <main+0x1b7e>
    64e3: 86 41        	stx	$41                     ; 0x2041 <main+0x1bad>
    64e5: a6 13        	ldx	$13                     ; 0x2013 <main+0x1b7f>
    64e7: 86 42        	stx	$42                     ; 0x2042 <main+0x1bae>
    64e9: b2 12        	lda	($12)                   ; 0x2012 <main+0x1b7e>
    64eb: c9 25        	cmp	#$25
    64ed: f0 26        	beq	$6515 <printf+0x6c>
    64ef: aa           	tax
    64f0: f0 3e        	beq	$6530 <printf+0x87>
    64f2: 85 35        	sta	$35                     ; 0x2035 <main+0x1ba1>
    64f4: a2 35        	ldx	#$35
    64f6: 86 12        	stx	$12                     ; 0x2012 <main+0x1b7e>
    64f8: a2 00        	ldx	#$0
    64fa: 86 13        	stx	$13                     ; 0x2013 <main+0x1b7f>
    64fc: 20 85 4e     	jsr	$4e85 <textPrint>
    64ff: e6 41        	inc	$41                     ; 0x2041 <main+0x1bad>
    6501: d0 02        	bne	$6505 <printf+0x5c>
    6503: e6 42        	inc	$42                     ; 0x2042 <main+0x1bae>
    6505: e6 4a        	inc	$4a                     ; 0x204a <main+0x1bb6>
    6507: d0 02        	bne	$650b <printf+0x62>
    6509: e6 4b        	inc	$4b                     ; 0x204b <main+0x1bb7>
    650b: a6 41        	ldx	$41                     ; 0x2041 <main+0x1bad>
    650d: 86 12        	stx	$12                     ; 0x2012 <main+0x1b7e>
    650f: a6 42        	ldx	$42                     ; 0x2042 <main+0x1bae>
    6511: 86 13        	stx	$13                     ; 0x2013 <main+0x1b7f>
    6513: 80 cc        	bra	$64e1 <printf+0x38>
    6515: a2 45        	ldx	#$45
    6517: 86 14        	stx	$14                     ; 0x2014 <main+0x1b80>
    6519: a2 00        	ldx	#$0
    651b: 86 15        	stx	$15                     ; 0x2015 <main+0x1b81>
    651d: 20 8e 57     	jsr	$578e <_ZN12_GLOBAL__N_15printEPKcP6Status>
    6520: a6 13        	ldx	$13                     ; 0x2013 <main+0x1b7f>
    6522: e4 42        	cpx	$42                     ; 0x2042 <main+0x1bae>
    6524: d0 bb        	bne	$64e1 <printf+0x38>
    6526: a6 12        	ldx	$12                     ; 0x2012 <main+0x1b7e>
    6528: e4 41        	cpx	$41                     ; 0x2041 <main+0x1bad>
    652a: d0 b5        	bne	$64e1 <printf+0x38>
    652c: b2 41        	lda	($41)                   ; 0x2041 <main+0x1bad>
    652e: 80 c2        	bra	$64f2 <printf+0x49>
    6530: 60           	rts

00006531 <sprintf>:
    6531: 18           	clc
    6532: a6 10        	ldx	$10                     ; 0x2010 <main+0x1b7c>
    6534: a4 11        	ldy	$11                     ; 0x2011 <main+0x1b7d>
    6536: 86 58        	stx	$58                     ; 0x2058 <main+0x1bc4>
    6538: 84 59        	sty	$59                     ; 0x2059 <main+0x1bc5>
    653a: a6 58        	ldx	$58                     ; 0x2058 <main+0x1bc4>
    653c: a4 59        	ldy	$59                     ; 0x2059 <main+0x1bc5>
    653e: 86 43        	stx	$43                     ; 0x2043 <main+0x1baf>
    6540: 84 44        	sty	$44                     ; 0x2044 <main+0x1bb0>
    6542: a2 ff        	ldx	#$ff
    6544: 86 48        	stx	$48                     ; 0x2048 <main+0x1bb4>
    6546: 86 49        	stx	$49                     ; 0x2049 <main+0x1bb5>
    6548: 64 4a        	stz	$4a                     ; 0x204a <main+0x1bb6>
    654a: 64 4b        	stz	$4b                     ; 0x204b <main+0x1bb7>
    654c: a9 2a        	lda	#$2a
    654e: 85 4e        	sta	$4e                     ; 0x204e <main+0x1bba>
    6550: a2 a3        	ldx	#$a3
    6552: 86 4f        	stx	$4f                     ; 0x204f <main+0x1bbb>
    6554: a2 00        	ldx	#$0
    6556: 86 12        	stx	$12                     ; 0x2012 <main+0x1b7e>
    6558: a2 00        	ldx	#$0
    655a: 86 13        	stx	$13                     ; 0x2013 <main+0x1b7f>
    655c: a6 12        	ldx	$12                     ; 0x2012 <main+0x1b7e>
    655e: a4 13        	ldy	$13                     ; 0x2013 <main+0x1b7f>
    6560: 86 54        	stx	$54                     ; 0x2054 <main+0x1bc0>
    6562: 84 55        	sty	$55                     ; 0x2055 <main+0x1bc1>
    6564: a6 43        	ldx	$43                     ; 0x2043 <main+0x1baf>
    6566: a4 44        	ldy	$44                     ; 0x2044 <main+0x1bb0>
    6568: 86 56        	stx	$56                     ; 0x2056 <main+0x1bc2>
    656a: 84 57        	sty	$57                     ; 0x2057 <main+0x1bc3>
    656c: a2 22        	ldx	#$22
    656e: 86 12        	stx	$12                     ; 0x2012 <main+0x1b7e>
    6570: a2 68        	ldx	#$68
    6572: 86 13        	stx	$13                     ; 0x2013 <main+0x1b7f>
    6574: 80 17        	bra	$658d <sprintf+0x5c>
    6576: a2 45        	ldx	#$45
    6578: 86 14        	stx	$14                     ; 0x2014 <main+0x1b80>
    657a: a2 00        	ldx	#$0
    657c: 86 15        	stx	$15                     ; 0x2015 <main+0x1b81>
    657e: 20 8e 57     	jsr	$578e <_ZN12_GLOBAL__N_15printEPKcP6Status>
    6581: a6 13        	ldx	$13                     ; 0x2013 <main+0x1b7f>
    6583: e4 42        	cpx	$42                     ; 0x2042 <main+0x1bae>
    6585: d0 06        	bne	$658d <sprintf+0x5c>
    6587: a6 12        	ldx	$12                     ; 0x2012 <main+0x1b7e>
    6589: e4 41        	cpx	$41                     ; 0x2041 <main+0x1bad>
    658b: f0 11        	beq	$659e <sprintf+0x6d>
    658d: a6 12        	ldx	$12                     ; 0x2012 <main+0x1b7e>
    658f: 86 41        	stx	$41                     ; 0x2041 <main+0x1bad>
    6591: a6 13        	ldx	$13                     ; 0x2013 <main+0x1b7f>
    6593: 86 42        	stx	$42                     ; 0x2042 <main+0x1bae>
    6595: b2 12        	lda	($12)                   ; 0x2012 <main+0x1b7e>
    6597: c9 25        	cmp	#$25
    6599: f0 db        	beq	$6576 <sprintf+0x45>
    659b: aa           	tax
    659c: f0 43        	beq	$65e1 <sprintf+0xb0>
    659e: a6 4a        	ldx	$4a                     ; 0x204a <main+0x1bb6>
    65a0: 86 12        	stx	$12                     ; 0x2012 <main+0x1b7e>
    65a2: a4 4b        	ldy	$4b                     ; 0x204b <main+0x1bb7>
    65a4: 84 13        	sty	$13                     ; 0x2013 <main+0x1b7f>
    65a6: c0 ff        	cpy	#$ff
    65a8: d0 04        	bne	$65ae <sprintf+0x7d>
    65aa: e0 ff        	cpx	#$ff
    65ac: f0 15        	beq	$65c3 <sprintf+0x92>
    65ae: b2 41        	lda	($41)                   ; 0x2041 <main+0x1bad>
    65b0: 85 16        	sta	$16                     ; 0x2016 <main+0x1b82>
    65b2: a9 2a        	lda	#$2a
    65b4: 18           	clc
    65b5: 65 12        	adc	$12                     ; 0x2012 <main+0x1b7e>
    65b7: 85 14        	sta	$14                     ; 0x2014 <main+0x1b80>
    65b9: a9 a3        	lda	#$a3
    65bb: 65 13        	adc	$13                     ; 0x2013 <main+0x1b7f>
    65bd: 85 15        	sta	$15                     ; 0x2015 <main+0x1b81>
    65bf: a5 16        	lda	$16                     ; 0x2016 <main+0x1b82>
    65c1: 92 14        	sta	($14)                   ; 0x2014 <main+0x1b80>
    65c3: e6 12        	inc	$12                     ; 0x2012 <main+0x1b7e>
    65c5: d0 02        	bne	$65c9 <sprintf+0x98>
    65c7: e6 13        	inc	$13                     ; 0x2013 <main+0x1b7f>
    65c9: a6 12        	ldx	$12                     ; 0x2012 <main+0x1b7e>
    65cb: a4 13        	ldy	$13                     ; 0x2013 <main+0x1b7f>
    65cd: 86 4a        	stx	$4a                     ; 0x204a <main+0x1bb6>
    65cf: 84 4b        	sty	$4b                     ; 0x204b <main+0x1bb7>
    65d1: e6 41        	inc	$41                     ; 0x2041 <main+0x1bad>
    65d3: d0 02        	bne	$65d7 <sprintf+0xa6>
    65d5: e6 42        	inc	$42                     ; 0x2042 <main+0x1bae>
    65d7: a6 41        	ldx	$41                     ; 0x2041 <main+0x1bad>
    65d9: 86 12        	stx	$12                     ; 0x2012 <main+0x1b7e>
    65db: a6 42        	ldx	$42                     ; 0x2042 <main+0x1bae>
    65dd: 86 13        	stx	$13                     ; 0x2013 <main+0x1b7f>
    65df: 80 ac        	bra	$658d <sprintf+0x5c>
    65e1: a6 4a        	ldx	$4a                     ; 0x204a <main+0x1bb6>
    65e3: 86 12        	stx	$12                     ; 0x2012 <main+0x1b7e>
    65e5: a4 4b        	ldy	$4b                     ; 0x204b <main+0x1bb7>
    65e7: 84 13        	sty	$13                     ; 0x2013 <main+0x1b7f>
    65e9: c0 ff        	cpy	#$ff
    65eb: d0 04        	bne	$65f1 <sprintf+0xc0>
    65ed: e0 ff        	cpx	#$ff
    65ef: f0 11        	beq	$6602 <sprintf+0xd1>
    65f1: a9 2a        	lda	#$2a
    65f3: 18           	clc
    65f4: 65 12        	adc	$12                     ; 0x2012 <main+0x1b7e>
    65f6: 85 12        	sta	$12                     ; 0x2012 <main+0x1b7e>
    65f8: a9 a3        	lda	#$a3
    65fa: 65 13        	adc	$13                     ; 0x2013 <main+0x1b7f>
    65fc: 85 13        	sta	$13                     ; 0x2013 <main+0x1b7f>
    65fe: a9 00        	lda	#$0
    6600: 92 12        	sta	($12)                   ; 0x2012 <main+0x1b7e>
    6602: 60           	rts

00006603 <memcpy>:
    6603: a8           	tay
    6604: 8a           	txa
    6605: d0 03        	bne	$660a <memcpy+0x7>
    6607: 98           	tya
    6608: f0 24        	beq	$662e <memcpy+0x2b>
    660a: a5 12        	lda	$12                     ; 0x2012 <main+0x1b7e>
    660c: 85 16        	sta	$16                     ; 0x2016 <main+0x1b82>
    660e: a5 13        	lda	$13                     ; 0x2013 <main+0x1b7f>
    6610: 85 17        	sta	$17                     ; 0x2017 <main+0x1b83>
    6612: b2 14        	lda	($14)                   ; 0x2014 <main+0x1b80>
    6614: 92 16        	sta	($16)                   ; 0x2016 <main+0x1b82>
    6616: e6 16        	inc	$16                     ; 0x2016 <main+0x1b82>
    6618: d0 02        	bne	$661c <memcpy+0x19>
    661a: e6 17        	inc	$17                     ; 0x2017 <main+0x1b83>
    661c: e6 14        	inc	$14                     ; 0x2014 <main+0x1b80>
    661e: d0 02        	bne	$6622 <memcpy+0x1f>
    6620: e6 15        	inc	$15                     ; 0x2015 <main+0x1b81>
    6622: 88           	dey
    6623: c0 ff        	cpy	#$ff
    6625: d0 01        	bne	$6628 <memcpy+0x25>
    6627: ca           	dex
    6628: 8a           	txa
    6629: d0 e7        	bne	$6612 <memcpy+0xf>
    662b: 98           	tya
    662c: d0 e4        	bne	$6612 <memcpy+0xf>
    662e: 60           	rts

0000662f <__memset>:
    662f: a4 14        	ldy	$14                     ; 0x2014 <main+0x1b80>
    6631: d0 04        	bne	$6637 <__memset+0x8>
    6633: e0 00        	cpx	#$0
    6635: f0 17        	beq	$664e <__memset+0x1f>
    6637: 92 12        	sta	($12)                   ; 0x2012 <main+0x1b7e>
    6639: e6 12        	inc	$12                     ; 0x2012 <main+0x1b7e>
    663b: d0 02        	bne	$663f <__memset+0x10>
    663d: e6 13        	inc	$13                     ; 0x2013 <main+0x1b7f>
    663f: ca           	dex
    6640: e0 ff        	cpx	#$ff
    6642: d0 02        	bne	$6646 <__memset+0x17>
    6644: c6 14        	dec	$14                     ; 0x2014 <main+0x1b80>
    6646: a4 14        	ldy	$14                     ; 0x2014 <main+0x1b80>
    6648: d0 ed        	bne	$6637 <__memset+0x8>
    664a: e0 00        	cpx	#$0
    664c: d0 e9        	bne	$6637 <__memset+0x8>
    664e: 60           	rts
