
mp3.elf:	file format elf32-mos

SYMBOL TABLE:
00000000 l    df *ABS*	00000000 zero-bss.c
00000000 l    df *ABS*	00000000 zero-zp-bss.c
00000000 l    df *ABS*	00000000 ld-temp.o
00000038 l     O .zp.bss	00000007 kernelEventData
000024b1 l     O .rodata	00000030 textColors
00000030 l     O .zp.bss	00000001 _col
00000031 l     O .zp.bss	00000001 _row
00002607 l     O .bss	00000004 _BITMAP_BASE.0
00000037 l     O .zp.bss	00000001 kernelError
000013c6 l     F .text	00000bb0 printf
0000232a l     F .text	00000005 strlen
00000035 l     O .zp.bss	00000002 theMP3file
00000e18 l     F .text	0000014b fileRead
00000034 l     O .zp.bss	00000001 totalsize
0000111b l     F .text	000000bb textPrintUInt
00000f63 l     F .text	000001b8 textPrint
0000214c l     F .text	00000192 free
00001f76 l     F .text	000001d6 malloc
0000232f l     F .text	00000147 __umodsi3
000011d6 l     F .text	0000000d __putchar
00000032 l     O .zp.bss	00000002 __putchar.s
000011e8 l     F .text	000000d1 _ZN12_GLOBAL__N_13putEcP6Status
000012b9 l     F .text	0000010d _ZN12_GLOBAL__N_112print_stringEPKcP6Status
0000260b l     O .bss	00000001 _ZN12_GLOBAL__N_111initializedE
00000316 l     F .text	00000139 _ZN12_GLOBAL__N_19FreeChunk6insertEPvj
0000260c l     O .bss	00000001 _ZN12_GLOBAL__N_19last_freeE
0000260f l     O .bss	00000002 _ZN12_GLOBAL__N_19free_listE
00000450 l     F .text	000000df _ZN12_GLOBAL__N_19FreeChunk6removeEv
0000260d l     O .bss	00000002 _ZN12_GLOBAL__N_19free_sizeE
00000555 g     F .text	000008c3 main
00010400 g       .backg	00000000 backg_end
00023000 g       .palback	00000000 palback_end
00010000 g       .backg	00000000 backg_start
00010400 g       .palback	00000000 palback_start
00000311 g       .text	00000000 __after_main
00000300 g       .text	00000000 __do_init_stack
00000308 g       .text	00000000 __do_zero_bss
0000052f g     F .text	00000013 __zero_bss
0000030b g       .text	00000000 __do_zero_zp_bss
00000542 g     F .text	00000013 __zero_zp_bss
000011e3 g     F .text	00000005 exit
00000314 g       .text	00000000 _fini
00002476 g       .rodata	00000000 __set_v
0000230a  w    F .text	00000020 __memset
00001000  w      *ABS*	00000000 __heap_default_limit
00002612 g       .noinit	00000000 __heap_start
000022de  w    F .text	0000002c memcpy
00000010 g       *ABS*	00000000 __rc0
00000012 g       *ABS*	00000000 __rc2
00000014 g       *ABS*	00000000 __rc4
00000016 g       *ABS*	00000000 __rc6
00000018 g       *ABS*	00000000 __rc8
0000001a g       *ABS*	00000000 __rc10
0000001c g       *ABS*	00000000 __rc12
0000001e g       *ABS*	00000000 __rc14
00000020 g       *ABS*	00000000 __rc16
00000022 g       *ABS*	00000000 __rc18
00000024 g       *ABS*	00000000 __rc20
00000026 g       *ABS*	00000000 __rc22
00000028 g       *ABS*	00000000 __rc24
0000002a g       *ABS*	00000000 __rc26
0000002c g       *ABS*	00000000 __rc28
0000002e g       *ABS*	00000000 __rc30
0000002f g       *ABS*	00000000 __rc31
00000300 g       *ABS*	00000000 __f256_start
0000a000 g       *ABS*	00000000 __stack
0000a000 g       *ABS*	00000000 __SLOT_ADDR
0800a000 g       *ABS*	00000000 __block8_lma
00002000 g       *ABS*	00000000 __BLOCK_SIZE
0900a000 g       *ABS*	00000000 __block9_lma
0a00a000 g       *ABS*	00000000 __block10_lma
0b00a000 g       *ABS*	00000000 __block11_lma
0c00a000 g       *ABS*	00000000 __block12_lma
0d00a000 g       *ABS*	00000000 __block13_lma
0e00a000 g       *ABS*	00000000 __block14_lma
0f00a000 g       *ABS*	00000000 __block15_lma
1000a000 g       *ABS*	00000000 __block16_lma
1100a000 g       *ABS*	00000000 __block17_lma
1200a000 g       *ABS*	00000000 __block18_lma
1300a000 g       *ABS*	00000000 __block19_lma
1400a000 g       *ABS*	00000000 __block20_lma
1500a000 g       *ABS*	00000000 __block21_lma
1600a000 g       *ABS*	00000000 __block22_lma
1700a000 g       *ABS*	00000000 __block23_lma
00010000 g       *ABS*	00000000 __backg_lma
00000400 g       *ABS*	00000000 __backg_size
00010400 g       *ABS*	00000000 __palback_lma
00012c00 g       *ABS*	00000000 __palback_size
00002607 g       .bss	00000000 __bss_start
00010400 g       .backg	00000000 end_backg
00023000 g       .palback	00000000 end_palback
00000300 g       .text	00000000 _start
0000002d g       *ABS*	00000000 __rc29
0000002b g       *ABS*	00000000 __rc27
00000029 g       *ABS*	00000000 __rc25
00000027 g       *ABS*	00000000 __rc23
00000025 g       *ABS*	00000000 __rc21
00000023 g       *ABS*	00000000 __rc19
00000021 g       *ABS*	00000000 __rc17
0000001f g       *ABS*	00000000 __rc15
0000001d g       *ABS*	00000000 __rc13
0000001b g       *ABS*	00000000 __rc11
00000019 g       *ABS*	00000000 __rc9
00000017 g       *ABS*	00000000 __rc7
00000015 g       *ABS*	00000000 __rc5
00000013 g       *ABS*	00000000 __rc3
00000011 g       *ABS*	00000000 __rc1
00000030 g       .zp.data	00000000 __zp_data_start
00000300 g       *ABS*	00000000 __zp_data_load_start
00000000 g       *ABS*	00000000 __zp_data_size
00000030 g       .zp.bss	00000000 __zp_bss_start
0000000f g       *ABS*	00000000 __zp_bss_size
00000300 g       .text	00000000 _init
00002476 g       .text	00000000 __init_array_start
00002476 g       .text	00000000 __init_array_end
00002476 g       .text	00000000 __fini_array_start
00002476 g       .text	00000000 __fini_array_end
00002607 g       .data	00000000 __data_start
00002607 g       .data	00000000 __data_end
00002607 g       *ABS*	00000000 __data_load_start
00000000 g       *ABS*	00000000 __data_size
00002611 g       .bss	00000000 __bss_end
0000000a g       *ABS*	00000000 __bss_size
00002611 g       .noinit	00000000 end_block8
00002611 g       .noinit	00000000 end_block9
00002611 g       .noinit	00000000 end_block10
00002611 g       .noinit	00000000 end_block11
00002611 g       .noinit	00000000 end_block12
00002611 g       .noinit	00000000 end_block13
00002611 g       .noinit	00000000 end_block14
00002611 g       .noinit	00000000 end_block15
00002611 g       .noinit	00000000 end_block16
00002611 g       .noinit	00000000 end_block17
00002611 g       .noinit	00000000 end_block18
00002611 g       .noinit	00000000 end_block19
00002611 g       .noinit	00000000 end_block20
00002611 g       .noinit	00000000 end_block21
00002611 g       .noinit	00000000 end_block22
00002611 g       .noinit	00000000 end_block23

Disassembly of section .text:

00000300 <_start>:
     300: a9 00        	lda	#$0
     302: 85 10        	sta	$10                     ; 0x2010 <malloc+0x9a>
     304: a9 a0        	lda	#$a0
     306: 85 11        	sta	$11                     ; 0x2011 <malloc+0x9b>

00000308 <__do_zero_bss>:
     308: 20 2f 05     	jsr	$52f <__zero_bss>

0000030b <__do_zero_zp_bss>:
     30b: 20 42 05     	jsr	$542 <__zero_zp_bss>
     30e: 20 55 05     	jsr	$555 <main>

00000311 <__after_main>:
     311: 4c e3 11     	jmp	$11e3 <exit>

00000314 <_fini>:
     314: 60           	rts
     315: 00           	brk

00000316 <_ZN12_GLOBAL__N_19FreeChunk6insertEPvj>:
     316: 85 16        	sta	$16                     ; 0x2016 <malloc+0xa0>
     318: 29 fe        	and	#$fe
     31a: 85 14        	sta	$14                     ; 0x2014 <malloc+0x9e>
     31c: a0 01        	ldy	#$1
     31e: 98           	tya
     31f: 32 12        	and	($12)                   ; 0x2012 <malloc+0x9c>
     321: 05 14        	ora	$14                     ; 0x2014 <malloc+0x9e>
     323: 92 12        	sta	($12)                   ; 0x2012 <malloc+0x9c>
     325: a5 12        	lda	$12                     ; 0x2012 <malloc+0x9c>
     327: 18           	clc
     328: 65 14        	adc	$14                     ; 0x2014 <malloc+0x9e>
     32a: 85 15        	sta	$15                     ; 0x2015 <malloc+0x9f>
     32c: 8a           	txa
     32d: 65 13        	adc	$13                     ; 0x2013 <malloc+0x9d>
     32f: 85 14        	sta	$14                     ; 0x2014 <malloc+0x9e>
     331: 18           	clc
     332: a5 15        	lda	$15                     ; 0x2015 <malloc+0x9f>
     334: 69 fe        	adc	#$fe
     336: 85 17        	sta	$17                     ; 0x2017 <malloc+0xa1>
     338: a5 14        	lda	$14                     ; 0x2014 <malloc+0x9e>
     33a: 69 ff        	adc	#$ff
     33c: 85 15        	sta	$15                     ; 0x2015 <malloc+0x9f>
     33e: a5 17        	lda	$17                     ; 0x2017 <malloc+0xa1>
     340: 85 14        	sta	$14                     ; 0x2014 <malloc+0x9e>
     342: 8a           	txa
     343: 91 12        	sta	($12),y                 ; 0x2012 <malloc+0x9c>
     345: a5 16        	lda	$16                     ; 0x2016 <malloc+0xa0>
     347: 92 14        	sta	($14)                   ; 0x2014 <malloc+0x9e>
     349: 8a           	txa
     34a: 91 14        	sta	($14),y                 ; 0x2014 <malloc+0x9e>
     34c: b1 12        	lda	($12),y                 ; 0x2012 <malloc+0x9c>
     34e: 85 14        	sta	$14                     ; 0x2014 <malloc+0x9e>
     350: a9 fe        	lda	#$fe
     352: 32 12        	and	($12)                   ; 0x2012 <malloc+0x9c>
     354: 18           	clc
     355: 6d 0d 26     	adc	$260d                   ; 0x260d <_ZN12_GLOBAL__N_19free_sizeE>
     358: aa           	tax
     359: a5 14        	lda	$14                     ; 0x2014 <malloc+0x9e>
     35b: 6d 0e 26     	adc	$260e                   ; 0x260e <_ZN12_GLOBAL__N_19free_sizeE+0x1>
     35e: a8           	tay
     35f: 18           	clc
     360: 8a           	txa
     361: 69 fe        	adc	#$fe
     363: aa           	tax
     364: 98           	tya
     365: 69 ff        	adc	#$ff
     367: 8e 0d 26     	stx	$260d                   ; 0x260d <_ZN12_GLOBAL__N_19free_sizeE>
     36a: 8d 0e 26     	sta	$260e                   ; 0x260e <_ZN12_GLOBAL__N_19free_sizeE+0x1>
     36d: ae 0f 26     	ldx	$260f                   ; 0x260f <_ZN12_GLOBAL__N_19free_listE>
     370: 86 16        	stx	$16                     ; 0x2016 <malloc+0xa0>
     372: ac 10 26     	ldy	$2610                   ; 0x2610 <_ZN12_GLOBAL__N_19free_listE+0x1>
     375: a2 00        	ldx	#$0
     377: 86 14        	stx	$14                     ; 0x2014 <malloc+0x9e>
     379: a2 00        	ldx	#$0
     37b: 86 15        	stx	$15                     ; 0x2015 <malloc+0x9f>
     37d: 84 18        	sty	$18                     ; 0x2018 <malloc+0xa2>
     37f: c4 15        	cpy	$15                     ; 0x2015 <malloc+0x9f>
     381: d0 31        	bne	$3b4 <_ZN12_GLOBAL__N_19FreeChunk6insertEPvj+0x9e>
     383: a6 16        	ldx	$16                     ; 0x2016 <malloc+0xa0>
     385: e4 14        	cpx	$14                     ; 0x2014 <malloc+0x9e>
     387: d0 2b        	bne	$3b4 <_ZN12_GLOBAL__N_19FreeChunk6insertEPvj+0x9e>
     389: a0 02        	ldy	#$2
     38b: 18           	clc
     38c: a5 12        	lda	$12                     ; 0x2012 <malloc+0x9c>
     38e: 69 02        	adc	#$2
     390: 85 14        	sta	$14                     ; 0x2014 <malloc+0x9e>
     392: a5 12        	lda	$12                     ; 0x2012 <malloc+0x9c>
     394: 91 12        	sta	($12),y                 ; 0x2012 <malloc+0x9c>
     396: a5 13        	lda	$13                     ; 0x2013 <malloc+0x9d>
     398: 69 00        	adc	#$0
     39a: 85 15        	sta	$15                     ; 0x2015 <malloc+0x9f>
     39c: 88           	dey
     39d: a5 13        	lda	$13                     ; 0x2013 <malloc+0x9d>
     39f: 91 14        	sta	($14),y                 ; 0x2014 <malloc+0x9e>
     3a1: a2 0f        	ldx	#$f
     3a3: 86 16        	stx	$16                     ; 0x2016 <malloc+0xa0>
     3a5: a2 26        	ldx	#$26
     3a7: 86 17        	stx	$17                     ; 0x2017 <malloc+0xa1>
     3a9: a6 12        	ldx	$12                     ; 0x2012 <malloc+0x9c>
     3ab: 86 14        	stx	$14                     ; 0x2014 <malloc+0x9e>
     3ad: a6 13        	ldx	$13                     ; 0x2013 <malloc+0x9d>
     3af: 86 15        	stx	$15                     ; 0x2015 <malloc+0x9f>
     3b1: 4c 2d 04     	jmp	$42d <_ZN12_GLOBAL__N_19FreeChunk6insertEPvj+0x117>
     3b4: a5 12        	lda	$12                     ; 0x2012 <malloc+0x9c>
     3b6: 18           	clc
     3b7: 69 02        	adc	#$2
     3b9: 85 14        	sta	$14                     ; 0x2014 <malloc+0x9e>
     3bb: a4 13        	ldy	$13                     ; 0x2013 <malloc+0x9d>
     3bd: a6 16        	ldx	$16                     ; 0x2016 <malloc+0xa0>
     3bf: 86 19        	stx	$19                     ; 0x2019 <malloc+0xa3>
     3c1: a5 13        	lda	$13                     ; 0x2013 <malloc+0x9d>
     3c3: 84 1a        	sty	$1a                     ; 0x201a <malloc+0xa4>
     3c5: 69 00        	adc	#$0
     3c7: a6 14        	ldx	$14                     ; 0x2014 <malloc+0x9e>
     3c9: 86 16        	stx	$16                     ; 0x2016 <malloc+0xa0>
     3cb: 85 17        	sta	$17                     ; 0x2017 <malloc+0xa1>
     3cd: a6 19        	ldx	$19                     ; 0x2019 <malloc+0xa3>
     3cf: 86 14        	stx	$14                     ; 0x2014 <malloc+0x9e>
     3d1: a4 18        	ldy	$18                     ; 0x2018 <malloc+0xa2>
     3d3: 84 15        	sty	$15                     ; 0x2015 <malloc+0x9f>
     3d5: 84 1b        	sty	$1b                     ; 0x201b <malloc+0xa5>
     3d7: a0 02        	ldy	#$2
     3d9: a5 19        	lda	$19                     ; 0x2019 <malloc+0xa3>
     3db: 91 12        	sta	($12),y                 ; 0x2012 <malloc+0x9c>
     3dd: 88           	dey
     3de: a5 1b        	lda	$1b                     ; 0x201b <malloc+0xa5>
     3e0: 91 16        	sta	($16),y                 ; 0x2016 <malloc+0xa0>
     3e2: 18           	clc
     3e3: a5 19        	lda	$19                     ; 0x2019 <malloc+0xa3>
     3e5: 69 04        	adc	#$4
     3e7: 85 18        	sta	$18                     ; 0x2018 <malloc+0xa2>
     3e9: a5 1b        	lda	$1b                     ; 0x201b <malloc+0xa5>
     3eb: 69 00        	adc	#$0
     3ed: 85 19        	sta	$19                     ; 0x2019 <malloc+0xa3>
     3ef: a0 04        	ldy	#$4
     3f1: b1 14        	lda	($14),y                 ; 0x2014 <malloc+0x9e>
     3f3: 85 14        	sta	$14                     ; 0x2014 <malloc+0x9e>
     3f5: 85 1b        	sta	$1b                     ; 0x201b <malloc+0xa5>
     3f7: a0 01        	ldy	#$1
     3f9: b1 18        	lda	($18),y                 ; 0x2018 <malloc+0xa2>
     3fb: 85 15        	sta	$15                     ; 0x2015 <malloc+0x9f>
     3fd: a8           	tay
     3fe: 18           	clc
     3ff: a5 1b        	lda	$1b                     ; 0x201b <malloc+0xa5>
     401: 69 02        	adc	#$2
     403: 85 18        	sta	$18                     ; 0x2018 <malloc+0xa2>
     405: 98           	tya
     406: 69 00        	adc	#$0
     408: 85 19        	sta	$19                     ; 0x2019 <malloc+0xa3>
     40a: a5 12        	lda	$12                     ; 0x2012 <malloc+0x9c>
     40c: a0 02        	ldy	#$2
     40e: 91 14        	sta	($14),y                 ; 0x2014 <malloc+0x9e>
     410: a5 1a        	lda	$1a                     ; 0x201a <malloc+0xa4>
     412: 88           	dey
     413: 91 18        	sta	($18),y                 ; 0x2018 <malloc+0xa2>
     415: c8           	iny
     416: b1 12        	lda	($12),y                 ; 0x2012 <malloc+0x9c>
     418: 85 18        	sta	$18                     ; 0x2018 <malloc+0xa2>
     41a: 88           	dey
     41b: b1 16        	lda	($16),y                 ; 0x2016 <malloc+0xa0>
     41d: 85 16        	sta	$16                     ; 0x2016 <malloc+0xa0>
     41f: 18           	clc
     420: a5 18        	lda	$18                     ; 0x2018 <malloc+0xa2>
     422: 69 04        	adc	#$4
     424: aa           	tax
     425: a5 16        	lda	$16                     ; 0x2016 <malloc+0xa0>
     427: 69 00        	adc	#$0
     429: 86 16        	stx	$16                     ; 0x2016 <malloc+0xa0>
     42b: 85 17        	sta	$17                     ; 0x2017 <malloc+0xa1>
     42d: 18           	clc
     42e: a5 12        	lda	$12                     ; 0x2012 <malloc+0x9c>
     430: 69 04        	adc	#$4
     432: 85 18        	sta	$18                     ; 0x2018 <malloc+0xa2>
     434: a5 13        	lda	$13                     ; 0x2013 <malloc+0x9d>
     436: 69 00        	adc	#$0
     438: a0 04        	ldy	#$4
     43a: 85 19        	sta	$19                     ; 0x2019 <malloc+0xa3>
     43c: a5 14        	lda	$14                     ; 0x2014 <malloc+0x9e>
     43e: 91 12        	sta	($12),y                 ; 0x2012 <malloc+0x9c>
     440: a5 15        	lda	$15                     ; 0x2015 <malloc+0x9f>
     442: a0 01        	ldy	#$1
     444: 91 18        	sta	($18),y                 ; 0x2018 <malloc+0xa2>
     446: a5 13        	lda	$13                     ; 0x2013 <malloc+0x9d>
     448: 91 16        	sta	($16),y                 ; 0x2016 <malloc+0xa0>
     44a: a5 12        	lda	$12                     ; 0x2012 <malloc+0x9c>
     44c: 92 16        	sta	($16)                   ; 0x2016 <malloc+0xa0>
     44e: 60           	rts
     44f: 00           	brk

00000450 <_ZN12_GLOBAL__N_19FreeChunk6removeEv>:
     450: a0 01        	ldy	#$1
     452: a9 fe        	lda	#$fe
     454: 32 12        	and	($12)                   ; 0x2012 <malloc+0x9c>
     456: 85 14        	sta	$14                     ; 0x2014 <malloc+0x9e>
     458: ad 0d 26     	lda	$260d                   ; 0x260d <_ZN12_GLOBAL__N_19free_sizeE>
     45b: ae 0e 26     	ldx	$260e                   ; 0x260e <_ZN12_GLOBAL__N_19free_sizeE+0x1>
     45e: 86 15        	stx	$15                     ; 0x2015 <malloc+0x9f>
     460: 38           	sec
     461: e5 14        	sbc	$14                     ; 0x2014 <malloc+0x9e>
     463: aa           	tax
     464: a5 15        	lda	$15                     ; 0x2015 <malloc+0x9f>
     466: f1 12        	sbc	($12),y                 ; 0x2012 <malloc+0x9c>
     468: 85 14        	sta	$14                     ; 0x2014 <malloc+0x9e>
     46a: 18           	clc
     46b: 8a           	txa
     46c: 69 02        	adc	#$2
     46e: 85 15        	sta	$15                     ; 0x2015 <malloc+0x9f>
     470: a5 14        	lda	$14                     ; 0x2014 <malloc+0x9e>
     472: 69 00        	adc	#$0
     474: a6 15        	ldx	$15                     ; 0x2015 <malloc+0x9f>
     476: 8e 0d 26     	stx	$260d                   ; 0x260d <_ZN12_GLOBAL__N_19free_sizeE>
     479: 8d 0e 26     	sta	$260e                   ; 0x260e <_ZN12_GLOBAL__N_19free_sizeE+0x1>
     47c: a5 12        	lda	$12                     ; 0x2012 <malloc+0x9c>
     47e: 18           	clc
     47f: 69 02        	adc	#$2
     481: 85 14        	sta	$14                     ; 0x2014 <malloc+0x9e>
     483: a5 13        	lda	$13                     ; 0x2013 <malloc+0x9d>
     485: 69 00        	adc	#$0
     487: c8           	iny
     488: 85 15        	sta	$15                     ; 0x2015 <malloc+0x9f>
     48a: b1 12        	lda	($12),y                 ; 0x2012 <malloc+0x9c>
     48c: aa           	tax
     48d: 88           	dey
     48e: b1 14        	lda	($14),y                 ; 0x2014 <malloc+0x9e>
     490: 85 19        	sta	$19                     ; 0x2019 <malloc+0xa3>
     492: c5 13        	cmp	$13                     ; 0x2013 <malloc+0x9d>
     494: d0 0f        	bne	$4a5 <_ZN12_GLOBAL__N_19FreeChunk6removeEv+0x55>
     496: e4 12        	cpx	$12                     ; 0x2012 <malloc+0x9c>
     498: d0 0b        	bne	$4a5 <_ZN12_GLOBAL__N_19FreeChunk6removeEv+0x55>
     49a: a2 00        	ldx	#$0
     49c: 86 14        	stx	$14                     ; 0x2014 <malloc+0x9e>
     49e: a2 00        	ldx	#$0
     4a0: 86 15        	stx	$15                     ; 0x2015 <malloc+0x9f>
     4a2: 4c 24 05     	jmp	$524 <_ZN12_GLOBAL__N_19FreeChunk6removeEv+0xd4>
     4a5: 86 18        	stx	$18                     ; 0x2018 <malloc+0xa2>
     4a7: a6 12        	ldx	$12                     ; 0x2012 <malloc+0x9c>
     4a9: a5 12        	lda	$12                     ; 0x2012 <malloc+0x9c>
     4ab: 86 1b        	stx	$1b                     ; 0x201b <malloc+0xa5>
     4ad: 18           	clc
     4ae: 69 04        	adc	#$4
     4b0: 85 14        	sta	$14                     ; 0x2014 <malloc+0x9e>
     4b2: a5 13        	lda	$13                     ; 0x2013 <malloc+0x9d>
     4b4: 69 00        	adc	#$0
     4b6: a0 04        	ldy	#$4
     4b8: 85 15        	sta	$15                     ; 0x2015 <malloc+0x9f>
     4ba: b1 12        	lda	($12),y                 ; 0x2012 <malloc+0x9c>
     4bc: 85 1c        	sta	$1c                     ; 0x201c <malloc+0xa6>
     4be: 18           	clc
     4bf: 69 02        	adc	#$2
     4c1: 85 16        	sta	$16                     ; 0x2016 <malloc+0xa0>
     4c3: a0 01        	ldy	#$1
     4c5: b1 14        	lda	($14),y                 ; 0x2014 <malloc+0x9e>
     4c7: aa           	tax
     4c8: 69 00        	adc	#$0
     4ca: a4 16        	ldy	$16                     ; 0x2016 <malloc+0xa0>
     4cc: 84 14        	sty	$14                     ; 0x2014 <malloc+0x9e>
     4ce: 85 15        	sta	$15                     ; 0x2015 <malloc+0x9f>
     4d0: a4 1c        	ldy	$1c                     ; 0x201c <malloc+0xa6>
     4d2: 84 16        	sty	$16                     ; 0x2016 <malloc+0xa0>
     4d4: 86 17        	stx	$17                     ; 0x2017 <malloc+0xa1>
     4d6: a0 02        	ldy	#$2
     4d8: a5 18        	lda	$18                     ; 0x2018 <malloc+0xa2>
     4da: 91 16        	sta	($16),y                 ; 0x2016 <malloc+0xa0>
     4dc: a5 19        	lda	$19                     ; 0x2019 <malloc+0xa3>
     4de: 88           	dey
     4df: 91 14        	sta	($14),y                 ; 0x2014 <malloc+0x9e>
     4e1: 18           	clc
     4e2: a5 1b        	lda	$1b                     ; 0x201b <malloc+0xa5>
     4e4: 69 02        	adc	#$2
     4e6: 85 14        	sta	$14                     ; 0x2014 <malloc+0x9e>
     4e8: a5 13        	lda	$13                     ; 0x2013 <malloc+0x9d>
     4ea: 69 00        	adc	#$0
     4ec: 85 15        	sta	$15                     ; 0x2015 <malloc+0x9f>
     4ee: c8           	iny
     4ef: b1 12        	lda	($12),y                 ; 0x2012 <malloc+0x9c>
     4f1: 85 16        	sta	$16                     ; 0x2016 <malloc+0xa0>
     4f3: 88           	dey
     4f4: b1 14        	lda	($14),y                 ; 0x2014 <malloc+0x9e>
     4f6: a4 16        	ldy	$16                     ; 0x2016 <malloc+0xa0>
     4f8: 84 14        	sty	$14                     ; 0x2014 <malloc+0x9e>
     4fa: 85 15        	sta	$15                     ; 0x2015 <malloc+0x9f>
     4fc: 85 17        	sta	$17                     ; 0x2017 <malloc+0xa1>
     4fe: a0 04        	ldy	#$4
     500: a5 1c        	lda	$1c                     ; 0x201c <malloc+0xa6>
     502: 91 14        	sta	($14),y                 ; 0x2014 <malloc+0x9e>
     504: 18           	clc
     505: a5 16        	lda	$16                     ; 0x2016 <malloc+0xa0>
     507: 69 04        	adc	#$4
     509: 85 16        	sta	$16                     ; 0x2016 <malloc+0xa0>
     50b: a5 17        	lda	$17                     ; 0x2017 <malloc+0xa1>
     50d: 69 00        	adc	#$0
     50f: 85 17        	sta	$17                     ; 0x2017 <malloc+0xa1>
     511: 8a           	txa
     512: a0 01        	ldy	#$1
     514: 91 16        	sta	($16),y                 ; 0x2016 <malloc+0xa0>
     516: ae 10 26     	ldx	$2610                   ; 0x2610 <_ZN12_GLOBAL__N_19free_listE+0x1>
     519: e4 13        	cpx	$13                     ; 0x2013 <malloc+0x9d>
     51b: d0 11        	bne	$52e <_ZN12_GLOBAL__N_19FreeChunk6removeEv+0xde>
     51d: ae 0f 26     	ldx	$260f                   ; 0x260f <_ZN12_GLOBAL__N_19free_listE>
     520: e4 12        	cpx	$12                     ; 0x2012 <malloc+0x9c>
     522: d0 0a        	bne	$52e <_ZN12_GLOBAL__N_19FreeChunk6removeEv+0xde>
     524: a6 14        	ldx	$14                     ; 0x2014 <malloc+0x9e>
     526: a4 15        	ldy	$15                     ; 0x2015 <malloc+0x9f>
     528: 8e 0f 26     	stx	$260f                   ; 0x260f <_ZN12_GLOBAL__N_19free_listE>
     52b: 8c 10 26     	sty	$2610                   ; 0x2610 <_ZN12_GLOBAL__N_19free_listE+0x1>
     52e: 60           	rts

0000052f <__zero_bss>:
     52f: a2 0a        	ldx	#$a
     531: a0 00        	ldy	#$0
     533: a9 07        	lda	#$7
     535: 85 12        	sta	$12                     ; 0x2012 <malloc+0x9c>
     537: a9 26        	lda	#$26
     539: 85 13        	sta	$13                     ; 0x2013 <malloc+0x9d>
     53b: a9 00        	lda	#$0
     53d: 84 14        	sty	$14                     ; 0x2014 <malloc+0x9e>
     53f: 4c 0a 23     	jmp	$230a <__memset>

00000542 <__zero_zp_bss>:
     542: a2 0f        	ldx	#$f
     544: a0 00        	ldy	#$0
     546: a9 30        	lda	#$30
     548: 85 12        	sta	$12                     ; 0x2012 <malloc+0x9c>
     54a: a9 00        	lda	#$0
     54c: 85 13        	sta	$13                     ; 0x2013 <malloc+0x9d>
     54e: a9 00        	lda	#$0
     550: 84 14        	sty	$14                     ; 0x2014 <malloc+0x9e>
     552: 4c 0a 23     	jmp	$230a <__memset>

00000555 <main>:
     555: 18           	clc
     556: a5 10        	lda	$10                     ; 0x2010 <malloc+0x9a>
     558: 69 f5        	adc	#$f5
     55a: 85 10        	sta	$10                     ; 0x2010 <malloc+0x9a>
     55c: a5 11        	lda	$11                     ; 0x2011 <malloc+0x9b>
     55e: 69 df        	adc	#$df
     560: 85 11        	sta	$11                     ; 0x2011 <malloc+0x9b>
     562: a6 24        	ldx	$24                     ; 0x2024 <malloc+0xae>
     564: da           	phx
     565: a6 25        	ldx	$25                     ; 0x2025 <malloc+0xaf>
     567: da           	phx
     568: a6 26        	ldx	$26                     ; 0x2026 <malloc+0xb0>
     56a: da           	phx
     56b: a6 27        	ldx	$27                     ; 0x2027 <malloc+0xb1>
     56d: da           	phx
     56e: a5 28        	lda	$28                     ; 0x2028 <malloc+0xb2>
     570: a0 08        	ldy	#$8
     572: 91 10        	sta	($10),y                 ; 0x2010 <malloc+0x9a>
     574: a5 29        	lda	$29                     ; 0x2029 <malloc+0xb3>
     576: 88           	dey
     577: 91 10        	sta	($10),y                 ; 0x2010 <malloc+0x9a>
     579: a5 2a        	lda	$2a                     ; 0x202a <malloc+0xb4>
     57b: 88           	dey
     57c: 91 10        	sta	($10),y                 ; 0x2010 <malloc+0x9a>
     57e: a5 2b        	lda	$2b                     ; 0x202b <malloc+0xb5>
     580: 88           	dey
     581: 91 10        	sta	($10),y                 ; 0x2010 <malloc+0x9a>
     583: a5 2c        	lda	$2c                     ; 0x202c <malloc+0xb6>
     585: 88           	dey
     586: 91 10        	sta	($10),y                 ; 0x2010 <malloc+0x9a>
     588: 64 14        	stz	$14                     ; 0x2014 <malloc+0x9e>
     58a: a2 00        	ldx	#$0
     58c: 86 12        	stx	$12                     ; 0x2012 <malloc+0x9c>
     58e: a2 c0        	ldx	#$c0
     590: 86 13        	stx	$13                     ; 0x2013 <malloc+0x9d>
     592: 64 01        	stz	$1                      ; 0x2001 <malloc+0x8b>
     594: a2 3f        	ldx	#$3f
     596: 8e 00 d0     	stx	$d000                   ; 0xd000 <__heap_start+0xa9ee>
     599: a2 b3        	ldx	#$b3
     59b: 86 00        	stx	$0                      ; 0x2000 <malloc+0x8a>
     59d: 64 08        	stz	$8                      ; 0x2008 <malloc+0x92>
     59f: a2 01        	ldx	#$1
     5a1: 86 09        	stx	$9                      ; 0x2009 <malloc+0x93>
     5a3: e8           	inx
     5a4: 86 0a        	stx	$a                      ; 0x200a <malloc+0x94>
     5a6: e8           	inx
     5a7: 86 0b        	stx	$b                      ; 0x200b <malloc+0x95>
     5a9: e8           	inx
     5aa: 86 0c        	stx	$c                      ; 0x200c <malloc+0x96>
     5ac: e8           	inx
     5ad: 86 0d        	stx	$d                      ; 0x200d <malloc+0x97>
     5af: a2 38        	ldx	#$38
     5b1: a0 00        	ldy	#$0
     5b3: 86 f0        	stx	$f0                     ; 0x20f0 <malloc+0x17a>
     5b5: 84 f1        	sty	$f1                     ; 0x20f1 <malloc+0x17b>
     5b7: a2 00        	ldx	#$0
     5b9: 86 18        	stx	$18                     ; 0x2018 <malloc+0xa2>
     5bb: ca           	dex
     5bc: 86 19        	stx	$19                     ; 0x2019 <malloc+0xa3>
     5be: 8a           	txa
     5bf: 0a           	asl
     5c0: 0a           	asl
     5c1: 18           	clc
     5c2: 69 d4        	adc	#$d4
     5c4: 85 1a        	sta	$1a                     ; 0x201a <malloc+0xa4>
     5c6: a0 00        	ldy	#$0
     5c8: 64 17        	stz	$17                     ; 0x2017 <malloc+0xa1>
     5ca: 64 16        	stz	$16                     ; 0x2016 <malloc+0xa0>
     5cc: a6 19        	ldx	$19                     ; 0x2019 <malloc+0xa3>
     5ce: e0 03        	cpx	#$3
     5d0: a6 01        	ldx	$1                      ; 0x2001 <malloc+0x8b>
     5d2: 86 1c        	stx	$1c                     ; 0x201c <malloc+0xa6>
     5d4: a2 d0        	ldx	#$d0
     5d6: 84 1b        	sty	$1b                     ; 0x201b <malloc+0xa5>
     5d8: b0 02        	bcs	$5dc <main+0x87>
     5da: a6 1a        	ldx	$1a                     ; 0x201a <malloc+0xa4>
     5dc: 86 15        	stx	$15                     ; 0x2015 <malloc+0x9f>
     5de: a5 17        	lda	$17                     ; 0x2017 <malloc+0xa1>
     5e0: 18           	clc
     5e1: 65 14        	adc	$14                     ; 0x2014 <malloc+0x9e>
     5e3: a8           	tay
     5e4: a6 17        	ldx	$17                     ; 0x2017 <malloc+0xa1>
     5e6: a5 16        	lda	$16                     ; 0x2016 <malloc+0xa0>
     5e8: 85 1d        	sta	$1d                     ; 0x201d <malloc+0xa7>
     5ea: a5 16        	lda	$16                     ; 0x2016 <malloc+0xa0>
     5ec: 65 15        	adc	$15                     ; 0x2015 <malloc+0x9f>
     5ee: 84 16        	sty	$16                     ; 0x2016 <malloc+0xa0>
     5f0: a0 01        	ldy	#$1
     5f2: 84 01        	sty	$1                      ; 0x2001 <malloc+0x8b>
     5f4: 85 17        	sta	$17                     ; 0x2017 <malloc+0xa1>
     5f6: a5 1b        	lda	$1b                     ; 0x201b <malloc+0xa5>
     5f8: 92 16        	sta	($16)                   ; 0x2016 <malloc+0xa0>
     5fa: 91 16        	sta	($16),y                 ; 0x2016 <malloc+0xa0>
     5fc: c8           	iny
     5fd: 91 16        	sta	($16),y                 ; 0x2016 <malloc+0xa0>
     5ff: 85 15        	sta	$15                     ; 0x2015 <malloc+0x9f>
     601: c8           	iny
     602: a9 ff        	lda	#$ff
     604: 91 16        	sta	($16),y                 ; 0x2016 <malloc+0xa0>
     606: 8a           	txa
     607: a6 1c        	ldx	$1c                     ; 0x201c <malloc+0xa6>
     609: 86 01        	stx	$1                      ; 0x2001 <malloc+0x8b>
     60b: 18           	clc
     60c: 69 04        	adc	#$4
     60e: 85 17        	sta	$17                     ; 0x2017 <malloc+0xa1>
     610: a5 1d        	lda	$1d                     ; 0x201d <malloc+0xa7>
     612: 69 00        	adc	#$0
     614: e6 15        	inc	$15                     ; 0x2015 <malloc+0x9f>
     616: a4 15        	ldy	$15                     ; 0x2015 <malloc+0x9f>
     618: 85 16        	sta	$16                     ; 0x2016 <malloc+0xa0>
     61a: c9 04        	cmp	#$4
     61c: f0 03        	beq	$621 <main+0xcc>
     61e: 4c cc 05     	jmp	$5cc <main+0x77>
     621: a5 17        	lda	$17                     ; 0x2017 <malloc+0xa1>
     623: f0 03        	beq	$628 <main+0xd3>
     625: 4c cc 05     	jmp	$5cc <main+0x77>
     628: a6 18        	ldx	$18                     ; 0x2018 <malloc+0xa2>
     62a: e8           	inx
     62b: e0 04        	cpx	#$4
     62d: f0 03        	beq	$632 <main+0xdd>
     62f: 4c b9 05     	jmp	$5b9 <main+0x64>
     632: ad 02 d0     	lda	$d002                   ; 0xd002 <__heap_start+0xa9f0>
     635: 29 f0        	and	#$f0
     637: 8d 02 d0     	sta	$d002                   ; 0xd002 <__heap_start+0xa9f0>
     63a: ad 02 d0     	lda	$d002                   ; 0xd002 <__heap_start+0xa9f0>
     63d: 29 0f        	and	#$f
     63f: 09 10        	ora	#$10
     641: 8d 02 d0     	sta	$d002                   ; 0xd002 <__heap_start+0xa9f0>
     644: a2 02        	ldx	#$2
     646: 8e 03 d0     	stx	$d003                   ; 0xd003 <__heap_start+0xa9f1>
     649: ad 01 d0     	lda	$d001                   ; 0xd001 <__heap_start+0xa9ef>
     64c: 29 f9        	and	#$f9
     64e: 09 04        	ora	#$4
     650: 8d 01 d0     	sta	$d001                   ; 0xd001 <__heap_start+0xa9ef>
     653: 64 14        	stz	$14                     ; 0x2014 <malloc+0x9e>
     655: 9c 10 d0     	stz	$d010                   ; 0xd010 <__heap_start+0xa9fe>
     658: a2 00        	ldx	#$0
     65a: 64 15        	stz	$15                     ; 0x2015 <malloc+0x9f>
     65c: 86 18        	stx	$18                     ; 0x2018 <malloc+0xa2>
     65e: a4 18        	ldy	$18                     ; 0x2018 <malloc+0xa2>
     660: be b1 24     	ldx	$24b1,y                 ; 0x24b1 <textColors>
     663: 86 19        	stx	$19                     ; 0x2019 <malloc+0xa3>
     665: be b2 24     	ldx	$24b2,y                 ; 0x24b2 <textColors+0x1>
     668: 86 1a        	stx	$1a                     ; 0x201a <malloc+0xa4>
     66a: be b3 24     	ldx	$24b3,y                 ; 0x24b3 <textColors+0x2>
     66d: 86 1b        	stx	$1b                     ; 0x201b <malloc+0xa5>
     66f: a6 15        	ldx	$15                     ; 0x2015 <malloc+0x9f>
     671: 8e 00 de     	stx	$de00                   ; 0xde00 <__heap_start+0xb7ee>
     674: 86 17        	stx	$17                     ; 0x2017 <malloc+0xa1>
     676: 9c 01 de     	stz	$de01                   ; 0xde01 <__heap_start+0xb7ef>
     679: a2 04        	ldx	#$4
     67b: 8e 02 de     	stx	$de02                   ; 0xde02 <__heap_start+0xb7f0>
     67e: 9c 03 de     	stz	$de03                   ; 0xde03 <__heap_start+0xb7f1>
     681: ad 10 de     	lda	$de10                   ; 0xde10 <__heap_start+0xb7fe>
     684: ac 11 de     	ldy	$de11                   ; 0xde11 <__heap_start+0xb7ff>
     687: 84 15        	sty	$15                     ; 0x2015 <malloc+0x9f>
     689: ac 12 de     	ldy	$de12                   ; 0xde12 <__heap_start+0xb800>
     68c: ac 13 de     	ldy	$de13                   ; 0xde13 <__heap_start+0xb801>
     68f: 18           	clc
     690: 65 14        	adc	$14                     ; 0x2014 <malloc+0x9e>
     692: 85 16        	sta	$16                     ; 0x2016 <malloc+0xa0>
     694: a6 17        	ldx	$17                     ; 0x2017 <malloc+0xa1>
     696: a9 d8        	lda	#$d8
     698: 65 15        	adc	$15                     ; 0x2015 <malloc+0x9f>
     69a: 85 17        	sta	$17                     ; 0x2017 <malloc+0xa1>
     69c: a5 1b        	lda	$1b                     ; 0x201b <malloc+0xa5>
     69e: 92 16        	sta	($16)                   ; 0x2016 <malloc+0xa0>
     6a0: a0 01        	ldy	#$1
     6a2: a5 1a        	lda	$1a                     ; 0x201a <malloc+0xa4>
     6a4: 91 16        	sta	($16),y                 ; 0x2016 <malloc+0xa0>
     6a6: c8           	iny
     6a7: a5 19        	lda	$19                     ; 0x2019 <malloc+0xa3>
     6a9: 91 16        	sta	($16),y                 ; 0x2016 <malloc+0xa0>
     6ab: c8           	iny
     6ac: a9 ff        	lda	#$ff
     6ae: 91 16        	sta	($16),y                 ; 0x2016 <malloc+0xa0>
     6b0: 8e 00 de     	stx	$de00                   ; 0xde00 <__heap_start+0xb7ee>
     6b3: 9c 01 de     	stz	$de01                   ; 0xde01 <__heap_start+0xb7ef>
     6b6: c8           	iny
     6b7: 8c 02 de     	sty	$de02                   ; 0xde02 <__heap_start+0xb7f0>
     6ba: 9c 03 de     	stz	$de03                   ; 0xde03 <__heap_start+0xb7f1>
     6bd: ad 10 de     	lda	$de10                   ; 0xde10 <__heap_start+0xb7fe>
     6c0: 85 15        	sta	$15                     ; 0x2015 <malloc+0x9f>
     6c2: ad 11 de     	lda	$de11                   ; 0xde11 <__heap_start+0xb7ff>
     6c5: 85 16        	sta	$16                     ; 0x2016 <malloc+0xa0>
     6c7: a9 40        	lda	#$40
     6c9: 18           	clc
     6ca: 65 15        	adc	$15                     ; 0x2015 <malloc+0x9f>
     6cc: a8           	tay
     6cd: a9 d8        	lda	#$d8
     6cf: 65 16        	adc	$16                     ; 0x2016 <malloc+0xa0>
     6d1: 85 17        	sta	$17                     ; 0x2017 <malloc+0xa1>
     6d3: 84 16        	sty	$16                     ; 0x2016 <malloc+0xa0>
     6d5: ad 12 de     	lda	$de12                   ; 0xde12 <__heap_start+0xb800>
     6d8: ad 13 de     	lda	$de13                   ; 0xde13 <__heap_start+0xb801>
     6db: a5 1b        	lda	$1b                     ; 0x201b <malloc+0xa5>
     6dd: 92 16        	sta	($16)                   ; 0x2016 <malloc+0xa0>
     6df: a5 1a        	lda	$1a                     ; 0x201a <malloc+0xa4>
     6e1: a0 01        	ldy	#$1
     6e3: 91 16        	sta	($16),y                 ; 0x2016 <malloc+0xa0>
     6e5: a5 19        	lda	$19                     ; 0x2019 <malloc+0xa3>
     6e7: c8           	iny
     6e8: 91 16        	sta	($16),y                 ; 0x2016 <malloc+0xa0>
     6ea: c8           	iny
     6eb: a9 ff        	lda	#$ff
     6ed: 91 16        	sta	($16),y                 ; 0x2016 <malloc+0xa0>
     6ef: e8           	inx
     6f0: 86 15        	stx	$15                     ; 0x2015 <malloc+0x9f>
     6f2: 18           	clc
     6f3: a5 18        	lda	$18                     ; 0x2018 <malloc+0xa2>
     6f5: 69 03        	adc	#$3
     6f7: aa           	tax
     6f8: c9 30        	cmp	#$30
     6fa: f0 03        	beq	$6ff <main+0x1aa>
     6fc: 4c 5c 06     	jmp	$65c <main+0x107>
     6ff: a6 01        	ldx	$1                      ; 0x2001 <malloc+0x8b>
     701: 86 18        	stx	$18                     ; 0x2018 <malloc+0xa2>
     703: a2 50        	ldx	#$50
     705: 8e 00 de     	stx	$de00                   ; 0xde00 <__heap_start+0xb7ee>
     708: 9c 01 de     	stz	$de01                   ; 0xde01 <__heap_start+0xb7ef>
     70b: a2 1e        	ldx	#$1e
     70d: 8e 02 de     	stx	$de02                   ; 0xde02 <__heap_start+0xb7f0>
     710: 9c 03 de     	stz	$de03                   ; 0xde03 <__heap_start+0xb7f1>
     713: ae 10 de     	ldx	$de10                   ; 0xde10 <__heap_start+0xb7fe>
     716: ac 11 de     	ldy	$de11                   ; 0xde11 <__heap_start+0xb7ff>
     719: ad 12 de     	lda	$de12                   ; 0xde12 <__heap_start+0xb800>
     71c: ad 13 de     	lda	$de13                   ; 0xde13 <__heap_start+0xb801>
     71f: a9 02        	lda	#$2
     721: 85 01        	sta	$1                      ; 0x2001 <malloc+0x8b>
     723: e0 01        	cpx	#$1
     725: 98           	tya
     726: e9 00        	sbc	#$0
     728: 50 02        	bvc	$72c <main+0x1d7>
     72a: 49 80        	eor	#$80
     72c: c9 00        	cmp	#$0
     72e: 30 48        	bmi	$778 <main+0x223>
     730: a9 20        	lda	#$20
     732: 86 19        	stx	$19                     ; 0x2019 <malloc+0xa3>
     734: 86 14        	stx	$14                     ; 0x2014 <malloc+0x9e>
     736: 84 15        	sty	$15                     ; 0x2015 <malloc+0x9f>
     738: a2 00        	ldx	#$0
     73a: 86 16        	stx	$16                     ; 0x2016 <malloc+0xa0>
     73c: a2 c0        	ldx	#$c0
     73e: 86 17        	stx	$17                     ; 0x2017 <malloc+0xa1>
     740: 92 16        	sta	($16)                   ; 0x2016 <malloc+0xa0>
     742: e6 16        	inc	$16                     ; 0x2016 <malloc+0xa0>
     744: d0 02        	bne	$748 <main+0x1f3>
     746: e6 17        	inc	$17                     ; 0x2017 <malloc+0xa1>
     748: a2 ff        	ldx	#$ff
     74a: c6 14        	dec	$14                     ; 0x2014 <malloc+0x9e>
     74c: e4 14        	cpx	$14                     ; 0x2014 <malloc+0x9e>
     74e: d0 02        	bne	$752 <main+0x1fd>
     750: c6 15        	dec	$15                     ; 0x2015 <malloc+0x9f>
     752: a6 15        	ldx	$15                     ; 0x2015 <malloc+0x9f>
     754: d0 ea        	bne	$740 <main+0x1eb>
     756: a6 14        	ldx	$14                     ; 0x2014 <malloc+0x9e>
     758: d0 e6        	bne	$740 <main+0x1eb>
     75a: a2 03        	ldx	#$3
     75c: 86 01        	stx	$1                      ; 0x2001 <malloc+0x8b>
     75e: a6 19        	ldx	$19                     ; 0x2019 <malloc+0xa3>
     760: a9 f0        	lda	#$f0
     762: 92 12        	sta	($12)                   ; 0x2012 <malloc+0x9c>
     764: e6 12        	inc	$12                     ; 0x2012 <malloc+0x9c>
     766: d0 02        	bne	$76a <main+0x215>
     768: e6 13        	inc	$13                     ; 0x2013 <malloc+0x9d>
     76a: ca           	dex
     76b: e0 ff        	cpx	#$ff
     76d: d0 01        	bne	$770 <main+0x21b>
     76f: 88           	dey
     770: 98           	tya
     771: d0 ed        	bne	$760 <main+0x20b>
     773: 8a           	txa
     774: d0 ea        	bne	$760 <main+0x20b>
     776: 80 04        	bra	$77c <main+0x227>
     778: a2 03        	ldx	#$3
     77a: 86 01        	stx	$1                      ; 0x2001 <malloc+0x8b>
     77c: a6 18        	ldx	$18                     ; 0x2018 <malloc+0xa2>
     77e: 86 01        	stx	$1                      ; 0x2001 <malloc+0x8b>
     780: 64 30        	stz	$30                     ; 0x2030 <malloc+0xba>
     782: 9c 14 d0     	stz	$d014                   ; 0xd014 <__heap_start+0xaa02>
     785: 9c 15 d0     	stz	$d015                   ; 0xd015 <__heap_start+0xaa03>
     788: 64 31        	stz	$31                     ; 0x2031 <malloc+0xbb>
     78a: 9c 16 d0     	stz	$d016                   ; 0xd016 <__heap_start+0xaa04>
     78d: 9c 17 d0     	stz	$d017                   ; 0xd017 <__heap_start+0xaa05>
     790: a2 40        	ldx	#$40
     792: 8e 00 de     	stx	$de00                   ; 0xde00 <__heap_start+0xb7ee>
     795: a2 01        	ldx	#$1
     797: 8e 01 de     	stx	$de01                   ; 0xde01 <__heap_start+0xb7ef>
     79a: a2 f0        	ldx	#$f0
     79c: 8e 02 de     	stx	$de02                   ; 0xde02 <__heap_start+0xb7f0>
     79f: 9c 03 de     	stz	$de03                   ; 0xde03 <__heap_start+0xb7f1>
     7a2: ae 10 de     	ldx	$de10                   ; 0xde10 <__heap_start+0xb7fe>
     7a5: 86 17        	stx	$17                     ; 0x2017 <malloc+0xa1>
     7a7: ae 11 de     	ldx	$de11                   ; 0xde11 <__heap_start+0xb7ff>
     7aa: 86 12        	stx	$12                     ; 0x2012 <malloc+0x9c>
     7ac: ae 12 de     	ldx	$de12                   ; 0xde12 <__heap_start+0xb800>
     7af: 86 13        	stx	$13                     ; 0x2013 <malloc+0x9d>
     7b1: ae 13 de     	ldx	$de13                   ; 0xde13 <__heap_start+0xb801>
     7b4: 86 14        	stx	$14                     ; 0x2014 <malloc+0x9e>
     7b6: a4 12        	ldy	$12                     ; 0x2012 <malloc+0x9c>
     7b8: 84 15        	sty	$15                     ; 0x2015 <malloc+0x9f>
     7ba: 06 15        	asl	$15                     ; 0x2015 <malloc+0x9f>
     7bc: a5 13        	lda	$13                     ; 0x2013 <malloc+0x9d>
     7be: 2a           	rol
     7bf: 86 16        	stx	$16                     ; 0x2016 <malloc+0xa0>
     7c1: 26 16        	rol	$16                     ; 0x2016 <malloc+0xa0>
     7c3: 06 15        	asl	$15                     ; 0x2015 <malloc+0x9f>
     7c5: 2a           	rol
     7c6: 26 16        	rol	$16                     ; 0x2016 <malloc+0xa0>
     7c8: 06 15        	asl	$15                     ; 0x2015 <malloc+0x9f>
     7ca: 2a           	rol
     7cb: 26 16        	rol	$16                     ; 0x2016 <malloc+0xa0>
     7cd: 85 15        	sta	$15                     ; 0x2015 <malloc+0x9f>
     7cf: 8d 00 de     	sta	$de00                   ; 0xde00 <__heap_start+0xb7ee>
     7d2: a5 16        	lda	$16                     ; 0x2016 <malloc+0xa0>
     7d4: 8d 01 de     	sta	$de01                   ; 0xde01 <__heap_start+0xb7ef>
     7d7: 9c 02 de     	stz	$de02                   ; 0xde02 <__heap_start+0xb7f0>
     7da: a2 20        	ldx	#$20
     7dc: 8e 03 de     	stx	$de03                   ; 0xde03 <__heap_start+0xb7f1>
     7df: ae 10 de     	ldx	$de10                   ; 0xde10 <__heap_start+0xb7fe>
     7e2: 86 16        	stx	$16                     ; 0x2016 <malloc+0xa0>
     7e4: ae 11 de     	ldx	$de11                   ; 0xde11 <__heap_start+0xb7ff>
     7e7: 86 18        	stx	$18                     ; 0x2018 <malloc+0xa2>
     7e9: ac 12 de     	ldy	$de12                   ; 0xde12 <__heap_start+0xb800>
     7ec: ae 13 de     	ldx	$de13                   ; 0xde13 <__heap_start+0xb801>
     7ef: e4 14        	cpx	$14                     ; 0x2014 <malloc+0x9e>
     7f1: d0 14        	bne	$807 <main+0x2b2>
     7f3: c4 13        	cpy	$13                     ; 0x2013 <malloc+0x9d>
     7f5: d0 10        	bne	$807 <main+0x2b2>
     7f7: a6 18        	ldx	$18                     ; 0x2018 <malloc+0xa2>
     7f9: e4 12        	cpx	$12                     ; 0x2012 <malloc+0x9c>
     7fb: d0 0a        	bne	$807 <main+0x2b2>
     7fd: a6 16        	ldx	$16                     ; 0x2016 <malloc+0xa0>
     7ff: e4 17        	cpx	$17                     ; 0x2017 <malloc+0xa1>
     801: d0 04        	bne	$807 <main+0x2b2>
     803: a6 15        	ldx	$15                     ; 0x2015 <malloc+0x9f>
     805: 80 06        	bra	$80d <main+0x2b8>
     807: a6 15        	ldx	$15                     ; 0x2015 <malloc+0x9f>
     809: e8           	inx
     80a: d0 01        	bne	$80d <main+0x2b8>
     80c: 1a           	inc
     80d: 8e 00 de     	stx	$de00                   ; 0xde00 <__heap_start+0xb7ee>
     810: 8d 01 de     	sta	$de01                   ; 0xde01 <__heap_start+0xb7ef>
     813: 9c 02 de     	stz	$de02                   ; 0xde02 <__heap_start+0xb7f0>
     816: a2 20        	ldx	#$20
     818: 8e 03 de     	stx	$de03                   ; 0xde03 <__heap_start+0xb7f1>
     81b: ae 10 de     	ldx	$de10                   ; 0xde10 <__heap_start+0xb7fe>
     81e: 86 12        	stx	$12                     ; 0x2012 <malloc+0x9c>
     820: ae 11 de     	ldx	$de11                   ; 0xde11 <__heap_start+0xb7ff>
     823: 86 13        	stx	$13                     ; 0x2013 <malloc+0x9d>
     825: ae 12 de     	ldx	$de12                   ; 0xde12 <__heap_start+0xb800>
     828: 86 14        	stx	$14                     ; 0x2014 <malloc+0x9e>
     82a: ae 13 de     	ldx	$de13                   ; 0xde13 <__heap_start+0xb801>
     82d: 86 15        	stx	$15                     ; 0x2015 <malloc+0x9f>
     82f: 38           	sec
     830: a9 00        	lda	#$0
     832: e5 12        	sbc	$12                     ; 0x2012 <malloc+0x9c>
     834: 85 16        	sta	$16                     ; 0x2016 <malloc+0xa0>
     836: a9 00        	lda	#$0
     838: e5 13        	sbc	$13                     ; 0x2013 <malloc+0x9d>
     83a: 85 17        	sta	$17                     ; 0x2017 <malloc+0xa1>
     83c: a9 08        	lda	#$8
     83e: e5 14        	sbc	$14                     ; 0x2014 <malloc+0x9e>
     840: aa           	tax
     841: a9 00        	lda	#$0
     843: e5 15        	sbc	$15                     ; 0x2015 <malloc+0x9f>
     845: a8           	tay
     846: a5 17        	lda	$17                     ; 0x2017 <malloc+0xa1>
     848: 8d 08 26     	sta	$2608                   ; 0x2608 <__bss_start+0x1>
     84b: 8e 09 26     	stx	$2609                   ; 0x2609 <__bss_start+0x2>
     84e: 8c 0a 26     	sty	$260a                   ; 0x260a <__bss_start+0x3>
     851: a5 16        	lda	$16                     ; 0x2016 <malloc+0xa0>
     853: 38           	sec
     854: e5 12        	sbc	$12                     ; 0x2012 <malloc+0x9c>
     856: a8           	tay
     857: a5 17        	lda	$17                     ; 0x2017 <malloc+0xa1>
     859: e5 13        	sbc	$13                     ; 0x2013 <malloc+0x9d>
     85b: 85 15        	sta	$15                     ; 0x2015 <malloc+0x9f>
     85d: 8a           	txa
     85e: e5 14        	sbc	$14                     ; 0x2014 <malloc+0x9e>
     860: aa           	tax
     861: 98           	tya
     862: 38           	sec
     863: e5 12        	sbc	$12                     ; 0x2012 <malloc+0x9c>
     865: 85 12        	sta	$12                     ; 0x2012 <malloc+0x9c>
     867: a5 15        	lda	$15                     ; 0x2015 <malloc+0x9f>
     869: e5 13        	sbc	$13                     ; 0x2013 <malloc+0x9d>
     86b: 85 13        	sta	$13                     ; 0x2013 <malloc+0x9d>
     86d: 8a           	txa
     86e: 86 17        	stx	$17                     ; 0x2017 <malloc+0xa1>
     870: e5 14        	sbc	$14                     ; 0x2014 <malloc+0x9e>
     872: a6 16        	ldx	$16                     ; 0x2016 <malloc+0xa0>
     874: 8e 07 26     	stx	$2607                   ; 0x2607 <__bss_start>
     877: 8e 01 d1     	stx	$d101                   ; 0xd101 <__heap_start+0xaaef>
     87a: ae 08 26     	ldx	$2608                   ; 0x2608 <__bss_start+0x1>
     87d: 8e 02 d1     	stx	$d102                   ; 0xd102 <__heap_start+0xaaf0>
     880: ae 09 26     	ldx	$2609                   ; 0x2609 <__bss_start+0x2>
     883: 8e 03 d1     	stx	$d103                   ; 0xd103 <__heap_start+0xaaf1>
     886: 8c 09 d1     	sty	$d109                   ; 0xd109 <__heap_start+0xaaf7>
     889: a6 15        	ldx	$15                     ; 0x2015 <malloc+0x9f>
     88b: 8e 0a d1     	stx	$d10a                   ; 0xd10a <__heap_start+0xaaf8>
     88e: a6 17        	ldx	$17                     ; 0x2017 <malloc+0xa1>
     890: 8e 0b d1     	stx	$d10b                   ; 0xd10b <__heap_start+0xaaf9>
     893: a6 12        	ldx	$12                     ; 0x2012 <malloc+0x9c>
     895: 8e 11 d1     	stx	$d111                   ; 0xd111 <__heap_start+0xaaff>
     898: a6 13        	ldx	$13                     ; 0x2013 <malloc+0x9d>
     89a: 8e 12 d1     	stx	$d112                   ; 0xd112 <__heap_start+0xab00>
     89d: 8d 13 d1     	sta	$d113                   ; 0xd113 <__heap_start+0xab01>
     8a0: 9c 00 d1     	stz	$d100                   ; 0xd100 <__heap_start+0xaaee>
     8a3: 9c 08 d1     	stz	$d108                   ; 0xd108 <__heap_start+0xaaf6>
     8a6: 9c 10 d1     	stz	$d110                   ; 0xd110 <__heap_start+0xaafe>
     8a9: a2 10        	ldx	#$10
     8ab: 8e 00 d2     	stx	$d200                   ; 0xd200 <__heap_start+0xabee>
     8ae: 8e 0c d2     	stx	$d20c                   ; 0xd20c <__heap_start+0xabfa>
     8b1: 8e 18 d2     	stx	$d218                   ; 0xd218 <__heap_start+0xac06>
     8b4: a0 d9        	ldy	#$d9
     8b6: a2 40        	ldx	#$40
     8b8: 64 12        	stz	$12                     ; 0x2012 <malloc+0x9c>
     8ba: 84 13        	sty	$13                     ; 0x2013 <malloc+0x9d>
     8bc: a9 00        	lda	#$0
     8be: 92 12        	sta	($12)                   ; 0x2012 <malloc+0x9c>
     8c0: ca           	dex
     8c1: 18           	clc
     8c2: a5 12        	lda	$12                     ; 0x2012 <malloc+0x9c>
     8c4: 69 08        	adc	#$8
     8c6: 85 12        	sta	$12                     ; 0x2012 <malloc+0x9c>
     8c8: 98           	tya
     8c9: 69 00        	adc	#$0
     8cb: a8           	tay
     8cc: 8a           	txa
     8cd: d0 eb        	bne	$8ba <main+0x365>
     8cf: 18           	clc
     8d0: a5 10        	lda	$10                     ; 0x2010 <malloc+0x9a>
     8d2: 69 0a        	adc	#$a
     8d4: 85 24        	sta	$24                     ; 0x2024 <malloc+0xae>
     8d6: a5 11        	lda	$11                     ; 0x2011 <malloc+0x9b>
     8d8: 69 00        	adc	#$0
     8da: 85 25        	sta	$25                     ; 0x2025 <malloc+0xaf>
     8dc: a6 24        	ldx	$24                     ; 0x2024 <malloc+0xae>
     8de: 86 fb        	stx	$fb                     ; 0x20fb <malloc+0x185>
     8e0: 85 fc        	sta	$fc                     ; 0x20fc <malloc+0x186>
     8e2: a2 08        	ldx	#$8
     8e4: 86 fd        	stx	$fd                     ; 0x20fd <malloc+0x187>
     8e6: 18           	clc
     8e7: a5 10        	lda	$10                     ; 0x2010 <malloc+0x9a>
     8e9: 69 0a        	adc	#$a
     8eb: 85 2a        	sta	$2a                     ; 0x202a <malloc+0xb4>
     8ed: a5 11        	lda	$11                     ; 0x2011 <malloc+0x9b>
     8ef: 69 20        	adc	#$20
     8f1: 85 2b        	sta	$2b                     ; 0x202b <malloc+0xb5>
     8f3: a2 37        	ldx	#$37
     8f5: 86 12        	stx	$12                     ; 0x2012 <malloc+0x9c>
     8f7: a2 00        	ldx	#$0
     8f9: 86 13        	stx	$13                     ; 0x2013 <malloc+0x9d>
     8fb: a0 06        	ldy	#$6
     8fd: 20 dc ff     	jsr	$ffdc <__heap_start+0xd9ca>
     900: 92 2a        	sta	($2a)                   ; 0x202a <malloc+0xb4>
     902: a9 00        	lda	#$0
     904: 6a           	ror
     905: 85 12        	sta	$12                     ; 0x2012 <malloc+0x9c>
     907: b1 24        	lda	($24),y                 ; 0x2024 <malloc+0xae>
     909: 85 12        	sta	$12                     ; 0x2012 <malloc+0x9c>
     90b: c8           	iny
     90c: b1 24        	lda	($24),y                 ; 0x2024 <malloc+0xae>
     90e: a6 12        	ldx	$12                     ; 0x2012 <malloc+0x9c>
     910: 8e 00 de     	stx	$de00                   ; 0xde00 <__heap_start+0xb7ee>
     913: 9c 01 de     	stz	$de01                   ; 0xde01 <__heap_start+0xb7ef>
     916: 8d 02 de     	sta	$de02                   ; 0xde02 <__heap_start+0xb7f0>
     919: 9c 03 de     	stz	$de03                   ; 0xde03 <__heap_start+0xb7f1>
     91c: ae 10 de     	ldx	$de10                   ; 0xde10 <__heap_start+0xb7fe>
     91f: ac 11 de     	ldy	$de11                   ; 0xde11 <__heap_start+0xb7ff>
     922: ad 12 de     	lda	$de12                   ; 0xde12 <__heap_start+0xb800>
     925: ad 13 de     	lda	$de13                   ; 0xde13 <__heap_start+0xb801>
     928: 8e a4 d6     	stx	$d6a4                   ; 0xd6a4 <__heap_start+0xb092>
     92b: 8c a5 d6     	sty	$d6a5                   ; 0xd6a5 <__heap_start+0xb093>
     92e: a2 03        	ldx	#$3
     930: 8e a6 d6     	stx	$d6a6                   ; 0xd6a6 <__heap_start+0xb094>
     933: a2 1f        	ldx	#$1f
     935: 8e 20 d6     	stx	$d620                   ; 0xd620 <__heap_start+0xb00e>
     938: a2 2a        	ldx	#$2a
     93a: 8e 21 d6     	stx	$d621                   ; 0xd621 <__heap_start+0xb00f>
     93d: a2 01        	ldx	#$1
     93f: 8e 22 d6     	stx	$d622                   ; 0xd622 <__heap_start+0xb010>
     942: ad 22 d6     	lda	$d622                   ; 0xd622 <__heap_start+0xb010>
     945: 29 01        	and	#$1
     947: 29 01        	and	#$1
     949: d0 f7        	bne	$942 <main+0x3ed>
     94b: a2 03        	ldx	#$3
     94d: 8e 01 d7     	stx	$d701                   ; 0xd701 <__heap_start+0xb0ef>
     950: 9c 02 d7     	stz	$d702                   ; 0xd702 <__heap_start+0xb0f0>
     953: a2 c0        	ldx	#$c0
     955: 8e 03 d7     	stx	$d703                   ; 0xd703 <__heap_start+0xb0f1>
     958: a2 01        	ldx	#$1
     95a: 8e 00 d7     	stx	$d700                   ; 0xd700 <__heap_start+0xb0ee>
     95d: 9c 00 d7     	stz	$d700                   ; 0xd700 <__heap_start+0xb0ee>
     960: ae 00 d7     	ldx	$d700                   ; 0xd700 <__heap_start+0xb0ee>
     963: 30 fb        	bmi	$960 <main+0x40b>
     965: a2 00        	ldx	#$0
     967: 64 01        	stz	$1                      ; 0x2001 <malloc+0x8b>
     969: a0 2f        	ldy	#$2f
     96b: 8c 00 d0     	sty	$d000                   ; 0xd000 <__heap_start+0xa9ee>
     96e: a0 04        	ldy	#$4
     970: 8c 01 d0     	sty	$d001                   ; 0xd001 <__heap_start+0xa9ef>
     973: a0 01        	ldy	#$1
     975: 8c 02 d0     	sty	$d002                   ; 0xd002 <__heap_start+0xa9f0>
     978: a9 02        	lda	#$2
     97a: 8d 03 d0     	sta	$d003                   ; 0xd003 <__heap_start+0xa9f1>
     97d: 9c 0d d0     	stz	$d00d                   ; 0xd00d <__heap_start+0xa9fb>
     980: 9c 0e d0     	stz	$d00e                   ; 0xd00e <__heap_start+0xa9fc>
     983: 9c 0f d0     	stz	$d00f                   ; 0xd00f <__heap_start+0xa9fd>
     986: 84 01        	sty	$1                      ; 0x2001 <malloc+0x8b>
     988: a0 d0        	ldy	#$d0
     98a: 8a           	txa
     98b: 18           	clc
     98c: 69 00        	adc	#$0
     98e: 85 14        	sta	$14                     ; 0x2014 <malloc+0x9e>
     990: 98           	tya
     991: 69 10        	adc	#$10
     993: 85 15        	sta	$15                     ; 0x2015 <malloc+0x9f>
     995: 86 12        	stx	$12                     ; 0x2012 <malloc+0x9c>
     997: 84 13        	sty	$13                     ; 0x2013 <malloc+0x9d>
     999: 86 16        	stx	$16                     ; 0x2016 <malloc+0xa0>
     99b: a6 0f        	ldx	$f                      ; 0x200f <malloc+0x99>
     99d: 78           	sei
     99e: a9 08        	lda	#$8
     9a0: 85 0f        	sta	$f                      ; 0x200f <malloc+0x99>
     9a2: b2 14        	lda	($14)                   ; 0x2014 <malloc+0x9e>
     9a4: 86 0f        	stx	$f                      ; 0x200f <malloc+0x99>
     9a6: a6 16        	ldx	$16                     ; 0x2016 <malloc+0xa0>
     9a8: 58           	cli
     9a9: 92 12        	sta	($12)                   ; 0x2012 <malloc+0x9c>
     9ab: e8           	inx
     9ac: d0 01        	bne	$9af <main+0x45a>
     9ae: c8           	iny
     9af: c0 d3        	cpy	#$d3
     9b1: d0 d7        	bne	$98a <main+0x435>
     9b3: e0 ff        	cpx	#$ff
     9b5: d0 d3        	bne	$98a <main+0x435>
     9b7: 64 01        	stz	$1                      ; 0x2001 <malloc+0x8b>
     9b9: 9c 07 26     	stz	$2607                   ; 0x2607 <__bss_start>
     9bc: a2 04        	ldx	#$4
     9be: 8e 08 26     	stx	$2608                   ; 0x2608 <__bss_start+0x1>
     9c1: a0 01        	ldy	#$1
     9c3: 8c 09 26     	sty	$2609                   ; 0x2609 <__bss_start+0x2>
     9c6: 9c 0a 26     	stz	$260a                   ; 0x260a <__bss_start+0x3>
     9c9: 9c 01 d1     	stz	$d101                   ; 0xd101 <__heap_start+0xaaef>
     9cc: 8e 02 d1     	stx	$d102                   ; 0xd102 <__heap_start+0xaaf0>
     9cf: 8c 03 d1     	sty	$d103                   ; 0xd103 <__heap_start+0xaaf1>
     9d2: ad 00 d1     	lda	$d100                   ; 0xd100 <__heap_start+0xaaee>
     9d5: 29 f9        	and	#$f9
     9d7: 8d 00 d1     	sta	$d100                   ; 0xd100 <__heap_start+0xaaee>
     9da: 8c 00 d1     	sty	$d100                   ; 0xd100 <__heap_start+0xaaee>
     9dd: 9c 08 d1     	stz	$d108                   ; 0xd108 <__heap_start+0xaaf6>
     9e0: 9c 10 d1     	stz	$d110                   ; 0xd110 <__heap_start+0xaafe>
     9e3: a9 e0        	lda	#$e0
     9e5: 92 10        	sta	($10)                   ; 0x2010 <malloc+0x9a>
     9e7: a9 25        	lda	#$25
     9e9: 91 10        	sta	($10),y                 ; 0x2010 <malloc+0x9a>
     9eb: a2 ce        	ldx	#$ce
     9ed: 86 12        	stx	$12                     ; 0x2012 <malloc+0x9c>
     9ef: a2 25        	ldx	#$25
     9f1: 86 13        	stx	$13                     ; 0x2013 <malloc+0x9d>
     9f3: 20 c6 13     	jsr	$13c6 <printf>
     9f6: 20 2a 23     	jsr	$232a <strlen>
     9f9: a8           	tay
     9fa: a2 96        	ldx	#$96
     9fc: 86 12        	stx	$12                     ; 0x2012 <malloc+0x9c>
     9fe: a2 25        	ldx	#$25
     a00: 86 13        	stx	$13                     ; 0x2013 <malloc+0x9d>
     a02: a2 00        	ldx	#$0
     a04: 80 08        	bra	$a0e <main+0x4b9>
     a06: a2 02        	ldx	#$2
     a08: e6 12        	inc	$12                     ; 0x2012 <malloc+0x9c>
     a0a: d0 02        	bne	$a0e <main+0x4b9>
     a0c: e6 13        	inc	$13                     ; 0x2013 <malloc+0x9d>
     a0e: b2 12        	lda	($12)                   ; 0x2012 <malloc+0x9c>
     a10: c9 61        	cmp	#$61
     a12: f0 f2        	beq	$a06 <main+0x4b1>
     a14: 86 14        	stx	$14                     ; 0x2014 <malloc+0x9e>
     a16: a2 01        	ldx	#$1
     a18: c9 77        	cmp	#$77
     a1a: f0 ec        	beq	$a08 <main+0x4b3>
     a1c: aa           	tax
     a1d: f0 04        	beq	$a23 <main+0x4ce>
     a1f: a6 14        	ldx	$14                     ; 0x2014 <malloc+0x9e>
     a21: 80 e5        	bra	$a08 <main+0x4b3>
     a23: a2 e0        	ldx	#$e0
     a25: a9 25        	lda	#$25
     a27: 86 fb        	stx	$fb                     ; 0x20fb <malloc+0x185>
     a29: 85 fc        	sta	$fc                     ; 0x20fc <malloc+0x186>
     a2b: 84 fd        	sty	$fd                     ; 0x20fd <malloc+0x187>
     a2d: 64 f3        	stz	$f3                     ; 0x20f3 <malloc+0x17d>
     a2f: a6 14        	ldx	$14                     ; 0x2014 <malloc+0x9e>
     a31: 86 f5        	stx	$f5                     ; 0x20f5 <malloc+0x17f>
     a33: a2 37        	ldx	#$37
     a35: 86 12        	stx	$12                     ; 0x2012 <malloc+0x9c>
     a37: a2 00        	ldx	#$0
     a39: 86 13        	stx	$13                     ; 0x2013 <malloc+0x9d>
     a3b: 20 5c ff     	jsr	$ff5c <__heap_start+0xd94a>
     a3e: 92 24        	sta	($24)                   ; 0x2024 <malloc+0xae>
     a40: a9 00        	lda	#$0
     a42: 6a           	ror
     a43: 85 12        	sta	$12                     ; 0x2012 <malloc+0x9c>
     a45: a6 37        	ldx	$37                     ; 0x2037 <malloc+0xc1>
     a47: d0 03        	bne	$a4c <main+0x4f7>
     a49: 4c 8e 0d     	jmp	$d8e <main+0x839>
     a4c: a2 00        	ldx	#$0
     a4e: 86 12        	stx	$12                     ; 0x2012 <malloc+0x9c>
     a50: a2 00        	ldx	#$0
     a52: 86 13        	stx	$13                     ; 0x2013 <malloc+0x9d>
     a54: a6 12        	ldx	$12                     ; 0x2012 <malloc+0x9c>
     a56: a4 13        	ldy	$13                     ; 0x2013 <malloc+0x9d>
     a58: 86 35        	stx	$35                     ; 0x2035 <malloc+0xbf>
     a5a: 84 36        	sty	$36                     ; 0x2036 <malloc+0xc0>
     a5c: a9 e0        	lda	#$e0
     a5e: 92 10        	sta	($10)                   ; 0x2010 <malloc+0x9a>
     a60: a0 01        	ldy	#$1
     a62: a9 25        	lda	#$25
     a64: 91 10        	sta	($10),y                 ; 0x2010 <malloc+0x9a>
     a66: a2 eb        	ldx	#$eb
     a68: 86 12        	stx	$12                     ; 0x2012 <malloc+0x9c>
     a6a: a2 25        	ldx	#$25
     a6c: 86 13        	stx	$13                     ; 0x2013 <malloc+0x9d>
     a6e: 20 c6 13     	jsr	$13c6 <printf>
     a71: a6 35        	ldx	$35                     ; 0x2035 <malloc+0xbf>
     a73: a4 36        	ldy	$36                     ; 0x2036 <malloc+0xc0>
     a75: 86 26        	stx	$26                     ; 0x2026 <malloc+0xb0>
     a77: 84 27        	sty	$27                     ; 0x2027 <malloc+0xb1>
     a79: a2 40        	ldx	#$40
     a7b: a4 24        	ldy	$24                     ; 0x2024 <malloc+0xae>
     a7d: 84 28        	sty	$28                     ; 0x2028 <malloc+0xb2>
     a7f: a4 25        	ldy	$25                     ; 0x2025 <malloc+0xaf>
     a81: 84 29        	sty	$29                     ; 0x2029 <malloc+0xb3>
     a83: a4 28        	ldy	$28                     ; 0x2028 <malloc+0xb2>
     a85: 84 12        	sty	$12                     ; 0x2012 <malloc+0x9c>
     a87: a4 29        	ldy	$29                     ; 0x2029 <malloc+0xb3>
     a89: 84 13        	sty	$13                     ; 0x2013 <malloc+0x9d>
     a8b: a4 26        	ldy	$26                     ; 0x2026 <malloc+0xb0>
     a8d: 84 14        	sty	$14                     ; 0x2014 <malloc+0x9e>
     a8f: a4 27        	ldy	$27                     ; 0x2027 <malloc+0xb1>
     a91: 84 15        	sty	$15                     ; 0x2015 <malloc+0x9f>
     a93: 86 2c        	stx	$2c                     ; 0x202c <malloc+0xb6>
     a95: a2 00        	ldx	#$0
     a97: a9 80        	lda	#$80
     a99: 20 18 0e     	jsr	$e18 <fileRead>
     a9c: a6 2c        	ldx	$2c                     ; 0x202c <malloc+0xb6>
     a9e: ca           	dex
     a9f: a5 28        	lda	$28                     ; 0x2028 <malloc+0xb2>
     aa1: 18           	clc
     aa2: 69 80        	adc	#$80
     aa4: 85 28        	sta	$28                     ; 0x2028 <malloc+0xb2>
     aa6: a5 29        	lda	$29                     ; 0x2029 <malloc+0xb3>
     aa8: 69 00        	adc	#$0
     aaa: 85 29        	sta	$29                     ; 0x2029 <malloc+0xb3>
     aac: 8a           	txa
     aad: d0 d4        	bne	$a83 <main+0x52e>
     aaf: a2 99        	ldx	#$99
     ab1: 86 12        	stx	$12                     ; 0x2012 <malloc+0x9c>
     ab3: a2 25        	ldx	#$25
     ab5: 86 13        	stx	$13                     ; 0x2013 <malloc+0x9d>
     ab7: 20 c6 13     	jsr	$13c6 <printf>
     aba: a2 37        	ldx	#$37
     abc: 86 12        	stx	$12                     ; 0x2012 <malloc+0x9c>
     abe: a2 00        	ldx	#$0
     ac0: 86 13        	stx	$13                     ; 0x2013 <malloc+0x9d>
     ac2: 64 38        	stz	$38                     ; 0x2038 <malloc+0xc2>
     ac4: 20 00 ff     	jsr	$ff00 <__heap_start+0xd8ee>
     ac7: 92 2a        	sta	($2a)                   ; 0x202a <malloc+0xb4>
     ac9: a9 00        	lda	#$0
     acb: 6a           	ror
     acc: 85 12        	sta	$12                     ; 0x2012 <malloc+0x9c>
     ace: a6 38        	ldx	$38                     ; 0x2038 <malloc+0xc2>
     ad0: e0 08        	cpx	#$8
     ad2: d0 ee        	bne	$ac2 <main+0x56d>
     ad4: a6 3c        	ldx	$3c                     ; 0x203c <malloc+0xc6>
     ad6: e0 20        	cpx	#$20
     ad8: f0 04        	beq	$ade <main+0x589>
     ada: e0 94        	cpx	#$94
     adc: d0 e4        	bne	$ac2 <main+0x56d>
     ade: a5 34        	lda	$34                     ; 0x2034 <malloc+0xbe>
     ae0: 4a           	lsr
     ae1: 64 12        	stz	$12                     ; 0x2012 <malloc+0x9c>
     ae3: 66 12        	ror	$12                     ; 0x2012 <malloc+0x9c>
     ae5: a2 01        	ldx	#$1
     ae7: a5 12        	lda	$12                     ; 0x2012 <malloc+0x9c>
     ae9: 30 02        	bmi	$aed <main+0x598>
     aeb: a2 00        	ldx	#$0
     aed: a0 ff        	ldy	#$ff
     aef: 98           	tya
     af0: e0 00        	cpx	#$0
     af2: d0 02        	bne	$af6 <main+0x5a1>
     af4: a9 00        	lda	#$0
     af6: aa           	tax
     af7: 30 02        	bmi	$afb <main+0x5a6>
     af9: a0 00        	ldy	#$0
     afb: 06 12        	asl	$12                     ; 0x2012 <malloc+0x9c>
     afd: 85 12        	sta	$12                     ; 0x2012 <malloc+0x9c>
     aff: 26 12        	rol	$12                     ; 0x2012 <malloc+0x9c>
     b01: 85 13        	sta	$13                     ; 0x2013 <malloc+0x9d>
     b03: 26 13        	rol	$13                     ; 0x2013 <malloc+0x9d>
     b05: 2a           	rol
     b06: 84 14        	sty	$14                     ; 0x2014 <malloc+0x9e>
     b08: 26 14        	rol	$14                     ; 0x2014 <malloc+0x9e>
     b0a: aa           	tax
     b0b: a5 12        	lda	$12                     ; 0x2012 <malloc+0x9c>
     b0d: 92 10        	sta	($10)                   ; 0x2010 <malloc+0x9a>
     b0f: a0 01        	ldy	#$1
     b11: a5 13        	lda	$13                     ; 0x2013 <malloc+0x9d>
     b13: 91 10        	sta	($10),y                 ; 0x2010 <malloc+0x9a>
     b15: c8           	iny
     b16: 8a           	txa
     b17: 91 10        	sta	($10),y                 ; 0x2010 <malloc+0x9a>
     b19: c8           	iny
     b1a: a5 14        	lda	$14                     ; 0x2014 <malloc+0x9e>
     b1c: 91 10        	sta	($10),y                 ; 0x2010 <malloc+0x9a>
     b1e: a2 e1        	ldx	#$e1
     b20: 86 12        	stx	$12                     ; 0x2012 <malloc+0x9c>
     b22: a2 24        	ldx	#$24
     b24: 86 13        	stx	$13                     ; 0x2013 <malloc+0x9d>
     b26: 20 c6 13     	jsr	$13c6 <printf>
     b29: a0 08        	ldy	#$8
     b2b: a2 00        	ldx	#$0
     b2d: b2 24        	lda	($24)                   ; 0x2024 <malloc+0xae>
     b2f: 8d 07 d7     	sta	$d707                   ; 0xd707 <__heap_start+0xb0f5>
     b32: ca           	dex
     b33: e0 ff        	cpx	#$ff
     b35: d0 01        	bne	$b38 <main+0x5e3>
     b37: 88           	dey
     b38: e6 24        	inc	$24                     ; 0x2024 <malloc+0xae>
     b3a: d0 02        	bne	$b3e <main+0x5e9>
     b3c: e6 25        	inc	$25                     ; 0x2025 <malloc+0xaf>
     b3e: 98           	tya
     b3f: d0 ec        	bne	$b2d <main+0x5d8>
     b41: 8a           	txa
     b42: d0 e9        	bne	$b2d <main+0x5d8>
     b44: 18           	clc
     b45: a5 10        	lda	$10                     ; 0x2010 <malloc+0x9a>
     b47: 69 0a        	adc	#$a
     b49: 48           	pha
     b4a: a5 11        	lda	$11                     ; 0x2011 <malloc+0x9b>
     b4c: 69 00        	adc	#$0
     b4e: 85 12        	sta	$12                     ; 0x2012 <malloc+0x9c>
     b50: 68           	pla
     b51: 18           	clc
     b52: 69 00        	adc	#$0
     b54: aa           	tax
     b55: a5 12        	lda	$12                     ; 0x2012 <malloc+0x9c>
     b57: 69 08        	adc	#$8
     b59: 86 12        	stx	$12                     ; 0x2012 <malloc+0x9c>
     b5b: 85 13        	sta	$13                     ; 0x2013 <malloc+0x9d>
     b5d: a0 08        	ldy	#$8
     b5f: a2 00        	ldx	#$0
     b61: b2 12        	lda	($12)                   ; 0x2012 <malloc+0x9c>
     b63: 8d 07 d7     	sta	$d707                   ; 0xd707 <__heap_start+0xb0f5>
     b66: ca           	dex
     b67: e0 ff        	cpx	#$ff
     b69: d0 01        	bne	$b6c <main+0x617>
     b6b: 88           	dey
     b6c: e6 12        	inc	$12                     ; 0x2012 <malloc+0x9c>
     b6e: d0 02        	bne	$b72 <main+0x61d>
     b70: e6 13        	inc	$13                     ; 0x2013 <malloc+0x9d>
     b72: 98           	tya
     b73: d0 ec        	bne	$b61 <main+0x60c>
     b75: 8a           	txa
     b76: d0 e9        	bne	$b61 <main+0x60c>
     b78: a2 4d        	ldx	#$4d
     b7a: 86 12        	stx	$12                     ; 0x2012 <malloc+0x9c>
     b7c: a2 25        	ldx	#$25
     b7e: 86 13        	stx	$13                     ; 0x2013 <malloc+0x9d>
     b80: 20 c6 13     	jsr	$13c6 <printf>
     b83: a2 7e        	ldx	#$7e
     b85: 86 12        	stx	$12                     ; 0x2012 <malloc+0x9c>
     b87: a2 25        	ldx	#$25
     b89: 86 13        	stx	$13                     ; 0x2013 <malloc+0x9d>
     b8b: 20 c6 13     	jsr	$13c6 <printf>
     b8e: a5 34        	lda	$34                     ; 0x2034 <malloc+0xbe>
     b90: 29 01        	and	#$1
     b92: d0 03        	bne	$b97 <main+0x642>
     b94: 4c d3 0c     	jmp	$cd3 <main+0x77e>
     b97: a2 10        	ldx	#$10
     b99: 8a           	txa
     b9a: a0 09        	ldy	#$9
     b9c: 91 10        	sta	($10),y                 ; 0x2010 <malloc+0x9a>
     b9e: 64 26        	stz	$26                     ; 0x2026 <malloc+0xb0>
     ba0: 64 28        	stz	$28                     ; 0x2028 <malloc+0xb2>
     ba2: 64 27        	stz	$27                     ; 0x2027 <malloc+0xb1>
     ba4: 4c 15 0c     	jmp	$c15 <main+0x6c0>
     ba7: 84 27        	sty	$27                     ; 0x2027 <malloc+0xb1>
     ba9: a6 26        	ldx	$26                     ; 0x2026 <malloc+0xb0>
     bab: 18           	clc
     bac: a5 10        	lda	$10                     ; 0x2010 <malloc+0x9a>
     bae: 69 0a        	adc	#$a
     bb0: 85 12        	sta	$12                     ; 0x2012 <malloc+0x9c>
     bb2: a5 11        	lda	$11                     ; 0x2011 <malloc+0x9b>
     bb4: 69 00        	adc	#$0
     bb6: 85 13        	sta	$13                     ; 0x2013 <malloc+0x9d>
     bb8: 8a           	txa
     bb9: 18           	clc
     bba: 65 12        	adc	$12                     ; 0x2012 <malloc+0x9c>
     bbc: 85 12        	sta	$12                     ; 0x2012 <malloc+0x9c>
     bbe: a5 28        	lda	$28                     ; 0x2028 <malloc+0xb2>
     bc0: 65 13        	adc	$13                     ; 0x2013 <malloc+0x9d>
     bc2: 85 13        	sta	$13                     ; 0x2013 <malloc+0x9d>
     bc4: a6 35        	ldx	$35                     ; 0x2035 <malloc+0xbf>
     bc6: 86 14        	stx	$14                     ; 0x2014 <malloc+0x9e>
     bc8: a6 36        	ldx	$36                     ; 0x2036 <malloc+0xc0>
     bca: 86 15        	stx	$15                     ; 0x2015 <malloc+0x9f>
     bcc: a2 00        	ldx	#$0
     bce: a9 40        	lda	#$40
     bd0: 20 18 0e     	jsr	$e18 <fileRead>
     bd3: a5 26        	lda	$26                     ; 0x2026 <malloc+0xb0>
     bd5: 18           	clc
     bd6: 69 40        	adc	#$40
     bd8: 85 12        	sta	$12                     ; 0x2012 <malloc+0x9c>
     bda: a5 28        	lda	$28                     ; 0x2028 <malloc+0xb2>
     bdc: 69 00        	adc	#$0
     bde: 85 28        	sta	$28                     ; 0x2028 <malloc+0xb2>
     be0: c9 20        	cmp	#$20
     be2: d0 0e        	bne	$bf2 <main+0x69d>
     be4: a6 29        	ldx	$29                     ; 0x2029 <malloc+0xb3>
     be6: a4 2c        	ldy	$2c                     ; 0x202c <malloc+0xb6>
     be8: a5 12        	lda	$12                     ; 0x2012 <malloc+0x9c>
     bea: d0 0c        	bne	$bf8 <main+0x6a3>
     bec: a9 00        	lda	#$0
     bee: 64 28        	stz	$28                     ; 0x2028 <malloc+0xb2>
     bf0: 80 06        	bra	$bf8 <main+0x6a3>
     bf2: a6 29        	ldx	$29                     ; 0x2029 <malloc+0xb3>
     bf4: a4 2c        	ldy	$2c                     ; 0x202c <malloc+0xb6>
     bf6: a5 12        	lda	$12                     ; 0x2012 <malloc+0x9c>
     bf8: 85 26        	sta	$26                     ; 0x2026 <malloc+0xb0>
     bfa: e8           	inx
     bfb: d0 01        	bne	$bfe <main+0x6a9>
     bfd: c8           	iny
     bfe: c4 25        	cpy	$25                     ; 0x2025 <malloc+0xaf>
     c00: f0 03        	beq	$c05 <main+0x6b0>
     c02: 4c 79 0c     	jmp	$c79 <main+0x724>
     c05: e4 24        	cpx	$24                     ; 0x2024 <malloc+0xae>
     c07: f0 03        	beq	$c0c <main+0x6b7>
     c09: 4c 79 0c     	jmp	$c79 <main+0x724>
     c0c: a5 34        	lda	$34                     ; 0x2034 <malloc+0xbe>
     c0e: 29 01        	and	#$1
     c10: d0 03        	bne	$c15 <main+0x6c0>
     c12: 4c d3 0c     	jmp	$cd3 <main+0x77e>
     c15: ae 04 d7     	ldx	$d704                   ; 0xd704 <__heap_start+0xb0f2>
     c18: 86 12        	stx	$12                     ; 0x2012 <malloc+0x9c>
     c1a: ad 05 d7     	lda	$d705                   ; 0xd705 <__heap_start+0xb0f3>
     c1d: 29 0f        	and	#$f
     c1f: 85 13        	sta	$13                     ; 0x2013 <malloc+0x9d>
     c21: a9 00        	lda	#$0
     c23: 38           	sec
     c24: e5 12        	sbc	$12                     ; 0x2012 <malloc+0x9c>
     c26: 85 12        	sta	$12                     ; 0x2012 <malloc+0x9c>
     c28: a9 08        	lda	#$8
     c2a: e5 13        	sbc	$13                     ; 0x2013 <malloc+0x9d>
     c2c: 06 12        	asl	$12                     ; 0x2012 <malloc+0x9c>
     c2e: 2a           	rol
     c2f: 64 25        	stz	$25                     ; 0x2025 <malloc+0xaf>
     c31: 26 25        	rol	$25                     ; 0x2025 <malloc+0xaf>
     c33: 06 12        	asl	$12                     ; 0x2012 <malloc+0x9c>
     c35: 2a           	rol
     c36: 85 24        	sta	$24                     ; 0x2024 <malloc+0xae>
     c38: 26 25        	rol	$25                     ; 0x2025 <malloc+0xaf>
     c3a: 64 30        	stz	$30                     ; 0x2030 <malloc+0xba>
     c3c: 9c 14 d0     	stz	$d014                   ; 0xd014 <__heap_start+0xaa02>
     c3f: 9c 15 d0     	stz	$d015                   ; 0xd015 <__heap_start+0xaa03>
     c42: a2 07        	ldx	#$7
     c44: 86 31        	stx	$31                     ; 0x2031 <malloc+0xbb>
     c46: 8e 16 d0     	stx	$d016                   ; 0xd016 <__heap_start+0xaa04>
     c49: 9c 17 d0     	stz	$d017                   ; 0xd017 <__heap_start+0xaa05>
     c4c: 38           	sec
     c4d: a9 20        	lda	#$20
     c4f: e5 24        	sbc	$24                     ; 0x2024 <malloc+0xae>
     c51: a8           	tay
     c52: a9 00        	lda	#$0
     c54: e5 25        	sbc	$25                     ; 0x2025 <malloc+0xaf>
     c56: 64 12        	stz	$12                     ; 0x2012 <malloc+0x9c>
     c58: 64 13        	stz	$13                     ; 0x2013 <malloc+0x9d>
     c5a: aa           	tax
     c5b: 98           	tya
     c5c: 20 1b 11     	jsr	$111b <textPrintUInt>
     c5f: a2 26        	ldx	#$26
     c61: 86 12        	stx	$12                     ; 0x2012 <malloc+0x9c>
     c63: a2 25        	ldx	#$25
     c65: 86 13        	stx	$13                     ; 0x2013 <malloc+0x9d>
     c67: 20 63 0f     	jsr	$f63 <textPrint>
     c6a: a5 25        	lda	$25                     ; 0x2025 <malloc+0xaf>
     c6c: d0 07        	bne	$c75 <main+0x720>
     c6e: a5 24        	lda	$24                     ; 0x2024 <malloc+0xae>
     c70: d0 03        	bne	$c75 <main+0x720>
     c72: 4c 0c 0c     	jmp	$c0c <main+0x6b7>
     c75: a2 00        	ldx	#$0
     c77: a0 00        	ldy	#$0
     c79: 84 2c        	sty	$2c                     ; 0x202c <malloc+0xb6>
     c7b: 86 29        	stx	$29                     ; 0x2029 <malloc+0xb3>
     c7d: 18           	clc
     c7e: a5 10        	lda	$10                     ; 0x2010 <malloc+0x9a>
     c80: 69 0a        	adc	#$a
     c82: 85 12        	sta	$12                     ; 0x2012 <malloc+0x9c>
     c84: a5 11        	lda	$11                     ; 0x2011 <malloc+0x9b>
     c86: 69 00        	adc	#$0
     c88: 85 13        	sta	$13                     ; 0x2013 <malloc+0x9d>
     c8a: a5 27        	lda	$27                     ; 0x2027 <malloc+0xb1>
     c8c: 18           	clc
     c8d: 65 12        	adc	$12                     ; 0x2012 <malloc+0x9c>
     c8f: 85 12        	sta	$12                     ; 0x2012 <malloc+0x9c>
     c91: a0 09        	ldy	#$9
     c93: b1 10        	lda	($10),y                 ; 0x2010 <malloc+0x9a>
     c95: 65 13        	adc	$13                     ; 0x2013 <malloc+0x9d>
     c97: 85 13        	sta	$13                     ; 0x2013 <malloc+0x9d>
     c99: a0 00        	ldy	#$0
     c9b: b1 12        	lda	($12),y                 ; 0x2012 <malloc+0x9c>
     c9d: 8d 07 d7     	sta	$d707                   ; 0xd707 <__heap_start+0xb0f5>
     ca0: c8           	iny
     ca1: c0 40        	cpy	#$40
     ca3: d0 f6        	bne	$c9b <main+0x746>
     ca5: 18           	clc
     ca6: a5 27        	lda	$27                     ; 0x2027 <malloc+0xb1>
     ca8: 69 40        	adc	#$40
     caa: a8           	tay
     cab: 5a           	phy
     cac: a0 09        	ldy	#$9
     cae: b1 10        	lda	($10),y                 ; 0x2010 <malloc+0x9a>
     cb0: 69 00        	adc	#$0
     cb2: 91 10        	sta	($10),y                 ; 0x2010 <malloc+0x9a>
     cb4: 7a           	ply
     cb5: c9 20        	cmp	#$20
     cb7: f0 03        	beq	$cbc <main+0x767>
     cb9: 4c a7 0b     	jmp	$ba7 <main+0x652>
     cbc: a6 26        	ldx	$26                     ; 0x2026 <malloc+0xb0>
     cbe: 84 27        	sty	$27                     ; 0x2027 <malloc+0xb1>
     cc0: 98           	tya
     cc1: f0 03        	beq	$cc6 <main+0x771>
     cc3: 4c ab 0b     	jmp	$bab <main+0x656>
     cc6: 64 27        	stz	$27                     ; 0x2027 <malloc+0xb1>
     cc8: 64 12        	stz	$12                     ; 0x2012 <malloc+0x9c>
     cca: a9 00        	lda	#$0
     ccc: a0 09        	ldy	#$9
     cce: 91 10        	sta	($10),y                 ; 0x2010 <malloc+0x9a>
     cd0: 4c ab 0b     	jmp	$bab <main+0x656>
     cd3: a6 35        	ldx	$35                     ; 0x2035 <malloc+0xbf>
     cd5: a4 36        	ldy	$36                     ; 0x2036 <malloc+0xc0>
     cd7: 86 12        	stx	$12                     ; 0x2012 <malloc+0x9c>
     cd9: 84 13        	sty	$13                     ; 0x2013 <malloc+0x9d>
     cdb: b2 12        	lda	($12)                   ; 0x2012 <malloc+0x9c>
     cdd: 85 f3        	sta	$f3                     ; 0x20f3 <malloc+0x17d>
     cdf: a2 37        	ldx	#$37
     ce1: 86 24        	stx	$24                     ; 0x2024 <malloc+0xae>
     ce3: a2 00        	ldx	#$0
     ce5: 86 25        	stx	$25                     ; 0x2025 <malloc+0xaf>
     ce7: 20 68 ff     	jsr	$ff68 <__heap_start+0xd956>
     cea: 92 2a        	sta	($2a)                   ; 0x202a <malloc+0xb4>
     cec: a9 00        	lda	#$0
     cee: 6a           	ror
     cef: 85 24        	sta	$24                     ; 0x2024 <malloc+0xae>
     cf1: 20 4c 21     	jsr	$214c <free>
     cf4: 64 38        	stz	$38                     ; 0x2038 <malloc+0xc2>
     cf6: 20 00 ff     	jsr	$ff00 <__heap_start+0xd8ee>
     cf9: 92 2a        	sta	($2a)                   ; 0x202a <malloc+0xb4>
     cfb: a9 00        	lda	#$0
     cfd: 6a           	ror
     cfe: 85 24        	sta	$24                     ; 0x2024 <malloc+0xae>
     d00: a6 38        	ldx	$38                     ; 0x2038 <malloc+0xc2>
     d02: e0 38        	cpx	#$38
     d04: f0 04        	beq	$d0a <main+0x7b5>
     d06: e0 32        	cpx	#$32
     d08: d0 ea        	bne	$cf4 <main+0x79f>
     d0a: a2 28        	ldx	#$28
     d0c: 86 12        	stx	$12                     ; 0x2012 <malloc+0x9c>
     d0e: a2 25        	ldx	#$25
     d10: 86 13        	stx	$13                     ; 0x2013 <malloc+0x9d>
     d12: 20 c6 13     	jsr	$13c6 <printf>
     d15: a2 37        	ldx	#$37
     d17: 86 12        	stx	$12                     ; 0x2012 <malloc+0x9c>
     d19: a2 00        	ldx	#$0
     d1b: 86 13        	stx	$13                     ; 0x2013 <malloc+0x9d>
     d1d: 64 38        	stz	$38                     ; 0x2038 <malloc+0xc2>
     d1f: 20 00 ff     	jsr	$ff00 <__heap_start+0xd8ee>
     d22: 92 2a        	sta	($2a)                   ; 0x202a <malloc+0xb4>
     d24: a9 00        	lda	#$0
     d26: 6a           	ror
     d27: 85 12        	sta	$12                     ; 0x2012 <malloc+0x9c>
     d29: a6 38        	ldx	$38                     ; 0x2038 <malloc+0xc2>
     d2b: e0 08        	cpx	#$8
     d2d: d0 ee        	bne	$d1d <main+0x7c8>
     d2f: a6 3c        	ldx	$3c                     ; 0x203c <malloc+0xc6>
     d31: e0 20        	cpx	#$20
     d33: f0 04        	beq	$d39 <main+0x7e4>
     d35: e0 94        	cpx	#$94
     d37: d0 e4        	bne	$d1d <main+0x7c8>
     d39: 78           	sei
     d3a: a2 07        	ldx	#$7
     d3c: 86 0f        	stx	$f                      ; 0x200f <malloc+0x99>
     d3e: a2 de        	ldx	#$de
     d40: 8e a2 d6     	stx	$d6a2                   ; 0xd6a2 <__heap_start+0xb090>
     d43: a2 ad        	ldx	#$ad
     d45: 8e a3 d6     	stx	$d6a3                   ; 0xd6a3 <__heap_start+0xb091>
     d48: a2 f0        	ldx	#$f0
     d4a: 8e a0 d6     	stx	$d6a0                   ; 0xd6a0 <__heap_start+0xb08e>
     d4d: 9c a0 d6     	stz	$d6a0                   ; 0xd6a0 <__heap_start+0xb08e>
     d50: 6c fc ff     	jmp	($fffc)                 ; 0xfffc <__heap_start+0xd9ea>
     d53: a2 00        	ldx	#$0
     d55: 8a           	txa
     d56: 85 20        	sta	$20                     ; 0x2020 <malloc+0xaa>
     d58: a0 04        	ldy	#$4
     d5a: b1 10        	lda	($10),y                 ; 0x2010 <malloc+0x9a>
     d5c: 85 2c        	sta	$2c                     ; 0x202c <malloc+0xb6>
     d5e: c8           	iny
     d5f: b1 10        	lda	($10),y                 ; 0x2010 <malloc+0x9a>
     d61: 85 2b        	sta	$2b                     ; 0x202b <malloc+0xb5>
     d63: c8           	iny
     d64: b1 10        	lda	($10),y                 ; 0x2010 <malloc+0x9a>
     d66: 85 2a        	sta	$2a                     ; 0x202a <malloc+0xb4>
     d68: c8           	iny
     d69: b1 10        	lda	($10),y                 ; 0x2010 <malloc+0x9a>
     d6b: 85 29        	sta	$29                     ; 0x2029 <malloc+0xb3>
     d6d: c8           	iny
     d6e: b1 10        	lda	($10),y                 ; 0x2010 <malloc+0x9a>
     d70: 85 28        	sta	$28                     ; 0x2028 <malloc+0xb2>
     d72: 7a           	ply
     d73: 84 27        	sty	$27                     ; 0x2027 <malloc+0xb1>
     d75: 7a           	ply
     d76: 84 26        	sty	$26                     ; 0x2026 <malloc+0xb0>
     d78: 7a           	ply
     d79: 84 25        	sty	$25                     ; 0x2025 <malloc+0xaf>
     d7b: 7a           	ply
     d7c: 84 24        	sty	$24                     ; 0x2024 <malloc+0xae>
     d7e: 18           	clc
     d7f: a5 10        	lda	$10                     ; 0x2010 <malloc+0x9a>
     d81: 69 0b        	adc	#$b
     d83: 85 10        	sta	$10                     ; 0x2010 <malloc+0x9a>
     d85: a5 11        	lda	$11                     ; 0x2011 <malloc+0x9b>
     d87: 69 20        	adc	#$20
     d89: 85 11        	sta	$11                     ; 0x2011 <malloc+0x9b>
     d8b: a5 20        	lda	$20                     ; 0x2020 <malloc+0xaa>
     d8d: 60           	rts
     d8e: b2 24        	lda	($24)                   ; 0x2024 <malloc+0xae>
     d90: 85 27        	sta	$27                     ; 0x2027 <malloc+0xb1>
     d92: 64 38        	stz	$38                     ; 0x2038 <malloc+0xc2>
     d94: 20 00 ff     	jsr	$ff00 <__heap_start+0xd8ee>
     d97: 92 24        	sta	($24)                   ; 0x2024 <malloc+0xae>
     d99: a9 00        	lda	#$0
     d9b: 6a           	ror
     d9c: 85 12        	sta	$12                     ; 0x2012 <malloc+0x9c>
     d9e: a6 38        	ldx	$38                     ; 0x2038 <malloc+0xc2>
     da0: e0 28        	cpx	#$28
     da2: d0 03        	bne	$da7 <main+0x852>
     da4: 4c 4c 0a     	jmp	$a4c <main+0x4f7>
     da7: e0 38        	cpx	#$38
     da9: d0 03        	bne	$dae <main+0x859>
     dab: 4c 4c 0a     	jmp	$a4c <main+0x4f7>
     dae: e0 2a        	cpx	#$2a
     db0: d0 e0        	bne	$d92 <main+0x83d>
     db2: a9 01        	lda	#$1
     db4: 64 26        	stz	$26                     ; 0x2026 <malloc+0xb0>
     db6: a2 00        	ldx	#$0
     db8: 20 76 1f     	jsr	$1f76 <malloc>
     dbb: a5 27        	lda	$27                     ; 0x2027 <malloc+0xb1>
     dbd: 92 12        	sta	($12)                   ; 0x2012 <malloc+0x9c>
     dbf: a6 12        	ldx	$12                     ; 0x2012 <malloc+0x9c>
     dc1: a4 13        	ldy	$13                     ; 0x2013 <malloc+0x9d>
     dc3: 86 35        	stx	$35                     ; 0x2035 <malloc+0xbf>
     dc5: 84 36        	sty	$36                     ; 0x2036 <malloc+0xc0>
     dc7: a0 80        	ldy	#$80
     dc9: a6 35        	ldx	$35                     ; 0x2035 <malloc+0xbf>
     dcb: a5 36        	lda	$36                     ; 0x2036 <malloc+0xc0>
     dcd: 86 14        	stx	$14                     ; 0x2014 <malloc+0x9e>
     dcf: 85 15        	sta	$15                     ; 0x2015 <malloc+0x9f>
     dd1: a6 24        	ldx	$24                     ; 0x2024 <malloc+0xae>
     dd3: 86 12        	stx	$12                     ; 0x2012 <malloc+0x9c>
     dd5: a6 25        	ldx	$25                     ; 0x2025 <malloc+0xaf>
     dd7: 86 13        	stx	$13                     ; 0x2013 <malloc+0x9d>
     dd9: a2 00        	ldx	#$0
     ddb: 98           	tya
     ddc: 20 18 0e     	jsr	$e18 <fileRead>
     ddf: e0 00        	cpx	#$0
     de1: d0 08        	bne	$deb <main+0x896>
     de3: 64 26        	stz	$26                     ; 0x2026 <malloc+0xb0>
     de5: a0 80        	ldy	#$80
     de7: c9 80        	cmp	#$80
     de9: f0 de        	beq	$dc9 <main+0x874>
     deb: a2 01        	ldx	#$1
     ded: 86 34        	stx	$34                     ; 0x2034 <malloc+0xbe>
     def: a6 35        	ldx	$35                     ; 0x2035 <malloc+0xbf>
     df1: a4 36        	ldy	$36                     ; 0x2036 <malloc+0xc0>
     df3: 86 12        	stx	$12                     ; 0x2012 <malloc+0x9c>
     df5: 84 13        	sty	$13                     ; 0x2013 <malloc+0x9d>
     df7: b2 12        	lda	($12)                   ; 0x2012 <malloc+0x9c>
     df9: 85 f3        	sta	$f3                     ; 0x20f3 <malloc+0x17d>
     dfb: 64 f4        	stz	$f4                     ; 0x20f4 <malloc+0x17e>
     dfd: 64 f5        	stz	$f5                     ; 0x20f5 <malloc+0x17f>
     dff: 64 f6        	stz	$f6                     ; 0x20f6 <malloc+0x180>
     e01: 64 f7        	stz	$f7                     ; 0x20f7 <malloc+0x181>
     e03: a2 37        	ldx	#$37
     e05: 86 12        	stx	$12                     ; 0x2012 <malloc+0x9c>
     e07: a2 00        	ldx	#$0
     e09: 86 13        	stx	$13                     ; 0x2013 <malloc+0x9d>
     e0b: 20 74 ff     	jsr	$ff74 <__heap_start+0xd962>
     e0e: 92 2a        	sta	($2a)                   ; 0x202a <malloc+0xb4>
     e10: a9 00        	lda	#$0
     e12: 6a           	ror
     e13: 85 12        	sta	$12                     ; 0x2012 <malloc+0x9c>
     e15: 4c 71 0a     	jmp	$a71 <main+0x51c>

00000e18 <fileRead>:
     e18: 85 16        	sta	$16                     ; 0x2016 <malloc+0xa0>
     e1a: 86 17        	stx	$17                     ; 0x2017 <malloc+0xa1>
     e1c: 64 18        	stz	$18                     ; 0x2018 <malloc+0xa2>
     e1e: a6 12        	ldx	$12                     ; 0x2012 <malloc+0x9c>
     e20: 86 1a        	stx	$1a                     ; 0x201a <malloc+0xa4>
     e22: a6 13        	ldx	$13                     ; 0x2013 <malloc+0x9d>
     e24: 86 1b        	stx	$1b                     ; 0x201b <malloc+0xa5>
     e26: a2 3f        	ldx	#$3f
     e28: a0 00        	ldy	#$0
     e2a: a9 37        	lda	#$37
     e2c: 85 12        	sta	$12                     ; 0x2012 <malloc+0x9c>
     e2e: a9 00        	lda	#$0
     e30: 85 13        	sta	$13                     ; 0x2013 <malloc+0x9d>
     e32: 64 19        	stz	$19                     ; 0x2019 <malloc+0xa3>
     e34: b2 14        	lda	($14)                   ; 0x2014 <malloc+0x9e>
     e36: 85 1d        	sta	$1d                     ; 0x201d <malloc+0xa7>
     e38: a5 1a        	lda	$1a                     ; 0x201a <malloc+0xa4>
     e3a: 85 1e        	sta	$1e                     ; 0x201e <malloc+0xa8>
     e3c: a5 1a        	lda	$1a                     ; 0x201a <malloc+0xa4>
     e3e: 18           	clc
     e3f: 65 18        	adc	$18                     ; 0x2018 <malloc+0xa2>
     e41: 85 1c        	sta	$1c                     ; 0x201c <malloc+0xa6>
     e43: a5 1b        	lda	$1b                     ; 0x201b <malloc+0xa5>
     e45: 85 1f        	sta	$1f                     ; 0x201f <malloc+0xa9>
     e47: a5 1b        	lda	$1b                     ; 0x201b <malloc+0xa5>
     e49: 65 19        	adc	$19                     ; 0x2019 <malloc+0xa3>
     e4b: e6 1d        	inc	$1d                     ; 0x201d <malloc+0xa7>
     e4d: c6 1d        	dec	$1d                     ; 0x201d <malloc+0xa7>
     e4f: d0 03        	bne	$e54 <fileRead+0x3c>
     e51: 4c d1 0e     	jmp	$ed1 <fileRead+0xb9>
     e54: 5a           	phy
     e55: a4 1d        	ldy	$1d                     ; 0x201d <malloc+0xa7>
     e57: 84 1a        	sty	$1a                     ; 0x201a <malloc+0xa4>
     e59: 7a           	ply
     e5a: 85 1d        	sta	$1d                     ; 0x201d <malloc+0xa7>
     e5c: a5 16        	lda	$16                     ; 0x2016 <malloc+0xa0>
     e5e: 38           	sec
     e5f: e5 18        	sbc	$18                     ; 0x2018 <malloc+0xa2>
     e61: 85 1b        	sta	$1b                     ; 0x201b <malloc+0xa5>
     e63: a5 1a        	lda	$1a                     ; 0x201a <malloc+0xa4>
     e65: 85 f3        	sta	$f3                     ; 0x20f3 <malloc+0x17d>
     e67: a5 1b        	lda	$1b                     ; 0x201b <malloc+0xa5>
     e69: 85 f4        	sta	$f4                     ; 0x20f4 <malloc+0x17e>
     e6b: a9 41        	lda	#$41
     e6d: 85 1a        	sta	$1a                     ; 0x201a <malloc+0xa4>
     e6f: a9 00        	lda	#$0
     e71: 85 1b        	sta	$1b                     ; 0x201b <malloc+0xa5>
     e73: 20 60 ff     	jsr	$ff60 <__heap_start+0xd94e>
     e76: 92 1a        	sta	($1a)                   ; 0x201a <malloc+0xa4>
     e78: a9 00        	lda	#$0
     e7a: 6a           	ror
     e7b: 85 12        	sta	$12                     ; 0x2012 <malloc+0x9c>
     e7d: a5 37        	lda	$37                     ; 0x2037 <malloc+0xc1>
     e7f: f0 03        	beq	$e84 <fileRead+0x6c>
     e81: 4c 4b 0f     	jmp	$f4b <fileRead+0x133>
     e84: 64 38        	stz	$38                     ; 0x2038 <malloc+0xc2>
     e86: a9 42        	lda	#$42
     e88: 85 1a        	sta	$1a                     ; 0x201a <malloc+0xa4>
     e8a: a9 00        	lda	#$0
     e8c: 85 1b        	sta	$1b                     ; 0x201b <malloc+0xa5>
     e8e: 20 00 ff     	jsr	$ff00 <__heap_start+0xd8ee>
     e91: 92 1a        	sta	($1a)                   ; 0x201a <malloc+0xa4>
     e93: a9 00        	lda	#$0
     e95: 6a           	ror
     e96: 85 12        	sta	$12                     ; 0x2012 <malloc+0x9c>
     e98: a5 38        	lda	$38                     ; 0x2038 <malloc+0xc2>
     e9a: c9 38        	cmp	#$38
     e9c: d0 03        	bne	$ea1 <fileRead+0x89>
     e9e: 4c 4b 0f     	jmp	$f4b <fileRead+0x133>
     ea1: c9 30        	cmp	#$30
     ea3: d0 03        	bne	$ea8 <fileRead+0x90>
     ea5: 4c 52 0f     	jmp	$f52 <fileRead+0x13a>
     ea8: c9 2c        	cmp	#$2c
     eaa: d0 d8        	bne	$e84 <fileRead+0x6c>
     eac: a5 1c        	lda	$1c                     ; 0x201c <malloc+0xa6>
     eae: 85 fb        	sta	$fb                     ; 0x20fb <malloc+0x185>
     eb0: a5 1d        	lda	$1d                     ; 0x201d <malloc+0xa7>
     eb2: 85 fc        	sta	$fc                     ; 0x20fc <malloc+0x186>
     eb4: a5 3e        	lda	$3e                     ; 0x203e <malloc+0xc8>
     eb6: 85 fd        	sta	$fd                     ; 0x20fd <malloc+0x187>
     eb8: a9 43        	lda	#$43
     eba: 85 1a        	sta	$1a                     ; 0x201a <malloc+0xa4>
     ebc: a9 00        	lda	#$0
     ebe: 85 1b        	sta	$1b                     ; 0x201b <malloc+0xa5>
     ec0: 20 04 ff     	jsr	$ff04 <__heap_start+0xd8f2>
     ec3: 92 1a        	sta	($1a)                   ; 0x201a <malloc+0xa4>
     ec5: a9 00        	lda	#$0
     ec7: 6a           	ror
     ec8: 85 12        	sta	$12                     ; 0x2012 <malloc+0x9c>
     eca: a5 3e        	lda	$3e                     ; 0x203e <malloc+0xc8>
     ecc: d0 45        	bne	$f13 <fileRead+0xfb>
     ece: 4c 5c 0f     	jmp	$f5c <fileRead+0x144>
     ed1: 5a           	phy
     ed2: a4 1c        	ldy	$1c                     ; 0x201c <malloc+0xa6>
     ed4: 84 1a        	sty	$1a                     ; 0x201a <malloc+0xa4>
     ed6: 7a           	ply
     ed7: 85 1b        	sta	$1b                     ; 0x201b <malloc+0xa5>
     ed9: 80 0a        	bra	$ee5 <fileRead+0xcd>
     edb: a5 38        	lda	$38                     ; 0x2038 <malloc+0xc2>
     edd: c9 08        	cmp	#$8
     edf: d0 04        	bne	$ee5 <fileRead+0xcd>
     ee1: a5 3e        	lda	$3e                     ; 0x203e <malloc+0xc8>
     ee3: f0 28        	beq	$f0d <fileRead+0xf5>
     ee5: 64 38        	stz	$38                     ; 0x2038 <malloc+0xc2>
     ee7: 86 1c        	stx	$1c                     ; 0x201c <malloc+0xa6>
     ee9: 84 1d        	sty	$1d                     ; 0x201d <malloc+0xa7>
     eeb: 20 00 ff     	jsr	$ff00 <__heap_start+0xd8ee>
     eee: 92 1c        	sta	($1c)                   ; 0x201c <malloc+0xa6>
     ef0: a9 00        	lda	#$0
     ef2: 6a           	ror
     ef3: 85 12        	sta	$12                     ; 0x2012 <malloc+0x9c>
     ef5: a5 37        	lda	$37                     ; 0x2037 <malloc+0xc1>
     ef7: f0 e2        	beq	$edb <fileRead+0xc3>
     ef9: a9 40        	lda	#$40
     efb: 85 1c        	sta	$1c                     ; 0x201c <malloc+0xa6>
     efd: a9 00        	lda	#$0
     eff: 85 1d        	sta	$1d                     ; 0x201d <malloc+0xa7>
     f01: 20 0c ff     	jsr	$ff0c <__heap_start+0xd8fa>
     f04: 92 1c        	sta	($1c)                   ; 0x201c <malloc+0xa6>
     f06: a9 00        	lda	#$0
     f08: 6a           	ror
     f09: 85 12        	sta	$12                     ; 0x2012 <malloc+0x9c>
     f0b: 80 d8        	bra	$ee5 <fileRead+0xcd>
     f0d: a5 3d        	lda	$3d                     ; 0x203d <malloc+0xc7>
     f0f: 92 1a        	sta	($1a)                   ; 0x201a <malloc+0xa4>
     f11: a9 01        	lda	#$1
     f13: 85 44        	sta	$44                     ; 0x2044 <malloc+0xce>
     f15: a9 00        	lda	#$0
     f17: 85 45        	sta	$45                     ; 0x2045 <malloc+0xcf>
     f19: 18           	clc
     f1a: a5 44        	lda	$44                     ; 0x2044 <malloc+0xce>
     f1c: 65 18        	adc	$18                     ; 0x2018 <malloc+0xa2>
     f1e: 85 44        	sta	$44                     ; 0x2044 <malloc+0xce>
     f20: a5 45        	lda	$45                     ; 0x2045 <malloc+0xcf>
     f22: 65 19        	adc	$19                     ; 0x2019 <malloc+0xa3>
     f24: c5 17        	cmp	$17                     ; 0x2017 <malloc+0xa1>
     f26: d0 0a        	bne	$f32 <fileRead+0x11a>
     f28: 85 19        	sta	$19                     ; 0x2019 <malloc+0xa3>
     f2a: a5 44        	lda	$44                     ; 0x2044 <malloc+0xce>
     f2c: 85 18        	sta	$18                     ; 0x2018 <malloc+0xa2>
     f2e: c5 16        	cmp	$16                     ; 0x2016 <malloc+0xa0>
     f30: 80 08        	bra	$f3a <fileRead+0x122>
     f32: c5 17        	cmp	$17                     ; 0x2017 <malloc+0xa1>
     f34: 85 19        	sta	$19                     ; 0x2019 <malloc+0xa3>
     f36: a5 44        	lda	$44                     ; 0x2044 <malloc+0xce>
     f38: 85 18        	sta	$18                     ; 0x2018 <malloc+0xa2>
     f3a: a5 19        	lda	$19                     ; 0x2019 <malloc+0xa3>
     f3c: 5a           	phy
     f3d: a4 1e        	ldy	$1e                     ; 0x201e <malloc+0xa8>
     f3f: 84 1a        	sty	$1a                     ; 0x201a <malloc+0xa4>
     f41: a4 1f        	ldy	$1f                     ; 0x201f <malloc+0xa9>
     f43: 84 1b        	sty	$1b                     ; 0x201b <malloc+0xa5>
     f45: 7a           	ply
     f46: b0 10        	bcs	$f58 <fileRead+0x140>
     f48: 4c 34 0e     	jmp	$e34 <fileRead+0x1c>
     f4b: a9 ff        	lda	#$ff
     f4d: aa           	tax
     f4e: 86 44        	stx	$44                     ; 0x2044 <malloc+0xce>
     f50: 80 06        	bra	$f58 <fileRead+0x140>
     f52: a6 18        	ldx	$18                     ; 0x2018 <malloc+0xa2>
     f54: 86 44        	stx	$44                     ; 0x2044 <malloc+0xce>
     f56: a5 19        	lda	$19                     ; 0x2019 <malloc+0xa3>
     f58: aa           	tax
     f59: a5 44        	lda	$44                     ; 0x2044 <malloc+0xce>
     f5b: 60           	rts
     f5c: a9 00        	lda	#$0
     f5e: 85 44        	sta	$44                     ; 0x2044 <malloc+0xce>
     f60: 1a           	inc
     f61: 80 b4        	bra	$f17 <fileRead+0xff>

00000f63 <textPrint>:
     f63: a6 01        	ldx	$1                      ; 0x2001 <malloc+0x8b>
     f65: 86 96        	stx	$96                     ; 0x2096 <malloc+0x120>
     f67: a6 31        	ldx	$31                     ; 0x2031 <malloc+0xbb>
     f69: a0 50        	ldy	#$50
     f6b: 8c 00 de     	sty	$de00                   ; 0xde00 <__heap_start+0xb7ee>
     f6e: 9c 01 de     	stz	$de01                   ; 0xde01 <__heap_start+0xb7ef>
     f71: 8e 02 de     	stx	$de02                   ; 0xde02 <__heap_start+0xb7f0>
     f74: 9c 03 de     	stz	$de03                   ; 0xde03 <__heap_start+0xb7f1>
     f77: ae 10 de     	ldx	$de10                   ; 0xde10 <__heap_start+0xb7fe>
     f7a: ac 11 de     	ldy	$de11                   ; 0xde11 <__heap_start+0xb7ff>
     f7d: 84 15        	sty	$15                     ; 0x2015 <malloc+0x9f>
     f7f: ad 12 de     	lda	$de12                   ; 0xde12 <__heap_start+0xb800>
     f82: ac 13 de     	ldy	$de13                   ; 0xde13 <__heap_start+0xb801>
     f85: 84 1c        	sty	$1c                     ; 0x201c <malloc+0xa6>
     f87: 9c 08 de     	stz	$de08                   ; 0xde08 <__heap_start+0xb7f6>
     f8a: a0 c0        	ldy	#$c0
     f8c: 8c 09 de     	sty	$de09                   ; 0xde09 <__heap_start+0xb7f7>
     f8f: 9c 0a de     	stz	$de0a                   ; 0xde0a <__heap_start+0xb7f8>
     f92: 9c 0b de     	stz	$de0b                   ; 0xde0b <__heap_start+0xb7f9>
     f95: 8e 0c de     	stx	$de0c                   ; 0xde0c <__heap_start+0xb7fa>
     f98: 64 14        	stz	$14                     ; 0x2014 <malloc+0x9e>
     f9a: a2 00        	ldx	#$0
     f9c: 86 16        	stx	$16                     ; 0x2016 <malloc+0xa0>
     f9e: a2 c0        	ldx	#$c0
     fa0: 86 17        	stx	$17                     ; 0x2017 <malloc+0xa1>
     fa2: a2 11        	ldx	#$11
     fa4: 86 18        	stx	$18                     ; 0x2018 <malloc+0xa2>
     fa6: a2 c9        	ldx	#$c9
     fa8: 86 19        	stx	$19                     ; 0x2019 <malloc+0xa3>
     faa: a2 10        	ldx	#$10
     fac: 86 1a        	stx	$1a                     ; 0x201a <malloc+0xa4>
     fae: a2 c9        	ldx	#$c9
     fb0: 86 1b        	stx	$1b                     ; 0x201b <malloc+0xa5>
     fb2: a6 15        	ldx	$15                     ; 0x2015 <malloc+0x9f>
     fb4: 8e 0d de     	stx	$de0d                   ; 0xde0d <__heap_start+0xb7fb>
     fb7: 8d 0e de     	sta	$de0e                   ; 0xde0e <__heap_start+0xb7fc>
     fba: a6 1c        	ldx	$1c                     ; 0x201c <malloc+0xa6>
     fbc: 8e 0f de     	stx	$de0f                   ; 0xde0f <__heap_start+0xb7fd>
     fbf: ac 18 de     	ldy	$de18                   ; 0xde18 <__heap_start+0xb806>
     fc2: ad 19 de     	lda	$de19                   ; 0xde19 <__heap_start+0xb807>
     fc5: ae 1a de     	ldx	$de1a                   ; 0xde1a <__heap_start+0xb808>
     fc8: ae 1b de     	ldx	$de1b                   ; 0xde1b <__heap_start+0xb809>
     fcb: 84 1c        	sty	$1c                     ; 0x201c <malloc+0xa6>
     fcd: 85 1d        	sta	$1d                     ; 0x201d <malloc+0xa7>
     fcf: 64 15        	stz	$15                     ; 0x2015 <malloc+0x9f>
     fd1: 80 13        	bra	$fe6 <textPrint+0x83>
     fd3: a5 1c        	lda	$1c                     ; 0x201c <malloc+0xa6>
     fd5: 18           	clc
     fd6: 69 50        	adc	#$50
     fd8: 85 1c        	sta	$1c                     ; 0x201c <malloc+0xa6>
     fda: a5 1d        	lda	$1d                     ; 0x201d <malloc+0xa7>
     fdc: 69 00        	adc	#$0
     fde: 85 1d        	sta	$1d                     ; 0x201d <malloc+0xa7>
     fe0: e6 14        	inc	$14                     ; 0x2014 <malloc+0x9e>
     fe2: d0 02        	bne	$fe6 <textPrint+0x83>
     fe4: e6 15        	inc	$15                     ; 0x2015 <malloc+0x9f>
     fe6: a5 12        	lda	$12                     ; 0x2012 <malloc+0x9c>
     fe8: 18           	clc
     fe9: 65 14        	adc	$14                     ; 0x2014 <malloc+0x9e>
     feb: 85 1e        	sta	$1e                     ; 0x201e <malloc+0xa8>
     fed: a5 13        	lda	$13                     ; 0x2013 <malloc+0x9d>
     fef: 65 15        	adc	$15                     ; 0x2015 <malloc+0x9f>
     ff1: 85 1f        	sta	$1f                     ; 0x201f <malloc+0xa9>
     ff3: b2 1e        	lda	($1e)                   ; 0x201e <malloc+0xa8>
     ff5: c9 0a        	cmp	#$a
     ff7: f0 26        	beq	$101f <textPrint+0xbc>
     ff9: c9 0d        	cmp	#$d
     ffb: f0 22        	beq	$101f <textPrint+0xbc>
     ffd: aa           	tax
     ffe: d0 03        	bne	$1003 <textPrint+0xa0>
    1000: 4c 04 11     	jmp	$1104 <textPrint+0x1a1>
    1003: a2 03        	ldx	#$3
    1005: 86 01        	stx	$1                      ; 0x2001 <malloc+0x8b>
    1007: a4 30        	ldy	$30                     ; 0x2030 <malloc+0xba>
    1009: a9 f0        	lda	#$f0
    100b: 91 1c        	sta	($1c),y                 ; 0x201c <malloc+0xa6>
    100d: ca           	dex
    100e: 86 01        	stx	$1                      ; 0x2001 <malloc+0x8b>
    1010: b2 1e        	lda	($1e)                   ; 0x201e <malloc+0xa8>
    1012: a4 30        	ldy	$30                     ; 0x2030 <malloc+0xba>
    1014: 91 1c        	sta	($1c),y                 ; 0x201c <malloc+0xa6>
    1016: a6 30        	ldx	$30                     ; 0x2030 <malloc+0xba>
    1018: e8           	inx
    1019: e6 30        	inc	$30                     ; 0x2030 <malloc+0xba>
    101b: e0 50        	cpx	#$50
    101d: d0 c1        	bne	$fe0 <textPrint+0x7d>
    101f: 64 30        	stz	$30                     ; 0x2030 <malloc+0xba>
    1021: a6 31        	ldx	$31                     ; 0x2031 <malloc+0xbb>
    1023: e8           	inx
    1024: e6 31        	inc	$31                     ; 0x2031 <malloc+0xbb>
    1026: e0 1e        	cpx	#$1e
    1028: f0 03        	beq	$102d <textPrint+0xca>
    102a: 4c d3 0f     	jmp	$fd3 <textPrint+0x70>
    102d: a2 03        	ldx	#$3
    102f: 86 01        	stx	$1                      ; 0x2001 <malloc+0x8b>
    1031: a2 01        	ldx	#$1
    1033: 86 1c        	stx	$1c                     ; 0x201c <malloc+0xa6>
    1035: a2 09        	ldx	#$9
    1037: a0 10        	ldy	#$10
    1039: a9 00        	lda	#$0
    103b: 85 1e        	sta	$1e                     ; 0x201e <malloc+0xa8>
    103d: a9 c0        	lda	#$c0
    103f: 85 1f        	sta	$1f                     ; 0x201f <malloc+0xa9>
    1041: 84 1d        	sty	$1d                     ; 0x201d <malloc+0xa7>
    1043: a0 50        	ldy	#$50
    1045: b1 1e        	lda	($1e),y                 ; 0x201e <malloc+0xa8>
    1047: 92 1e        	sta	($1e)                   ; 0x201e <malloc+0xa8>
    1049: a9 ff        	lda	#$ff
    104b: c6 1d        	dec	$1d                     ; 0x201d <malloc+0xa7>
    104d: c5 1d        	cmp	$1d                     ; 0x201d <malloc+0xa7>
    104f: d0 01        	bne	$1052 <textPrint+0xef>
    1051: ca           	dex
    1052: e6 1e        	inc	$1e                     ; 0x201e <malloc+0xa8>
    1054: d0 02        	bne	$1058 <textPrint+0xf5>
    1056: e6 1f        	inc	$1f                     ; 0x201f <malloc+0xa9>
    1058: 8a           	txa
    1059: d0 ea        	bne	$1045 <textPrint+0xe2>
    105b: a5 1d        	lda	$1d                     ; 0x201d <malloc+0xa7>
    105d: d0 e6        	bne	$1045 <textPrint+0xe2>
    105f: a2 02        	ldx	#$2
    1061: 86 01        	stx	$1                      ; 0x2001 <malloc+0x8b>
    1063: a2 00        	ldx	#$0
    1065: a5 1c        	lda	$1c                     ; 0x201c <malloc+0xa6>
    1067: d0 ca        	bne	$1033 <textPrint+0xd0>
    1069: a2 03        	ldx	#$3
    106b: 86 01        	stx	$1                      ; 0x2001 <malloc+0x8b>
    106d: a2 50        	ldx	#$50
    106f: a0 11        	ldy	#$11
    1071: 84 1c        	sty	$1c                     ; 0x201c <malloc+0xa6>
    1073: a0 c9        	ldy	#$c9
    1075: 84 1d        	sty	$1d                     ; 0x201d <malloc+0xa7>
    1077: a0 10        	ldy	#$10
    1079: 84 1e        	sty	$1e                     ; 0x201e <malloc+0xa8>
    107b: a0 c9        	ldy	#$c9
    107d: 84 1f        	sty	$1f                     ; 0x201f <malloc+0xa9>
    107f: a9 f0        	lda	#$f0
    1081: a4 1c        	ldy	$1c                     ; 0x201c <malloc+0xa6>
    1083: 84 22        	sty	$22                     ; 0x2022 <malloc+0xac>
    1085: a4 1d        	ldy	$1d                     ; 0x201d <malloc+0xa7>
    1087: 84 23        	sty	$23                     ; 0x2023 <malloc+0xad>
    1089: 92 1e        	sta	($1e)                   ; 0x201e <malloc+0xa8>
    108b: e6 1c        	inc	$1c                     ; 0x201c <malloc+0xa6>
    108d: d0 02        	bne	$1091 <textPrint+0x12e>
    108f: e6 1d        	inc	$1d                     ; 0x201d <malloc+0xa7>
    1091: ca           	dex
    1092: a4 22        	ldy	$22                     ; 0x2022 <malloc+0xac>
    1094: 84 1e        	sty	$1e                     ; 0x201e <malloc+0xa8>
    1096: a4 23        	ldy	$23                     ; 0x2023 <malloc+0xad>
    1098: 84 1f        	sty	$1f                     ; 0x201f <malloc+0xa9>
    109a: e0 00        	cpx	#$0
    109c: d0 e3        	bne	$1081 <textPrint+0x11e>
    109e: a2 02        	ldx	#$2
    10a0: 86 01        	stx	$1                      ; 0x2001 <malloc+0x8b>
    10a2: a2 50        	ldx	#$50
    10a4: a0 11        	ldy	#$11
    10a6: 84 1c        	sty	$1c                     ; 0x201c <malloc+0xa6>
    10a8: a0 c9        	ldy	#$c9
    10aa: 84 1d        	sty	$1d                     ; 0x201d <malloc+0xa7>
    10ac: a0 10        	ldy	#$10
    10ae: 84 1e        	sty	$1e                     ; 0x201e <malloc+0xa8>
    10b0: a0 c9        	ldy	#$c9
    10b2: 84 1f        	sty	$1f                     ; 0x201f <malloc+0xa9>
    10b4: a9 20        	lda	#$20
    10b6: a4 1c        	ldy	$1c                     ; 0x201c <malloc+0xa6>
    10b8: 84 22        	sty	$22                     ; 0x2022 <malloc+0xac>
    10ba: a4 1d        	ldy	$1d                     ; 0x201d <malloc+0xa7>
    10bc: 84 23        	sty	$23                     ; 0x2023 <malloc+0xad>
    10be: 92 1e        	sta	($1e)                   ; 0x201e <malloc+0xa8>
    10c0: e6 1c        	inc	$1c                     ; 0x201c <malloc+0xa6>
    10c2: d0 02        	bne	$10c6 <textPrint+0x163>
    10c4: e6 1d        	inc	$1d                     ; 0x201d <malloc+0xa7>
    10c6: ca           	dex
    10c7: a4 22        	ldy	$22                     ; 0x2022 <malloc+0xac>
    10c9: 84 1e        	sty	$1e                     ; 0x201e <malloc+0xa8>
    10cb: a4 23        	ldy	$23                     ; 0x2023 <malloc+0xad>
    10cd: 84 1f        	sty	$1f                     ; 0x201f <malloc+0xa9>
    10cf: e0 00        	cpx	#$0
    10d1: d0 e3        	bne	$10b6 <textPrint+0x153>
    10d3: c6 31        	dec	$31                     ; 0x2031 <malloc+0xbb>
    10d5: 9c 08 de     	stz	$de08                   ; 0xde08 <__heap_start+0xb7f6>
    10d8: a2 c0        	ldx	#$c0
    10da: 8e 09 de     	stx	$de09                   ; 0xde09 <__heap_start+0xb7f7>
    10dd: 9c 0a de     	stz	$de0a                   ; 0xde0a <__heap_start+0xb7f8>
    10e0: 9c 0b de     	stz	$de0b                   ; 0xde0b <__heap_start+0xb7f9>
    10e3: a2 1d        	ldx	#$1d
    10e5: 8e 0c de     	stx	$de0c                   ; 0xde0c <__heap_start+0xb7fa>
    10e8: 9c 0d de     	stz	$de0d                   ; 0xde0d <__heap_start+0xb7fb>
    10eb: 9c 0e de     	stz	$de0e                   ; 0xde0e <__heap_start+0xb7fc>
    10ee: 9c 0f de     	stz	$de0f                   ; 0xde0f <__heap_start+0xb7fd>
    10f1: ae 18 de     	ldx	$de18                   ; 0xde18 <__heap_start+0xb806>
    10f4: ac 19 de     	ldy	$de19                   ; 0xde19 <__heap_start+0xb807>
    10f7: ad 1a de     	lda	$de1a                   ; 0xde1a <__heap_start+0xb808>
    10fa: ad 1b de     	lda	$de1b                   ; 0xde1b <__heap_start+0xb809>
    10fd: 86 1c        	stx	$1c                     ; 0x201c <malloc+0xa6>
    10ff: 84 1d        	sty	$1d                     ; 0x201d <malloc+0xa7>
    1101: 4c e0 0f     	jmp	$fe0 <textPrint+0x7d>
    1104: a6 96        	ldx	$96                     ; 0x2096 <malloc+0x120>
    1106: 86 01        	stx	$1                      ; 0x2001 <malloc+0x8b>
    1108: a6 30        	ldx	$30                     ; 0x2030 <malloc+0xba>
    110a: a4 31        	ldy	$31                     ; 0x2031 <malloc+0xbb>
    110c: 8e 14 d0     	stx	$d014                   ; 0xd014 <__heap_start+0xaa02>
    110f: 9c 15 d0     	stz	$d015                   ; 0xd015 <__heap_start+0xaa03>
    1112: 84 31        	sty	$31                     ; 0x2031 <malloc+0xbb>
    1114: 8c 16 d0     	sty	$d016                   ; 0xd016 <__heap_start+0xaa04>
    1117: 9c 17 d0     	stz	$d017                   ; 0xd017 <__heap_start+0xaa05>
    111a: 60           	rts

0000111b <textPrintUInt>:
    111b: 48           	pha
    111c: 18           	clc
    111d: a5 10        	lda	$10                     ; 0x2010 <malloc+0x9a>
    111f: 69 fe        	adc	#$fe
    1121: 85 10        	sta	$10                     ; 0x2010 <malloc+0x9a>
    1123: a5 11        	lda	$11                     ; 0x2011 <malloc+0x9b>
    1125: 69 ff        	adc	#$ff
    1127: 85 11        	sta	$11                     ; 0x2011 <malloc+0x9b>
    1129: 68           	pla
    112a: a4 24        	ldy	$24                     ; 0x2024 <malloc+0xae>
    112c: 5a           	phy
    112d: a4 25        	ldy	$25                     ; 0x2025 <malloc+0xaf>
    112f: 5a           	phy
    1130: a4 26        	ldy	$26                     ; 0x2026 <malloc+0xb0>
    1132: 5a           	phy
    1133: a4 27        	ldy	$27                     ; 0x2027 <malloc+0xb1>
    1135: 5a           	phy
    1136: 86 25        	stx	$25                     ; 0x2025 <malloc+0xaf>
    1138: a4 12        	ldy	$12                     ; 0x2012 <malloc+0x9c>
    113a: a6 13        	ldx	$13                     ; 0x2013 <malloc+0x9d>
    113c: d0 18        	bne	$1156 <textPrintUInt+0x3b>
    113e: 86 27        	stx	$27                     ; 0x2027 <malloc+0xb1>
    1140: c0 00        	cpy	#$0
    1142: f0 03        	beq	$1147 <textPrintUInt+0x2c>
    1144: 4c c6 11     	jmp	$11c6 <textPrintUInt+0xab>
    1147: a6 25        	ldx	$25                     ; 0x2025 <malloc+0xaf>
    1149: f0 03        	beq	$114e <textPrintUInt+0x33>
    114b: 4c cf 11     	jmp	$11cf <textPrintUInt+0xb4>
    114e: 84 26        	sty	$26                     ; 0x2026 <malloc+0xb0>
    1150: c9 0a        	cmp	#$a
    1152: b0 0a        	bcs	$115e <textPrintUInt+0x43>
    1154: 80 29        	bra	$117f <textPrintUInt+0x64>
    1156: 84 26        	sty	$26                     ; 0x2026 <malloc+0xb0>
    1158: 86 27        	stx	$27                     ; 0x2027 <malloc+0xb1>
    115a: e0 00        	cpx	#$0
    115c: 90 21        	bcc	$117f <textPrintUInt+0x64>
    115e: 8d 06 de     	sta	$de06                   ; 0xde06 <__heap_start+0xb7f4>
    1161: a4 25        	ldy	$25                     ; 0x2025 <malloc+0xaf>
    1163: 8c 07 de     	sty	$de07                   ; 0xde07 <__heap_start+0xb7f5>
    1166: a2 0a        	ldx	#$a
    1168: 8e 04 de     	stx	$de04                   ; 0xde04 <__heap_start+0xb7f2>
    116b: 9c 05 de     	stz	$de05                   ; 0xde05 <__heap_start+0xb7f3>
    116e: 85 24        	sta	$24                     ; 0x2024 <malloc+0xae>
    1170: ad 14 de     	lda	$de14                   ; 0xde14 <__heap_start+0xb802>
    1173: ae 15 de     	ldx	$de15                   ; 0xde15 <__heap_start+0xb803>
    1176: 64 12        	stz	$12                     ; 0x2012 <malloc+0x9c>
    1178: 64 13        	stz	$13                     ; 0x2013 <malloc+0x9d>
    117a: 20 1b 11     	jsr	$111b <textPrintUInt>
    117d: a5 24        	lda	$24                     ; 0x2024 <malloc+0xae>
    117f: a2 0a        	ldx	#$a
    1181: a4 26        	ldy	$26                     ; 0x2026 <malloc+0xb0>
    1183: 84 12        	sty	$12                     ; 0x2012 <malloc+0x9c>
    1185: a4 27        	ldy	$27                     ; 0x2027 <malloc+0xb1>
    1187: 84 13        	sty	$13                     ; 0x2013 <malloc+0x9d>
    1189: 86 14        	stx	$14                     ; 0x2014 <malloc+0x9e>
    118b: 64 15        	stz	$15                     ; 0x2015 <malloc+0x9f>
    118d: 64 16        	stz	$16                     ; 0x2016 <malloc+0xa0>
    118f: 64 17        	stz	$17                     ; 0x2017 <malloc+0xa1>
    1191: a6 25        	ldx	$25                     ; 0x2025 <malloc+0xaf>
    1193: 20 2f 23     	jsr	$232f <__umodsi3>
    1196: 09 30        	ora	#$30
    1198: 18           	clc
    1199: a6 10        	ldx	$10                     ; 0x2010 <malloc+0x9a>
    119b: 86 12        	stx	$12                     ; 0x2012 <malloc+0x9c>
    119d: a6 11        	ldx	$11                     ; 0x2011 <malloc+0x9b>
    119f: 86 13        	stx	$13                     ; 0x2013 <malloc+0x9d>
    11a1: 92 12        	sta	($12)                   ; 0x2012 <malloc+0x9c>
    11a3: a0 01        	ldy	#$1
    11a5: a9 00        	lda	#$0
    11a7: 91 12        	sta	($12),y                 ; 0x2012 <malloc+0x9c>
    11a9: 20 63 0f     	jsr	$f63 <textPrint>
    11ac: fa           	plx
    11ad: 86 27        	stx	$27                     ; 0x2027 <malloc+0xb1>
    11af: fa           	plx
    11b0: 86 26        	stx	$26                     ; 0x2026 <malloc+0xb0>
    11b2: fa           	plx
    11b3: 86 25        	stx	$25                     ; 0x2025 <malloc+0xaf>
    11b5: fa           	plx
    11b6: 86 24        	stx	$24                     ; 0x2024 <malloc+0xae>
    11b8: 18           	clc
    11b9: a5 10        	lda	$10                     ; 0x2010 <malloc+0x9a>
    11bb: 69 02        	adc	#$2
    11bd: 85 10        	sta	$10                     ; 0x2010 <malloc+0x9a>
    11bf: a5 11        	lda	$11                     ; 0x2011 <malloc+0x9b>
    11c1: 69 00        	adc	#$0
    11c3: 85 11        	sta	$11                     ; 0x2011 <malloc+0x9b>
    11c5: 60           	rts
    11c6: 84 26        	sty	$26                     ; 0x2026 <malloc+0xb0>
    11c8: c0 00        	cpy	#$0
    11ca: 90 b3        	bcc	$117f <textPrintUInt+0x64>
    11cc: 4c 5e 11     	jmp	$115e <textPrintUInt+0x43>
    11cf: 84 26        	sty	$26                     ; 0x2026 <malloc+0xb0>
    11d1: a6 25        	ldx	$25                     ; 0x2025 <malloc+0xaf>
    11d3: 4c 5a 11     	jmp	$115a <textPrintUInt+0x3f>

000011d6 <__putchar>:
    11d6: 85 32        	sta	$32                     ; 0x2032 <malloc+0xbc>
    11d8: a2 32        	ldx	#$32
    11da: 86 12        	stx	$12                     ; 0x2012 <malloc+0x9c>
    11dc: a2 00        	ldx	#$0
    11de: 86 13        	stx	$13                     ; 0x2013 <malloc+0x9d>
    11e0: 4c 63 0f     	jmp	$f63 <textPrint>

000011e3 <exit>:
    11e3: 20 14 03     	jsr	$314 <_fini>
    11e6: 80 fe        	bra	$11e6 <exit+0x3>

000011e8 <_ZN12_GLOBAL__N_13putEcP6Status>:
    11e8: 85 18        	sta	$18                     ; 0x2018 <malloc+0xa2>
    11ea: a6 13        	ldx	$13                     ; 0x2013 <malloc+0x9d>
    11ec: 18           	clc
    11ed: a5 12        	lda	$12                     ; 0x2012 <malloc+0x9c>
    11ef: 69 05        	adc	#$5
    11f1: a8           	tay
    11f2: a5 13        	lda	$13                     ; 0x2013 <malloc+0x9d>
    11f4: 86 15        	stx	$15                     ; 0x2015 <malloc+0x9f>
    11f6: 69 00        	adc	#$0
    11f8: 18           	clc
    11f9: 84 16        	sty	$16                     ; 0x2016 <malloc+0xa0>
    11fb: a0 05        	ldy	#$5
    11fd: 85 17        	sta	$17                     ; 0x2017 <malloc+0xa1>
    11ff: b1 12        	lda	($12),y                 ; 0x2012 <malloc+0x9c>
    1201: aa           	tax
    1202: a5 12        	lda	$12                     ; 0x2012 <malloc+0x9c>
    1204: 69 03        	adc	#$3
    1206: 85 14        	sta	$14                     ; 0x2014 <malloc+0x9e>
    1208: a5 15        	lda	$15                     ; 0x2015 <malloc+0x9f>
    120a: 69 00        	adc	#$0
    120c: 85 15        	sta	$15                     ; 0x2015 <malloc+0x9f>
    120e: a0 01        	ldy	#$1
    1210: b1 16        	lda	($16),y                 ; 0x2016 <malloc+0xa0>
    1212: d1 14        	cmp	($14),y                 ; 0x2014 <malloc+0x9e>
    1214: d0 11        	bne	$1227 <_ZN12_GLOBAL__N_13putEcP6Status+0x3f>
    1216: a0 03        	ldy	#$3
    1218: 85 17        	sta	$17                     ; 0x2017 <malloc+0xa1>
    121a: b1 12        	lda	($12),y                 ; 0x2012 <malloc+0x9c>
    121c: 85 14        	sta	$14                     ; 0x2014 <malloc+0x9e>
    121e: 86 16        	stx	$16                     ; 0x2016 <malloc+0xa0>
    1220: e4 14        	cpx	$14                     ; 0x2014 <malloc+0x9e>
    1222: 90 0e        	bcc	$1232 <_ZN12_GLOBAL__N_13putEcP6Status+0x4a>
    1224: 4c 91 12     	jmp	$1291 <_ZN12_GLOBAL__N_13putEcP6Status+0xa9>
    1227: 86 16        	stx	$16                     ; 0x2016 <malloc+0xa0>
    1229: d1 14        	cmp	($14),y                 ; 0x2014 <malloc+0x9e>
    122b: 85 17        	sta	$17                     ; 0x2017 <malloc+0xa1>
    122d: 90 03        	bcc	$1232 <_ZN12_GLOBAL__N_13putEcP6Status+0x4a>
    122f: 4c 91 12     	jmp	$1291 <_ZN12_GLOBAL__N_13putEcP6Status+0xa9>
    1232: a5 12        	lda	$12                     ; 0x2012 <malloc+0x9c>
    1234: 18           	clc
    1235: 69 0f        	adc	#$f
    1237: 85 14        	sta	$14                     ; 0x2014 <malloc+0x9e>
    1239: a5 13        	lda	$13                     ; 0x2013 <malloc+0x9d>
    123b: 69 00        	adc	#$0
    123d: 85 15        	sta	$15                     ; 0x2015 <malloc+0x9f>
    123f: a0 01        	ldy	#$1
    1241: b1 14        	lda	($14),y                 ; 0x2014 <malloc+0x9e>
    1243: a2 00        	ldx	#$0
    1245: 86 14        	stx	$14                     ; 0x2014 <malloc+0x9e>
    1247: a2 00        	ldx	#$0
    1249: 86 15        	stx	$15                     ; 0x2015 <malloc+0x9f>
    124b: c5 15        	cmp	$15                     ; 0x2015 <malloc+0x9f>
    124d: d0 2d        	bne	$127c <_ZN12_GLOBAL__N_13putEcP6Status+0x94>
    124f: a0 0f        	ldy	#$f
    1251: b1 12        	lda	($12),y                 ; 0x2012 <malloc+0x9c>
    1253: c5 14        	cmp	$14                     ; 0x2014 <malloc+0x9e>
    1255: d0 25        	bne	$127c <_ZN12_GLOBAL__N_13putEcP6Status+0x94>
    1257: a5 12        	lda	$12                     ; 0x2012 <malloc+0x9c>
    1259: 18           	clc
    125a: 69 09        	adc	#$9
    125c: 85 14        	sta	$14                     ; 0x2014 <malloc+0x9e>
    125e: a5 13        	lda	$13                     ; 0x2013 <malloc+0x9d>
    1260: 69 00        	adc	#$0
    1262: a0 09        	ldy	#$9
    1264: 85 15        	sta	$15                     ; 0x2015 <malloc+0x9f>
    1266: 18           	clc
    1267: a5 16        	lda	$16                     ; 0x2016 <malloc+0xa0>
    1269: 71 12        	adc	($12),y                 ; 0x2012 <malloc+0x9c>
    126b: aa           	tax
    126c: a0 01        	ldy	#$1
    126e: a5 17        	lda	$17                     ; 0x2017 <malloc+0xa1>
    1270: 71 14        	adc	($14),y                 ; 0x2014 <malloc+0x9e>
    1272: 86 14        	stx	$14                     ; 0x2014 <malloc+0x9e>
    1274: 85 15        	sta	$15                     ; 0x2015 <malloc+0x9f>
    1276: a5 18        	lda	$18                     ; 0x2018 <malloc+0xa2>
    1278: 92 14        	sta	($14)                   ; 0x2014 <malloc+0x9e>
    127a: 80 15        	bra	$1291 <_ZN12_GLOBAL__N_13putEcP6Status+0xa9>
    127c: a6 12        	ldx	$12                     ; 0x2012 <malloc+0x9c>
    127e: 86 94        	stx	$94                     ; 0x2094 <malloc+0x11e>
    1280: a6 13        	ldx	$13                     ; 0x2013 <malloc+0x9d>
    1282: 86 95        	stx	$95                     ; 0x2095 <malloc+0x11f>
    1284: a5 18        	lda	$18                     ; 0x2018 <malloc+0xa2>
    1286: 20 d6 11     	jsr	$11d6 <__putchar>
    1289: a6 94        	ldx	$94                     ; 0x2094 <malloc+0x11e>
    128b: 86 12        	stx	$12                     ; 0x2012 <malloc+0x9c>
    128d: a6 95        	ldx	$95                     ; 0x2095 <malloc+0x11f>
    128f: 86 13        	stx	$13                     ; 0x2013 <malloc+0x9d>
    1291: a0 05        	ldy	#$5
    1293: a5 12        	lda	$12                     ; 0x2012 <malloc+0x9c>
    1295: 18           	clc
    1296: 69 05        	adc	#$5
    1298: 85 14        	sta	$14                     ; 0x2014 <malloc+0x9e>
    129a: a5 13        	lda	$13                     ; 0x2013 <malloc+0x9d>
    129c: 69 00        	adc	#$0
    129e: 85 15        	sta	$15                     ; 0x2015 <malloc+0x9f>
    12a0: b1 12        	lda	($12),y                 ; 0x2012 <malloc+0x9c>
    12a2: aa           	tax
    12a3: a0 01        	ldy	#$1
    12a5: b1 14        	lda	($14),y                 ; 0x2014 <malloc+0x9e>
    12a7: e8           	inx
    12a8: d0 01        	bne	$12ab <_ZN12_GLOBAL__N_13putEcP6Status+0xc3>
    12aa: 1a           	inc
    12ab: 85 16        	sta	$16                     ; 0x2016 <malloc+0xa0>
    12ad: 8a           	txa
    12ae: a0 05        	ldy	#$5
    12b0: 91 12        	sta	($12),y                 ; 0x2012 <malloc+0x9c>
    12b2: a0 01        	ldy	#$1
    12b4: a5 16        	lda	$16                     ; 0x2016 <malloc+0xa0>
    12b6: 91 14        	sta	($14),y                 ; 0x2014 <malloc+0x9e>
    12b8: 60           	rts

000012b9 <_ZN12_GLOBAL__N_112print_stringEPKcP6Status>:
    12b9: a6 12        	ldx	$12                     ; 0x2012 <malloc+0x9c>
    12bb: 86 8c        	stx	$8c                     ; 0x208c <malloc+0x116>
    12bd: a6 13        	ldx	$13                     ; 0x2013 <malloc+0x9d>
    12bf: 86 8d        	stx	$8d                     ; 0x208d <malloc+0x117>
    12c1: a6 14        	ldx	$14                     ; 0x2014 <malloc+0x9e>
    12c3: 86 8e        	stx	$8e                     ; 0x208e <malloc+0x118>
    12c5: a6 15        	ldx	$15                     ; 0x2015 <malloc+0x9f>
    12c7: 86 8f        	stx	$8f                     ; 0x208f <malloc+0x119>
    12c9: a5 8e        	lda	$8e                     ; 0x208e <malloc+0x118>
    12cb: 18           	clc
    12cc: 69 0d        	adc	#$d
    12ce: 85 12        	sta	$12                     ; 0x2012 <malloc+0x9c>
    12d0: a5 8f        	lda	$8f                     ; 0x208f <malloc+0x119>
    12d2: 69 00        	adc	#$0
    12d4: 85 13        	sta	$13                     ; 0x2013 <malloc+0x9d>
    12d6: a0 01        	ldy	#$1
    12d8: b1 12        	lda	($12),y                 ; 0x2012 <malloc+0x9c>
    12da: 30 16        	bmi	$12f2 <_ZN12_GLOBAL__N_112print_stringEPKcP6Status+0x39>
    12dc: a0 0d        	ldy	#$d
    12de: 85 12        	sta	$12                     ; 0x2012 <malloc+0x9c>
    12e0: b1 8e        	lda	($8e),y                 ; 0x208e <malloc+0x118>
    12e2: a6 12        	ldx	$12                     ; 0x2012 <malloc+0x9c>
    12e4: 86 93        	stx	$93                     ; 0x2093 <malloc+0x11d>
    12e6: d0 0f        	bne	$12f7 <_ZN12_GLOBAL__N_112print_stringEPKcP6Status+0x3e>
    12e8: aa           	tax
    12e9: d0 0c        	bne	$12f7 <_ZN12_GLOBAL__N_112print_stringEPKcP6Status+0x3e>
    12eb: 64 90        	stz	$90                     ; 0x2090 <malloc+0x11a>
    12ed: a2 00        	ldx	#$0
    12ef: 4c c1 13     	jmp	$13c1 <_ZN12_GLOBAL__N_112print_stringEPKcP6Status+0x108>
    12f2: a9 ff        	lda	#$ff
    12f4: aa           	tax
    12f5: 86 93        	stx	$93                     ; 0x2093 <malloc+0x11d>
    12f7: 85 90        	sta	$90                     ; 0x2090 <malloc+0x11a>
    12f9: 64 12        	stz	$12                     ; 0x2012 <malloc+0x9c>
    12fb: a4 8c        	ldy	$8c                     ; 0x208c <malloc+0x116>
    12fd: a6 8d        	ldx	$8d                     ; 0x208d <malloc+0x117>
    12ff: 86 16        	stx	$16                     ; 0x2016 <malloc+0xa0>
    1301: 64 13        	stz	$13                     ; 0x2013 <malloc+0x9d>
    1303: 98           	tya
    1304: 18           	clc
    1305: 65 12        	adc	$12                     ; 0x2012 <malloc+0x9c>
    1307: 85 14        	sta	$14                     ; 0x2014 <malloc+0x9e>
    1309: a5 8d        	lda	$8d                     ; 0x208d <malloc+0x117>
    130b: 65 13        	adc	$13                     ; 0x2013 <malloc+0x9d>
    130d: 85 15        	sta	$15                     ; 0x2015 <malloc+0x9f>
    130f: b2 14        	lda	($14)                   ; 0x2014 <malloc+0x9e>
    1311: d0 03        	bne	$1316 <_ZN12_GLOBAL__N_112print_stringEPKcP6Status+0x5d>
    1313: 4c bb 13     	jmp	$13bb <_ZN12_GLOBAL__N_112print_stringEPKcP6Status+0x102>
    1316: e6 12        	inc	$12                     ; 0x2012 <malloc+0x9c>
    1318: d0 02        	bne	$131c <_ZN12_GLOBAL__N_112print_stringEPKcP6Status+0x63>
    131a: e6 13        	inc	$13                     ; 0x2013 <malloc+0x9d>
    131c: a6 93        	ldx	$93                     ; 0x2093 <malloc+0x11d>
    131e: e4 13        	cpx	$13                     ; 0x2013 <malloc+0x9d>
    1320: d0 e1        	bne	$1303 <_ZN12_GLOBAL__N_112print_stringEPKcP6Status+0x4a>
    1322: a6 90        	ldx	$90                     ; 0x2090 <malloc+0x11a>
    1324: e4 12        	cpx	$12                     ; 0x2012 <malloc+0x9c>
    1326: d0 db        	bne	$1303 <_ZN12_GLOBAL__N_112print_stringEPKcP6Status+0x4a>
    1328: a0 01        	ldy	#$1
    132a: 98           	tya
    132b: 31 8e        	and	($8e),y                 ; 0x208e <malloc+0x118>
    132d: 29 01        	and	#$1
    132f: f0 03        	beq	$1334 <_ZN12_GLOBAL__N_112print_stringEPKcP6Status+0x7b>
    1331: 4c 8c 13     	jmp	$138c <_ZN12_GLOBAL__N_112print_stringEPKcP6Status+0xd3>
    1334: a0 0b        	ldy	#$b
    1336: a5 8e        	lda	$8e                     ; 0x208e <malloc+0x118>
    1338: 18           	clc
    1339: 69 0b        	adc	#$b
    133b: 85 14        	sta	$14                     ; 0x2014 <malloc+0x9e>
    133d: a5 8f        	lda	$8f                     ; 0x208f <malloc+0x119>
    133f: 69 00        	adc	#$0
    1341: 85 15        	sta	$15                     ; 0x2015 <malloc+0x9f>
    1343: b1 8e        	lda	($8e),y                 ; 0x208e <malloc+0x118>
    1345: 85 12        	sta	$12                     ; 0x2012 <malloc+0x9c>
    1347: a0 01        	ldy	#$1
    1349: b1 14        	lda	($14),y                 ; 0x2014 <malloc+0x9e>
    134b: 85 13        	sta	$13                     ; 0x2013 <malloc+0x9d>
    134d: a6 93        	ldx	$93                     ; 0x2093 <malloc+0x11d>
    134f: e4 13        	cpx	$13                     ; 0x2013 <malloc+0x9d>
    1351: d0 08        	bne	$135b <_ZN12_GLOBAL__N_112print_stringEPKcP6Status+0xa2>
    1353: a6 90        	ldx	$90                     ; 0x2090 <malloc+0x11a>
    1355: e4 12        	cpx	$12                     ; 0x2012 <malloc+0x9c>
    1357: 90 06        	bcc	$135f <_ZN12_GLOBAL__N_112print_stringEPKcP6Status+0xa6>
    1359: 80 31        	bra	$138c <_ZN12_GLOBAL__N_112print_stringEPKcP6Status+0xd3>
    135b: e4 13        	cpx	$13                     ; 0x2013 <malloc+0x9d>
    135d: b0 2d        	bcs	$138c <_ZN12_GLOBAL__N_112print_stringEPKcP6Status+0xd3>
    135f: 38           	sec
    1360: a5 90        	lda	$90                     ; 0x2090 <malloc+0x11a>
    1362: e5 12        	sbc	$12                     ; 0x2012 <malloc+0x9c>
    1364: a8           	tay
    1365: a5 93        	lda	$93                     ; 0x2093 <malloc+0x11d>
    1367: e5 13        	sbc	$13                     ; 0x2013 <malloc+0x9d>
    1369: 85 92        	sta	$92                     ; 0x2092 <malloc+0x11c>
    136b: a6 8e        	ldx	$8e                     ; 0x208e <malloc+0x118>
    136d: 86 12        	stx	$12                     ; 0x2012 <malloc+0x9c>
    136f: a6 8f        	ldx	$8f                     ; 0x208f <malloc+0x119>
    1371: 86 13        	stx	$13                     ; 0x2013 <malloc+0x9d>
    1373: 84 91        	sty	$91                     ; 0x2091 <malloc+0x11b>
    1375: a9 20        	lda	#$20
    1377: 20 e8 11     	jsr	$11e8 <_ZN12_GLOBAL__N_13putEcP6Status>
    137a: a6 92        	ldx	$92                     ; 0x2092 <malloc+0x11c>
    137c: e6 91        	inc	$91                     ; 0x2091 <malloc+0x11b>
    137e: d0 01        	bne	$1381 <_ZN12_GLOBAL__N_112print_stringEPKcP6Status+0xc8>
    1380: e8           	inx
    1381: 86 92        	stx	$92                     ; 0x2092 <malloc+0x11c>
    1383: a4 91        	ldy	$91                     ; 0x2091 <malloc+0x11b>
    1385: 8a           	txa
    1386: d0 e3        	bne	$136b <_ZN12_GLOBAL__N_112print_stringEPKcP6Status+0xb2>
    1388: a5 91        	lda	$91                     ; 0x2091 <malloc+0x11b>
    138a: d0 df        	bne	$136b <_ZN12_GLOBAL__N_112print_stringEPKcP6Status+0xb2>
    138c: a4 93        	ldy	$93                     ; 0x2093 <malloc+0x11d>
    138e: d0 04        	bne	$1394 <_ZN12_GLOBAL__N_112print_stringEPKcP6Status+0xdb>
    1390: a5 90        	lda	$90                     ; 0x2090 <malloc+0x11a>
    1392: f0 26        	beq	$13ba <_ZN12_GLOBAL__N_112print_stringEPKcP6Status+0x101>
    1394: a2 ff        	ldx	#$ff
    1396: c6 90        	dec	$90                     ; 0x2090 <malloc+0x11a>
    1398: e4 90        	cpx	$90                     ; 0x2090 <malloc+0x11a>
    139a: d0 01        	bne	$139d <_ZN12_GLOBAL__N_112print_stringEPKcP6Status+0xe4>
    139c: 88           	dey
    139d: 84 91        	sty	$91                     ; 0x2091 <malloc+0x11b>
    139f: b2 8c        	lda	($8c)                   ; 0x208c <malloc+0x116>
    13a1: e6 8c        	inc	$8c                     ; 0x208c <malloc+0x116>
    13a3: d0 02        	bne	$13a7 <_ZN12_GLOBAL__N_112print_stringEPKcP6Status+0xee>
    13a5: e6 8d        	inc	$8d                     ; 0x208d <malloc+0x117>
    13a7: a6 8e        	ldx	$8e                     ; 0x208e <malloc+0x118>
    13a9: 86 12        	stx	$12                     ; 0x2012 <malloc+0x9c>
    13ab: a6 8f        	ldx	$8f                     ; 0x208f <malloc+0x119>
    13ad: 86 13        	stx	$13                     ; 0x2013 <malloc+0x9d>
    13af: 20 e8 11     	jsr	$11e8 <_ZN12_GLOBAL__N_13putEcP6Status>
    13b2: a4 91        	ldy	$91                     ; 0x2091 <malloc+0x11b>
    13b4: d0 de        	bne	$1394 <_ZN12_GLOBAL__N_112print_stringEPKcP6Status+0xdb>
    13b6: a5 90        	lda	$90                     ; 0x2090 <malloc+0x11a>
    13b8: d0 da        	bne	$1394 <_ZN12_GLOBAL__N_112print_stringEPKcP6Status+0xdb>
    13ba: 60           	rts
    13bb: a6 12        	ldx	$12                     ; 0x2012 <malloc+0x9c>
    13bd: 86 90        	stx	$90                     ; 0x2090 <malloc+0x11a>
    13bf: a6 13        	ldx	$13                     ; 0x2013 <malloc+0x9d>
    13c1: 86 93        	stx	$93                     ; 0x2093 <malloc+0x11d>
    13c3: 4c 28 13     	jmp	$1328 <_ZN12_GLOBAL__N_112print_stringEPKcP6Status+0x6f>

000013c6 <printf>:
    13c6: a6 12        	ldx	$12                     ; 0x2012 <malloc+0x9c>
    13c8: 86 41        	stx	$41                     ; 0x2041 <malloc+0xcb>
    13ca: a6 13        	ldx	$13                     ; 0x2013 <malloc+0x9d>
    13cc: 86 42        	stx	$42                     ; 0x2042 <malloc+0xcc>
    13ce: 18           	clc
    13cf: a6 10        	ldx	$10                     ; 0x2010 <malloc+0x9a>
    13d1: a4 11        	ldy	$11                     ; 0x2011 <malloc+0x9b>
    13d3: 86 82        	stx	$82                     ; 0x2082 <malloc+0x10c>
    13d5: 84 83        	sty	$83                     ; 0x2083 <malloc+0x10d>
    13d7: a6 82        	ldx	$82                     ; 0x2082 <malloc+0x10c>
    13d9: a4 83        	ldy	$83                     ; 0x2083 <malloc+0x10d>
    13db: 86 6d        	stx	$6d                     ; 0x206d <malloc+0xf7>
    13dd: 84 6e        	sty	$6e                     ; 0x206e <malloc+0xf8>
    13df: a2 ff        	ldx	#$ff
    13e1: 86 72        	stx	$72                     ; 0x2072 <malloc+0xfc>
    13e3: 86 73        	stx	$73                     ; 0x2073 <malloc+0xfd>
    13e5: 64 74        	stz	$74                     ; 0x2074 <malloc+0xfe>
    13e7: 64 75        	stz	$75                     ; 0x2075 <malloc+0xff>
    13e9: e8           	inx
    13ea: 86 43        	stx	$43                     ; 0x2043 <malloc+0xcd>
    13ec: a2 00        	ldx	#$0
    13ee: 86 44        	stx	$44                     ; 0x2044 <malloc+0xce>
    13f0: a6 43        	ldx	$43                     ; 0x2043 <malloc+0xcd>
    13f2: a4 44        	ldy	$44                     ; 0x2044 <malloc+0xce>
    13f4: 86 78        	stx	$78                     ; 0x2078 <malloc+0x102>
    13f6: 84 79        	sty	$79                     ; 0x2079 <malloc+0x103>
    13f8: a2 02        	ldx	#$2
    13fa: 86 7e        	stx	$7e                     ; 0x207e <malloc+0x108>
    13fc: 64 7f        	stz	$7f                     ; 0x207f <malloc+0x109>
    13fe: a6 6d        	ldx	$6d                     ; 0x206d <malloc+0xf7>
    1400: a4 6e        	ldy	$6e                     ; 0x206e <malloc+0xf8>
    1402: 86 80        	stx	$80                     ; 0x2080 <malloc+0x10a>
    1404: 84 81        	sty	$81                     ; 0x2081 <malloc+0x10b>
    1406: a2 64        	ldx	#$64
    1408: a0 00        	ldy	#$0
    140a: 86 12        	stx	$12                     ; 0x2012 <malloc+0x9c>
    140c: 84 13        	sty	$13                     ; 0x2013 <malloc+0x9d>
    140e: a0 01        	ldy	#$1
    1410: a9 4b        	lda	#$4b
    1412: 18           	clc
    1413: 69 02        	adc	#$2
    1415: 85 8a        	sta	$8a                     ; 0x208a <malloc+0x114>
    1417: a9 00        	lda	#$0
    1419: 69 00        	adc	#$0
    141b: 85 8b        	sta	$8b                     ; 0x208b <malloc+0x115>
    141d: e6 12        	inc	$12                     ; 0x2012 <malloc+0x9c>
    141f: d0 02        	bne	$1423 <printf+0x5d>
    1421: e6 13        	inc	$13                     ; 0x2013 <malloc+0x9d>
    1423: a6 12        	ldx	$12                     ; 0x2012 <malloc+0x9c>
    1425: 86 87        	stx	$87                     ; 0x2087 <malloc+0x111>
    1427: a6 13        	ldx	$13                     ; 0x2013 <malloc+0x9d>
    1429: 86 88        	stx	$88                     ; 0x2088 <malloc+0x112>
    142b: a6 41        	ldx	$41                     ; 0x2041 <malloc+0xcb>
    142d: 86 45        	stx	$45                     ; 0x2045 <malloc+0xcf>
    142f: a6 42        	ldx	$42                     ; 0x2042 <malloc+0xcc>
    1431: 86 46        	stx	$46                     ; 0x2046 <malloc+0xd0>
    1433: b2 41        	lda	($41)                   ; 0x2041 <malloc+0xcb>
    1435: c9 25        	cmp	#$25
    1437: f0 21        	beq	$145a <printf+0x94>
    1439: aa           	tax
    143a: d0 03        	bne	$143f <printf+0x79>
    143c: 4c 75 1f     	jmp	$1f75 <printf+0xbaf>
    143f: 20 d6 11     	jsr	$11d6 <__putchar>
    1442: a0 01        	ldy	#$1
    1444: e6 45        	inc	$45                     ; 0x2045 <malloc+0xcf>
    1446: d0 02        	bne	$144a <printf+0x84>
    1448: e6 46        	inc	$46                     ; 0x2046 <malloc+0xd0>
    144a: e6 74        	inc	$74                     ; 0x2074 <malloc+0xfe>
    144c: d0 02        	bne	$1450 <printf+0x8a>
    144e: e6 75        	inc	$75                     ; 0x2075 <malloc+0xff>
    1450: a6 45        	ldx	$45                     ; 0x2045 <malloc+0xcf>
    1452: 86 41        	stx	$41                     ; 0x2041 <malloc+0xcb>
    1454: a6 46        	ldx	$46                     ; 0x2046 <malloc+0xd0>
    1456: 86 42        	stx	$42                     ; 0x2042 <malloc+0xcc>
    1458: 80 d1        	bra	$142b <printf+0x65>
    145a: a6 41        	ldx	$41                     ; 0x2041 <malloc+0xcb>
    145c: 86 12        	stx	$12                     ; 0x2012 <malloc+0x9c>
    145e: a6 42        	ldx	$42                     ; 0x2042 <malloc+0xcc>
    1460: 86 13        	stx	$13                     ; 0x2013 <malloc+0x9d>
    1462: e6 12        	inc	$12                     ; 0x2012 <malloc+0x9c>
    1464: d0 02        	bne	$1468 <printf+0xa2>
    1466: e6 13        	inc	$13                     ; 0x2013 <malloc+0x9d>
    1468: b1 45        	lda	($45),y                 ; 0x2045 <malloc+0xcf>
    146a: c9 25        	cmp	#$25
    146c: d0 16        	bne	$1484 <printf+0xbe>
    146e: a4 74        	ldy	$74                     ; 0x2074 <malloc+0xfe>
    1470: a5 75        	lda	$75                     ; 0x2075 <malloc+0xff>
    1472: c5 73        	cmp	$73                     ; 0x2073 <malloc+0xfd>
    1474: f0 03        	beq	$1479 <printf+0xb3>
    1476: 4c 8a 15     	jmp	$158a <printf+0x1c4>
    1479: a6 72        	ldx	$72                     ; 0x2072 <malloc+0xfc>
    147b: 86 12        	stx	$12                     ; 0x2012 <malloc+0x9c>
    147d: 84 13        	sty	$13                     ; 0x2013 <malloc+0x9d>
    147f: c4 12        	cpy	$12                     ; 0x2012 <malloc+0x9c>
    1481: 4c 8e 15     	jmp	$158e <printf+0x1c8>
    1484: 64 70        	stz	$70                     ; 0x2070 <malloc+0xfa>
    1486: 64 71        	stz	$71                     ; 0x2071 <malloc+0xfb>
    1488: 64 6f        	stz	$6f                     ; 0x206f <malloc+0xf9>
    148a: 64 7a        	stz	$7a                     ; 0x207a <malloc+0x104>
    148c: 64 7b        	stz	$7b                     ; 0x207b <malloc+0x105>
    148e: a2 ff        	ldx	#$ff
    1490: 86 7c        	stx	$7c                     ; 0x207c <malloc+0x106>
    1492: 86 7d        	stx	$7d                     ; 0x207d <malloc+0x107>
    1494: 64 40        	stz	$40                     ; 0x2040 <malloc+0xca>
    1496: 80 33        	bra	$14cb <printf+0x105>
    1498: a2 02        	ldx	#$2
    149a: 80 15        	bra	$14b1 <printf+0xeb>
    149c: e0 20        	cpx	#$20
    149e: f0 15        	beq	$14b5 <printf+0xef>
    14a0: 86 15        	stx	$15                     ; 0x2015 <malloc+0x9f>
    14a2: e0 23        	cpx	#$23
    14a4: f0 03        	beq	$14a9 <printf+0xe3>
    14a6: 4c 28 15     	jmp	$1528 <printf+0x162>
    14a9: a5 40        	lda	$40                     ; 0x2040 <malloc+0xca>
    14ab: a2 04        	ldx	#$4
    14ad: 80 02        	bra	$14b1 <printf+0xeb>
    14af: a2 10        	ldx	#$10
    14b1: 86 14        	stx	$14                     ; 0x2014 <malloc+0x9e>
    14b3: 80 06        	bra	$14bb <printf+0xf5>
    14b5: a2 08        	ldx	#$8
    14b7: 86 14        	stx	$14                     ; 0x2014 <malloc+0x9e>
    14b9: a5 40        	lda	$40                     ; 0x2040 <malloc+0xca>
    14bb: 05 14        	ora	$14                     ; 0x2014 <malloc+0x9e>
    14bd: 85 40        	sta	$40                     ; 0x2040 <malloc+0xca>
    14bf: 85 70        	sta	$70                     ; 0x2070 <malloc+0xfa>
    14c1: a2 00        	ldx	#$0
    14c3: 86 71        	stx	$71                     ; 0x2071 <malloc+0xfb>
    14c5: e6 12        	inc	$12                     ; 0x2012 <malloc+0x9c>
    14c7: d0 02        	bne	$14cb <printf+0x105>
    14c9: e6 13        	inc	$13                     ; 0x2013 <malloc+0x9d>
    14cb: b2 12        	lda	($12)                   ; 0x2012 <malloc+0x9c>
    14cd: aa           	tax
    14ce: 38           	sec
    14cf: e9 2a        	sbc	#$2a
    14d1: c9 07        	cmp	#$7
    14d3: b0 c7        	bcs	$149c <printf+0xd6>
    14d5: 86 15        	stx	$15                     ; 0x2015 <malloc+0x9f>
    14d7: 0a           	asl
    14d8: aa           	tax
    14d9: a0 01        	ldy	#$1
    14db: 84 14        	sty	$14                     ; 0x2014 <malloc+0x9e>
    14dd: a5 40        	lda	$40                     ; 0x2040 <malloc+0xca>
    14df: 7c 77 24     	jmp	($2477,x)               ; 0x2477 <__set_v+0x1>
    14e2: a5 80        	lda	$80                     ; 0x2080 <malloc+0x10a>
    14e4: a6 81        	ldx	$81                     ; 0x2081 <malloc+0x10b>
    14e6: 85 16        	sta	$16                     ; 0x2016 <malloc+0xa0>
    14e8: 86 17        	stx	$17                     ; 0x2017 <malloc+0xa1>
    14ea: 18           	clc
    14eb: 69 02        	adc	#$2
    14ed: a8           	tay
    14ee: 8a           	txa
    14ef: 69 00        	adc	#$0
    14f1: 84 80        	sty	$80                     ; 0x2080 <malloc+0x10a>
    14f3: 85 81        	sta	$81                     ; 0x2081 <malloc+0x10b>
    14f5: b2 16        	lda	($16)                   ; 0x2016 <malloc+0xa0>
    14f7: 85 15        	sta	$15                     ; 0x2015 <malloc+0x9f>
    14f9: a0 01        	ldy	#$1
    14fb: b1 16        	lda	($16),y                 ; 0x2016 <malloc+0xa0>
    14fd: 85 14        	sta	$14                     ; 0x2014 <malloc+0x9e>
    14ff: 10 15        	bpl	$1516 <printf+0x150>
    1501: a5 40        	lda	$40                     ; 0x2040 <malloc+0xca>
    1503: 09 01        	ora	#$1
    1505: 85 40        	sta	$40                     ; 0x2040 <malloc+0xca>
    1507: 85 70        	sta	$70                     ; 0x2070 <malloc+0xfa>
    1509: a2 00        	ldx	#$0
    150b: 86 71        	stx	$71                     ; 0x2071 <malloc+0xfb>
    150d: 8a           	txa
    150e: 38           	sec
    150f: e5 15        	sbc	$15                     ; 0x2015 <malloc+0x9f>
    1511: 85 15        	sta	$15                     ; 0x2015 <malloc+0x9f>
    1513: 8a           	txa
    1514: e5 14        	sbc	$14                     ; 0x2014 <malloc+0x9e>
    1516: a6 15        	ldx	$15                     ; 0x2015 <malloc+0x9f>
    1518: 86 7a        	stx	$7a                     ; 0x207a <malloc+0x104>
    151a: 85 7b        	sta	$7b                     ; 0x207b <malloc+0x105>
    151c: e6 12        	inc	$12                     ; 0x2012 <malloc+0x9c>
    151e: f0 03        	beq	$1523 <printf+0x15d>
    1520: 4c dc 15     	jmp	$15dc <printf+0x216>
    1523: e6 13        	inc	$13                     ; 0x2013 <malloc+0x9d>
    1525: 4c dc 15     	jmp	$15dc <printf+0x216>
    1528: a5 15        	lda	$15                     ; 0x2015 <malloc+0x9f>
    152a: 18           	clc
    152b: 69 d0        	adc	#$d0
    152d: c9 0a        	cmp	#$a
    152f: 90 03        	bcc	$1534 <printf+0x16e>
    1531: 4c ce 15     	jmp	$15ce <printf+0x208>
    1534: a6 15        	ldx	$15                     ; 0x2015 <malloc+0x9f>
    1536: 86 14        	stx	$14                     ; 0x2014 <malloc+0x9e>
    1538: 64 16        	stz	$16                     ; 0x2016 <malloc+0xa0>
    153a: 64 15        	stz	$15                     ; 0x2015 <malloc+0x9f>
    153c: 64 17        	stz	$17                     ; 0x2017 <malloc+0xa1>
    153e: a0 01        	ldy	#$1
    1540: 06 16        	asl	$16                     ; 0x2016 <malloc+0xa0>
    1542: 26 17        	rol	$17                     ; 0x2017 <malloc+0xa1>
    1544: a5 16        	lda	$16                     ; 0x2016 <malloc+0xa0>
    1546: 0a           	asl
    1547: aa           	tax
    1548: a5 17        	lda	$17                     ; 0x2017 <malloc+0xa1>
    154a: 2a           	rol
    154b: 86 18        	stx	$18                     ; 0x2018 <malloc+0xa2>
    154d: 06 18        	asl	$18                     ; 0x2018 <malloc+0xa2>
    154f: 2a           	rol
    1550: aa           	tax
    1551: a5 18        	lda	$18                     ; 0x2018 <malloc+0xa2>
    1553: 18           	clc
    1554: 65 16        	adc	$16                     ; 0x2016 <malloc+0xa0>
    1556: 85 16        	sta	$16                     ; 0x2016 <malloc+0xa0>
    1558: 8a           	txa
    1559: 65 17        	adc	$17                     ; 0x2017 <malloc+0xa1>
    155b: 85 17        	sta	$17                     ; 0x2017 <malloc+0xa1>
    155d: a5 16        	lda	$16                     ; 0x2016 <malloc+0xa0>
    155f: 18           	clc
    1560: 65 14        	adc	$14                     ; 0x2014 <malloc+0x9e>
    1562: 85 14        	sta	$14                     ; 0x2014 <malloc+0x9e>
    1564: a5 17        	lda	$17                     ; 0x2017 <malloc+0xa1>
    1566: 65 15        	adc	$15                     ; 0x2015 <malloc+0x9f>
    1568: aa           	tax
    1569: 18           	clc
    156a: a5 14        	lda	$14                     ; 0x2014 <malloc+0x9e>
    156c: 69 d0        	adc	#$d0
    156e: 85 16        	sta	$16                     ; 0x2016 <malloc+0xa0>
    1570: 8a           	txa
    1571: 69 ff        	adc	#$ff
    1573: 85 17        	sta	$17                     ; 0x2017 <malloc+0xa1>
    1575: b1 12        	lda	($12),y                 ; 0x2012 <malloc+0x9c>
    1577: 85 14        	sta	$14                     ; 0x2014 <malloc+0x9e>
    1579: 18           	clc
    157a: 69 d0        	adc	#$d0
    157c: e6 12        	inc	$12                     ; 0x2012 <malloc+0x9c>
    157e: d0 02        	bne	$1582 <printf+0x1bc>
    1580: e6 13        	inc	$13                     ; 0x2013 <malloc+0x9d>
    1582: c9 0a        	cmp	#$a
    1584: 64 15        	stz	$15                     ; 0x2015 <malloc+0x9f>
    1586: 90 b8        	bcc	$1540 <printf+0x17a>
    1588: 80 4a        	bra	$15d4 <printf+0x20e>
    158a: 84 13        	sty	$13                     ; 0x2013 <malloc+0x9d>
    158c: c5 73        	cmp	$73                     ; 0x2073 <malloc+0xfd>
    158e: a0 01        	ldy	#$1
    1590: b0 26        	bcs	$15b8 <printf+0x1f2>
    1592: a6 7f        	ldx	$7f                     ; 0x207f <malloc+0x109>
    1594: e4 44        	cpx	$44                     ; 0x2044 <malloc+0xce>
    1596: d0 19        	bne	$15b1 <printf+0x1eb>
    1598: a6 7e        	ldx	$7e                     ; 0x207e <malloc+0x108>
    159a: e4 43        	cpx	$43                     ; 0x2043 <malloc+0xcd>
    159c: d0 13        	bne	$15b1 <printf+0x1eb>
    159e: 18           	clc
    159f: aa           	tax
    15a0: a5 13        	lda	$13                     ; 0x2013 <malloc+0x9d>
    15a2: 65 78        	adc	$78                     ; 0x2078 <malloc+0x102>
    15a4: 85 12        	sta	$12                     ; 0x2012 <malloc+0x9c>
    15a6: 8a           	txa
    15a7: 65 79        	adc	$79                     ; 0x2079 <malloc+0x103>
    15a9: 85 13        	sta	$13                     ; 0x2013 <malloc+0x9d>
    15ab: a9 25        	lda	#$25
    15ad: 92 12        	sta	($12)                   ; 0x2012 <malloc+0x9c>
    15af: 80 07        	bra	$15b8 <printf+0x1f2>
    15b1: a9 25        	lda	#$25
    15b3: 20 d6 11     	jsr	$11d6 <__putchar>
    15b6: a0 01        	ldy	#$1
    15b8: e6 74        	inc	$74                     ; 0x2074 <malloc+0xfe>
    15ba: d0 02        	bne	$15be <printf+0x1f8>
    15bc: e6 75        	inc	$75                     ; 0x2075 <malloc+0xff>
    15be: a5 45        	lda	$45                     ; 0x2045 <malloc+0xcf>
    15c0: 18           	clc
    15c1: 69 02        	adc	#$2
    15c3: 85 41        	sta	$41                     ; 0x2041 <malloc+0xcb>
    15c5: a5 46        	lda	$46                     ; 0x2046 <malloc+0xd0>
    15c7: 69 00        	adc	#$0
    15c9: 85 42        	sta	$42                     ; 0x2042 <malloc+0xcc>
    15cb: 4c 2b 14     	jmp	$142b <printf+0x65>
    15ce: 64 16        	stz	$16                     ; 0x2016 <malloc+0xa0>
    15d0: 64 17        	stz	$17                     ; 0x2017 <malloc+0xa1>
    15d2: a0 01        	ldy	#$1
    15d4: a6 16        	ldx	$16                     ; 0x2016 <malloc+0xa0>
    15d6: 86 7a        	stx	$7a                     ; 0x207a <malloc+0x104>
    15d8: a5 17        	lda	$17                     ; 0x2017 <malloc+0xa1>
    15da: 85 7b        	sta	$7b                     ; 0x207b <malloc+0x105>
    15dc: 86 49        	stx	$49                     ; 0x2049 <malloc+0xd3>
    15de: 85 47        	sta	$47                     ; 0x2047 <malloc+0xd1>
    15e0: b2 12        	lda	($12)                   ; 0x2012 <malloc+0x9c>
    15e2: a2 ff        	ldx	#$ff
    15e4: c9 2e        	cmp	#$2e
    15e6: d0 39        	bne	$1621 <printf+0x25b>
    15e8: b1 12        	lda	($12),y                 ; 0x2012 <malloc+0x9c>
    15ea: c9 2a        	cmp	#$2a
    15ec: d0 38        	bne	$1626 <printf+0x260>
    15ee: a5 80        	lda	$80                     ; 0x2080 <malloc+0x10a>
    15f0: a6 81        	ldx	$81                     ; 0x2081 <malloc+0x10b>
    15f2: 85 14        	sta	$14                     ; 0x2014 <malloc+0x9e>
    15f4: 86 15        	stx	$15                     ; 0x2015 <malloc+0x9f>
    15f6: 18           	clc
    15f7: 69 02        	adc	#$2
    15f9: 85 16        	sta	$16                     ; 0x2016 <malloc+0xa0>
    15fb: 8a           	txa
    15fc: 69 00        	adc	#$0
    15fe: a6 16        	ldx	$16                     ; 0x2016 <malloc+0xa0>
    1600: 86 80        	stx	$80                     ; 0x2080 <malloc+0x10a>
    1602: 85 81        	sta	$81                     ; 0x2081 <malloc+0x10b>
    1604: a5 12        	lda	$12                     ; 0x2012 <malloc+0x9c>
    1606: 18           	clc
    1607: 69 02        	adc	#$2
    1609: 85 12        	sta	$12                     ; 0x2012 <malloc+0x9c>
    160b: a5 13        	lda	$13                     ; 0x2013 <malloc+0x9d>
    160d: 69 00        	adc	#$0
    160f: 85 13        	sta	$13                     ; 0x2013 <malloc+0x9d>
    1611: b2 14        	lda	($14)                   ; 0x2014 <malloc+0x9e>
    1613: aa           	tax
    1614: b1 14        	lda	($14),y                 ; 0x2014 <malloc+0x9e>
    1616: 86 18        	stx	$18                     ; 0x2018 <malloc+0xa2>
    1618: 86 7c        	stx	$7c                     ; 0x207c <malloc+0x106>
    161a: 85 19        	sta	$19                     ; 0x2019 <malloc+0xa3>
    161c: 85 7d        	sta	$7d                     ; 0x207d <malloc+0x107>
    161e: 4c d1 16     	jmp	$16d1 <printf+0x30b>
    1621: 86 18        	stx	$18                     ; 0x2018 <malloc+0xa2>
    1623: 4c e1 16     	jmp	$16e1 <printf+0x31b>
    1626: 85 17        	sta	$17                     ; 0x2017 <malloc+0xa1>
    1628: 18           	clc
    1629: 69 d0        	adc	#$d0
    162b: c9 0a        	cmp	#$a
    162d: 90 03        	bcc	$1632 <printf+0x26c>
    162f: 4c c3 16     	jmp	$16c3 <printf+0x2fd>
    1632: 64 16        	stz	$16                     ; 0x2016 <malloc+0xa0>
    1634: a2 01        	ldx	#$1
    1636: 64 18        	stz	$18                     ; 0x2018 <malloc+0xa2>
    1638: 64 19        	stz	$19                     ; 0x2019 <malloc+0xa3>
    163a: a0 01        	ldy	#$1
    163c: 64 1a        	stz	$1a                     ; 0x201a <malloc+0xa4>
    163e: 5a           	phy
    163f: a4 1a        	ldy	$1a                     ; 0x201a <malloc+0xa4>
    1641: 84 14        	sty	$14                     ; 0x2014 <malloc+0x9e>
    1643: 86 15        	stx	$15                     ; 0x2015 <malloc+0x9f>
    1645: 06 18        	asl	$18                     ; 0x2018 <malloc+0xa2>
    1647: 26 19        	rol	$19                     ; 0x2019 <malloc+0xa3>
    1649: a5 18        	lda	$18                     ; 0x2018 <malloc+0xa2>
    164b: 0a           	asl
    164c: 85 1d        	sta	$1d                     ; 0x201d <malloc+0xa7>
    164e: a5 19        	lda	$19                     ; 0x2019 <malloc+0xa3>
    1650: 2a           	rol
    1651: 06 1d        	asl	$1d                     ; 0x201d <malloc+0xa7>
    1653: 2a           	rol
    1654: 85 1e        	sta	$1e                     ; 0x201e <malloc+0xa8>
    1656: a5 1d        	lda	$1d                     ; 0x201d <malloc+0xa7>
    1658: 18           	clc
    1659: 65 18        	adc	$18                     ; 0x2018 <malloc+0xa2>
    165b: 85 18        	sta	$18                     ; 0x2018 <malloc+0xa2>
    165d: a5 1e        	lda	$1e                     ; 0x201e <malloc+0xa8>
    165f: 65 19        	adc	$19                     ; 0x2019 <malloc+0xa3>
    1661: 85 19        	sta	$19                     ; 0x2019 <malloc+0xa3>
    1663: a5 18        	lda	$18                     ; 0x2018 <malloc+0xa2>
    1665: 18           	clc
    1666: 65 17        	adc	$17                     ; 0x2017 <malloc+0xa1>
    1668: 85 17        	sta	$17                     ; 0x2017 <malloc+0xa1>
    166a: a5 19        	lda	$19                     ; 0x2019 <malloc+0xa3>
    166c: 65 16        	adc	$16                     ; 0x2016 <malloc+0xa0>
    166e: 85 16        	sta	$16                     ; 0x2016 <malloc+0xa0>
    1670: 18           	clc
    1671: a5 17        	lda	$17                     ; 0x2017 <malloc+0xa1>
    1673: 69 d0        	adc	#$d0
    1675: 85 18        	sta	$18                     ; 0x2018 <malloc+0xa2>
    1677: a5 16        	lda	$16                     ; 0x2016 <malloc+0xa0>
    1679: 69 ff        	adc	#$ff
    167b: 85 19        	sta	$19                     ; 0x2019 <malloc+0xa3>
    167d: e8           	inx
    167e: d0 02        	bne	$1682 <printf+0x2bc>
    1680: e6 1a        	inc	$1a                     ; 0x201a <malloc+0xa4>
    1682: a5 12        	lda	$12                     ; 0x2012 <malloc+0x9c>
    1684: 18           	clc
    1685: 65 15        	adc	$15                     ; 0x2015 <malloc+0x9f>
    1687: 85 1d        	sta	$1d                     ; 0x201d <malloc+0xa7>
    1689: a5 13        	lda	$13                     ; 0x2013 <malloc+0x9d>
    168b: 65 14        	adc	$14                     ; 0x2014 <malloc+0x9e>
    168d: a4 1d        	ldy	$1d                     ; 0x201d <malloc+0xa7>
    168f: 84 16        	sty	$16                     ; 0x2016 <malloc+0xa0>
    1691: 7a           	ply
    1692: 85 17        	sta	$17                     ; 0x2017 <malloc+0xa1>
    1694: b1 16        	lda	($16),y                 ; 0x2016 <malloc+0xa0>
    1696: 85 17        	sta	$17                     ; 0x2017 <malloc+0xa1>
    1698: 18           	clc
    1699: 69 d0        	adc	#$d0
    169b: c9 0a        	cmp	#$a
    169d: 64 16        	stz	$16                     ; 0x2016 <malloc+0xa0>
    169f: b0 03        	bcs	$16a4 <printf+0x2de>
    16a1: 4c 3e 16     	jmp	$163e <printf+0x278>
    16a4: a5 12        	lda	$12                     ; 0x2012 <malloc+0x9c>
    16a6: 18           	clc
    16a7: 65 15        	adc	$15                     ; 0x2015 <malloc+0x9f>
    16a9: 85 12        	sta	$12                     ; 0x2012 <malloc+0x9c>
    16ab: a5 13        	lda	$13                     ; 0x2013 <malloc+0x9d>
    16ad: 65 14        	adc	$14                     ; 0x2014 <malloc+0x9e>
    16af: 85 13        	sta	$13                     ; 0x2013 <malloc+0x9d>
    16b1: e6 12        	inc	$12                     ; 0x2012 <malloc+0x9c>
    16b3: d0 02        	bne	$16b7 <printf+0x2f1>
    16b5: e6 13        	inc	$13                     ; 0x2013 <malloc+0x9d>
    16b7: a6 18        	ldx	$18                     ; 0x2018 <malloc+0xa2>
    16b9: 86 7c        	stx	$7c                     ; 0x207c <malloc+0x106>
    16bb: a6 19        	ldx	$19                     ; 0x2019 <malloc+0xa3>
    16bd: 86 7d        	stx	$7d                     ; 0x207d <malloc+0x107>
    16bf: a0 01        	ldy	#$1
    16c1: 80 0e        	bra	$16d1 <printf+0x30b>
    16c3: e6 12        	inc	$12                     ; 0x2012 <malloc+0x9c>
    16c5: d0 02        	bne	$16c9 <printf+0x303>
    16c7: e6 13        	inc	$13                     ; 0x2013 <malloc+0x9d>
    16c9: 64 18        	stz	$18                     ; 0x2018 <malloc+0xa2>
    16cb: 64 7c        	stz	$7c                     ; 0x207c <malloc+0x106>
    16cd: 64 7d        	stz	$7d                     ; 0x207d <malloc+0x107>
    16cf: 64 19        	stz	$19                     ; 0x2019 <malloc+0xa3>
    16d1: a5 40        	lda	$40                     ; 0x2040 <malloc+0xca>
    16d3: 29 ef        	and	#$ef
    16d5: 85 40        	sta	$40                     ; 0x2040 <malloc+0xca>
    16d7: 85 70        	sta	$70                     ; 0x2070 <malloc+0xfa>
    16d9: a2 00        	ldx	#$0
    16db: 86 71        	stx	$71                     ; 0x2071 <malloc+0xfb>
    16dd: b2 12        	lda	($12)                   ; 0x2012 <malloc+0x9c>
    16df: a6 19        	ldx	$19                     ; 0x2019 <malloc+0xa3>
    16e1: 86 15        	stx	$15                     ; 0x2015 <malloc+0x9f>
    16e3: a6 12        	ldx	$12                     ; 0x2012 <malloc+0x9c>
    16e5: 86 41        	stx	$41                     ; 0x2041 <malloc+0xcb>
    16e7: a6 13        	ldx	$13                     ; 0x2013 <malloc+0x9d>
    16e9: 86 42        	stx	$42                     ; 0x2042 <malloc+0xcc>
    16eb: e6 41        	inc	$41                     ; 0x2041 <malloc+0xcb>
    16ed: d0 02        	bne	$16f1 <printf+0x32b>
    16ef: e6 42        	inc	$42                     ; 0x2042 <malloc+0xcc>
    16f1: 85 14        	sta	$14                     ; 0x2014 <malloc+0x9e>
    16f3: 38           	sec
    16f4: e9 6c        	sbc	#$6c
    16f6: 50 02        	bvc	$16fa <printf+0x334>
    16f8: 49 80        	eor	#$80
    16fa: aa           	tax
    16fb: 10 1d        	bpl	$171a <printf+0x354>
    16fd: a5 14        	lda	$14                     ; 0x2014 <malloc+0x9e>
    16ff: c9 4c        	cmp	#$4c
    1701: f0 27        	beq	$172a <printf+0x364>
    1703: c9 68        	cmp	#$68
    1705: d0 03        	bne	$170a <printf+0x344>
    1707: 4c 91 17     	jmp	$1791 <printf+0x3cb>
    170a: a2 08        	ldx	#$8
    170c: c9 6a        	cmp	#$6a
    170e: d0 2e        	bne	$173e <printf+0x378>
    1710: a5 41        	lda	$41                     ; 0x2041 <malloc+0xcb>
    1712: 85 12        	sta	$12                     ; 0x2012 <malloc+0x9c>
    1714: a5 42        	lda	$42                     ; 0x2042 <malloc+0xcc>
    1716: 85 13        	sta	$13                     ; 0x2013 <malloc+0x9d>
    1718: 80 43        	bra	$175d <printf+0x397>
    171a: a6 14        	ldx	$14                     ; 0x2014 <malloc+0x9e>
    171c: e0 6c        	cpx	#$6c
    171e: f0 23        	beq	$1743 <printf+0x37d>
    1720: e0 74        	cpx	#$74
    1722: f0 12        	beq	$1736 <printf+0x370>
    1724: e0 7a        	cpx	#$7a
    1726: f0 0e        	beq	$1736 <printf+0x370>
    1728: 80 14        	bra	$173e <printf+0x378>
    172a: a5 40        	lda	$40                     ; 0x2040 <malloc+0xca>
    172c: 09 40        	ora	#$40
    172e: 85 40        	sta	$40                     ; 0x2040 <malloc+0xca>
    1730: 85 70        	sta	$70                     ; 0x2070 <malloc+0xfa>
    1732: a2 00        	ldx	#$0
    1734: 86 71        	stx	$71                     ; 0x2071 <malloc+0xfb>
    1736: a6 41        	ldx	$41                     ; 0x2041 <malloc+0xcb>
    1738: 86 12        	stx	$12                     ; 0x2012 <malloc+0x9c>
    173a: a6 42        	ldx	$42                     ; 0x2042 <malloc+0xcc>
    173c: 86 13        	stx	$13                     ; 0x2013 <malloc+0x9d>
    173e: a2 02        	ldx	#$2
    1740: 8a           	txa
    1741: 80 1c        	bra	$175f <printf+0x399>
    1743: b1 12        	lda	($12),y                 ; 0x2012 <malloc+0x9c>
    1745: a2 04        	ldx	#$4
    1747: c9 6c        	cmp	#$6c
    1749: f0 03        	beq	$174e <printf+0x388>
    174b: 4c 90 1a     	jmp	$1a90 <printf+0x6ca>
    174e: a5 12        	lda	$12                     ; 0x2012 <malloc+0x9c>
    1750: 18           	clc
    1751: 69 02        	adc	#$2
    1753: 85 12        	sta	$12                     ; 0x2012 <malloc+0x9c>
    1755: a5 13        	lda	$13                     ; 0x2013 <malloc+0x9d>
    1757: 69 00        	adc	#$0
    1759: 85 13        	sta	$13                     ; 0x2013 <malloc+0x9d>
    175b: a2 08        	ldx	#$8
    175d: a9 08        	lda	#$8
    175f: 85 86        	sta	$86                     ; 0x2086 <malloc+0x110>
    1761: b2 12        	lda	($12)                   ; 0x2012 <malloc+0x9c>
    1763: 5a           	phy
    1764: a4 12        	ldy	$12                     ; 0x2012 <malloc+0x9c>
    1766: 84 41        	sty	$41                     ; 0x2041 <malloc+0xcb>
    1768: a4 13        	ldy	$13                     ; 0x2013 <malloc+0x9d>
    176a: 84 42        	sty	$42                     ; 0x2042 <malloc+0xcc>
    176c: 7a           	ply
    176d: 86 43        	stx	$43                     ; 0x2043 <malloc+0xcd>
    176f: aa           	tax
    1770: 38           	sec
    1771: e9 63        	sbc	#$63
    1773: c9 16        	cmp	#$16
    1775: b0 39        	bcs	$17b0 <printf+0x3ea>
    1777: 0a           	asl
    1778: aa           	tax
    1779: 7c 85 24     	jmp	($2485,x)               ; 0x2485 <__set_v+0xf>
    177c: a6 15        	ldx	$15                     ; 0x2015 <malloc+0x9f>
    177e: 86 84        	stx	$84                     ; 0x2084 <malloc+0x10e>
    1780: a6 18        	ldx	$18                     ; 0x2018 <malloc+0xa2>
    1782: 86 89        	stx	$89                     ; 0x2089 <malloc+0x113>
    1784: a0 0a        	ldy	#$a
    1786: a2 0a        	ldx	#$a
    1788: 86 85        	stx	$85                     ; 0x2085 <malloc+0x10f>
    178a: 84 6f        	sty	$6f                     ; 0x206f <malloc+0xf9>
    178c: 64 4a        	stz	$4a                     ; 0x204a <malloc+0xd4>
    178e: 4c b0 18     	jmp	$18b0 <printf+0x4ea>
    1791: b1 12        	lda	($12),y                 ; 0x2012 <malloc+0x9c>
    1793: a2 02        	ldx	#$2
    1795: c9 68        	cmp	#$68
    1797: f0 03        	beq	$179c <printf+0x3d6>
    1799: 4c 96 1a     	jmp	$1a96 <printf+0x6d0>
    179c: a5 12        	lda	$12                     ; 0x2012 <malloc+0x9c>
    179e: 18           	clc
    179f: 69 02        	adc	#$2
    17a1: 85 12        	sta	$12                     ; 0x2012 <malloc+0x9c>
    17a3: a5 13        	lda	$13                     ; 0x2013 <malloc+0x9d>
    17a5: 69 00        	adc	#$0
    17a7: 85 13        	sta	$13                     ; 0x2013 <malloc+0x9d>
    17a9: a2 01        	ldx	#$1
    17ab: 86 86        	stx	$86                     ; 0x2086 <malloc+0x110>
    17ad: e8           	inx
    17ae: 80 b1        	bra	$1761 <printf+0x39b>
    17b0: e0 58        	cpx	#$58
    17b2: f0 03        	beq	$17b7 <printf+0x3f1>
    17b4: 4c 31 1f     	jmp	$1f31 <printf+0xb6b>
    17b7: a6 15        	ldx	$15                     ; 0x2015 <malloc+0x9f>
    17b9: 86 84        	stx	$84                     ; 0x2084 <malloc+0x10e>
    17bb: a6 18        	ldx	$18                     ; 0x2018 <malloc+0xa2>
    17bd: 86 89        	stx	$89                     ; 0x2089 <malloc+0x113>
    17bf: a2 10        	ldx	#$10
    17c1: 86 6f        	stx	$6f                     ; 0x206f <malloc+0xf9>
    17c3: a9 00        	lda	#$0
    17c5: 09 01        	ora	#$1
    17c7: a6 40        	ldx	$40                     ; 0x2040 <malloc+0xca>
    17c9: 80 29        	bra	$17f4 <printf+0x42e>
    17cb: a6 15        	ldx	$15                     ; 0x2015 <malloc+0x9f>
    17cd: 86 84        	stx	$84                     ; 0x2084 <malloc+0x10e>
    17cf: a6 18        	ldx	$18                     ; 0x2018 <malloc+0xa2>
    17d1: 86 89        	stx	$89                     ; 0x2089 <malloc+0x113>
    17d3: a2 10        	ldx	#$10
    17d5: 86 6f        	stx	$6f                     ; 0x206f <malloc+0xf9>
    17d7: a5 40        	lda	$40                     ; 0x2040 <malloc+0xca>
    17d9: 09 84        	ora	#$84
    17db: 80 10        	bra	$17ed <printf+0x427>
    17dd: a6 15        	ldx	$15                     ; 0x2015 <malloc+0x9f>
    17df: 86 84        	stx	$84                     ; 0x2084 <malloc+0x10e>
    17e1: a6 18        	ldx	$18                     ; 0x2018 <malloc+0xa2>
    17e3: 86 89        	stx	$89                     ; 0x2089 <malloc+0x113>
    17e5: a2 10        	ldx	#$10
    17e7: 86 6f        	stx	$6f                     ; 0x206f <malloc+0xf9>
    17e9: a5 40        	lda	$40                     ; 0x2040 <malloc+0xca>
    17eb: 09 80        	ora	#$80
    17ed: aa           	tax
    17ee: a9 00        	lda	#$0
    17f0: 09 01        	ora	#$1
    17f2: 86 40        	stx	$40                     ; 0x2040 <malloc+0xca>
    17f4: 86 70        	stx	$70                     ; 0x2070 <malloc+0xfa>
    17f6: 85 4a        	sta	$4a                     ; 0x204a <malloc+0xd4>
    17f8: 85 71        	sta	$71                     ; 0x2071 <malloc+0xfb>
    17fa: a2 10        	ldx	#$10
    17fc: 86 85        	stx	$85                     ; 0x2085 <malloc+0x10f>
    17fe: 4c b0 18     	jmp	$18b0 <printf+0x4ea>
    1801: a5 80        	lda	$80                     ; 0x2080 <malloc+0x10a>
    1803: a6 81        	ldx	$81                     ; 0x2081 <malloc+0x10b>
    1805: 85 12        	sta	$12                     ; 0x2012 <malloc+0x9c>
    1807: 86 13        	stx	$13                     ; 0x2013 <malloc+0x9d>
    1809: 18           	clc
    180a: 69 02        	adc	#$2
    180c: 85 14        	sta	$14                     ; 0x2014 <malloc+0x9e>
    180e: 8a           	txa
    180f: 69 00        	adc	#$0
    1811: a6 14        	ldx	$14                     ; 0x2014 <malloc+0x9e>
    1813: 86 80        	stx	$80                     ; 0x2080 <malloc+0x10a>
    1815: 85 81        	sta	$81                     ; 0x2081 <malloc+0x10b>
    1817: b2 12        	lda	($12)                   ; 0x2012 <malloc+0x9c>
    1819: aa           	tax
    181a: b1 12        	lda	($12),y                 ; 0x2012 <malloc+0x9c>
    181c: 86 12        	stx	$12                     ; 0x2012 <malloc+0x9c>
    181e: 85 13        	sta	$13                     ; 0x2013 <malloc+0x9d>
    1820: a5 74        	lda	$74                     ; 0x2074 <malloc+0xfe>
    1822: a6 75        	ldx	$75                     ; 0x2075 <malloc+0xff>
    1824: 92 12        	sta	($12)                   ; 0x2012 <malloc+0x9c>
    1826: 8a           	txa
    1827: 91 12        	sta	($12),y                 ; 0x2012 <malloc+0x9c>
    1829: 4c 89 18     	jmp	$1889 <printf+0x4c3>
    182c: a5 80        	lda	$80                     ; 0x2080 <malloc+0x10a>
    182e: a6 81        	ldx	$81                     ; 0x2081 <malloc+0x10b>
    1830: 85 12        	sta	$12                     ; 0x2012 <malloc+0x9c>
    1832: 86 13        	stx	$13                     ; 0x2013 <malloc+0x9d>
    1834: 18           	clc
    1835: 69 02        	adc	#$2
    1837: 85 14        	sta	$14                     ; 0x2014 <malloc+0x9e>
    1839: 8a           	txa
    183a: 69 00        	adc	#$0
    183c: a6 14        	ldx	$14                     ; 0x2014 <malloc+0x9e>
    183e: 86 80        	stx	$80                     ; 0x2080 <malloc+0x10a>
    1840: 85 81        	sta	$81                     ; 0x2081 <malloc+0x10b>
    1842: b2 12        	lda	($12)                   ; 0x2012 <malloc+0x9c>
    1844: aa           	tax
    1845: b1 12        	lda	($12),y                 ; 0x2012 <malloc+0x9c>
    1847: 86 12        	stx	$12                     ; 0x2012 <malloc+0x9c>
    1849: 85 13        	sta	$13                     ; 0x2013 <malloc+0x9d>
    184b: 80 2f        	bra	$187c <printf+0x4b6>
    184d: a6 15        	ldx	$15                     ; 0x2015 <malloc+0x9f>
    184f: 86 84        	stx	$84                     ; 0x2084 <malloc+0x10e>
    1851: a6 18        	ldx	$18                     ; 0x2018 <malloc+0xa2>
    1853: 86 89        	stx	$89                     ; 0x2089 <malloc+0x113>
    1855: a0 08        	ldy	#$8
    1857: a2 08        	ldx	#$8
    1859: 80 45        	bra	$18a0 <printf+0x4da>
    185b: a5 80        	lda	$80                     ; 0x2080 <malloc+0x10a>
    185d: a6 81        	ldx	$81                     ; 0x2081 <malloc+0x10b>
    185f: 85 12        	sta	$12                     ; 0x2012 <malloc+0x9c>
    1861: 86 13        	stx	$13                     ; 0x2013 <malloc+0x9d>
    1863: 18           	clc
    1864: 69 02        	adc	#$2
    1866: a8           	tay
    1867: 8a           	txa
    1868: 69 00        	adc	#$0
    186a: 84 80        	sty	$80                     ; 0x2080 <malloc+0x10a>
    186c: 85 81        	sta	$81                     ; 0x2081 <malloc+0x10b>
    186e: b2 12        	lda	($12)                   ; 0x2012 <malloc+0x9c>
    1870: 85 62        	sta	$62                     ; 0x2062 <malloc+0xec>
    1872: 64 63        	stz	$63                     ; 0x2063 <malloc+0xed>
    1874: a2 62        	ldx	#$62
    1876: 86 12        	stx	$12                     ; 0x2012 <malloc+0x9c>
    1878: a2 00        	ldx	#$0
    187a: 86 13        	stx	$13                     ; 0x2013 <malloc+0x9d>
    187c: a2 6f        	ldx	#$6f
    187e: 86 14        	stx	$14                     ; 0x2014 <malloc+0x9e>
    1880: a2 00        	ldx	#$0
    1882: 86 15        	stx	$15                     ; 0x2015 <malloc+0x9f>
    1884: 20 b9 12     	jsr	$12b9 <_ZN12_GLOBAL__N_112print_stringEPKcP6Status>
    1887: a0 01        	ldy	#$1
    1889: a2 00        	ldx	#$0
    188b: 86 43        	stx	$43                     ; 0x2043 <malloc+0xcd>
    188d: a2 00        	ldx	#$0
    188f: 86 44        	stx	$44                     ; 0x2044 <malloc+0xce>
    1891: 4c 19 1f     	jmp	$1f19 <printf+0xb53>
    1894: a6 15        	ldx	$15                     ; 0x2015 <malloc+0x9f>
    1896: 86 84        	stx	$84                     ; 0x2084 <malloc+0x10e>
    1898: a6 18        	ldx	$18                     ; 0x2018 <malloc+0xa2>
    189a: 86 89        	stx	$89                     ; 0x2089 <malloc+0x113>
    189c: a0 0a        	ldy	#$a
    189e: a2 0a        	ldx	#$a
    18a0: 86 85        	stx	$85                     ; 0x2085 <malloc+0x10f>
    18a2: 84 6f        	sty	$6f                     ; 0x206f <malloc+0xf9>
    18a4: a9 00        	lda	#$0
    18a6: 09 01        	ora	#$1
    18a8: a6 40        	ldx	$40                     ; 0x2040 <malloc+0xca>
    18aa: 86 70        	stx	$70                     ; 0x2070 <malloc+0xfa>
    18ac: 85 4a        	sta	$4a                     ; 0x204a <malloc+0xd4>
    18ae: 85 71        	sta	$71                     ; 0x2071 <malloc+0xfb>
    18b0: a5 86        	lda	$86                     ; 0x2086 <malloc+0x110>
    18b2: 85 64        	sta	$64                     ; 0x2064 <malloc+0xee>
    18b4: a4 80        	ldy	$80                     ; 0x2080 <malloc+0x10a>
    18b6: a6 81        	ldx	$81                     ; 0x2081 <malloc+0x10b>
    18b8: 86 48        	stx	$48                     ; 0x2048 <malloc+0xd2>
    18ba: 84 14        	sty	$14                     ; 0x2014 <malloc+0x9e>
    18bc: 84 3f        	sty	$3f                     ; 0x203f <malloc+0xc9>
    18be: 86 15        	stx	$15                     ; 0x2015 <malloc+0x9f>
    18c0: a6 87        	ldx	$87                     ; 0x2087 <malloc+0x111>
    18c2: 86 12        	stx	$12                     ; 0x2012 <malloc+0x9c>
    18c4: a6 88        	ldx	$88                     ; 0x2088 <malloc+0x112>
    18c6: 86 13        	stx	$13                     ; 0x2013 <malloc+0x9d>
    18c8: a2 00        	ldx	#$0
    18ca: 85 44        	sta	$44                     ; 0x2044 <malloc+0xce>
    18cc: 20 de 22     	jsr	$22de <memcpy>
    18cf: 18           	clc
    18d0: a5 3f        	lda	$3f                     ; 0x203f <malloc+0xc9>
    18d2: 65 43        	adc	$43                     ; 0x2043 <malloc+0xcd>
    18d4: aa           	tax
    18d5: a5 48        	lda	$48                     ; 0x2048 <malloc+0xd2>
    18d7: 69 00        	adc	#$0
    18d9: 86 80        	stx	$80                     ; 0x2080 <malloc+0x10a>
    18db: 85 81        	sta	$81                     ; 0x2081 <malloc+0x10b>
    18dd: a5 4a        	lda	$4a                     ; 0x204a <malloc+0xd4>
    18df: 29 01        	and	#$1
    18e1: b8           	clv
    18e2: f0 03        	beq	$18e7 <printf+0x521>
    18e4: 4c 3b 19     	jmp	$193b <printf+0x575>
    18e7: a6 44        	ldx	$44                     ; 0x2044 <malloc+0xce>
    18e9: b5 64        	lda	$64,x                   ; 0x2064 <malloc+0xee>
    18eb: aa           	tax
    18ec: a0 01        	ldy	#$1
    18ee: a5 47        	lda	$47                     ; 0x2047 <malloc+0xd1>
    18f0: 85 1a        	sta	$1a                     ; 0x201a <malloc+0xa4>
    18f2: a5 89        	lda	$89                     ; 0x2089 <malloc+0x113>
    18f4: 85 47        	sta	$47                     ; 0x2047 <malloc+0xd1>
    18f6: a9 00        	lda	#$0
    18f8: 85 43        	sta	$43                     ; 0x2043 <malloc+0xcd>
    18fa: a9 00        	lda	#$0
    18fc: 85 44        	sta	$44                     ; 0x2044 <malloc+0xce>
    18fe: a5 84        	lda	$84                     ; 0x2084 <malloc+0x10e>
    1900: 85 48        	sta	$48                     ; 0x2048 <malloc+0xd2>
    1902: 8a           	txa
    1903: 10 4c        	bpl	$1951 <printf+0x58b>
    1905: a2 00        	ldx	#$0
    1907: 64 12        	stz	$12                     ; 0x2012 <malloc+0x9c>
    1909: a9 00        	lda	#$0
    190b: 38           	sec
    190c: f5 65        	sbc	$65,x                   ; 0x2065 <malloc+0xef>
    190e: a0 00        	ldy	#$0
    1910: b0 02        	bcs	$1914 <printf+0x54e>
    1912: a0 01        	ldy	#$1
    1914: 38           	sec
    1915: e5 12        	sbc	$12                     ; 0x2012 <malloc+0x9c>
    1917: 85 13        	sta	$13                     ; 0x2013 <malloc+0x9d>
    1919: 64 12        	stz	$12                     ; 0x2012 <malloc+0x9c>
    191b: b0 04        	bcs	$1921 <printf+0x55b>
    191d: a9 01        	lda	#$1
    191f: 85 12        	sta	$12                     ; 0x2012 <malloc+0x9c>
    1921: 98           	tya
    1922: 05 12        	ora	$12                     ; 0x2012 <malloc+0x9c>
    1924: 85 12        	sta	$12                     ; 0x2012 <malloc+0x9c>
    1926: a5 13        	lda	$13                     ; 0x2013 <malloc+0x9d>
    1928: 9d 65 00     	sta	$65,x                   ; 0x65 <__rc31+0x36>
    192b: e8           	inx
    192c: 86 13        	stx	$13                     ; 0x2013 <malloc+0x9d>
    192e: a4 86        	ldy	$86                     ; 0x2086 <malloc+0x110>
    1930: c4 13        	cpy	$13                     ; 0x2013 <malloc+0x9d>
    1932: d0 d5        	bne	$1909 <printf+0x543>
    1934: 2c 76 24     	bit	$2476                   ; 0x2476 <__set_v>
    1937: a0 01        	ldy	#$1
    1939: 80 16        	bra	$1951 <printf+0x58b>
    193b: a0 01        	ldy	#$1
    193d: a6 47        	ldx	$47                     ; 0x2047 <malloc+0xd1>
    193f: 86 1a        	stx	$1a                     ; 0x201a <malloc+0xa4>
    1941: a6 89        	ldx	$89                     ; 0x2089 <malloc+0x113>
    1943: 86 47        	stx	$47                     ; 0x2047 <malloc+0xd1>
    1945: a2 00        	ldx	#$0
    1947: 86 43        	stx	$43                     ; 0x2043 <malloc+0xcd>
    1949: a2 00        	ldx	#$0
    194b: 86 44        	stx	$44                     ; 0x2044 <malloc+0xce>
    194d: a6 84        	ldx	$84                     ; 0x2084 <malloc+0x10e>
    194f: 86 48        	stx	$48                     ; 0x2048 <malloc+0xd2>
    1951: a2 01        	ldx	#$1
    1953: 70 02        	bvs	$1957 <printf+0x591>
    1955: a2 00        	ldx	#$0
    1957: 86 16        	stx	$16                     ; 0x2016 <malloc+0xa0>
    1959: a5 86        	lda	$86                     ; 0x2086 <malloc+0x110>
    195b: 0a           	asl
    195c: 0a           	asl
    195d: 0a           	asl
    195e: 85 12        	sta	$12                     ; 0x2012 <malloc+0x9c>
    1960: a2 00        	ldx	#$0
    1962: 8a           	txa
    1963: 4c 17 1a     	jmp	$1a17 <printf+0x651>
    1966: da           	phx
    1967: 7a           	ply
    1968: c8           	iny
    1969: 9d 4d 00     	sta	$4d,x                   ; 0x4d <__rc31+0x1e>
    196c: 5a           	phy
    196d: fa           	plx
    196e: c4 3f        	cpy	$3f                     ; 0x203f <malloc+0xc9>
    1970: f0 30        	beq	$19a2 <printf+0x5dc>
    1972: b5 4d        	lda	$4d,x                   ; 0x204d <malloc+0xd7>
    1974: 0a           	asl
    1975: a4 84        	ldy	$84                     ; 0x2084 <malloc+0x10e>
    1977: f0 02        	beq	$197b <printf+0x5b5>
    1979: 09 01        	ora	#$1
    197b: a4 85        	ldy	$85                     ; 0x2085 <malloc+0x10f>
    197d: 84 14        	sty	$14                     ; 0x2014 <malloc+0x9e>
    197f: c5 14        	cmp	$14                     ; 0x2014 <malloc+0x9e>
    1981: a0 01        	ldy	#$1
    1983: b0 02        	bcs	$1987 <printf+0x5c1>
    1985: a0 00        	ldy	#$0
    1987: 84 84        	sty	$84                     ; 0x2084 <malloc+0x10e>
    1989: 90 db        	bcc	$1966 <printf+0x5a0>
    198b: 38           	sec
    198c: e5 14        	sbc	$14                     ; 0x2014 <malloc+0x9e>
    198e: 9d 4d 00     	sta	$4d,x                   ; 0x4d <__rc31+0x1e>
    1991: e8           	inx
    1992: e4 3f        	cpx	$3f                     ; 0x203f <malloc+0xc9>
    1994: d0 dc        	bne	$1972 <printf+0x5ac>
    1996: a4 3f        	ldy	$3f                     ; 0x203f <malloc+0xc9>
    1998: a6 3f        	ldx	$3f                     ; 0x203f <malloc+0xc9>
    199a: e8           	inx
    199b: a9 01        	lda	#$1
    199d: 99 4d 00     	sta	$4d,y                   ; 0x4d <__rc31+0x1e>
    19a0: 86 3f        	stx	$3f                     ; 0x203f <malloc+0xc9>
    19a2: a6 86        	ldx	$86                     ; 0x2086 <malloc+0x110>
    19a4: b5 64        	lda	$64,x                   ; 0x2064 <malloc+0xee>
    19a6: aa           	tax
    19a7: 30 0f        	bmi	$19b8 <printf+0x5f2>
    19a9: a0 01        	ldy	#$1
    19ab: 80 42        	bra	$19ef <printf+0x629>
    19ad: a6 86        	ldx	$86                     ; 0x2086 <malloc+0x110>
    19af: b5 64        	lda	$64,x                   ; 0x2064 <malloc+0xee>
    19b1: aa           	tax
    19b2: 64 3f        	stz	$3f                     ; 0x203f <malloc+0xc9>
    19b4: 10 39        	bpl	$19ef <printf+0x629>
    19b6: 80 2a        	bra	$19e2 <printf+0x61c>
    19b8: a5 3f        	lda	$3f                     ; 0x203f <malloc+0xc9>
    19ba: f0 24        	beq	$19e0 <printf+0x61a>
    19bc: a2 00        	ldx	#$0
    19be: a4 85        	ldy	$85                     ; 0x2085 <malloc+0x10f>
    19c0: 84 14        	sty	$14                     ; 0x2014 <malloc+0x9e>
    19c2: b5 4d        	lda	$4d,x                   ; 0x204d <malloc+0xd7>
    19c4: 1a           	inc
    19c5: f6 4d        	inc	$4d,x                   ; 0x204d <malloc+0xd7>
    19c7: c5 14        	cmp	$14                     ; 0x2014 <malloc+0x9e>
    19c9: 90 de        	bcc	$19a9 <printf+0x5e3>
    19cb: a4 14        	ldy	$14                     ; 0x2014 <malloc+0x9e>
    19cd: 84 13        	sty	$13                     ; 0x2013 <malloc+0x9d>
    19cf: 38           	sec
    19d0: e5 13        	sbc	$13                     ; 0x2013 <malloc+0x9d>
    19d2: 9d 4d 00     	sta	$4d,x                   ; 0x4d <__rc31+0x1e>
    19d5: e8           	inx
    19d6: 86 13        	stx	$13                     ; 0x2013 <malloc+0x9d>
    19d8: a4 3f        	ldy	$3f                     ; 0x203f <malloc+0xc9>
    19da: c4 13        	cpy	$13                     ; 0x2013 <malloc+0x9d>
    19dc: d0 e4        	bne	$19c2 <printf+0x5fc>
    19de: 80 02        	bra	$19e2 <printf+0x61c>
    19e0: 64 3f        	stz	$3f                     ; 0x203f <malloc+0xc9>
    19e2: a4 3f        	ldy	$3f                     ; 0x203f <malloc+0xc9>
    19e4: a6 3f        	ldx	$3f                     ; 0x203f <malloc+0xc9>
    19e6: e8           	inx
    19e7: a9 01        	lda	#$1
    19e9: 99 4d 00     	sta	$4d,y                   ; 0x4d <__rc31+0x1e>
    19ec: a8           	tay
    19ed: 86 3f        	stx	$3f                     ; 0x203f <malloc+0xc9>
    19ef: a2 01        	ldx	#$1
    19f1: 64 13        	stz	$13                     ; 0x2013 <malloc+0x9d>
    19f3: a5 86        	lda	$86                     ; 0x2086 <malloc+0x110>
    19f5: 85 14        	sta	$14                     ; 0x2014 <malloc+0x9e>
    19f7: b5 64        	lda	$64,x                   ; 0x2064 <malloc+0xee>
    19f9: 0a           	asl
    19fa: 64 15        	stz	$15                     ; 0x2015 <malloc+0x9f>
    19fc: 26 15        	rol	$15                     ; 0x2015 <malloc+0x9f>
    19fe: 05 13        	ora	$13                     ; 0x2013 <malloc+0x9d>
    1a00: 9d 64 00     	sta	$64,x                   ; 0x64 <__rc31+0x35>
    1a03: e8           	inx
    1a04: c6 14        	dec	$14                     ; 0x2014 <malloc+0x9e>
    1a06: a5 15        	lda	$15                     ; 0x2015 <malloc+0x9f>
    1a08: 85 13        	sta	$13                     ; 0x2013 <malloc+0x9d>
    1a0a: a5 14        	lda	$14                     ; 0x2014 <malloc+0x9e>
    1a0c: d0 e9        	bne	$19f7 <printf+0x631>
    1a0e: a5 17        	lda	$17                     ; 0x2017 <malloc+0xa1>
    1a10: 1a           	inc
    1a11: c5 12        	cmp	$12                     ; 0x2012 <malloc+0x9c>
    1a13: a6 3f        	ldx	$3f                     ; 0x203f <malloc+0xc9>
    1a15: b0 13        	bcs	$1a2a <printf+0x664>
    1a17: 85 17        	sta	$17                     ; 0x2017 <malloc+0xa1>
    1a19: 8a           	txa
    1a1a: d0 03        	bne	$1a1f <printf+0x659>
    1a1c: 4c ad 19     	jmp	$19ad <printf+0x5e7>
    1a1f: 86 3f        	stx	$3f                     ; 0x203f <malloc+0xc9>
    1a21: a2 00        	ldx	#$0
    1a23: 86 84        	stx	$84                     ; 0x2084 <malloc+0x10e>
    1a25: a2 00        	ldx	#$0
    1a27: 4c 72 19     	jmp	$1972 <printf+0x5ac>
    1a2a: a5 40        	lda	$40                     ; 0x2040 <malloc+0xca>
    1a2c: e6 48        	inc	$48                     ; 0x2048 <malloc+0xd2>
    1a2e: c6 48        	dec	$48                     ; 0x2048 <malloc+0xd2>
    1a30: 10 08        	bpl	$1a3a <printf+0x674>
    1a32: a2 01        	ldx	#$1
    1a34: 64 48        	stz	$48                     ; 0x2048 <malloc+0xd2>
    1a36: 86 47        	stx	$47                     ; 0x2047 <malloc+0xd1>
    1a38: a6 3f        	ldx	$3f                     ; 0x203f <malloc+0xc9>
    1a3a: 29 04        	and	#$4
    1a3c: f0 2b        	beq	$1a69 <printf+0x6a3>
    1a3e: a5 85        	lda	$85                     ; 0x2085 <malloc+0x10f>
    1a40: c9 10        	cmp	#$10
    1a42: f0 14        	beq	$1a58 <printf+0x692>
    1a44: c9 08        	cmp	#$8
    1a46: d0 21        	bne	$1a69 <printf+0x6a3>
    1a48: a2 00        	ldx	#$0
    1a4a: e4 48        	cpx	$48                     ; 0x2048 <malloc+0xd2>
    1a4c: f0 03        	beq	$1a51 <printf+0x68b>
    1a4e: 4c 3e 1f     	jmp	$1f3e <printf+0xb78>
    1a51: a6 3f        	ldx	$3f                     ; 0x203f <malloc+0xc9>
    1a53: e4 47        	cpx	$47                     ; 0x2047 <malloc+0xd1>
    1a55: 4c 40 1f     	jmp	$1f40 <printf+0xb7a>
    1a58: 8a           	txa
    1a59: f0 0e        	beq	$1a69 <printf+0x6a3>
    1a5b: a5 40        	lda	$40                     ; 0x2040 <malloc+0xca>
    1a5d: 29 80        	and	#$80
    1a5f: d0 03        	bne	$1a64 <printf+0x69e>
    1a61: 4c 59 1f     	jmp	$1f59 <printf+0xb93>
    1a64: a2 78        	ldx	#$78
    1a66: 4c 5b 1f     	jmp	$1f5b <printf+0xb95>
    1a69: a6 40        	ldx	$40                     ; 0x2040 <malloc+0xca>
    1a6b: a9 2d        	lda	#$2d
    1a6d: 85 86        	sta	$86                     ; 0x2086 <malloc+0x110>
    1a6f: a5 16        	lda	$16                     ; 0x2016 <malloc+0xa0>
    1a71: d0 32        	bne	$1aa5 <printf+0x6df>
    1a73: 86 12        	stx	$12                     ; 0x2012 <malloc+0x9c>
    1a75: 8a           	txa
    1a76: 29 02        	and	#$2
    1a78: a2 2b        	ldx	#$2b
    1a7a: 86 86        	stx	$86                     ; 0x2086 <malloc+0x110>
    1a7c: aa           	tax
    1a7d: d0 26        	bne	$1aa5 <printf+0x6df>
    1a7f: a5 12        	lda	$12                     ; 0x2012 <malloc+0x9c>
    1a81: 29 08        	and	#$8
    1a83: d0 1c        	bne	$1aa1 <printf+0x6db>
    1a85: a2 01        	ldx	#$1
    1a87: 86 85        	stx	$85                     ; 0x2085 <malloc+0x10f>
    1a89: a9 00        	lda	#$0
    1a8b: aa           	tax
    1a8c: 86 84        	stx	$84                     ; 0x2084 <malloc+0x10e>
    1a8e: 80 1c        	bra	$1aac <printf+0x6e6>
    1a90: 85 12        	sta	$12                     ; 0x2012 <malloc+0x9c>
    1a92: a9 04        	lda	#$4
    1a94: 80 04        	bra	$1a9a <printf+0x6d4>
    1a96: 85 12        	sta	$12                     ; 0x2012 <malloc+0x9c>
    1a98: a9 02        	lda	#$2
    1a9a: 85 86        	sta	$86                     ; 0x2086 <malloc+0x110>
    1a9c: a5 12        	lda	$12                     ; 0x2012 <malloc+0x9c>
    1a9e: 4c 6d 17     	jmp	$176d <printf+0x3a7>
    1aa1: a2 20        	ldx	#$20
    1aa3: 86 86        	stx	$86                     ; 0x2086 <malloc+0x110>
    1aa5: a2 00        	ldx	#$0
    1aa7: 86 85        	stx	$85                     ; 0x2085 <malloc+0x10f>
    1aa9: 86 84        	stx	$84                     ; 0x2084 <malloc+0x10e>
    1aab: 98           	tya
    1aac: a6 48        	ldx	$48                     ; 0x2048 <malloc+0xd2>
    1aae: d0 35        	bne	$1ae5 <printf+0x71f>
    1ab0: a6 47        	ldx	$47                     ; 0x2047 <malloc+0xd1>
    1ab2: a4 3f        	ldy	$3f                     ; 0x203f <malloc+0xc9>
    1ab4: 84 12        	sty	$12                     ; 0x2012 <malloc+0x9c>
    1ab6: e4 12        	cpx	$12                     ; 0x2012 <malloc+0x9c>
    1ab8: a6 47        	ldx	$47                     ; 0x2047 <malloc+0xd1>
    1aba: 86 12        	stx	$12                     ; 0x2012 <malloc+0x9c>
    1abc: a6 48        	ldx	$48                     ; 0x2048 <malloc+0xd2>
    1abe: 86 13        	stx	$13                     ; 0x2013 <malloc+0x9d>
    1ac0: b0 04        	bcs	$1ac6 <printf+0x700>
    1ac2: 84 12        	sty	$12                     ; 0x2012 <malloc+0x9c>
    1ac4: 64 13        	stz	$13                     ; 0x2013 <malloc+0x9d>
    1ac6: 85 18        	sta	$18                     ; 0x2018 <malloc+0xa2>
    1ac8: 18           	clc
    1ac9: 65 12        	adc	$12                     ; 0x2012 <malloc+0x9c>
    1acb: 85 16        	sta	$16                     ; 0x2016 <malloc+0xa0>
    1acd: 85 14        	sta	$14                     ; 0x2014 <malloc+0x9e>
    1acf: a5 13        	lda	$13                     ; 0x2013 <malloc+0x9d>
    1ad1: 69 00        	adc	#$0
    1ad3: 85 15        	sta	$15                     ; 0x2015 <malloc+0x9f>
    1ad5: c5 1a        	cmp	$1a                     ; 0x201a <malloc+0xa4>
    1ad7: d0 1e        	bne	$1af7 <printf+0x731>
    1ad9: a6 1a        	ldx	$1a                     ; 0x201a <malloc+0xa4>
    1adb: 86 17        	stx	$17                     ; 0x2017 <malloc+0xa1>
    1add: a6 49        	ldx	$49                     ; 0x2049 <malloc+0xd3>
    1adf: a5 16        	lda	$16                     ; 0x2016 <malloc+0xa0>
    1ae1: c5 49        	cmp	$49                     ; 0x2049 <malloc+0xd3>
    1ae3: 80 1c        	bra	$1b01 <printf+0x73b>
    1ae5: a6 48        	ldx	$48                     ; 0x2048 <malloc+0xd2>
    1ae7: e0 00        	cpx	#$0
    1ae9: a6 47        	ldx	$47                     ; 0x2047 <malloc+0xd1>
    1aeb: 86 12        	stx	$12                     ; 0x2012 <malloc+0x9c>
    1aed: a6 48        	ldx	$48                     ; 0x2048 <malloc+0xd2>
    1aef: 86 13        	stx	$13                     ; 0x2013 <malloc+0x9d>
    1af1: a4 3f        	ldy	$3f                     ; 0x203f <malloc+0xc9>
    1af3: 90 cd        	bcc	$1ac2 <printf+0x6fc>
    1af5: 80 cf        	bra	$1ac6 <printf+0x700>
    1af7: a6 49        	ldx	$49                     ; 0x2049 <malloc+0xd3>
    1af9: 5a           	phy
    1afa: a4 1a        	ldy	$1a                     ; 0x201a <malloc+0xa4>
    1afc: 84 17        	sty	$17                     ; 0x2017 <malloc+0xa1>
    1afe: 7a           	ply
    1aff: c5 1a        	cmp	$1a                     ; 0x201a <malloc+0xa4>
    1b01: 64 4a        	stz	$4a                     ; 0x204a <malloc+0xd4>
    1b03: 64 49        	stz	$49                     ; 0x2049 <malloc+0xd3>
    1b05: 90 03        	bcc	$1b0a <printf+0x744>
    1b07: 4c 9d 1b     	jmp	$1b9d <printf+0x7d7>
    1b0a: a5 40        	lda	$40                     ; 0x2040 <malloc+0xca>
    1b0c: 29 11        	and	#$11
    1b0e: 86 16        	stx	$16                     ; 0x2016 <malloc+0xa0>
    1b10: f0 0f        	beq	$1b21 <printf+0x75b>
    1b12: 8a           	txa
    1b13: 38           	sec
    1b14: e5 14        	sbc	$14                     ; 0x2014 <malloc+0x9e>
    1b16: 85 4a        	sta	$4a                     ; 0x204a <malloc+0xd4>
    1b18: a5 1a        	lda	$1a                     ; 0x201a <malloc+0xa4>
    1b1a: e5 15        	sbc	$15                     ; 0x2015 <malloc+0x9f>
    1b1c: 85 49        	sta	$49                     ; 0x2049 <malloc+0xd3>
    1b1e: 4c 9d 1b     	jmp	$1b9d <printf+0x7d7>
    1b21: a6 74        	ldx	$74                     ; 0x2074 <malloc+0xfe>
    1b23: 86 14        	stx	$14                     ; 0x2014 <malloc+0x9e>
    1b25: 38           	sec
    1b26: a5 18        	lda	$18                     ; 0x2018 <malloc+0xa2>
    1b28: e5 16        	sbc	$16                     ; 0x2016 <malloc+0xa0>
    1b2a: aa           	tax
    1b2b: a9 00        	lda	#$0
    1b2d: e5 17        	sbc	$17                     ; 0x2017 <malloc+0xa1>
    1b2f: a8           	tay
    1b30: 18           	clc
    1b31: 8a           	txa
    1b32: 65 12        	adc	$12                     ; 0x2012 <malloc+0x9c>
    1b34: 85 40        	sta	$40                     ; 0x2040 <malloc+0xca>
    1b36: 98           	tya
    1b37: 65 13        	adc	$13                     ; 0x2013 <malloc+0x9d>
    1b39: a4 75        	ldy	$75                     ; 0x2075 <malloc+0xff>
    1b3b: 80 47        	bra	$1b84 <printf+0x7be>
    1b3d: c4 73        	cpy	$73                     ; 0x2073 <malloc+0xfd>
    1b3f: b0 25        	bcs	$1b66 <printf+0x7a0>
    1b41: a6 7f        	ldx	$7f                     ; 0x207f <malloc+0x109>
    1b43: e4 44        	cpx	$44                     ; 0x2044 <malloc+0xce>
    1b45: d0 18        	bne	$1b5f <printf+0x799>
    1b47: a6 7e        	ldx	$7e                     ; 0x207e <malloc+0x108>
    1b49: e4 43        	cpx	$43                     ; 0x2043 <malloc+0xcd>
    1b4b: d0 12        	bne	$1b5f <printf+0x799>
    1b4d: 18           	clc
    1b4e: a5 14        	lda	$14                     ; 0x2014 <malloc+0x9e>
    1b50: 65 78        	adc	$78                     ; 0x2078 <malloc+0x102>
    1b52: 85 12        	sta	$12                     ; 0x2012 <malloc+0x9c>
    1b54: 98           	tya
    1b55: 65 79        	adc	$79                     ; 0x2079 <malloc+0x103>
    1b57: 85 13        	sta	$13                     ; 0x2013 <malloc+0x9d>
    1b59: a9 20        	lda	#$20
    1b5b: 92 12        	sta	($12)                   ; 0x2012 <malloc+0x9c>
    1b5d: 80 05        	bra	$1b64 <printf+0x79e>
    1b5f: a9 20        	lda	#$20
    1b61: 20 d6 11     	jsr	$11d6 <__putchar>
    1b64: a5 49        	lda	$49                     ; 0x2049 <malloc+0xd3>
    1b66: a6 74        	ldx	$74                     ; 0x2074 <malloc+0xfe>
    1b68: a4 75        	ldy	$75                     ; 0x2075 <malloc+0xff>
    1b6a: e8           	inx
    1b6b: d0 01        	bne	$1b6e <printf+0x7a8>
    1b6d: c8           	iny
    1b6e: 86 14        	stx	$14                     ; 0x2014 <malloc+0x9e>
    1b70: 86 74        	stx	$74                     ; 0x2074 <malloc+0xfe>
    1b72: 84 75        	sty	$75                     ; 0x2075 <malloc+0xff>
    1b74: a6 40        	ldx	$40                     ; 0x2040 <malloc+0xca>
    1b76: e8           	inx
    1b77: d0 01        	bne	$1b7a <printf+0x7b4>
    1b79: 1a           	inc
    1b7a: 86 40        	stx	$40                     ; 0x2040 <malloc+0xca>
    1b7c: c9 00        	cmp	#$0
    1b7e: d0 04        	bne	$1b84 <printf+0x7be>
    1b80: e0 00        	cpx	#$0
    1b82: f0 13        	beq	$1b97 <printf+0x7d1>
    1b84: 85 49        	sta	$49                     ; 0x2049 <malloc+0xd3>
    1b86: c4 73        	cpy	$73                     ; 0x2073 <malloc+0xfd>
    1b88: d0 b3        	bne	$1b3d <printf+0x777>
    1b8a: a6 72        	ldx	$72                     ; 0x2072 <malloc+0xfc>
    1b8c: 86 12        	stx	$12                     ; 0x2012 <malloc+0x9c>
    1b8e: a6 14        	ldx	$14                     ; 0x2014 <malloc+0x9e>
    1b90: e4 12        	cpx	$12                     ; 0x2012 <malloc+0x9c>
    1b92: b0 d2        	bcs	$1b66 <printf+0x7a0>
    1b94: 4c 41 1b     	jmp	$1b41 <printf+0x77b>
    1b97: 64 4a        	stz	$4a                     ; 0x204a <malloc+0xd4>
    1b99: 64 49        	stz	$49                     ; 0x2049 <malloc+0xd3>
    1b9b: a4 3f        	ldy	$3f                     ; 0x203f <malloc+0xc9>
    1b9d: a6 85        	ldx	$85                     ; 0x2085 <malloc+0x10f>
    1b9f: d0 4d        	bne	$1bee <printf+0x828>
    1ba1: a6 74        	ldx	$74                     ; 0x2074 <malloc+0xfe>
    1ba3: a5 75        	lda	$75                     ; 0x2075 <malloc+0xff>
    1ba5: c5 73        	cmp	$73                     ; 0x2073 <malloc+0xfd>
    1ba7: d0 10        	bne	$1bb9 <printf+0x7f3>
    1ba9: 86 13        	stx	$13                     ; 0x2013 <malloc+0x9d>
    1bab: a6 72        	ldx	$72                     ; 0x2072 <malloc+0xfc>
    1bad: 86 12        	stx	$12                     ; 0x2012 <malloc+0x9c>
    1baf: a4 3f        	ldy	$3f                     ; 0x203f <malloc+0xc9>
    1bb1: a6 13        	ldx	$13                     ; 0x2013 <malloc+0x9d>
    1bb3: e4 12        	cpx	$12                     ; 0x2012 <malloc+0x9c>
    1bb5: 90 08        	bcc	$1bbf <printf+0x7f9>
    1bb7: 80 2f        	bra	$1be8 <printf+0x822>
    1bb9: 86 13        	stx	$13                     ; 0x2013 <malloc+0x9d>
    1bbb: c5 73        	cmp	$73                     ; 0x2073 <malloc+0xfd>
    1bbd: b0 29        	bcs	$1be8 <printf+0x822>
    1bbf: a6 7f        	ldx	$7f                     ; 0x207f <malloc+0x109>
    1bc1: e4 44        	cpx	$44                     ; 0x2044 <malloc+0xce>
    1bc3: d0 1c        	bne	$1be1 <printf+0x81b>
    1bc5: a6 7e        	ldx	$7e                     ; 0x207e <malloc+0x108>
    1bc7: e4 43        	cpx	$43                     ; 0x2043 <malloc+0xcd>
    1bc9: d0 16        	bne	$1be1 <printf+0x81b>
    1bcb: 18           	clc
    1bcc: 85 12        	sta	$12                     ; 0x2012 <malloc+0x9c>
    1bce: a5 13        	lda	$13                     ; 0x2013 <malloc+0x9d>
    1bd0: 65 78        	adc	$78                     ; 0x2078 <malloc+0x102>
    1bd2: aa           	tax
    1bd3: a5 12        	lda	$12                     ; 0x2012 <malloc+0x9c>
    1bd5: 65 79        	adc	$79                     ; 0x2079 <malloc+0x103>
    1bd7: 86 12        	stx	$12                     ; 0x2012 <malloc+0x9c>
    1bd9: 85 13        	sta	$13                     ; 0x2013 <malloc+0x9d>
    1bdb: a5 86        	lda	$86                     ; 0x2086 <malloc+0x110>
    1bdd: 92 12        	sta	($12)                   ; 0x2012 <malloc+0x9c>
    1bdf: 80 05        	bra	$1be6 <printf+0x820>
    1be1: a5 86        	lda	$86                     ; 0x2086 <malloc+0x110>
    1be3: 20 d6 11     	jsr	$11d6 <__putchar>
    1be6: a4 3f        	ldy	$3f                     ; 0x203f <malloc+0xc9>
    1be8: e6 74        	inc	$74                     ; 0x2074 <malloc+0xfe>
    1bea: d0 02        	bne	$1bee <printf+0x828>
    1bec: e6 75        	inc	$75                     ; 0x2075 <malloc+0xff>
    1bee: a6 84        	ldx	$84                     ; 0x2084 <malloc+0x10e>
    1bf0: f0 4d        	beq	$1c3f <printf+0x879>
    1bf2: a6 74        	ldx	$74                     ; 0x2074 <malloc+0xfe>
    1bf4: a5 75        	lda	$75                     ; 0x2075 <malloc+0xff>
    1bf6: c5 73        	cmp	$73                     ; 0x2073 <malloc+0xfd>
    1bf8: d0 10        	bne	$1c0a <printf+0x844>
    1bfa: 86 13        	stx	$13                     ; 0x2013 <malloc+0x9d>
    1bfc: a6 72        	ldx	$72                     ; 0x2072 <malloc+0xfc>
    1bfe: 86 12        	stx	$12                     ; 0x2012 <malloc+0x9c>
    1c00: a4 3f        	ldy	$3f                     ; 0x203f <malloc+0xc9>
    1c02: a6 13        	ldx	$13                     ; 0x2013 <malloc+0x9d>
    1c04: e4 12        	cpx	$12                     ; 0x2012 <malloc+0x9c>
    1c06: 90 08        	bcc	$1c10 <printf+0x84a>
    1c08: 80 2f        	bra	$1c39 <printf+0x873>
    1c0a: 86 13        	stx	$13                     ; 0x2013 <malloc+0x9d>
    1c0c: c5 73        	cmp	$73                     ; 0x2073 <malloc+0xfd>
    1c0e: b0 29        	bcs	$1c39 <printf+0x873>
    1c10: a6 7f        	ldx	$7f                     ; 0x207f <malloc+0x109>
    1c12: e4 44        	cpx	$44                     ; 0x2044 <malloc+0xce>
    1c14: d0 1c        	bne	$1c32 <printf+0x86c>
    1c16: a6 7e        	ldx	$7e                     ; 0x207e <malloc+0x108>
    1c18: e4 43        	cpx	$43                     ; 0x2043 <malloc+0xcd>
    1c1a: d0 16        	bne	$1c32 <printf+0x86c>
    1c1c: 18           	clc
    1c1d: 85 12        	sta	$12                     ; 0x2012 <malloc+0x9c>
    1c1f: a5 13        	lda	$13                     ; 0x2013 <malloc+0x9d>
    1c21: 65 78        	adc	$78                     ; 0x2078 <malloc+0x102>
    1c23: aa           	tax
    1c24: a5 12        	lda	$12                     ; 0x2012 <malloc+0x9c>
    1c26: 65 79        	adc	$79                     ; 0x2079 <malloc+0x103>
    1c28: 86 12        	stx	$12                     ; 0x2012 <malloc+0x9c>
    1c2a: 85 13        	sta	$13                     ; 0x2013 <malloc+0x9d>
    1c2c: a5 89        	lda	$89                     ; 0x2089 <malloc+0x113>
    1c2e: 92 12        	sta	($12)                   ; 0x2012 <malloc+0x9c>
    1c30: 80 05        	bra	$1c37 <printf+0x871>
    1c32: a5 89        	lda	$89                     ; 0x2089 <malloc+0x113>
    1c34: 20 d6 11     	jsr	$11d6 <__putchar>
    1c37: a4 3f        	ldy	$3f                     ; 0x203f <malloc+0xc9>
    1c39: e6 74        	inc	$74                     ; 0x2074 <malloc+0xfe>
    1c3b: d0 02        	bne	$1c3f <printf+0x879>
    1c3d: e6 75        	inc	$75                     ; 0x2075 <malloc+0xff>
    1c3f: a9 10        	lda	#$10
    1c41: 25 70        	and	$70                     ; 0x2070 <malloc+0xfa>
    1c43: d0 03        	bne	$1c48 <printf+0x882>
    1c45: 4c d0 1c     	jmp	$1cd0 <printf+0x90a>
    1c48: a5 70        	lda	$70                     ; 0x2070 <malloc+0xfa>
    1c4a: 29 01        	and	#$1
    1c4c: 29 01        	and	#$1
    1c4e: f0 03        	beq	$1c53 <printf+0x88d>
    1c50: 4c d0 1c     	jmp	$1cd0 <printf+0x90a>
    1c53: a6 4a        	ldx	$4a                     ; 0x204a <malloc+0xd4>
    1c55: a5 49        	lda	$49                     ; 0x2049 <malloc+0xd3>
    1c57: d0 06        	bne	$1c5f <printf+0x899>
    1c59: 8a           	txa
    1c5a: d0 03        	bne	$1c5f <printf+0x899>
    1c5c: 4c 6e 1f     	jmp	$1f6e <printf+0xba8>
    1c5f: a6 74        	ldx	$74                     ; 0x2074 <malloc+0xfe>
    1c61: 86 13        	stx	$13                     ; 0x2013 <malloc+0x9d>
    1c63: a5 75        	lda	$75                     ; 0x2075 <malloc+0xff>
    1c65: 80 4f        	bra	$1cb6 <printf+0x8f0>
    1c67: c5 73        	cmp	$73                     ; 0x2073 <malloc+0xfd>
    1c69: b0 24        	bcs	$1c8f <printf+0x8c9>
    1c6b: a6 7f        	ldx	$7f                     ; 0x207f <malloc+0x109>
    1c6d: e4 44        	cpx	$44                     ; 0x2044 <malloc+0xce>
    1c6f: d0 19        	bne	$1c8a <printf+0x8c4>
    1c71: a6 7e        	ldx	$7e                     ; 0x207e <malloc+0x108>
    1c73: e4 43        	cpx	$43                     ; 0x2043 <malloc+0xcd>
    1c75: d0 13        	bne	$1c8a <printf+0x8c4>
    1c77: 18           	clc
    1c78: aa           	tax
    1c79: a5 13        	lda	$13                     ; 0x2013 <malloc+0x9d>
    1c7b: 65 78        	adc	$78                     ; 0x2078 <malloc+0x102>
    1c7d: 85 12        	sta	$12                     ; 0x2012 <malloc+0x9c>
    1c7f: 8a           	txa
    1c80: 65 79        	adc	$79                     ; 0x2079 <malloc+0x103>
    1c82: 85 13        	sta	$13                     ; 0x2013 <malloc+0x9d>
    1c84: a9 30        	lda	#$30
    1c86: 92 12        	sta	($12)                   ; 0x2012 <malloc+0x9c>
    1c88: 80 05        	bra	$1c8f <printf+0x8c9>
    1c8a: a9 30        	lda	#$30
    1c8c: 20 d6 11     	jsr	$11d6 <__putchar>
    1c8f: a6 74        	ldx	$74                     ; 0x2074 <malloc+0xfe>
    1c91: a5 75        	lda	$75                     ; 0x2075 <malloc+0xff>
    1c93: e8           	inx
    1c94: d0 01        	bne	$1c97 <printf+0x8d1>
    1c96: 1a           	inc
    1c97: 86 13        	stx	$13                     ; 0x2013 <malloc+0x9d>
    1c99: 86 74        	stx	$74                     ; 0x2074 <malloc+0xfe>
    1c9b: 85 75        	sta	$75                     ; 0x2075 <malloc+0xff>
    1c9d: a4 4a        	ldy	$4a                     ; 0x204a <malloc+0xd4>
    1c9f: a6 49        	ldx	$49                     ; 0x2049 <malloc+0xd3>
    1ca1: 86 12        	stx	$12                     ; 0x2012 <malloc+0x9c>
    1ca3: 88           	dey
    1ca4: c0 ff        	cpy	#$ff
    1ca6: d0 02        	bne	$1caa <printf+0x8e4>
    1ca8: c6 12        	dec	$12                     ; 0x2012 <malloc+0x9c>
    1caa: 84 4a        	sty	$4a                     ; 0x204a <malloc+0xd4>
    1cac: a6 12        	ldx	$12                     ; 0x2012 <malloc+0x9c>
    1cae: 86 49        	stx	$49                     ; 0x2049 <malloc+0xd3>
    1cb0: d0 04        	bne	$1cb6 <printf+0x8f0>
    1cb2: c0 00        	cpy	#$0
    1cb4: f0 14        	beq	$1cca <printf+0x904>
    1cb6: c5 73        	cmp	$73                     ; 0x2073 <malloc+0xfd>
    1cb8: f0 03        	beq	$1cbd <printf+0x8f7>
    1cba: 4c 67 1c     	jmp	$1c67 <printf+0x8a1>
    1cbd: a6 72        	ldx	$72                     ; 0x2072 <malloc+0xfc>
    1cbf: 86 12        	stx	$12                     ; 0x2012 <malloc+0x9c>
    1cc1: a6 13        	ldx	$13                     ; 0x2013 <malloc+0x9d>
    1cc3: e4 12        	cpx	$12                     ; 0x2012 <malloc+0x9c>
    1cc5: b0 c8        	bcs	$1c8f <printf+0x8c9>
    1cc7: 4c 6b 1c     	jmp	$1c6b <printf+0x8a5>
    1cca: 64 4a        	stz	$4a                     ; 0x204a <malloc+0xd4>
    1ccc: 64 49        	stz	$49                     ; 0x2049 <malloc+0xd3>
    1cce: a4 3f        	ldy	$3f                     ; 0x203f <malloc+0xc9>
    1cd0: a2 00        	ldx	#$0
    1cd2: e4 48        	cpx	$48                     ; 0x2048 <malloc+0xd2>
    1cd4: d0 07        	bne	$1cdd <printf+0x917>
    1cd6: c4 47        	cpy	$47                     ; 0x2047 <malloc+0xd1>
    1cd8: 90 0a        	bcc	$1ce4 <printf+0x91e>
    1cda: 4c 52 1d     	jmp	$1d52 <printf+0x98c>
    1cdd: e4 48        	cpx	$48                     ; 0x2048 <malloc+0xd2>
    1cdf: 90 03        	bcc	$1ce4 <printf+0x91e>
    1ce1: 4c 52 1d     	jmp	$1d52 <printf+0x98c>
    1ce4: a6 74        	ldx	$74                     ; 0x2074 <malloc+0xfe>
    1ce6: 86 13        	stx	$13                     ; 0x2013 <malloc+0x9d>
    1ce8: a5 75        	lda	$75                     ; 0x2075 <malloc+0xff>
    1cea: a2 ff        	ldx	#$ff
    1cec: c6 47        	dec	$47                     ; 0x2047 <malloc+0xd1>
    1cee: e4 47        	cpx	$47                     ; 0x2047 <malloc+0xd1>
    1cf0: d0 02        	bne	$1cf4 <printf+0x92e>
    1cf2: c6 48        	dec	$48                     ; 0x2048 <malloc+0xd2>
    1cf4: c5 73        	cmp	$73                     ; 0x2073 <malloc+0xfd>
    1cf6: d0 0c        	bne	$1d04 <printf+0x93e>
    1cf8: a6 72        	ldx	$72                     ; 0x2072 <malloc+0xfc>
    1cfa: 86 12        	stx	$12                     ; 0x2012 <malloc+0x9c>
    1cfc: a6 13        	ldx	$13                     ; 0x2013 <malloc+0x9d>
    1cfe: e4 12        	cpx	$12                     ; 0x2012 <malloc+0x9c>
    1d00: 90 06        	bcc	$1d08 <printf+0x942>
    1d02: 80 28        	bra	$1d2c <printf+0x966>
    1d04: c5 73        	cmp	$73                     ; 0x2073 <malloc+0xfd>
    1d06: b0 24        	bcs	$1d2c <printf+0x966>
    1d08: a6 7f        	ldx	$7f                     ; 0x207f <malloc+0x109>
    1d0a: e4 44        	cpx	$44                     ; 0x2044 <malloc+0xce>
    1d0c: d0 19        	bne	$1d27 <printf+0x961>
    1d0e: a6 7e        	ldx	$7e                     ; 0x207e <malloc+0x108>
    1d10: e4 43        	cpx	$43                     ; 0x2043 <malloc+0xcd>
    1d12: d0 13        	bne	$1d27 <printf+0x961>
    1d14: 18           	clc
    1d15: aa           	tax
    1d16: a5 13        	lda	$13                     ; 0x2013 <malloc+0x9d>
    1d18: 65 78        	adc	$78                     ; 0x2078 <malloc+0x102>
    1d1a: 85 12        	sta	$12                     ; 0x2012 <malloc+0x9c>
    1d1c: 8a           	txa
    1d1d: 65 79        	adc	$79                     ; 0x2079 <malloc+0x103>
    1d1f: 85 13        	sta	$13                     ; 0x2013 <malloc+0x9d>
    1d21: a9 30        	lda	#$30
    1d23: 92 12        	sta	($12)                   ; 0x2012 <malloc+0x9c>
    1d25: 80 05        	bra	$1d2c <printf+0x966>
    1d27: a9 30        	lda	#$30
    1d29: 20 d6 11     	jsr	$11d6 <__putchar>
    1d2c: a6 74        	ldx	$74                     ; 0x2074 <malloc+0xfe>
    1d2e: a5 75        	lda	$75                     ; 0x2075 <malloc+0xff>
    1d30: e8           	inx
    1d31: d0 01        	bne	$1d34 <printf+0x96e>
    1d33: 1a           	inc
    1d34: 86 13        	stx	$13                     ; 0x2013 <malloc+0x9d>
    1d36: 86 74        	stx	$74                     ; 0x2074 <malloc+0xfe>
    1d38: 85 75        	sta	$75                     ; 0x2075 <malloc+0xff>
    1d3a: a2 00        	ldx	#$0
    1d3c: e4 48        	cpx	$48                     ; 0x2048 <malloc+0xd2>
    1d3e: d0 09        	bne	$1d49 <printf+0x983>
    1d40: a4 3f        	ldy	$3f                     ; 0x203f <malloc+0xc9>
    1d42: c4 47        	cpy	$47                     ; 0x2047 <malloc+0xd1>
    1d44: b0 0c        	bcs	$1d52 <printf+0x98c>
    1d46: 4c ea 1c     	jmp	$1cea <printf+0x924>
    1d49: e4 48        	cpx	$48                     ; 0x2048 <malloc+0xd2>
    1d4b: a4 3f        	ldy	$3f                     ; 0x203f <malloc+0xc9>
    1d4d: b0 03        	bcs	$1d52 <printf+0x98c>
    1d4f: 4c ea 1c     	jmp	$1cea <printf+0x924>
    1d52: 98           	tya
    1d53: d0 03        	bne	$1d58 <printf+0x992>
    1d55: 4c 47 1e     	jmp	$1e47 <printf+0xa81>
    1d58: 88           	dey
    1d59: d0 03        	bne	$1d5e <printf+0x998>
    1d5b: 4c e6 1d     	jmp	$1de6 <printf+0xa20>
    1d5e: 84 47        	sty	$47                     ; 0x2047 <malloc+0xd1>
    1d60: a6 8a        	ldx	$8a                     ; 0x208a <malloc+0x114>
    1d62: 8a           	txa
    1d63: 18           	clc
    1d64: 65 47        	adc	$47                     ; 0x2047 <malloc+0xd1>
    1d66: 85 3f        	sta	$3f                     ; 0x203f <malloc+0xc9>
    1d68: a5 8b        	lda	$8b                     ; 0x208b <malloc+0x115>
    1d6a: 69 00        	adc	#$0
    1d6c: 85 40        	sta	$40                     ; 0x2040 <malloc+0xca>
    1d6e: 4c d8 1d     	jmp	$1dd8 <printf+0xa12>
    1d71: a8           	tay
    1d72: a9 80        	lda	#$80
    1d74: 25 70        	and	$70                     ; 0x2070 <malloc+0xfa>
    1d76: f0 04        	beq	$1d7c <printf+0x9b6>
    1d78: a2 61        	ldx	#$61
    1d7a: 80 02        	bra	$1d7e <printf+0x9b8>
    1d7c: a2 41        	ldx	#$41
    1d7e: 86 12        	stx	$12                     ; 0x2012 <malloc+0x9c>
    1d80: 18           	clc
    1d81: 98           	tya
    1d82: 65 12        	adc	$12                     ; 0x2012 <malloc+0x9c>
    1d84: 18           	clc
    1d85: 69 f6        	adc	#$f6
    1d87: a4 74        	ldy	$74                     ; 0x2074 <malloc+0xfe>
    1d89: a6 75        	ldx	$75                     ; 0x2075 <malloc+0xff>
    1d8b: e4 73        	cpx	$73                     ; 0x2073 <malloc+0xfd>
    1d8d: d0 0c        	bne	$1d9b <printf+0x9d5>
    1d8f: 86 14        	stx	$14                     ; 0x2014 <malloc+0x9e>
    1d91: a6 72        	ldx	$72                     ; 0x2072 <malloc+0xfc>
    1d93: 86 12        	stx	$12                     ; 0x2012 <malloc+0x9c>
    1d95: c4 12        	cpy	$12                     ; 0x2012 <malloc+0x9c>
    1d97: 90 08        	bcc	$1da1 <printf+0x9db>
    1d99: 80 27        	bra	$1dc2 <printf+0x9fc>
    1d9b: 86 14        	stx	$14                     ; 0x2014 <malloc+0x9e>
    1d9d: e4 73        	cpx	$73                     ; 0x2073 <malloc+0xfd>
    1d9f: b0 21        	bcs	$1dc2 <printf+0x9fc>
    1da1: a6 7f        	ldx	$7f                     ; 0x207f <malloc+0x109>
    1da3: e4 44        	cpx	$44                     ; 0x2044 <malloc+0xce>
    1da5: d0 18        	bne	$1dbf <printf+0x9f9>
    1da7: a6 7e        	ldx	$7e                     ; 0x207e <malloc+0x108>
    1da9: e4 43        	cpx	$43                     ; 0x2043 <malloc+0xcd>
    1dab: d0 12        	bne	$1dbf <printf+0x9f9>
    1dad: 18           	clc
    1dae: aa           	tax
    1daf: 98           	tya
    1db0: 65 78        	adc	$78                     ; 0x2078 <malloc+0x102>
    1db2: 85 12        	sta	$12                     ; 0x2012 <malloc+0x9c>
    1db4: a5 14        	lda	$14                     ; 0x2014 <malloc+0x9e>
    1db6: 65 79        	adc	$79                     ; 0x2079 <malloc+0x103>
    1db8: 85 13        	sta	$13                     ; 0x2013 <malloc+0x9d>
    1dba: 8a           	txa
    1dbb: 92 12        	sta	($12)                   ; 0x2012 <malloc+0x9c>
    1dbd: 80 03        	bra	$1dc2 <printf+0x9fc>
    1dbf: 20 d6 11     	jsr	$11d6 <__putchar>
    1dc2: e6 74        	inc	$74                     ; 0x2074 <malloc+0xfe>
    1dc4: d0 02        	bne	$1dc8 <printf+0xa02>
    1dc6: e6 75        	inc	$75                     ; 0x2075 <malloc+0xff>
    1dc8: c6 47        	dec	$47                     ; 0x2047 <malloc+0xd1>
    1dca: a2 ff        	ldx	#$ff
    1dcc: c6 3f        	dec	$3f                     ; 0x203f <malloc+0xc9>
    1dce: e4 3f        	cpx	$3f                     ; 0x203f <malloc+0xc9>
    1dd0: d0 02        	bne	$1dd4 <printf+0xa0e>
    1dd2: c6 40        	dec	$40                     ; 0x2040 <malloc+0xca>
    1dd4: a5 47        	lda	$47                     ; 0x2047 <malloc+0xd1>
    1dd6: f0 0e        	beq	$1de6 <printf+0xa20>
    1dd8: b2 3f        	lda	($3f)                   ; 0x203f <malloc+0xc9>
    1dda: c9 0a        	cmp	#$a
    1ddc: 90 03        	bcc	$1de1 <printf+0xa1b>
    1dde: 4c 71 1d     	jmp	$1d71 <printf+0x9ab>
    1de1: 09 30        	ora	#$30
    1de3: 4c 87 1d     	jmp	$1d87 <printf+0x9c1>
    1de6: a5 4d        	lda	$4d                     ; 0x204d <malloc+0xd7>
    1de8: c9 0a        	cmp	#$a
    1dea: b0 04        	bcs	$1df0 <printf+0xa2a>
    1dec: 09 30        	ora	#$30
    1dee: 80 16        	bra	$1e06 <printf+0xa40>
    1df0: a8           	tay
    1df1: a9 80        	lda	#$80
    1df3: 25 70        	and	$70                     ; 0x2070 <malloc+0xfa>
    1df5: f0 04        	beq	$1dfb <printf+0xa35>
    1df7: a2 61        	ldx	#$61
    1df9: 80 02        	bra	$1dfd <printf+0xa37>
    1dfb: a2 41        	ldx	#$41
    1dfd: 86 12        	stx	$12                     ; 0x2012 <malloc+0x9c>
    1dff: 18           	clc
    1e00: 98           	tya
    1e01: 65 12        	adc	$12                     ; 0x2012 <malloc+0x9c>
    1e03: 18           	clc
    1e04: 69 f6        	adc	#$f6
    1e06: a4 74        	ldy	$74                     ; 0x2074 <malloc+0xfe>
    1e08: a6 75        	ldx	$75                     ; 0x2075 <malloc+0xff>
    1e0a: e4 73        	cpx	$73                     ; 0x2073 <malloc+0xfd>
    1e0c: d0 0c        	bne	$1e1a <printf+0xa54>
    1e0e: 86 14        	stx	$14                     ; 0x2014 <malloc+0x9e>
    1e10: a6 72        	ldx	$72                     ; 0x2072 <malloc+0xfc>
    1e12: 86 12        	stx	$12                     ; 0x2012 <malloc+0x9c>
    1e14: c4 12        	cpy	$12                     ; 0x2012 <malloc+0x9c>
    1e16: 90 08        	bcc	$1e20 <printf+0xa5a>
    1e18: 80 27        	bra	$1e41 <printf+0xa7b>
    1e1a: 86 14        	stx	$14                     ; 0x2014 <malloc+0x9e>
    1e1c: e4 73        	cpx	$73                     ; 0x2073 <malloc+0xfd>
    1e1e: b0 21        	bcs	$1e41 <printf+0xa7b>
    1e20: a6 7f        	ldx	$7f                     ; 0x207f <malloc+0x109>
    1e22: e4 44        	cpx	$44                     ; 0x2044 <malloc+0xce>
    1e24: d0 18        	bne	$1e3e <printf+0xa78>
    1e26: a6 7e        	ldx	$7e                     ; 0x207e <malloc+0x108>
    1e28: e4 43        	cpx	$43                     ; 0x2043 <malloc+0xcd>
    1e2a: d0 12        	bne	$1e3e <printf+0xa78>
    1e2c: 18           	clc
    1e2d: aa           	tax
    1e2e: 98           	tya
    1e2f: 65 78        	adc	$78                     ; 0x2078 <malloc+0x102>
    1e31: 85 12        	sta	$12                     ; 0x2012 <malloc+0x9c>
    1e33: a5 14        	lda	$14                     ; 0x2014 <malloc+0x9e>
    1e35: 65 79        	adc	$79                     ; 0x2079 <malloc+0x103>
    1e37: 85 13        	sta	$13                     ; 0x2013 <malloc+0x9d>
    1e39: 8a           	txa
    1e3a: 92 12        	sta	($12)                   ; 0x2012 <malloc+0x9c>
    1e3c: 80 03        	bra	$1e41 <printf+0xa7b>
    1e3e: 20 d6 11     	jsr	$11d6 <__putchar>
    1e41: e6 74        	inc	$74                     ; 0x2074 <malloc+0xfe>
    1e43: d0 02        	bne	$1e47 <printf+0xa81>
    1e45: e6 75        	inc	$75                     ; 0x2075 <malloc+0xff>
    1e47: a9 01        	lda	#$1
    1e49: 25 70        	and	$70                     ; 0x2070 <malloc+0xfa>
    1e4b: 29 01        	and	#$1
    1e4d: d0 1e        	bne	$1e6d <printf+0xaa7>
    1e4f: a6 74        	ldx	$74                     ; 0x2074 <malloc+0xfe>
    1e51: 86 14        	stx	$14                     ; 0x2014 <malloc+0x9e>
    1e53: a5 75        	lda	$75                     ; 0x2075 <malloc+0xff>
    1e55: a4 72        	ldy	$72                     ; 0x2072 <malloc+0xfc>
    1e57: a6 73        	ldx	$73                     ; 0x2073 <malloc+0xfd>
    1e59: 86 12        	stx	$12                     ; 0x2012 <malloc+0x9c>
    1e5b: 86 13        	stx	$13                     ; 0x2013 <malloc+0x9d>
    1e5d: c5 12        	cmp	$12                     ; 0x2012 <malloc+0x9c>
    1e5f: f0 03        	beq	$1e64 <printf+0xa9e>
    1e61: 4c f0 1e     	jmp	$1ef0 <printf+0xb2a>
    1e64: 84 12        	sty	$12                     ; 0x2012 <malloc+0x9c>
    1e66: a6 14        	ldx	$14                     ; 0x2014 <malloc+0x9e>
    1e68: e4 12        	cpx	$12                     ; 0x2012 <malloc+0x9c>
    1e6a: 4c f4 1e     	jmp	$1ef4 <printf+0xb2e>
    1e6d: a6 74        	ldx	$74                     ; 0x2074 <malloc+0xfe>
    1e6f: 86 14        	stx	$14                     ; 0x2014 <malloc+0x9e>
    1e71: a5 75        	lda	$75                     ; 0x2075 <malloc+0xff>
    1e73: a6 4a        	ldx	$4a                     ; 0x204a <malloc+0xd4>
    1e75: a4 49        	ldy	$49                     ; 0x2049 <malloc+0xd3>
    1e77: f0 03        	beq	$1e7c <printf+0xab6>
    1e79: 4c dc 1e     	jmp	$1edc <printf+0xb16>
    1e7c: e0 00        	cpx	#$0
    1e7e: f0 d5        	beq	$1e55 <printf+0xa8f>
    1e80: 4c dc 1e     	jmp	$1edc <printf+0xb16>
    1e83: c5 73        	cmp	$73                     ; 0x2073 <malloc+0xfd>
    1e85: b0 24        	bcs	$1eab <printf+0xae5>
    1e87: a6 7f        	ldx	$7f                     ; 0x207f <malloc+0x109>
    1e89: e4 44        	cpx	$44                     ; 0x2044 <malloc+0xce>
    1e8b: d0 19        	bne	$1ea6 <printf+0xae0>
    1e8d: a6 7e        	ldx	$7e                     ; 0x207e <malloc+0x108>
    1e8f: e4 43        	cpx	$43                     ; 0x2043 <malloc+0xcd>
    1e91: d0 13        	bne	$1ea6 <printf+0xae0>
    1e93: 18           	clc
    1e94: aa           	tax
    1e95: a5 14        	lda	$14                     ; 0x2014 <malloc+0x9e>
    1e97: 65 78        	adc	$78                     ; 0x2078 <malloc+0x102>
    1e99: 85 12        	sta	$12                     ; 0x2012 <malloc+0x9c>
    1e9b: 8a           	txa
    1e9c: 65 79        	adc	$79                     ; 0x2079 <malloc+0x103>
    1e9e: 85 13        	sta	$13                     ; 0x2013 <malloc+0x9d>
    1ea0: a9 20        	lda	#$20
    1ea2: 92 12        	sta	($12)                   ; 0x2012 <malloc+0x9c>
    1ea4: 80 05        	bra	$1eab <printf+0xae5>
    1ea6: a9 20        	lda	#$20
    1ea8: 20 d6 11     	jsr	$11d6 <__putchar>
    1eab: a6 74        	ldx	$74                     ; 0x2074 <malloc+0xfe>
    1ead: a5 75        	lda	$75                     ; 0x2075 <malloc+0xff>
    1eaf: e8           	inx
    1eb0: d0 01        	bne	$1eb3 <printf+0xaed>
    1eb2: 1a           	inc
    1eb3: 86 14        	stx	$14                     ; 0x2014 <malloc+0x9e>
    1eb5: 86 74        	stx	$74                     ; 0x2074 <malloc+0xfe>
    1eb7: 85 75        	sta	$75                     ; 0x2075 <malloc+0xff>
    1eb9: a6 4a        	ldx	$4a                     ; 0x204a <malloc+0xd4>
    1ebb: 86 12        	stx	$12                     ; 0x2012 <malloc+0x9c>
    1ebd: a6 49        	ldx	$49                     ; 0x2049 <malloc+0xd3>
    1ebf: 86 13        	stx	$13                     ; 0x2013 <malloc+0x9d>
    1ec1: a2 ff        	ldx	#$ff
    1ec3: c6 12        	dec	$12                     ; 0x2012 <malloc+0x9c>
    1ec5: e4 12        	cpx	$12                     ; 0x2012 <malloc+0x9c>
    1ec7: d0 02        	bne	$1ecb <printf+0xb05>
    1ec9: c6 13        	dec	$13                     ; 0x2013 <malloc+0x9d>
    1ecb: a6 12        	ldx	$12                     ; 0x2012 <malloc+0x9c>
    1ecd: 86 4a        	stx	$4a                     ; 0x204a <malloc+0xd4>
    1ecf: a6 13        	ldx	$13                     ; 0x2013 <malloc+0x9d>
    1ed1: 86 49        	stx	$49                     ; 0x2049 <malloc+0xd3>
    1ed3: d0 07        	bne	$1edc <printf+0xb16>
    1ed5: a6 12        	ldx	$12                     ; 0x2012 <malloc+0x9c>
    1ed7: d0 03        	bne	$1edc <printf+0xb16>
    1ed9: 4c 55 1e     	jmp	$1e55 <printf+0xa8f>
    1edc: c5 73        	cmp	$73                     ; 0x2073 <malloc+0xfd>
    1ede: f0 03        	beq	$1ee3 <printf+0xb1d>
    1ee0: 4c 83 1e     	jmp	$1e83 <printf+0xabd>
    1ee3: a6 72        	ldx	$72                     ; 0x2072 <malloc+0xfc>
    1ee5: 86 12        	stx	$12                     ; 0x2012 <malloc+0x9c>
    1ee7: a6 14        	ldx	$14                     ; 0x2014 <malloc+0x9e>
    1ee9: e4 12        	cpx	$12                     ; 0x2012 <malloc+0x9c>
    1eeb: b0 be        	bcs	$1eab <printf+0xae5>
    1eed: 4c 87 1e     	jmp	$1e87 <printf+0xac1>
    1ef0: 86 12        	stx	$12                     ; 0x2012 <malloc+0x9c>
    1ef2: c5 12        	cmp	$12                     ; 0x2012 <malloc+0x9c>
    1ef4: 98           	tya
    1ef5: a0 01        	ldy	#$1
    1ef7: 90 20        	bcc	$1f19 <printf+0xb53>
    1ef9: a6 13        	ldx	$13                     ; 0x2013 <malloc+0x9d>
    1efb: d0 03        	bne	$1f00 <printf+0xb3a>
    1efd: aa           	tax
    1efe: f0 19        	beq	$1f19 <printf+0xb53>
    1f00: 18           	clc
    1f01: 65 78        	adc	$78                     ; 0x2078 <malloc+0x102>
    1f03: 85 12        	sta	$12                     ; 0x2012 <malloc+0x9c>
    1f05: a5 13        	lda	$13                     ; 0x2013 <malloc+0x9d>
    1f07: 65 79        	adc	$79                     ; 0x2079 <malloc+0x103>
    1f09: 85 13        	sta	$13                     ; 0x2013 <malloc+0x9d>
    1f0b: a2 ff        	ldx	#$ff
    1f0d: c6 12        	dec	$12                     ; 0x2012 <malloc+0x9c>
    1f0f: e4 12        	cpx	$12                     ; 0x2012 <malloc+0x9c>
    1f11: d0 02        	bne	$1f15 <printf+0xb4f>
    1f13: c6 13        	dec	$13                     ; 0x2013 <malloc+0x9d>
    1f15: a9 00        	lda	#$0
    1f17: 92 12        	sta	($12)                   ; 0x2012 <malloc+0x9c>
    1f19: e6 41        	inc	$41                     ; 0x2041 <malloc+0xcb>
    1f1b: d0 02        	bne	$1f1f <printf+0xb59>
    1f1d: e6 42        	inc	$42                     ; 0x2042 <malloc+0xcc>
    1f1f: a6 42        	ldx	$42                     ; 0x2042 <malloc+0xcc>
    1f21: e4 46        	cpx	$46                     ; 0x2046 <malloc+0xd0>
    1f23: f0 03        	beq	$1f28 <printf+0xb62>
    1f25: 4c 2b 14     	jmp	$142b <printf+0x65>
    1f28: a6 41        	ldx	$41                     ; 0x2041 <malloc+0xcb>
    1f2a: e4 45        	cpx	$45                     ; 0x2045 <malloc+0xcf>
    1f2c: f0 03        	beq	$1f31 <printf+0xb6b>
    1f2e: 4c 2b 14     	jmp	$142b <printf+0x65>
    1f31: b2 45        	lda	($45)                   ; 0x2045 <malloc+0xcf>
    1f33: a2 00        	ldx	#$0
    1f35: 86 43        	stx	$43                     ; 0x2043 <malloc+0xcd>
    1f37: a2 00        	ldx	#$0
    1f39: 86 44        	stx	$44                     ; 0x2044 <malloc+0xce>
    1f3b: 4c 3f 14     	jmp	$143f <printf+0x79>
    1f3e: e4 48        	cpx	$48                     ; 0x2048 <malloc+0xd2>
    1f40: a6 40        	ldx	$40                     ; 0x2040 <malloc+0xca>
    1f42: b0 03        	bcs	$1f47 <printf+0xb81>
    1f44: 4c 6b 1a     	jmp	$1a6b <printf+0x6a5>
    1f47: a5 3f        	lda	$3f                     ; 0x203f <malloc+0xc9>
    1f49: 85 47        	sta	$47                     ; 0x2047 <malloc+0xd1>
    1f4b: 64 48        	stz	$48                     ; 0x2048 <malloc+0xd2>
    1f4d: e6 47        	inc	$47                     ; 0x2047 <malloc+0xd1>
    1f4f: f0 03        	beq	$1f54 <printf+0xb8e>
    1f51: 4c 6b 1a     	jmp	$1a6b <printf+0x6a5>
    1f54: e6 48        	inc	$48                     ; 0x2048 <malloc+0xd2>
    1f56: 4c 6b 1a     	jmp	$1a6b <printf+0x6a5>
    1f59: a2 58        	ldx	#$58
    1f5b: 86 89        	stx	$89                     ; 0x2089 <malloc+0x113>
    1f5d: a2 01        	ldx	#$1
    1f5f: 86 84        	stx	$84                     ; 0x2084 <malloc+0x10e>
    1f61: a2 30        	ldx	#$30
    1f63: 86 86        	stx	$86                     ; 0x2086 <malloc+0x110>
    1f65: a9 02        	lda	#$2
    1f67: a2 00        	ldx	#$0
    1f69: 86 85        	stx	$85                     ; 0x2085 <malloc+0x10f>
    1f6b: 4c ac 1a     	jmp	$1aac <printf+0x6e6>
    1f6e: 64 4a        	stz	$4a                     ; 0x204a <malloc+0xd4>
    1f70: 64 49        	stz	$49                     ; 0x2049 <malloc+0xd3>
    1f72: 4c d0 1c     	jmp	$1cd0 <printf+0x90a>
    1f75: 60           	rts

00001f76 <malloc>:
    1f76: a8           	tay
    1f77: 8a           	txa
    1f78: a2 00        	ldx	#$0
    1f7a: 86 12        	stx	$12                     ; 0x2012 <malloc+0x9c>
    1f7c: a2 00        	ldx	#$0
    1f7e: 86 13        	stx	$13                     ; 0x2013 <malloc+0x9d>
    1f80: aa           	tax
    1f81: d0 07        	bne	$1f8a <malloc+0x14>
    1f83: c0 00        	cpy	#$0
    1f85: d0 03        	bne	$1f8a <malloc+0x14>
    1f87: 4c 7c 20     	jmp	$207c <malloc+0x106>
    1f8a: 84 16        	sty	$16                     ; 0x2016 <malloc+0xa0>
    1f8c: aa           	tax
    1f8d: d0 0e        	bne	$1f9d <malloc+0x27>
    1f8f: a6 16        	ldx	$16                     ; 0x2016 <malloc+0xa0>
    1f91: e0 07        	cpx	#$7
    1f93: b0 0c        	bcs	$1fa1 <malloc+0x2b>
    1f95: a2 08        	ldx	#$8
    1f97: 86 40        	stx	$40                     ; 0x2040 <malloc+0xca>
    1f99: a9 00        	lda	#$0
    1f9b: 80 2f        	bra	$1fcc <malloc+0x56>
    1f9d: c9 00        	cmp	#$0
    1f9f: 90 f4        	bcc	$1f95 <malloc+0x1f>
    1fa1: a8           	tay
    1fa2: a5 16        	lda	$16                     ; 0x2016 <malloc+0xa0>
    1fa4: 29 01        	and	#$1
    1fa6: a2 02        	ldx	#$2
    1fa8: 64 14        	stz	$14                     ; 0x2014 <malloc+0x9e>
    1faa: c9 00        	cmp	#$0
    1fac: f0 02        	beq	$1fb0 <malloc+0x3a>
    1fae: a2 03        	ldx	#$3
    1fb0: 86 15        	stx	$15                     ; 0x2015 <malloc+0x9f>
    1fb2: 18           	clc
    1fb3: a5 16        	lda	$16                     ; 0x2016 <malloc+0xa0>
    1fb5: 65 15        	adc	$15                     ; 0x2015 <malloc+0x9f>
    1fb7: aa           	tax
    1fb8: 98           	tya
    1fb9: 65 14        	adc	$14                     ; 0x2014 <malloc+0x9e>
    1fbb: 90 03        	bcc	$1fc0 <malloc+0x4a>
    1fbd: 4c 7c 20     	jmp	$207c <malloc+0x106>
    1fc0: 86 40        	stx	$40                     ; 0x2040 <malloc+0xca>
    1fc2: a8           	tay
    1fc3: d0 07        	bne	$1fcc <malloc+0x56>
    1fc5: e0 00        	cpx	#$0
    1fc7: d0 03        	bne	$1fcc <malloc+0x56>
    1fc9: 4c 7c 20     	jmp	$207c <malloc+0x106>
    1fcc: 85 3f        	sta	$3f                     ; 0x203f <malloc+0xc9>
    1fce: ad 0b 26     	lda	$260b                   ; 0x260b <_ZN12_GLOBAL__N_111initializedE>
    1fd1: 29 01        	and	#$1
    1fd3: d0 2d        	bne	$2002 <malloc+0x8c>
    1fd5: a9 00        	lda	#$0
    1fd7: a2 10        	ldx	#$10
    1fd9: a0 12        	ldy	#$12
    1fdb: 84 12        	sty	$12                     ; 0x2012 <malloc+0x9c>
    1fdd: a0 26        	ldy	#$26
    1fdf: 84 13        	sty	$13                     ; 0x2013 <malloc+0x9d>
    1fe1: 20 16 03     	jsr	$316 <_ZN12_GLOBAL__N_19FreeChunk6insertEPvj>
    1fe4: a2 00        	ldx	#$0
    1fe6: 86 12        	stx	$12                     ; 0x2012 <malloc+0x9c>
    1fe8: a2 00        	ldx	#$0
    1fea: 86 13        	stx	$13                     ; 0x2013 <malloc+0x9d>
    1fec: ae 13 26     	ldx	$2613                   ; 0x2613 <__heap_start+0x1>
    1fef: a9 fe        	lda	#$fe
    1ff1: 2d 12 26     	and	$2612                   ; 0x2612 <__heap_start>
    1ff4: 8d 12 26     	sta	$2612                   ; 0x2612 <__heap_start>
    1ff7: 8e 13 26     	stx	$2613                   ; 0x2613 <__heap_start+0x1>
    1ffa: a2 01        	ldx	#$1
    1ffc: 8e 0c 26     	stx	$260c                   ; 0x260c <_ZN12_GLOBAL__N_19last_freeE>
    1fff: 8e 0b 26     	stx	$260b                   ; 0x260b <_ZN12_GLOBAL__N_111initializedE>
    2002: ae 0f 26     	ldx	$260f                   ; 0x260f <_ZN12_GLOBAL__N_19free_listE>
    2005: 86 16        	stx	$16                     ; 0x2016 <malloc+0xa0>
    2007: ac 10 26     	ldy	$2610                   ; 0x2610 <_ZN12_GLOBAL__N_19free_listE+0x1>
    200a: 84 17        	sty	$17                     ; 0x2017 <malloc+0xa1>
    200c: a9 00        	lda	#$0
    200e: 85 14        	sta	$14                     ; 0x2014 <malloc+0x9e>
    2010: a9 00        	lda	#$0
    2012: 85 15        	sta	$15                     ; 0x2015 <malloc+0x9f>
    2014: c4 15        	cpy	$15                     ; 0x2015 <malloc+0x9f>
    2016: d0 07        	bne	$201f <malloc+0xa9>
    2018: e4 14        	cpx	$14                     ; 0x2014 <malloc+0x9e>
    201a: d0 03        	bne	$201f <malloc+0xa9>
    201c: 4c 7c 20     	jmp	$207c <malloc+0x106>
    201f: a2 00        	ldx	#$0
    2021: a0 10        	ldy	#$10
    2023: 86 14        	stx	$14                     ; 0x2014 <malloc+0x9e>
    2025: 84 15        	sty	$15                     ; 0x2015 <malloc+0x9f>
    2027: 18           	clc
    2028: a9 12        	lda	#$12
    202a: 65 14        	adc	$14                     ; 0x2014 <malloc+0x9e>
    202c: 85 18        	sta	$18                     ; 0x2018 <malloc+0xa2>
    202e: a9 26        	lda	#$26
    2030: 65 15        	adc	$15                     ; 0x2015 <malloc+0x9f>
    2032: 85 43        	sta	$43                     ; 0x2043 <malloc+0xcd>
    2034: a0 01        	ldy	#$1
    2036: a6 3f        	ldx	$3f                     ; 0x203f <malloc+0xc9>
    2038: 86 19        	stx	$19                     ; 0x2019 <malloc+0xa3>
    203a: a6 16        	ldx	$16                     ; 0x2016 <malloc+0xa0>
    203c: 86 14        	stx	$14                     ; 0x2014 <malloc+0x9e>
    203e: a6 17        	ldx	$17                     ; 0x2017 <malloc+0xa1>
    2040: 86 15        	stx	$15                     ; 0x2015 <malloc+0x9f>
    2042: b1 14        	lda	($14),y                 ; 0x2014 <malloc+0x9e>
    2044: c5 19        	cmp	$19                     ; 0x2019 <malloc+0xa3>
    2046: d0 0e        	bne	$2056 <malloc+0xe0>
    2048: b2 14        	lda	($14)                   ; 0x2014 <malloc+0x9e>
    204a: 29 fe        	and	#$fe
    204c: a6 40        	ldx	$40                     ; 0x2040 <malloc+0xca>
    204e: 86 1a        	stx	$1a                     ; 0x201a <malloc+0xa4>
    2050: c5 1a        	cmp	$1a                     ; 0x201a <malloc+0xa4>
    2052: b0 29        	bcs	$207d <malloc+0x107>
    2054: 80 04        	bra	$205a <malloc+0xe4>
    2056: c5 19        	cmp	$19                     ; 0x2019 <malloc+0xa3>
    2058: b0 23        	bcs	$207d <malloc+0x107>
    205a: a5 14        	lda	$14                     ; 0x2014 <malloc+0x9e>
    205c: 18           	clc
    205d: 69 02        	adc	#$2
    205f: 85 1a        	sta	$1a                     ; 0x201a <malloc+0xa4>
    2061: a5 15        	lda	$15                     ; 0x2015 <malloc+0x9f>
    2063: 69 00        	adc	#$0
    2065: 85 1b        	sta	$1b                     ; 0x201b <malloc+0xa5>
    2067: a0 02        	ldy	#$2
    2069: b1 14        	lda	($14),y                 ; 0x2014 <malloc+0x9e>
    206b: 85 14        	sta	$14                     ; 0x2014 <malloc+0x9e>
    206d: 88           	dey
    206e: b1 1a        	lda	($1a),y                 ; 0x201a <malloc+0xa4>
    2070: 85 15        	sta	$15                     ; 0x2015 <malloc+0x9f>
    2072: c5 17        	cmp	$17                     ; 0x2017 <malloc+0xa1>
    2074: d0 cc        	bne	$2042 <malloc+0xcc>
    2076: a5 14        	lda	$14                     ; 0x2014 <malloc+0x9e>
    2078: c5 16        	cmp	$16                     ; 0x2016 <malloc+0xa0>
    207a: d0 c6        	bne	$2042 <malloc+0xcc>
    207c: 60           	rts
    207d: a6 18        	ldx	$18                     ; 0x2018 <malloc+0xa2>
    207f: 86 44        	stx	$44                     ; 0x2044 <malloc+0xce>
    2081: a6 14        	ldx	$14                     ; 0x2014 <malloc+0x9e>
    2083: 86 12        	stx	$12                     ; 0x2012 <malloc+0x9c>
    2085: a6 15        	ldx	$15                     ; 0x2015 <malloc+0x9f>
    2087: 86 13        	stx	$13                     ; 0x2013 <malloc+0x9d>
    2089: a6 14        	ldx	$14                     ; 0x2014 <malloc+0x9e>
    208b: 86 41        	stx	$41                     ; 0x2041 <malloc+0xcb>
    208d: a6 15        	ldx	$15                     ; 0x2015 <malloc+0x9f>
    208f: 86 42        	stx	$42                     ; 0x2042 <malloc+0xcc>
    2091: 20 50 04     	jsr	$450 <_ZN12_GLOBAL__N_19FreeChunk6removeEv>
    2094: a6 41        	ldx	$41                     ; 0x2041 <malloc+0xcb>
    2096: 86 12        	stx	$12                     ; 0x2012 <malloc+0x9c>
    2098: a6 42        	ldx	$42                     ; 0x2042 <malloc+0xcc>
    209a: 86 13        	stx	$13                     ; 0x2013 <malloc+0x9d>
    209c: a0 01        	ldy	#$1
    209e: b1 12        	lda	($12),y                 ; 0x2012 <malloc+0x9c>
    20a0: 85 15        	sta	$15                     ; 0x2015 <malloc+0x9f>
    20a2: a9 fe        	lda	#$fe
    20a4: 32 12        	and	($12)                   ; 0x2012 <malloc+0x9c>
    20a6: 38           	sec
    20a7: a6 40        	ldx	$40                     ; 0x2040 <malloc+0xca>
    20a9: 86 14        	stx	$14                     ; 0x2014 <malloc+0x9e>
    20ab: 85 17        	sta	$17                     ; 0x2017 <malloc+0xa1>
    20ad: e5 14        	sbc	$14                     ; 0x2014 <malloc+0x9e>
    20af: a8           	tay
    20b0: a6 3f        	ldx	$3f                     ; 0x203f <malloc+0xc9>
    20b2: 86 14        	stx	$14                     ; 0x2014 <malloc+0x9e>
    20b4: a5 15        	lda	$15                     ; 0x2015 <malloc+0x9f>
    20b6: 85 16        	sta	$16                     ; 0x2016 <malloc+0xa0>
    20b8: e5 14        	sbc	$14                     ; 0x2014 <malloc+0x9e>
    20ba: d0 06        	bne	$20c2 <malloc+0x14c>
    20bc: 85 18        	sta	$18                     ; 0x2018 <malloc+0xa2>
    20be: c0 08        	cpy	#$8
    20c0: 80 04        	bra	$20c6 <malloc+0x150>
    20c2: 85 18        	sta	$18                     ; 0x2018 <malloc+0xa2>
    20c4: c9 00        	cmp	#$0
    20c6: a6 44        	ldx	$44                     ; 0x2044 <malloc+0xce>
    20c8: 86 14        	stx	$14                     ; 0x2014 <malloc+0x9e>
    20ca: a6 43        	ldx	$43                     ; 0x2043 <malloc+0xcd>
    20cc: 86 15        	stx	$15                     ; 0x2015 <malloc+0x9f>
    20ce: a5 17        	lda	$17                     ; 0x2017 <malloc+0xa1>
    20d0: 90 43        	bcc	$2115 <malloc+0x19f>
    20d2: 18           	clc
    20d3: a6 40        	ldx	$40                     ; 0x2040 <malloc+0xca>
    20d5: 86 40        	stx	$40                     ; 0x2040 <malloc+0xca>
    20d7: 8a           	txa
    20d8: 65 12        	adc	$12                     ; 0x2012 <malloc+0x9c>
    20da: 85 12        	sta	$12                     ; 0x2012 <malloc+0x9c>
    20dc: a6 3f        	ldx	$3f                     ; 0x203f <malloc+0xc9>
    20de: 86 3f        	stx	$3f                     ; 0x203f <malloc+0xc9>
    20e0: a5 3f        	lda	$3f                     ; 0x203f <malloc+0xc9>
    20e2: 65 13        	adc	$13                     ; 0x2013 <malloc+0x9d>
    20e4: 85 13        	sta	$13                     ; 0x2013 <malloc+0x9d>
    20e6: a6 18        	ldx	$18                     ; 0x2018 <malloc+0xa2>
    20e8: 98           	tya
    20e9: 20 16 03     	jsr	$316 <_ZN12_GLOBAL__N_19FreeChunk6insertEPvj>
    20ec: a6 41        	ldx	$41                     ; 0x2041 <malloc+0xcb>
    20ee: 86 12        	stx	$12                     ; 0x2012 <malloc+0x9c>
    20f0: a6 42        	ldx	$42                     ; 0x2042 <malloc+0xcc>
    20f2: 86 13        	stx	$13                     ; 0x2013 <malloc+0x9d>
    20f4: a5 40        	lda	$40                     ; 0x2040 <malloc+0xca>
    20f6: 29 fe        	and	#$fe
    20f8: 85 14        	sta	$14                     ; 0x2014 <malloc+0x9e>
    20fa: a0 01        	ldy	#$1
    20fc: 98           	tya
    20fd: 32 12        	and	($12)                   ; 0x2012 <malloc+0x9c>
    20ff: 05 14        	ora	$14                     ; 0x2014 <malloc+0x9e>
    2101: 92 12        	sta	($12)                   ; 0x2012 <malloc+0x9c>
    2103: a5 3f        	lda	$3f                     ; 0x203f <malloc+0xc9>
    2105: 91 12        	sta	($12),y                 ; 0x2012 <malloc+0x9c>
    2107: a5 14        	lda	$14                     ; 0x2014 <malloc+0x9e>
    2109: a6 3f        	ldx	$3f                     ; 0x203f <malloc+0xc9>
    210b: 86 16        	stx	$16                     ; 0x2016 <malloc+0xa0>
    210d: a6 44        	ldx	$44                     ; 0x2044 <malloc+0xce>
    210f: 86 14        	stx	$14                     ; 0x2014 <malloc+0x9e>
    2111: a6 43        	ldx	$43                     ; 0x2043 <malloc+0xcd>
    2113: 86 15        	stx	$15                     ; 0x2015 <malloc+0x9f>
    2115: 18           	clc
    2116: 65 12        	adc	$12                     ; 0x2012 <malloc+0x9c>
    2118: a8           	tay
    2119: a5 16        	lda	$16                     ; 0x2016 <malloc+0xa0>
    211b: 65 13        	adc	$13                     ; 0x2013 <malloc+0x9d>
    211d: c5 15        	cmp	$15                     ; 0x2015 <malloc+0x9f>
    211f: d0 09        	bne	$212a <malloc+0x1b4>
    2121: c4 14        	cpy	$14                     ; 0x2014 <malloc+0x9e>
    2123: d0 05        	bne	$212a <malloc+0x1b4>
    2125: 9c 0c 26     	stz	$260c                   ; 0x260c <_ZN12_GLOBAL__N_19last_freeE>
    2128: 80 14        	bra	$213e <malloc+0x1c8>
    212a: 84 14        	sty	$14                     ; 0x2014 <malloc+0x9e>
    212c: 85 15        	sta	$15                     ; 0x2015 <malloc+0x9f>
    212e: a0 01        	ldy	#$1
    2130: b1 14        	lda	($14),y                 ; 0x2014 <malloc+0x9e>
    2132: 85 16        	sta	$16                     ; 0x2016 <malloc+0xa0>
    2134: a9 fe        	lda	#$fe
    2136: 32 14        	and	($14)                   ; 0x2014 <malloc+0x9e>
    2138: 92 14        	sta	($14)                   ; 0x2014 <malloc+0x9e>
    213a: a5 16        	lda	$16                     ; 0x2016 <malloc+0xa0>
    213c: 91 14        	sta	($14),y                 ; 0x2014 <malloc+0x9e>
    213e: a5 12        	lda	$12                     ; 0x2012 <malloc+0x9c>
    2140: 18           	clc
    2141: 69 02        	adc	#$2
    2143: 85 12        	sta	$12                     ; 0x2012 <malloc+0x9c>
    2145: a5 13        	lda	$13                     ; 0x2013 <malloc+0x9d>
    2147: 69 00        	adc	#$0
    2149: 85 13        	sta	$13                     ; 0x2013 <malloc+0x9d>
    214b: 60           	rts

0000214c <free>:
    214c: a6 12        	ldx	$12                     ; 0x2012 <malloc+0x9c>
    214e: 86 14        	stx	$14                     ; 0x2014 <malloc+0x9e>
    2150: a6 13        	ldx	$13                     ; 0x2013 <malloc+0x9d>
    2152: 86 15        	stx	$15                     ; 0x2015 <malloc+0x9f>
    2154: a2 00        	ldx	#$0
    2156: 86 12        	stx	$12                     ; 0x2012 <malloc+0x9c>
    2158: a2 00        	ldx	#$0
    215a: 86 13        	stx	$13                     ; 0x2013 <malloc+0x9d>
    215c: a6 15        	ldx	$15                     ; 0x2015 <malloc+0x9f>
    215e: e4 13        	cpx	$13                     ; 0x2013 <malloc+0x9d>
    2160: d0 09        	bne	$216b <free+0x1f>
    2162: a6 14        	ldx	$14                     ; 0x2014 <malloc+0x9e>
    2164: e4 12        	cpx	$12                     ; 0x2012 <malloc+0x9c>
    2166: d0 03        	bne	$216b <free+0x1f>
    2168: 4c cf 22     	jmp	$22cf <free+0x183>
    216b: a2 00        	ldx	#$0
    216d: a0 10        	ldy	#$10
    216f: a9 12        	lda	#$12
    2171: 86 12        	stx	$12                     ; 0x2012 <malloc+0x9c>
    2173: 84 13        	sty	$13                     ; 0x2013 <malloc+0x9d>
    2175: 18           	clc
    2176: 65 12        	adc	$12                     ; 0x2012 <malloc+0x9c>
    2178: 85 18        	sta	$18                     ; 0x2018 <malloc+0xa2>
    217a: a9 26        	lda	#$26
    217c: 65 13        	adc	$13                     ; 0x2013 <malloc+0x9d>
    217e: 85 19        	sta	$19                     ; 0x2019 <malloc+0xa3>
    2180: a5 14        	lda	$14                     ; 0x2014 <malloc+0x9e>
    2182: 18           	clc
    2183: 69 fe        	adc	#$fe
    2185: 85 12        	sta	$12                     ; 0x2012 <malloc+0x9c>
    2187: a5 15        	lda	$15                     ; 0x2015 <malloc+0x9f>
    2189: 69 ff        	adc	#$ff
    218b: a6 12        	ldx	$12                     ; 0x2012 <malloc+0x9c>
    218d: 86 3f        	stx	$3f                     ; 0x203f <malloc+0xc9>
    218f: aa           	tax
    2190: 85 40        	sta	$40                     ; 0x2040 <malloc+0xca>
    2192: b2 3f        	lda	($3f)                   ; 0x203f <malloc+0xc9>
    2194: 85 1a        	sta	$1a                     ; 0x201a <malloc+0xa4>
    2196: a0 01        	ldy	#$1
    2198: b1 3f        	lda	($3f),y                 ; 0x203f <malloc+0xc9>
    219a: 85 16        	sta	$16                     ; 0x2016 <malloc+0xa0>
    219c: a9 fe        	lda	#$fe
    219e: 32 3f        	and	($3f)                   ; 0x203f <malloc+0xc9>
    21a0: 85 17        	sta	$17                     ; 0x2017 <malloc+0xa1>
    21a2: a4 12        	ldy	$12                     ; 0x2012 <malloc+0x9c>
    21a4: 84 1b        	sty	$1b                     ; 0x201b <malloc+0xa5>
    21a6: a5 12        	lda	$12                     ; 0x2012 <malloc+0x9c>
    21a8: 18           	clc
    21a9: 65 17        	adc	$17                     ; 0x2017 <malloc+0xa1>
    21ab: 85 12        	sta	$12                     ; 0x2012 <malloc+0x9c>
    21ad: 8a           	txa
    21ae: 86 1c        	stx	$1c                     ; 0x201c <malloc+0xa6>
    21b0: 65 16        	adc	$16                     ; 0x2016 <malloc+0xa0>
    21b2: c5 19        	cmp	$19                     ; 0x2019 <malloc+0xa3>
    21b4: d0 10        	bne	$21c6 <free+0x7a>
    21b6: a6 12        	ldx	$12                     ; 0x2012 <malloc+0x9c>
    21b8: e4 18        	cpx	$18                     ; 0x2018 <malloc+0xa2>
    21ba: d0 0a        	bne	$21c6 <free+0x7a>
    21bc: a2 00        	ldx	#$0
    21be: 86 12        	stx	$12                     ; 0x2012 <malloc+0x9c>
    21c0: a2 00        	ldx	#$0
    21c2: 86 13        	stx	$13                     ; 0x2013 <malloc+0x9d>
    21c4: 80 02        	bra	$21c8 <free+0x7c>
    21c6: 85 13        	sta	$13                     ; 0x2013 <malloc+0x9d>
    21c8: a5 1a        	lda	$1a                     ; 0x201a <malloc+0xa4>
    21ca: 29 01        	and	#$1
    21cc: d0 03        	bne	$21d1 <free+0x85>
    21ce: 4c 4c 22     	jmp	$224c <free+0x100>
    21d1: a5 14        	lda	$14                     ; 0x2014 <malloc+0x9e>
    21d3: 18           	clc
    21d4: 69 fc        	adc	#$fc
    21d6: 85 14        	sta	$14                     ; 0x2014 <malloc+0x9e>
    21d8: a5 15        	lda	$15                     ; 0x2015 <malloc+0x9f>
    21da: 69 ff        	adc	#$ff
    21dc: 85 15        	sta	$15                     ; 0x2015 <malloc+0x9f>
    21de: a0 01        	ldy	#$1
    21e0: 38           	sec
    21e1: a9 00        	lda	#$0
    21e3: f2 14        	sbc	($14)                   ; 0x2014 <malloc+0x9e>
    21e5: 85 1a        	sta	$1a                     ; 0x201a <malloc+0xa4>
    21e7: a9 00        	lda	#$0
    21e9: f1 14        	sbc	($14),y                 ; 0x2014 <malloc+0x9e>
    21eb: 85 14        	sta	$14                     ; 0x2014 <malloc+0x9e>
    21ed: a5 1b        	lda	$1b                     ; 0x201b <malloc+0xa5>
    21ef: 18           	clc
    21f0: 65 1a        	adc	$1a                     ; 0x201a <malloc+0xa4>
    21f2: 85 3f        	sta	$3f                     ; 0x203f <malloc+0xc9>
    21f4: a5 1c        	lda	$1c                     ; 0x201c <malloc+0xa6>
    21f6: 65 14        	adc	$14                     ; 0x2014 <malloc+0x9e>
    21f8: 85 40        	sta	$40                     ; 0x2040 <malloc+0xca>
    21fa: b1 3f        	lda	($3f),y                 ; 0x203f <malloc+0xc9>
    21fc: 85 47        	sta	$47                     ; 0x2047 <malloc+0xd1>
    21fe: a9 fe        	lda	#$fe
    2200: 32 3f        	and	($3f)                   ; 0x203f <malloc+0xc9>
    2202: 85 48        	sta	$48                     ; 0x2048 <malloc+0xd2>
    2204: a6 12        	ldx	$12                     ; 0x2012 <malloc+0x9c>
    2206: 86 41        	stx	$41                     ; 0x2041 <malloc+0xcb>
    2208: a6 13        	ldx	$13                     ; 0x2013 <malloc+0x9d>
    220a: 86 42        	stx	$42                     ; 0x2042 <malloc+0xcc>
    220c: a6 3f        	ldx	$3f                     ; 0x203f <malloc+0xc9>
    220e: 86 12        	stx	$12                     ; 0x2012 <malloc+0x9c>
    2210: a6 40        	ldx	$40                     ; 0x2040 <malloc+0xca>
    2212: 86 13        	stx	$13                     ; 0x2013 <malloc+0x9d>
    2214: a6 16        	ldx	$16                     ; 0x2016 <malloc+0xa0>
    2216: 86 43        	stx	$43                     ; 0x2043 <malloc+0xcd>
    2218: a6 17        	ldx	$17                     ; 0x2017 <malloc+0xa1>
    221a: 86 44        	stx	$44                     ; 0x2044 <malloc+0xce>
    221c: a6 18        	ldx	$18                     ; 0x2018 <malloc+0xa2>
    221e: 86 45        	stx	$45                     ; 0x2045 <malloc+0xcf>
    2220: a6 19        	ldx	$19                     ; 0x2019 <malloc+0xa3>
    2222: 86 46        	stx	$46                     ; 0x2046 <malloc+0xd0>
    2224: 20 50 04     	jsr	$450 <_ZN12_GLOBAL__N_19FreeChunk6removeEv>
    2227: a6 46        	ldx	$46                     ; 0x2046 <malloc+0xd0>
    2229: 86 19        	stx	$19                     ; 0x2019 <malloc+0xa3>
    222b: a6 45        	ldx	$45                     ; 0x2045 <malloc+0xcf>
    222d: 86 18        	stx	$18                     ; 0x2018 <malloc+0xa2>
    222f: a6 41        	ldx	$41                     ; 0x2041 <malloc+0xcb>
    2231: 86 12        	stx	$12                     ; 0x2012 <malloc+0x9c>
    2233: a6 42        	ldx	$42                     ; 0x2042 <malloc+0xcc>
    2235: 86 13        	stx	$13                     ; 0x2013 <malloc+0x9d>
    2237: 18           	clc
    2238: a5 48        	lda	$48                     ; 0x2048 <malloc+0xd2>
    223a: a6 44        	ldx	$44                     ; 0x2044 <malloc+0xce>
    223c: 86 14        	stx	$14                     ; 0x2014 <malloc+0x9e>
    223e: 65 14        	adc	$14                     ; 0x2014 <malloc+0x9e>
    2240: 85 17        	sta	$17                     ; 0x2017 <malloc+0xa1>
    2242: a5 47        	lda	$47                     ; 0x2047 <malloc+0xd1>
    2244: a6 43        	ldx	$43                     ; 0x2043 <malloc+0xcd>
    2246: 86 14        	stx	$14                     ; 0x2014 <malloc+0x9e>
    2248: 65 14        	adc	$14                     ; 0x2014 <malloc+0x9e>
    224a: 85 16        	sta	$16                     ; 0x2016 <malloc+0xa0>
    224c: a2 00        	ldx	#$0
    224e: 86 14        	stx	$14                     ; 0x2014 <malloc+0x9e>
    2250: a2 00        	ldx	#$0
    2252: 86 15        	stx	$15                     ; 0x2015 <malloc+0x9f>
    2254: a6 13        	ldx	$13                     ; 0x2013 <malloc+0x9d>
    2256: e4 15        	cpx	$15                     ; 0x2015 <malloc+0x9f>
    2258: d0 0e        	bne	$2268 <free+0x11c>
    225a: a6 12        	ldx	$12                     ; 0x2012 <malloc+0x9c>
    225c: e4 14        	cpx	$14                     ; 0x2014 <malloc+0x9e>
    225e: d0 08        	bne	$2268 <free+0x11c>
    2260: a2 01        	ldx	#$1
    2262: 8e 0c 26     	stx	$260c                   ; 0x260c <_ZN12_GLOBAL__N_19last_freeE>
    2265: 4c c0 22     	jmp	$22c0 <free+0x174>
    2268: a0 01        	ldy	#$1
    226a: b1 12        	lda	($12),y                 ; 0x2012 <malloc+0x9c>
    226c: a8           	tay
    226d: a9 fe        	lda	#$fe
    226f: 32 12        	and	($12)                   ; 0x2012 <malloc+0x9c>
    2271: 18           	clc
    2272: 85 45        	sta	$45                     ; 0x2045 <malloc+0xcf>
    2274: 65 12        	adc	$12                     ; 0x2012 <malloc+0x9c>
    2276: 85 14        	sta	$14                     ; 0x2014 <malloc+0x9e>
    2278: 98           	tya
    2279: 85 41        	sta	$41                     ; 0x2041 <malloc+0xcb>
    227b: 65 13        	adc	$13                     ; 0x2013 <malloc+0x9d>
    227d: c5 19        	cmp	$19                     ; 0x2019 <malloc+0xa3>
    227f: d0 0f        	bne	$2290 <free+0x144>
    2281: a6 14        	ldx	$14                     ; 0x2014 <malloc+0x9e>
    2283: e4 18        	cpx	$18                     ; 0x2018 <malloc+0xa2>
    2285: d0 09        	bne	$2290 <free+0x144>
    2287: a9 01        	lda	#$1
    2289: 64 14        	stz	$14                     ; 0x2014 <malloc+0x9e>
    228b: 2d 0c 26     	and	$260c                   ; 0x260c <_ZN12_GLOBAL__N_19last_freeE>
    228e: 80 08        	bra	$2298 <free+0x14c>
    2290: 85 15        	sta	$15                     ; 0x2015 <malloc+0x9f>
    2292: a9 01        	lda	#$1
    2294: 32 14        	and	($14)                   ; 0x2014 <malloc+0x9e>
    2296: 64 14        	stz	$14                     ; 0x2014 <malloc+0x9e>
    2298: a6 14        	ldx	$14                     ; 0x2014 <malloc+0x9e>
    229a: d0 03        	bne	$229f <free+0x153>
    229c: aa           	tax
    229d: f0 31        	beq	$22d0 <free+0x184>
    229f: a6 16        	ldx	$16                     ; 0x2016 <malloc+0xa0>
    22a1: 86 43        	stx	$43                     ; 0x2043 <malloc+0xcd>
    22a3: a6 17        	ldx	$17                     ; 0x2017 <malloc+0xa1>
    22a5: 86 44        	stx	$44                     ; 0x2044 <malloc+0xce>
    22a7: 20 50 04     	jsr	$450 <_ZN12_GLOBAL__N_19FreeChunk6removeEv>
    22aa: 18           	clc
    22ab: a6 45        	ldx	$45                     ; 0x2045 <malloc+0xcf>
    22ad: 8a           	txa
    22ae: a6 44        	ldx	$44                     ; 0x2044 <malloc+0xce>
    22b0: 86 12        	stx	$12                     ; 0x2012 <malloc+0x9c>
    22b2: 65 12        	adc	$12                     ; 0x2012 <malloc+0x9c>
    22b4: 85 17        	sta	$17                     ; 0x2017 <malloc+0xa1>
    22b6: a5 41        	lda	$41                     ; 0x2041 <malloc+0xcb>
    22b8: a6 43        	ldx	$43                     ; 0x2043 <malloc+0xcd>
    22ba: 86 12        	stx	$12                     ; 0x2012 <malloc+0x9c>
    22bc: 65 12        	adc	$12                     ; 0x2012 <malloc+0x9c>
    22be: 85 16        	sta	$16                     ; 0x2016 <malloc+0xa0>
    22c0: a6 3f        	ldx	$3f                     ; 0x203f <malloc+0xc9>
    22c2: 86 12        	stx	$12                     ; 0x2012 <malloc+0x9c>
    22c4: a6 40        	ldx	$40                     ; 0x2040 <malloc+0xca>
    22c6: 86 13        	stx	$13                     ; 0x2013 <malloc+0x9d>
    22c8: a6 16        	ldx	$16                     ; 0x2016 <malloc+0xa0>
    22ca: a5 17        	lda	$17                     ; 0x2017 <malloc+0xa1>
    22cc: 20 16 03     	jsr	$316 <_ZN12_GLOBAL__N_19FreeChunk6insertEPvj>
    22cf: 60           	rts
    22d0: b2 12        	lda	($12)                   ; 0x2012 <malloc+0x9c>
    22d2: 09 01        	ora	#$1
    22d4: 92 12        	sta	($12)                   ; 0x2012 <malloc+0x9c>
    22d6: a0 01        	ldy	#$1
    22d8: a5 41        	lda	$41                     ; 0x2041 <malloc+0xcb>
    22da: 91 12        	sta	($12),y                 ; 0x2012 <malloc+0x9c>
    22dc: 80 e2        	bra	$22c0 <free+0x174>

000022de <memcpy>:
    22de: a8           	tay
    22df: 8a           	txa
    22e0: d0 03        	bne	$22e5 <memcpy+0x7>
    22e2: 98           	tya
    22e3: f0 24        	beq	$2309 <memcpy+0x2b>
    22e5: a5 12        	lda	$12                     ; 0x2012 <malloc+0x9c>
    22e7: 85 16        	sta	$16                     ; 0x2016 <malloc+0xa0>
    22e9: a5 13        	lda	$13                     ; 0x2013 <malloc+0x9d>
    22eb: 85 17        	sta	$17                     ; 0x2017 <malloc+0xa1>
    22ed: b2 14        	lda	($14)                   ; 0x2014 <malloc+0x9e>
    22ef: 92 16        	sta	($16)                   ; 0x2016 <malloc+0xa0>
    22f1: e6 16        	inc	$16                     ; 0x2016 <malloc+0xa0>
    22f3: d0 02        	bne	$22f7 <memcpy+0x19>
    22f5: e6 17        	inc	$17                     ; 0x2017 <malloc+0xa1>
    22f7: e6 14        	inc	$14                     ; 0x2014 <malloc+0x9e>
    22f9: d0 02        	bne	$22fd <memcpy+0x1f>
    22fb: e6 15        	inc	$15                     ; 0x2015 <malloc+0x9f>
    22fd: 88           	dey
    22fe: c0 ff        	cpy	#$ff
    2300: d0 01        	bne	$2303 <memcpy+0x25>
    2302: ca           	dex
    2303: 8a           	txa
    2304: d0 e7        	bne	$22ed <memcpy+0xf>
    2306: 98           	tya
    2307: d0 e4        	bne	$22ed <memcpy+0xf>
    2309: 60           	rts

0000230a <__memset>:
    230a: a4 14        	ldy	$14                     ; 0x2014 <malloc+0x9e>
    230c: d0 04        	bne	$2312 <__memset+0x8>
    230e: e0 00        	cpx	#$0
    2310: f0 17        	beq	$2329 <__memset+0x1f>
    2312: 92 12        	sta	($12)                   ; 0x2012 <malloc+0x9c>
    2314: e6 12        	inc	$12                     ; 0x2012 <malloc+0x9c>
    2316: d0 02        	bne	$231a <__memset+0x10>
    2318: e6 13        	inc	$13                     ; 0x2013 <malloc+0x9d>
    231a: ca           	dex
    231b: e0 ff        	cpx	#$ff
    231d: d0 02        	bne	$2321 <__memset+0x17>
    231f: c6 14        	dec	$14                     ; 0x2014 <malloc+0x9e>
    2321: a4 14        	ldy	$14                     ; 0x2014 <malloc+0x9e>
    2323: d0 ed        	bne	$2312 <__memset+0x8>
    2325: e0 00        	cpx	#$0
    2327: d0 e9        	bne	$2312 <__memset+0x8>
    2329: 60           	rts

0000232a <strlen>:
    232a: a9 0a        	lda	#$a
    232c: a2 00        	ldx	#$0
    232e: 60           	rts

0000232f <__umodsi3>:
    232f: 85 1c        	sta	$1c                     ; 0x201c <malloc+0xa6>
    2331: 86 1a        	stx	$1a                     ; 0x201a <malloc+0xa4>
    2333: a5 13        	lda	$13                     ; 0x2013 <malloc+0x9d>
    2335: a6 17        	ldx	$17                     ; 0x2017 <malloc+0xa1>
    2337: d0 0f        	bne	$2348 <__umodsi3+0x19>
    2339: a6 16        	ldx	$16                     ; 0x2016 <malloc+0xa0>
    233b: d0 0b        	bne	$2348 <__umodsi3+0x19>
    233d: a6 15        	ldx	$15                     ; 0x2015 <malloc+0x9f>
    233f: d0 07        	bne	$2348 <__umodsi3+0x19>
    2341: a6 14        	ldx	$14                     ; 0x2014 <malloc+0x9e>
    2343: d0 03        	bne	$2348 <__umodsi3+0x19>
    2345: 4c 6f 24     	jmp	$246f <__umodsi3+0x140>
    2348: c5 17        	cmp	$17                     ; 0x2017 <malloc+0xa1>
    234a: d0 15        	bne	$2361 <__umodsi3+0x32>
    234c: a6 12        	ldx	$12                     ; 0x2012 <malloc+0x9c>
    234e: e4 16        	cpx	$16                     ; 0x2016 <malloc+0xa0>
    2350: d0 16        	bne	$2368 <__umodsi3+0x39>
    2352: a6 1a        	ldx	$1a                     ; 0x201a <malloc+0xa4>
    2354: e4 15        	cpx	$15                     ; 0x2015 <malloc+0x9f>
    2356: d0 17        	bne	$236f <__umodsi3+0x40>
    2358: a6 1c        	ldx	$1c                     ; 0x201c <malloc+0xa6>
    235a: e4 14        	cpx	$14                     ; 0x2014 <malloc+0x9e>
    235c: b0 1a        	bcs	$2378 <__umodsi3+0x49>
    235e: 4c 6f 24     	jmp	$246f <__umodsi3+0x140>
    2361: c5 17        	cmp	$17                     ; 0x2017 <malloc+0xa1>
    2363: b0 13        	bcs	$2378 <__umodsi3+0x49>
    2365: 4c 6f 24     	jmp	$246f <__umodsi3+0x140>
    2368: e4 16        	cpx	$16                     ; 0x2016 <malloc+0xa0>
    236a: b0 0c        	bcs	$2378 <__umodsi3+0x49>
    236c: 4c 6f 24     	jmp	$246f <__umodsi3+0x140>
    236f: a6 1a        	ldx	$1a                     ; 0x201a <malloc+0xa4>
    2371: e4 15        	cpx	$15                     ; 0x2015 <malloc+0x9f>
    2373: b0 03        	bcs	$2378 <__umodsi3+0x49>
    2375: 4c 6f 24     	jmp	$246f <__umodsi3+0x140>
    2378: a6 17        	ldx	$17                     ; 0x2017 <malloc+0xa1>
    237a: 10 03        	bpl	$237f <__umodsi3+0x50>
    237c: 4c 58 24     	jmp	$2458 <__umodsi3+0x129>
    237f: a2 00        	ldx	#$0
    2381: a4 14        	ldy	$14                     ; 0x2014 <malloc+0x9e>
    2383: 84 1b        	sty	$1b                     ; 0x201b <malloc+0xa5>
    2385: a4 15        	ldy	$15                     ; 0x2015 <malloc+0x9f>
    2387: 84 13        	sty	$13                     ; 0x2013 <malloc+0x9d>
    2389: a4 16        	ldy	$16                     ; 0x2016 <malloc+0xa0>
    238b: 84 18        	sty	$18                     ; 0x2018 <malloc+0xa2>
    238d: a4 17        	ldy	$17                     ; 0x2017 <malloc+0xa1>
    238f: 84 19        	sty	$19                     ; 0x2019 <malloc+0xa3>
    2391: 06 1b        	asl	$1b                     ; 0x201b <malloc+0xa5>
    2393: 26 13        	rol	$13                     ; 0x2013 <malloc+0x9d>
    2395: 26 18        	rol	$18                     ; 0x2018 <malloc+0xa2>
    2397: 26 19        	rol	$19                     ; 0x2019 <malloc+0xa3>
    2399: c5 19        	cmp	$19                     ; 0x2019 <malloc+0xa3>
    239b: d0 16        	bne	$23b3 <__umodsi3+0x84>
    239d: a4 12        	ldy	$12                     ; 0x2012 <malloc+0x9c>
    239f: c4 18        	cpy	$18                     ; 0x2018 <malloc+0xa2>
    23a1: d0 16        	bne	$23b9 <__umodsi3+0x8a>
    23a3: a4 1a        	ldy	$1a                     ; 0x201a <malloc+0xa4>
    23a5: c4 13        	cpy	$13                     ; 0x2013 <malloc+0x9d>
    23a7: d0 16        	bne	$23bf <__umodsi3+0x90>
    23a9: a8           	tay
    23aa: a5 1c        	lda	$1c                     ; 0x201c <malloc+0xa6>
    23ac: c5 1b        	cmp	$1b                     ; 0x201b <malloc+0xa5>
    23ae: 98           	tya
    23af: 90 29        	bcc	$23da <__umodsi3+0xab>
    23b1: 80 12        	bra	$23c5 <__umodsi3+0x96>
    23b3: c5 19        	cmp	$19                     ; 0x2019 <malloc+0xa3>
    23b5: 90 23        	bcc	$23da <__umodsi3+0xab>
    23b7: 80 0c        	bra	$23c5 <__umodsi3+0x96>
    23b9: c4 18        	cpy	$18                     ; 0x2018 <malloc+0xa2>
    23bb: 90 1d        	bcc	$23da <__umodsi3+0xab>
    23bd: 80 06        	bra	$23c5 <__umodsi3+0x96>
    23bf: a4 1a        	ldy	$1a                     ; 0x201a <malloc+0xa4>
    23c1: c4 13        	cpy	$13                     ; 0x2013 <malloc+0x9d>
    23c3: 90 15        	bcc	$23da <__umodsi3+0xab>
    23c5: e8           	inx
    23c6: a4 1b        	ldy	$1b                     ; 0x201b <malloc+0xa5>
    23c8: 84 14        	sty	$14                     ; 0x2014 <malloc+0x9e>
    23ca: a4 13        	ldy	$13                     ; 0x2013 <malloc+0x9d>
    23cc: 84 15        	sty	$15                     ; 0x2015 <malloc+0x9f>
    23ce: a4 18        	ldy	$18                     ; 0x2018 <malloc+0xa2>
    23d0: 84 16        	sty	$16                     ; 0x2016 <malloc+0xa0>
    23d2: a4 19        	ldy	$19                     ; 0x2019 <malloc+0xa3>
    23d4: 84 17        	sty	$17                     ; 0x2017 <malloc+0xa1>
    23d6: 10 b9        	bpl	$2391 <__umodsi3+0x62>
    23d8: 80 10        	bra	$23ea <__umodsi3+0xbb>
    23da: a4 14        	ldy	$14                     ; 0x2014 <malloc+0x9e>
    23dc: 84 1b        	sty	$1b                     ; 0x201b <malloc+0xa5>
    23de: a4 15        	ldy	$15                     ; 0x2015 <malloc+0x9f>
    23e0: 84 13        	sty	$13                     ; 0x2013 <malloc+0x9d>
    23e2: a4 16        	ldy	$16                     ; 0x2016 <malloc+0xa0>
    23e4: 84 18        	sty	$18                     ; 0x2018 <malloc+0xa2>
    23e6: a4 17        	ldy	$17                     ; 0x2017 <malloc+0xa1>
    23e8: 84 19        	sty	$19                     ; 0x2019 <malloc+0xa3>
    23ea: 38           	sec
    23eb: a8           	tay
    23ec: a5 1c        	lda	$1c                     ; 0x201c <malloc+0xa6>
    23ee: e5 1b        	sbc	$1b                     ; 0x201b <malloc+0xa5>
    23f0: 85 1c        	sta	$1c                     ; 0x201c <malloc+0xa6>
    23f2: a5 1a        	lda	$1a                     ; 0x201a <malloc+0xa4>
    23f4: e5 13        	sbc	$13                     ; 0x2013 <malloc+0x9d>
    23f6: 85 1a        	sta	$1a                     ; 0x201a <malloc+0xa4>
    23f8: a5 12        	lda	$12                     ; 0x2012 <malloc+0x9c>
    23fa: e5 18        	sbc	$18                     ; 0x2018 <malloc+0xa2>
    23fc: 85 12        	sta	$12                     ; 0x2012 <malloc+0x9c>
    23fe: 98           	tya
    23ff: e5 19        	sbc	$19                     ; 0x2019 <malloc+0xa3>
    2401: e0 00        	cpx	#$0
    2403: d0 11        	bne	$2416 <__umodsi3+0xe7>
    2405: 4c 6f 24     	jmp	$246f <__umodsi3+0x140>
    2408: c4 18        	cpy	$18                     ; 0x2018 <malloc+0xa2>
    240a: b0 30        	bcs	$243c <__umodsi3+0x10d>
    240c: 80 45        	bra	$2453 <__umodsi3+0x124>
    240e: a4 1a        	ldy	$1a                     ; 0x201a <malloc+0xa4>
    2410: c4 13        	cpy	$13                     ; 0x2013 <malloc+0x9d>
    2412: b0 28        	bcs	$243c <__umodsi3+0x10d>
    2414: 80 3d        	bra	$2453 <__umodsi3+0x124>
    2416: 46 19        	lsr	$19                     ; 0x2019 <malloc+0xa3>
    2418: 66 18        	ror	$18                     ; 0x2018 <malloc+0xa2>
    241a: 66 13        	ror	$13                     ; 0x2013 <malloc+0x9d>
    241c: 66 1b        	ror	$1b                     ; 0x201b <malloc+0xa5>
    241e: c5 19        	cmp	$19                     ; 0x2019 <malloc+0xa3>
    2420: d0 16        	bne	$2438 <__umodsi3+0x109>
    2422: a4 12        	ldy	$12                     ; 0x2012 <malloc+0x9c>
    2424: c4 18        	cpy	$18                     ; 0x2018 <malloc+0xa2>
    2426: d0 e0        	bne	$2408 <__umodsi3+0xd9>
    2428: a4 1a        	ldy	$1a                     ; 0x201a <malloc+0xa4>
    242a: c4 13        	cpy	$13                     ; 0x2013 <malloc+0x9d>
    242c: d0 e0        	bne	$240e <__umodsi3+0xdf>
    242e: a8           	tay
    242f: a5 1c        	lda	$1c                     ; 0x201c <malloc+0xa6>
    2431: c5 1b        	cmp	$1b                     ; 0x201b <malloc+0xa5>
    2433: 98           	tya
    2434: b0 06        	bcs	$243c <__umodsi3+0x10d>
    2436: 80 1b        	bra	$2453 <__umodsi3+0x124>
    2438: c5 19        	cmp	$19                     ; 0x2019 <malloc+0xa3>
    243a: 90 17        	bcc	$2453 <__umodsi3+0x124>
    243c: a8           	tay
    243d: 38           	sec
    243e: a5 1c        	lda	$1c                     ; 0x201c <malloc+0xa6>
    2440: e5 1b        	sbc	$1b                     ; 0x201b <malloc+0xa5>
    2442: 85 1c        	sta	$1c                     ; 0x201c <malloc+0xa6>
    2444: a5 1a        	lda	$1a                     ; 0x201a <malloc+0xa4>
    2446: e5 13        	sbc	$13                     ; 0x2013 <malloc+0x9d>
    2448: 85 1a        	sta	$1a                     ; 0x201a <malloc+0xa4>
    244a: a5 12        	lda	$12                     ; 0x2012 <malloc+0x9c>
    244c: e5 18        	sbc	$18                     ; 0x2018 <malloc+0xa2>
    244e: 85 12        	sta	$12                     ; 0x2012 <malloc+0x9c>
    2450: 98           	tya
    2451: e5 19        	sbc	$19                     ; 0x2019 <malloc+0xa3>
    2453: ca           	dex
    2454: d0 c0        	bne	$2416 <__umodsi3+0xe7>
    2456: 80 17        	bra	$246f <__umodsi3+0x140>
    2458: 38           	sec
    2459: a8           	tay
    245a: a5 1c        	lda	$1c                     ; 0x201c <malloc+0xa6>
    245c: e5 14        	sbc	$14                     ; 0x2014 <malloc+0x9e>
    245e: 85 1c        	sta	$1c                     ; 0x201c <malloc+0xa6>
    2460: a5 1a        	lda	$1a                     ; 0x201a <malloc+0xa4>
    2462: e5 15        	sbc	$15                     ; 0x2015 <malloc+0x9f>
    2464: 85 1a        	sta	$1a                     ; 0x201a <malloc+0xa4>
    2466: a5 12        	lda	$12                     ; 0x2012 <malloc+0x9c>
    2468: e5 16        	sbc	$16                     ; 0x2016 <malloc+0xa0>
    246a: 85 12        	sta	$12                     ; 0x2012 <malloc+0x9c>
    246c: 98           	tya
    246d: e5 17        	sbc	$17                     ; 0x2017 <malloc+0xa1>
    246f: 85 13        	sta	$13                     ; 0x2013 <malloc+0x9d>
    2471: a6 1a        	ldx	$1a                     ; 0x201a <malloc+0xa4>
    2473: a5 1c        	lda	$1c                     ; 0x201c <malloc+0xa6>
    2475: 60           	rts
