
mp3.elf:	file format elf32-mos

SYMBOL TABLE:
00000000 l    df *ABS*	00000000 zero-bss.c
00000000 l    df *ABS*	00000000 zero-zp-bss.c
00000000 l    df *ABS*	00000000 ld-temp.o
00000475 l     F .text	00000395 f256Init
00000037 l     O .zp.bss	00000007 kernelEventData
000021ab l     O .rodata	00000030 textColors
00000030 l     O .zp.bss	00000001 _col
00000031 l     O .zp.bss	00000001 _row
000022d1 l     O .bss	00000004 _BITMAP_BASE.0
00000036 l     O .zp.bss	00000001 kernelError
00000810 l     F .text	000003cd f256main
00001171 l     F .text	00000bb0 printf
00002024 l     F .text	00000005 strlen
00000034 l     O .zp.bss	00000002 theMP3file
00000bdd l     F .text	00000131 fileRead
00000ec6 l     F .text	000000bb textPrintUInt
00000d0e l     F .text	000001b8 textPrint
00001d21 l     F .text	000002b7 malloc
00002029 l     F .text	00000147 __umodsi3
00000f81 l     F .text	0000000d __putchar
00000032 l     O .zp.bss	00000002 __putchar.s
00000f93 l     F .text	000000d1 _ZN12_GLOBAL__N_13putEcP6Status
00001064 l     F .text	0000010d _ZN12_GLOBAL__N_112print_stringEPKcP6Status
000022d5 l     O .bss	00000001 _ZN12_GLOBAL__N_111initializedE
00000316 l     F .text	00000139 _ZN12_GLOBAL__N_19FreeChunk6insertEPvj
000022d8 l     O .bss	00000002 _ZN12_GLOBAL__N_19free_listE
000022d6 l     O .bss	00000002 _ZN12_GLOBAL__N_19free_sizeE
0000080a g     F .text	00000006 main
00010400 g       .backg	00000000 backg_end
00023000 g       .palback	00000000 palback_end
00010000 g       .backg	00000000 backg_start
00010400 g       .palback	00000000 palback_start
00000311 g       .text	00000000 __after_main
00000300 g       .text	00000000 __do_init_stack
00000308 g       .text	00000000 __do_zero_bss
0000044f g     F .text	00000013 __zero_bss
0000030b g       .text	00000000 __do_zero_zp_bss
00000462 g     F .text	00000013 __zero_zp_bss
00000f8e g     F .text	00000005 exit
00000314 g       .text	00000000 _fini
00002170 g       .rodata	00000000 __set_v
00002004  w    F .text	00000020 __memset
00001000  w      *ABS*	00000000 __heap_default_limit
000022da g       .noinit	00000000 __heap_start
00001fd8  w    F .text	0000002c memcpy
00000010 g       *ABS*	00000000 __rc0
00000012 g       *ABS*	00000000 __rc2
00000014 g       *ABS*	00000000 __rc4
00000016 g       *ABS*	00000000 __rc6
00000018 g       *ABS*	00000000 __rc8
0000001a g       *ABS*	00000000 __rc10
0000001c g       *ABS*	00000000 __rc12
0000001e g       *ABS*	00000000 __rc14
00000020 g       *ABS*	00000000 __rc16
00000022 g       *ABS*	00000000 __rc18
00000024 g       *ABS*	00000000 __rc20
00000026 g       *ABS*	00000000 __rc22
00000028 g       *ABS*	00000000 __rc24
0000002a g       *ABS*	00000000 __rc26
0000002c g       *ABS*	00000000 __rc28
0000002e g       *ABS*	00000000 __rc30
0000002f g       *ABS*	00000000 __rc31
00000300 g       *ABS*	00000000 __f256_start
0000a000 g       *ABS*	00000000 __stack
0000a000 g       *ABS*	00000000 __SLOT_ADDR
0800a000 g       *ABS*	00000000 __block8_lma
00002000 g       *ABS*	00000000 __BLOCK_SIZE
0900a000 g       *ABS*	00000000 __block9_lma
0a00a000 g       *ABS*	00000000 __block10_lma
0b00a000 g       *ABS*	00000000 __block11_lma
0c00a000 g       *ABS*	00000000 __block12_lma
0d00a000 g       *ABS*	00000000 __block13_lma
0e00a000 g       *ABS*	00000000 __block14_lma
0f00a000 g       *ABS*	00000000 __block15_lma
1000a000 g       *ABS*	00000000 __block16_lma
1100a000 g       *ABS*	00000000 __block17_lma
1200a000 g       *ABS*	00000000 __block18_lma
1300a000 g       *ABS*	00000000 __block19_lma
1400a000 g       *ABS*	00000000 __block20_lma
1500a000 g       *ABS*	00000000 __block21_lma
1600a000 g       *ABS*	00000000 __block22_lma
1700a000 g       *ABS*	00000000 __block23_lma
00010000 g       *ABS*	00000000 __backg_lma
00000400 g       *ABS*	00000000 __backg_size
00010400 g       *ABS*	00000000 __palback_lma
00012c00 g       *ABS*	00000000 __palback_size
000022d1 g       .bss	00000000 __bss_start
00010400 g       .backg	00000000 end_backg
00023000 g       .palback	00000000 end_palback
00000300 g       .text	00000000 _start
0000002d g       *ABS*	00000000 __rc29
0000002b g       *ABS*	00000000 __rc27
00000029 g       *ABS*	00000000 __rc25
00000027 g       *ABS*	00000000 __rc23
00000025 g       *ABS*	00000000 __rc21
00000023 g       *ABS*	00000000 __rc19
00000021 g       *ABS*	00000000 __rc17
0000001f g       *ABS*	00000000 __rc15
0000001d g       *ABS*	00000000 __rc13
0000001b g       *ABS*	00000000 __rc11
00000019 g       *ABS*	00000000 __rc9
00000017 g       *ABS*	00000000 __rc7
00000015 g       *ABS*	00000000 __rc5
00000013 g       *ABS*	00000000 __rc3
00000011 g       *ABS*	00000000 __rc1
00000030 g       .zp.data	00000000 __zp_data_start
00000300 g       *ABS*	00000000 __zp_data_load_start
00000000 g       *ABS*	00000000 __zp_data_size
00000030 g       .zp.bss	00000000 __zp_bss_start
0000000e g       *ABS*	00000000 __zp_bss_size
00000300 g       .text	00000000 _init
00002170 g       .text	00000000 __init_array_start
00002170 g       .text	00000000 __init_array_end
00002170 g       .text	00000000 __fini_array_start
00002170 g       .text	00000000 __fini_array_end
000022d1 g       .data	00000000 __data_start
000022d1 g       .data	00000000 __data_end
000022d1 g       *ABS*	00000000 __data_load_start
00000000 g       *ABS*	00000000 __data_size
000022da g       .bss	00000000 __bss_end
00000009 g       *ABS*	00000000 __bss_size
000022da g       .noinit	00000000 end_block8
000022da g       .noinit	00000000 end_block9
000022da g       .noinit	00000000 end_block10
000022da g       .noinit	00000000 end_block11
000022da g       .noinit	00000000 end_block12
000022da g       .noinit	00000000 end_block13
000022da g       .noinit	00000000 end_block14
000022da g       .noinit	00000000 end_block15
000022da g       .noinit	00000000 end_block16
000022da g       .noinit	00000000 end_block17
000022da g       .noinit	00000000 end_block18
000022da g       .noinit	00000000 end_block19
000022da g       .noinit	00000000 end_block20
000022da g       .noinit	00000000 end_block21
000022da g       .noinit	00000000 end_block22
000022da g       .noinit	00000000 end_block23

Disassembly of section .text:

00000300 <_start>:
     300: a9 00        	lda	#$0
     302: 85 10        	sta	$10                     ; 0x2010 <__memset+0xc>
     304: a9 a0        	lda	#$a0
     306: 85 11        	sta	$11                     ; 0x2011 <__memset+0xd>

00000308 <__do_zero_bss>:
     308: 20 4f 04     	jsr	$44f <__zero_bss>

0000030b <__do_zero_zp_bss>:
     30b: 20 62 04     	jsr	$462 <__zero_zp_bss>
     30e: 20 0a 08     	jsr	$80a <main>

00000311 <__after_main>:
     311: 4c 8e 0f     	jmp	$f8e <exit>

00000314 <_fini>:
     314: 60           	rts
     315: 00           	brk

00000316 <_ZN12_GLOBAL__N_19FreeChunk6insertEPvj>:
     316: 85 16        	sta	$16                     ; 0x2016 <__memset+0x12>
     318: 29 fe        	and	#$fe
     31a: 85 14        	sta	$14                     ; 0x2014 <__memset+0x10>
     31c: a0 01        	ldy	#$1
     31e: 98           	tya
     31f: 32 12        	and	($12)                   ; 0x2012 <__memset+0xe>
     321: 05 14        	ora	$14                     ; 0x2014 <__memset+0x10>
     323: 92 12        	sta	($12)                   ; 0x2012 <__memset+0xe>
     325: a5 12        	lda	$12                     ; 0x2012 <__memset+0xe>
     327: 18           	clc
     328: 65 14        	adc	$14                     ; 0x2014 <__memset+0x10>
     32a: 85 15        	sta	$15                     ; 0x2015 <__memset+0x11>
     32c: 8a           	txa
     32d: 65 13        	adc	$13                     ; 0x2013 <__memset+0xf>
     32f: 85 14        	sta	$14                     ; 0x2014 <__memset+0x10>
     331: 18           	clc
     332: a5 15        	lda	$15                     ; 0x2015 <__memset+0x11>
     334: 69 fe        	adc	#$fe
     336: 85 17        	sta	$17                     ; 0x2017 <__memset+0x13>
     338: a5 14        	lda	$14                     ; 0x2014 <__memset+0x10>
     33a: 69 ff        	adc	#$ff
     33c: 85 15        	sta	$15                     ; 0x2015 <__memset+0x11>
     33e: a5 17        	lda	$17                     ; 0x2017 <__memset+0x13>
     340: 85 14        	sta	$14                     ; 0x2014 <__memset+0x10>
     342: 8a           	txa
     343: 91 12        	sta	($12),y                 ; 0x2012 <__memset+0xe>
     345: a5 16        	lda	$16                     ; 0x2016 <__memset+0x12>
     347: 92 14        	sta	($14)                   ; 0x2014 <__memset+0x10>
     349: 8a           	txa
     34a: 91 14        	sta	($14),y                 ; 0x2014 <__memset+0x10>
     34c: b1 12        	lda	($12),y                 ; 0x2012 <__memset+0xe>
     34e: 85 14        	sta	$14                     ; 0x2014 <__memset+0x10>
     350: a9 fe        	lda	#$fe
     352: 32 12        	and	($12)                   ; 0x2012 <__memset+0xe>
     354: 18           	clc
     355: 6d d6 22     	adc	$22d6                   ; 0x22d6 <_ZN12_GLOBAL__N_19free_sizeE>
     358: aa           	tax
     359: a5 14        	lda	$14                     ; 0x2014 <__memset+0x10>
     35b: 6d d7 22     	adc	$22d7                   ; 0x22d7 <_ZN12_GLOBAL__N_19free_sizeE+0x1>
     35e: a8           	tay
     35f: 18           	clc
     360: 8a           	txa
     361: 69 fe        	adc	#$fe
     363: aa           	tax
     364: 98           	tya
     365: 69 ff        	adc	#$ff
     367: 8e d6 22     	stx	$22d6                   ; 0x22d6 <_ZN12_GLOBAL__N_19free_sizeE>
     36a: 8d d7 22     	sta	$22d7                   ; 0x22d7 <_ZN12_GLOBAL__N_19free_sizeE+0x1>
     36d: ae d8 22     	ldx	$22d8                   ; 0x22d8 <_ZN12_GLOBAL__N_19free_listE>
     370: 86 16        	stx	$16                     ; 0x2016 <__memset+0x12>
     372: ac d9 22     	ldy	$22d9                   ; 0x22d9 <_ZN12_GLOBAL__N_19free_listE+0x1>
     375: a2 00        	ldx	#$0
     377: 86 14        	stx	$14                     ; 0x2014 <__memset+0x10>
     379: a2 00        	ldx	#$0
     37b: 86 15        	stx	$15                     ; 0x2015 <__memset+0x11>
     37d: 84 18        	sty	$18                     ; 0x2018 <__memset+0x14>
     37f: c4 15        	cpy	$15                     ; 0x2015 <__memset+0x11>
     381: d0 31        	bne	$3b4 <_ZN12_GLOBAL__N_19FreeChunk6insertEPvj+0x9e>
     383: a6 16        	ldx	$16                     ; 0x2016 <__memset+0x12>
     385: e4 14        	cpx	$14                     ; 0x2014 <__memset+0x10>
     387: d0 2b        	bne	$3b4 <_ZN12_GLOBAL__N_19FreeChunk6insertEPvj+0x9e>
     389: a0 02        	ldy	#$2
     38b: 18           	clc
     38c: a5 12        	lda	$12                     ; 0x2012 <__memset+0xe>
     38e: 69 02        	adc	#$2
     390: 85 14        	sta	$14                     ; 0x2014 <__memset+0x10>
     392: a5 12        	lda	$12                     ; 0x2012 <__memset+0xe>
     394: 91 12        	sta	($12),y                 ; 0x2012 <__memset+0xe>
     396: a5 13        	lda	$13                     ; 0x2013 <__memset+0xf>
     398: 69 00        	adc	#$0
     39a: 85 15        	sta	$15                     ; 0x2015 <__memset+0x11>
     39c: 88           	dey
     39d: a5 13        	lda	$13                     ; 0x2013 <__memset+0xf>
     39f: 91 14        	sta	($14),y                 ; 0x2014 <__memset+0x10>
     3a1: a2 d8        	ldx	#$d8
     3a3: 86 16        	stx	$16                     ; 0x2016 <__memset+0x12>
     3a5: a2 22        	ldx	#$22
     3a7: 86 17        	stx	$17                     ; 0x2017 <__memset+0x13>
     3a9: a6 12        	ldx	$12                     ; 0x2012 <__memset+0xe>
     3ab: 86 14        	stx	$14                     ; 0x2014 <__memset+0x10>
     3ad: a6 13        	ldx	$13                     ; 0x2013 <__memset+0xf>
     3af: 86 15        	stx	$15                     ; 0x2015 <__memset+0x11>
     3b1: 4c 2d 04     	jmp	$42d <_ZN12_GLOBAL__N_19FreeChunk6insertEPvj+0x117>
     3b4: a5 12        	lda	$12                     ; 0x2012 <__memset+0xe>
     3b6: 18           	clc
     3b7: 69 02        	adc	#$2
     3b9: 85 14        	sta	$14                     ; 0x2014 <__memset+0x10>
     3bb: a4 13        	ldy	$13                     ; 0x2013 <__memset+0xf>
     3bd: a6 16        	ldx	$16                     ; 0x2016 <__memset+0x12>
     3bf: 86 19        	stx	$19                     ; 0x2019 <__memset+0x15>
     3c1: a5 13        	lda	$13                     ; 0x2013 <__memset+0xf>
     3c3: 84 1a        	sty	$1a                     ; 0x201a <__memset+0x16>
     3c5: 69 00        	adc	#$0
     3c7: a6 14        	ldx	$14                     ; 0x2014 <__memset+0x10>
     3c9: 86 16        	stx	$16                     ; 0x2016 <__memset+0x12>
     3cb: 85 17        	sta	$17                     ; 0x2017 <__memset+0x13>
     3cd: a6 19        	ldx	$19                     ; 0x2019 <__memset+0x15>
     3cf: 86 14        	stx	$14                     ; 0x2014 <__memset+0x10>
     3d1: a4 18        	ldy	$18                     ; 0x2018 <__memset+0x14>
     3d3: 84 15        	sty	$15                     ; 0x2015 <__memset+0x11>
     3d5: 84 1b        	sty	$1b                     ; 0x201b <__memset+0x17>
     3d7: a0 02        	ldy	#$2
     3d9: a5 19        	lda	$19                     ; 0x2019 <__memset+0x15>
     3db: 91 12        	sta	($12),y                 ; 0x2012 <__memset+0xe>
     3dd: 88           	dey
     3de: a5 1b        	lda	$1b                     ; 0x201b <__memset+0x17>
     3e0: 91 16        	sta	($16),y                 ; 0x2016 <__memset+0x12>
     3e2: 18           	clc
     3e3: a5 19        	lda	$19                     ; 0x2019 <__memset+0x15>
     3e5: 69 04        	adc	#$4
     3e7: 85 18        	sta	$18                     ; 0x2018 <__memset+0x14>
     3e9: a5 1b        	lda	$1b                     ; 0x201b <__memset+0x17>
     3eb: 69 00        	adc	#$0
     3ed: 85 19        	sta	$19                     ; 0x2019 <__memset+0x15>
     3ef: a0 04        	ldy	#$4
     3f1: b1 14        	lda	($14),y                 ; 0x2014 <__memset+0x10>
     3f3: 85 14        	sta	$14                     ; 0x2014 <__memset+0x10>
     3f5: 85 1b        	sta	$1b                     ; 0x201b <__memset+0x17>
     3f7: a0 01        	ldy	#$1
     3f9: b1 18        	lda	($18),y                 ; 0x2018 <__memset+0x14>
     3fb: 85 15        	sta	$15                     ; 0x2015 <__memset+0x11>
     3fd: a8           	tay
     3fe: 18           	clc
     3ff: a5 1b        	lda	$1b                     ; 0x201b <__memset+0x17>
     401: 69 02        	adc	#$2
     403: 85 18        	sta	$18                     ; 0x2018 <__memset+0x14>
     405: 98           	tya
     406: 69 00        	adc	#$0
     408: 85 19        	sta	$19                     ; 0x2019 <__memset+0x15>
     40a: a5 12        	lda	$12                     ; 0x2012 <__memset+0xe>
     40c: a0 02        	ldy	#$2
     40e: 91 14        	sta	($14),y                 ; 0x2014 <__memset+0x10>
     410: a5 1a        	lda	$1a                     ; 0x201a <__memset+0x16>
     412: 88           	dey
     413: 91 18        	sta	($18),y                 ; 0x2018 <__memset+0x14>
     415: c8           	iny
     416: b1 12        	lda	($12),y                 ; 0x2012 <__memset+0xe>
     418: 85 18        	sta	$18                     ; 0x2018 <__memset+0x14>
     41a: 88           	dey
     41b: b1 16        	lda	($16),y                 ; 0x2016 <__memset+0x12>
     41d: 85 16        	sta	$16                     ; 0x2016 <__memset+0x12>
     41f: 18           	clc
     420: a5 18        	lda	$18                     ; 0x2018 <__memset+0x14>
     422: 69 04        	adc	#$4
     424: aa           	tax
     425: a5 16        	lda	$16                     ; 0x2016 <__memset+0x12>
     427: 69 00        	adc	#$0
     429: 86 16        	stx	$16                     ; 0x2016 <__memset+0x12>
     42b: 85 17        	sta	$17                     ; 0x2017 <__memset+0x13>
     42d: 18           	clc
     42e: a5 12        	lda	$12                     ; 0x2012 <__memset+0xe>
     430: 69 04        	adc	#$4
     432: 85 18        	sta	$18                     ; 0x2018 <__memset+0x14>
     434: a5 13        	lda	$13                     ; 0x2013 <__memset+0xf>
     436: 69 00        	adc	#$0
     438: a0 04        	ldy	#$4
     43a: 85 19        	sta	$19                     ; 0x2019 <__memset+0x15>
     43c: a5 14        	lda	$14                     ; 0x2014 <__memset+0x10>
     43e: 91 12        	sta	($12),y                 ; 0x2012 <__memset+0xe>
     440: a5 15        	lda	$15                     ; 0x2015 <__memset+0x11>
     442: a0 01        	ldy	#$1
     444: 91 18        	sta	($18),y                 ; 0x2018 <__memset+0x14>
     446: a5 13        	lda	$13                     ; 0x2013 <__memset+0xf>
     448: 91 16        	sta	($16),y                 ; 0x2016 <__memset+0x12>
     44a: a5 12        	lda	$12                     ; 0x2012 <__memset+0xe>
     44c: 92 16        	sta	($16)                   ; 0x2016 <__memset+0x12>
     44e: 60           	rts

0000044f <__zero_bss>:
     44f: a2 09        	ldx	#$9
     451: a0 00        	ldy	#$0
     453: a9 d1        	lda	#$d1
     455: 85 12        	sta	$12                     ; 0x2012 <__memset+0xe>
     457: a9 22        	lda	#$22
     459: 85 13        	sta	$13                     ; 0x2013 <__memset+0xf>
     45b: a9 00        	lda	#$0
     45d: 84 14        	sty	$14                     ; 0x2014 <__memset+0x10>
     45f: 4c 04 20     	jmp	$2004 <__memset>

00000462 <__zero_zp_bss>:
     462: a2 0e        	ldx	#$e
     464: a0 00        	ldy	#$0
     466: a9 30        	lda	#$30
     468: 85 12        	sta	$12                     ; 0x2012 <__memset+0xe>
     46a: a9 00        	lda	#$0
     46c: 85 13        	sta	$13                     ; 0x2013 <__memset+0xf>
     46e: a9 00        	lda	#$0
     470: 84 14        	sty	$14                     ; 0x2014 <__memset+0x10>
     472: 4c 04 20     	jmp	$2004 <__memset>

00000475 <f256Init>:
     475: 64 14        	stz	$14                     ; 0x2014 <__memset+0x10>
     477: a2 00        	ldx	#$0
     479: 86 12        	stx	$12                     ; 0x2012 <__memset+0xe>
     47b: a2 c0        	ldx	#$c0
     47d: 86 13        	stx	$13                     ; 0x2013 <__memset+0xf>
     47f: 64 01        	stz	$1                      ; 0x2001 <memcpy+0x29>
     481: a2 3f        	ldx	#$3f
     483: 8e 00 d0     	stx	$d000                   ; 0xd000 <end_block9+0xad26>
     486: a2 b3        	ldx	#$b3
     488: 86 00        	stx	$0                      ; 0x2000 <memcpy+0x28>
     48a: 64 08        	stz	$8                      ; 0x2008 <__memset+0x4>
     48c: a2 01        	ldx	#$1
     48e: 86 09        	stx	$9                      ; 0x2009 <__memset+0x5>
     490: e8           	inx
     491: 86 0a        	stx	$a                      ; 0x200a <__memset+0x6>
     493: e8           	inx
     494: 86 0b        	stx	$b                      ; 0x200b <__memset+0x7>
     496: e8           	inx
     497: 86 0c        	stx	$c                      ; 0x200c <__memset+0x8>
     499: e8           	inx
     49a: 86 0d        	stx	$d                      ; 0x200d <__memset+0x9>
     49c: a2 37        	ldx	#$37
     49e: a0 00        	ldy	#$0
     4a0: 86 f0        	stx	$f0                     ; 0x20f0 <__umodsi3+0xc7>
     4a2: 84 f1        	sty	$f1                     ; 0x20f1 <__umodsi3+0xc8>
     4a4: a2 00        	ldx	#$0
     4a6: 86 18        	stx	$18                     ; 0x2018 <__memset+0x14>
     4a8: ca           	dex
     4a9: 86 19        	stx	$19                     ; 0x2019 <__memset+0x15>
     4ab: 8a           	txa
     4ac: 0a           	asl
     4ad: 0a           	asl
     4ae: 18           	clc
     4af: 69 d4        	adc	#$d4
     4b1: 85 1a        	sta	$1a                     ; 0x201a <__memset+0x16>
     4b3: a0 00        	ldy	#$0
     4b5: 64 17        	stz	$17                     ; 0x2017 <__memset+0x13>
     4b7: 64 16        	stz	$16                     ; 0x2016 <__memset+0x12>
     4b9: a6 19        	ldx	$19                     ; 0x2019 <__memset+0x15>
     4bb: e0 03        	cpx	#$3
     4bd: a6 01        	ldx	$1                      ; 0x2001 <memcpy+0x29>
     4bf: 86 1c        	stx	$1c                     ; 0x201c <__memset+0x18>
     4c1: a2 d0        	ldx	#$d0
     4c3: 84 1b        	sty	$1b                     ; 0x201b <__memset+0x17>
     4c5: b0 02        	bcs	$4c9 <f256Init+0x54>
     4c7: a6 1a        	ldx	$1a                     ; 0x201a <__memset+0x16>
     4c9: 86 15        	stx	$15                     ; 0x2015 <__memset+0x11>
     4cb: a5 17        	lda	$17                     ; 0x2017 <__memset+0x13>
     4cd: 18           	clc
     4ce: 65 14        	adc	$14                     ; 0x2014 <__memset+0x10>
     4d0: a8           	tay
     4d1: a6 17        	ldx	$17                     ; 0x2017 <__memset+0x13>
     4d3: a5 16        	lda	$16                     ; 0x2016 <__memset+0x12>
     4d5: 85 1d        	sta	$1d                     ; 0x201d <__memset+0x19>
     4d7: a5 16        	lda	$16                     ; 0x2016 <__memset+0x12>
     4d9: 65 15        	adc	$15                     ; 0x2015 <__memset+0x11>
     4db: 84 16        	sty	$16                     ; 0x2016 <__memset+0x12>
     4dd: a0 01        	ldy	#$1
     4df: 84 01        	sty	$1                      ; 0x2001 <memcpy+0x29>
     4e1: 85 17        	sta	$17                     ; 0x2017 <__memset+0x13>
     4e3: a5 1b        	lda	$1b                     ; 0x201b <__memset+0x17>
     4e5: 92 16        	sta	($16)                   ; 0x2016 <__memset+0x12>
     4e7: 91 16        	sta	($16),y                 ; 0x2016 <__memset+0x12>
     4e9: c8           	iny
     4ea: 91 16        	sta	($16),y                 ; 0x2016 <__memset+0x12>
     4ec: 85 15        	sta	$15                     ; 0x2015 <__memset+0x11>
     4ee: c8           	iny
     4ef: a9 ff        	lda	#$ff
     4f1: 91 16        	sta	($16),y                 ; 0x2016 <__memset+0x12>
     4f3: 8a           	txa
     4f4: a6 1c        	ldx	$1c                     ; 0x201c <__memset+0x18>
     4f6: 86 01        	stx	$1                      ; 0x2001 <memcpy+0x29>
     4f8: 18           	clc
     4f9: 69 04        	adc	#$4
     4fb: 85 17        	sta	$17                     ; 0x2017 <__memset+0x13>
     4fd: a5 1d        	lda	$1d                     ; 0x201d <__memset+0x19>
     4ff: 69 00        	adc	#$0
     501: e6 15        	inc	$15                     ; 0x2015 <__memset+0x11>
     503: a4 15        	ldy	$15                     ; 0x2015 <__memset+0x11>
     505: 85 16        	sta	$16                     ; 0x2016 <__memset+0x12>
     507: c9 04        	cmp	#$4
     509: f0 03        	beq	$50e <f256Init+0x99>
     50b: 4c b9 04     	jmp	$4b9 <f256Init+0x44>
     50e: a5 17        	lda	$17                     ; 0x2017 <__memset+0x13>
     510: f0 03        	beq	$515 <f256Init+0xa0>
     512: 4c b9 04     	jmp	$4b9 <f256Init+0x44>
     515: a6 18        	ldx	$18                     ; 0x2018 <__memset+0x14>
     517: e8           	inx
     518: e0 04        	cpx	#$4
     51a: f0 03        	beq	$51f <f256Init+0xaa>
     51c: 4c a6 04     	jmp	$4a6 <f256Init+0x31>
     51f: ad 02 d0     	lda	$d002                   ; 0xd002 <end_block9+0xad28>
     522: 29 f0        	and	#$f0
     524: 8d 02 d0     	sta	$d002                   ; 0xd002 <end_block9+0xad28>
     527: ad 02 d0     	lda	$d002                   ; 0xd002 <end_block9+0xad28>
     52a: 29 0f        	and	#$f
     52c: 09 10        	ora	#$10
     52e: 8d 02 d0     	sta	$d002                   ; 0xd002 <end_block9+0xad28>
     531: a2 02        	ldx	#$2
     533: 8e 03 d0     	stx	$d003                   ; 0xd003 <end_block9+0xad29>
     536: ad 01 d0     	lda	$d001                   ; 0xd001 <end_block9+0xad27>
     539: 29 f9        	and	#$f9
     53b: 09 04        	ora	#$4
     53d: 8d 01 d0     	sta	$d001                   ; 0xd001 <end_block9+0xad27>
     540: 64 14        	stz	$14                     ; 0x2014 <__memset+0x10>
     542: 9c 10 d0     	stz	$d010                   ; 0xd010 <end_block9+0xad36>
     545: a2 00        	ldx	#$0
     547: 64 15        	stz	$15                     ; 0x2015 <__memset+0x11>
     549: 86 18        	stx	$18                     ; 0x2018 <__memset+0x14>
     54b: a4 18        	ldy	$18                     ; 0x2018 <__memset+0x14>
     54d: be ab 21     	ldx	$21ab,y                 ; 0x21ab <textColors>
     550: 86 19        	stx	$19                     ; 0x2019 <__memset+0x15>
     552: be ac 21     	ldx	$21ac,y                 ; 0x21ac <textColors+0x1>
     555: 86 1a        	stx	$1a                     ; 0x201a <__memset+0x16>
     557: be ad 21     	ldx	$21ad,y                 ; 0x21ad <textColors+0x2>
     55a: 86 1b        	stx	$1b                     ; 0x201b <__memset+0x17>
     55c: a6 15        	ldx	$15                     ; 0x2015 <__memset+0x11>
     55e: 8e 00 de     	stx	$de00                   ; 0xde00 <end_block9+0xbb26>
     561: 86 17        	stx	$17                     ; 0x2017 <__memset+0x13>
     563: 9c 01 de     	stz	$de01                   ; 0xde01 <end_block9+0xbb27>
     566: a2 04        	ldx	#$4
     568: 8e 02 de     	stx	$de02                   ; 0xde02 <end_block9+0xbb28>
     56b: 9c 03 de     	stz	$de03                   ; 0xde03 <end_block9+0xbb29>
     56e: ad 10 de     	lda	$de10                   ; 0xde10 <end_block9+0xbb36>
     571: ac 11 de     	ldy	$de11                   ; 0xde11 <end_block9+0xbb37>
     574: 84 15        	sty	$15                     ; 0x2015 <__memset+0x11>
     576: ac 12 de     	ldy	$de12                   ; 0xde12 <end_block9+0xbb38>
     579: ac 13 de     	ldy	$de13                   ; 0xde13 <end_block9+0xbb39>
     57c: 18           	clc
     57d: 65 14        	adc	$14                     ; 0x2014 <__memset+0x10>
     57f: 85 16        	sta	$16                     ; 0x2016 <__memset+0x12>
     581: a6 17        	ldx	$17                     ; 0x2017 <__memset+0x13>
     583: a9 d8        	lda	#$d8
     585: 65 15        	adc	$15                     ; 0x2015 <__memset+0x11>
     587: 85 17        	sta	$17                     ; 0x2017 <__memset+0x13>
     589: a5 1b        	lda	$1b                     ; 0x201b <__memset+0x17>
     58b: 92 16        	sta	($16)                   ; 0x2016 <__memset+0x12>
     58d: a0 01        	ldy	#$1
     58f: a5 1a        	lda	$1a                     ; 0x201a <__memset+0x16>
     591: 91 16        	sta	($16),y                 ; 0x2016 <__memset+0x12>
     593: c8           	iny
     594: a5 19        	lda	$19                     ; 0x2019 <__memset+0x15>
     596: 91 16        	sta	($16),y                 ; 0x2016 <__memset+0x12>
     598: c8           	iny
     599: a9 ff        	lda	#$ff
     59b: 91 16        	sta	($16),y                 ; 0x2016 <__memset+0x12>
     59d: 8e 00 de     	stx	$de00                   ; 0xde00 <end_block9+0xbb26>
     5a0: 9c 01 de     	stz	$de01                   ; 0xde01 <end_block9+0xbb27>
     5a3: c8           	iny
     5a4: 8c 02 de     	sty	$de02                   ; 0xde02 <end_block9+0xbb28>
     5a7: 9c 03 de     	stz	$de03                   ; 0xde03 <end_block9+0xbb29>
     5aa: ad 10 de     	lda	$de10                   ; 0xde10 <end_block9+0xbb36>
     5ad: 85 15        	sta	$15                     ; 0x2015 <__memset+0x11>
     5af: ad 11 de     	lda	$de11                   ; 0xde11 <end_block9+0xbb37>
     5b2: 85 16        	sta	$16                     ; 0x2016 <__memset+0x12>
     5b4: a9 40        	lda	#$40
     5b6: 18           	clc
     5b7: 65 15        	adc	$15                     ; 0x2015 <__memset+0x11>
     5b9: a8           	tay
     5ba: a9 d8        	lda	#$d8
     5bc: 65 16        	adc	$16                     ; 0x2016 <__memset+0x12>
     5be: 85 17        	sta	$17                     ; 0x2017 <__memset+0x13>
     5c0: 84 16        	sty	$16                     ; 0x2016 <__memset+0x12>
     5c2: ad 12 de     	lda	$de12                   ; 0xde12 <end_block9+0xbb38>
     5c5: ad 13 de     	lda	$de13                   ; 0xde13 <end_block9+0xbb39>
     5c8: a5 1b        	lda	$1b                     ; 0x201b <__memset+0x17>
     5ca: 92 16        	sta	($16)                   ; 0x2016 <__memset+0x12>
     5cc: a5 1a        	lda	$1a                     ; 0x201a <__memset+0x16>
     5ce: a0 01        	ldy	#$1
     5d0: 91 16        	sta	($16),y                 ; 0x2016 <__memset+0x12>
     5d2: a5 19        	lda	$19                     ; 0x2019 <__memset+0x15>
     5d4: c8           	iny
     5d5: 91 16        	sta	($16),y                 ; 0x2016 <__memset+0x12>
     5d7: c8           	iny
     5d8: a9 ff        	lda	#$ff
     5da: 91 16        	sta	($16),y                 ; 0x2016 <__memset+0x12>
     5dc: e8           	inx
     5dd: 86 15        	stx	$15                     ; 0x2015 <__memset+0x11>
     5df: 18           	clc
     5e0: a5 18        	lda	$18                     ; 0x2018 <__memset+0x14>
     5e2: 69 03        	adc	#$3
     5e4: aa           	tax
     5e5: c9 30        	cmp	#$30
     5e7: f0 03        	beq	$5ec <f256Init+0x177>
     5e9: 4c 49 05     	jmp	$549 <f256Init+0xd4>
     5ec: a6 01        	ldx	$1                      ; 0x2001 <memcpy+0x29>
     5ee: 86 18        	stx	$18                     ; 0x2018 <__memset+0x14>
     5f0: a2 50        	ldx	#$50
     5f2: 8e 00 de     	stx	$de00                   ; 0xde00 <end_block9+0xbb26>
     5f5: 9c 01 de     	stz	$de01                   ; 0xde01 <end_block9+0xbb27>
     5f8: a2 1e        	ldx	#$1e
     5fa: 8e 02 de     	stx	$de02                   ; 0xde02 <end_block9+0xbb28>
     5fd: 9c 03 de     	stz	$de03                   ; 0xde03 <end_block9+0xbb29>
     600: ae 10 de     	ldx	$de10                   ; 0xde10 <end_block9+0xbb36>
     603: ac 11 de     	ldy	$de11                   ; 0xde11 <end_block9+0xbb37>
     606: ad 12 de     	lda	$de12                   ; 0xde12 <end_block9+0xbb38>
     609: ad 13 de     	lda	$de13                   ; 0xde13 <end_block9+0xbb39>
     60c: a9 02        	lda	#$2
     60e: 85 01        	sta	$1                      ; 0x2001 <memcpy+0x29>
     610: e0 01        	cpx	#$1
     612: 98           	tya
     613: e9 00        	sbc	#$0
     615: 50 02        	bvc	$619 <f256Init+0x1a4>
     617: 49 80        	eor	#$80
     619: c9 00        	cmp	#$0
     61b: 30 48        	bmi	$665 <f256Init+0x1f0>
     61d: a9 20        	lda	#$20
     61f: 86 19        	stx	$19                     ; 0x2019 <__memset+0x15>
     621: 86 14        	stx	$14                     ; 0x2014 <__memset+0x10>
     623: 84 15        	sty	$15                     ; 0x2015 <__memset+0x11>
     625: a2 00        	ldx	#$0
     627: 86 16        	stx	$16                     ; 0x2016 <__memset+0x12>
     629: a2 c0        	ldx	#$c0
     62b: 86 17        	stx	$17                     ; 0x2017 <__memset+0x13>
     62d: 92 16        	sta	($16)                   ; 0x2016 <__memset+0x12>
     62f: e6 16        	inc	$16                     ; 0x2016 <__memset+0x12>
     631: d0 02        	bne	$635 <f256Init+0x1c0>
     633: e6 17        	inc	$17                     ; 0x2017 <__memset+0x13>
     635: a2 ff        	ldx	#$ff
     637: c6 14        	dec	$14                     ; 0x2014 <__memset+0x10>
     639: e4 14        	cpx	$14                     ; 0x2014 <__memset+0x10>
     63b: d0 02        	bne	$63f <f256Init+0x1ca>
     63d: c6 15        	dec	$15                     ; 0x2015 <__memset+0x11>
     63f: a6 15        	ldx	$15                     ; 0x2015 <__memset+0x11>
     641: d0 ea        	bne	$62d <f256Init+0x1b8>
     643: a6 14        	ldx	$14                     ; 0x2014 <__memset+0x10>
     645: d0 e6        	bne	$62d <f256Init+0x1b8>
     647: a2 03        	ldx	#$3
     649: 86 01        	stx	$1                      ; 0x2001 <memcpy+0x29>
     64b: a6 19        	ldx	$19                     ; 0x2019 <__memset+0x15>
     64d: a9 f0        	lda	#$f0
     64f: 92 12        	sta	($12)                   ; 0x2012 <__memset+0xe>
     651: e6 12        	inc	$12                     ; 0x2012 <__memset+0xe>
     653: d0 02        	bne	$657 <f256Init+0x1e2>
     655: e6 13        	inc	$13                     ; 0x2013 <__memset+0xf>
     657: ca           	dex
     658: e0 ff        	cpx	#$ff
     65a: d0 01        	bne	$65d <f256Init+0x1e8>
     65c: 88           	dey
     65d: 98           	tya
     65e: d0 ed        	bne	$64d <f256Init+0x1d8>
     660: 8a           	txa
     661: d0 ea        	bne	$64d <f256Init+0x1d8>
     663: 80 04        	bra	$669 <f256Init+0x1f4>
     665: a2 03        	ldx	#$3
     667: 86 01        	stx	$1                      ; 0x2001 <memcpy+0x29>
     669: a6 18        	ldx	$18                     ; 0x2018 <__memset+0x14>
     66b: 86 01        	stx	$1                      ; 0x2001 <memcpy+0x29>
     66d: 64 30        	stz	$30                     ; 0x2030 <__umodsi3+0x7>
     66f: 9c 14 d0     	stz	$d014                   ; 0xd014 <end_block9+0xad3a>
     672: 9c 15 d0     	stz	$d015                   ; 0xd015 <end_block9+0xad3b>
     675: 64 31        	stz	$31                     ; 0x2031 <__umodsi3+0x8>
     677: 9c 16 d0     	stz	$d016                   ; 0xd016 <end_block9+0xad3c>
     67a: 9c 17 d0     	stz	$d017                   ; 0xd017 <end_block9+0xad3d>
     67d: a2 40        	ldx	#$40
     67f: 8e 00 de     	stx	$de00                   ; 0xde00 <end_block9+0xbb26>
     682: a2 01        	ldx	#$1
     684: 8e 01 de     	stx	$de01                   ; 0xde01 <end_block9+0xbb27>
     687: a2 f0        	ldx	#$f0
     689: 8e 02 de     	stx	$de02                   ; 0xde02 <end_block9+0xbb28>
     68c: 9c 03 de     	stz	$de03                   ; 0xde03 <end_block9+0xbb29>
     68f: ae 10 de     	ldx	$de10                   ; 0xde10 <end_block9+0xbb36>
     692: 86 17        	stx	$17                     ; 0x2017 <__memset+0x13>
     694: ae 11 de     	ldx	$de11                   ; 0xde11 <end_block9+0xbb37>
     697: 86 12        	stx	$12                     ; 0x2012 <__memset+0xe>
     699: ae 12 de     	ldx	$de12                   ; 0xde12 <end_block9+0xbb38>
     69c: 86 13        	stx	$13                     ; 0x2013 <__memset+0xf>
     69e: ae 13 de     	ldx	$de13                   ; 0xde13 <end_block9+0xbb39>
     6a1: 86 14        	stx	$14                     ; 0x2014 <__memset+0x10>
     6a3: a4 12        	ldy	$12                     ; 0x2012 <__memset+0xe>
     6a5: 84 15        	sty	$15                     ; 0x2015 <__memset+0x11>
     6a7: 06 15        	asl	$15                     ; 0x2015 <__memset+0x11>
     6a9: a5 13        	lda	$13                     ; 0x2013 <__memset+0xf>
     6ab: 2a           	rol
     6ac: 86 16        	stx	$16                     ; 0x2016 <__memset+0x12>
     6ae: 26 16        	rol	$16                     ; 0x2016 <__memset+0x12>
     6b0: 06 15        	asl	$15                     ; 0x2015 <__memset+0x11>
     6b2: 2a           	rol
     6b3: 26 16        	rol	$16                     ; 0x2016 <__memset+0x12>
     6b5: 06 15        	asl	$15                     ; 0x2015 <__memset+0x11>
     6b7: 2a           	rol
     6b8: 26 16        	rol	$16                     ; 0x2016 <__memset+0x12>
     6ba: 85 15        	sta	$15                     ; 0x2015 <__memset+0x11>
     6bc: 8d 00 de     	sta	$de00                   ; 0xde00 <end_block9+0xbb26>
     6bf: a5 16        	lda	$16                     ; 0x2016 <__memset+0x12>
     6c1: 8d 01 de     	sta	$de01                   ; 0xde01 <end_block9+0xbb27>
     6c4: 9c 02 de     	stz	$de02                   ; 0xde02 <end_block9+0xbb28>
     6c7: a2 20        	ldx	#$20
     6c9: 8e 03 de     	stx	$de03                   ; 0xde03 <end_block9+0xbb29>
     6cc: ae 10 de     	ldx	$de10                   ; 0xde10 <end_block9+0xbb36>
     6cf: 86 16        	stx	$16                     ; 0x2016 <__memset+0x12>
     6d1: ae 11 de     	ldx	$de11                   ; 0xde11 <end_block9+0xbb37>
     6d4: 86 18        	stx	$18                     ; 0x2018 <__memset+0x14>
     6d6: ac 12 de     	ldy	$de12                   ; 0xde12 <end_block9+0xbb38>
     6d9: ae 13 de     	ldx	$de13                   ; 0xde13 <end_block9+0xbb39>
     6dc: e4 14        	cpx	$14                     ; 0x2014 <__memset+0x10>
     6de: d0 14        	bne	$6f4 <f256Init+0x27f>
     6e0: c4 13        	cpy	$13                     ; 0x2013 <__memset+0xf>
     6e2: d0 10        	bne	$6f4 <f256Init+0x27f>
     6e4: a6 18        	ldx	$18                     ; 0x2018 <__memset+0x14>
     6e6: e4 12        	cpx	$12                     ; 0x2012 <__memset+0xe>
     6e8: d0 0a        	bne	$6f4 <f256Init+0x27f>
     6ea: a6 16        	ldx	$16                     ; 0x2016 <__memset+0x12>
     6ec: e4 17        	cpx	$17                     ; 0x2017 <__memset+0x13>
     6ee: d0 04        	bne	$6f4 <f256Init+0x27f>
     6f0: a6 15        	ldx	$15                     ; 0x2015 <__memset+0x11>
     6f2: 80 06        	bra	$6fa <f256Init+0x285>
     6f4: a6 15        	ldx	$15                     ; 0x2015 <__memset+0x11>
     6f6: e8           	inx
     6f7: d0 01        	bne	$6fa <f256Init+0x285>
     6f9: 1a           	inc
     6fa: 8e 00 de     	stx	$de00                   ; 0xde00 <end_block9+0xbb26>
     6fd: 8d 01 de     	sta	$de01                   ; 0xde01 <end_block9+0xbb27>
     700: 9c 02 de     	stz	$de02                   ; 0xde02 <end_block9+0xbb28>
     703: a2 20        	ldx	#$20
     705: 8e 03 de     	stx	$de03                   ; 0xde03 <end_block9+0xbb29>
     708: ae 10 de     	ldx	$de10                   ; 0xde10 <end_block9+0xbb36>
     70b: 86 12        	stx	$12                     ; 0x2012 <__memset+0xe>
     70d: ae 11 de     	ldx	$de11                   ; 0xde11 <end_block9+0xbb37>
     710: 86 13        	stx	$13                     ; 0x2013 <__memset+0xf>
     712: ae 12 de     	ldx	$de12                   ; 0xde12 <end_block9+0xbb38>
     715: 86 14        	stx	$14                     ; 0x2014 <__memset+0x10>
     717: ae 13 de     	ldx	$de13                   ; 0xde13 <end_block9+0xbb39>
     71a: 86 15        	stx	$15                     ; 0x2015 <__memset+0x11>
     71c: a9 00        	lda	#$0
     71e: 38           	sec
     71f: e5 12        	sbc	$12                     ; 0x2012 <__memset+0xe>
     721: 85 16        	sta	$16                     ; 0x2016 <__memset+0x12>
     723: a9 00        	lda	#$0
     725: e5 13        	sbc	$13                     ; 0x2013 <__memset+0xf>
     727: 85 17        	sta	$17                     ; 0x2017 <__memset+0x13>
     729: a9 08        	lda	#$8
     72b: e5 14        	sbc	$14                     ; 0x2014 <__memset+0x10>
     72d: aa           	tax
     72e: a9 00        	lda	#$0
     730: e5 15        	sbc	$15                     ; 0x2015 <__memset+0x11>
     732: a8           	tay
     733: a5 17        	lda	$17                     ; 0x2017 <__memset+0x13>
     735: 8d d2 22     	sta	$22d2                   ; 0x22d2 <__bss_start+0x1>
     738: 8e d3 22     	stx	$22d3                   ; 0x22d3 <__bss_start+0x2>
     73b: 8c d4 22     	sty	$22d4                   ; 0x22d4 <__bss_start+0x3>
     73e: a5 16        	lda	$16                     ; 0x2016 <__memset+0x12>
     740: 38           	sec
     741: e5 12        	sbc	$12                     ; 0x2012 <__memset+0xe>
     743: a8           	tay
     744: a5 17        	lda	$17                     ; 0x2017 <__memset+0x13>
     746: e5 13        	sbc	$13                     ; 0x2013 <__memset+0xf>
     748: 85 15        	sta	$15                     ; 0x2015 <__memset+0x11>
     74a: 8a           	txa
     74b: e5 14        	sbc	$14                     ; 0x2014 <__memset+0x10>
     74d: aa           	tax
     74e: 98           	tya
     74f: 38           	sec
     750: e5 12        	sbc	$12                     ; 0x2012 <__memset+0xe>
     752: 85 12        	sta	$12                     ; 0x2012 <__memset+0xe>
     754: a5 15        	lda	$15                     ; 0x2015 <__memset+0x11>
     756: e5 13        	sbc	$13                     ; 0x2013 <__memset+0xf>
     758: 85 13        	sta	$13                     ; 0x2013 <__memset+0xf>
     75a: 8a           	txa
     75b: 86 17        	stx	$17                     ; 0x2017 <__memset+0x13>
     75d: e5 14        	sbc	$14                     ; 0x2014 <__memset+0x10>
     75f: a6 16        	ldx	$16                     ; 0x2016 <__memset+0x12>
     761: 8e d1 22     	stx	$22d1                   ; 0x22d1 <__bss_start>
     764: 8e 01 d1     	stx	$d101                   ; 0xd101 <end_block9+0xae27>
     767: ae d2 22     	ldx	$22d2                   ; 0x22d2 <__bss_start+0x1>
     76a: 8e 02 d1     	stx	$d102                   ; 0xd102 <end_block9+0xae28>
     76d: ae d3 22     	ldx	$22d3                   ; 0x22d3 <__bss_start+0x2>
     770: 8e 03 d1     	stx	$d103                   ; 0xd103 <end_block9+0xae29>
     773: 8c 09 d1     	sty	$d109                   ; 0xd109 <end_block9+0xae2f>
     776: a6 15        	ldx	$15                     ; 0x2015 <__memset+0x11>
     778: 8e 0a d1     	stx	$d10a                   ; 0xd10a <end_block9+0xae30>
     77b: a6 17        	ldx	$17                     ; 0x2017 <__memset+0x13>
     77d: 8e 0b d1     	stx	$d10b                   ; 0xd10b <end_block9+0xae31>
     780: a6 12        	ldx	$12                     ; 0x2012 <__memset+0xe>
     782: 8e 11 d1     	stx	$d111                   ; 0xd111 <end_block9+0xae37>
     785: a6 13        	ldx	$13                     ; 0x2013 <__memset+0xf>
     787: 8e 12 d1     	stx	$d112                   ; 0xd112 <end_block9+0xae38>
     78a: 8d 13 d1     	sta	$d113                   ; 0xd113 <end_block9+0xae39>
     78d: 9c 00 d1     	stz	$d100                   ; 0xd100 <end_block9+0xae26>
     790: 9c 08 d1     	stz	$d108                   ; 0xd108 <end_block9+0xae2e>
     793: 9c 10 d1     	stz	$d110                   ; 0xd110 <end_block9+0xae36>
     796: a2 10        	ldx	#$10
     798: 8e 00 d2     	stx	$d200                   ; 0xd200 <end_block9+0xaf26>
     79b: 8e 0c d2     	stx	$d20c                   ; 0xd20c <end_block9+0xaf32>
     79e: 8e 18 d2     	stx	$d218                   ; 0xd218 <end_block9+0xaf3e>
     7a1: a0 d9        	ldy	#$d9
     7a3: a2 40        	ldx	#$40
     7a5: 64 12        	stz	$12                     ; 0x2012 <__memset+0xe>
     7a7: 84 13        	sty	$13                     ; 0x2013 <__memset+0xf>
     7a9: a9 00        	lda	#$0
     7ab: 92 12        	sta	($12)                   ; 0x2012 <__memset+0xe>
     7ad: ca           	dex
     7ae: 18           	clc
     7af: a5 12        	lda	$12                     ; 0x2012 <__memset+0xe>
     7b1: 69 08        	adc	#$8
     7b3: 85 12        	sta	$12                     ; 0x2012 <__memset+0xe>
     7b5: 98           	tya
     7b6: 69 00        	adc	#$0
     7b8: a8           	tay
     7b9: 8a           	txa
     7ba: d0 eb        	bne	$7a7 <f256Init+0x332>
     7bc: a2 3e        	ldx	#$3e
     7be: a0 00        	ldy	#$0
     7c0: 86 fb        	stx	$fb                     ; 0x20fb <__umodsi3+0xd2>
     7c2: 84 fc        	sty	$fc                     ; 0x20fc <__umodsi3+0xd3>
     7c4: a2 08        	ldx	#$8
     7c6: 86 fd        	stx	$fd                     ; 0x20fd <__umodsi3+0xd4>
     7c8: a2 46        	ldx	#$46
     7ca: a0 00        	ldy	#$0
     7cc: 86 12        	stx	$12                     ; 0x2012 <__memset+0xe>
     7ce: 84 13        	sty	$13                     ; 0x2013 <__memset+0xf>
     7d0: a2 36        	ldx	#$36
     7d2: 86 14        	stx	$14                     ; 0x2014 <__memset+0x10>
     7d4: a2 00        	ldx	#$0
     7d6: 86 15        	stx	$15                     ; 0x2015 <__memset+0x11>
     7d8: 20 dc ff     	jsr	$ffdc <end_block9+0xdd02>
     7db: 92 12        	sta	($12)                   ; 0x2012 <__memset+0xe>
     7dd: a9 00        	lda	#$0
     7df: 6a           	ror
     7e0: 85 14        	sta	$14                     ; 0x2014 <__memset+0x10>
     7e2: a6 44        	ldx	$44                     ; 0x2044 <__umodsi3+0x1b>
     7e4: a4 45        	ldy	$45                     ; 0x2045 <__umodsi3+0x1c>
     7e6: 8e 00 de     	stx	$de00                   ; 0xde00 <end_block9+0xbb26>
     7e9: 9c 01 de     	stz	$de01                   ; 0xde01 <end_block9+0xbb27>
     7ec: 8c 02 de     	sty	$de02                   ; 0xde02 <end_block9+0xbb28>
     7ef: 9c 03 de     	stz	$de03                   ; 0xde03 <end_block9+0xbb29>
     7f2: ae 10 de     	ldx	$de10                   ; 0xde10 <end_block9+0xbb36>
     7f5: ac 11 de     	ldy	$de11                   ; 0xde11 <end_block9+0xbb37>
     7f8: ad 12 de     	lda	$de12                   ; 0xde12 <end_block9+0xbb38>
     7fb: ad 13 de     	lda	$de13                   ; 0xde13 <end_block9+0xbb39>
     7fe: 8e a4 d6     	stx	$d6a4                   ; 0xd6a4 <end_block9+0xb3ca>
     801: 8c a5 d6     	sty	$d6a5                   ; 0xd6a5 <end_block9+0xb3cb>
     804: a2 03        	ldx	#$3
     806: 8e a6 d6     	stx	$d6a6                   ; 0xd6a6 <end_block9+0xb3cc>
     809: 60           	rts

0000080a <main>:
     80a: 20 75 04     	jsr	$475 <f256Init>
     80d: 20 10 08     	jsr	$810 <f256main>

00000810 <f256main>:
     810: 18           	clc
     811: a5 10        	lda	$10                     ; 0x2010 <__memset+0xc>
     813: 69 fa        	adc	#$fa
     815: 85 10        	sta	$10                     ; 0x2010 <__memset+0xc>
     817: a5 11        	lda	$11                     ; 0x2011 <__memset+0xd>
     819: 69 df        	adc	#$df
     81b: 85 11        	sta	$11                     ; 0x2011 <__memset+0xd>
     81d: a2 1f        	ldx	#$1f
     81f: 8e 20 d6     	stx	$d620                   ; 0xd620 <end_block9+0xb346>
     822: a2 2a        	ldx	#$2a
     824: 8e 21 d6     	stx	$d621                   ; 0xd621 <end_block9+0xb347>
     827: a2 01        	ldx	#$1
     829: 8e 22 d6     	stx	$d622                   ; 0xd622 <end_block9+0xb348>
     82c: ad 22 d6     	lda	$d622                   ; 0xd622 <end_block9+0xb348>
     82f: 29 01        	and	#$1
     831: 29 01        	and	#$1
     833: d0 f7        	bne	$82c <f256main+0x1c>
     835: a2 03        	ldx	#$3
     837: 8e 01 d7     	stx	$d701                   ; 0xd701 <end_block9+0xb427>
     83a: 9c 02 d7     	stz	$d702                   ; 0xd702 <end_block9+0xb428>
     83d: a2 c0        	ldx	#$c0
     83f: 8e 03 d7     	stx	$d703                   ; 0xd703 <end_block9+0xb429>
     842: a2 01        	ldx	#$1
     844: 8e 00 d7     	stx	$d700                   ; 0xd700 <end_block9+0xb426>
     847: 9c 00 d7     	stz	$d700                   ; 0xd700 <end_block9+0xb426>
     84a: ae 00 d7     	ldx	$d700                   ; 0xd700 <end_block9+0xb426>
     84d: 30 fb        	bmi	$84a <f256main+0x3a>
     84f: a2 00        	ldx	#$0
     851: 64 01        	stz	$1                      ; 0x2001 <memcpy+0x29>
     853: a0 2f        	ldy	#$2f
     855: 8c 00 d0     	sty	$d000                   ; 0xd000 <end_block9+0xad26>
     858: a0 04        	ldy	#$4
     85a: 8c 01 d0     	sty	$d001                   ; 0xd001 <end_block9+0xad27>
     85d: a0 01        	ldy	#$1
     85f: 8c 02 d0     	sty	$d002                   ; 0xd002 <end_block9+0xad28>
     862: a9 02        	lda	#$2
     864: 8d 03 d0     	sta	$d003                   ; 0xd003 <end_block9+0xad29>
     867: 9c 0d d0     	stz	$d00d                   ; 0xd00d <end_block9+0xad33>
     86a: 9c 0e d0     	stz	$d00e                   ; 0xd00e <end_block9+0xad34>
     86d: 9c 0f d0     	stz	$d00f                   ; 0xd00f <end_block9+0xad35>
     870: 84 01        	sty	$1                      ; 0x2001 <memcpy+0x29>
     872: a0 d0        	ldy	#$d0
     874: 8a           	txa
     875: 18           	clc
     876: 69 00        	adc	#$0
     878: 85 14        	sta	$14                     ; 0x2014 <__memset+0x10>
     87a: 98           	tya
     87b: 69 10        	adc	#$10
     87d: 85 15        	sta	$15                     ; 0x2015 <__memset+0x11>
     87f: 86 12        	stx	$12                     ; 0x2012 <__memset+0xe>
     881: 84 13        	sty	$13                     ; 0x2013 <__memset+0xf>
     883: 86 16        	stx	$16                     ; 0x2016 <__memset+0x12>
     885: a6 0f        	ldx	$f                      ; 0x200f <__memset+0xb>
     887: 78           	sei
     888: a9 08        	lda	#$8
     88a: 85 0f        	sta	$f                      ; 0x200f <__memset+0xb>
     88c: b2 14        	lda	($14)                   ; 0x2014 <__memset+0x10>
     88e: 86 0f        	stx	$f                      ; 0x200f <__memset+0xb>
     890: a6 16        	ldx	$16                     ; 0x2016 <__memset+0x12>
     892: 58           	cli
     893: 92 12        	sta	($12)                   ; 0x2012 <__memset+0xe>
     895: e8           	inx
     896: d0 01        	bne	$899 <f256main+0x89>
     898: c8           	iny
     899: c0 d3        	cpy	#$d3
     89b: d0 d7        	bne	$874 <f256main+0x64>
     89d: e0 ff        	cpx	#$ff
     89f: d0 d3        	bne	$874 <f256main+0x64>
     8a1: 64 01        	stz	$1                      ; 0x2001 <memcpy+0x29>
     8a3: 9c d1 22     	stz	$22d1                   ; 0x22d1 <__bss_start>
     8a6: a2 04        	ldx	#$4
     8a8: 8e d2 22     	stx	$22d2                   ; 0x22d2 <__bss_start+0x1>
     8ab: a0 01        	ldy	#$1
     8ad: 8c d3 22     	sty	$22d3                   ; 0x22d3 <__bss_start+0x2>
     8b0: 9c d4 22     	stz	$22d4                   ; 0x22d4 <__bss_start+0x3>
     8b3: 9c 01 d1     	stz	$d101                   ; 0xd101 <end_block9+0xae27>
     8b6: 8e 02 d1     	stx	$d102                   ; 0xd102 <end_block9+0xae28>
     8b9: 8c 03 d1     	sty	$d103                   ; 0xd103 <end_block9+0xae29>
     8bc: ad 00 d1     	lda	$d100                   ; 0xd100 <end_block9+0xae26>
     8bf: 29 f9        	and	#$f9
     8c1: 8d 00 d1     	sta	$d100                   ; 0xd100 <end_block9+0xae26>
     8c4: 8c 00 d1     	sty	$d100                   ; 0xd100 <end_block9+0xae26>
     8c7: 9c 08 d1     	stz	$d108                   ; 0xd108 <end_block9+0xae2e>
     8ca: 9c 10 d1     	stz	$d110                   ; 0xd110 <end_block9+0xae36>
     8cd: a9 aa        	lda	#$aa
     8cf: 92 10        	sta	($10)                   ; 0x2010 <__memset+0xc>
     8d1: a9 22        	lda	#$22
     8d3: 91 10        	sta	($10),y                 ; 0x2010 <__memset+0xc>
     8d5: a2 98        	ldx	#$98
     8d7: 86 12        	stx	$12                     ; 0x2012 <__memset+0xe>
     8d9: a2 22        	ldx	#$22
     8db: 86 13        	stx	$13                     ; 0x2013 <__memset+0xf>
     8dd: 20 71 11     	jsr	$1171 <printf>
     8e0: 20 24 20     	jsr	$2024 <strlen>
     8e3: a8           	tay
     8e4: a2 60        	ldx	#$60
     8e6: 86 12        	stx	$12                     ; 0x2012 <__memset+0xe>
     8e8: a2 22        	ldx	#$22
     8ea: 86 13        	stx	$13                     ; 0x2013 <__memset+0xf>
     8ec: a2 00        	ldx	#$0
     8ee: 80 08        	bra	$8f8 <f256main+0xe8>
     8f0: a2 02        	ldx	#$2
     8f2: e6 12        	inc	$12                     ; 0x2012 <__memset+0xe>
     8f4: d0 02        	bne	$8f8 <f256main+0xe8>
     8f6: e6 13        	inc	$13                     ; 0x2013 <__memset+0xf>
     8f8: b2 12        	lda	($12)                   ; 0x2012 <__memset+0xe>
     8fa: c9 61        	cmp	#$61
     8fc: f0 f2        	beq	$8f0 <f256main+0xe0>
     8fe: 86 14        	stx	$14                     ; 0x2014 <__memset+0x10>
     900: a2 01        	ldx	#$1
     902: c9 77        	cmp	#$77
     904: f0 ec        	beq	$8f2 <f256main+0xe2>
     906: aa           	tax
     907: f0 04        	beq	$90d <f256main+0xfd>
     909: a6 14        	ldx	$14                     ; 0x2014 <__memset+0x10>
     90b: 80 e5        	bra	$8f2 <f256main+0xe2>
     90d: a2 aa        	ldx	#$aa
     90f: a9 22        	lda	#$22
     911: 86 fb        	stx	$fb                     ; 0x20fb <__umodsi3+0xd2>
     913: 85 fc        	sta	$fc                     ; 0x20fc <__umodsi3+0xd3>
     915: 84 fd        	sty	$fd                     ; 0x20fd <__umodsi3+0xd4>
     917: 64 f3        	stz	$f3                     ; 0x20f3 <__umodsi3+0xca>
     919: a6 14        	ldx	$14                     ; 0x2014 <__memset+0x10>
     91b: 86 f5        	stx	$f5                     ; 0x20f5 <__umodsi3+0xcc>
     91d: 18           	clc
     91e: a5 10        	lda	$10                     ; 0x2010 <__memset+0xc>
     920: 69 05        	adc	#$5
     922: 85 28        	sta	$28                     ; 0x2028 <strlen+0x4>
     924: a5 11        	lda	$11                     ; 0x2011 <__memset+0xd>
     926: 69 00        	adc	#$0
     928: 85 29        	sta	$29                     ; 0x2029 <__umodsi3>
     92a: a2 36        	ldx	#$36
     92c: 86 12        	stx	$12                     ; 0x2012 <__memset+0xe>
     92e: a2 00        	ldx	#$0
     930: 86 13        	stx	$13                     ; 0x2013 <__memset+0xf>
     932: 20 5c ff     	jsr	$ff5c <end_block9+0xdc82>
     935: 92 28        	sta	($28)                   ; 0x2028 <strlen+0x4>
     937: a9 00        	lda	#$0
     939: 6a           	ror
     93a: 85 12        	sta	$12                     ; 0x2012 <__memset+0xe>
     93c: a6 36        	ldx	$36                     ; 0x2036 <__umodsi3+0xd>
     93e: d0 03        	bne	$943 <f256main+0x133>
     940: 4c 9b 0b     	jmp	$b9b <f256main+0x38b>
     943: a2 00        	ldx	#$0
     945: 86 12        	stx	$12                     ; 0x2012 <__memset+0xe>
     947: a2 00        	ldx	#$0
     949: 86 13        	stx	$13                     ; 0x2013 <__memset+0xf>
     94b: a6 12        	ldx	$12                     ; 0x2012 <__memset+0xe>
     94d: a4 13        	ldy	$13                     ; 0x2013 <__memset+0xf>
     94f: 86 34        	stx	$34                     ; 0x2034 <__umodsi3+0xb>
     951: 84 35        	sty	$35                     ; 0x2035 <__umodsi3+0xc>
     953: a9 aa        	lda	#$aa
     955: 92 10        	sta	($10)                   ; 0x2010 <__memset+0xc>
     957: a0 01        	ldy	#$1
     959: a9 22        	lda	#$22
     95b: 91 10        	sta	($10),y                 ; 0x2010 <__memset+0xc>
     95d: a2 b5        	ldx	#$b5
     95f: 86 12        	stx	$12                     ; 0x2012 <__memset+0xe>
     961: a2 22        	ldx	#$22
     963: 86 13        	stx	$13                     ; 0x2013 <__memset+0xf>
     965: 20 71 11     	jsr	$1171 <printf>
     968: a6 34        	ldx	$34                     ; 0x2034 <__umodsi3+0xb>
     96a: a4 35        	ldy	$35                     ; 0x2035 <__umodsi3+0xc>
     96c: 86 24        	stx	$24                     ; 0x2024 <strlen>
     96e: 84 25        	sty	$25                     ; 0x2025 <strlen+0x1>
     970: a2 40        	ldx	#$40
     972: a4 28        	ldy	$28                     ; 0x2028 <strlen+0x4>
     974: 84 26        	sty	$26                     ; 0x2026 <strlen+0x2>
     976: a4 29        	ldy	$29                     ; 0x2029 <__umodsi3>
     978: 84 27        	sty	$27                     ; 0x2027 <strlen+0x3>
     97a: a4 26        	ldy	$26                     ; 0x2026 <strlen+0x2>
     97c: 84 12        	sty	$12                     ; 0x2012 <__memset+0xe>
     97e: a4 27        	ldy	$27                     ; 0x2027 <strlen+0x3>
     980: 84 13        	sty	$13                     ; 0x2013 <__memset+0xf>
     982: a4 24        	ldy	$24                     ; 0x2024 <strlen>
     984: 84 14        	sty	$14                     ; 0x2014 <__memset+0x10>
     986: a4 25        	ldy	$25                     ; 0x2025 <strlen+0x1>
     988: 84 15        	sty	$15                     ; 0x2015 <__memset+0x11>
     98a: 86 2a        	stx	$2a                     ; 0x202a <__umodsi3+0x1>
     98c: a2 00        	ldx	#$0
     98e: a9 80        	lda	#$80
     990: 20 dd 0b     	jsr	$bdd <fileRead>
     993: a6 2a        	ldx	$2a                     ; 0x202a <__umodsi3+0x1>
     995: ca           	dex
     996: a5 26        	lda	$26                     ; 0x2026 <strlen+0x2>
     998: 18           	clc
     999: 69 80        	adc	#$80
     99b: 85 26        	sta	$26                     ; 0x2026 <strlen+0x2>
     99d: a5 27        	lda	$27                     ; 0x2027 <strlen+0x3>
     99f: 69 00        	adc	#$0
     9a1: 85 27        	sta	$27                     ; 0x2027 <strlen+0x3>
     9a3: 8a           	txa
     9a4: d0 d4        	bne	$97a <f256main+0x16a>
     9a6: a2 63        	ldx	#$63
     9a8: 86 12        	stx	$12                     ; 0x2012 <__memset+0xe>
     9aa: a2 22        	ldx	#$22
     9ac: 86 13        	stx	$13                     ; 0x2013 <__memset+0xf>
     9ae: 20 71 11     	jsr	$1171 <printf>
     9b1: a2 36        	ldx	#$36
     9b3: 86 12        	stx	$12                     ; 0x2012 <__memset+0xe>
     9b5: a2 00        	ldx	#$0
     9b7: 86 13        	stx	$13                     ; 0x2013 <__memset+0xf>
     9b9: 64 37        	stz	$37                     ; 0x2037 <__umodsi3+0xe>
     9bb: 18           	clc
     9bc: a5 10        	lda	$10                     ; 0x2010 <__memset+0xc>
     9be: 69 05        	adc	#$5
     9c0: 85 14        	sta	$14                     ; 0x2014 <__memset+0x10>
     9c2: a5 11        	lda	$11                     ; 0x2011 <__memset+0xd>
     9c4: 69 20        	adc	#$20
     9c6: 85 15        	sta	$15                     ; 0x2015 <__memset+0x11>
     9c8: 20 00 ff     	jsr	$ff00 <end_block9+0xdc26>
     9cb: 92 14        	sta	($14)                   ; 0x2014 <__memset+0x10>
     9cd: a9 00        	lda	#$0
     9cf: 6a           	ror
     9d0: 85 12        	sta	$12                     ; 0x2012 <__memset+0xe>
     9d2: a6 37        	ldx	$37                     ; 0x2037 <__umodsi3+0xe>
     9d4: e0 08        	cpx	#$8
     9d6: d0 e1        	bne	$9b9 <f256main+0x1a9>
     9d8: a6 3b        	ldx	$3b                     ; 0x203b <__umodsi3+0x12>
     9da: e0 20        	cpx	#$20
     9dc: f0 04        	beq	$9e2 <f256main+0x1d2>
     9de: e0 94        	cpx	#$94
     9e0: d0 d7        	bne	$9b9 <f256main+0x1a9>
     9e2: a2 db        	ldx	#$db
     9e4: 86 12        	stx	$12                     ; 0x2012 <__memset+0xe>
     9e6: a2 21        	ldx	#$21
     9e8: 86 13        	stx	$13                     ; 0x2013 <__memset+0xf>
     9ea: 20 71 11     	jsr	$1171 <printf>
     9ed: a0 08        	ldy	#$8
     9ef: a2 00        	ldx	#$0
     9f1: b2 28        	lda	($28)                   ; 0x2028 <strlen+0x4>
     9f3: 8d 07 d7     	sta	$d707                   ; 0xd707 <end_block9+0xb42d>
     9f6: ca           	dex
     9f7: e0 ff        	cpx	#$ff
     9f9: d0 01        	bne	$9fc <f256main+0x1ec>
     9fb: 88           	dey
     9fc: e6 28        	inc	$28                     ; 0x2028 <strlen+0x4>
     9fe: d0 02        	bne	$a02 <f256main+0x1f2>
     a00: e6 29        	inc	$29                     ; 0x2029 <__umodsi3>
     a02: 98           	tya
     a03: d0 ec        	bne	$9f1 <f256main+0x1e1>
     a05: 8a           	txa
     a06: d0 e9        	bne	$9f1 <f256main+0x1e1>
     a08: 18           	clc
     a09: a5 10        	lda	$10                     ; 0x2010 <__memset+0xc>
     a0b: 69 05        	adc	#$5
     a0d: 48           	pha
     a0e: a5 11        	lda	$11                     ; 0x2011 <__memset+0xd>
     a10: 69 00        	adc	#$0
     a12: 85 12        	sta	$12                     ; 0x2012 <__memset+0xe>
     a14: 68           	pla
     a15: 18           	clc
     a16: 69 00        	adc	#$0
     a18: aa           	tax
     a19: a5 12        	lda	$12                     ; 0x2012 <__memset+0xe>
     a1b: 69 08        	adc	#$8
     a1d: 86 12        	stx	$12                     ; 0x2012 <__memset+0xe>
     a1f: 85 13        	sta	$13                     ; 0x2013 <__memset+0xf>
     a21: a0 08        	ldy	#$8
     a23: a2 00        	ldx	#$0
     a25: b2 12        	lda	($12)                   ; 0x2012 <__memset+0xe>
     a27: 8d 07 d7     	sta	$d707                   ; 0xd707 <end_block9+0xb42d>
     a2a: ca           	dex
     a2b: e0 ff        	cpx	#$ff
     a2d: d0 01        	bne	$a30 <f256main+0x220>
     a2f: 88           	dey
     a30: e6 12        	inc	$12                     ; 0x2012 <__memset+0xe>
     a32: d0 02        	bne	$a36 <f256main+0x226>
     a34: e6 13        	inc	$13                     ; 0x2013 <__memset+0xf>
     a36: 98           	tya
     a37: d0 ec        	bne	$a25 <f256main+0x215>
     a39: 8a           	txa
     a3a: d0 e9        	bne	$a25 <f256main+0x215>
     a3c: a2 17        	ldx	#$17
     a3e: 86 12        	stx	$12                     ; 0x2012 <__memset+0xe>
     a40: a2 22        	ldx	#$22
     a42: 86 13        	stx	$13                     ; 0x2013 <__memset+0xf>
     a44: 20 71 11     	jsr	$1171 <printf>
     a47: a2 48        	ldx	#$48
     a49: 86 12        	stx	$12                     ; 0x2012 <__memset+0xe>
     a4b: a2 22        	ldx	#$22
     a4d: 86 13        	stx	$13                     ; 0x2013 <__memset+0xf>
     a4f: 20 71 11     	jsr	$1171 <printf>
     a52: a2 10        	ldx	#$10
     a54: 8a           	txa
     a55: a0 02        	ldy	#$2
     a57: 91 10        	sta	($10),y                 ; 0x2010 <__memset+0xc>
     a59: 64 26        	stz	$26                     ; 0x2026 <strlen+0x2>
     a5b: 64 28        	stz	$28                     ; 0x2028 <strlen+0x4>
     a5d: 64 27        	stz	$27                     ; 0x2027 <strlen+0x3>
     a5f: 4c c7 0a     	jmp	$ac7 <f256main+0x2b7>
     a62: 84 27        	sty	$27                     ; 0x2027 <strlen+0x3>
     a64: a6 26        	ldx	$26                     ; 0x2026 <strlen+0x2>
     a66: 18           	clc
     a67: a5 10        	lda	$10                     ; 0x2010 <__memset+0xc>
     a69: 69 05        	adc	#$5
     a6b: 85 12        	sta	$12                     ; 0x2012 <__memset+0xe>
     a6d: a5 11        	lda	$11                     ; 0x2011 <__memset+0xd>
     a6f: 69 00        	adc	#$0
     a71: 85 13        	sta	$13                     ; 0x2013 <__memset+0xf>
     a73: 8a           	txa
     a74: 18           	clc
     a75: 65 12        	adc	$12                     ; 0x2012 <__memset+0xe>
     a77: 85 12        	sta	$12                     ; 0x2012 <__memset+0xe>
     a79: a5 28        	lda	$28                     ; 0x2028 <strlen+0x4>
     a7b: 65 13        	adc	$13                     ; 0x2013 <__memset+0xf>
     a7d: 85 13        	sta	$13                     ; 0x2013 <__memset+0xf>
     a7f: a6 34        	ldx	$34                     ; 0x2034 <__umodsi3+0xb>
     a81: 86 14        	stx	$14                     ; 0x2014 <__memset+0x10>
     a83: a6 35        	ldx	$35                     ; 0x2035 <__umodsi3+0xc>
     a85: 86 15        	stx	$15                     ; 0x2015 <__memset+0x11>
     a87: a2 00        	ldx	#$0
     a89: a9 40        	lda	#$40
     a8b: 20 dd 0b     	jsr	$bdd <fileRead>
     a8e: a5 26        	lda	$26                     ; 0x2026 <strlen+0x2>
     a90: 18           	clc
     a91: 69 40        	adc	#$40
     a93: 85 12        	sta	$12                     ; 0x2012 <__memset+0xe>
     a95: a5 28        	lda	$28                     ; 0x2028 <strlen+0x4>
     a97: 69 00        	adc	#$0
     a99: 85 28        	sta	$28                     ; 0x2028 <strlen+0x4>
     a9b: c9 20        	cmp	#$20
     a9d: d0 0e        	bne	$aad <f256main+0x29d>
     a9f: a6 29        	ldx	$29                     ; 0x2029 <__umodsi3>
     aa1: a4 2a        	ldy	$2a                     ; 0x202a <__umodsi3+0x1>
     aa3: a5 12        	lda	$12                     ; 0x2012 <__memset+0xe>
     aa5: d0 0c        	bne	$ab3 <f256main+0x2a3>
     aa7: a9 00        	lda	#$0
     aa9: 64 28        	stz	$28                     ; 0x2028 <strlen+0x4>
     aab: 80 06        	bra	$ab3 <f256main+0x2a3>
     aad: a6 29        	ldx	$29                     ; 0x2029 <__umodsi3>
     aaf: a4 2a        	ldy	$2a                     ; 0x202a <__umodsi3+0x1>
     ab1: a5 12        	lda	$12                     ; 0x2012 <__memset+0xe>
     ab3: 85 26        	sta	$26                     ; 0x2026 <strlen+0x2>
     ab5: e8           	inx
     ab6: d0 01        	bne	$ab9 <f256main+0x2a9>
     ab8: c8           	iny
     ab9: c4 25        	cpy	$25                     ; 0x2025 <strlen+0x1>
     abb: f0 03        	beq	$ac0 <f256main+0x2b0>
     abd: 4c 41 0b     	jmp	$b41 <f256main+0x331>
     ac0: e4 24        	cpx	$24                     ; 0x2024 <strlen>
     ac2: f0 03        	beq	$ac7 <f256main+0x2b7>
     ac4: 4c 41 0b     	jmp	$b41 <f256main+0x331>
     ac7: a2 15        	ldx	#$15
     ac9: 86 12        	stx	$12                     ; 0x2012 <__memset+0xe>
     acb: a2 22        	ldx	#$22
     acd: 86 13        	stx	$13                     ; 0x2013 <__memset+0xf>
     acf: a5 12        	lda	$12                     ; 0x2012 <__memset+0xe>
     ad1: a0 03        	ldy	#$3
     ad3: 91 10        	sta	($10),y                 ; 0x2010 <__memset+0xc>
     ad5: a5 13        	lda	$13                     ; 0x2013 <__memset+0xf>
     ad7: c8           	iny
     ad8: 91 10        	sta	($10),y                 ; 0x2010 <__memset+0xc>
     ada: ae 04 d7     	ldx	$d704                   ; 0xd704 <end_block9+0xb42a>
     add: 86 12        	stx	$12                     ; 0x2012 <__memset+0xe>
     adf: ad 05 d7     	lda	$d705                   ; 0xd705 <end_block9+0xb42b>
     ae2: 29 0f        	and	#$f
     ae4: 85 13        	sta	$13                     ; 0x2013 <__memset+0xf>
     ae6: 38           	sec
     ae7: a9 00        	lda	#$0
     ae9: e5 12        	sbc	$12                     ; 0x2012 <__memset+0xe>
     aeb: 85 12        	sta	$12                     ; 0x2012 <__memset+0xe>
     aed: a9 08        	lda	#$8
     aef: e5 13        	sbc	$13                     ; 0x2013 <__memset+0xf>
     af1: 06 12        	asl	$12                     ; 0x2012 <__memset+0xe>
     af3: 2a           	rol
     af4: 64 25        	stz	$25                     ; 0x2025 <strlen+0x1>
     af6: 26 25        	rol	$25                     ; 0x2025 <strlen+0x1>
     af8: 06 12        	asl	$12                     ; 0x2012 <__memset+0xe>
     afa: 2a           	rol
     afb: 85 24        	sta	$24                     ; 0x2024 <strlen>
     afd: 26 25        	rol	$25                     ; 0x2025 <strlen+0x1>
     aff: 64 30        	stz	$30                     ; 0x2030 <__umodsi3+0x7>
     b01: 9c 14 d0     	stz	$d014                   ; 0xd014 <end_block9+0xad3a>
     b04: 9c 15 d0     	stz	$d015                   ; 0xd015 <end_block9+0xad3b>
     b07: a2 07        	ldx	#$7
     b09: 86 31        	stx	$31                     ; 0x2031 <__umodsi3+0x8>
     b0b: 8e 16 d0     	stx	$d016                   ; 0xd016 <end_block9+0xad3c>
     b0e: 9c 17 d0     	stz	$d017                   ; 0xd017 <end_block9+0xad3d>
     b11: 38           	sec
     b12: a9 20        	lda	#$20
     b14: e5 24        	sbc	$24                     ; 0x2024 <strlen>
     b16: a8           	tay
     b17: a9 00        	lda	#$0
     b19: e5 25        	sbc	$25                     ; 0x2025 <strlen+0x1>
     b1b: 64 12        	stz	$12                     ; 0x2012 <__memset+0xe>
     b1d: 64 13        	stz	$13                     ; 0x2013 <__memset+0xf>
     b1f: aa           	tax
     b20: 98           	tya
     b21: 20 c6 0e     	jsr	$ec6 <textPrintUInt>
     b24: a0 03        	ldy	#$3
     b26: b1 10        	lda	($10),y                 ; 0x2010 <__memset+0xc>
     b28: 85 12        	sta	$12                     ; 0x2012 <__memset+0xe>
     b2a: c8           	iny
     b2b: b1 10        	lda	($10),y                 ; 0x2010 <__memset+0xc>
     b2d: 85 13        	sta	$13                     ; 0x2013 <__memset+0xf>
     b2f: 20 0e 0d     	jsr	$d0e <textPrint>
     b32: a5 25        	lda	$25                     ; 0x2025 <strlen+0x1>
     b34: d0 07        	bne	$b3d <f256main+0x32d>
     b36: a5 24        	lda	$24                     ; 0x2024 <strlen>
     b38: d0 03        	bne	$b3d <f256main+0x32d>
     b3a: 4c da 0a     	jmp	$ada <f256main+0x2ca>
     b3d: a2 00        	ldx	#$0
     b3f: a0 00        	ldy	#$0
     b41: 84 2a        	sty	$2a                     ; 0x202a <__umodsi3+0x1>
     b43: 86 29        	stx	$29                     ; 0x2029 <__umodsi3>
     b45: 18           	clc
     b46: a5 10        	lda	$10                     ; 0x2010 <__memset+0xc>
     b48: 69 05        	adc	#$5
     b4a: 85 12        	sta	$12                     ; 0x2012 <__memset+0xe>
     b4c: a5 11        	lda	$11                     ; 0x2011 <__memset+0xd>
     b4e: 69 00        	adc	#$0
     b50: 85 13        	sta	$13                     ; 0x2013 <__memset+0xf>
     b52: a5 27        	lda	$27                     ; 0x2027 <strlen+0x3>
     b54: 18           	clc
     b55: 65 12        	adc	$12                     ; 0x2012 <__memset+0xe>
     b57: 85 12        	sta	$12                     ; 0x2012 <__memset+0xe>
     b59: a0 02        	ldy	#$2
     b5b: b1 10        	lda	($10),y                 ; 0x2010 <__memset+0xc>
     b5d: 65 13        	adc	$13                     ; 0x2013 <__memset+0xf>
     b5f: 85 13        	sta	$13                     ; 0x2013 <__memset+0xf>
     b61: a0 00        	ldy	#$0
     b63: b1 12        	lda	($12),y                 ; 0x2012 <__memset+0xe>
     b65: 8d 07 d7     	sta	$d707                   ; 0xd707 <end_block9+0xb42d>
     b68: c8           	iny
     b69: c0 40        	cpy	#$40
     b6b: d0 f6        	bne	$b63 <f256main+0x353>
     b6d: 18           	clc
     b6e: a5 27        	lda	$27                     ; 0x2027 <strlen+0x3>
     b70: 69 40        	adc	#$40
     b72: a8           	tay
     b73: 5a           	phy
     b74: a0 02        	ldy	#$2
     b76: b1 10        	lda	($10),y                 ; 0x2010 <__memset+0xc>
     b78: 69 00        	adc	#$0
     b7a: 91 10        	sta	($10),y                 ; 0x2010 <__memset+0xc>
     b7c: 7a           	ply
     b7d: c9 20        	cmp	#$20
     b7f: f0 03        	beq	$b84 <f256main+0x374>
     b81: 4c 62 0a     	jmp	$a62 <f256main+0x252>
     b84: a6 26        	ldx	$26                     ; 0x2026 <strlen+0x2>
     b86: 84 27        	sty	$27                     ; 0x2027 <strlen+0x3>
     b88: 98           	tya
     b89: f0 03        	beq	$b8e <f256main+0x37e>
     b8b: 4c 66 0a     	jmp	$a66 <f256main+0x256>
     b8e: 64 27        	stz	$27                     ; 0x2027 <strlen+0x3>
     b90: 64 12        	stz	$12                     ; 0x2012 <__memset+0xe>
     b92: a9 00        	lda	#$0
     b94: a0 02        	ldy	#$2
     b96: 91 10        	sta	($10),y                 ; 0x2010 <__memset+0xc>
     b98: 4c 66 0a     	jmp	$a66 <f256main+0x256>
     b9b: b2 28        	lda	($28)                   ; 0x2028 <strlen+0x4>
     b9d: 85 26        	sta	$26                     ; 0x2026 <strlen+0x2>
     b9f: 64 37        	stz	$37                     ; 0x2037 <__umodsi3+0xe>
     ba1: 20 00 ff     	jsr	$ff00 <end_block9+0xdc26>
     ba4: 92 28        	sta	($28)                   ; 0x2028 <strlen+0x4>
     ba6: a9 00        	lda	#$0
     ba8: 6a           	ror
     ba9: 85 12        	sta	$12                     ; 0x2012 <__memset+0xe>
     bab: a6 37        	ldx	$37                     ; 0x2037 <__umodsi3+0xe>
     bad: e0 28        	cpx	#$28
     baf: d0 03        	bne	$bb4 <f256main+0x3a4>
     bb1: 4c 43 09     	jmp	$943 <f256main+0x133>
     bb4: e0 38        	cpx	#$38
     bb6: d0 03        	bne	$bbb <f256main+0x3ab>
     bb8: 4c 43 09     	jmp	$943 <f256main+0x133>
     bbb: e0 2a        	cpx	#$2a
     bbd: d0 e0        	bne	$b9f <f256main+0x38f>
     bbf: a9 01        	lda	#$1
     bc1: a2 00        	ldx	#$0
     bc3: 20 21 1d     	jsr	$1d21 <malloc>
     bc6: a6 12        	ldx	$12                     ; 0x2012 <__memset+0xe>
     bc8: 86 24        	stx	$24                     ; 0x2024 <strlen>
     bca: a6 13        	ldx	$13                     ; 0x2013 <__memset+0xf>
     bcc: 86 25        	stx	$25                     ; 0x2025 <strlen+0x1>
     bce: a5 26        	lda	$26                     ; 0x2026 <strlen+0x2>
     bd0: 92 12        	sta	($12)                   ; 0x2012 <__memset+0xe>
     bd2: a6 24        	ldx	$24                     ; 0x2024 <strlen>
     bd4: a4 25        	ldy	$25                     ; 0x2025 <strlen+0x1>
     bd6: 86 34        	stx	$34                     ; 0x2034 <__umodsi3+0xb>
     bd8: 84 35        	sty	$35                     ; 0x2035 <__umodsi3+0xc>
     bda: 4c 70 09     	jmp	$970 <f256main+0x160>

00000bdd <fileRead>:
     bdd: 85 16        	sta	$16                     ; 0x2016 <__memset+0x12>
     bdf: 86 17        	stx	$17                     ; 0x2017 <__memset+0x13>
     be1: 64 18        	stz	$18                     ; 0x2018 <__memset+0x14>
     be3: a6 12        	ldx	$12                     ; 0x2012 <__memset+0xe>
     be5: 86 1a        	stx	$1a                     ; 0x201a <__memset+0x16>
     be7: a6 13        	ldx	$13                     ; 0x2013 <__memset+0xf>
     be9: 86 1b        	stx	$1b                     ; 0x201b <__memset+0x17>
     beb: a2 3e        	ldx	#$3e
     bed: a0 00        	ldy	#$0
     bef: a9 36        	lda	#$36
     bf1: 85 12        	sta	$12                     ; 0x2012 <__memset+0xe>
     bf3: a9 00        	lda	#$0
     bf5: 85 13        	sta	$13                     ; 0x2013 <__memset+0xf>
     bf7: 64 19        	stz	$19                     ; 0x2019 <__memset+0x15>
     bf9: b2 14        	lda	($14)                   ; 0x2014 <__memset+0x10>
     bfb: 85 1d        	sta	$1d                     ; 0x201d <__memset+0x19>
     bfd: a5 1a        	lda	$1a                     ; 0x201a <__memset+0x16>
     bff: 85 1e        	sta	$1e                     ; 0x201e <__memset+0x1a>
     c01: a5 1a        	lda	$1a                     ; 0x201a <__memset+0x16>
     c03: 18           	clc
     c04: 65 18        	adc	$18                     ; 0x2018 <__memset+0x14>
     c06: 85 1c        	sta	$1c                     ; 0x201c <__memset+0x18>
     c08: a5 1b        	lda	$1b                     ; 0x201b <__memset+0x17>
     c0a: 85 1f        	sta	$1f                     ; 0x201f <__memset+0x1b>
     c0c: a5 1b        	lda	$1b                     ; 0x201b <__memset+0x17>
     c0e: 65 19        	adc	$19                     ; 0x2019 <__memset+0x15>
     c10: e6 1d        	inc	$1d                     ; 0x201d <__memset+0x19>
     c12: c6 1d        	dec	$1d                     ; 0x201d <__memset+0x19>
     c14: d0 03        	bne	$c19 <fileRead+0x3c>
     c16: 4c 96 0c     	jmp	$c96 <fileRead+0xb9>
     c19: 5a           	phy
     c1a: a4 1d        	ldy	$1d                     ; 0x201d <__memset+0x19>
     c1c: 84 1a        	sty	$1a                     ; 0x201a <__memset+0x16>
     c1e: 7a           	ply
     c1f: 85 1d        	sta	$1d                     ; 0x201d <__memset+0x19>
     c21: a5 16        	lda	$16                     ; 0x2016 <__memset+0x12>
     c23: 38           	sec
     c24: e5 18        	sbc	$18                     ; 0x2018 <__memset+0x14>
     c26: 85 1b        	sta	$1b                     ; 0x201b <__memset+0x17>
     c28: a5 1a        	lda	$1a                     ; 0x201a <__memset+0x16>
     c2a: 85 f3        	sta	$f3                     ; 0x20f3 <__umodsi3+0xca>
     c2c: a5 1b        	lda	$1b                     ; 0x201b <__memset+0x17>
     c2e: 85 f4        	sta	$f4                     ; 0x20f4 <__umodsi3+0xcb>
     c30: a9 40        	lda	#$40
     c32: 85 1a        	sta	$1a                     ; 0x201a <__memset+0x16>
     c34: a9 00        	lda	#$0
     c36: 85 1b        	sta	$1b                     ; 0x201b <__memset+0x17>
     c38: 20 60 ff     	jsr	$ff60 <end_block9+0xdc86>
     c3b: 92 1a        	sta	($1a)                   ; 0x201a <__memset+0x16>
     c3d: a9 00        	lda	#$0
     c3f: 6a           	ror
     c40: 85 12        	sta	$12                     ; 0x2012 <__memset+0xe>
     c42: a5 36        	lda	$36                     ; 0x2036 <__umodsi3+0xd>
     c44: f0 03        	beq	$c49 <fileRead+0x6c>
     c46: 4c 06 0d     	jmp	$d06 <fileRead+0x129>
     c49: 64 37        	stz	$37                     ; 0x2037 <__umodsi3+0xe>
     c4b: a9 41        	lda	#$41
     c4d: 85 1a        	sta	$1a                     ; 0x201a <__memset+0x16>
     c4f: a9 00        	lda	#$0
     c51: 85 1b        	sta	$1b                     ; 0x201b <__memset+0x17>
     c53: 20 00 ff     	jsr	$ff00 <end_block9+0xdc26>
     c56: 92 1a        	sta	($1a)                   ; 0x201a <__memset+0x16>
     c58: a9 00        	lda	#$0
     c5a: 6a           	ror
     c5b: 85 12        	sta	$12                     ; 0x2012 <__memset+0xe>
     c5d: a5 37        	lda	$37                     ; 0x2037 <__umodsi3+0xe>
     c5f: c9 38        	cmp	#$38
     c61: d0 03        	bne	$c66 <fileRead+0x89>
     c63: 4c 06 0d     	jmp	$d06 <fileRead+0x129>
     c66: c9 30        	cmp	#$30
     c68: d0 03        	bne	$c6d <fileRead+0x90>
     c6a: 4c 06 0d     	jmp	$d06 <fileRead+0x129>
     c6d: c9 2c        	cmp	#$2c
     c6f: d0 d8        	bne	$c49 <fileRead+0x6c>
     c71: a5 1c        	lda	$1c                     ; 0x201c <__memset+0x18>
     c73: 85 fb        	sta	$fb                     ; 0x20fb <__umodsi3+0xd2>
     c75: a5 1d        	lda	$1d                     ; 0x201d <__memset+0x19>
     c77: 85 fc        	sta	$fc                     ; 0x20fc <__umodsi3+0xd3>
     c79: a5 3d        	lda	$3d                     ; 0x203d <__umodsi3+0x14>
     c7b: 85 fd        	sta	$fd                     ; 0x20fd <__umodsi3+0xd4>
     c7d: a9 42        	lda	#$42
     c7f: 85 1a        	sta	$1a                     ; 0x201a <__memset+0x16>
     c81: a9 00        	lda	#$0
     c83: 85 1b        	sta	$1b                     ; 0x201b <__memset+0x17>
     c85: 20 04 ff     	jsr	$ff04 <end_block9+0xdc2a>
     c88: 92 1a        	sta	($1a)                   ; 0x201a <__memset+0x16>
     c8a: a9 00        	lda	#$0
     c8c: 6a           	ror
     c8d: 85 12        	sta	$12                     ; 0x2012 <__memset+0xe>
     c8f: a5 3d        	lda	$3d                     ; 0x203d <__umodsi3+0x14>
     c91: d0 45        	bne	$cd8 <fileRead+0xfb>
     c93: 4c 07 0d     	jmp	$d07 <fileRead+0x12a>
     c96: 5a           	phy
     c97: a4 1c        	ldy	$1c                     ; 0x201c <__memset+0x18>
     c99: 84 1a        	sty	$1a                     ; 0x201a <__memset+0x16>
     c9b: 7a           	ply
     c9c: 85 1b        	sta	$1b                     ; 0x201b <__memset+0x17>
     c9e: 80 0a        	bra	$caa <fileRead+0xcd>
     ca0: a5 37        	lda	$37                     ; 0x2037 <__umodsi3+0xe>
     ca2: c9 08        	cmp	#$8
     ca4: d0 04        	bne	$caa <fileRead+0xcd>
     ca6: a5 3d        	lda	$3d                     ; 0x203d <__umodsi3+0x14>
     ca8: f0 28        	beq	$cd2 <fileRead+0xf5>
     caa: 64 37        	stz	$37                     ; 0x2037 <__umodsi3+0xe>
     cac: 86 1c        	stx	$1c                     ; 0x201c <__memset+0x18>
     cae: 84 1d        	sty	$1d                     ; 0x201d <__memset+0x19>
     cb0: 20 00 ff     	jsr	$ff00 <end_block9+0xdc26>
     cb3: 92 1c        	sta	($1c)                   ; 0x201c <__memset+0x18>
     cb5: a9 00        	lda	#$0
     cb7: 6a           	ror
     cb8: 85 12        	sta	$12                     ; 0x2012 <__memset+0xe>
     cba: a5 36        	lda	$36                     ; 0x2036 <__umodsi3+0xd>
     cbc: f0 e2        	beq	$ca0 <fileRead+0xc3>
     cbe: a9 3f        	lda	#$3f
     cc0: 85 1c        	sta	$1c                     ; 0x201c <__memset+0x18>
     cc2: a9 00        	lda	#$0
     cc4: 85 1d        	sta	$1d                     ; 0x201d <__memset+0x19>
     cc6: 20 0c ff     	jsr	$ff0c <end_block9+0xdc32>
     cc9: 92 1c        	sta	($1c)                   ; 0x201c <__memset+0x18>
     ccb: a9 00        	lda	#$0
     ccd: 6a           	ror
     cce: 85 12        	sta	$12                     ; 0x2012 <__memset+0xe>
     cd0: 80 d8        	bra	$caa <fileRead+0xcd>
     cd2: a5 3c        	lda	$3c                     ; 0x203c <__umodsi3+0x13>
     cd4: 92 1a        	sta	($1a)                   ; 0x201a <__memset+0x16>
     cd6: a9 01        	lda	#$1
     cd8: 85 43        	sta	$43                     ; 0x2043 <__umodsi3+0x1a>
     cda: a9 00        	lda	#$0
     cdc: 85 44        	sta	$44                     ; 0x2044 <__umodsi3+0x1b>
     cde: 18           	clc
     cdf: a5 43        	lda	$43                     ; 0x2043 <__umodsi3+0x1a>
     ce1: 65 18        	adc	$18                     ; 0x2018 <__memset+0x14>
     ce3: 85 18        	sta	$18                     ; 0x2018 <__memset+0x14>
     ce5: a5 44        	lda	$44                     ; 0x2044 <__umodsi3+0x1b>
     ce7: 65 19        	adc	$19                     ; 0x2019 <__memset+0x15>
     ce9: c5 17        	cmp	$17                     ; 0x2017 <__memset+0x13>
     ceb: d0 08        	bne	$cf5 <fileRead+0x118>
     ced: 85 19        	sta	$19                     ; 0x2019 <__memset+0x15>
     cef: a5 18        	lda	$18                     ; 0x2018 <__memset+0x14>
     cf1: c5 16        	cmp	$16                     ; 0x2016 <__memset+0x12>
     cf3: 80 04        	bra	$cf9 <fileRead+0x11c>
     cf5: c5 17        	cmp	$17                     ; 0x2017 <__memset+0x13>
     cf7: 85 19        	sta	$19                     ; 0x2019 <__memset+0x15>
     cf9: a5 1e        	lda	$1e                     ; 0x201e <__memset+0x1a>
     cfb: 85 1a        	sta	$1a                     ; 0x201a <__memset+0x16>
     cfd: a5 1f        	lda	$1f                     ; 0x201f <__memset+0x1b>
     cff: 85 1b        	sta	$1b                     ; 0x201b <__memset+0x17>
     d01: b0 03        	bcs	$d06 <fileRead+0x129>
     d03: 4c f9 0b     	jmp	$bf9 <fileRead+0x1c>
     d06: 60           	rts
     d07: a9 00        	lda	#$0
     d09: 85 43        	sta	$43                     ; 0x2043 <__umodsi3+0x1a>
     d0b: 1a           	inc
     d0c: 80 ce        	bra	$cdc <fileRead+0xff>

00000d0e <textPrint>:
     d0e: a6 01        	ldx	$1                      ; 0x2001 <memcpy+0x29>
     d10: 86 95        	stx	$95                     ; 0x2095 <__umodsi3+0x6c>
     d12: a6 31        	ldx	$31                     ; 0x2031 <__umodsi3+0x8>
     d14: a0 50        	ldy	#$50
     d16: 8c 00 de     	sty	$de00                   ; 0xde00 <end_block9+0xbb26>
     d19: 9c 01 de     	stz	$de01                   ; 0xde01 <end_block9+0xbb27>
     d1c: 8e 02 de     	stx	$de02                   ; 0xde02 <end_block9+0xbb28>
     d1f: 9c 03 de     	stz	$de03                   ; 0xde03 <end_block9+0xbb29>
     d22: ae 10 de     	ldx	$de10                   ; 0xde10 <end_block9+0xbb36>
     d25: ac 11 de     	ldy	$de11                   ; 0xde11 <end_block9+0xbb37>
     d28: 84 15        	sty	$15                     ; 0x2015 <__memset+0x11>
     d2a: ad 12 de     	lda	$de12                   ; 0xde12 <end_block9+0xbb38>
     d2d: ac 13 de     	ldy	$de13                   ; 0xde13 <end_block9+0xbb39>
     d30: 84 1c        	sty	$1c                     ; 0x201c <__memset+0x18>
     d32: 9c 08 de     	stz	$de08                   ; 0xde08 <end_block9+0xbb2e>
     d35: a0 c0        	ldy	#$c0
     d37: 8c 09 de     	sty	$de09                   ; 0xde09 <end_block9+0xbb2f>
     d3a: 9c 0a de     	stz	$de0a                   ; 0xde0a <end_block9+0xbb30>
     d3d: 9c 0b de     	stz	$de0b                   ; 0xde0b <end_block9+0xbb31>
     d40: 8e 0c de     	stx	$de0c                   ; 0xde0c <end_block9+0xbb32>
     d43: 64 14        	stz	$14                     ; 0x2014 <__memset+0x10>
     d45: a2 00        	ldx	#$0
     d47: 86 16        	stx	$16                     ; 0x2016 <__memset+0x12>
     d49: a2 c0        	ldx	#$c0
     d4b: 86 17        	stx	$17                     ; 0x2017 <__memset+0x13>
     d4d: a2 11        	ldx	#$11
     d4f: 86 18        	stx	$18                     ; 0x2018 <__memset+0x14>
     d51: a2 c9        	ldx	#$c9
     d53: 86 19        	stx	$19                     ; 0x2019 <__memset+0x15>
     d55: a2 10        	ldx	#$10
     d57: 86 1a        	stx	$1a                     ; 0x201a <__memset+0x16>
     d59: a2 c9        	ldx	#$c9
     d5b: 86 1b        	stx	$1b                     ; 0x201b <__memset+0x17>
     d5d: a6 15        	ldx	$15                     ; 0x2015 <__memset+0x11>
     d5f: 8e 0d de     	stx	$de0d                   ; 0xde0d <end_block9+0xbb33>
     d62: 8d 0e de     	sta	$de0e                   ; 0xde0e <end_block9+0xbb34>
     d65: a6 1c        	ldx	$1c                     ; 0x201c <__memset+0x18>
     d67: 8e 0f de     	stx	$de0f                   ; 0xde0f <end_block9+0xbb35>
     d6a: ac 18 de     	ldy	$de18                   ; 0xde18 <end_block9+0xbb3e>
     d6d: ad 19 de     	lda	$de19                   ; 0xde19 <end_block9+0xbb3f>
     d70: ae 1a de     	ldx	$de1a                   ; 0xde1a <end_block9+0xbb40>
     d73: ae 1b de     	ldx	$de1b                   ; 0xde1b <end_block9+0xbb41>
     d76: 84 1c        	sty	$1c                     ; 0x201c <__memset+0x18>
     d78: 85 1d        	sta	$1d                     ; 0x201d <__memset+0x19>
     d7a: 64 15        	stz	$15                     ; 0x2015 <__memset+0x11>
     d7c: 80 13        	bra	$d91 <textPrint+0x83>
     d7e: a5 1c        	lda	$1c                     ; 0x201c <__memset+0x18>
     d80: 18           	clc
     d81: 69 50        	adc	#$50
     d83: 85 1c        	sta	$1c                     ; 0x201c <__memset+0x18>
     d85: a5 1d        	lda	$1d                     ; 0x201d <__memset+0x19>
     d87: 69 00        	adc	#$0
     d89: 85 1d        	sta	$1d                     ; 0x201d <__memset+0x19>
     d8b: e6 14        	inc	$14                     ; 0x2014 <__memset+0x10>
     d8d: d0 02        	bne	$d91 <textPrint+0x83>
     d8f: e6 15        	inc	$15                     ; 0x2015 <__memset+0x11>
     d91: a5 12        	lda	$12                     ; 0x2012 <__memset+0xe>
     d93: 18           	clc
     d94: 65 14        	adc	$14                     ; 0x2014 <__memset+0x10>
     d96: 85 1e        	sta	$1e                     ; 0x201e <__memset+0x1a>
     d98: a5 13        	lda	$13                     ; 0x2013 <__memset+0xf>
     d9a: 65 15        	adc	$15                     ; 0x2015 <__memset+0x11>
     d9c: 85 1f        	sta	$1f                     ; 0x201f <__memset+0x1b>
     d9e: b2 1e        	lda	($1e)                   ; 0x201e <__memset+0x1a>
     da0: c9 0a        	cmp	#$a
     da2: f0 26        	beq	$dca <textPrint+0xbc>
     da4: c9 0d        	cmp	#$d
     da6: f0 22        	beq	$dca <textPrint+0xbc>
     da8: aa           	tax
     da9: d0 03        	bne	$dae <textPrint+0xa0>
     dab: 4c af 0e     	jmp	$eaf <textPrint+0x1a1>
     dae: a2 03        	ldx	#$3
     db0: 86 01        	stx	$1                      ; 0x2001 <memcpy+0x29>
     db2: a4 30        	ldy	$30                     ; 0x2030 <__umodsi3+0x7>
     db4: a9 f0        	lda	#$f0
     db6: 91 1c        	sta	($1c),y                 ; 0x201c <__memset+0x18>
     db8: ca           	dex
     db9: 86 01        	stx	$1                      ; 0x2001 <memcpy+0x29>
     dbb: b2 1e        	lda	($1e)                   ; 0x201e <__memset+0x1a>
     dbd: a4 30        	ldy	$30                     ; 0x2030 <__umodsi3+0x7>
     dbf: 91 1c        	sta	($1c),y                 ; 0x201c <__memset+0x18>
     dc1: a6 30        	ldx	$30                     ; 0x2030 <__umodsi3+0x7>
     dc3: e8           	inx
     dc4: e6 30        	inc	$30                     ; 0x2030 <__umodsi3+0x7>
     dc6: e0 50        	cpx	#$50
     dc8: d0 c1        	bne	$d8b <textPrint+0x7d>
     dca: 64 30        	stz	$30                     ; 0x2030 <__umodsi3+0x7>
     dcc: a6 31        	ldx	$31                     ; 0x2031 <__umodsi3+0x8>
     dce: e8           	inx
     dcf: e6 31        	inc	$31                     ; 0x2031 <__umodsi3+0x8>
     dd1: e0 1e        	cpx	#$1e
     dd3: f0 03        	beq	$dd8 <textPrint+0xca>
     dd5: 4c 7e 0d     	jmp	$d7e <textPrint+0x70>
     dd8: a2 03        	ldx	#$3
     dda: 86 01        	stx	$1                      ; 0x2001 <memcpy+0x29>
     ddc: a2 01        	ldx	#$1
     dde: 86 1c        	stx	$1c                     ; 0x201c <__memset+0x18>
     de0: a2 09        	ldx	#$9
     de2: a0 10        	ldy	#$10
     de4: a9 00        	lda	#$0
     de6: 85 1e        	sta	$1e                     ; 0x201e <__memset+0x1a>
     de8: a9 c0        	lda	#$c0
     dea: 85 1f        	sta	$1f                     ; 0x201f <__memset+0x1b>
     dec: 84 1d        	sty	$1d                     ; 0x201d <__memset+0x19>
     dee: a0 50        	ldy	#$50
     df0: b1 1e        	lda	($1e),y                 ; 0x201e <__memset+0x1a>
     df2: 92 1e        	sta	($1e)                   ; 0x201e <__memset+0x1a>
     df4: a9 ff        	lda	#$ff
     df6: c6 1d        	dec	$1d                     ; 0x201d <__memset+0x19>
     df8: c5 1d        	cmp	$1d                     ; 0x201d <__memset+0x19>
     dfa: d0 01        	bne	$dfd <textPrint+0xef>
     dfc: ca           	dex
     dfd: e6 1e        	inc	$1e                     ; 0x201e <__memset+0x1a>
     dff: d0 02        	bne	$e03 <textPrint+0xf5>
     e01: e6 1f        	inc	$1f                     ; 0x201f <__memset+0x1b>
     e03: 8a           	txa
     e04: d0 ea        	bne	$df0 <textPrint+0xe2>
     e06: a5 1d        	lda	$1d                     ; 0x201d <__memset+0x19>
     e08: d0 e6        	bne	$df0 <textPrint+0xe2>
     e0a: a2 02        	ldx	#$2
     e0c: 86 01        	stx	$1                      ; 0x2001 <memcpy+0x29>
     e0e: a2 00        	ldx	#$0
     e10: a5 1c        	lda	$1c                     ; 0x201c <__memset+0x18>
     e12: d0 ca        	bne	$dde <textPrint+0xd0>
     e14: a2 03        	ldx	#$3
     e16: 86 01        	stx	$1                      ; 0x2001 <memcpy+0x29>
     e18: a2 50        	ldx	#$50
     e1a: a0 11        	ldy	#$11
     e1c: 84 1c        	sty	$1c                     ; 0x201c <__memset+0x18>
     e1e: a0 c9        	ldy	#$c9
     e20: 84 1d        	sty	$1d                     ; 0x201d <__memset+0x19>
     e22: a0 10        	ldy	#$10
     e24: 84 1e        	sty	$1e                     ; 0x201e <__memset+0x1a>
     e26: a0 c9        	ldy	#$c9
     e28: 84 1f        	sty	$1f                     ; 0x201f <__memset+0x1b>
     e2a: a9 f0        	lda	#$f0
     e2c: a4 1c        	ldy	$1c                     ; 0x201c <__memset+0x18>
     e2e: 84 22        	sty	$22                     ; 0x2022 <__memset+0x1e>
     e30: a4 1d        	ldy	$1d                     ; 0x201d <__memset+0x19>
     e32: 84 23        	sty	$23                     ; 0x2023 <__memset+0x1f>
     e34: 92 1e        	sta	($1e)                   ; 0x201e <__memset+0x1a>
     e36: e6 1c        	inc	$1c                     ; 0x201c <__memset+0x18>
     e38: d0 02        	bne	$e3c <textPrint+0x12e>
     e3a: e6 1d        	inc	$1d                     ; 0x201d <__memset+0x19>
     e3c: ca           	dex
     e3d: a4 22        	ldy	$22                     ; 0x2022 <__memset+0x1e>
     e3f: 84 1e        	sty	$1e                     ; 0x201e <__memset+0x1a>
     e41: a4 23        	ldy	$23                     ; 0x2023 <__memset+0x1f>
     e43: 84 1f        	sty	$1f                     ; 0x201f <__memset+0x1b>
     e45: e0 00        	cpx	#$0
     e47: d0 e3        	bne	$e2c <textPrint+0x11e>
     e49: a2 02        	ldx	#$2
     e4b: 86 01        	stx	$1                      ; 0x2001 <memcpy+0x29>
     e4d: a2 50        	ldx	#$50
     e4f: a0 11        	ldy	#$11
     e51: 84 1c        	sty	$1c                     ; 0x201c <__memset+0x18>
     e53: a0 c9        	ldy	#$c9
     e55: 84 1d        	sty	$1d                     ; 0x201d <__memset+0x19>
     e57: a0 10        	ldy	#$10
     e59: 84 1e        	sty	$1e                     ; 0x201e <__memset+0x1a>
     e5b: a0 c9        	ldy	#$c9
     e5d: 84 1f        	sty	$1f                     ; 0x201f <__memset+0x1b>
     e5f: a9 20        	lda	#$20
     e61: a4 1c        	ldy	$1c                     ; 0x201c <__memset+0x18>
     e63: 84 22        	sty	$22                     ; 0x2022 <__memset+0x1e>
     e65: a4 1d        	ldy	$1d                     ; 0x201d <__memset+0x19>
     e67: 84 23        	sty	$23                     ; 0x2023 <__memset+0x1f>
     e69: 92 1e        	sta	($1e)                   ; 0x201e <__memset+0x1a>
     e6b: e6 1c        	inc	$1c                     ; 0x201c <__memset+0x18>
     e6d: d0 02        	bne	$e71 <textPrint+0x163>
     e6f: e6 1d        	inc	$1d                     ; 0x201d <__memset+0x19>
     e71: ca           	dex
     e72: a4 22        	ldy	$22                     ; 0x2022 <__memset+0x1e>
     e74: 84 1e        	sty	$1e                     ; 0x201e <__memset+0x1a>
     e76: a4 23        	ldy	$23                     ; 0x2023 <__memset+0x1f>
     e78: 84 1f        	sty	$1f                     ; 0x201f <__memset+0x1b>
     e7a: e0 00        	cpx	#$0
     e7c: d0 e3        	bne	$e61 <textPrint+0x153>
     e7e: c6 31        	dec	$31                     ; 0x2031 <__umodsi3+0x8>
     e80: 9c 08 de     	stz	$de08                   ; 0xde08 <end_block9+0xbb2e>
     e83: a2 c0        	ldx	#$c0
     e85: 8e 09 de     	stx	$de09                   ; 0xde09 <end_block9+0xbb2f>
     e88: 9c 0a de     	stz	$de0a                   ; 0xde0a <end_block9+0xbb30>
     e8b: 9c 0b de     	stz	$de0b                   ; 0xde0b <end_block9+0xbb31>
     e8e: a2 1d        	ldx	#$1d
     e90: 8e 0c de     	stx	$de0c                   ; 0xde0c <end_block9+0xbb32>
     e93: 9c 0d de     	stz	$de0d                   ; 0xde0d <end_block9+0xbb33>
     e96: 9c 0e de     	stz	$de0e                   ; 0xde0e <end_block9+0xbb34>
     e99: 9c 0f de     	stz	$de0f                   ; 0xde0f <end_block9+0xbb35>
     e9c: ae 18 de     	ldx	$de18                   ; 0xde18 <end_block9+0xbb3e>
     e9f: ac 19 de     	ldy	$de19                   ; 0xde19 <end_block9+0xbb3f>
     ea2: ad 1a de     	lda	$de1a                   ; 0xde1a <end_block9+0xbb40>
     ea5: ad 1b de     	lda	$de1b                   ; 0xde1b <end_block9+0xbb41>
     ea8: 86 1c        	stx	$1c                     ; 0x201c <__memset+0x18>
     eaa: 84 1d        	sty	$1d                     ; 0x201d <__memset+0x19>
     eac: 4c 8b 0d     	jmp	$d8b <textPrint+0x7d>
     eaf: a6 95        	ldx	$95                     ; 0x2095 <__umodsi3+0x6c>
     eb1: 86 01        	stx	$1                      ; 0x2001 <memcpy+0x29>
     eb3: a6 30        	ldx	$30                     ; 0x2030 <__umodsi3+0x7>
     eb5: a4 31        	ldy	$31                     ; 0x2031 <__umodsi3+0x8>
     eb7: 8e 14 d0     	stx	$d014                   ; 0xd014 <end_block9+0xad3a>
     eba: 9c 15 d0     	stz	$d015                   ; 0xd015 <end_block9+0xad3b>
     ebd: 84 31        	sty	$31                     ; 0x2031 <__umodsi3+0x8>
     ebf: 8c 16 d0     	sty	$d016                   ; 0xd016 <end_block9+0xad3c>
     ec2: 9c 17 d0     	stz	$d017                   ; 0xd017 <end_block9+0xad3d>
     ec5: 60           	rts

00000ec6 <textPrintUInt>:
     ec6: 48           	pha
     ec7: 18           	clc
     ec8: a5 10        	lda	$10                     ; 0x2010 <__memset+0xc>
     eca: 69 fe        	adc	#$fe
     ecc: 85 10        	sta	$10                     ; 0x2010 <__memset+0xc>
     ece: a5 11        	lda	$11                     ; 0x2011 <__memset+0xd>
     ed0: 69 ff        	adc	#$ff
     ed2: 85 11        	sta	$11                     ; 0x2011 <__memset+0xd>
     ed4: 68           	pla
     ed5: a4 24        	ldy	$24                     ; 0x2024 <strlen>
     ed7: 5a           	phy
     ed8: a4 25        	ldy	$25                     ; 0x2025 <strlen+0x1>
     eda: 5a           	phy
     edb: a4 26        	ldy	$26                     ; 0x2026 <strlen+0x2>
     edd: 5a           	phy
     ede: a4 27        	ldy	$27                     ; 0x2027 <strlen+0x3>
     ee0: 5a           	phy
     ee1: 86 25        	stx	$25                     ; 0x2025 <strlen+0x1>
     ee3: a4 12        	ldy	$12                     ; 0x2012 <__memset+0xe>
     ee5: a6 13        	ldx	$13                     ; 0x2013 <__memset+0xf>
     ee7: d0 18        	bne	$f01 <textPrintUInt+0x3b>
     ee9: 86 27        	stx	$27                     ; 0x2027 <strlen+0x3>
     eeb: c0 00        	cpy	#$0
     eed: f0 03        	beq	$ef2 <textPrintUInt+0x2c>
     eef: 4c 71 0f     	jmp	$f71 <textPrintUInt+0xab>
     ef2: a6 25        	ldx	$25                     ; 0x2025 <strlen+0x1>
     ef4: f0 03        	beq	$ef9 <textPrintUInt+0x33>
     ef6: 4c 7a 0f     	jmp	$f7a <textPrintUInt+0xb4>
     ef9: 84 26        	sty	$26                     ; 0x2026 <strlen+0x2>
     efb: c9 0a        	cmp	#$a
     efd: b0 0a        	bcs	$f09 <textPrintUInt+0x43>
     eff: 80 29        	bra	$f2a <textPrintUInt+0x64>
     f01: 84 26        	sty	$26                     ; 0x2026 <strlen+0x2>
     f03: 86 27        	stx	$27                     ; 0x2027 <strlen+0x3>
     f05: e0 00        	cpx	#$0
     f07: 90 21        	bcc	$f2a <textPrintUInt+0x64>
     f09: 8d 06 de     	sta	$de06                   ; 0xde06 <end_block9+0xbb2c>
     f0c: a4 25        	ldy	$25                     ; 0x2025 <strlen+0x1>
     f0e: 8c 07 de     	sty	$de07                   ; 0xde07 <end_block9+0xbb2d>
     f11: a2 0a        	ldx	#$a
     f13: 8e 04 de     	stx	$de04                   ; 0xde04 <end_block9+0xbb2a>
     f16: 9c 05 de     	stz	$de05                   ; 0xde05 <end_block9+0xbb2b>
     f19: 85 24        	sta	$24                     ; 0x2024 <strlen>
     f1b: ad 14 de     	lda	$de14                   ; 0xde14 <end_block9+0xbb3a>
     f1e: ae 15 de     	ldx	$de15                   ; 0xde15 <end_block9+0xbb3b>
     f21: 64 12        	stz	$12                     ; 0x2012 <__memset+0xe>
     f23: 64 13        	stz	$13                     ; 0x2013 <__memset+0xf>
     f25: 20 c6 0e     	jsr	$ec6 <textPrintUInt>
     f28: a5 24        	lda	$24                     ; 0x2024 <strlen>
     f2a: a2 0a        	ldx	#$a
     f2c: a4 26        	ldy	$26                     ; 0x2026 <strlen+0x2>
     f2e: 84 12        	sty	$12                     ; 0x2012 <__memset+0xe>
     f30: a4 27        	ldy	$27                     ; 0x2027 <strlen+0x3>
     f32: 84 13        	sty	$13                     ; 0x2013 <__memset+0xf>
     f34: 86 14        	stx	$14                     ; 0x2014 <__memset+0x10>
     f36: 64 15        	stz	$15                     ; 0x2015 <__memset+0x11>
     f38: 64 16        	stz	$16                     ; 0x2016 <__memset+0x12>
     f3a: 64 17        	stz	$17                     ; 0x2017 <__memset+0x13>
     f3c: a6 25        	ldx	$25                     ; 0x2025 <strlen+0x1>
     f3e: 20 29 20     	jsr	$2029 <__umodsi3>
     f41: 09 30        	ora	#$30
     f43: 18           	clc
     f44: a6 10        	ldx	$10                     ; 0x2010 <__memset+0xc>
     f46: 86 12        	stx	$12                     ; 0x2012 <__memset+0xe>
     f48: a6 11        	ldx	$11                     ; 0x2011 <__memset+0xd>
     f4a: 86 13        	stx	$13                     ; 0x2013 <__memset+0xf>
     f4c: 92 12        	sta	($12)                   ; 0x2012 <__memset+0xe>
     f4e: a0 01        	ldy	#$1
     f50: a9 00        	lda	#$0
     f52: 91 12        	sta	($12),y                 ; 0x2012 <__memset+0xe>
     f54: 20 0e 0d     	jsr	$d0e <textPrint>
     f57: fa           	plx
     f58: 86 27        	stx	$27                     ; 0x2027 <strlen+0x3>
     f5a: fa           	plx
     f5b: 86 26        	stx	$26                     ; 0x2026 <strlen+0x2>
     f5d: fa           	plx
     f5e: 86 25        	stx	$25                     ; 0x2025 <strlen+0x1>
     f60: fa           	plx
     f61: 86 24        	stx	$24                     ; 0x2024 <strlen>
     f63: 18           	clc
     f64: a5 10        	lda	$10                     ; 0x2010 <__memset+0xc>
     f66: 69 02        	adc	#$2
     f68: 85 10        	sta	$10                     ; 0x2010 <__memset+0xc>
     f6a: a5 11        	lda	$11                     ; 0x2011 <__memset+0xd>
     f6c: 69 00        	adc	#$0
     f6e: 85 11        	sta	$11                     ; 0x2011 <__memset+0xd>
     f70: 60           	rts
     f71: 84 26        	sty	$26                     ; 0x2026 <strlen+0x2>
     f73: c0 00        	cpy	#$0
     f75: 90 b3        	bcc	$f2a <textPrintUInt+0x64>
     f77: 4c 09 0f     	jmp	$f09 <textPrintUInt+0x43>
     f7a: 84 26        	sty	$26                     ; 0x2026 <strlen+0x2>
     f7c: a6 25        	ldx	$25                     ; 0x2025 <strlen+0x1>
     f7e: 4c 05 0f     	jmp	$f05 <textPrintUInt+0x3f>

00000f81 <__putchar>:
     f81: 85 32        	sta	$32                     ; 0x2032 <__umodsi3+0x9>
     f83: a2 32        	ldx	#$32
     f85: 86 12        	stx	$12                     ; 0x2012 <__memset+0xe>
     f87: a2 00        	ldx	#$0
     f89: 86 13        	stx	$13                     ; 0x2013 <__memset+0xf>
     f8b: 4c 0e 0d     	jmp	$d0e <textPrint>

00000f8e <exit>:
     f8e: 20 14 03     	jsr	$314 <_fini>
     f91: 80 fe        	bra	$f91 <exit+0x3>

00000f93 <_ZN12_GLOBAL__N_13putEcP6Status>:
     f93: 85 18        	sta	$18                     ; 0x2018 <__memset+0x14>
     f95: a6 13        	ldx	$13                     ; 0x2013 <__memset+0xf>
     f97: 18           	clc
     f98: a5 12        	lda	$12                     ; 0x2012 <__memset+0xe>
     f9a: 69 05        	adc	#$5
     f9c: a8           	tay
     f9d: a5 13        	lda	$13                     ; 0x2013 <__memset+0xf>
     f9f: 86 15        	stx	$15                     ; 0x2015 <__memset+0x11>
     fa1: 69 00        	adc	#$0
     fa3: 18           	clc
     fa4: 84 16        	sty	$16                     ; 0x2016 <__memset+0x12>
     fa6: a0 05        	ldy	#$5
     fa8: 85 17        	sta	$17                     ; 0x2017 <__memset+0x13>
     faa: b1 12        	lda	($12),y                 ; 0x2012 <__memset+0xe>
     fac: aa           	tax
     fad: a5 12        	lda	$12                     ; 0x2012 <__memset+0xe>
     faf: 69 03        	adc	#$3
     fb1: 85 14        	sta	$14                     ; 0x2014 <__memset+0x10>
     fb3: a5 15        	lda	$15                     ; 0x2015 <__memset+0x11>
     fb5: 69 00        	adc	#$0
     fb7: 85 15        	sta	$15                     ; 0x2015 <__memset+0x11>
     fb9: a0 01        	ldy	#$1
     fbb: b1 16        	lda	($16),y                 ; 0x2016 <__memset+0x12>
     fbd: d1 14        	cmp	($14),y                 ; 0x2014 <__memset+0x10>
     fbf: d0 11        	bne	$fd2 <_ZN12_GLOBAL__N_13putEcP6Status+0x3f>
     fc1: a0 03        	ldy	#$3
     fc3: 85 17        	sta	$17                     ; 0x2017 <__memset+0x13>
     fc5: b1 12        	lda	($12),y                 ; 0x2012 <__memset+0xe>
     fc7: 85 14        	sta	$14                     ; 0x2014 <__memset+0x10>
     fc9: 86 16        	stx	$16                     ; 0x2016 <__memset+0x12>
     fcb: e4 14        	cpx	$14                     ; 0x2014 <__memset+0x10>
     fcd: 90 0e        	bcc	$fdd <_ZN12_GLOBAL__N_13putEcP6Status+0x4a>
     fcf: 4c 3c 10     	jmp	$103c <_ZN12_GLOBAL__N_13putEcP6Status+0xa9>
     fd2: 86 16        	stx	$16                     ; 0x2016 <__memset+0x12>
     fd4: d1 14        	cmp	($14),y                 ; 0x2014 <__memset+0x10>
     fd6: 85 17        	sta	$17                     ; 0x2017 <__memset+0x13>
     fd8: 90 03        	bcc	$fdd <_ZN12_GLOBAL__N_13putEcP6Status+0x4a>
     fda: 4c 3c 10     	jmp	$103c <_ZN12_GLOBAL__N_13putEcP6Status+0xa9>
     fdd: a5 12        	lda	$12                     ; 0x2012 <__memset+0xe>
     fdf: 18           	clc
     fe0: 69 0f        	adc	#$f
     fe2: 85 14        	sta	$14                     ; 0x2014 <__memset+0x10>
     fe4: a5 13        	lda	$13                     ; 0x2013 <__memset+0xf>
     fe6: 69 00        	adc	#$0
     fe8: 85 15        	sta	$15                     ; 0x2015 <__memset+0x11>
     fea: a0 01        	ldy	#$1
     fec: b1 14        	lda	($14),y                 ; 0x2014 <__memset+0x10>
     fee: a2 00        	ldx	#$0
     ff0: 86 14        	stx	$14                     ; 0x2014 <__memset+0x10>
     ff2: a2 00        	ldx	#$0
     ff4: 86 15        	stx	$15                     ; 0x2015 <__memset+0x11>
     ff6: c5 15        	cmp	$15                     ; 0x2015 <__memset+0x11>
     ff8: d0 2d        	bne	$1027 <_ZN12_GLOBAL__N_13putEcP6Status+0x94>
     ffa: a0 0f        	ldy	#$f
     ffc: b1 12        	lda	($12),y                 ; 0x2012 <__memset+0xe>
     ffe: c5 14        	cmp	$14                     ; 0x2014 <__memset+0x10>
    1000: d0 25        	bne	$1027 <_ZN12_GLOBAL__N_13putEcP6Status+0x94>
    1002: a5 12        	lda	$12                     ; 0x2012 <__memset+0xe>
    1004: 18           	clc
    1005: 69 09        	adc	#$9
    1007: 85 14        	sta	$14                     ; 0x2014 <__memset+0x10>
    1009: a5 13        	lda	$13                     ; 0x2013 <__memset+0xf>
    100b: 69 00        	adc	#$0
    100d: a0 09        	ldy	#$9
    100f: 85 15        	sta	$15                     ; 0x2015 <__memset+0x11>
    1011: 18           	clc
    1012: a5 16        	lda	$16                     ; 0x2016 <__memset+0x12>
    1014: 71 12        	adc	($12),y                 ; 0x2012 <__memset+0xe>
    1016: aa           	tax
    1017: a0 01        	ldy	#$1
    1019: a5 17        	lda	$17                     ; 0x2017 <__memset+0x13>
    101b: 71 14        	adc	($14),y                 ; 0x2014 <__memset+0x10>
    101d: 86 14        	stx	$14                     ; 0x2014 <__memset+0x10>
    101f: 85 15        	sta	$15                     ; 0x2015 <__memset+0x11>
    1021: a5 18        	lda	$18                     ; 0x2018 <__memset+0x14>
    1023: 92 14        	sta	($14)                   ; 0x2014 <__memset+0x10>
    1025: 80 15        	bra	$103c <_ZN12_GLOBAL__N_13putEcP6Status+0xa9>
    1027: a6 12        	ldx	$12                     ; 0x2012 <__memset+0xe>
    1029: 86 93        	stx	$93                     ; 0x2093 <__umodsi3+0x6a>
    102b: a6 13        	ldx	$13                     ; 0x2013 <__memset+0xf>
    102d: 86 94        	stx	$94                     ; 0x2094 <__umodsi3+0x6b>
    102f: a5 18        	lda	$18                     ; 0x2018 <__memset+0x14>
    1031: 20 81 0f     	jsr	$f81 <__putchar>
    1034: a6 93        	ldx	$93                     ; 0x2093 <__umodsi3+0x6a>
    1036: 86 12        	stx	$12                     ; 0x2012 <__memset+0xe>
    1038: a6 94        	ldx	$94                     ; 0x2094 <__umodsi3+0x6b>
    103a: 86 13        	stx	$13                     ; 0x2013 <__memset+0xf>
    103c: a0 05        	ldy	#$5
    103e: a5 12        	lda	$12                     ; 0x2012 <__memset+0xe>
    1040: 18           	clc
    1041: 69 05        	adc	#$5
    1043: 85 14        	sta	$14                     ; 0x2014 <__memset+0x10>
    1045: a5 13        	lda	$13                     ; 0x2013 <__memset+0xf>
    1047: 69 00        	adc	#$0
    1049: 85 15        	sta	$15                     ; 0x2015 <__memset+0x11>
    104b: b1 12        	lda	($12),y                 ; 0x2012 <__memset+0xe>
    104d: aa           	tax
    104e: a0 01        	ldy	#$1
    1050: b1 14        	lda	($14),y                 ; 0x2014 <__memset+0x10>
    1052: e8           	inx
    1053: d0 01        	bne	$1056 <_ZN12_GLOBAL__N_13putEcP6Status+0xc3>
    1055: 1a           	inc
    1056: 85 16        	sta	$16                     ; 0x2016 <__memset+0x12>
    1058: 8a           	txa
    1059: a0 05        	ldy	#$5
    105b: 91 12        	sta	($12),y                 ; 0x2012 <__memset+0xe>
    105d: a0 01        	ldy	#$1
    105f: a5 16        	lda	$16                     ; 0x2016 <__memset+0x12>
    1061: 91 14        	sta	($14),y                 ; 0x2014 <__memset+0x10>
    1063: 60           	rts

00001064 <_ZN12_GLOBAL__N_112print_stringEPKcP6Status>:
    1064: a6 12        	ldx	$12                     ; 0x2012 <__memset+0xe>
    1066: 86 8b        	stx	$8b                     ; 0x208b <__umodsi3+0x62>
    1068: a6 13        	ldx	$13                     ; 0x2013 <__memset+0xf>
    106a: 86 8c        	stx	$8c                     ; 0x208c <__umodsi3+0x63>
    106c: a6 14        	ldx	$14                     ; 0x2014 <__memset+0x10>
    106e: 86 8d        	stx	$8d                     ; 0x208d <__umodsi3+0x64>
    1070: a6 15        	ldx	$15                     ; 0x2015 <__memset+0x11>
    1072: 86 8e        	stx	$8e                     ; 0x208e <__umodsi3+0x65>
    1074: a5 8d        	lda	$8d                     ; 0x208d <__umodsi3+0x64>
    1076: 18           	clc
    1077: 69 0d        	adc	#$d
    1079: 85 12        	sta	$12                     ; 0x2012 <__memset+0xe>
    107b: a5 8e        	lda	$8e                     ; 0x208e <__umodsi3+0x65>
    107d: 69 00        	adc	#$0
    107f: 85 13        	sta	$13                     ; 0x2013 <__memset+0xf>
    1081: a0 01        	ldy	#$1
    1083: b1 12        	lda	($12),y                 ; 0x2012 <__memset+0xe>
    1085: 30 16        	bmi	$109d <_ZN12_GLOBAL__N_112print_stringEPKcP6Status+0x39>
    1087: a0 0d        	ldy	#$d
    1089: 85 12        	sta	$12                     ; 0x2012 <__memset+0xe>
    108b: b1 8d        	lda	($8d),y                 ; 0x208d <__umodsi3+0x64>
    108d: a6 12        	ldx	$12                     ; 0x2012 <__memset+0xe>
    108f: 86 92        	stx	$92                     ; 0x2092 <__umodsi3+0x69>
    1091: d0 0f        	bne	$10a2 <_ZN12_GLOBAL__N_112print_stringEPKcP6Status+0x3e>
    1093: aa           	tax
    1094: d0 0c        	bne	$10a2 <_ZN12_GLOBAL__N_112print_stringEPKcP6Status+0x3e>
    1096: 64 8f        	stz	$8f                     ; 0x208f <__umodsi3+0x66>
    1098: a2 00        	ldx	#$0
    109a: 4c 6c 11     	jmp	$116c <_ZN12_GLOBAL__N_112print_stringEPKcP6Status+0x108>
    109d: a9 ff        	lda	#$ff
    109f: aa           	tax
    10a0: 86 92        	stx	$92                     ; 0x2092 <__umodsi3+0x69>
    10a2: 85 8f        	sta	$8f                     ; 0x208f <__umodsi3+0x66>
    10a4: 64 12        	stz	$12                     ; 0x2012 <__memset+0xe>
    10a6: a4 8b        	ldy	$8b                     ; 0x208b <__umodsi3+0x62>
    10a8: a6 8c        	ldx	$8c                     ; 0x208c <__umodsi3+0x63>
    10aa: 86 16        	stx	$16                     ; 0x2016 <__memset+0x12>
    10ac: 64 13        	stz	$13                     ; 0x2013 <__memset+0xf>
    10ae: 98           	tya
    10af: 18           	clc
    10b0: 65 12        	adc	$12                     ; 0x2012 <__memset+0xe>
    10b2: 85 14        	sta	$14                     ; 0x2014 <__memset+0x10>
    10b4: a5 8c        	lda	$8c                     ; 0x208c <__umodsi3+0x63>
    10b6: 65 13        	adc	$13                     ; 0x2013 <__memset+0xf>
    10b8: 85 15        	sta	$15                     ; 0x2015 <__memset+0x11>
    10ba: b2 14        	lda	($14)                   ; 0x2014 <__memset+0x10>
    10bc: d0 03        	bne	$10c1 <_ZN12_GLOBAL__N_112print_stringEPKcP6Status+0x5d>
    10be: 4c 66 11     	jmp	$1166 <_ZN12_GLOBAL__N_112print_stringEPKcP6Status+0x102>
    10c1: e6 12        	inc	$12                     ; 0x2012 <__memset+0xe>
    10c3: d0 02        	bne	$10c7 <_ZN12_GLOBAL__N_112print_stringEPKcP6Status+0x63>
    10c5: e6 13        	inc	$13                     ; 0x2013 <__memset+0xf>
    10c7: a6 92        	ldx	$92                     ; 0x2092 <__umodsi3+0x69>
    10c9: e4 13        	cpx	$13                     ; 0x2013 <__memset+0xf>
    10cb: d0 e1        	bne	$10ae <_ZN12_GLOBAL__N_112print_stringEPKcP6Status+0x4a>
    10cd: a6 8f        	ldx	$8f                     ; 0x208f <__umodsi3+0x66>
    10cf: e4 12        	cpx	$12                     ; 0x2012 <__memset+0xe>
    10d1: d0 db        	bne	$10ae <_ZN12_GLOBAL__N_112print_stringEPKcP6Status+0x4a>
    10d3: a0 01        	ldy	#$1
    10d5: 98           	tya
    10d6: 31 8d        	and	($8d),y                 ; 0x208d <__umodsi3+0x64>
    10d8: 29 01        	and	#$1
    10da: f0 03        	beq	$10df <_ZN12_GLOBAL__N_112print_stringEPKcP6Status+0x7b>
    10dc: 4c 37 11     	jmp	$1137 <_ZN12_GLOBAL__N_112print_stringEPKcP6Status+0xd3>
    10df: a0 0b        	ldy	#$b
    10e1: a5 8d        	lda	$8d                     ; 0x208d <__umodsi3+0x64>
    10e3: 18           	clc
    10e4: 69 0b        	adc	#$b
    10e6: 85 14        	sta	$14                     ; 0x2014 <__memset+0x10>
    10e8: a5 8e        	lda	$8e                     ; 0x208e <__umodsi3+0x65>
    10ea: 69 00        	adc	#$0
    10ec: 85 15        	sta	$15                     ; 0x2015 <__memset+0x11>
    10ee: b1 8d        	lda	($8d),y                 ; 0x208d <__umodsi3+0x64>
    10f0: 85 12        	sta	$12                     ; 0x2012 <__memset+0xe>
    10f2: a0 01        	ldy	#$1
    10f4: b1 14        	lda	($14),y                 ; 0x2014 <__memset+0x10>
    10f6: 85 13        	sta	$13                     ; 0x2013 <__memset+0xf>
    10f8: a6 92        	ldx	$92                     ; 0x2092 <__umodsi3+0x69>
    10fa: e4 13        	cpx	$13                     ; 0x2013 <__memset+0xf>
    10fc: d0 08        	bne	$1106 <_ZN12_GLOBAL__N_112print_stringEPKcP6Status+0xa2>
    10fe: a6 8f        	ldx	$8f                     ; 0x208f <__umodsi3+0x66>
    1100: e4 12        	cpx	$12                     ; 0x2012 <__memset+0xe>
    1102: 90 06        	bcc	$110a <_ZN12_GLOBAL__N_112print_stringEPKcP6Status+0xa6>
    1104: 80 31        	bra	$1137 <_ZN12_GLOBAL__N_112print_stringEPKcP6Status+0xd3>
    1106: e4 13        	cpx	$13                     ; 0x2013 <__memset+0xf>
    1108: b0 2d        	bcs	$1137 <_ZN12_GLOBAL__N_112print_stringEPKcP6Status+0xd3>
    110a: 38           	sec
    110b: a5 8f        	lda	$8f                     ; 0x208f <__umodsi3+0x66>
    110d: e5 12        	sbc	$12                     ; 0x2012 <__memset+0xe>
    110f: a8           	tay
    1110: a5 92        	lda	$92                     ; 0x2092 <__umodsi3+0x69>
    1112: e5 13        	sbc	$13                     ; 0x2013 <__memset+0xf>
    1114: 85 91        	sta	$91                     ; 0x2091 <__umodsi3+0x68>
    1116: a6 8d        	ldx	$8d                     ; 0x208d <__umodsi3+0x64>
    1118: 86 12        	stx	$12                     ; 0x2012 <__memset+0xe>
    111a: a6 8e        	ldx	$8e                     ; 0x208e <__umodsi3+0x65>
    111c: 86 13        	stx	$13                     ; 0x2013 <__memset+0xf>
    111e: 84 90        	sty	$90                     ; 0x2090 <__umodsi3+0x67>
    1120: a9 20        	lda	#$20
    1122: 20 93 0f     	jsr	$f93 <_ZN12_GLOBAL__N_13putEcP6Status>
    1125: a6 91        	ldx	$91                     ; 0x2091 <__umodsi3+0x68>
    1127: e6 90        	inc	$90                     ; 0x2090 <__umodsi3+0x67>
    1129: d0 01        	bne	$112c <_ZN12_GLOBAL__N_112print_stringEPKcP6Status+0xc8>
    112b: e8           	inx
    112c: 86 91        	stx	$91                     ; 0x2091 <__umodsi3+0x68>
    112e: a4 90        	ldy	$90                     ; 0x2090 <__umodsi3+0x67>
    1130: 8a           	txa
    1131: d0 e3        	bne	$1116 <_ZN12_GLOBAL__N_112print_stringEPKcP6Status+0xb2>
    1133: a5 90        	lda	$90                     ; 0x2090 <__umodsi3+0x67>
    1135: d0 df        	bne	$1116 <_ZN12_GLOBAL__N_112print_stringEPKcP6Status+0xb2>
    1137: a4 92        	ldy	$92                     ; 0x2092 <__umodsi3+0x69>
    1139: d0 04        	bne	$113f <_ZN12_GLOBAL__N_112print_stringEPKcP6Status+0xdb>
    113b: a5 8f        	lda	$8f                     ; 0x208f <__umodsi3+0x66>
    113d: f0 26        	beq	$1165 <_ZN12_GLOBAL__N_112print_stringEPKcP6Status+0x101>
    113f: a2 ff        	ldx	#$ff
    1141: c6 8f        	dec	$8f                     ; 0x208f <__umodsi3+0x66>
    1143: e4 8f        	cpx	$8f                     ; 0x208f <__umodsi3+0x66>
    1145: d0 01        	bne	$1148 <_ZN12_GLOBAL__N_112print_stringEPKcP6Status+0xe4>
    1147: 88           	dey
    1148: 84 90        	sty	$90                     ; 0x2090 <__umodsi3+0x67>
    114a: b2 8b        	lda	($8b)                   ; 0x208b <__umodsi3+0x62>
    114c: e6 8b        	inc	$8b                     ; 0x208b <__umodsi3+0x62>
    114e: d0 02        	bne	$1152 <_ZN12_GLOBAL__N_112print_stringEPKcP6Status+0xee>
    1150: e6 8c        	inc	$8c                     ; 0x208c <__umodsi3+0x63>
    1152: a6 8d        	ldx	$8d                     ; 0x208d <__umodsi3+0x64>
    1154: 86 12        	stx	$12                     ; 0x2012 <__memset+0xe>
    1156: a6 8e        	ldx	$8e                     ; 0x208e <__umodsi3+0x65>
    1158: 86 13        	stx	$13                     ; 0x2013 <__memset+0xf>
    115a: 20 93 0f     	jsr	$f93 <_ZN12_GLOBAL__N_13putEcP6Status>
    115d: a4 90        	ldy	$90                     ; 0x2090 <__umodsi3+0x67>
    115f: d0 de        	bne	$113f <_ZN12_GLOBAL__N_112print_stringEPKcP6Status+0xdb>
    1161: a5 8f        	lda	$8f                     ; 0x208f <__umodsi3+0x66>
    1163: d0 da        	bne	$113f <_ZN12_GLOBAL__N_112print_stringEPKcP6Status+0xdb>
    1165: 60           	rts
    1166: a6 12        	ldx	$12                     ; 0x2012 <__memset+0xe>
    1168: 86 8f        	stx	$8f                     ; 0x208f <__umodsi3+0x66>
    116a: a6 13        	ldx	$13                     ; 0x2013 <__memset+0xf>
    116c: 86 92        	stx	$92                     ; 0x2092 <__umodsi3+0x69>
    116e: 4c d3 10     	jmp	$10d3 <_ZN12_GLOBAL__N_112print_stringEPKcP6Status+0x6f>

00001171 <printf>:
    1171: a6 12        	ldx	$12                     ; 0x2012 <__memset+0xe>
    1173: 86 40        	stx	$40                     ; 0x2040 <__umodsi3+0x17>
    1175: a6 13        	ldx	$13                     ; 0x2013 <__memset+0xf>
    1177: 86 41        	stx	$41                     ; 0x2041 <__umodsi3+0x18>
    1179: 18           	clc
    117a: a6 10        	ldx	$10                     ; 0x2010 <__memset+0xc>
    117c: a4 11        	ldy	$11                     ; 0x2011 <__memset+0xd>
    117e: 86 81        	stx	$81                     ; 0x2081 <__umodsi3+0x58>
    1180: 84 82        	sty	$82                     ; 0x2082 <__umodsi3+0x59>
    1182: a6 81        	ldx	$81                     ; 0x2081 <__umodsi3+0x58>
    1184: a4 82        	ldy	$82                     ; 0x2082 <__umodsi3+0x59>
    1186: 86 6c        	stx	$6c                     ; 0x206c <__umodsi3+0x43>
    1188: 84 6d        	sty	$6d                     ; 0x206d <__umodsi3+0x44>
    118a: a2 ff        	ldx	#$ff
    118c: 86 71        	stx	$71                     ; 0x2071 <__umodsi3+0x48>
    118e: 86 72        	stx	$72                     ; 0x2072 <__umodsi3+0x49>
    1190: 64 73        	stz	$73                     ; 0x2073 <__umodsi3+0x4a>
    1192: 64 74        	stz	$74                     ; 0x2074 <__umodsi3+0x4b>
    1194: e8           	inx
    1195: 86 42        	stx	$42                     ; 0x2042 <__umodsi3+0x19>
    1197: a2 00        	ldx	#$0
    1199: 86 43        	stx	$43                     ; 0x2043 <__umodsi3+0x1a>
    119b: a6 42        	ldx	$42                     ; 0x2042 <__umodsi3+0x19>
    119d: a4 43        	ldy	$43                     ; 0x2043 <__umodsi3+0x1a>
    119f: 86 77        	stx	$77                     ; 0x2077 <__umodsi3+0x4e>
    11a1: 84 78        	sty	$78                     ; 0x2078 <__umodsi3+0x4f>
    11a3: a2 02        	ldx	#$2
    11a5: 86 7d        	stx	$7d                     ; 0x207d <__umodsi3+0x54>
    11a7: 64 7e        	stz	$7e                     ; 0x207e <__umodsi3+0x55>
    11a9: a6 6c        	ldx	$6c                     ; 0x206c <__umodsi3+0x43>
    11ab: a4 6d        	ldy	$6d                     ; 0x206d <__umodsi3+0x44>
    11ad: 86 7f        	stx	$7f                     ; 0x207f <__umodsi3+0x56>
    11af: 84 80        	sty	$80                     ; 0x2080 <__umodsi3+0x57>
    11b1: a2 63        	ldx	#$63
    11b3: a0 00        	ldy	#$0
    11b5: 86 12        	stx	$12                     ; 0x2012 <__memset+0xe>
    11b7: 84 13        	sty	$13                     ; 0x2013 <__memset+0xf>
    11b9: a0 01        	ldy	#$1
    11bb: a9 4a        	lda	#$4a
    11bd: 18           	clc
    11be: 69 02        	adc	#$2
    11c0: 85 89        	sta	$89                     ; 0x2089 <__umodsi3+0x60>
    11c2: a9 00        	lda	#$0
    11c4: 69 00        	adc	#$0
    11c6: 85 8a        	sta	$8a                     ; 0x208a <__umodsi3+0x61>
    11c8: e6 12        	inc	$12                     ; 0x2012 <__memset+0xe>
    11ca: d0 02        	bne	$11ce <printf+0x5d>
    11cc: e6 13        	inc	$13                     ; 0x2013 <__memset+0xf>
    11ce: a6 12        	ldx	$12                     ; 0x2012 <__memset+0xe>
    11d0: 86 86        	stx	$86                     ; 0x2086 <__umodsi3+0x5d>
    11d2: a6 13        	ldx	$13                     ; 0x2013 <__memset+0xf>
    11d4: 86 87        	stx	$87                     ; 0x2087 <__umodsi3+0x5e>
    11d6: a6 40        	ldx	$40                     ; 0x2040 <__umodsi3+0x17>
    11d8: 86 44        	stx	$44                     ; 0x2044 <__umodsi3+0x1b>
    11da: a6 41        	ldx	$41                     ; 0x2041 <__umodsi3+0x18>
    11dc: 86 45        	stx	$45                     ; 0x2045 <__umodsi3+0x1c>
    11de: b2 40        	lda	($40)                   ; 0x2040 <__umodsi3+0x17>
    11e0: c9 25        	cmp	#$25
    11e2: f0 21        	beq	$1205 <printf+0x94>
    11e4: aa           	tax
    11e5: d0 03        	bne	$11ea <printf+0x79>
    11e7: 4c 20 1d     	jmp	$1d20 <printf+0xbaf>
    11ea: 20 81 0f     	jsr	$f81 <__putchar>
    11ed: a0 01        	ldy	#$1
    11ef: e6 44        	inc	$44                     ; 0x2044 <__umodsi3+0x1b>
    11f1: d0 02        	bne	$11f5 <printf+0x84>
    11f3: e6 45        	inc	$45                     ; 0x2045 <__umodsi3+0x1c>
    11f5: e6 73        	inc	$73                     ; 0x2073 <__umodsi3+0x4a>
    11f7: d0 02        	bne	$11fb <printf+0x8a>
    11f9: e6 74        	inc	$74                     ; 0x2074 <__umodsi3+0x4b>
    11fb: a6 44        	ldx	$44                     ; 0x2044 <__umodsi3+0x1b>
    11fd: 86 40        	stx	$40                     ; 0x2040 <__umodsi3+0x17>
    11ff: a6 45        	ldx	$45                     ; 0x2045 <__umodsi3+0x1c>
    1201: 86 41        	stx	$41                     ; 0x2041 <__umodsi3+0x18>
    1203: 80 d1        	bra	$11d6 <printf+0x65>
    1205: a6 40        	ldx	$40                     ; 0x2040 <__umodsi3+0x17>
    1207: 86 12        	stx	$12                     ; 0x2012 <__memset+0xe>
    1209: a6 41        	ldx	$41                     ; 0x2041 <__umodsi3+0x18>
    120b: 86 13        	stx	$13                     ; 0x2013 <__memset+0xf>
    120d: e6 12        	inc	$12                     ; 0x2012 <__memset+0xe>
    120f: d0 02        	bne	$1213 <printf+0xa2>
    1211: e6 13        	inc	$13                     ; 0x2013 <__memset+0xf>
    1213: b1 44        	lda	($44),y                 ; 0x2044 <__umodsi3+0x1b>
    1215: c9 25        	cmp	#$25
    1217: d0 16        	bne	$122f <printf+0xbe>
    1219: a4 73        	ldy	$73                     ; 0x2073 <__umodsi3+0x4a>
    121b: a5 74        	lda	$74                     ; 0x2074 <__umodsi3+0x4b>
    121d: c5 72        	cmp	$72                     ; 0x2072 <__umodsi3+0x49>
    121f: f0 03        	beq	$1224 <printf+0xb3>
    1221: 4c 35 13     	jmp	$1335 <printf+0x1c4>
    1224: a6 71        	ldx	$71                     ; 0x2071 <__umodsi3+0x48>
    1226: 86 12        	stx	$12                     ; 0x2012 <__memset+0xe>
    1228: 84 13        	sty	$13                     ; 0x2013 <__memset+0xf>
    122a: c4 12        	cpy	$12                     ; 0x2012 <__memset+0xe>
    122c: 4c 39 13     	jmp	$1339 <printf+0x1c8>
    122f: 64 6f        	stz	$6f                     ; 0x206f <__umodsi3+0x46>
    1231: 64 70        	stz	$70                     ; 0x2070 <__umodsi3+0x47>
    1233: 64 6e        	stz	$6e                     ; 0x206e <__umodsi3+0x45>
    1235: 64 79        	stz	$79                     ; 0x2079 <__umodsi3+0x50>
    1237: 64 7a        	stz	$7a                     ; 0x207a <__umodsi3+0x51>
    1239: a2 ff        	ldx	#$ff
    123b: 86 7b        	stx	$7b                     ; 0x207b <__umodsi3+0x52>
    123d: 86 7c        	stx	$7c                     ; 0x207c <__umodsi3+0x53>
    123f: 64 3f        	stz	$3f                     ; 0x203f <__umodsi3+0x16>
    1241: 80 33        	bra	$1276 <printf+0x105>
    1243: a2 02        	ldx	#$2
    1245: 80 15        	bra	$125c <printf+0xeb>
    1247: e0 20        	cpx	#$20
    1249: f0 15        	beq	$1260 <printf+0xef>
    124b: 86 15        	stx	$15                     ; 0x2015 <__memset+0x11>
    124d: e0 23        	cpx	#$23
    124f: f0 03        	beq	$1254 <printf+0xe3>
    1251: 4c d3 12     	jmp	$12d3 <printf+0x162>
    1254: a5 3f        	lda	$3f                     ; 0x203f <__umodsi3+0x16>
    1256: a2 04        	ldx	#$4
    1258: 80 02        	bra	$125c <printf+0xeb>
    125a: a2 10        	ldx	#$10
    125c: 86 14        	stx	$14                     ; 0x2014 <__memset+0x10>
    125e: 80 06        	bra	$1266 <printf+0xf5>
    1260: a2 08        	ldx	#$8
    1262: 86 14        	stx	$14                     ; 0x2014 <__memset+0x10>
    1264: a5 3f        	lda	$3f                     ; 0x203f <__umodsi3+0x16>
    1266: 05 14        	ora	$14                     ; 0x2014 <__memset+0x10>
    1268: 85 3f        	sta	$3f                     ; 0x203f <__umodsi3+0x16>
    126a: 85 6f        	sta	$6f                     ; 0x206f <__umodsi3+0x46>
    126c: a2 00        	ldx	#$0
    126e: 86 70        	stx	$70                     ; 0x2070 <__umodsi3+0x47>
    1270: e6 12        	inc	$12                     ; 0x2012 <__memset+0xe>
    1272: d0 02        	bne	$1276 <printf+0x105>
    1274: e6 13        	inc	$13                     ; 0x2013 <__memset+0xf>
    1276: b2 12        	lda	($12)                   ; 0x2012 <__memset+0xe>
    1278: aa           	tax
    1279: 38           	sec
    127a: e9 2a        	sbc	#$2a
    127c: c9 07        	cmp	#$7
    127e: b0 c7        	bcs	$1247 <printf+0xd6>
    1280: 86 15        	stx	$15                     ; 0x2015 <__memset+0x11>
    1282: 0a           	asl
    1283: aa           	tax
    1284: a0 01        	ldy	#$1
    1286: 84 14        	sty	$14                     ; 0x2014 <__memset+0x10>
    1288: a5 3f        	lda	$3f                     ; 0x203f <__umodsi3+0x16>
    128a: 7c 71 21     	jmp	($2171,x)               ; 0x2171 <__set_v+0x1>
    128d: a5 7f        	lda	$7f                     ; 0x207f <__umodsi3+0x56>
    128f: a6 80        	ldx	$80                     ; 0x2080 <__umodsi3+0x57>
    1291: 85 16        	sta	$16                     ; 0x2016 <__memset+0x12>
    1293: 86 17        	stx	$17                     ; 0x2017 <__memset+0x13>
    1295: 18           	clc
    1296: 69 02        	adc	#$2
    1298: a8           	tay
    1299: 8a           	txa
    129a: 69 00        	adc	#$0
    129c: 84 7f        	sty	$7f                     ; 0x207f <__umodsi3+0x56>
    129e: 85 80        	sta	$80                     ; 0x2080 <__umodsi3+0x57>
    12a0: b2 16        	lda	($16)                   ; 0x2016 <__memset+0x12>
    12a2: 85 15        	sta	$15                     ; 0x2015 <__memset+0x11>
    12a4: a0 01        	ldy	#$1
    12a6: b1 16        	lda	($16),y                 ; 0x2016 <__memset+0x12>
    12a8: 85 14        	sta	$14                     ; 0x2014 <__memset+0x10>
    12aa: 10 15        	bpl	$12c1 <printf+0x150>
    12ac: a5 3f        	lda	$3f                     ; 0x203f <__umodsi3+0x16>
    12ae: 09 01        	ora	#$1
    12b0: 85 3f        	sta	$3f                     ; 0x203f <__umodsi3+0x16>
    12b2: 85 6f        	sta	$6f                     ; 0x206f <__umodsi3+0x46>
    12b4: a2 00        	ldx	#$0
    12b6: 86 70        	stx	$70                     ; 0x2070 <__umodsi3+0x47>
    12b8: 8a           	txa
    12b9: 38           	sec
    12ba: e5 15        	sbc	$15                     ; 0x2015 <__memset+0x11>
    12bc: 85 15        	sta	$15                     ; 0x2015 <__memset+0x11>
    12be: 8a           	txa
    12bf: e5 14        	sbc	$14                     ; 0x2014 <__memset+0x10>
    12c1: a6 15        	ldx	$15                     ; 0x2015 <__memset+0x11>
    12c3: 86 79        	stx	$79                     ; 0x2079 <__umodsi3+0x50>
    12c5: 85 7a        	sta	$7a                     ; 0x207a <__umodsi3+0x51>
    12c7: e6 12        	inc	$12                     ; 0x2012 <__memset+0xe>
    12c9: f0 03        	beq	$12ce <printf+0x15d>
    12cb: 4c 87 13     	jmp	$1387 <printf+0x216>
    12ce: e6 13        	inc	$13                     ; 0x2013 <__memset+0xf>
    12d0: 4c 87 13     	jmp	$1387 <printf+0x216>
    12d3: a5 15        	lda	$15                     ; 0x2015 <__memset+0x11>
    12d5: 18           	clc
    12d6: 69 d0        	adc	#$d0
    12d8: c9 0a        	cmp	#$a
    12da: 90 03        	bcc	$12df <printf+0x16e>
    12dc: 4c 79 13     	jmp	$1379 <printf+0x208>
    12df: a6 15        	ldx	$15                     ; 0x2015 <__memset+0x11>
    12e1: 86 14        	stx	$14                     ; 0x2014 <__memset+0x10>
    12e3: 64 16        	stz	$16                     ; 0x2016 <__memset+0x12>
    12e5: 64 15        	stz	$15                     ; 0x2015 <__memset+0x11>
    12e7: 64 17        	stz	$17                     ; 0x2017 <__memset+0x13>
    12e9: a0 01        	ldy	#$1
    12eb: 06 16        	asl	$16                     ; 0x2016 <__memset+0x12>
    12ed: 26 17        	rol	$17                     ; 0x2017 <__memset+0x13>
    12ef: a5 16        	lda	$16                     ; 0x2016 <__memset+0x12>
    12f1: 0a           	asl
    12f2: aa           	tax
    12f3: a5 17        	lda	$17                     ; 0x2017 <__memset+0x13>
    12f5: 2a           	rol
    12f6: 86 18        	stx	$18                     ; 0x2018 <__memset+0x14>
    12f8: 06 18        	asl	$18                     ; 0x2018 <__memset+0x14>
    12fa: 2a           	rol
    12fb: aa           	tax
    12fc: a5 18        	lda	$18                     ; 0x2018 <__memset+0x14>
    12fe: 18           	clc
    12ff: 65 16        	adc	$16                     ; 0x2016 <__memset+0x12>
    1301: 85 16        	sta	$16                     ; 0x2016 <__memset+0x12>
    1303: 8a           	txa
    1304: 65 17        	adc	$17                     ; 0x2017 <__memset+0x13>
    1306: 85 17        	sta	$17                     ; 0x2017 <__memset+0x13>
    1308: a5 16        	lda	$16                     ; 0x2016 <__memset+0x12>
    130a: 18           	clc
    130b: 65 14        	adc	$14                     ; 0x2014 <__memset+0x10>
    130d: 85 14        	sta	$14                     ; 0x2014 <__memset+0x10>
    130f: a5 17        	lda	$17                     ; 0x2017 <__memset+0x13>
    1311: 65 15        	adc	$15                     ; 0x2015 <__memset+0x11>
    1313: aa           	tax
    1314: 18           	clc
    1315: a5 14        	lda	$14                     ; 0x2014 <__memset+0x10>
    1317: 69 d0        	adc	#$d0
    1319: 85 16        	sta	$16                     ; 0x2016 <__memset+0x12>
    131b: 8a           	txa
    131c: 69 ff        	adc	#$ff
    131e: 85 17        	sta	$17                     ; 0x2017 <__memset+0x13>
    1320: b1 12        	lda	($12),y                 ; 0x2012 <__memset+0xe>
    1322: 85 14        	sta	$14                     ; 0x2014 <__memset+0x10>
    1324: 18           	clc
    1325: 69 d0        	adc	#$d0
    1327: e6 12        	inc	$12                     ; 0x2012 <__memset+0xe>
    1329: d0 02        	bne	$132d <printf+0x1bc>
    132b: e6 13        	inc	$13                     ; 0x2013 <__memset+0xf>
    132d: c9 0a        	cmp	#$a
    132f: 64 15        	stz	$15                     ; 0x2015 <__memset+0x11>
    1331: 90 b8        	bcc	$12eb <printf+0x17a>
    1333: 80 4a        	bra	$137f <printf+0x20e>
    1335: 84 13        	sty	$13                     ; 0x2013 <__memset+0xf>
    1337: c5 72        	cmp	$72                     ; 0x2072 <__umodsi3+0x49>
    1339: a0 01        	ldy	#$1
    133b: b0 26        	bcs	$1363 <printf+0x1f2>
    133d: a6 7e        	ldx	$7e                     ; 0x207e <__umodsi3+0x55>
    133f: e4 43        	cpx	$43                     ; 0x2043 <__umodsi3+0x1a>
    1341: d0 19        	bne	$135c <printf+0x1eb>
    1343: a6 7d        	ldx	$7d                     ; 0x207d <__umodsi3+0x54>
    1345: e4 42        	cpx	$42                     ; 0x2042 <__umodsi3+0x19>
    1347: d0 13        	bne	$135c <printf+0x1eb>
    1349: 18           	clc
    134a: aa           	tax
    134b: a5 13        	lda	$13                     ; 0x2013 <__memset+0xf>
    134d: 65 77        	adc	$77                     ; 0x2077 <__umodsi3+0x4e>
    134f: 85 12        	sta	$12                     ; 0x2012 <__memset+0xe>
    1351: 8a           	txa
    1352: 65 78        	adc	$78                     ; 0x2078 <__umodsi3+0x4f>
    1354: 85 13        	sta	$13                     ; 0x2013 <__memset+0xf>
    1356: a9 25        	lda	#$25
    1358: 92 12        	sta	($12)                   ; 0x2012 <__memset+0xe>
    135a: 80 07        	bra	$1363 <printf+0x1f2>
    135c: a9 25        	lda	#$25
    135e: 20 81 0f     	jsr	$f81 <__putchar>
    1361: a0 01        	ldy	#$1
    1363: e6 73        	inc	$73                     ; 0x2073 <__umodsi3+0x4a>
    1365: d0 02        	bne	$1369 <printf+0x1f8>
    1367: e6 74        	inc	$74                     ; 0x2074 <__umodsi3+0x4b>
    1369: a5 44        	lda	$44                     ; 0x2044 <__umodsi3+0x1b>
    136b: 18           	clc
    136c: 69 02        	adc	#$2
    136e: 85 40        	sta	$40                     ; 0x2040 <__umodsi3+0x17>
    1370: a5 45        	lda	$45                     ; 0x2045 <__umodsi3+0x1c>
    1372: 69 00        	adc	#$0
    1374: 85 41        	sta	$41                     ; 0x2041 <__umodsi3+0x18>
    1376: 4c d6 11     	jmp	$11d6 <printf+0x65>
    1379: 64 16        	stz	$16                     ; 0x2016 <__memset+0x12>
    137b: 64 17        	stz	$17                     ; 0x2017 <__memset+0x13>
    137d: a0 01        	ldy	#$1
    137f: a6 16        	ldx	$16                     ; 0x2016 <__memset+0x12>
    1381: 86 79        	stx	$79                     ; 0x2079 <__umodsi3+0x50>
    1383: a5 17        	lda	$17                     ; 0x2017 <__memset+0x13>
    1385: 85 7a        	sta	$7a                     ; 0x207a <__umodsi3+0x51>
    1387: 86 48        	stx	$48                     ; 0x2048 <__umodsi3+0x1f>
    1389: 85 46        	sta	$46                     ; 0x2046 <__umodsi3+0x1d>
    138b: b2 12        	lda	($12)                   ; 0x2012 <__memset+0xe>
    138d: a2 ff        	ldx	#$ff
    138f: c9 2e        	cmp	#$2e
    1391: d0 39        	bne	$13cc <printf+0x25b>
    1393: b1 12        	lda	($12),y                 ; 0x2012 <__memset+0xe>
    1395: c9 2a        	cmp	#$2a
    1397: d0 38        	bne	$13d1 <printf+0x260>
    1399: a5 7f        	lda	$7f                     ; 0x207f <__umodsi3+0x56>
    139b: a6 80        	ldx	$80                     ; 0x2080 <__umodsi3+0x57>
    139d: 85 14        	sta	$14                     ; 0x2014 <__memset+0x10>
    139f: 86 15        	stx	$15                     ; 0x2015 <__memset+0x11>
    13a1: 18           	clc
    13a2: 69 02        	adc	#$2
    13a4: 85 16        	sta	$16                     ; 0x2016 <__memset+0x12>
    13a6: 8a           	txa
    13a7: 69 00        	adc	#$0
    13a9: a6 16        	ldx	$16                     ; 0x2016 <__memset+0x12>
    13ab: 86 7f        	stx	$7f                     ; 0x207f <__umodsi3+0x56>
    13ad: 85 80        	sta	$80                     ; 0x2080 <__umodsi3+0x57>
    13af: a5 12        	lda	$12                     ; 0x2012 <__memset+0xe>
    13b1: 18           	clc
    13b2: 69 02        	adc	#$2
    13b4: 85 12        	sta	$12                     ; 0x2012 <__memset+0xe>
    13b6: a5 13        	lda	$13                     ; 0x2013 <__memset+0xf>
    13b8: 69 00        	adc	#$0
    13ba: 85 13        	sta	$13                     ; 0x2013 <__memset+0xf>
    13bc: b2 14        	lda	($14)                   ; 0x2014 <__memset+0x10>
    13be: aa           	tax
    13bf: b1 14        	lda	($14),y                 ; 0x2014 <__memset+0x10>
    13c1: 86 18        	stx	$18                     ; 0x2018 <__memset+0x14>
    13c3: 86 7b        	stx	$7b                     ; 0x207b <__umodsi3+0x52>
    13c5: 85 19        	sta	$19                     ; 0x2019 <__memset+0x15>
    13c7: 85 7c        	sta	$7c                     ; 0x207c <__umodsi3+0x53>
    13c9: 4c 7c 14     	jmp	$147c <printf+0x30b>
    13cc: 86 18        	stx	$18                     ; 0x2018 <__memset+0x14>
    13ce: 4c 8c 14     	jmp	$148c <printf+0x31b>
    13d1: 85 17        	sta	$17                     ; 0x2017 <__memset+0x13>
    13d3: 18           	clc
    13d4: 69 d0        	adc	#$d0
    13d6: c9 0a        	cmp	#$a
    13d8: 90 03        	bcc	$13dd <printf+0x26c>
    13da: 4c 6e 14     	jmp	$146e <printf+0x2fd>
    13dd: 64 16        	stz	$16                     ; 0x2016 <__memset+0x12>
    13df: a2 01        	ldx	#$1
    13e1: 64 18        	stz	$18                     ; 0x2018 <__memset+0x14>
    13e3: 64 19        	stz	$19                     ; 0x2019 <__memset+0x15>
    13e5: a0 01        	ldy	#$1
    13e7: 64 1a        	stz	$1a                     ; 0x201a <__memset+0x16>
    13e9: 5a           	phy
    13ea: a4 1a        	ldy	$1a                     ; 0x201a <__memset+0x16>
    13ec: 84 14        	sty	$14                     ; 0x2014 <__memset+0x10>
    13ee: 86 15        	stx	$15                     ; 0x2015 <__memset+0x11>
    13f0: 06 18        	asl	$18                     ; 0x2018 <__memset+0x14>
    13f2: 26 19        	rol	$19                     ; 0x2019 <__memset+0x15>
    13f4: a5 18        	lda	$18                     ; 0x2018 <__memset+0x14>
    13f6: 0a           	asl
    13f7: 85 1d        	sta	$1d                     ; 0x201d <__memset+0x19>
    13f9: a5 19        	lda	$19                     ; 0x2019 <__memset+0x15>
    13fb: 2a           	rol
    13fc: 06 1d        	asl	$1d                     ; 0x201d <__memset+0x19>
    13fe: 2a           	rol
    13ff: 85 1e        	sta	$1e                     ; 0x201e <__memset+0x1a>
    1401: a5 1d        	lda	$1d                     ; 0x201d <__memset+0x19>
    1403: 18           	clc
    1404: 65 18        	adc	$18                     ; 0x2018 <__memset+0x14>
    1406: 85 18        	sta	$18                     ; 0x2018 <__memset+0x14>
    1408: a5 1e        	lda	$1e                     ; 0x201e <__memset+0x1a>
    140a: 65 19        	adc	$19                     ; 0x2019 <__memset+0x15>
    140c: 85 19        	sta	$19                     ; 0x2019 <__memset+0x15>
    140e: a5 18        	lda	$18                     ; 0x2018 <__memset+0x14>
    1410: 18           	clc
    1411: 65 17        	adc	$17                     ; 0x2017 <__memset+0x13>
    1413: 85 17        	sta	$17                     ; 0x2017 <__memset+0x13>
    1415: a5 19        	lda	$19                     ; 0x2019 <__memset+0x15>
    1417: 65 16        	adc	$16                     ; 0x2016 <__memset+0x12>
    1419: 85 16        	sta	$16                     ; 0x2016 <__memset+0x12>
    141b: 18           	clc
    141c: a5 17        	lda	$17                     ; 0x2017 <__memset+0x13>
    141e: 69 d0        	adc	#$d0
    1420: 85 18        	sta	$18                     ; 0x2018 <__memset+0x14>
    1422: a5 16        	lda	$16                     ; 0x2016 <__memset+0x12>
    1424: 69 ff        	adc	#$ff
    1426: 85 19        	sta	$19                     ; 0x2019 <__memset+0x15>
    1428: e8           	inx
    1429: d0 02        	bne	$142d <printf+0x2bc>
    142b: e6 1a        	inc	$1a                     ; 0x201a <__memset+0x16>
    142d: a5 12        	lda	$12                     ; 0x2012 <__memset+0xe>
    142f: 18           	clc
    1430: 65 15        	adc	$15                     ; 0x2015 <__memset+0x11>
    1432: 85 1d        	sta	$1d                     ; 0x201d <__memset+0x19>
    1434: a5 13        	lda	$13                     ; 0x2013 <__memset+0xf>
    1436: 65 14        	adc	$14                     ; 0x2014 <__memset+0x10>
    1438: a4 1d        	ldy	$1d                     ; 0x201d <__memset+0x19>
    143a: 84 16        	sty	$16                     ; 0x2016 <__memset+0x12>
    143c: 7a           	ply
    143d: 85 17        	sta	$17                     ; 0x2017 <__memset+0x13>
    143f: b1 16        	lda	($16),y                 ; 0x2016 <__memset+0x12>
    1441: 85 17        	sta	$17                     ; 0x2017 <__memset+0x13>
    1443: 18           	clc
    1444: 69 d0        	adc	#$d0
    1446: c9 0a        	cmp	#$a
    1448: 64 16        	stz	$16                     ; 0x2016 <__memset+0x12>
    144a: b0 03        	bcs	$144f <printf+0x2de>
    144c: 4c e9 13     	jmp	$13e9 <printf+0x278>
    144f: a5 12        	lda	$12                     ; 0x2012 <__memset+0xe>
    1451: 18           	clc
    1452: 65 15        	adc	$15                     ; 0x2015 <__memset+0x11>
    1454: 85 12        	sta	$12                     ; 0x2012 <__memset+0xe>
    1456: a5 13        	lda	$13                     ; 0x2013 <__memset+0xf>
    1458: 65 14        	adc	$14                     ; 0x2014 <__memset+0x10>
    145a: 85 13        	sta	$13                     ; 0x2013 <__memset+0xf>
    145c: e6 12        	inc	$12                     ; 0x2012 <__memset+0xe>
    145e: d0 02        	bne	$1462 <printf+0x2f1>
    1460: e6 13        	inc	$13                     ; 0x2013 <__memset+0xf>
    1462: a6 18        	ldx	$18                     ; 0x2018 <__memset+0x14>
    1464: 86 7b        	stx	$7b                     ; 0x207b <__umodsi3+0x52>
    1466: a6 19        	ldx	$19                     ; 0x2019 <__memset+0x15>
    1468: 86 7c        	stx	$7c                     ; 0x207c <__umodsi3+0x53>
    146a: a0 01        	ldy	#$1
    146c: 80 0e        	bra	$147c <printf+0x30b>
    146e: e6 12        	inc	$12                     ; 0x2012 <__memset+0xe>
    1470: d0 02        	bne	$1474 <printf+0x303>
    1472: e6 13        	inc	$13                     ; 0x2013 <__memset+0xf>
    1474: 64 18        	stz	$18                     ; 0x2018 <__memset+0x14>
    1476: 64 7b        	stz	$7b                     ; 0x207b <__umodsi3+0x52>
    1478: 64 7c        	stz	$7c                     ; 0x207c <__umodsi3+0x53>
    147a: 64 19        	stz	$19                     ; 0x2019 <__memset+0x15>
    147c: a5 3f        	lda	$3f                     ; 0x203f <__umodsi3+0x16>
    147e: 29 ef        	and	#$ef
    1480: 85 3f        	sta	$3f                     ; 0x203f <__umodsi3+0x16>
    1482: 85 6f        	sta	$6f                     ; 0x206f <__umodsi3+0x46>
    1484: a2 00        	ldx	#$0
    1486: 86 70        	stx	$70                     ; 0x2070 <__umodsi3+0x47>
    1488: b2 12        	lda	($12)                   ; 0x2012 <__memset+0xe>
    148a: a6 19        	ldx	$19                     ; 0x2019 <__memset+0x15>
    148c: 86 15        	stx	$15                     ; 0x2015 <__memset+0x11>
    148e: a6 12        	ldx	$12                     ; 0x2012 <__memset+0xe>
    1490: 86 40        	stx	$40                     ; 0x2040 <__umodsi3+0x17>
    1492: a6 13        	ldx	$13                     ; 0x2013 <__memset+0xf>
    1494: 86 41        	stx	$41                     ; 0x2041 <__umodsi3+0x18>
    1496: e6 40        	inc	$40                     ; 0x2040 <__umodsi3+0x17>
    1498: d0 02        	bne	$149c <printf+0x32b>
    149a: e6 41        	inc	$41                     ; 0x2041 <__umodsi3+0x18>
    149c: 85 14        	sta	$14                     ; 0x2014 <__memset+0x10>
    149e: 38           	sec
    149f: e9 6c        	sbc	#$6c
    14a1: 50 02        	bvc	$14a5 <printf+0x334>
    14a3: 49 80        	eor	#$80
    14a5: aa           	tax
    14a6: 10 1d        	bpl	$14c5 <printf+0x354>
    14a8: a5 14        	lda	$14                     ; 0x2014 <__memset+0x10>
    14aa: c9 4c        	cmp	#$4c
    14ac: f0 27        	beq	$14d5 <printf+0x364>
    14ae: c9 68        	cmp	#$68
    14b0: d0 03        	bne	$14b5 <printf+0x344>
    14b2: 4c 3c 15     	jmp	$153c <printf+0x3cb>
    14b5: a2 08        	ldx	#$8
    14b7: c9 6a        	cmp	#$6a
    14b9: d0 2e        	bne	$14e9 <printf+0x378>
    14bb: a5 40        	lda	$40                     ; 0x2040 <__umodsi3+0x17>
    14bd: 85 12        	sta	$12                     ; 0x2012 <__memset+0xe>
    14bf: a5 41        	lda	$41                     ; 0x2041 <__umodsi3+0x18>
    14c1: 85 13        	sta	$13                     ; 0x2013 <__memset+0xf>
    14c3: 80 43        	bra	$1508 <printf+0x397>
    14c5: a6 14        	ldx	$14                     ; 0x2014 <__memset+0x10>
    14c7: e0 6c        	cpx	#$6c
    14c9: f0 23        	beq	$14ee <printf+0x37d>
    14cb: e0 74        	cpx	#$74
    14cd: f0 12        	beq	$14e1 <printf+0x370>
    14cf: e0 7a        	cpx	#$7a
    14d1: f0 0e        	beq	$14e1 <printf+0x370>
    14d3: 80 14        	bra	$14e9 <printf+0x378>
    14d5: a5 3f        	lda	$3f                     ; 0x203f <__umodsi3+0x16>
    14d7: 09 40        	ora	#$40
    14d9: 85 3f        	sta	$3f                     ; 0x203f <__umodsi3+0x16>
    14db: 85 6f        	sta	$6f                     ; 0x206f <__umodsi3+0x46>
    14dd: a2 00        	ldx	#$0
    14df: 86 70        	stx	$70                     ; 0x2070 <__umodsi3+0x47>
    14e1: a6 40        	ldx	$40                     ; 0x2040 <__umodsi3+0x17>
    14e3: 86 12        	stx	$12                     ; 0x2012 <__memset+0xe>
    14e5: a6 41        	ldx	$41                     ; 0x2041 <__umodsi3+0x18>
    14e7: 86 13        	stx	$13                     ; 0x2013 <__memset+0xf>
    14e9: a2 02        	ldx	#$2
    14eb: 8a           	txa
    14ec: 80 1c        	bra	$150a <printf+0x399>
    14ee: b1 12        	lda	($12),y                 ; 0x2012 <__memset+0xe>
    14f0: a2 04        	ldx	#$4
    14f2: c9 6c        	cmp	#$6c
    14f4: f0 03        	beq	$14f9 <printf+0x388>
    14f6: 4c 3b 18     	jmp	$183b <printf+0x6ca>
    14f9: a5 12        	lda	$12                     ; 0x2012 <__memset+0xe>
    14fb: 18           	clc
    14fc: 69 02        	adc	#$2
    14fe: 85 12        	sta	$12                     ; 0x2012 <__memset+0xe>
    1500: a5 13        	lda	$13                     ; 0x2013 <__memset+0xf>
    1502: 69 00        	adc	#$0
    1504: 85 13        	sta	$13                     ; 0x2013 <__memset+0xf>
    1506: a2 08        	ldx	#$8
    1508: a9 08        	lda	#$8
    150a: 85 85        	sta	$85                     ; 0x2085 <__umodsi3+0x5c>
    150c: b2 12        	lda	($12)                   ; 0x2012 <__memset+0xe>
    150e: 5a           	phy
    150f: a4 12        	ldy	$12                     ; 0x2012 <__memset+0xe>
    1511: 84 40        	sty	$40                     ; 0x2040 <__umodsi3+0x17>
    1513: a4 13        	ldy	$13                     ; 0x2013 <__memset+0xf>
    1515: 84 41        	sty	$41                     ; 0x2041 <__umodsi3+0x18>
    1517: 7a           	ply
    1518: 86 42        	stx	$42                     ; 0x2042 <__umodsi3+0x19>
    151a: aa           	tax
    151b: 38           	sec
    151c: e9 63        	sbc	#$63
    151e: c9 16        	cmp	#$16
    1520: b0 39        	bcs	$155b <printf+0x3ea>
    1522: 0a           	asl
    1523: aa           	tax
    1524: 7c 7f 21     	jmp	($217f,x)               ; 0x217f <__set_v+0xf>
    1527: a6 15        	ldx	$15                     ; 0x2015 <__memset+0x11>
    1529: 86 83        	stx	$83                     ; 0x2083 <__umodsi3+0x5a>
    152b: a6 18        	ldx	$18                     ; 0x2018 <__memset+0x14>
    152d: 86 88        	stx	$88                     ; 0x2088 <__umodsi3+0x5f>
    152f: a0 0a        	ldy	#$a
    1531: a2 0a        	ldx	#$a
    1533: 86 84        	stx	$84                     ; 0x2084 <__umodsi3+0x5b>
    1535: 84 6e        	sty	$6e                     ; 0x206e <__umodsi3+0x45>
    1537: 64 49        	stz	$49                     ; 0x2049 <__umodsi3+0x20>
    1539: 4c 5b 16     	jmp	$165b <printf+0x4ea>
    153c: b1 12        	lda	($12),y                 ; 0x2012 <__memset+0xe>
    153e: a2 02        	ldx	#$2
    1540: c9 68        	cmp	#$68
    1542: f0 03        	beq	$1547 <printf+0x3d6>
    1544: 4c 41 18     	jmp	$1841 <printf+0x6d0>
    1547: a5 12        	lda	$12                     ; 0x2012 <__memset+0xe>
    1549: 18           	clc
    154a: 69 02        	adc	#$2
    154c: 85 12        	sta	$12                     ; 0x2012 <__memset+0xe>
    154e: a5 13        	lda	$13                     ; 0x2013 <__memset+0xf>
    1550: 69 00        	adc	#$0
    1552: 85 13        	sta	$13                     ; 0x2013 <__memset+0xf>
    1554: a2 01        	ldx	#$1
    1556: 86 85        	stx	$85                     ; 0x2085 <__umodsi3+0x5c>
    1558: e8           	inx
    1559: 80 b1        	bra	$150c <printf+0x39b>
    155b: e0 58        	cpx	#$58
    155d: f0 03        	beq	$1562 <printf+0x3f1>
    155f: 4c dc 1c     	jmp	$1cdc <printf+0xb6b>
    1562: a6 15        	ldx	$15                     ; 0x2015 <__memset+0x11>
    1564: 86 83        	stx	$83                     ; 0x2083 <__umodsi3+0x5a>
    1566: a6 18        	ldx	$18                     ; 0x2018 <__memset+0x14>
    1568: 86 88        	stx	$88                     ; 0x2088 <__umodsi3+0x5f>
    156a: a2 10        	ldx	#$10
    156c: 86 6e        	stx	$6e                     ; 0x206e <__umodsi3+0x45>
    156e: a9 00        	lda	#$0
    1570: 09 01        	ora	#$1
    1572: a6 3f        	ldx	$3f                     ; 0x203f <__umodsi3+0x16>
    1574: 80 29        	bra	$159f <printf+0x42e>
    1576: a6 15        	ldx	$15                     ; 0x2015 <__memset+0x11>
    1578: 86 83        	stx	$83                     ; 0x2083 <__umodsi3+0x5a>
    157a: a6 18        	ldx	$18                     ; 0x2018 <__memset+0x14>
    157c: 86 88        	stx	$88                     ; 0x2088 <__umodsi3+0x5f>
    157e: a2 10        	ldx	#$10
    1580: 86 6e        	stx	$6e                     ; 0x206e <__umodsi3+0x45>
    1582: a5 3f        	lda	$3f                     ; 0x203f <__umodsi3+0x16>
    1584: 09 84        	ora	#$84
    1586: 80 10        	bra	$1598 <printf+0x427>
    1588: a6 15        	ldx	$15                     ; 0x2015 <__memset+0x11>
    158a: 86 83        	stx	$83                     ; 0x2083 <__umodsi3+0x5a>
    158c: a6 18        	ldx	$18                     ; 0x2018 <__memset+0x14>
    158e: 86 88        	stx	$88                     ; 0x2088 <__umodsi3+0x5f>
    1590: a2 10        	ldx	#$10
    1592: 86 6e        	stx	$6e                     ; 0x206e <__umodsi3+0x45>
    1594: a5 3f        	lda	$3f                     ; 0x203f <__umodsi3+0x16>
    1596: 09 80        	ora	#$80
    1598: aa           	tax
    1599: a9 00        	lda	#$0
    159b: 09 01        	ora	#$1
    159d: 86 3f        	stx	$3f                     ; 0x203f <__umodsi3+0x16>
    159f: 86 6f        	stx	$6f                     ; 0x206f <__umodsi3+0x46>
    15a1: 85 49        	sta	$49                     ; 0x2049 <__umodsi3+0x20>
    15a3: 85 70        	sta	$70                     ; 0x2070 <__umodsi3+0x47>
    15a5: a2 10        	ldx	#$10
    15a7: 86 84        	stx	$84                     ; 0x2084 <__umodsi3+0x5b>
    15a9: 4c 5b 16     	jmp	$165b <printf+0x4ea>
    15ac: a5 7f        	lda	$7f                     ; 0x207f <__umodsi3+0x56>
    15ae: a6 80        	ldx	$80                     ; 0x2080 <__umodsi3+0x57>
    15b0: 85 12        	sta	$12                     ; 0x2012 <__memset+0xe>
    15b2: 86 13        	stx	$13                     ; 0x2013 <__memset+0xf>
    15b4: 18           	clc
    15b5: 69 02        	adc	#$2
    15b7: 85 14        	sta	$14                     ; 0x2014 <__memset+0x10>
    15b9: 8a           	txa
    15ba: 69 00        	adc	#$0
    15bc: a6 14        	ldx	$14                     ; 0x2014 <__memset+0x10>
    15be: 86 7f        	stx	$7f                     ; 0x207f <__umodsi3+0x56>
    15c0: 85 80        	sta	$80                     ; 0x2080 <__umodsi3+0x57>
    15c2: b2 12        	lda	($12)                   ; 0x2012 <__memset+0xe>
    15c4: aa           	tax
    15c5: b1 12        	lda	($12),y                 ; 0x2012 <__memset+0xe>
    15c7: 86 12        	stx	$12                     ; 0x2012 <__memset+0xe>
    15c9: 85 13        	sta	$13                     ; 0x2013 <__memset+0xf>
    15cb: a5 73        	lda	$73                     ; 0x2073 <__umodsi3+0x4a>
    15cd: a6 74        	ldx	$74                     ; 0x2074 <__umodsi3+0x4b>
    15cf: 92 12        	sta	($12)                   ; 0x2012 <__memset+0xe>
    15d1: 8a           	txa
    15d2: 91 12        	sta	($12),y                 ; 0x2012 <__memset+0xe>
    15d4: 4c 34 16     	jmp	$1634 <printf+0x4c3>
    15d7: a5 7f        	lda	$7f                     ; 0x207f <__umodsi3+0x56>
    15d9: a6 80        	ldx	$80                     ; 0x2080 <__umodsi3+0x57>
    15db: 85 12        	sta	$12                     ; 0x2012 <__memset+0xe>
    15dd: 86 13        	stx	$13                     ; 0x2013 <__memset+0xf>
    15df: 18           	clc
    15e0: 69 02        	adc	#$2
    15e2: 85 14        	sta	$14                     ; 0x2014 <__memset+0x10>
    15e4: 8a           	txa
    15e5: 69 00        	adc	#$0
    15e7: a6 14        	ldx	$14                     ; 0x2014 <__memset+0x10>
    15e9: 86 7f        	stx	$7f                     ; 0x207f <__umodsi3+0x56>
    15eb: 85 80        	sta	$80                     ; 0x2080 <__umodsi3+0x57>
    15ed: b2 12        	lda	($12)                   ; 0x2012 <__memset+0xe>
    15ef: aa           	tax
    15f0: b1 12        	lda	($12),y                 ; 0x2012 <__memset+0xe>
    15f2: 86 12        	stx	$12                     ; 0x2012 <__memset+0xe>
    15f4: 85 13        	sta	$13                     ; 0x2013 <__memset+0xf>
    15f6: 80 2f        	bra	$1627 <printf+0x4b6>
    15f8: a6 15        	ldx	$15                     ; 0x2015 <__memset+0x11>
    15fa: 86 83        	stx	$83                     ; 0x2083 <__umodsi3+0x5a>
    15fc: a6 18        	ldx	$18                     ; 0x2018 <__memset+0x14>
    15fe: 86 88        	stx	$88                     ; 0x2088 <__umodsi3+0x5f>
    1600: a0 08        	ldy	#$8
    1602: a2 08        	ldx	#$8
    1604: 80 45        	bra	$164b <printf+0x4da>
    1606: a5 7f        	lda	$7f                     ; 0x207f <__umodsi3+0x56>
    1608: a6 80        	ldx	$80                     ; 0x2080 <__umodsi3+0x57>
    160a: 85 12        	sta	$12                     ; 0x2012 <__memset+0xe>
    160c: 86 13        	stx	$13                     ; 0x2013 <__memset+0xf>
    160e: 18           	clc
    160f: 69 02        	adc	#$2
    1611: a8           	tay
    1612: 8a           	txa
    1613: 69 00        	adc	#$0
    1615: 84 7f        	sty	$7f                     ; 0x207f <__umodsi3+0x56>
    1617: 85 80        	sta	$80                     ; 0x2080 <__umodsi3+0x57>
    1619: b2 12        	lda	($12)                   ; 0x2012 <__memset+0xe>
    161b: 85 61        	sta	$61                     ; 0x2061 <__umodsi3+0x38>
    161d: 64 62        	stz	$62                     ; 0x2062 <__umodsi3+0x39>
    161f: a2 61        	ldx	#$61
    1621: 86 12        	stx	$12                     ; 0x2012 <__memset+0xe>
    1623: a2 00        	ldx	#$0
    1625: 86 13        	stx	$13                     ; 0x2013 <__memset+0xf>
    1627: a2 6e        	ldx	#$6e
    1629: 86 14        	stx	$14                     ; 0x2014 <__memset+0x10>
    162b: a2 00        	ldx	#$0
    162d: 86 15        	stx	$15                     ; 0x2015 <__memset+0x11>
    162f: 20 64 10     	jsr	$1064 <_ZN12_GLOBAL__N_112print_stringEPKcP6Status>
    1632: a0 01        	ldy	#$1
    1634: a2 00        	ldx	#$0
    1636: 86 42        	stx	$42                     ; 0x2042 <__umodsi3+0x19>
    1638: a2 00        	ldx	#$0
    163a: 86 43        	stx	$43                     ; 0x2043 <__umodsi3+0x1a>
    163c: 4c c4 1c     	jmp	$1cc4 <printf+0xb53>
    163f: a6 15        	ldx	$15                     ; 0x2015 <__memset+0x11>
    1641: 86 83        	stx	$83                     ; 0x2083 <__umodsi3+0x5a>
    1643: a6 18        	ldx	$18                     ; 0x2018 <__memset+0x14>
    1645: 86 88        	stx	$88                     ; 0x2088 <__umodsi3+0x5f>
    1647: a0 0a        	ldy	#$a
    1649: a2 0a        	ldx	#$a
    164b: 86 84        	stx	$84                     ; 0x2084 <__umodsi3+0x5b>
    164d: 84 6e        	sty	$6e                     ; 0x206e <__umodsi3+0x45>
    164f: a9 00        	lda	#$0
    1651: 09 01        	ora	#$1
    1653: a6 3f        	ldx	$3f                     ; 0x203f <__umodsi3+0x16>
    1655: 86 6f        	stx	$6f                     ; 0x206f <__umodsi3+0x46>
    1657: 85 49        	sta	$49                     ; 0x2049 <__umodsi3+0x20>
    1659: 85 70        	sta	$70                     ; 0x2070 <__umodsi3+0x47>
    165b: a5 85        	lda	$85                     ; 0x2085 <__umodsi3+0x5c>
    165d: 85 63        	sta	$63                     ; 0x2063 <__umodsi3+0x3a>
    165f: a4 7f        	ldy	$7f                     ; 0x207f <__umodsi3+0x56>
    1661: a6 80        	ldx	$80                     ; 0x2080 <__umodsi3+0x57>
    1663: 86 47        	stx	$47                     ; 0x2047 <__umodsi3+0x1e>
    1665: 84 14        	sty	$14                     ; 0x2014 <__memset+0x10>
    1667: 84 3e        	sty	$3e                     ; 0x203e <__umodsi3+0x15>
    1669: 86 15        	stx	$15                     ; 0x2015 <__memset+0x11>
    166b: a6 86        	ldx	$86                     ; 0x2086 <__umodsi3+0x5d>
    166d: 86 12        	stx	$12                     ; 0x2012 <__memset+0xe>
    166f: a6 87        	ldx	$87                     ; 0x2087 <__umodsi3+0x5e>
    1671: 86 13        	stx	$13                     ; 0x2013 <__memset+0xf>
    1673: a2 00        	ldx	#$0
    1675: 85 43        	sta	$43                     ; 0x2043 <__umodsi3+0x1a>
    1677: 20 d8 1f     	jsr	$1fd8 <memcpy>
    167a: 18           	clc
    167b: a5 3e        	lda	$3e                     ; 0x203e <__umodsi3+0x15>
    167d: 65 42        	adc	$42                     ; 0x2042 <__umodsi3+0x19>
    167f: aa           	tax
    1680: a5 47        	lda	$47                     ; 0x2047 <__umodsi3+0x1e>
    1682: 69 00        	adc	#$0
    1684: 86 7f        	stx	$7f                     ; 0x207f <__umodsi3+0x56>
    1686: 85 80        	sta	$80                     ; 0x2080 <__umodsi3+0x57>
    1688: a5 49        	lda	$49                     ; 0x2049 <__umodsi3+0x20>
    168a: 29 01        	and	#$1
    168c: b8           	clv
    168d: f0 03        	beq	$1692 <printf+0x521>
    168f: 4c e6 16     	jmp	$16e6 <printf+0x575>
    1692: a6 43        	ldx	$43                     ; 0x2043 <__umodsi3+0x1a>
    1694: b5 63        	lda	$63,x                   ; 0x2063 <__umodsi3+0x3a>
    1696: aa           	tax
    1697: a0 01        	ldy	#$1
    1699: a5 46        	lda	$46                     ; 0x2046 <__umodsi3+0x1d>
    169b: 85 1a        	sta	$1a                     ; 0x201a <__memset+0x16>
    169d: a5 88        	lda	$88                     ; 0x2088 <__umodsi3+0x5f>
    169f: 85 46        	sta	$46                     ; 0x2046 <__umodsi3+0x1d>
    16a1: a9 00        	lda	#$0
    16a3: 85 42        	sta	$42                     ; 0x2042 <__umodsi3+0x19>
    16a5: a9 00        	lda	#$0
    16a7: 85 43        	sta	$43                     ; 0x2043 <__umodsi3+0x1a>
    16a9: a5 83        	lda	$83                     ; 0x2083 <__umodsi3+0x5a>
    16ab: 85 47        	sta	$47                     ; 0x2047 <__umodsi3+0x1e>
    16ad: 8a           	txa
    16ae: 10 4c        	bpl	$16fc <printf+0x58b>
    16b0: a2 00        	ldx	#$0
    16b2: 64 12        	stz	$12                     ; 0x2012 <__memset+0xe>
    16b4: a9 00        	lda	#$0
    16b6: 38           	sec
    16b7: f5 64        	sbc	$64,x                   ; 0x2064 <__umodsi3+0x3b>
    16b9: a0 00        	ldy	#$0
    16bb: b0 02        	bcs	$16bf <printf+0x54e>
    16bd: a0 01        	ldy	#$1
    16bf: 38           	sec
    16c0: e5 12        	sbc	$12                     ; 0x2012 <__memset+0xe>
    16c2: 85 13        	sta	$13                     ; 0x2013 <__memset+0xf>
    16c4: 64 12        	stz	$12                     ; 0x2012 <__memset+0xe>
    16c6: b0 04        	bcs	$16cc <printf+0x55b>
    16c8: a9 01        	lda	#$1
    16ca: 85 12        	sta	$12                     ; 0x2012 <__memset+0xe>
    16cc: 98           	tya
    16cd: 05 12        	ora	$12                     ; 0x2012 <__memset+0xe>
    16cf: 85 12        	sta	$12                     ; 0x2012 <__memset+0xe>
    16d1: a5 13        	lda	$13                     ; 0x2013 <__memset+0xf>
    16d3: 9d 64 00     	sta	$64,x                   ; 0x64 <__rc31+0x35>
    16d6: e8           	inx
    16d7: 86 13        	stx	$13                     ; 0x2013 <__memset+0xf>
    16d9: a4 85        	ldy	$85                     ; 0x2085 <__umodsi3+0x5c>
    16db: c4 13        	cpy	$13                     ; 0x2013 <__memset+0xf>
    16dd: d0 d5        	bne	$16b4 <printf+0x543>
    16df: 2c 70 21     	bit	$2170                   ; 0x2170 <__set_v>
    16e2: a0 01        	ldy	#$1
    16e4: 80 16        	bra	$16fc <printf+0x58b>
    16e6: a0 01        	ldy	#$1
    16e8: a6 46        	ldx	$46                     ; 0x2046 <__umodsi3+0x1d>
    16ea: 86 1a        	stx	$1a                     ; 0x201a <__memset+0x16>
    16ec: a6 88        	ldx	$88                     ; 0x2088 <__umodsi3+0x5f>
    16ee: 86 46        	stx	$46                     ; 0x2046 <__umodsi3+0x1d>
    16f0: a2 00        	ldx	#$0
    16f2: 86 42        	stx	$42                     ; 0x2042 <__umodsi3+0x19>
    16f4: a2 00        	ldx	#$0
    16f6: 86 43        	stx	$43                     ; 0x2043 <__umodsi3+0x1a>
    16f8: a6 83        	ldx	$83                     ; 0x2083 <__umodsi3+0x5a>
    16fa: 86 47        	stx	$47                     ; 0x2047 <__umodsi3+0x1e>
    16fc: a2 01        	ldx	#$1
    16fe: 70 02        	bvs	$1702 <printf+0x591>
    1700: a2 00        	ldx	#$0
    1702: 86 16        	stx	$16                     ; 0x2016 <__memset+0x12>
    1704: a5 85        	lda	$85                     ; 0x2085 <__umodsi3+0x5c>
    1706: 0a           	asl
    1707: 0a           	asl
    1708: 0a           	asl
    1709: 85 12        	sta	$12                     ; 0x2012 <__memset+0xe>
    170b: a2 00        	ldx	#$0
    170d: 8a           	txa
    170e: 4c c2 17     	jmp	$17c2 <printf+0x651>
    1711: da           	phx
    1712: 7a           	ply
    1713: c8           	iny
    1714: 9d 4c 00     	sta	$4c,x                   ; 0x4c <__rc31+0x1d>
    1717: 5a           	phy
    1718: fa           	plx
    1719: c4 3e        	cpy	$3e                     ; 0x203e <__umodsi3+0x15>
    171b: f0 30        	beq	$174d <printf+0x5dc>
    171d: b5 4c        	lda	$4c,x                   ; 0x204c <__umodsi3+0x23>
    171f: 0a           	asl
    1720: a4 83        	ldy	$83                     ; 0x2083 <__umodsi3+0x5a>
    1722: f0 02        	beq	$1726 <printf+0x5b5>
    1724: 09 01        	ora	#$1
    1726: a4 84        	ldy	$84                     ; 0x2084 <__umodsi3+0x5b>
    1728: 84 14        	sty	$14                     ; 0x2014 <__memset+0x10>
    172a: c5 14        	cmp	$14                     ; 0x2014 <__memset+0x10>
    172c: a0 01        	ldy	#$1
    172e: b0 02        	bcs	$1732 <printf+0x5c1>
    1730: a0 00        	ldy	#$0
    1732: 84 83        	sty	$83                     ; 0x2083 <__umodsi3+0x5a>
    1734: 90 db        	bcc	$1711 <printf+0x5a0>
    1736: 38           	sec
    1737: e5 14        	sbc	$14                     ; 0x2014 <__memset+0x10>
    1739: 9d 4c 00     	sta	$4c,x                   ; 0x4c <__rc31+0x1d>
    173c: e8           	inx
    173d: e4 3e        	cpx	$3e                     ; 0x203e <__umodsi3+0x15>
    173f: d0 dc        	bne	$171d <printf+0x5ac>
    1741: a4 3e        	ldy	$3e                     ; 0x203e <__umodsi3+0x15>
    1743: a6 3e        	ldx	$3e                     ; 0x203e <__umodsi3+0x15>
    1745: e8           	inx
    1746: a9 01        	lda	#$1
    1748: 99 4c 00     	sta	$4c,y                   ; 0x4c <__rc31+0x1d>
    174b: 86 3e        	stx	$3e                     ; 0x203e <__umodsi3+0x15>
    174d: a6 85        	ldx	$85                     ; 0x2085 <__umodsi3+0x5c>
    174f: b5 63        	lda	$63,x                   ; 0x2063 <__umodsi3+0x3a>
    1751: aa           	tax
    1752: 30 0f        	bmi	$1763 <printf+0x5f2>
    1754: a0 01        	ldy	#$1
    1756: 80 42        	bra	$179a <printf+0x629>
    1758: a6 85        	ldx	$85                     ; 0x2085 <__umodsi3+0x5c>
    175a: b5 63        	lda	$63,x                   ; 0x2063 <__umodsi3+0x3a>
    175c: aa           	tax
    175d: 64 3e        	stz	$3e                     ; 0x203e <__umodsi3+0x15>
    175f: 10 39        	bpl	$179a <printf+0x629>
    1761: 80 2a        	bra	$178d <printf+0x61c>
    1763: a5 3e        	lda	$3e                     ; 0x203e <__umodsi3+0x15>
    1765: f0 24        	beq	$178b <printf+0x61a>
    1767: a2 00        	ldx	#$0
    1769: a4 84        	ldy	$84                     ; 0x2084 <__umodsi3+0x5b>
    176b: 84 14        	sty	$14                     ; 0x2014 <__memset+0x10>
    176d: b5 4c        	lda	$4c,x                   ; 0x204c <__umodsi3+0x23>
    176f: 1a           	inc
    1770: f6 4c        	inc	$4c,x                   ; 0x204c <__umodsi3+0x23>
    1772: c5 14        	cmp	$14                     ; 0x2014 <__memset+0x10>
    1774: 90 de        	bcc	$1754 <printf+0x5e3>
    1776: a4 14        	ldy	$14                     ; 0x2014 <__memset+0x10>
    1778: 84 13        	sty	$13                     ; 0x2013 <__memset+0xf>
    177a: 38           	sec
    177b: e5 13        	sbc	$13                     ; 0x2013 <__memset+0xf>
    177d: 9d 4c 00     	sta	$4c,x                   ; 0x4c <__rc31+0x1d>
    1780: e8           	inx
    1781: 86 13        	stx	$13                     ; 0x2013 <__memset+0xf>
    1783: a4 3e        	ldy	$3e                     ; 0x203e <__umodsi3+0x15>
    1785: c4 13        	cpy	$13                     ; 0x2013 <__memset+0xf>
    1787: d0 e4        	bne	$176d <printf+0x5fc>
    1789: 80 02        	bra	$178d <printf+0x61c>
    178b: 64 3e        	stz	$3e                     ; 0x203e <__umodsi3+0x15>
    178d: a4 3e        	ldy	$3e                     ; 0x203e <__umodsi3+0x15>
    178f: a6 3e        	ldx	$3e                     ; 0x203e <__umodsi3+0x15>
    1791: e8           	inx
    1792: a9 01        	lda	#$1
    1794: 99 4c 00     	sta	$4c,y                   ; 0x4c <__rc31+0x1d>
    1797: a8           	tay
    1798: 86 3e        	stx	$3e                     ; 0x203e <__umodsi3+0x15>
    179a: a2 01        	ldx	#$1
    179c: 64 13        	stz	$13                     ; 0x2013 <__memset+0xf>
    179e: a5 85        	lda	$85                     ; 0x2085 <__umodsi3+0x5c>
    17a0: 85 14        	sta	$14                     ; 0x2014 <__memset+0x10>
    17a2: b5 63        	lda	$63,x                   ; 0x2063 <__umodsi3+0x3a>
    17a4: 0a           	asl
    17a5: 64 15        	stz	$15                     ; 0x2015 <__memset+0x11>
    17a7: 26 15        	rol	$15                     ; 0x2015 <__memset+0x11>
    17a9: 05 13        	ora	$13                     ; 0x2013 <__memset+0xf>
    17ab: 9d 63 00     	sta	$63,x                   ; 0x63 <__rc31+0x34>
    17ae: e8           	inx
    17af: c6 14        	dec	$14                     ; 0x2014 <__memset+0x10>
    17b1: a5 15        	lda	$15                     ; 0x2015 <__memset+0x11>
    17b3: 85 13        	sta	$13                     ; 0x2013 <__memset+0xf>
    17b5: a5 14        	lda	$14                     ; 0x2014 <__memset+0x10>
    17b7: d0 e9        	bne	$17a2 <printf+0x631>
    17b9: a5 17        	lda	$17                     ; 0x2017 <__memset+0x13>
    17bb: 1a           	inc
    17bc: c5 12        	cmp	$12                     ; 0x2012 <__memset+0xe>
    17be: a6 3e        	ldx	$3e                     ; 0x203e <__umodsi3+0x15>
    17c0: b0 13        	bcs	$17d5 <printf+0x664>
    17c2: 85 17        	sta	$17                     ; 0x2017 <__memset+0x13>
    17c4: 8a           	txa
    17c5: d0 03        	bne	$17ca <printf+0x659>
    17c7: 4c 58 17     	jmp	$1758 <printf+0x5e7>
    17ca: 86 3e        	stx	$3e                     ; 0x203e <__umodsi3+0x15>
    17cc: a2 00        	ldx	#$0
    17ce: 86 83        	stx	$83                     ; 0x2083 <__umodsi3+0x5a>
    17d0: a2 00        	ldx	#$0
    17d2: 4c 1d 17     	jmp	$171d <printf+0x5ac>
    17d5: a5 3f        	lda	$3f                     ; 0x203f <__umodsi3+0x16>
    17d7: e6 47        	inc	$47                     ; 0x2047 <__umodsi3+0x1e>
    17d9: c6 47        	dec	$47                     ; 0x2047 <__umodsi3+0x1e>
    17db: 10 08        	bpl	$17e5 <printf+0x674>
    17dd: a2 01        	ldx	#$1
    17df: 64 47        	stz	$47                     ; 0x2047 <__umodsi3+0x1e>
    17e1: 86 46        	stx	$46                     ; 0x2046 <__umodsi3+0x1d>
    17e3: a6 3e        	ldx	$3e                     ; 0x203e <__umodsi3+0x15>
    17e5: 29 04        	and	#$4
    17e7: f0 2b        	beq	$1814 <printf+0x6a3>
    17e9: a5 84        	lda	$84                     ; 0x2084 <__umodsi3+0x5b>
    17eb: c9 10        	cmp	#$10
    17ed: f0 14        	beq	$1803 <printf+0x692>
    17ef: c9 08        	cmp	#$8
    17f1: d0 21        	bne	$1814 <printf+0x6a3>
    17f3: a2 00        	ldx	#$0
    17f5: e4 47        	cpx	$47                     ; 0x2047 <__umodsi3+0x1e>
    17f7: f0 03        	beq	$17fc <printf+0x68b>
    17f9: 4c e9 1c     	jmp	$1ce9 <printf+0xb78>
    17fc: a6 3e        	ldx	$3e                     ; 0x203e <__umodsi3+0x15>
    17fe: e4 46        	cpx	$46                     ; 0x2046 <__umodsi3+0x1d>
    1800: 4c eb 1c     	jmp	$1ceb <printf+0xb7a>
    1803: 8a           	txa
    1804: f0 0e        	beq	$1814 <printf+0x6a3>
    1806: a5 3f        	lda	$3f                     ; 0x203f <__umodsi3+0x16>
    1808: 29 80        	and	#$80
    180a: d0 03        	bne	$180f <printf+0x69e>
    180c: 4c 04 1d     	jmp	$1d04 <printf+0xb93>
    180f: a2 78        	ldx	#$78
    1811: 4c 06 1d     	jmp	$1d06 <printf+0xb95>
    1814: a6 3f        	ldx	$3f                     ; 0x203f <__umodsi3+0x16>
    1816: a9 2d        	lda	#$2d
    1818: 85 85        	sta	$85                     ; 0x2085 <__umodsi3+0x5c>
    181a: a5 16        	lda	$16                     ; 0x2016 <__memset+0x12>
    181c: d0 32        	bne	$1850 <printf+0x6df>
    181e: 86 12        	stx	$12                     ; 0x2012 <__memset+0xe>
    1820: 8a           	txa
    1821: 29 02        	and	#$2
    1823: a2 2b        	ldx	#$2b
    1825: 86 85        	stx	$85                     ; 0x2085 <__umodsi3+0x5c>
    1827: aa           	tax
    1828: d0 26        	bne	$1850 <printf+0x6df>
    182a: a5 12        	lda	$12                     ; 0x2012 <__memset+0xe>
    182c: 29 08        	and	#$8
    182e: d0 1c        	bne	$184c <printf+0x6db>
    1830: a2 01        	ldx	#$1
    1832: 86 84        	stx	$84                     ; 0x2084 <__umodsi3+0x5b>
    1834: a9 00        	lda	#$0
    1836: aa           	tax
    1837: 86 83        	stx	$83                     ; 0x2083 <__umodsi3+0x5a>
    1839: 80 1c        	bra	$1857 <printf+0x6e6>
    183b: 85 12        	sta	$12                     ; 0x2012 <__memset+0xe>
    183d: a9 04        	lda	#$4
    183f: 80 04        	bra	$1845 <printf+0x6d4>
    1841: 85 12        	sta	$12                     ; 0x2012 <__memset+0xe>
    1843: a9 02        	lda	#$2
    1845: 85 85        	sta	$85                     ; 0x2085 <__umodsi3+0x5c>
    1847: a5 12        	lda	$12                     ; 0x2012 <__memset+0xe>
    1849: 4c 18 15     	jmp	$1518 <printf+0x3a7>
    184c: a2 20        	ldx	#$20
    184e: 86 85        	stx	$85                     ; 0x2085 <__umodsi3+0x5c>
    1850: a2 00        	ldx	#$0
    1852: 86 84        	stx	$84                     ; 0x2084 <__umodsi3+0x5b>
    1854: 86 83        	stx	$83                     ; 0x2083 <__umodsi3+0x5a>
    1856: 98           	tya
    1857: a6 47        	ldx	$47                     ; 0x2047 <__umodsi3+0x1e>
    1859: d0 35        	bne	$1890 <printf+0x71f>
    185b: a6 46        	ldx	$46                     ; 0x2046 <__umodsi3+0x1d>
    185d: a4 3e        	ldy	$3e                     ; 0x203e <__umodsi3+0x15>
    185f: 84 12        	sty	$12                     ; 0x2012 <__memset+0xe>
    1861: e4 12        	cpx	$12                     ; 0x2012 <__memset+0xe>
    1863: a6 46        	ldx	$46                     ; 0x2046 <__umodsi3+0x1d>
    1865: 86 12        	stx	$12                     ; 0x2012 <__memset+0xe>
    1867: a6 47        	ldx	$47                     ; 0x2047 <__umodsi3+0x1e>
    1869: 86 13        	stx	$13                     ; 0x2013 <__memset+0xf>
    186b: b0 04        	bcs	$1871 <printf+0x700>
    186d: 84 12        	sty	$12                     ; 0x2012 <__memset+0xe>
    186f: 64 13        	stz	$13                     ; 0x2013 <__memset+0xf>
    1871: 85 18        	sta	$18                     ; 0x2018 <__memset+0x14>
    1873: 18           	clc
    1874: 65 12        	adc	$12                     ; 0x2012 <__memset+0xe>
    1876: 85 16        	sta	$16                     ; 0x2016 <__memset+0x12>
    1878: 85 14        	sta	$14                     ; 0x2014 <__memset+0x10>
    187a: a5 13        	lda	$13                     ; 0x2013 <__memset+0xf>
    187c: 69 00        	adc	#$0
    187e: 85 15        	sta	$15                     ; 0x2015 <__memset+0x11>
    1880: c5 1a        	cmp	$1a                     ; 0x201a <__memset+0x16>
    1882: d0 1e        	bne	$18a2 <printf+0x731>
    1884: a6 1a        	ldx	$1a                     ; 0x201a <__memset+0x16>
    1886: 86 17        	stx	$17                     ; 0x2017 <__memset+0x13>
    1888: a6 48        	ldx	$48                     ; 0x2048 <__umodsi3+0x1f>
    188a: a5 16        	lda	$16                     ; 0x2016 <__memset+0x12>
    188c: c5 48        	cmp	$48                     ; 0x2048 <__umodsi3+0x1f>
    188e: 80 1c        	bra	$18ac <printf+0x73b>
    1890: a6 47        	ldx	$47                     ; 0x2047 <__umodsi3+0x1e>
    1892: e0 00        	cpx	#$0
    1894: a6 46        	ldx	$46                     ; 0x2046 <__umodsi3+0x1d>
    1896: 86 12        	stx	$12                     ; 0x2012 <__memset+0xe>
    1898: a6 47        	ldx	$47                     ; 0x2047 <__umodsi3+0x1e>
    189a: 86 13        	stx	$13                     ; 0x2013 <__memset+0xf>
    189c: a4 3e        	ldy	$3e                     ; 0x203e <__umodsi3+0x15>
    189e: 90 cd        	bcc	$186d <printf+0x6fc>
    18a0: 80 cf        	bra	$1871 <printf+0x700>
    18a2: a6 48        	ldx	$48                     ; 0x2048 <__umodsi3+0x1f>
    18a4: 5a           	phy
    18a5: a4 1a        	ldy	$1a                     ; 0x201a <__memset+0x16>
    18a7: 84 17        	sty	$17                     ; 0x2017 <__memset+0x13>
    18a9: 7a           	ply
    18aa: c5 1a        	cmp	$1a                     ; 0x201a <__memset+0x16>
    18ac: 64 49        	stz	$49                     ; 0x2049 <__umodsi3+0x20>
    18ae: 64 48        	stz	$48                     ; 0x2048 <__umodsi3+0x1f>
    18b0: 90 03        	bcc	$18b5 <printf+0x744>
    18b2: 4c 48 19     	jmp	$1948 <printf+0x7d7>
    18b5: a5 3f        	lda	$3f                     ; 0x203f <__umodsi3+0x16>
    18b7: 29 11        	and	#$11
    18b9: 86 16        	stx	$16                     ; 0x2016 <__memset+0x12>
    18bb: f0 0f        	beq	$18cc <printf+0x75b>
    18bd: 8a           	txa
    18be: 38           	sec
    18bf: e5 14        	sbc	$14                     ; 0x2014 <__memset+0x10>
    18c1: 85 49        	sta	$49                     ; 0x2049 <__umodsi3+0x20>
    18c3: a5 1a        	lda	$1a                     ; 0x201a <__memset+0x16>
    18c5: e5 15        	sbc	$15                     ; 0x2015 <__memset+0x11>
    18c7: 85 48        	sta	$48                     ; 0x2048 <__umodsi3+0x1f>
    18c9: 4c 48 19     	jmp	$1948 <printf+0x7d7>
    18cc: a6 73        	ldx	$73                     ; 0x2073 <__umodsi3+0x4a>
    18ce: 86 14        	stx	$14                     ; 0x2014 <__memset+0x10>
    18d0: 38           	sec
    18d1: a5 18        	lda	$18                     ; 0x2018 <__memset+0x14>
    18d3: e5 16        	sbc	$16                     ; 0x2016 <__memset+0x12>
    18d5: aa           	tax
    18d6: a9 00        	lda	#$0
    18d8: e5 17        	sbc	$17                     ; 0x2017 <__memset+0x13>
    18da: a8           	tay
    18db: 18           	clc
    18dc: 8a           	txa
    18dd: 65 12        	adc	$12                     ; 0x2012 <__memset+0xe>
    18df: 85 3f        	sta	$3f                     ; 0x203f <__umodsi3+0x16>
    18e1: 98           	tya
    18e2: 65 13        	adc	$13                     ; 0x2013 <__memset+0xf>
    18e4: a4 74        	ldy	$74                     ; 0x2074 <__umodsi3+0x4b>
    18e6: 80 47        	bra	$192f <printf+0x7be>
    18e8: c4 72        	cpy	$72                     ; 0x2072 <__umodsi3+0x49>
    18ea: b0 25        	bcs	$1911 <printf+0x7a0>
    18ec: a6 7e        	ldx	$7e                     ; 0x207e <__umodsi3+0x55>
    18ee: e4 43        	cpx	$43                     ; 0x2043 <__umodsi3+0x1a>
    18f0: d0 18        	bne	$190a <printf+0x799>
    18f2: a6 7d        	ldx	$7d                     ; 0x207d <__umodsi3+0x54>
    18f4: e4 42        	cpx	$42                     ; 0x2042 <__umodsi3+0x19>
    18f6: d0 12        	bne	$190a <printf+0x799>
    18f8: 18           	clc
    18f9: a5 14        	lda	$14                     ; 0x2014 <__memset+0x10>
    18fb: 65 77        	adc	$77                     ; 0x2077 <__umodsi3+0x4e>
    18fd: 85 12        	sta	$12                     ; 0x2012 <__memset+0xe>
    18ff: 98           	tya
    1900: 65 78        	adc	$78                     ; 0x2078 <__umodsi3+0x4f>
    1902: 85 13        	sta	$13                     ; 0x2013 <__memset+0xf>
    1904: a9 20        	lda	#$20
    1906: 92 12        	sta	($12)                   ; 0x2012 <__memset+0xe>
    1908: 80 05        	bra	$190f <printf+0x79e>
    190a: a9 20        	lda	#$20
    190c: 20 81 0f     	jsr	$f81 <__putchar>
    190f: a5 48        	lda	$48                     ; 0x2048 <__umodsi3+0x1f>
    1911: a6 73        	ldx	$73                     ; 0x2073 <__umodsi3+0x4a>
    1913: a4 74        	ldy	$74                     ; 0x2074 <__umodsi3+0x4b>
    1915: e8           	inx
    1916: d0 01        	bne	$1919 <printf+0x7a8>
    1918: c8           	iny
    1919: 86 14        	stx	$14                     ; 0x2014 <__memset+0x10>
    191b: 86 73        	stx	$73                     ; 0x2073 <__umodsi3+0x4a>
    191d: 84 74        	sty	$74                     ; 0x2074 <__umodsi3+0x4b>
    191f: a6 3f        	ldx	$3f                     ; 0x203f <__umodsi3+0x16>
    1921: e8           	inx
    1922: d0 01        	bne	$1925 <printf+0x7b4>
    1924: 1a           	inc
    1925: 86 3f        	stx	$3f                     ; 0x203f <__umodsi3+0x16>
    1927: c9 00        	cmp	#$0
    1929: d0 04        	bne	$192f <printf+0x7be>
    192b: e0 00        	cpx	#$0
    192d: f0 13        	beq	$1942 <printf+0x7d1>
    192f: 85 48        	sta	$48                     ; 0x2048 <__umodsi3+0x1f>
    1931: c4 72        	cpy	$72                     ; 0x2072 <__umodsi3+0x49>
    1933: d0 b3        	bne	$18e8 <printf+0x777>
    1935: a6 71        	ldx	$71                     ; 0x2071 <__umodsi3+0x48>
    1937: 86 12        	stx	$12                     ; 0x2012 <__memset+0xe>
    1939: a6 14        	ldx	$14                     ; 0x2014 <__memset+0x10>
    193b: e4 12        	cpx	$12                     ; 0x2012 <__memset+0xe>
    193d: b0 d2        	bcs	$1911 <printf+0x7a0>
    193f: 4c ec 18     	jmp	$18ec <printf+0x77b>
    1942: 64 49        	stz	$49                     ; 0x2049 <__umodsi3+0x20>
    1944: 64 48        	stz	$48                     ; 0x2048 <__umodsi3+0x1f>
    1946: a4 3e        	ldy	$3e                     ; 0x203e <__umodsi3+0x15>
    1948: a6 84        	ldx	$84                     ; 0x2084 <__umodsi3+0x5b>
    194a: d0 4d        	bne	$1999 <printf+0x828>
    194c: a6 73        	ldx	$73                     ; 0x2073 <__umodsi3+0x4a>
    194e: a5 74        	lda	$74                     ; 0x2074 <__umodsi3+0x4b>
    1950: c5 72        	cmp	$72                     ; 0x2072 <__umodsi3+0x49>
    1952: d0 10        	bne	$1964 <printf+0x7f3>
    1954: 86 13        	stx	$13                     ; 0x2013 <__memset+0xf>
    1956: a6 71        	ldx	$71                     ; 0x2071 <__umodsi3+0x48>
    1958: 86 12        	stx	$12                     ; 0x2012 <__memset+0xe>
    195a: a4 3e        	ldy	$3e                     ; 0x203e <__umodsi3+0x15>
    195c: a6 13        	ldx	$13                     ; 0x2013 <__memset+0xf>
    195e: e4 12        	cpx	$12                     ; 0x2012 <__memset+0xe>
    1960: 90 08        	bcc	$196a <printf+0x7f9>
    1962: 80 2f        	bra	$1993 <printf+0x822>
    1964: 86 13        	stx	$13                     ; 0x2013 <__memset+0xf>
    1966: c5 72        	cmp	$72                     ; 0x2072 <__umodsi3+0x49>
    1968: b0 29        	bcs	$1993 <printf+0x822>
    196a: a6 7e        	ldx	$7e                     ; 0x207e <__umodsi3+0x55>
    196c: e4 43        	cpx	$43                     ; 0x2043 <__umodsi3+0x1a>
    196e: d0 1c        	bne	$198c <printf+0x81b>
    1970: a6 7d        	ldx	$7d                     ; 0x207d <__umodsi3+0x54>
    1972: e4 42        	cpx	$42                     ; 0x2042 <__umodsi3+0x19>
    1974: d0 16        	bne	$198c <printf+0x81b>
    1976: 18           	clc
    1977: 85 12        	sta	$12                     ; 0x2012 <__memset+0xe>
    1979: a5 13        	lda	$13                     ; 0x2013 <__memset+0xf>
    197b: 65 77        	adc	$77                     ; 0x2077 <__umodsi3+0x4e>
    197d: aa           	tax
    197e: a5 12        	lda	$12                     ; 0x2012 <__memset+0xe>
    1980: 65 78        	adc	$78                     ; 0x2078 <__umodsi3+0x4f>
    1982: 86 12        	stx	$12                     ; 0x2012 <__memset+0xe>
    1984: 85 13        	sta	$13                     ; 0x2013 <__memset+0xf>
    1986: a5 85        	lda	$85                     ; 0x2085 <__umodsi3+0x5c>
    1988: 92 12        	sta	($12)                   ; 0x2012 <__memset+0xe>
    198a: 80 05        	bra	$1991 <printf+0x820>
    198c: a5 85        	lda	$85                     ; 0x2085 <__umodsi3+0x5c>
    198e: 20 81 0f     	jsr	$f81 <__putchar>
    1991: a4 3e        	ldy	$3e                     ; 0x203e <__umodsi3+0x15>
    1993: e6 73        	inc	$73                     ; 0x2073 <__umodsi3+0x4a>
    1995: d0 02        	bne	$1999 <printf+0x828>
    1997: e6 74        	inc	$74                     ; 0x2074 <__umodsi3+0x4b>
    1999: a6 83        	ldx	$83                     ; 0x2083 <__umodsi3+0x5a>
    199b: f0 4d        	beq	$19ea <printf+0x879>
    199d: a6 73        	ldx	$73                     ; 0x2073 <__umodsi3+0x4a>
    199f: a5 74        	lda	$74                     ; 0x2074 <__umodsi3+0x4b>
    19a1: c5 72        	cmp	$72                     ; 0x2072 <__umodsi3+0x49>
    19a3: d0 10        	bne	$19b5 <printf+0x844>
    19a5: 86 13        	stx	$13                     ; 0x2013 <__memset+0xf>
    19a7: a6 71        	ldx	$71                     ; 0x2071 <__umodsi3+0x48>
    19a9: 86 12        	stx	$12                     ; 0x2012 <__memset+0xe>
    19ab: a4 3e        	ldy	$3e                     ; 0x203e <__umodsi3+0x15>
    19ad: a6 13        	ldx	$13                     ; 0x2013 <__memset+0xf>
    19af: e4 12        	cpx	$12                     ; 0x2012 <__memset+0xe>
    19b1: 90 08        	bcc	$19bb <printf+0x84a>
    19b3: 80 2f        	bra	$19e4 <printf+0x873>
    19b5: 86 13        	stx	$13                     ; 0x2013 <__memset+0xf>
    19b7: c5 72        	cmp	$72                     ; 0x2072 <__umodsi3+0x49>
    19b9: b0 29        	bcs	$19e4 <printf+0x873>
    19bb: a6 7e        	ldx	$7e                     ; 0x207e <__umodsi3+0x55>
    19bd: e4 43        	cpx	$43                     ; 0x2043 <__umodsi3+0x1a>
    19bf: d0 1c        	bne	$19dd <printf+0x86c>
    19c1: a6 7d        	ldx	$7d                     ; 0x207d <__umodsi3+0x54>
    19c3: e4 42        	cpx	$42                     ; 0x2042 <__umodsi3+0x19>
    19c5: d0 16        	bne	$19dd <printf+0x86c>
    19c7: 18           	clc
    19c8: 85 12        	sta	$12                     ; 0x2012 <__memset+0xe>
    19ca: a5 13        	lda	$13                     ; 0x2013 <__memset+0xf>
    19cc: 65 77        	adc	$77                     ; 0x2077 <__umodsi3+0x4e>
    19ce: aa           	tax
    19cf: a5 12        	lda	$12                     ; 0x2012 <__memset+0xe>
    19d1: 65 78        	adc	$78                     ; 0x2078 <__umodsi3+0x4f>
    19d3: 86 12        	stx	$12                     ; 0x2012 <__memset+0xe>
    19d5: 85 13        	sta	$13                     ; 0x2013 <__memset+0xf>
    19d7: a5 88        	lda	$88                     ; 0x2088 <__umodsi3+0x5f>
    19d9: 92 12        	sta	($12)                   ; 0x2012 <__memset+0xe>
    19db: 80 05        	bra	$19e2 <printf+0x871>
    19dd: a5 88        	lda	$88                     ; 0x2088 <__umodsi3+0x5f>
    19df: 20 81 0f     	jsr	$f81 <__putchar>
    19e2: a4 3e        	ldy	$3e                     ; 0x203e <__umodsi3+0x15>
    19e4: e6 73        	inc	$73                     ; 0x2073 <__umodsi3+0x4a>
    19e6: d0 02        	bne	$19ea <printf+0x879>
    19e8: e6 74        	inc	$74                     ; 0x2074 <__umodsi3+0x4b>
    19ea: a9 10        	lda	#$10
    19ec: 25 6f        	and	$6f                     ; 0x206f <__umodsi3+0x46>
    19ee: d0 03        	bne	$19f3 <printf+0x882>
    19f0: 4c 7b 1a     	jmp	$1a7b <printf+0x90a>
    19f3: a5 6f        	lda	$6f                     ; 0x206f <__umodsi3+0x46>
    19f5: 29 01        	and	#$1
    19f7: 29 01        	and	#$1
    19f9: f0 03        	beq	$19fe <printf+0x88d>
    19fb: 4c 7b 1a     	jmp	$1a7b <printf+0x90a>
    19fe: a6 49        	ldx	$49                     ; 0x2049 <__umodsi3+0x20>
    1a00: a5 48        	lda	$48                     ; 0x2048 <__umodsi3+0x1f>
    1a02: d0 06        	bne	$1a0a <printf+0x899>
    1a04: 8a           	txa
    1a05: d0 03        	bne	$1a0a <printf+0x899>
    1a07: 4c 19 1d     	jmp	$1d19 <printf+0xba8>
    1a0a: a6 73        	ldx	$73                     ; 0x2073 <__umodsi3+0x4a>
    1a0c: 86 13        	stx	$13                     ; 0x2013 <__memset+0xf>
    1a0e: a5 74        	lda	$74                     ; 0x2074 <__umodsi3+0x4b>
    1a10: 80 4f        	bra	$1a61 <printf+0x8f0>
    1a12: c5 72        	cmp	$72                     ; 0x2072 <__umodsi3+0x49>
    1a14: b0 24        	bcs	$1a3a <printf+0x8c9>
    1a16: a6 7e        	ldx	$7e                     ; 0x207e <__umodsi3+0x55>
    1a18: e4 43        	cpx	$43                     ; 0x2043 <__umodsi3+0x1a>
    1a1a: d0 19        	bne	$1a35 <printf+0x8c4>
    1a1c: a6 7d        	ldx	$7d                     ; 0x207d <__umodsi3+0x54>
    1a1e: e4 42        	cpx	$42                     ; 0x2042 <__umodsi3+0x19>
    1a20: d0 13        	bne	$1a35 <printf+0x8c4>
    1a22: 18           	clc
    1a23: aa           	tax
    1a24: a5 13        	lda	$13                     ; 0x2013 <__memset+0xf>
    1a26: 65 77        	adc	$77                     ; 0x2077 <__umodsi3+0x4e>
    1a28: 85 12        	sta	$12                     ; 0x2012 <__memset+0xe>
    1a2a: 8a           	txa
    1a2b: 65 78        	adc	$78                     ; 0x2078 <__umodsi3+0x4f>
    1a2d: 85 13        	sta	$13                     ; 0x2013 <__memset+0xf>
    1a2f: a9 30        	lda	#$30
    1a31: 92 12        	sta	($12)                   ; 0x2012 <__memset+0xe>
    1a33: 80 05        	bra	$1a3a <printf+0x8c9>
    1a35: a9 30        	lda	#$30
    1a37: 20 81 0f     	jsr	$f81 <__putchar>
    1a3a: a6 73        	ldx	$73                     ; 0x2073 <__umodsi3+0x4a>
    1a3c: a5 74        	lda	$74                     ; 0x2074 <__umodsi3+0x4b>
    1a3e: e8           	inx
    1a3f: d0 01        	bne	$1a42 <printf+0x8d1>
    1a41: 1a           	inc
    1a42: 86 13        	stx	$13                     ; 0x2013 <__memset+0xf>
    1a44: 86 73        	stx	$73                     ; 0x2073 <__umodsi3+0x4a>
    1a46: 85 74        	sta	$74                     ; 0x2074 <__umodsi3+0x4b>
    1a48: a4 49        	ldy	$49                     ; 0x2049 <__umodsi3+0x20>
    1a4a: a6 48        	ldx	$48                     ; 0x2048 <__umodsi3+0x1f>
    1a4c: 86 12        	stx	$12                     ; 0x2012 <__memset+0xe>
    1a4e: 88           	dey
    1a4f: c0 ff        	cpy	#$ff
    1a51: d0 02        	bne	$1a55 <printf+0x8e4>
    1a53: c6 12        	dec	$12                     ; 0x2012 <__memset+0xe>
    1a55: 84 49        	sty	$49                     ; 0x2049 <__umodsi3+0x20>
    1a57: a6 12        	ldx	$12                     ; 0x2012 <__memset+0xe>
    1a59: 86 48        	stx	$48                     ; 0x2048 <__umodsi3+0x1f>
    1a5b: d0 04        	bne	$1a61 <printf+0x8f0>
    1a5d: c0 00        	cpy	#$0
    1a5f: f0 14        	beq	$1a75 <printf+0x904>
    1a61: c5 72        	cmp	$72                     ; 0x2072 <__umodsi3+0x49>
    1a63: f0 03        	beq	$1a68 <printf+0x8f7>
    1a65: 4c 12 1a     	jmp	$1a12 <printf+0x8a1>
    1a68: a6 71        	ldx	$71                     ; 0x2071 <__umodsi3+0x48>
    1a6a: 86 12        	stx	$12                     ; 0x2012 <__memset+0xe>
    1a6c: a6 13        	ldx	$13                     ; 0x2013 <__memset+0xf>
    1a6e: e4 12        	cpx	$12                     ; 0x2012 <__memset+0xe>
    1a70: b0 c8        	bcs	$1a3a <printf+0x8c9>
    1a72: 4c 16 1a     	jmp	$1a16 <printf+0x8a5>
    1a75: 64 49        	stz	$49                     ; 0x2049 <__umodsi3+0x20>
    1a77: 64 48        	stz	$48                     ; 0x2048 <__umodsi3+0x1f>
    1a79: a4 3e        	ldy	$3e                     ; 0x203e <__umodsi3+0x15>
    1a7b: a2 00        	ldx	#$0
    1a7d: e4 47        	cpx	$47                     ; 0x2047 <__umodsi3+0x1e>
    1a7f: d0 07        	bne	$1a88 <printf+0x917>
    1a81: c4 46        	cpy	$46                     ; 0x2046 <__umodsi3+0x1d>
    1a83: 90 0a        	bcc	$1a8f <printf+0x91e>
    1a85: 4c fd 1a     	jmp	$1afd <printf+0x98c>
    1a88: e4 47        	cpx	$47                     ; 0x2047 <__umodsi3+0x1e>
    1a8a: 90 03        	bcc	$1a8f <printf+0x91e>
    1a8c: 4c fd 1a     	jmp	$1afd <printf+0x98c>
    1a8f: a6 73        	ldx	$73                     ; 0x2073 <__umodsi3+0x4a>
    1a91: 86 13        	stx	$13                     ; 0x2013 <__memset+0xf>
    1a93: a5 74        	lda	$74                     ; 0x2074 <__umodsi3+0x4b>
    1a95: a2 ff        	ldx	#$ff
    1a97: c6 46        	dec	$46                     ; 0x2046 <__umodsi3+0x1d>
    1a99: e4 46        	cpx	$46                     ; 0x2046 <__umodsi3+0x1d>
    1a9b: d0 02        	bne	$1a9f <printf+0x92e>
    1a9d: c6 47        	dec	$47                     ; 0x2047 <__umodsi3+0x1e>
    1a9f: c5 72        	cmp	$72                     ; 0x2072 <__umodsi3+0x49>
    1aa1: d0 0c        	bne	$1aaf <printf+0x93e>
    1aa3: a6 71        	ldx	$71                     ; 0x2071 <__umodsi3+0x48>
    1aa5: 86 12        	stx	$12                     ; 0x2012 <__memset+0xe>
    1aa7: a6 13        	ldx	$13                     ; 0x2013 <__memset+0xf>
    1aa9: e4 12        	cpx	$12                     ; 0x2012 <__memset+0xe>
    1aab: 90 06        	bcc	$1ab3 <printf+0x942>
    1aad: 80 28        	bra	$1ad7 <printf+0x966>
    1aaf: c5 72        	cmp	$72                     ; 0x2072 <__umodsi3+0x49>
    1ab1: b0 24        	bcs	$1ad7 <printf+0x966>
    1ab3: a6 7e        	ldx	$7e                     ; 0x207e <__umodsi3+0x55>
    1ab5: e4 43        	cpx	$43                     ; 0x2043 <__umodsi3+0x1a>
    1ab7: d0 19        	bne	$1ad2 <printf+0x961>
    1ab9: a6 7d        	ldx	$7d                     ; 0x207d <__umodsi3+0x54>
    1abb: e4 42        	cpx	$42                     ; 0x2042 <__umodsi3+0x19>
    1abd: d0 13        	bne	$1ad2 <printf+0x961>
    1abf: 18           	clc
    1ac0: aa           	tax
    1ac1: a5 13        	lda	$13                     ; 0x2013 <__memset+0xf>
    1ac3: 65 77        	adc	$77                     ; 0x2077 <__umodsi3+0x4e>
    1ac5: 85 12        	sta	$12                     ; 0x2012 <__memset+0xe>
    1ac7: 8a           	txa
    1ac8: 65 78        	adc	$78                     ; 0x2078 <__umodsi3+0x4f>
    1aca: 85 13        	sta	$13                     ; 0x2013 <__memset+0xf>
    1acc: a9 30        	lda	#$30
    1ace: 92 12        	sta	($12)                   ; 0x2012 <__memset+0xe>
    1ad0: 80 05        	bra	$1ad7 <printf+0x966>
    1ad2: a9 30        	lda	#$30
    1ad4: 20 81 0f     	jsr	$f81 <__putchar>
    1ad7: a6 73        	ldx	$73                     ; 0x2073 <__umodsi3+0x4a>
    1ad9: a5 74        	lda	$74                     ; 0x2074 <__umodsi3+0x4b>
    1adb: e8           	inx
    1adc: d0 01        	bne	$1adf <printf+0x96e>
    1ade: 1a           	inc
    1adf: 86 13        	stx	$13                     ; 0x2013 <__memset+0xf>
    1ae1: 86 73        	stx	$73                     ; 0x2073 <__umodsi3+0x4a>
    1ae3: 85 74        	sta	$74                     ; 0x2074 <__umodsi3+0x4b>
    1ae5: a2 00        	ldx	#$0
    1ae7: e4 47        	cpx	$47                     ; 0x2047 <__umodsi3+0x1e>
    1ae9: d0 09        	bne	$1af4 <printf+0x983>
    1aeb: a4 3e        	ldy	$3e                     ; 0x203e <__umodsi3+0x15>
    1aed: c4 46        	cpy	$46                     ; 0x2046 <__umodsi3+0x1d>
    1aef: b0 0c        	bcs	$1afd <printf+0x98c>
    1af1: 4c 95 1a     	jmp	$1a95 <printf+0x924>
    1af4: e4 47        	cpx	$47                     ; 0x2047 <__umodsi3+0x1e>
    1af6: a4 3e        	ldy	$3e                     ; 0x203e <__umodsi3+0x15>
    1af8: b0 03        	bcs	$1afd <printf+0x98c>
    1afa: 4c 95 1a     	jmp	$1a95 <printf+0x924>
    1afd: 98           	tya
    1afe: d0 03        	bne	$1b03 <printf+0x992>
    1b00: 4c f2 1b     	jmp	$1bf2 <printf+0xa81>
    1b03: 88           	dey
    1b04: d0 03        	bne	$1b09 <printf+0x998>
    1b06: 4c 91 1b     	jmp	$1b91 <printf+0xa20>
    1b09: 84 46        	sty	$46                     ; 0x2046 <__umodsi3+0x1d>
    1b0b: a6 89        	ldx	$89                     ; 0x2089 <__umodsi3+0x60>
    1b0d: 8a           	txa
    1b0e: 18           	clc
    1b0f: 65 46        	adc	$46                     ; 0x2046 <__umodsi3+0x1d>
    1b11: 85 3e        	sta	$3e                     ; 0x203e <__umodsi3+0x15>
    1b13: a5 8a        	lda	$8a                     ; 0x208a <__umodsi3+0x61>
    1b15: 69 00        	adc	#$0
    1b17: 85 3f        	sta	$3f                     ; 0x203f <__umodsi3+0x16>
    1b19: 4c 83 1b     	jmp	$1b83 <printf+0xa12>
    1b1c: a8           	tay
    1b1d: a9 80        	lda	#$80
    1b1f: 25 6f        	and	$6f                     ; 0x206f <__umodsi3+0x46>
    1b21: f0 04        	beq	$1b27 <printf+0x9b6>
    1b23: a2 61        	ldx	#$61
    1b25: 80 02        	bra	$1b29 <printf+0x9b8>
    1b27: a2 41        	ldx	#$41
    1b29: 86 12        	stx	$12                     ; 0x2012 <__memset+0xe>
    1b2b: 18           	clc
    1b2c: 98           	tya
    1b2d: 65 12        	adc	$12                     ; 0x2012 <__memset+0xe>
    1b2f: 18           	clc
    1b30: 69 f6        	adc	#$f6
    1b32: a4 73        	ldy	$73                     ; 0x2073 <__umodsi3+0x4a>
    1b34: a6 74        	ldx	$74                     ; 0x2074 <__umodsi3+0x4b>
    1b36: e4 72        	cpx	$72                     ; 0x2072 <__umodsi3+0x49>
    1b38: d0 0c        	bne	$1b46 <printf+0x9d5>
    1b3a: 86 14        	stx	$14                     ; 0x2014 <__memset+0x10>
    1b3c: a6 71        	ldx	$71                     ; 0x2071 <__umodsi3+0x48>
    1b3e: 86 12        	stx	$12                     ; 0x2012 <__memset+0xe>
    1b40: c4 12        	cpy	$12                     ; 0x2012 <__memset+0xe>
    1b42: 90 08        	bcc	$1b4c <printf+0x9db>
    1b44: 80 27        	bra	$1b6d <printf+0x9fc>
    1b46: 86 14        	stx	$14                     ; 0x2014 <__memset+0x10>
    1b48: e4 72        	cpx	$72                     ; 0x2072 <__umodsi3+0x49>
    1b4a: b0 21        	bcs	$1b6d <printf+0x9fc>
    1b4c: a6 7e        	ldx	$7e                     ; 0x207e <__umodsi3+0x55>
    1b4e: e4 43        	cpx	$43                     ; 0x2043 <__umodsi3+0x1a>
    1b50: d0 18        	bne	$1b6a <printf+0x9f9>
    1b52: a6 7d        	ldx	$7d                     ; 0x207d <__umodsi3+0x54>
    1b54: e4 42        	cpx	$42                     ; 0x2042 <__umodsi3+0x19>
    1b56: d0 12        	bne	$1b6a <printf+0x9f9>
    1b58: 18           	clc
    1b59: aa           	tax
    1b5a: 98           	tya
    1b5b: 65 77        	adc	$77                     ; 0x2077 <__umodsi3+0x4e>
    1b5d: 85 12        	sta	$12                     ; 0x2012 <__memset+0xe>
    1b5f: a5 14        	lda	$14                     ; 0x2014 <__memset+0x10>
    1b61: 65 78        	adc	$78                     ; 0x2078 <__umodsi3+0x4f>
    1b63: 85 13        	sta	$13                     ; 0x2013 <__memset+0xf>
    1b65: 8a           	txa
    1b66: 92 12        	sta	($12)                   ; 0x2012 <__memset+0xe>
    1b68: 80 03        	bra	$1b6d <printf+0x9fc>
    1b6a: 20 81 0f     	jsr	$f81 <__putchar>
    1b6d: e6 73        	inc	$73                     ; 0x2073 <__umodsi3+0x4a>
    1b6f: d0 02        	bne	$1b73 <printf+0xa02>
    1b71: e6 74        	inc	$74                     ; 0x2074 <__umodsi3+0x4b>
    1b73: c6 46        	dec	$46                     ; 0x2046 <__umodsi3+0x1d>
    1b75: a2 ff        	ldx	#$ff
    1b77: c6 3e        	dec	$3e                     ; 0x203e <__umodsi3+0x15>
    1b79: e4 3e        	cpx	$3e                     ; 0x203e <__umodsi3+0x15>
    1b7b: d0 02        	bne	$1b7f <printf+0xa0e>
    1b7d: c6 3f        	dec	$3f                     ; 0x203f <__umodsi3+0x16>
    1b7f: a5 46        	lda	$46                     ; 0x2046 <__umodsi3+0x1d>
    1b81: f0 0e        	beq	$1b91 <printf+0xa20>
    1b83: b2 3e        	lda	($3e)                   ; 0x203e <__umodsi3+0x15>
    1b85: c9 0a        	cmp	#$a
    1b87: 90 03        	bcc	$1b8c <printf+0xa1b>
    1b89: 4c 1c 1b     	jmp	$1b1c <printf+0x9ab>
    1b8c: 09 30        	ora	#$30
    1b8e: 4c 32 1b     	jmp	$1b32 <printf+0x9c1>
    1b91: a5 4c        	lda	$4c                     ; 0x204c <__umodsi3+0x23>
    1b93: c9 0a        	cmp	#$a
    1b95: b0 04        	bcs	$1b9b <printf+0xa2a>
    1b97: 09 30        	ora	#$30
    1b99: 80 16        	bra	$1bb1 <printf+0xa40>
    1b9b: a8           	tay
    1b9c: a9 80        	lda	#$80
    1b9e: 25 6f        	and	$6f                     ; 0x206f <__umodsi3+0x46>
    1ba0: f0 04        	beq	$1ba6 <printf+0xa35>
    1ba2: a2 61        	ldx	#$61
    1ba4: 80 02        	bra	$1ba8 <printf+0xa37>
    1ba6: a2 41        	ldx	#$41
    1ba8: 86 12        	stx	$12                     ; 0x2012 <__memset+0xe>
    1baa: 18           	clc
    1bab: 98           	tya
    1bac: 65 12        	adc	$12                     ; 0x2012 <__memset+0xe>
    1bae: 18           	clc
    1baf: 69 f6        	adc	#$f6
    1bb1: a4 73        	ldy	$73                     ; 0x2073 <__umodsi3+0x4a>
    1bb3: a6 74        	ldx	$74                     ; 0x2074 <__umodsi3+0x4b>
    1bb5: e4 72        	cpx	$72                     ; 0x2072 <__umodsi3+0x49>
    1bb7: d0 0c        	bne	$1bc5 <printf+0xa54>
    1bb9: 86 14        	stx	$14                     ; 0x2014 <__memset+0x10>
    1bbb: a6 71        	ldx	$71                     ; 0x2071 <__umodsi3+0x48>
    1bbd: 86 12        	stx	$12                     ; 0x2012 <__memset+0xe>
    1bbf: c4 12        	cpy	$12                     ; 0x2012 <__memset+0xe>
    1bc1: 90 08        	bcc	$1bcb <printf+0xa5a>
    1bc3: 80 27        	bra	$1bec <printf+0xa7b>
    1bc5: 86 14        	stx	$14                     ; 0x2014 <__memset+0x10>
    1bc7: e4 72        	cpx	$72                     ; 0x2072 <__umodsi3+0x49>
    1bc9: b0 21        	bcs	$1bec <printf+0xa7b>
    1bcb: a6 7e        	ldx	$7e                     ; 0x207e <__umodsi3+0x55>
    1bcd: e4 43        	cpx	$43                     ; 0x2043 <__umodsi3+0x1a>
    1bcf: d0 18        	bne	$1be9 <printf+0xa78>
    1bd1: a6 7d        	ldx	$7d                     ; 0x207d <__umodsi3+0x54>
    1bd3: e4 42        	cpx	$42                     ; 0x2042 <__umodsi3+0x19>
    1bd5: d0 12        	bne	$1be9 <printf+0xa78>
    1bd7: 18           	clc
    1bd8: aa           	tax
    1bd9: 98           	tya
    1bda: 65 77        	adc	$77                     ; 0x2077 <__umodsi3+0x4e>
    1bdc: 85 12        	sta	$12                     ; 0x2012 <__memset+0xe>
    1bde: a5 14        	lda	$14                     ; 0x2014 <__memset+0x10>
    1be0: 65 78        	adc	$78                     ; 0x2078 <__umodsi3+0x4f>
    1be2: 85 13        	sta	$13                     ; 0x2013 <__memset+0xf>
    1be4: 8a           	txa
    1be5: 92 12        	sta	($12)                   ; 0x2012 <__memset+0xe>
    1be7: 80 03        	bra	$1bec <printf+0xa7b>
    1be9: 20 81 0f     	jsr	$f81 <__putchar>
    1bec: e6 73        	inc	$73                     ; 0x2073 <__umodsi3+0x4a>
    1bee: d0 02        	bne	$1bf2 <printf+0xa81>
    1bf0: e6 74        	inc	$74                     ; 0x2074 <__umodsi3+0x4b>
    1bf2: a9 01        	lda	#$1
    1bf4: 25 6f        	and	$6f                     ; 0x206f <__umodsi3+0x46>
    1bf6: 29 01        	and	#$1
    1bf8: d0 1e        	bne	$1c18 <printf+0xaa7>
    1bfa: a6 73        	ldx	$73                     ; 0x2073 <__umodsi3+0x4a>
    1bfc: 86 14        	stx	$14                     ; 0x2014 <__memset+0x10>
    1bfe: a5 74        	lda	$74                     ; 0x2074 <__umodsi3+0x4b>
    1c00: a4 71        	ldy	$71                     ; 0x2071 <__umodsi3+0x48>
    1c02: a6 72        	ldx	$72                     ; 0x2072 <__umodsi3+0x49>
    1c04: 86 12        	stx	$12                     ; 0x2012 <__memset+0xe>
    1c06: 86 13        	stx	$13                     ; 0x2013 <__memset+0xf>
    1c08: c5 12        	cmp	$12                     ; 0x2012 <__memset+0xe>
    1c0a: f0 03        	beq	$1c0f <printf+0xa9e>
    1c0c: 4c 9b 1c     	jmp	$1c9b <printf+0xb2a>
    1c0f: 84 12        	sty	$12                     ; 0x2012 <__memset+0xe>
    1c11: a6 14        	ldx	$14                     ; 0x2014 <__memset+0x10>
    1c13: e4 12        	cpx	$12                     ; 0x2012 <__memset+0xe>
    1c15: 4c 9f 1c     	jmp	$1c9f <printf+0xb2e>
    1c18: a6 73        	ldx	$73                     ; 0x2073 <__umodsi3+0x4a>
    1c1a: 86 14        	stx	$14                     ; 0x2014 <__memset+0x10>
    1c1c: a5 74        	lda	$74                     ; 0x2074 <__umodsi3+0x4b>
    1c1e: a6 49        	ldx	$49                     ; 0x2049 <__umodsi3+0x20>
    1c20: a4 48        	ldy	$48                     ; 0x2048 <__umodsi3+0x1f>
    1c22: f0 03        	beq	$1c27 <printf+0xab6>
    1c24: 4c 87 1c     	jmp	$1c87 <printf+0xb16>
    1c27: e0 00        	cpx	#$0
    1c29: f0 d5        	beq	$1c00 <printf+0xa8f>
    1c2b: 4c 87 1c     	jmp	$1c87 <printf+0xb16>
    1c2e: c5 72        	cmp	$72                     ; 0x2072 <__umodsi3+0x49>
    1c30: b0 24        	bcs	$1c56 <printf+0xae5>
    1c32: a6 7e        	ldx	$7e                     ; 0x207e <__umodsi3+0x55>
    1c34: e4 43        	cpx	$43                     ; 0x2043 <__umodsi3+0x1a>
    1c36: d0 19        	bne	$1c51 <printf+0xae0>
    1c38: a6 7d        	ldx	$7d                     ; 0x207d <__umodsi3+0x54>
    1c3a: e4 42        	cpx	$42                     ; 0x2042 <__umodsi3+0x19>
    1c3c: d0 13        	bne	$1c51 <printf+0xae0>
    1c3e: 18           	clc
    1c3f: aa           	tax
    1c40: a5 14        	lda	$14                     ; 0x2014 <__memset+0x10>
    1c42: 65 77        	adc	$77                     ; 0x2077 <__umodsi3+0x4e>
    1c44: 85 12        	sta	$12                     ; 0x2012 <__memset+0xe>
    1c46: 8a           	txa
    1c47: 65 78        	adc	$78                     ; 0x2078 <__umodsi3+0x4f>
    1c49: 85 13        	sta	$13                     ; 0x2013 <__memset+0xf>
    1c4b: a9 20        	lda	#$20
    1c4d: 92 12        	sta	($12)                   ; 0x2012 <__memset+0xe>
    1c4f: 80 05        	bra	$1c56 <printf+0xae5>
    1c51: a9 20        	lda	#$20
    1c53: 20 81 0f     	jsr	$f81 <__putchar>
    1c56: a6 73        	ldx	$73                     ; 0x2073 <__umodsi3+0x4a>
    1c58: a5 74        	lda	$74                     ; 0x2074 <__umodsi3+0x4b>
    1c5a: e8           	inx
    1c5b: d0 01        	bne	$1c5e <printf+0xaed>
    1c5d: 1a           	inc
    1c5e: 86 14        	stx	$14                     ; 0x2014 <__memset+0x10>
    1c60: 86 73        	stx	$73                     ; 0x2073 <__umodsi3+0x4a>
    1c62: 85 74        	sta	$74                     ; 0x2074 <__umodsi3+0x4b>
    1c64: a6 49        	ldx	$49                     ; 0x2049 <__umodsi3+0x20>
    1c66: 86 12        	stx	$12                     ; 0x2012 <__memset+0xe>
    1c68: a6 48        	ldx	$48                     ; 0x2048 <__umodsi3+0x1f>
    1c6a: 86 13        	stx	$13                     ; 0x2013 <__memset+0xf>
    1c6c: a2 ff        	ldx	#$ff
    1c6e: c6 12        	dec	$12                     ; 0x2012 <__memset+0xe>
    1c70: e4 12        	cpx	$12                     ; 0x2012 <__memset+0xe>
    1c72: d0 02        	bne	$1c76 <printf+0xb05>
    1c74: c6 13        	dec	$13                     ; 0x2013 <__memset+0xf>
    1c76: a6 12        	ldx	$12                     ; 0x2012 <__memset+0xe>
    1c78: 86 49        	stx	$49                     ; 0x2049 <__umodsi3+0x20>
    1c7a: a6 13        	ldx	$13                     ; 0x2013 <__memset+0xf>
    1c7c: 86 48        	stx	$48                     ; 0x2048 <__umodsi3+0x1f>
    1c7e: d0 07        	bne	$1c87 <printf+0xb16>
    1c80: a6 12        	ldx	$12                     ; 0x2012 <__memset+0xe>
    1c82: d0 03        	bne	$1c87 <printf+0xb16>
    1c84: 4c 00 1c     	jmp	$1c00 <printf+0xa8f>
    1c87: c5 72        	cmp	$72                     ; 0x2072 <__umodsi3+0x49>
    1c89: f0 03        	beq	$1c8e <printf+0xb1d>
    1c8b: 4c 2e 1c     	jmp	$1c2e <printf+0xabd>
    1c8e: a6 71        	ldx	$71                     ; 0x2071 <__umodsi3+0x48>
    1c90: 86 12        	stx	$12                     ; 0x2012 <__memset+0xe>
    1c92: a6 14        	ldx	$14                     ; 0x2014 <__memset+0x10>
    1c94: e4 12        	cpx	$12                     ; 0x2012 <__memset+0xe>
    1c96: b0 be        	bcs	$1c56 <printf+0xae5>
    1c98: 4c 32 1c     	jmp	$1c32 <printf+0xac1>
    1c9b: 86 12        	stx	$12                     ; 0x2012 <__memset+0xe>
    1c9d: c5 12        	cmp	$12                     ; 0x2012 <__memset+0xe>
    1c9f: 98           	tya
    1ca0: a0 01        	ldy	#$1
    1ca2: 90 20        	bcc	$1cc4 <printf+0xb53>
    1ca4: a6 13        	ldx	$13                     ; 0x2013 <__memset+0xf>
    1ca6: d0 03        	bne	$1cab <printf+0xb3a>
    1ca8: aa           	tax
    1ca9: f0 19        	beq	$1cc4 <printf+0xb53>
    1cab: 18           	clc
    1cac: 65 77        	adc	$77                     ; 0x2077 <__umodsi3+0x4e>
    1cae: 85 12        	sta	$12                     ; 0x2012 <__memset+0xe>
    1cb0: a5 13        	lda	$13                     ; 0x2013 <__memset+0xf>
    1cb2: 65 78        	adc	$78                     ; 0x2078 <__umodsi3+0x4f>
    1cb4: 85 13        	sta	$13                     ; 0x2013 <__memset+0xf>
    1cb6: a2 ff        	ldx	#$ff
    1cb8: c6 12        	dec	$12                     ; 0x2012 <__memset+0xe>
    1cba: e4 12        	cpx	$12                     ; 0x2012 <__memset+0xe>
    1cbc: d0 02        	bne	$1cc0 <printf+0xb4f>
    1cbe: c6 13        	dec	$13                     ; 0x2013 <__memset+0xf>
    1cc0: a9 00        	lda	#$0
    1cc2: 92 12        	sta	($12)                   ; 0x2012 <__memset+0xe>
    1cc4: e6 40        	inc	$40                     ; 0x2040 <__umodsi3+0x17>
    1cc6: d0 02        	bne	$1cca <printf+0xb59>
    1cc8: e6 41        	inc	$41                     ; 0x2041 <__umodsi3+0x18>
    1cca: a6 41        	ldx	$41                     ; 0x2041 <__umodsi3+0x18>
    1ccc: e4 45        	cpx	$45                     ; 0x2045 <__umodsi3+0x1c>
    1cce: f0 03        	beq	$1cd3 <printf+0xb62>
    1cd0: 4c d6 11     	jmp	$11d6 <printf+0x65>
    1cd3: a6 40        	ldx	$40                     ; 0x2040 <__umodsi3+0x17>
    1cd5: e4 44        	cpx	$44                     ; 0x2044 <__umodsi3+0x1b>
    1cd7: f0 03        	beq	$1cdc <printf+0xb6b>
    1cd9: 4c d6 11     	jmp	$11d6 <printf+0x65>
    1cdc: b2 44        	lda	($44)                   ; 0x2044 <__umodsi3+0x1b>
    1cde: a2 00        	ldx	#$0
    1ce0: 86 42        	stx	$42                     ; 0x2042 <__umodsi3+0x19>
    1ce2: a2 00        	ldx	#$0
    1ce4: 86 43        	stx	$43                     ; 0x2043 <__umodsi3+0x1a>
    1ce6: 4c ea 11     	jmp	$11ea <printf+0x79>
    1ce9: e4 47        	cpx	$47                     ; 0x2047 <__umodsi3+0x1e>
    1ceb: a6 3f        	ldx	$3f                     ; 0x203f <__umodsi3+0x16>
    1ced: b0 03        	bcs	$1cf2 <printf+0xb81>
    1cef: 4c 16 18     	jmp	$1816 <printf+0x6a5>
    1cf2: a5 3e        	lda	$3e                     ; 0x203e <__umodsi3+0x15>
    1cf4: 85 46        	sta	$46                     ; 0x2046 <__umodsi3+0x1d>
    1cf6: 64 47        	stz	$47                     ; 0x2047 <__umodsi3+0x1e>
    1cf8: e6 46        	inc	$46                     ; 0x2046 <__umodsi3+0x1d>
    1cfa: f0 03        	beq	$1cff <printf+0xb8e>
    1cfc: 4c 16 18     	jmp	$1816 <printf+0x6a5>
    1cff: e6 47        	inc	$47                     ; 0x2047 <__umodsi3+0x1e>
    1d01: 4c 16 18     	jmp	$1816 <printf+0x6a5>
    1d04: a2 58        	ldx	#$58
    1d06: 86 88        	stx	$88                     ; 0x2088 <__umodsi3+0x5f>
    1d08: a2 01        	ldx	#$1
    1d0a: 86 83        	stx	$83                     ; 0x2083 <__umodsi3+0x5a>
    1d0c: a2 30        	ldx	#$30
    1d0e: 86 85        	stx	$85                     ; 0x2085 <__umodsi3+0x5c>
    1d10: a9 02        	lda	#$2
    1d12: a2 00        	ldx	#$0
    1d14: 86 84        	stx	$84                     ; 0x2084 <__umodsi3+0x5b>
    1d16: 4c 57 18     	jmp	$1857 <printf+0x6e6>
    1d19: 64 49        	stz	$49                     ; 0x2049 <__umodsi3+0x20>
    1d1b: 64 48        	stz	$48                     ; 0x2048 <__umodsi3+0x1f>
    1d1d: 4c 7b 1a     	jmp	$1a7b <printf+0x90a>
    1d20: 60           	rts

00001d21 <malloc>:
    1d21: a8           	tay
    1d22: 8a           	txa
    1d23: a2 00        	ldx	#$0
    1d25: 86 12        	stx	$12                     ; 0x2012 <__memset+0xe>
    1d27: a2 00        	ldx	#$0
    1d29: 86 13        	stx	$13                     ; 0x2013 <__memset+0xf>
    1d2b: aa           	tax
    1d2c: d0 07        	bne	$1d35 <malloc+0x14>
    1d2e: c0 00        	cpy	#$0
    1d30: d0 03        	bne	$1d35 <malloc+0x14>
    1d32: 4c 31 1e     	jmp	$1e31 <malloc+0x110>
    1d35: 84 16        	sty	$16                     ; 0x2016 <__memset+0x12>
    1d37: aa           	tax
    1d38: d0 0e        	bne	$1d48 <malloc+0x27>
    1d3a: a6 16        	ldx	$16                     ; 0x2016 <__memset+0x12>
    1d3c: e0 07        	cpx	#$7
    1d3e: b0 0c        	bcs	$1d4c <malloc+0x2b>
    1d40: a2 08        	ldx	#$8
    1d42: 86 3e        	stx	$3e                     ; 0x203e <__umodsi3+0x15>
    1d44: a9 00        	lda	#$0
    1d46: 80 2f        	bra	$1d77 <malloc+0x56>
    1d48: c9 00        	cmp	#$0
    1d4a: 90 f4        	bcc	$1d40 <malloc+0x1f>
    1d4c: a8           	tay
    1d4d: a5 16        	lda	$16                     ; 0x2016 <__memset+0x12>
    1d4f: 29 01        	and	#$1
    1d51: a2 02        	ldx	#$2
    1d53: 64 14        	stz	$14                     ; 0x2014 <__memset+0x10>
    1d55: c9 00        	cmp	#$0
    1d57: f0 02        	beq	$1d5b <malloc+0x3a>
    1d59: a2 03        	ldx	#$3
    1d5b: 86 15        	stx	$15                     ; 0x2015 <__memset+0x11>
    1d5d: 18           	clc
    1d5e: a5 16        	lda	$16                     ; 0x2016 <__memset+0x12>
    1d60: 65 15        	adc	$15                     ; 0x2015 <__memset+0x11>
    1d62: aa           	tax
    1d63: 98           	tya
    1d64: 65 14        	adc	$14                     ; 0x2014 <__memset+0x10>
    1d66: 90 03        	bcc	$1d6b <malloc+0x4a>
    1d68: 4c 31 1e     	jmp	$1e31 <malloc+0x110>
    1d6b: 86 3e        	stx	$3e                     ; 0x203e <__umodsi3+0x15>
    1d6d: a8           	tay
    1d6e: d0 07        	bne	$1d77 <malloc+0x56>
    1d70: e0 00        	cpx	#$0
    1d72: d0 03        	bne	$1d77 <malloc+0x56>
    1d74: 4c 31 1e     	jmp	$1e31 <malloc+0x110>
    1d77: 85 3f        	sta	$3f                     ; 0x203f <__umodsi3+0x16>
    1d79: ad d5 22     	lda	$22d5                   ; 0x22d5 <_ZN12_GLOBAL__N_111initializedE>
    1d7c: 29 01        	and	#$1
    1d7e: d0 2a        	bne	$1daa <malloc+0x89>
    1d80: a9 00        	lda	#$0
    1d82: a2 10        	ldx	#$10
    1d84: a0 da        	ldy	#$da
    1d86: 84 12        	sty	$12                     ; 0x2012 <__memset+0xe>
    1d88: a0 22        	ldy	#$22
    1d8a: 84 13        	sty	$13                     ; 0x2013 <__memset+0xf>
    1d8c: 20 16 03     	jsr	$316 <_ZN12_GLOBAL__N_19FreeChunk6insertEPvj>
    1d8f: a2 00        	ldx	#$0
    1d91: 86 12        	stx	$12                     ; 0x2012 <__memset+0xe>
    1d93: a2 00        	ldx	#$0
    1d95: 86 13        	stx	$13                     ; 0x2013 <__memset+0xf>
    1d97: ae db 22     	ldx	$22db                   ; 0x22db <end_block9+0x1>
    1d9a: a9 fe        	lda	#$fe
    1d9c: 2d da 22     	and	$22da                   ; 0x22da <end_block9>
    1d9f: 8d da 22     	sta	$22da                   ; 0x22da <end_block9>
    1da2: 8e db 22     	stx	$22db                   ; 0x22db <end_block9+0x1>
    1da5: a2 01        	ldx	#$1
    1da7: 8e d5 22     	stx	$22d5                   ; 0x22d5 <_ZN12_GLOBAL__N_111initializedE>
    1daa: ad d8 22     	lda	$22d8                   ; 0x22d8 <_ZN12_GLOBAL__N_19free_listE>
    1dad: ae d9 22     	ldx	$22d9                   ; 0x22d9 <_ZN12_GLOBAL__N_19free_listE+0x1>
    1db0: a0 00        	ldy	#$0
    1db2: 84 14        	sty	$14                     ; 0x2014 <__memset+0x10>
    1db4: a0 00        	ldy	#$0
    1db6: 84 15        	sty	$15                     ; 0x2015 <__memset+0x11>
    1db8: 86 1d        	stx	$1d                     ; 0x201d <__memset+0x19>
    1dba: e4 15        	cpx	$15                     ; 0x2015 <__memset+0x11>
    1dbc: d0 07        	bne	$1dc5 <malloc+0xa4>
    1dbe: c5 14        	cmp	$14                     ; 0x2014 <__memset+0x10>
    1dc0: d0 03        	bne	$1dc5 <malloc+0xa4>
    1dc2: 4c 31 1e     	jmp	$1e31 <malloc+0x110>
    1dc5: a0 00        	ldy	#$0
    1dc7: a2 10        	ldx	#$10
    1dc9: 85 18        	sta	$18                     ; 0x2018 <__memset+0x14>
    1dcb: 84 14        	sty	$14                     ; 0x2014 <__memset+0x10>
    1dcd: 86 15        	stx	$15                     ; 0x2015 <__memset+0x11>
    1dcf: 18           	clc
    1dd0: a9 da        	lda	#$da
    1dd2: 65 14        	adc	$14                     ; 0x2014 <__memset+0x10>
    1dd4: 85 14        	sta	$14                     ; 0x2014 <__memset+0x10>
    1dd6: a9 22        	lda	#$22
    1dd8: 65 15        	adc	$15                     ; 0x2015 <__memset+0x11>
    1dda: a6 14        	ldx	$14                     ; 0x2014 <__memset+0x10>
    1ddc: 86 40        	stx	$40                     ; 0x2040 <__umodsi3+0x17>
    1dde: 85 17        	sta	$17                     ; 0x2017 <__memset+0x13>
    1de0: a6 18        	ldx	$18                     ; 0x2018 <__memset+0x14>
    1de2: 86 1c        	stx	$1c                     ; 0x201c <__memset+0x18>
    1de4: a6 18        	ldx	$18                     ; 0x2018 <__memset+0x14>
    1de6: 86 14        	stx	$14                     ; 0x2014 <__memset+0x10>
    1de8: a6 1d        	ldx	$1d                     ; 0x201d <__memset+0x19>
    1dea: 86 15        	stx	$15                     ; 0x2015 <__memset+0x11>
    1dec: a0 01        	ldy	#$1
    1dee: a6 3f        	ldx	$3f                     ; 0x203f <__umodsi3+0x16>
    1df0: 86 18        	stx	$18                     ; 0x2018 <__memset+0x14>
    1df2: b1 14        	lda	($14),y                 ; 0x2014 <__memset+0x10>
    1df4: 85 19        	sta	$19                     ; 0x2019 <__memset+0x15>
    1df6: aa           	tax
    1df7: a9 fe        	lda	#$fe
    1df9: 32 14        	and	($14)                   ; 0x2014 <__memset+0x10>
    1dfb: 85 1a        	sta	$1a                     ; 0x201a <__memset+0x16>
    1dfd: e4 18        	cpx	$18                     ; 0x2018 <__memset+0x14>
    1dff: d0 0a        	bne	$1e0b <malloc+0xea>
    1e01: a6 3e        	ldx	$3e                     ; 0x203e <__umodsi3+0x15>
    1e03: 86 1b        	stx	$1b                     ; 0x201b <__memset+0x17>
    1e05: c5 1b        	cmp	$1b                     ; 0x201b <__memset+0x17>
    1e07: b0 29        	bcs	$1e32 <malloc+0x111>
    1e09: 80 04        	bra	$1e0f <malloc+0xee>
    1e0b: e4 18        	cpx	$18                     ; 0x2018 <__memset+0x14>
    1e0d: b0 23        	bcs	$1e32 <malloc+0x111>
    1e0f: a5 14        	lda	$14                     ; 0x2014 <__memset+0x10>
    1e11: 18           	clc
    1e12: 69 02        	adc	#$2
    1e14: 85 1a        	sta	$1a                     ; 0x201a <__memset+0x16>
    1e16: a5 15        	lda	$15                     ; 0x2015 <__memset+0x11>
    1e18: 69 00        	adc	#$0
    1e1a: 85 1b        	sta	$1b                     ; 0x201b <__memset+0x17>
    1e1c: a0 02        	ldy	#$2
    1e1e: b1 14        	lda	($14),y                 ; 0x2014 <__memset+0x10>
    1e20: 85 14        	sta	$14                     ; 0x2014 <__memset+0x10>
    1e22: 88           	dey
    1e23: b1 1a        	lda	($1a),y                 ; 0x201a <__memset+0x16>
    1e25: 85 15        	sta	$15                     ; 0x2015 <__memset+0x11>
    1e27: c5 1d        	cmp	$1d                     ; 0x201d <__memset+0x19>
    1e29: d0 c7        	bne	$1df2 <malloc+0xd1>
    1e2b: a5 14        	lda	$14                     ; 0x2014 <__memset+0x10>
    1e2d: c5 1c        	cmp	$1c                     ; 0x201c <__memset+0x18>
    1e2f: d0 c1        	bne	$1df2 <malloc+0xd1>
    1e31: 60           	rts
    1e32: ad d6 22     	lda	$22d6                   ; 0x22d6 <_ZN12_GLOBAL__N_19free_sizeE>
    1e35: ae d7 22     	ldx	$22d7                   ; 0x22d7 <_ZN12_GLOBAL__N_19free_sizeE+0x1>
    1e38: 86 12        	stx	$12                     ; 0x2012 <__memset+0xe>
    1e3a: 38           	sec
    1e3b: e5 1a        	sbc	$1a                     ; 0x201a <__memset+0x16>
    1e3d: aa           	tax
    1e3e: a5 12        	lda	$12                     ; 0x2012 <__memset+0xe>
    1e40: e5 19        	sbc	$19                     ; 0x2019 <__memset+0x15>
    1e42: 85 12        	sta	$12                     ; 0x2012 <__memset+0xe>
    1e44: 18           	clc
    1e45: 8a           	txa
    1e46: 69 02        	adc	#$2
    1e48: 85 13        	sta	$13                     ; 0x2013 <__memset+0xf>
    1e4a: a5 12        	lda	$12                     ; 0x2012 <__memset+0xe>
    1e4c: 69 00        	adc	#$0
    1e4e: a6 13        	ldx	$13                     ; 0x2013 <__memset+0xf>
    1e50: 8e d6 22     	stx	$22d6                   ; 0x22d6 <_ZN12_GLOBAL__N_19free_sizeE>
    1e53: 8d d7 22     	sta	$22d7                   ; 0x22d7 <_ZN12_GLOBAL__N_19free_sizeE+0x1>
    1e56: a0 02        	ldy	#$2
    1e58: a5 14        	lda	$14                     ; 0x2014 <__memset+0x10>
    1e5a: 18           	clc
    1e5b: 69 02        	adc	#$2
    1e5d: 85 12        	sta	$12                     ; 0x2012 <__memset+0xe>
    1e5f: a5 15        	lda	$15                     ; 0x2015 <__memset+0x11>
    1e61: 69 00        	adc	#$0
    1e63: 85 13        	sta	$13                     ; 0x2013 <__memset+0xf>
    1e65: b1 14        	lda	($14),y                 ; 0x2014 <__memset+0x10>
    1e67: 85 1e        	sta	$1e                     ; 0x201e <__memset+0x1a>
    1e69: 88           	dey
    1e6a: b1 12        	lda	($12),y                 ; 0x2012 <__memset+0xe>
    1e6c: 85 1f        	sta	$1f                     ; 0x201f <__memset+0x1b>
    1e6e: c5 15        	cmp	$15                     ; 0x2015 <__memset+0x11>
    1e70: d0 15        	bne	$1e87 <malloc+0x166>
    1e72: a5 3f        	lda	$3f                     ; 0x203f <__umodsi3+0x16>
    1e74: a6 1e        	ldx	$1e                     ; 0x201e <__memset+0x1a>
    1e76: e4 14        	cpx	$14                     ; 0x2014 <__memset+0x10>
    1e78: d0 0d        	bne	$1e87 <malloc+0x166>
    1e7a: 85 1a        	sta	$1a                     ; 0x201a <__memset+0x16>
    1e7c: a2 00        	ldx	#$0
    1e7e: 86 18        	stx	$18                     ; 0x2018 <__memset+0x14>
    1e80: a2 00        	ldx	#$0
    1e82: 86 19        	stx	$19                     ; 0x2019 <__memset+0x15>
    1e84: 4c 01 1f     	jmp	$1f01 <malloc+0x1e0>
    1e87: 18           	clc
    1e88: a5 14        	lda	$14                     ; 0x2014 <__memset+0x10>
    1e8a: 69 04        	adc	#$4
    1e8c: 85 18        	sta	$18                     ; 0x2018 <__memset+0x14>
    1e8e: a5 15        	lda	$15                     ; 0x2015 <__memset+0x11>
    1e90: 69 00        	adc	#$0
    1e92: 85 19        	sta	$19                     ; 0x2019 <__memset+0x15>
    1e94: a0 04        	ldy	#$4
    1e96: b1 14        	lda	($14),y                 ; 0x2014 <__memset+0x10>
    1e98: 85 23        	sta	$23                     ; 0x2023 <__memset+0x1f>
    1e9a: 18           	clc
    1e9b: 69 02        	adc	#$2
    1e9d: 85 1a        	sta	$1a                     ; 0x201a <__memset+0x16>
    1e9f: a0 01        	ldy	#$1
    1ea1: b1 18        	lda	($18),y                 ; 0x2018 <__memset+0x14>
    1ea3: 85 22        	sta	$22                     ; 0x2022 <__memset+0x1e>
    1ea5: 69 00        	adc	#$0
    1ea7: a6 1a        	ldx	$1a                     ; 0x201a <__memset+0x16>
    1ea9: 86 18        	stx	$18                     ; 0x2018 <__memset+0x14>
    1eab: 85 19        	sta	$19                     ; 0x2019 <__memset+0x15>
    1ead: a6 23        	ldx	$23                     ; 0x2023 <__memset+0x1f>
    1eaf: 86 1a        	stx	$1a                     ; 0x201a <__memset+0x16>
    1eb1: a6 22        	ldx	$22                     ; 0x2022 <__memset+0x1e>
    1eb3: 86 1b        	stx	$1b                     ; 0x201b <__memset+0x17>
    1eb5: c8           	iny
    1eb6: a5 1e        	lda	$1e                     ; 0x201e <__memset+0x1a>
    1eb8: 91 1a        	sta	($1a),y                 ; 0x201a <__memset+0x16>
    1eba: a5 1f        	lda	$1f                     ; 0x201f <__memset+0x1b>
    1ebc: 88           	dey
    1ebd: 91 18        	sta	($18),y                 ; 0x2018 <__memset+0x14>
    1ebf: 18           	clc
    1ec0: a5 14        	lda	$14                     ; 0x2014 <__memset+0x10>
    1ec2: 69 02        	adc	#$2
    1ec4: 85 1a        	sta	$1a                     ; 0x201a <__memset+0x16>
    1ec6: a5 15        	lda	$15                     ; 0x2015 <__memset+0x11>
    1ec8: 69 00        	adc	#$0
    1eca: 85 1b        	sta	$1b                     ; 0x201b <__memset+0x17>
    1ecc: c8           	iny
    1ecd: b1 14        	lda	($14),y                 ; 0x2014 <__memset+0x10>
    1ecf: 85 18        	sta	$18                     ; 0x2018 <__memset+0x14>
    1ed1: aa           	tax
    1ed2: 88           	dey
    1ed3: b1 1a        	lda	($1a),y                 ; 0x201a <__memset+0x16>
    1ed5: 85 19        	sta	$19                     ; 0x2019 <__memset+0x15>
    1ed7: 85 16        	sta	$16                     ; 0x2016 <__memset+0x12>
    1ed9: a0 04        	ldy	#$4
    1edb: a5 23        	lda	$23                     ; 0x2023 <__memset+0x1f>
    1edd: 91 18        	sta	($18),y                 ; 0x2018 <__memset+0x14>
    1edf: 18           	clc
    1ee0: 8a           	txa
    1ee1: 69 04        	adc	#$4
    1ee3: 85 1a        	sta	$1a                     ; 0x201a <__memset+0x16>
    1ee5: a5 16        	lda	$16                     ; 0x2016 <__memset+0x12>
    1ee7: 69 00        	adc	#$0
    1ee9: 85 1b        	sta	$1b                     ; 0x201b <__memset+0x17>
    1eeb: a5 22        	lda	$22                     ; 0x2022 <__memset+0x1e>
    1eed: a0 01        	ldy	#$1
    1eef: 91 1a        	sta	($1a),y                 ; 0x201a <__memset+0x16>
    1ef1: a5 3f        	lda	$3f                     ; 0x203f <__umodsi3+0x16>
    1ef3: 85 1a        	sta	$1a                     ; 0x201a <__memset+0x16>
    1ef5: a6 1d        	ldx	$1d                     ; 0x201d <__memset+0x19>
    1ef7: e4 15        	cpx	$15                     ; 0x2015 <__memset+0x11>
    1ef9: d0 10        	bne	$1f0b <malloc+0x1ea>
    1efb: a6 1c        	ldx	$1c                     ; 0x201c <__memset+0x18>
    1efd: e4 14        	cpx	$14                     ; 0x2014 <__memset+0x10>
    1eff: d0 0a        	bne	$1f0b <malloc+0x1ea>
    1f01: a6 18        	ldx	$18                     ; 0x2018 <__memset+0x14>
    1f03: a4 19        	ldy	$19                     ; 0x2019 <__memset+0x15>
    1f05: 8e d8 22     	stx	$22d8                   ; 0x22d8 <_ZN12_GLOBAL__N_19free_listE>
    1f08: 8c d9 22     	sty	$22d9                   ; 0x22d9 <_ZN12_GLOBAL__N_19free_listE+0x1>
    1f0b: a0 01        	ldy	#$1
    1f0d: b1 14        	lda	($14),y                 ; 0x2014 <__memset+0x10>
    1f0f: 85 16        	sta	$16                     ; 0x2016 <__memset+0x12>
    1f11: a9 fe        	lda	#$fe
    1f13: 32 14        	and	($14)                   ; 0x2014 <__memset+0x10>
    1f15: 38           	sec
    1f16: a6 3e        	ldx	$3e                     ; 0x203e <__umodsi3+0x15>
    1f18: 86 18        	stx	$18                     ; 0x2018 <__memset+0x14>
    1f1a: a8           	tay
    1f1b: e5 18        	sbc	$18                     ; 0x2018 <__memset+0x14>
    1f1d: 85 19        	sta	$19                     ; 0x2019 <__memset+0x15>
    1f1f: a5 16        	lda	$16                     ; 0x2016 <__memset+0x12>
    1f21: a6 16        	ldx	$16                     ; 0x2016 <__memset+0x12>
    1f23: e5 1a        	sbc	$1a                     ; 0x201a <__memset+0x16>
    1f25: f0 03        	beq	$1f2a <malloc+0x209>
    1f27: 4c b6 1f     	jmp	$1fb6 <malloc+0x295>
    1f2a: 85 16        	sta	$16                     ; 0x2016 <__memset+0x12>
    1f2c: a5 19        	lda	$19                     ; 0x2019 <__memset+0x15>
    1f2e: c9 08        	cmp	#$8
    1f30: 86 18        	stx	$18                     ; 0x2018 <__memset+0x14>
    1f32: b0 03        	bcs	$1f37 <malloc+0x216>
    1f34: 4c 99 1f     	jmp	$1f99 <malloc+0x278>
    1f37: a6 17        	ldx	$17                     ; 0x2017 <__memset+0x13>
    1f39: 86 45        	stx	$45                     ; 0x2045 <__umodsi3+0x1c>
    1f3b: a6 40        	ldx	$40                     ; 0x2040 <__umodsi3+0x17>
    1f3d: 86 40        	stx	$40                     ; 0x2040 <__umodsi3+0x17>
    1f3f: a6 12        	ldx	$12                     ; 0x2012 <__memset+0xe>
    1f41: 86 41        	stx	$41                     ; 0x2041 <__umodsi3+0x18>
    1f43: a6 13        	ldx	$13                     ; 0x2013 <__memset+0xf>
    1f45: 86 42        	stx	$42                     ; 0x2042 <__umodsi3+0x19>
    1f47: a8           	tay
    1f48: 18           	clc
    1f49: a6 3e        	ldx	$3e                     ; 0x203e <__umodsi3+0x15>
    1f4b: 86 3e        	stx	$3e                     ; 0x203e <__umodsi3+0x15>
    1f4d: 8a           	txa
    1f4e: 65 14        	adc	$14                     ; 0x2014 <__memset+0x10>
    1f50: 85 12        	sta	$12                     ; 0x2012 <__memset+0xe>
    1f52: a5 1a        	lda	$1a                     ; 0x201a <__memset+0x16>
    1f54: a6 1a        	ldx	$1a                     ; 0x201a <__memset+0x16>
    1f56: 86 3f        	stx	$3f                     ; 0x203f <__umodsi3+0x16>
    1f58: 65 15        	adc	$15                     ; 0x2015 <__memset+0x11>
    1f5a: 85 13        	sta	$13                     ; 0x2013 <__memset+0xf>
    1f5c: a6 16        	ldx	$16                     ; 0x2016 <__memset+0x12>
    1f5e: 98           	tya
    1f5f: a4 14        	ldy	$14                     ; 0x2014 <__memset+0x10>
    1f61: 84 43        	sty	$43                     ; 0x2043 <__umodsi3+0x1a>
    1f63: a4 15        	ldy	$15                     ; 0x2015 <__memset+0x11>
    1f65: 84 44        	sty	$44                     ; 0x2044 <__umodsi3+0x1b>
    1f67: 20 16 03     	jsr	$316 <_ZN12_GLOBAL__N_19FreeChunk6insertEPvj>
    1f6a: a6 43        	ldx	$43                     ; 0x2043 <__umodsi3+0x1a>
    1f6c: 86 14        	stx	$14                     ; 0x2014 <__memset+0x10>
    1f6e: a6 44        	ldx	$44                     ; 0x2044 <__umodsi3+0x1b>
    1f70: 86 15        	stx	$15                     ; 0x2015 <__memset+0x11>
    1f72: a5 3e        	lda	$3e                     ; 0x203e <__umodsi3+0x15>
    1f74: 29 fe        	and	#$fe
    1f76: 85 12        	sta	$12                     ; 0x2012 <__memset+0xe>
    1f78: a0 01        	ldy	#$1
    1f7a: 98           	tya
    1f7b: 32 14        	and	($14)                   ; 0x2014 <__memset+0x10>
    1f7d: 05 12        	ora	$12                     ; 0x2012 <__memset+0xe>
    1f7f: 92 14        	sta	($14)                   ; 0x2014 <__memset+0x10>
    1f81: a5 3f        	lda	$3f                     ; 0x203f <__umodsi3+0x16>
    1f83: 91 14        	sta	($14),y                 ; 0x2014 <__memset+0x10>
    1f85: a4 12        	ldy	$12                     ; 0x2012 <__memset+0xe>
    1f87: 85 18        	sta	$18                     ; 0x2018 <__memset+0x14>
    1f89: a6 41        	ldx	$41                     ; 0x2041 <__umodsi3+0x18>
    1f8b: 86 12        	stx	$12                     ; 0x2012 <__memset+0xe>
    1f8d: a6 42        	ldx	$42                     ; 0x2042 <__umodsi3+0x19>
    1f8f: 86 13        	stx	$13                     ; 0x2013 <__memset+0xf>
    1f91: a6 40        	ldx	$40                     ; 0x2040 <__umodsi3+0x17>
    1f93: 86 40        	stx	$40                     ; 0x2040 <__umodsi3+0x17>
    1f95: a6 45        	ldx	$45                     ; 0x2045 <__umodsi3+0x1c>
    1f97: 86 17        	stx	$17                     ; 0x2017 <__memset+0x13>
    1f99: 18           	clc
    1f9a: 98           	tya
    1f9b: 65 14        	adc	$14                     ; 0x2014 <__memset+0x10>
    1f9d: 85 16        	sta	$16                     ; 0x2016 <__memset+0x12>
    1f9f: a5 15        	lda	$15                     ; 0x2015 <__memset+0x11>
    1fa1: 65 18        	adc	$18                     ; 0x2018 <__memset+0x14>
    1fa3: 85 15        	sta	$15                     ; 0x2015 <__memset+0x11>
    1fa5: c5 17        	cmp	$17                     ; 0x2017 <__memset+0x13>
    1fa7: d0 1a        	bne	$1fc3 <malloc+0x2a2>
    1fa9: a6 40        	ldx	$40                     ; 0x2040 <__umodsi3+0x17>
    1fab: 86 14        	stx	$14                     ; 0x2014 <__memset+0x10>
    1fad: a6 16        	ldx	$16                     ; 0x2016 <__memset+0x12>
    1faf: e4 14        	cpx	$14                     ; 0x2014 <__memset+0x10>
    1fb1: d0 12        	bne	$1fc5 <malloc+0x2a4>
    1fb3: 4c 31 1e     	jmp	$1e31 <malloc+0x110>
    1fb6: 85 16        	sta	$16                     ; 0x2016 <__memset+0x12>
    1fb8: c9 00        	cmp	#$0
    1fba: 86 18        	stx	$18                     ; 0x2018 <__memset+0x14>
    1fbc: a5 19        	lda	$19                     ; 0x2019 <__memset+0x15>
    1fbe: 90 d9        	bcc	$1f99 <malloc+0x278>
    1fc0: 4c 37 1f     	jmp	$1f37 <malloc+0x216>
    1fc3: a6 16        	ldx	$16                     ; 0x2016 <__memset+0x12>
    1fc5: 86 14        	stx	$14                     ; 0x2014 <__memset+0x10>
    1fc7: a0 01        	ldy	#$1
    1fc9: b1 14        	lda	($14),y                 ; 0x2014 <__memset+0x10>
    1fcb: 85 16        	sta	$16                     ; 0x2016 <__memset+0x12>
    1fcd: a9 fe        	lda	#$fe
    1fcf: 32 14        	and	($14)                   ; 0x2014 <__memset+0x10>
    1fd1: 92 14        	sta	($14)                   ; 0x2014 <__memset+0x10>
    1fd3: a5 16        	lda	$16                     ; 0x2016 <__memset+0x12>
    1fd5: 91 14        	sta	($14),y                 ; 0x2014 <__memset+0x10>
    1fd7: 60           	rts

00001fd8 <memcpy>:
    1fd8: a8           	tay
    1fd9: 8a           	txa
    1fda: d0 03        	bne	$1fdf <memcpy+0x7>
    1fdc: 98           	tya
    1fdd: f0 24        	beq	$2003 <memcpy+0x2b>
    1fdf: a5 12        	lda	$12                     ; 0x2012 <__memset+0xe>
    1fe1: 85 16        	sta	$16                     ; 0x2016 <__memset+0x12>
    1fe3: a5 13        	lda	$13                     ; 0x2013 <__memset+0xf>
    1fe5: 85 17        	sta	$17                     ; 0x2017 <__memset+0x13>
    1fe7: b2 14        	lda	($14)                   ; 0x2014 <__memset+0x10>
    1fe9: 92 16        	sta	($16)                   ; 0x2016 <__memset+0x12>
    1feb: e6 16        	inc	$16                     ; 0x2016 <__memset+0x12>
    1fed: d0 02        	bne	$1ff1 <memcpy+0x19>
    1fef: e6 17        	inc	$17                     ; 0x2017 <__memset+0x13>
    1ff1: e6 14        	inc	$14                     ; 0x2014 <__memset+0x10>
    1ff3: d0 02        	bne	$1ff7 <memcpy+0x1f>
    1ff5: e6 15        	inc	$15                     ; 0x2015 <__memset+0x11>
    1ff7: 88           	dey
    1ff8: c0 ff        	cpy	#$ff
    1ffa: d0 01        	bne	$1ffd <memcpy+0x25>
    1ffc: ca           	dex
    1ffd: 8a           	txa
    1ffe: d0 e7        	bne	$1fe7 <memcpy+0xf>
    2000: 98           	tya
    2001: d0 e4        	bne	$1fe7 <memcpy+0xf>
    2003: 60           	rts

00002004 <__memset>:
    2004: a4 14        	ldy	$14                     ; 0x2014 <__memset+0x10>
    2006: d0 04        	bne	$200c <__memset+0x8>
    2008: e0 00        	cpx	#$0
    200a: f0 17        	beq	$2023 <__memset+0x1f>
    200c: 92 12        	sta	($12)                   ; 0x2012 <__memset+0xe>
    200e: e6 12        	inc	$12                     ; 0x2012 <__memset+0xe>
    2010: d0 02        	bne	$2014 <__memset+0x10>
    2012: e6 13        	inc	$13                     ; 0x2013 <__memset+0xf>
    2014: ca           	dex
    2015: e0 ff        	cpx	#$ff
    2017: d0 02        	bne	$201b <__memset+0x17>
    2019: c6 14        	dec	$14                     ; 0x2014 <__memset+0x10>
    201b: a4 14        	ldy	$14                     ; 0x2014 <__memset+0x10>
    201d: d0 ed        	bne	$200c <__memset+0x8>
    201f: e0 00        	cpx	#$0
    2021: d0 e9        	bne	$200c <__memset+0x8>
    2023: 60           	rts

00002024 <strlen>:
    2024: a9 0a        	lda	#$a
    2026: a2 00        	ldx	#$0
    2028: 60           	rts

00002029 <__umodsi3>:
    2029: 85 1c        	sta	$1c                     ; 0x201c <__memset+0x18>
    202b: 86 1a        	stx	$1a                     ; 0x201a <__memset+0x16>
    202d: a5 13        	lda	$13                     ; 0x2013 <__memset+0xf>
    202f: a6 17        	ldx	$17                     ; 0x2017 <__memset+0x13>
    2031: d0 0f        	bne	$2042 <__umodsi3+0x19>
    2033: a6 16        	ldx	$16                     ; 0x2016 <__memset+0x12>
    2035: d0 0b        	bne	$2042 <__umodsi3+0x19>
    2037: a6 15        	ldx	$15                     ; 0x2015 <__memset+0x11>
    2039: d0 07        	bne	$2042 <__umodsi3+0x19>
    203b: a6 14        	ldx	$14                     ; 0x2014 <__memset+0x10>
    203d: d0 03        	bne	$2042 <__umodsi3+0x19>
    203f: 4c 69 21     	jmp	$2169 <__umodsi3+0x140>
    2042: c5 17        	cmp	$17                     ; 0x2017 <__memset+0x13>
    2044: d0 15        	bne	$205b <__umodsi3+0x32>
    2046: a6 12        	ldx	$12                     ; 0x2012 <__memset+0xe>
    2048: e4 16        	cpx	$16                     ; 0x2016 <__memset+0x12>
    204a: d0 16        	bne	$2062 <__umodsi3+0x39>
    204c: a6 1a        	ldx	$1a                     ; 0x201a <__memset+0x16>
    204e: e4 15        	cpx	$15                     ; 0x2015 <__memset+0x11>
    2050: d0 17        	bne	$2069 <__umodsi3+0x40>
    2052: a6 1c        	ldx	$1c                     ; 0x201c <__memset+0x18>
    2054: e4 14        	cpx	$14                     ; 0x2014 <__memset+0x10>
    2056: b0 1a        	bcs	$2072 <__umodsi3+0x49>
    2058: 4c 69 21     	jmp	$2169 <__umodsi3+0x140>
    205b: c5 17        	cmp	$17                     ; 0x2017 <__memset+0x13>
    205d: b0 13        	bcs	$2072 <__umodsi3+0x49>
    205f: 4c 69 21     	jmp	$2169 <__umodsi3+0x140>
    2062: e4 16        	cpx	$16                     ; 0x2016 <__memset+0x12>
    2064: b0 0c        	bcs	$2072 <__umodsi3+0x49>
    2066: 4c 69 21     	jmp	$2169 <__umodsi3+0x140>
    2069: a6 1a        	ldx	$1a                     ; 0x201a <__memset+0x16>
    206b: e4 15        	cpx	$15                     ; 0x2015 <__memset+0x11>
    206d: b0 03        	bcs	$2072 <__umodsi3+0x49>
    206f: 4c 69 21     	jmp	$2169 <__umodsi3+0x140>
    2072: a6 17        	ldx	$17                     ; 0x2017 <__memset+0x13>
    2074: 10 03        	bpl	$2079 <__umodsi3+0x50>
    2076: 4c 52 21     	jmp	$2152 <__umodsi3+0x129>
    2079: a2 00        	ldx	#$0
    207b: a4 14        	ldy	$14                     ; 0x2014 <__memset+0x10>
    207d: 84 1b        	sty	$1b                     ; 0x201b <__memset+0x17>
    207f: a4 15        	ldy	$15                     ; 0x2015 <__memset+0x11>
    2081: 84 13        	sty	$13                     ; 0x2013 <__memset+0xf>
    2083: a4 16        	ldy	$16                     ; 0x2016 <__memset+0x12>
    2085: 84 18        	sty	$18                     ; 0x2018 <__memset+0x14>
    2087: a4 17        	ldy	$17                     ; 0x2017 <__memset+0x13>
    2089: 84 19        	sty	$19                     ; 0x2019 <__memset+0x15>
    208b: 06 1b        	asl	$1b                     ; 0x201b <__memset+0x17>
    208d: 26 13        	rol	$13                     ; 0x2013 <__memset+0xf>
    208f: 26 18        	rol	$18                     ; 0x2018 <__memset+0x14>
    2091: 26 19        	rol	$19                     ; 0x2019 <__memset+0x15>
    2093: c5 19        	cmp	$19                     ; 0x2019 <__memset+0x15>
    2095: d0 16        	bne	$20ad <__umodsi3+0x84>
    2097: a4 12        	ldy	$12                     ; 0x2012 <__memset+0xe>
    2099: c4 18        	cpy	$18                     ; 0x2018 <__memset+0x14>
    209b: d0 16        	bne	$20b3 <__umodsi3+0x8a>
    209d: a4 1a        	ldy	$1a                     ; 0x201a <__memset+0x16>
    209f: c4 13        	cpy	$13                     ; 0x2013 <__memset+0xf>
    20a1: d0 16        	bne	$20b9 <__umodsi3+0x90>
    20a3: a8           	tay
    20a4: a5 1c        	lda	$1c                     ; 0x201c <__memset+0x18>
    20a6: c5 1b        	cmp	$1b                     ; 0x201b <__memset+0x17>
    20a8: 98           	tya
    20a9: 90 29        	bcc	$20d4 <__umodsi3+0xab>
    20ab: 80 12        	bra	$20bf <__umodsi3+0x96>
    20ad: c5 19        	cmp	$19                     ; 0x2019 <__memset+0x15>
    20af: 90 23        	bcc	$20d4 <__umodsi3+0xab>
    20b1: 80 0c        	bra	$20bf <__umodsi3+0x96>
    20b3: c4 18        	cpy	$18                     ; 0x2018 <__memset+0x14>
    20b5: 90 1d        	bcc	$20d4 <__umodsi3+0xab>
    20b7: 80 06        	bra	$20bf <__umodsi3+0x96>
    20b9: a4 1a        	ldy	$1a                     ; 0x201a <__memset+0x16>
    20bb: c4 13        	cpy	$13                     ; 0x2013 <__memset+0xf>
    20bd: 90 15        	bcc	$20d4 <__umodsi3+0xab>
    20bf: e8           	inx
    20c0: a4 1b        	ldy	$1b                     ; 0x201b <__memset+0x17>
    20c2: 84 14        	sty	$14                     ; 0x2014 <__memset+0x10>
    20c4: a4 13        	ldy	$13                     ; 0x2013 <__memset+0xf>
    20c6: 84 15        	sty	$15                     ; 0x2015 <__memset+0x11>
    20c8: a4 18        	ldy	$18                     ; 0x2018 <__memset+0x14>
    20ca: 84 16        	sty	$16                     ; 0x2016 <__memset+0x12>
    20cc: a4 19        	ldy	$19                     ; 0x2019 <__memset+0x15>
    20ce: 84 17        	sty	$17                     ; 0x2017 <__memset+0x13>
    20d0: 10 b9        	bpl	$208b <__umodsi3+0x62>
    20d2: 80 10        	bra	$20e4 <__umodsi3+0xbb>
    20d4: a4 14        	ldy	$14                     ; 0x2014 <__memset+0x10>
    20d6: 84 1b        	sty	$1b                     ; 0x201b <__memset+0x17>
    20d8: a4 15        	ldy	$15                     ; 0x2015 <__memset+0x11>
    20da: 84 13        	sty	$13                     ; 0x2013 <__memset+0xf>
    20dc: a4 16        	ldy	$16                     ; 0x2016 <__memset+0x12>
    20de: 84 18        	sty	$18                     ; 0x2018 <__memset+0x14>
    20e0: a4 17        	ldy	$17                     ; 0x2017 <__memset+0x13>
    20e2: 84 19        	sty	$19                     ; 0x2019 <__memset+0x15>
    20e4: 38           	sec
    20e5: a8           	tay
    20e6: a5 1c        	lda	$1c                     ; 0x201c <__memset+0x18>
    20e8: e5 1b        	sbc	$1b                     ; 0x201b <__memset+0x17>
    20ea: 85 1c        	sta	$1c                     ; 0x201c <__memset+0x18>
    20ec: a5 1a        	lda	$1a                     ; 0x201a <__memset+0x16>
    20ee: e5 13        	sbc	$13                     ; 0x2013 <__memset+0xf>
    20f0: 85 1a        	sta	$1a                     ; 0x201a <__memset+0x16>
    20f2: a5 12        	lda	$12                     ; 0x2012 <__memset+0xe>
    20f4: e5 18        	sbc	$18                     ; 0x2018 <__memset+0x14>
    20f6: 85 12        	sta	$12                     ; 0x2012 <__memset+0xe>
    20f8: 98           	tya
    20f9: e5 19        	sbc	$19                     ; 0x2019 <__memset+0x15>
    20fb: e0 00        	cpx	#$0
    20fd: d0 11        	bne	$2110 <__umodsi3+0xe7>
    20ff: 4c 69 21     	jmp	$2169 <__umodsi3+0x140>
    2102: c4 18        	cpy	$18                     ; 0x2018 <__memset+0x14>
    2104: b0 30        	bcs	$2136 <__umodsi3+0x10d>
    2106: 80 45        	bra	$214d <__umodsi3+0x124>
    2108: a4 1a        	ldy	$1a                     ; 0x201a <__memset+0x16>
    210a: c4 13        	cpy	$13                     ; 0x2013 <__memset+0xf>
    210c: b0 28        	bcs	$2136 <__umodsi3+0x10d>
    210e: 80 3d        	bra	$214d <__umodsi3+0x124>
    2110: 46 19        	lsr	$19                     ; 0x2019 <__memset+0x15>
    2112: 66 18        	ror	$18                     ; 0x2018 <__memset+0x14>
    2114: 66 13        	ror	$13                     ; 0x2013 <__memset+0xf>
    2116: 66 1b        	ror	$1b                     ; 0x201b <__memset+0x17>
    2118: c5 19        	cmp	$19                     ; 0x2019 <__memset+0x15>
    211a: d0 16        	bne	$2132 <__umodsi3+0x109>
    211c: a4 12        	ldy	$12                     ; 0x2012 <__memset+0xe>
    211e: c4 18        	cpy	$18                     ; 0x2018 <__memset+0x14>
    2120: d0 e0        	bne	$2102 <__umodsi3+0xd9>
    2122: a4 1a        	ldy	$1a                     ; 0x201a <__memset+0x16>
    2124: c4 13        	cpy	$13                     ; 0x2013 <__memset+0xf>
    2126: d0 e0        	bne	$2108 <__umodsi3+0xdf>
    2128: a8           	tay
    2129: a5 1c        	lda	$1c                     ; 0x201c <__memset+0x18>
    212b: c5 1b        	cmp	$1b                     ; 0x201b <__memset+0x17>
    212d: 98           	tya
    212e: b0 06        	bcs	$2136 <__umodsi3+0x10d>
    2130: 80 1b        	bra	$214d <__umodsi3+0x124>
    2132: c5 19        	cmp	$19                     ; 0x2019 <__memset+0x15>
    2134: 90 17        	bcc	$214d <__umodsi3+0x124>
    2136: a8           	tay
    2137: 38           	sec
    2138: a5 1c        	lda	$1c                     ; 0x201c <__memset+0x18>
    213a: e5 1b        	sbc	$1b                     ; 0x201b <__memset+0x17>
    213c: 85 1c        	sta	$1c                     ; 0x201c <__memset+0x18>
    213e: a5 1a        	lda	$1a                     ; 0x201a <__memset+0x16>
    2140: e5 13        	sbc	$13                     ; 0x2013 <__memset+0xf>
    2142: 85 1a        	sta	$1a                     ; 0x201a <__memset+0x16>
    2144: a5 12        	lda	$12                     ; 0x2012 <__memset+0xe>
    2146: e5 18        	sbc	$18                     ; 0x2018 <__memset+0x14>
    2148: 85 12        	sta	$12                     ; 0x2012 <__memset+0xe>
    214a: 98           	tya
    214b: e5 19        	sbc	$19                     ; 0x2019 <__memset+0x15>
    214d: ca           	dex
    214e: d0 c0        	bne	$2110 <__umodsi3+0xe7>
    2150: 80 17        	bra	$2169 <__umodsi3+0x140>
    2152: 38           	sec
    2153: a8           	tay
    2154: a5 1c        	lda	$1c                     ; 0x201c <__memset+0x18>
    2156: e5 14        	sbc	$14                     ; 0x2014 <__memset+0x10>
    2158: 85 1c        	sta	$1c                     ; 0x201c <__memset+0x18>
    215a: a5 1a        	lda	$1a                     ; 0x201a <__memset+0x16>
    215c: e5 15        	sbc	$15                     ; 0x2015 <__memset+0x11>
    215e: 85 1a        	sta	$1a                     ; 0x201a <__memset+0x16>
    2160: a5 12        	lda	$12                     ; 0x2012 <__memset+0xe>
    2162: e5 16        	sbc	$16                     ; 0x2016 <__memset+0x12>
    2164: 85 12        	sta	$12                     ; 0x2012 <__memset+0xe>
    2166: 98           	tya
    2167: e5 17        	sbc	$17                     ; 0x2017 <__memset+0x13>
    2169: 85 13        	sta	$13                     ; 0x2013 <__memset+0xf>
    216b: a6 1a        	ldx	$1a                     ; 0x201a <__memset+0x16>
    216d: a5 1c        	lda	$1c                     ; 0x201c <__memset+0x18>
    216f: 60           	rts
