
mp3.elf:	file format elf32-mos

SYMBOL TABLE:
00000000 l    df *ABS*	00000000 zero-bss.c
00000000 l    df *ABS*	00000000 zero-zp-bss.c
00000000 l    df *ABS*	00000000 ld-temp.o
00000038 l     O .zp.bss	00000007 kernelEventData
000024ef l     O .rodata	00000030 textColors
00000030 l     O .zp.bss	00000001 _col
00000031 l     O .zp.bss	00000001 _row
00002645 l     O .bss	00000004 _BITMAP_BASE.0
00000037 l     O .zp.bss	00000001 kernelError
00001520 l     F .text	00000c2c printf
00000035 l     O .zp.bss	00000002 theMP3file
00000f76 l     F .text	0000014b fileRead
00000034 l     O .zp.bss	00000001 totalsize
00001279 l     F .text	000000bb textPrintUInt
000010c1 l     F .text	000001b8 textPrint
00000454 l     F .text	000000df _ZN12_GLOBAL__N_19FreeChunk6removeEv
0000264a l     O .bss	00000001 _ZN12_GLOBAL__N_19last_freeE
00000316 l     F .text	0000013d _ZN12_GLOBAL__N_19FreeChunk6insertEPvj
0000214c l     F .text	000001d5 malloc
0000236d l     F .text	00000147 __umodsi3
00001339 l     F .text	000000db _ZN12_GLOBAL__N_13putEcP6Status
00000032 l     O .zp.bss	00000002 __putchar.s
00001414 l     F .text	0000010c _ZN12_GLOBAL__N_112print_stringEPKcP6Status
00002649 l     O .bss	00000001 _ZN12_GLOBAL__N_111initializedE
0000264d l     O .bss	00000002 _ZN12_GLOBAL__N_19free_listE
0000264b l     O .bss	00000002 _ZN12_GLOBAL__N_19free_sizeE
00000559 g     F .text	00000a1d main
00010400 g       .backg	00000000 backg_end
00023000 g       .palback	00000000 palback_end
00010000 g       .backg	00000000 backg_start
00010400 g       .palback	00000000 palback_start
00000311 g       .text	00000000 __after_main
00000300 g       .text	00000000 __do_init_stack
00000308 g       .text	00000000 __do_zero_bss
00000533 g     F .text	00000013 __zero_bss
0000030b g       .text	00000000 __do_zero_zp_bss
00000546 g     F .text	00000013 __zero_zp_bss
00001334 g     F .text	00000005 exit
00000314 g       .text	00000000 _fini
000024b4 g       .rodata	00000000 __set_v
0000234d  w    F .text	00000020 __memset
00001000  w      *ABS*	00000000 __heap_default_limit
00002650 g       .noinit	00000000 __heap_start
00002321  w    F .text	0000002c memcpy
00000010 g       *ABS*	00000000 __rc0
00000012 g       *ABS*	00000000 __rc2
00000014 g       *ABS*	00000000 __rc4
00000016 g       *ABS*	00000000 __rc6
00000018 g       *ABS*	00000000 __rc8
0000001a g       *ABS*	00000000 __rc10
0000001c g       *ABS*	00000000 __rc12
0000001e g       *ABS*	00000000 __rc14
00000020 g       *ABS*	00000000 __rc16
00000022 g       *ABS*	00000000 __rc18
00000024 g       *ABS*	00000000 __rc20
00000026 g       *ABS*	00000000 __rc22
00000028 g       *ABS*	00000000 __rc24
0000002a g       *ABS*	00000000 __rc26
0000002c g       *ABS*	00000000 __rc28
0000002e g       *ABS*	00000000 __rc30
0000002f g       *ABS*	00000000 __rc31
00000300 g       *ABS*	00000000 __f256_start
0000c000 g       *ABS*	00000000 __stack
0000c000 g       *ABS*	00000000 __SLOT_ADDR
0800c000 g       *ABS*	00000000 __block8_lma
00002000 g       *ABS*	00000000 __BLOCK_SIZE
0900c000 g       *ABS*	00000000 __block9_lma
0a00c000 g       *ABS*	00000000 __block10_lma
0b00c000 g       *ABS*	00000000 __block11_lma
0c00c000 g       *ABS*	00000000 __block12_lma
0d00c000 g       *ABS*	00000000 __block13_lma
0e00c000 g       *ABS*	00000000 __block14_lma
0f00c000 g       *ABS*	00000000 __block15_lma
1000c000 g       *ABS*	00000000 __block16_lma
1100c000 g       *ABS*	00000000 __block17_lma
1200c000 g       *ABS*	00000000 __block18_lma
1300c000 g       *ABS*	00000000 __block19_lma
1400c000 g       *ABS*	00000000 __block20_lma
1500c000 g       *ABS*	00000000 __block21_lma
1600c000 g       *ABS*	00000000 __block22_lma
1700c000 g       *ABS*	00000000 __block23_lma
00010000 g       *ABS*	00000000 __backg_lma
00000400 g       *ABS*	00000000 __backg_size
00010400 g       *ABS*	00000000 __palback_lma
00012c00 g       *ABS*	00000000 __palback_size
00002645 g       .bss	00000000 __bss_start
00010400 g       .backg	00000000 end_backg
00023000 g       .palback	00000000 end_palback
00000300 g       .text	00000000 _start
0000002d g       *ABS*	00000000 __rc29
0000002b g       *ABS*	00000000 __rc27
00000029 g       *ABS*	00000000 __rc25
00000027 g       *ABS*	00000000 __rc23
00000025 g       *ABS*	00000000 __rc21
00000023 g       *ABS*	00000000 __rc19
00000021 g       *ABS*	00000000 __rc17
0000001f g       *ABS*	00000000 __rc15
0000001d g       *ABS*	00000000 __rc13
0000001b g       *ABS*	00000000 __rc11
00000019 g       *ABS*	00000000 __rc9
00000017 g       *ABS*	00000000 __rc7
00000015 g       *ABS*	00000000 __rc5
00000013 g       *ABS*	00000000 __rc3
00000011 g       *ABS*	00000000 __rc1
00000030 g       .zp.data	00000000 __zp_data_start
00000300 g       *ABS*	00000000 __zp_data_load_start
00000000 g       *ABS*	00000000 __zp_data_size
00000030 g       .zp.bss	00000000 __zp_bss_start
0000000f g       *ABS*	00000000 __zp_bss_size
00000300 g       .text	00000000 _init
000024b4 g       .text	00000000 __init_array_start
000024b4 g       .text	00000000 __init_array_end
000024b4 g       .text	00000000 __fini_array_start
000024b4 g       .text	00000000 __fini_array_end
00002645 g       .data	00000000 __data_start
00002645 g       .data	00000000 __data_end
00002645 g       *ABS*	00000000 __data_load_start
00000000 g       *ABS*	00000000 __data_size
0000264f g       .bss	00000000 __bss_end
0000000a g       *ABS*	00000000 __bss_size
0000264f g       .noinit	00000000 end_block8
0000264f g       .noinit	00000000 end_block9
0000264f g       .noinit	00000000 end_block10
0000264f g       .noinit	00000000 end_block11
0000264f g       .noinit	00000000 end_block12
0000264f g       .noinit	00000000 end_block13
0000264f g       .noinit	00000000 end_block14
0000264f g       .noinit	00000000 end_block15
0000264f g       .noinit	00000000 end_block16
0000264f g       .noinit	00000000 end_block17
0000264f g       .noinit	00000000 end_block18
0000264f g       .noinit	00000000 end_block19
0000264f g       .noinit	00000000 end_block20
0000264f g       .noinit	00000000 end_block21
0000264f g       .noinit	00000000 end_block22
0000264f g       .noinit	00000000 end_block23

Disassembly of section .text:

00000300 <_start>:
     300: a9 00        	lda	#$0
     302: 85 10        	sta	$10                     ; 0x2010 <printf+0xaf0>
     304: a9 c0        	lda	#$c0
     306: 85 11        	sta	$11                     ; 0x2011 <printf+0xaf1>

00000308 <__do_zero_bss>:
     308: 20 33 05     	jsr	$533 <__zero_bss>

0000030b <__do_zero_zp_bss>:
     30b: 20 46 05     	jsr	$546 <__zero_zp_bss>
     30e: 20 59 05     	jsr	$559 <main>

00000311 <__after_main>:
     311: 4c 34 13     	jmp	$1334 <exit>

00000314 <_fini>:
     314: 60           	rts
     315: 00           	brk

00000316 <_ZN12_GLOBAL__N_19FreeChunk6insertEPvj>:
     316: 85 16        	sta	$16                     ; 0x2016 <printf+0xaf6>
     318: 29 fe        	and	#$fe
     31a: 85 14        	sta	$14                     ; 0x2014 <printf+0xaf4>
     31c: a0 01        	ldy	#$1
     31e: 98           	tya
     31f: 32 12        	and	($12)                   ; 0x2012 <printf+0xaf2>
     321: 05 14        	ora	$14                     ; 0x2014 <printf+0xaf4>
     323: 92 12        	sta	($12)                   ; 0x2012 <printf+0xaf2>
     325: a5 12        	lda	$12                     ; 0x2012 <printf+0xaf2>
     327: 18           	clc
     328: 65 14        	adc	$14                     ; 0x2014 <printf+0xaf4>
     32a: 85 15        	sta	$15                     ; 0x2015 <printf+0xaf5>
     32c: 8a           	txa
     32d: 65 13        	adc	$13                     ; 0x2013 <printf+0xaf3>
     32f: 85 14        	sta	$14                     ; 0x2014 <printf+0xaf4>
     331: 18           	clc
     332: a5 15        	lda	$15                     ; 0x2015 <printf+0xaf5>
     334: 69 fe        	adc	#$fe
     336: 85 17        	sta	$17                     ; 0x2017 <printf+0xaf7>
     338: a5 14        	lda	$14                     ; 0x2014 <printf+0xaf4>
     33a: 69 ff        	adc	#$ff
     33c: 85 15        	sta	$15                     ; 0x2015 <printf+0xaf5>
     33e: a5 17        	lda	$17                     ; 0x2017 <printf+0xaf7>
     340: 85 14        	sta	$14                     ; 0x2014 <printf+0xaf4>
     342: 8a           	txa
     343: 91 12        	sta	($12),y                 ; 0x2012 <printf+0xaf2>
     345: a5 16        	lda	$16                     ; 0x2016 <printf+0xaf6>
     347: 92 14        	sta	($14)                   ; 0x2014 <printf+0xaf4>
     349: 8a           	txa
     34a: 91 14        	sta	($14),y                 ; 0x2014 <printf+0xaf4>
     34c: b1 12        	lda	($12),y                 ; 0x2012 <printf+0xaf2>
     34e: 85 14        	sta	$14                     ; 0x2014 <printf+0xaf4>
     350: a9 fe        	lda	#$fe
     352: 32 12        	and	($12)                   ; 0x2012 <printf+0xaf2>
     354: 18           	clc
     355: 6d 4b 26     	adc	$264b                   ; 0x264b <_ZN12_GLOBAL__N_19free_sizeE>
     358: aa           	tax
     359: a5 14        	lda	$14                     ; 0x2014 <printf+0xaf4>
     35b: 6d 4c 26     	adc	$264c                   ; 0x264c <_ZN12_GLOBAL__N_19free_sizeE+0x1>
     35e: a8           	tay
     35f: 18           	clc
     360: 8a           	txa
     361: 69 fe        	adc	#$fe
     363: aa           	tax
     364: 98           	tya
     365: 69 ff        	adc	#$ff
     367: 8e 4b 26     	stx	$264b                   ; 0x264b <_ZN12_GLOBAL__N_19free_sizeE>
     36a: 8d 4c 26     	sta	$264c                   ; 0x264c <_ZN12_GLOBAL__N_19free_sizeE+0x1>
     36d: ae 4d 26     	ldx	$264d                   ; 0x264d <_ZN12_GLOBAL__N_19free_listE>
     370: 86 16        	stx	$16                     ; 0x2016 <printf+0xaf6>
     372: ac 4e 26     	ldy	$264e                   ; 0x264e <_ZN12_GLOBAL__N_19free_listE+0x1>
     375: a2 00        	ldx	#$0
     377: 86 14        	stx	$14                     ; 0x2014 <printf+0xaf4>
     379: a2 00        	ldx	#$0
     37b: 86 15        	stx	$15                     ; 0x2015 <printf+0xaf5>
     37d: c4 15        	cpy	$15                     ; 0x2015 <printf+0xaf5>
     37f: d0 3e        	bne	$3bf <_ZN12_GLOBAL__N_19FreeChunk6insertEPvj+0xa9>
     381: a6 16        	ldx	$16                     ; 0x2016 <printf+0xaf6>
     383: e4 14        	cpx	$14                     ; 0x2014 <printf+0xaf4>
     385: d0 38        	bne	$3bf <_ZN12_GLOBAL__N_19FreeChunk6insertEPvj+0xa9>
     387: a0 04        	ldy	#$4
     389: a5 12        	lda	$12                     ; 0x2012 <printf+0xaf2>
     38b: 18           	clc
     38c: 69 04        	adc	#$4
     38e: 85 14        	sta	$14                     ; 0x2014 <printf+0xaf4>
     390: a5 13        	lda	$13                     ; 0x2013 <printf+0xaf3>
     392: 69 00        	adc	#$0
     394: 18           	clc
     395: 85 15        	sta	$15                     ; 0x2015 <printf+0xaf5>
     397: a5 12        	lda	$12                     ; 0x2012 <printf+0xaf2>
     399: 91 12        	sta	($12),y                 ; 0x2012 <printf+0xaf2>
     39b: a0 02        	ldy	#$2
     39d: 85 17        	sta	$17                     ; 0x2017 <printf+0xaf7>
     39f: 69 02        	adc	#$2
     3a1: 85 16        	sta	$16                     ; 0x2016 <printf+0xaf6>
     3a3: a5 17        	lda	$17                     ; 0x2017 <printf+0xaf7>
     3a5: 91 12        	sta	($12),y                 ; 0x2012 <printf+0xaf2>
     3a7: a5 13        	lda	$13                     ; 0x2013 <printf+0xaf3>
     3a9: 69 00        	adc	#$0
     3ab: 85 17        	sta	$17                     ; 0x2017 <printf+0xaf7>
     3ad: 88           	dey
     3ae: a5 13        	lda	$13                     ; 0x2013 <printf+0xaf3>
     3b0: 91 14        	sta	($14),y                 ; 0x2014 <printf+0xaf4>
     3b2: 91 16        	sta	($16),y                 ; 0x2016 <printf+0xaf6>
     3b4: a6 12        	ldx	$12                     ; 0x2012 <printf+0xaf2>
     3b6: 8e 4d 26     	stx	$264d                   ; 0x264d <_ZN12_GLOBAL__N_19free_listE>
     3b9: a6 13        	ldx	$13                     ; 0x2013 <printf+0xaf3>
     3bb: 8e 4e 26     	stx	$264e                   ; 0x264e <_ZN12_GLOBAL__N_19free_listE+0x1>
     3be: 60           	rts
     3bf: a6 12        	ldx	$12                     ; 0x2012 <printf+0xaf2>
     3c1: a5 12        	lda	$12                     ; 0x2012 <printf+0xaf2>
     3c3: 18           	clc
     3c4: 69 02        	adc	#$2
     3c6: 85 14        	sta	$14                     ; 0x2014 <printf+0xaf4>
     3c8: 84 18        	sty	$18                     ; 0x2018 <printf+0xaf8>
     3ca: a5 13        	lda	$13                     ; 0x2013 <printf+0xaf3>
     3cc: 69 00        	adc	#$0
     3ce: 85 15        	sta	$15                     ; 0x2015 <printf+0xaf5>
     3d0: a5 16        	lda	$16                     ; 0x2016 <printf+0xaf6>
     3d2: 84 17        	sty	$17                     ; 0x2017 <printf+0xaf7>
     3d4: a0 02        	ldy	#$2
     3d6: 91 12        	sta	($12),y                 ; 0x2012 <printf+0xaf2>
     3d8: 85 19        	sta	$19                     ; 0x2019 <printf+0xaf9>
     3da: 88           	dey
     3db: a5 18        	lda	$18                     ; 0x2018 <printf+0xaf8>
     3dd: 91 14        	sta	($14),y                 ; 0x2014 <printf+0xaf4>
     3df: 18           	clc
     3e0: a5 19        	lda	$19                     ; 0x2019 <printf+0xaf9>
     3e2: 69 04        	adc	#$4
     3e4: a8           	tay
     3e5: a5 18        	lda	$18                     ; 0x2018 <printf+0xaf8>
     3e7: 69 00        	adc	#$0
     3e9: 85 19        	sta	$19                     ; 0x2019 <printf+0xaf9>
     3eb: 84 18        	sty	$18                     ; 0x2018 <printf+0xaf8>
     3ed: 8a           	txa
     3ee: 18           	clc
     3ef: 69 04        	adc	#$4
     3f1: 85 1a        	sta	$1a                     ; 0x201a <printf+0xafa>
     3f3: a5 13        	lda	$13                     ; 0x2013 <printf+0xaf3>
     3f5: 69 00        	adc	#$0
     3f7: 85 1b        	sta	$1b                     ; 0x201b <printf+0xafb>
     3f9: a0 04        	ldy	#$4
     3fb: b1 16        	lda	($16),y                 ; 0x2016 <printf+0xaf6>
     3fd: 85 16        	sta	$16                     ; 0x2016 <printf+0xaf6>
     3ff: 85 1d        	sta	$1d                     ; 0x201d <printf+0xafd>
     401: a0 01        	ldy	#$1
     403: b1 18        	lda	($18),y                 ; 0x2018 <printf+0xaf8>
     405: 85 17        	sta	$17                     ; 0x2017 <printf+0xaf7>
     407: 85 19        	sta	$19                     ; 0x2019 <printf+0xaf9>
     409: a0 04        	ldy	#$4
     40b: a5 1d        	lda	$1d                     ; 0x201d <printf+0xafd>
     40d: 91 12        	sta	($12),y                 ; 0x2012 <printf+0xaf2>
     40f: a5 19        	lda	$19                     ; 0x2019 <printf+0xaf9>
     411: a0 01        	ldy	#$1
     413: 91 1a        	sta	($1a),y                 ; 0x201a <printf+0xafa>
     415: 18           	clc
     416: a5 1d        	lda	$1d                     ; 0x201d <printf+0xafd>
     418: 69 02        	adc	#$2
     41a: 85 18        	sta	$18                     ; 0x2018 <printf+0xaf8>
     41c: a5 19        	lda	$19                     ; 0x2019 <printf+0xaf9>
     41e: 69 00        	adc	#$0
     420: 85 19        	sta	$19                     ; 0x2019 <printf+0xaf9>
     422: 8a           	txa
     423: c8           	iny
     424: 91 16        	sta	($16),y                 ; 0x2016 <printf+0xaf6>
     426: a5 13        	lda	$13                     ; 0x2013 <printf+0xaf3>
     428: 88           	dey
     429: 91 18        	sta	($18),y                 ; 0x2018 <printf+0xaf8>
     42b: c8           	iny
     42c: b1 12        	lda	($12),y                 ; 0x2012 <printf+0xaf2>
     42e: 85 16        	sta	$16                     ; 0x2016 <printf+0xaf6>
     430: 85 18        	sta	$18                     ; 0x2018 <printf+0xaf8>
     432: 88           	dey
     433: b1 14        	lda	($14),y                 ; 0x2014 <printf+0xaf4>
     435: 85 17        	sta	$17                     ; 0x2017 <printf+0xaf7>
     437: 85 14        	sta	$14                     ; 0x2014 <printf+0xaf4>
     439: 8a           	txa
     43a: a0 04        	ldy	#$4
     43c: 91 16        	sta	($16),y                 ; 0x2016 <printf+0xaf6>
     43e: 18           	clc
     43f: a5 18        	lda	$18                     ; 0x2018 <printf+0xaf8>
     441: 69 04        	adc	#$4
     443: a8           	tay
     444: a5 14        	lda	$14                     ; 0x2014 <printf+0xaf4>
     446: 69 00        	adc	#$0
     448: 84 14        	sty	$14                     ; 0x2014 <printf+0xaf4>
     44a: 85 15        	sta	$15                     ; 0x2015 <printf+0xaf5>
     44c: a5 13        	lda	$13                     ; 0x2013 <printf+0xaf3>
     44e: a0 01        	ldy	#$1
     450: 91 14        	sta	($14),y                 ; 0x2014 <printf+0xaf4>
     452: 60           	rts
     453: 00           	brk

00000454 <_ZN12_GLOBAL__N_19FreeChunk6removeEv>:
     454: a0 01        	ldy	#$1
     456: a9 fe        	lda	#$fe
     458: 32 12        	and	($12)                   ; 0x2012 <printf+0xaf2>
     45a: 85 14        	sta	$14                     ; 0x2014 <printf+0xaf4>
     45c: ad 4b 26     	lda	$264b                   ; 0x264b <_ZN12_GLOBAL__N_19free_sizeE>
     45f: ae 4c 26     	ldx	$264c                   ; 0x264c <_ZN12_GLOBAL__N_19free_sizeE+0x1>
     462: 86 15        	stx	$15                     ; 0x2015 <printf+0xaf5>
     464: 38           	sec
     465: e5 14        	sbc	$14                     ; 0x2014 <printf+0xaf4>
     467: aa           	tax
     468: a5 15        	lda	$15                     ; 0x2015 <printf+0xaf5>
     46a: f1 12        	sbc	($12),y                 ; 0x2012 <printf+0xaf2>
     46c: 85 14        	sta	$14                     ; 0x2014 <printf+0xaf4>
     46e: 18           	clc
     46f: 8a           	txa
     470: 69 02        	adc	#$2
     472: 85 15        	sta	$15                     ; 0x2015 <printf+0xaf5>
     474: a5 14        	lda	$14                     ; 0x2014 <printf+0xaf4>
     476: 69 00        	adc	#$0
     478: a6 15        	ldx	$15                     ; 0x2015 <printf+0xaf5>
     47a: 8e 4b 26     	stx	$264b                   ; 0x264b <_ZN12_GLOBAL__N_19free_sizeE>
     47d: 8d 4c 26     	sta	$264c                   ; 0x264c <_ZN12_GLOBAL__N_19free_sizeE+0x1>
     480: a5 12        	lda	$12                     ; 0x2012 <printf+0xaf2>
     482: 18           	clc
     483: 69 02        	adc	#$2
     485: 85 14        	sta	$14                     ; 0x2014 <printf+0xaf4>
     487: a5 13        	lda	$13                     ; 0x2013 <printf+0xaf3>
     489: 69 00        	adc	#$0
     48b: c8           	iny
     48c: 85 15        	sta	$15                     ; 0x2015 <printf+0xaf5>
     48e: b1 12        	lda	($12),y                 ; 0x2012 <printf+0xaf2>
     490: aa           	tax
     491: 88           	dey
     492: b1 14        	lda	($14),y                 ; 0x2014 <printf+0xaf4>
     494: 85 19        	sta	$19                     ; 0x2019 <printf+0xaf9>
     496: c5 13        	cmp	$13                     ; 0x2013 <printf+0xaf3>
     498: d0 0f        	bne	$4a9 <_ZN12_GLOBAL__N_19FreeChunk6removeEv+0x55>
     49a: e4 12        	cpx	$12                     ; 0x2012 <printf+0xaf2>
     49c: d0 0b        	bne	$4a9 <_ZN12_GLOBAL__N_19FreeChunk6removeEv+0x55>
     49e: a2 00        	ldx	#$0
     4a0: 86 14        	stx	$14                     ; 0x2014 <printf+0xaf4>
     4a2: a2 00        	ldx	#$0
     4a4: 86 15        	stx	$15                     ; 0x2015 <printf+0xaf5>
     4a6: 4c 28 05     	jmp	$528 <_ZN12_GLOBAL__N_19FreeChunk6removeEv+0xd4>
     4a9: 86 18        	stx	$18                     ; 0x2018 <printf+0xaf8>
     4ab: a6 12        	ldx	$12                     ; 0x2012 <printf+0xaf2>
     4ad: a5 12        	lda	$12                     ; 0x2012 <printf+0xaf2>
     4af: 86 1b        	stx	$1b                     ; 0x201b <printf+0xafb>
     4b1: 18           	clc
     4b2: 69 04        	adc	#$4
     4b4: 85 14        	sta	$14                     ; 0x2014 <printf+0xaf4>
     4b6: a5 13        	lda	$13                     ; 0x2013 <printf+0xaf3>
     4b8: 69 00        	adc	#$0
     4ba: a0 04        	ldy	#$4
     4bc: 85 15        	sta	$15                     ; 0x2015 <printf+0xaf5>
     4be: b1 12        	lda	($12),y                 ; 0x2012 <printf+0xaf2>
     4c0: 85 1c        	sta	$1c                     ; 0x201c <printf+0xafc>
     4c2: 18           	clc
     4c3: 69 02        	adc	#$2
     4c5: 85 16        	sta	$16                     ; 0x2016 <printf+0xaf6>
     4c7: a0 01        	ldy	#$1
     4c9: b1 14        	lda	($14),y                 ; 0x2014 <printf+0xaf4>
     4cb: aa           	tax
     4cc: 69 00        	adc	#$0
     4ce: a4 16        	ldy	$16                     ; 0x2016 <printf+0xaf6>
     4d0: 84 14        	sty	$14                     ; 0x2014 <printf+0xaf4>
     4d2: 85 15        	sta	$15                     ; 0x2015 <printf+0xaf5>
     4d4: a4 1c        	ldy	$1c                     ; 0x201c <printf+0xafc>
     4d6: 84 16        	sty	$16                     ; 0x2016 <printf+0xaf6>
     4d8: 86 17        	stx	$17                     ; 0x2017 <printf+0xaf7>
     4da: a0 02        	ldy	#$2
     4dc: a5 18        	lda	$18                     ; 0x2018 <printf+0xaf8>
     4de: 91 16        	sta	($16),y                 ; 0x2016 <printf+0xaf6>
     4e0: a5 19        	lda	$19                     ; 0x2019 <printf+0xaf9>
     4e2: 88           	dey
     4e3: 91 14        	sta	($14),y                 ; 0x2014 <printf+0xaf4>
     4e5: 18           	clc
     4e6: a5 1b        	lda	$1b                     ; 0x201b <printf+0xafb>
     4e8: 69 02        	adc	#$2
     4ea: 85 14        	sta	$14                     ; 0x2014 <printf+0xaf4>
     4ec: a5 13        	lda	$13                     ; 0x2013 <printf+0xaf3>
     4ee: 69 00        	adc	#$0
     4f0: 85 15        	sta	$15                     ; 0x2015 <printf+0xaf5>
     4f2: c8           	iny
     4f3: b1 12        	lda	($12),y                 ; 0x2012 <printf+0xaf2>
     4f5: 85 16        	sta	$16                     ; 0x2016 <printf+0xaf6>
     4f7: 88           	dey
     4f8: b1 14        	lda	($14),y                 ; 0x2014 <printf+0xaf4>
     4fa: a4 16        	ldy	$16                     ; 0x2016 <printf+0xaf6>
     4fc: 84 14        	sty	$14                     ; 0x2014 <printf+0xaf4>
     4fe: 85 15        	sta	$15                     ; 0x2015 <printf+0xaf5>
     500: 85 17        	sta	$17                     ; 0x2017 <printf+0xaf7>
     502: a0 04        	ldy	#$4
     504: a5 1c        	lda	$1c                     ; 0x201c <printf+0xafc>
     506: 91 14        	sta	($14),y                 ; 0x2014 <printf+0xaf4>
     508: 18           	clc
     509: a5 16        	lda	$16                     ; 0x2016 <printf+0xaf6>
     50b: 69 04        	adc	#$4
     50d: 85 16        	sta	$16                     ; 0x2016 <printf+0xaf6>
     50f: a5 17        	lda	$17                     ; 0x2017 <printf+0xaf7>
     511: 69 00        	adc	#$0
     513: 85 17        	sta	$17                     ; 0x2017 <printf+0xaf7>
     515: 8a           	txa
     516: a0 01        	ldy	#$1
     518: 91 16        	sta	($16),y                 ; 0x2016 <printf+0xaf6>
     51a: ae 4e 26     	ldx	$264e                   ; 0x264e <_ZN12_GLOBAL__N_19free_listE+0x1>
     51d: e4 13        	cpx	$13                     ; 0x2013 <printf+0xaf3>
     51f: d0 11        	bne	$532 <_ZN12_GLOBAL__N_19FreeChunk6removeEv+0xde>
     521: ae 4d 26     	ldx	$264d                   ; 0x264d <_ZN12_GLOBAL__N_19free_listE>
     524: e4 12        	cpx	$12                     ; 0x2012 <printf+0xaf2>
     526: d0 0a        	bne	$532 <_ZN12_GLOBAL__N_19FreeChunk6removeEv+0xde>
     528: a6 14        	ldx	$14                     ; 0x2014 <printf+0xaf4>
     52a: a4 15        	ldy	$15                     ; 0x2015 <printf+0xaf5>
     52c: 8e 4d 26     	stx	$264d                   ; 0x264d <_ZN12_GLOBAL__N_19free_listE>
     52f: 8c 4e 26     	sty	$264e                   ; 0x264e <_ZN12_GLOBAL__N_19free_listE+0x1>
     532: 60           	rts

00000533 <__zero_bss>:
     533: a2 0a        	ldx	#$a
     535: a0 00        	ldy	#$0
     537: a9 45        	lda	#$45
     539: 85 12        	sta	$12                     ; 0x2012 <printf+0xaf2>
     53b: a9 26        	lda	#$26
     53d: 85 13        	sta	$13                     ; 0x2013 <printf+0xaf3>
     53f: a9 00        	lda	#$0
     541: 84 14        	sty	$14                     ; 0x2014 <printf+0xaf4>
     543: 4c 4d 23     	jmp	$234d <__memset>

00000546 <__zero_zp_bss>:
     546: a2 0f        	ldx	#$f
     548: a0 00        	ldy	#$0
     54a: a9 30        	lda	#$30
     54c: 85 12        	sta	$12                     ; 0x2012 <printf+0xaf2>
     54e: a9 00        	lda	#$0
     550: 85 13        	sta	$13                     ; 0x2013 <printf+0xaf3>
     552: a9 00        	lda	#$0
     554: 84 14        	sty	$14                     ; 0x2014 <printf+0xaf4>
     556: 4c 4d 23     	jmp	$234d <__memset>

00000559 <main>:
     559: 18           	clc
     55a: a5 10        	lda	$10                     ; 0x2010 <printf+0xaf0>
     55c: 69 f2        	adc	#$f2
     55e: 85 10        	sta	$10                     ; 0x2010 <printf+0xaf0>
     560: a5 11        	lda	$11                     ; 0x2011 <printf+0xaf1>
     562: 69 df        	adc	#$df
     564: 85 11        	sta	$11                     ; 0x2011 <printf+0xaf1>
     566: a6 24        	ldx	$24                     ; 0x2024 <printf+0xb04>
     568: da           	phx
     569: a6 25        	ldx	$25                     ; 0x2025 <printf+0xb05>
     56b: da           	phx
     56c: a6 26        	ldx	$26                     ; 0x2026 <printf+0xb06>
     56e: da           	phx
     56f: a6 27        	ldx	$27                     ; 0x2027 <printf+0xb07>
     571: da           	phx
     572: a5 28        	lda	$28                     ; 0x2028 <printf+0xb08>
     574: a0 0b        	ldy	#$b
     576: 91 10        	sta	($10),y                 ; 0x2010 <printf+0xaf0>
     578: a5 29        	lda	$29                     ; 0x2029 <printf+0xb09>
     57a: 88           	dey
     57b: 91 10        	sta	($10),y                 ; 0x2010 <printf+0xaf0>
     57d: a5 2a        	lda	$2a                     ; 0x202a <printf+0xb0a>
     57f: 88           	dey
     580: 91 10        	sta	($10),y                 ; 0x2010 <printf+0xaf0>
     582: a5 2b        	lda	$2b                     ; 0x202b <printf+0xb0b>
     584: 88           	dey
     585: 91 10        	sta	($10),y                 ; 0x2010 <printf+0xaf0>
     587: a5 2c        	lda	$2c                     ; 0x202c <printf+0xb0c>
     589: 88           	dey
     58a: 91 10        	sta	($10),y                 ; 0x2010 <printf+0xaf0>
     58c: a5 2d        	lda	$2d                     ; 0x202d <printf+0xb0d>
     58e: 88           	dey
     58f: 91 10        	sta	($10),y                 ; 0x2010 <printf+0xaf0>
     591: a5 2e        	lda	$2e                     ; 0x202e <printf+0xb0e>
     593: 88           	dey
     594: 91 10        	sta	($10),y                 ; 0x2010 <printf+0xaf0>
     596: a5 2f        	lda	$2f                     ; 0x202f <printf+0xb0f>
     598: 88           	dey
     599: 91 10        	sta	($10),y                 ; 0x2010 <printf+0xaf0>
     59b: a2 00        	ldx	#$0
     59d: a0 10        	ldy	#$10
     59f: a9 50        	lda	#$50
     5a1: 86 12        	stx	$12                     ; 0x2012 <printf+0xaf2>
     5a3: 84 13        	sty	$13                     ; 0x2013 <printf+0xaf3>
     5a5: 18           	clc
     5a6: 65 12        	adc	$12                     ; 0x2012 <printf+0xaf2>
     5a8: 85 2a        	sta	$2a                     ; 0x202a <printf+0xb0a>
     5aa: a9 26        	lda	#$26
     5ac: 65 13        	adc	$13                     ; 0x2013 <printf+0xaf3>
     5ae: 85 2b        	sta	$2b                     ; 0x202b <printf+0xb0b>
     5b0: 64 14        	stz	$14                     ; 0x2014 <printf+0xaf4>
     5b2: a2 00        	ldx	#$0
     5b4: 86 12        	stx	$12                     ; 0x2012 <printf+0xaf2>
     5b6: a2 c0        	ldx	#$c0
     5b8: 86 13        	stx	$13                     ; 0x2013 <printf+0xaf3>
     5ba: 64 01        	stz	$1                      ; 0x2001 <printf+0xae1>
     5bc: a2 3f        	ldx	#$3f
     5be: 8e 00 d0     	stx	$d000                   ; 0xd000 <__heap_start+0xa9b0>
     5c1: a2 b3        	ldx	#$b3
     5c3: 86 00        	stx	$0                      ; 0x2000 <printf+0xae0>
     5c5: 64 08        	stz	$8                      ; 0x2008 <printf+0xae8>
     5c7: a2 01        	ldx	#$1
     5c9: 86 09        	stx	$9                      ; 0x2009 <printf+0xae9>
     5cb: e8           	inx
     5cc: 86 0a        	stx	$a                      ; 0x200a <printf+0xaea>
     5ce: e8           	inx
     5cf: 86 0b        	stx	$b                      ; 0x200b <printf+0xaeb>
     5d1: e8           	inx
     5d2: 86 0c        	stx	$c                      ; 0x200c <printf+0xaec>
     5d4: e8           	inx
     5d5: 86 0d        	stx	$d                      ; 0x200d <printf+0xaed>
     5d7: a2 38        	ldx	#$38
     5d9: a0 00        	ldy	#$0
     5db: 86 f0        	stx	$f0                     ; 0x20f0 <printf+0xbd0>
     5dd: 84 f1        	sty	$f1                     ; 0x20f1 <printf+0xbd1>
     5df: a2 00        	ldx	#$0
     5e1: 86 18        	stx	$18                     ; 0x2018 <printf+0xaf8>
     5e3: ca           	dex
     5e4: 86 19        	stx	$19                     ; 0x2019 <printf+0xaf9>
     5e6: 8a           	txa
     5e7: 0a           	asl
     5e8: 0a           	asl
     5e9: 18           	clc
     5ea: 69 d4        	adc	#$d4
     5ec: 85 1a        	sta	$1a                     ; 0x201a <printf+0xafa>
     5ee: a0 00        	ldy	#$0
     5f0: 64 17        	stz	$17                     ; 0x2017 <printf+0xaf7>
     5f2: 64 16        	stz	$16                     ; 0x2016 <printf+0xaf6>
     5f4: a6 19        	ldx	$19                     ; 0x2019 <printf+0xaf9>
     5f6: e0 03        	cpx	#$3
     5f8: a6 01        	ldx	$1                      ; 0x2001 <printf+0xae1>
     5fa: 86 1c        	stx	$1c                     ; 0x201c <printf+0xafc>
     5fc: a2 d0        	ldx	#$d0
     5fe: 84 1b        	sty	$1b                     ; 0x201b <printf+0xafb>
     600: b0 02        	bcs	$604 <main+0xab>
     602: a6 1a        	ldx	$1a                     ; 0x201a <printf+0xafa>
     604: 86 15        	stx	$15                     ; 0x2015 <printf+0xaf5>
     606: a5 17        	lda	$17                     ; 0x2017 <printf+0xaf7>
     608: 18           	clc
     609: 65 14        	adc	$14                     ; 0x2014 <printf+0xaf4>
     60b: a8           	tay
     60c: a6 17        	ldx	$17                     ; 0x2017 <printf+0xaf7>
     60e: a5 16        	lda	$16                     ; 0x2016 <printf+0xaf6>
     610: 85 1d        	sta	$1d                     ; 0x201d <printf+0xafd>
     612: a5 16        	lda	$16                     ; 0x2016 <printf+0xaf6>
     614: 65 15        	adc	$15                     ; 0x2015 <printf+0xaf5>
     616: 84 16        	sty	$16                     ; 0x2016 <printf+0xaf6>
     618: a0 01        	ldy	#$1
     61a: 84 01        	sty	$1                      ; 0x2001 <printf+0xae1>
     61c: 85 17        	sta	$17                     ; 0x2017 <printf+0xaf7>
     61e: a5 1b        	lda	$1b                     ; 0x201b <printf+0xafb>
     620: 92 16        	sta	($16)                   ; 0x2016 <printf+0xaf6>
     622: 91 16        	sta	($16),y                 ; 0x2016 <printf+0xaf6>
     624: c8           	iny
     625: 91 16        	sta	($16),y                 ; 0x2016 <printf+0xaf6>
     627: 85 15        	sta	$15                     ; 0x2015 <printf+0xaf5>
     629: c8           	iny
     62a: a9 ff        	lda	#$ff
     62c: 91 16        	sta	($16),y                 ; 0x2016 <printf+0xaf6>
     62e: 8a           	txa
     62f: a6 1c        	ldx	$1c                     ; 0x201c <printf+0xafc>
     631: 86 01        	stx	$1                      ; 0x2001 <printf+0xae1>
     633: 18           	clc
     634: 69 04        	adc	#$4
     636: 85 17        	sta	$17                     ; 0x2017 <printf+0xaf7>
     638: a5 1d        	lda	$1d                     ; 0x201d <printf+0xafd>
     63a: 69 00        	adc	#$0
     63c: e6 15        	inc	$15                     ; 0x2015 <printf+0xaf5>
     63e: a4 15        	ldy	$15                     ; 0x2015 <printf+0xaf5>
     640: 85 16        	sta	$16                     ; 0x2016 <printf+0xaf6>
     642: c9 04        	cmp	#$4
     644: f0 03        	beq	$649 <main+0xf0>
     646: 4c f4 05     	jmp	$5f4 <main+0x9b>
     649: a5 17        	lda	$17                     ; 0x2017 <printf+0xaf7>
     64b: f0 03        	beq	$650 <main+0xf7>
     64d: 4c f4 05     	jmp	$5f4 <main+0x9b>
     650: a6 18        	ldx	$18                     ; 0x2018 <printf+0xaf8>
     652: e8           	inx
     653: e0 04        	cpx	#$4
     655: f0 03        	beq	$65a <main+0x101>
     657: 4c e1 05     	jmp	$5e1 <main+0x88>
     65a: ad 02 d0     	lda	$d002                   ; 0xd002 <__heap_start+0xa9b2>
     65d: 29 f0        	and	#$f0
     65f: 8d 02 d0     	sta	$d002                   ; 0xd002 <__heap_start+0xa9b2>
     662: ad 02 d0     	lda	$d002                   ; 0xd002 <__heap_start+0xa9b2>
     665: 29 0f        	and	#$f
     667: 09 10        	ora	#$10
     669: 8d 02 d0     	sta	$d002                   ; 0xd002 <__heap_start+0xa9b2>
     66c: a2 02        	ldx	#$2
     66e: 8e 03 d0     	stx	$d003                   ; 0xd003 <__heap_start+0xa9b3>
     671: ad 01 d0     	lda	$d001                   ; 0xd001 <__heap_start+0xa9b1>
     674: 29 f9        	and	#$f9
     676: 09 04        	ora	#$4
     678: 8d 01 d0     	sta	$d001                   ; 0xd001 <__heap_start+0xa9b1>
     67b: 64 14        	stz	$14                     ; 0x2014 <printf+0xaf4>
     67d: 9c 10 d0     	stz	$d010                   ; 0xd010 <__heap_start+0xa9c0>
     680: a2 00        	ldx	#$0
     682: 64 15        	stz	$15                     ; 0x2015 <printf+0xaf5>
     684: 86 18        	stx	$18                     ; 0x2018 <printf+0xaf8>
     686: a4 18        	ldy	$18                     ; 0x2018 <printf+0xaf8>
     688: be ef 24     	ldx	$24ef,y                 ; 0x24ef <textColors>
     68b: 86 19        	stx	$19                     ; 0x2019 <printf+0xaf9>
     68d: be f0 24     	ldx	$24f0,y                 ; 0x24f0 <textColors+0x1>
     690: 86 1a        	stx	$1a                     ; 0x201a <printf+0xafa>
     692: be f1 24     	ldx	$24f1,y                 ; 0x24f1 <textColors+0x2>
     695: 86 1b        	stx	$1b                     ; 0x201b <printf+0xafb>
     697: a6 15        	ldx	$15                     ; 0x2015 <printf+0xaf5>
     699: 8e 00 de     	stx	$de00                   ; 0xde00 <__heap_start+0xb7b0>
     69c: 86 17        	stx	$17                     ; 0x2017 <printf+0xaf7>
     69e: 9c 01 de     	stz	$de01                   ; 0xde01 <__heap_start+0xb7b1>
     6a1: a2 04        	ldx	#$4
     6a3: 8e 02 de     	stx	$de02                   ; 0xde02 <__heap_start+0xb7b2>
     6a6: 9c 03 de     	stz	$de03                   ; 0xde03 <__heap_start+0xb7b3>
     6a9: ad 10 de     	lda	$de10                   ; 0xde10 <__heap_start+0xb7c0>
     6ac: ac 11 de     	ldy	$de11                   ; 0xde11 <__heap_start+0xb7c1>
     6af: 84 15        	sty	$15                     ; 0x2015 <printf+0xaf5>
     6b1: ac 12 de     	ldy	$de12                   ; 0xde12 <__heap_start+0xb7c2>
     6b4: ac 13 de     	ldy	$de13                   ; 0xde13 <__heap_start+0xb7c3>
     6b7: 18           	clc
     6b8: 65 14        	adc	$14                     ; 0x2014 <printf+0xaf4>
     6ba: 85 16        	sta	$16                     ; 0x2016 <printf+0xaf6>
     6bc: a6 17        	ldx	$17                     ; 0x2017 <printf+0xaf7>
     6be: a9 d8        	lda	#$d8
     6c0: 65 15        	adc	$15                     ; 0x2015 <printf+0xaf5>
     6c2: 85 17        	sta	$17                     ; 0x2017 <printf+0xaf7>
     6c4: a5 1b        	lda	$1b                     ; 0x201b <printf+0xafb>
     6c6: 92 16        	sta	($16)                   ; 0x2016 <printf+0xaf6>
     6c8: a0 01        	ldy	#$1
     6ca: a5 1a        	lda	$1a                     ; 0x201a <printf+0xafa>
     6cc: 91 16        	sta	($16),y                 ; 0x2016 <printf+0xaf6>
     6ce: c8           	iny
     6cf: a5 19        	lda	$19                     ; 0x2019 <printf+0xaf9>
     6d1: 91 16        	sta	($16),y                 ; 0x2016 <printf+0xaf6>
     6d3: c8           	iny
     6d4: a9 ff        	lda	#$ff
     6d6: 91 16        	sta	($16),y                 ; 0x2016 <printf+0xaf6>
     6d8: 8e 00 de     	stx	$de00                   ; 0xde00 <__heap_start+0xb7b0>
     6db: 9c 01 de     	stz	$de01                   ; 0xde01 <__heap_start+0xb7b1>
     6de: c8           	iny
     6df: 8c 02 de     	sty	$de02                   ; 0xde02 <__heap_start+0xb7b2>
     6e2: 9c 03 de     	stz	$de03                   ; 0xde03 <__heap_start+0xb7b3>
     6e5: ad 10 de     	lda	$de10                   ; 0xde10 <__heap_start+0xb7c0>
     6e8: 85 15        	sta	$15                     ; 0x2015 <printf+0xaf5>
     6ea: ad 11 de     	lda	$de11                   ; 0xde11 <__heap_start+0xb7c1>
     6ed: 85 16        	sta	$16                     ; 0x2016 <printf+0xaf6>
     6ef: a9 40        	lda	#$40
     6f1: 18           	clc
     6f2: 65 15        	adc	$15                     ; 0x2015 <printf+0xaf5>
     6f4: a8           	tay
     6f5: a9 d8        	lda	#$d8
     6f7: 65 16        	adc	$16                     ; 0x2016 <printf+0xaf6>
     6f9: 85 17        	sta	$17                     ; 0x2017 <printf+0xaf7>
     6fb: 84 16        	sty	$16                     ; 0x2016 <printf+0xaf6>
     6fd: ad 12 de     	lda	$de12                   ; 0xde12 <__heap_start+0xb7c2>
     700: ad 13 de     	lda	$de13                   ; 0xde13 <__heap_start+0xb7c3>
     703: a5 1b        	lda	$1b                     ; 0x201b <printf+0xafb>
     705: 92 16        	sta	($16)                   ; 0x2016 <printf+0xaf6>
     707: a5 1a        	lda	$1a                     ; 0x201a <printf+0xafa>
     709: a0 01        	ldy	#$1
     70b: 91 16        	sta	($16),y                 ; 0x2016 <printf+0xaf6>
     70d: a5 19        	lda	$19                     ; 0x2019 <printf+0xaf9>
     70f: c8           	iny
     710: 91 16        	sta	($16),y                 ; 0x2016 <printf+0xaf6>
     712: c8           	iny
     713: a9 ff        	lda	#$ff
     715: 91 16        	sta	($16),y                 ; 0x2016 <printf+0xaf6>
     717: e8           	inx
     718: 86 15        	stx	$15                     ; 0x2015 <printf+0xaf5>
     71a: 18           	clc
     71b: a5 18        	lda	$18                     ; 0x2018 <printf+0xaf8>
     71d: 69 03        	adc	#$3
     71f: aa           	tax
     720: c9 30        	cmp	#$30
     722: f0 03        	beq	$727 <main+0x1ce>
     724: 4c 84 06     	jmp	$684 <main+0x12b>
     727: a6 01        	ldx	$1                      ; 0x2001 <printf+0xae1>
     729: 86 18        	stx	$18                     ; 0x2018 <printf+0xaf8>
     72b: a2 50        	ldx	#$50
     72d: 8e 00 de     	stx	$de00                   ; 0xde00 <__heap_start+0xb7b0>
     730: 9c 01 de     	stz	$de01                   ; 0xde01 <__heap_start+0xb7b1>
     733: a2 1e        	ldx	#$1e
     735: 8e 02 de     	stx	$de02                   ; 0xde02 <__heap_start+0xb7b2>
     738: 9c 03 de     	stz	$de03                   ; 0xde03 <__heap_start+0xb7b3>
     73b: ae 10 de     	ldx	$de10                   ; 0xde10 <__heap_start+0xb7c0>
     73e: ac 11 de     	ldy	$de11                   ; 0xde11 <__heap_start+0xb7c1>
     741: ad 12 de     	lda	$de12                   ; 0xde12 <__heap_start+0xb7c2>
     744: ad 13 de     	lda	$de13                   ; 0xde13 <__heap_start+0xb7c3>
     747: a9 02        	lda	#$2
     749: 85 01        	sta	$1                      ; 0x2001 <printf+0xae1>
     74b: e0 01        	cpx	#$1
     74d: 98           	tya
     74e: e9 00        	sbc	#$0
     750: 50 02        	bvc	$754 <main+0x1fb>
     752: 49 80        	eor	#$80
     754: c9 00        	cmp	#$0
     756: 30 48        	bmi	$7a0 <main+0x247>
     758: a9 20        	lda	#$20
     75a: 86 19        	stx	$19                     ; 0x2019 <printf+0xaf9>
     75c: 86 14        	stx	$14                     ; 0x2014 <printf+0xaf4>
     75e: 84 15        	sty	$15                     ; 0x2015 <printf+0xaf5>
     760: a2 00        	ldx	#$0
     762: 86 16        	stx	$16                     ; 0x2016 <printf+0xaf6>
     764: a2 c0        	ldx	#$c0
     766: 86 17        	stx	$17                     ; 0x2017 <printf+0xaf7>
     768: 92 16        	sta	($16)                   ; 0x2016 <printf+0xaf6>
     76a: e6 16        	inc	$16                     ; 0x2016 <printf+0xaf6>
     76c: d0 02        	bne	$770 <main+0x217>
     76e: e6 17        	inc	$17                     ; 0x2017 <printf+0xaf7>
     770: a2 ff        	ldx	#$ff
     772: c6 14        	dec	$14                     ; 0x2014 <printf+0xaf4>
     774: e4 14        	cpx	$14                     ; 0x2014 <printf+0xaf4>
     776: d0 02        	bne	$77a <main+0x221>
     778: c6 15        	dec	$15                     ; 0x2015 <printf+0xaf5>
     77a: a6 15        	ldx	$15                     ; 0x2015 <printf+0xaf5>
     77c: d0 ea        	bne	$768 <main+0x20f>
     77e: a6 14        	ldx	$14                     ; 0x2014 <printf+0xaf4>
     780: d0 e6        	bne	$768 <main+0x20f>
     782: a2 03        	ldx	#$3
     784: 86 01        	stx	$1                      ; 0x2001 <printf+0xae1>
     786: a6 19        	ldx	$19                     ; 0x2019 <printf+0xaf9>
     788: a9 f0        	lda	#$f0
     78a: 92 12        	sta	($12)                   ; 0x2012 <printf+0xaf2>
     78c: e6 12        	inc	$12                     ; 0x2012 <printf+0xaf2>
     78e: d0 02        	bne	$792 <main+0x239>
     790: e6 13        	inc	$13                     ; 0x2013 <printf+0xaf3>
     792: ca           	dex
     793: e0 ff        	cpx	#$ff
     795: d0 01        	bne	$798 <main+0x23f>
     797: 88           	dey
     798: 98           	tya
     799: d0 ed        	bne	$788 <main+0x22f>
     79b: 8a           	txa
     79c: d0 ea        	bne	$788 <main+0x22f>
     79e: 80 04        	bra	$7a4 <main+0x24b>
     7a0: a2 03        	ldx	#$3
     7a2: 86 01        	stx	$1                      ; 0x2001 <printf+0xae1>
     7a4: a6 18        	ldx	$18                     ; 0x2018 <printf+0xaf8>
     7a6: 86 01        	stx	$1                      ; 0x2001 <printf+0xae1>
     7a8: 64 30        	stz	$30                     ; 0x2030 <printf+0xb10>
     7aa: 9c 14 d0     	stz	$d014                   ; 0xd014 <__heap_start+0xa9c4>
     7ad: 9c 15 d0     	stz	$d015                   ; 0xd015 <__heap_start+0xa9c5>
     7b0: 64 31        	stz	$31                     ; 0x2031 <printf+0xb11>
     7b2: 9c 16 d0     	stz	$d016                   ; 0xd016 <__heap_start+0xa9c6>
     7b5: 9c 17 d0     	stz	$d017                   ; 0xd017 <__heap_start+0xa9c7>
     7b8: a2 40        	ldx	#$40
     7ba: 8e 00 de     	stx	$de00                   ; 0xde00 <__heap_start+0xb7b0>
     7bd: a2 01        	ldx	#$1
     7bf: 8e 01 de     	stx	$de01                   ; 0xde01 <__heap_start+0xb7b1>
     7c2: a2 f0        	ldx	#$f0
     7c4: 8e 02 de     	stx	$de02                   ; 0xde02 <__heap_start+0xb7b2>
     7c7: 9c 03 de     	stz	$de03                   ; 0xde03 <__heap_start+0xb7b3>
     7ca: ae 10 de     	ldx	$de10                   ; 0xde10 <__heap_start+0xb7c0>
     7cd: 86 17        	stx	$17                     ; 0x2017 <printf+0xaf7>
     7cf: ae 11 de     	ldx	$de11                   ; 0xde11 <__heap_start+0xb7c1>
     7d2: 86 12        	stx	$12                     ; 0x2012 <printf+0xaf2>
     7d4: ae 12 de     	ldx	$de12                   ; 0xde12 <__heap_start+0xb7c2>
     7d7: 86 13        	stx	$13                     ; 0x2013 <printf+0xaf3>
     7d9: ae 13 de     	ldx	$de13                   ; 0xde13 <__heap_start+0xb7c3>
     7dc: 86 14        	stx	$14                     ; 0x2014 <printf+0xaf4>
     7de: a4 12        	ldy	$12                     ; 0x2012 <printf+0xaf2>
     7e0: 84 15        	sty	$15                     ; 0x2015 <printf+0xaf5>
     7e2: 06 15        	asl	$15                     ; 0x2015 <printf+0xaf5>
     7e4: a5 13        	lda	$13                     ; 0x2013 <printf+0xaf3>
     7e6: 2a           	rol
     7e7: 86 16        	stx	$16                     ; 0x2016 <printf+0xaf6>
     7e9: 26 16        	rol	$16                     ; 0x2016 <printf+0xaf6>
     7eb: 06 15        	asl	$15                     ; 0x2015 <printf+0xaf5>
     7ed: 2a           	rol
     7ee: 26 16        	rol	$16                     ; 0x2016 <printf+0xaf6>
     7f0: 06 15        	asl	$15                     ; 0x2015 <printf+0xaf5>
     7f2: 2a           	rol
     7f3: 26 16        	rol	$16                     ; 0x2016 <printf+0xaf6>
     7f5: 85 15        	sta	$15                     ; 0x2015 <printf+0xaf5>
     7f7: 8d 00 de     	sta	$de00                   ; 0xde00 <__heap_start+0xb7b0>
     7fa: a5 16        	lda	$16                     ; 0x2016 <printf+0xaf6>
     7fc: 8d 01 de     	sta	$de01                   ; 0xde01 <__heap_start+0xb7b1>
     7ff: 9c 02 de     	stz	$de02                   ; 0xde02 <__heap_start+0xb7b2>
     802: a2 20        	ldx	#$20
     804: 8e 03 de     	stx	$de03                   ; 0xde03 <__heap_start+0xb7b3>
     807: ae 10 de     	ldx	$de10                   ; 0xde10 <__heap_start+0xb7c0>
     80a: 86 16        	stx	$16                     ; 0x2016 <printf+0xaf6>
     80c: ae 11 de     	ldx	$de11                   ; 0xde11 <__heap_start+0xb7c1>
     80f: 86 18        	stx	$18                     ; 0x2018 <printf+0xaf8>
     811: ac 12 de     	ldy	$de12                   ; 0xde12 <__heap_start+0xb7c2>
     814: ae 13 de     	ldx	$de13                   ; 0xde13 <__heap_start+0xb7c3>
     817: e4 14        	cpx	$14                     ; 0x2014 <printf+0xaf4>
     819: d0 14        	bne	$82f <main+0x2d6>
     81b: c4 13        	cpy	$13                     ; 0x2013 <printf+0xaf3>
     81d: d0 10        	bne	$82f <main+0x2d6>
     81f: a6 18        	ldx	$18                     ; 0x2018 <printf+0xaf8>
     821: e4 12        	cpx	$12                     ; 0x2012 <printf+0xaf2>
     823: d0 0a        	bne	$82f <main+0x2d6>
     825: a6 16        	ldx	$16                     ; 0x2016 <printf+0xaf6>
     827: e4 17        	cpx	$17                     ; 0x2017 <printf+0xaf7>
     829: d0 04        	bne	$82f <main+0x2d6>
     82b: a6 15        	ldx	$15                     ; 0x2015 <printf+0xaf5>
     82d: 80 06        	bra	$835 <main+0x2dc>
     82f: a6 15        	ldx	$15                     ; 0x2015 <printf+0xaf5>
     831: e8           	inx
     832: d0 01        	bne	$835 <main+0x2dc>
     834: 1a           	inc
     835: 8e 00 de     	stx	$de00                   ; 0xde00 <__heap_start+0xb7b0>
     838: 8d 01 de     	sta	$de01                   ; 0xde01 <__heap_start+0xb7b1>
     83b: 9c 02 de     	stz	$de02                   ; 0xde02 <__heap_start+0xb7b2>
     83e: a2 20        	ldx	#$20
     840: 8e 03 de     	stx	$de03                   ; 0xde03 <__heap_start+0xb7b3>
     843: ae 10 de     	ldx	$de10                   ; 0xde10 <__heap_start+0xb7c0>
     846: 86 12        	stx	$12                     ; 0x2012 <printf+0xaf2>
     848: ae 11 de     	ldx	$de11                   ; 0xde11 <__heap_start+0xb7c1>
     84b: 86 13        	stx	$13                     ; 0x2013 <printf+0xaf3>
     84d: ae 12 de     	ldx	$de12                   ; 0xde12 <__heap_start+0xb7c2>
     850: 86 14        	stx	$14                     ; 0x2014 <printf+0xaf4>
     852: ae 13 de     	ldx	$de13                   ; 0xde13 <__heap_start+0xb7c3>
     855: 86 15        	stx	$15                     ; 0x2015 <printf+0xaf5>
     857: a9 00        	lda	#$0
     859: 38           	sec
     85a: e5 12        	sbc	$12                     ; 0x2012 <printf+0xaf2>
     85c: 85 16        	sta	$16                     ; 0x2016 <printf+0xaf6>
     85e: a9 00        	lda	#$0
     860: e5 13        	sbc	$13                     ; 0x2013 <printf+0xaf3>
     862: 85 17        	sta	$17                     ; 0x2017 <printf+0xaf7>
     864: a9 08        	lda	#$8
     866: e5 14        	sbc	$14                     ; 0x2014 <printf+0xaf4>
     868: aa           	tax
     869: a9 00        	lda	#$0
     86b: e5 15        	sbc	$15                     ; 0x2015 <printf+0xaf5>
     86d: a8           	tay
     86e: a5 17        	lda	$17                     ; 0x2017 <printf+0xaf7>
     870: 8d 46 26     	sta	$2646                   ; 0x2646 <__bss_start+0x1>
     873: 8e 47 26     	stx	$2647                   ; 0x2647 <__bss_start+0x2>
     876: 8c 48 26     	sty	$2648                   ; 0x2648 <__bss_start+0x3>
     879: 38           	sec
     87a: a5 16        	lda	$16                     ; 0x2016 <printf+0xaf6>
     87c: e5 12        	sbc	$12                     ; 0x2012 <printf+0xaf2>
     87e: a8           	tay
     87f: a5 17        	lda	$17                     ; 0x2017 <printf+0xaf7>
     881: e5 13        	sbc	$13                     ; 0x2013 <printf+0xaf3>
     883: 85 15        	sta	$15                     ; 0x2015 <printf+0xaf5>
     885: 8a           	txa
     886: e5 14        	sbc	$14                     ; 0x2014 <printf+0xaf4>
     888: aa           	tax
     889: 98           	tya
     88a: 38           	sec
     88b: e5 12        	sbc	$12                     ; 0x2012 <printf+0xaf2>
     88d: 85 12        	sta	$12                     ; 0x2012 <printf+0xaf2>
     88f: a5 15        	lda	$15                     ; 0x2015 <printf+0xaf5>
     891: e5 13        	sbc	$13                     ; 0x2013 <printf+0xaf3>
     893: 85 13        	sta	$13                     ; 0x2013 <printf+0xaf3>
     895: 8a           	txa
     896: 86 17        	stx	$17                     ; 0x2017 <printf+0xaf7>
     898: e5 14        	sbc	$14                     ; 0x2014 <printf+0xaf4>
     89a: a6 16        	ldx	$16                     ; 0x2016 <printf+0xaf6>
     89c: 8e 45 26     	stx	$2645                   ; 0x2645 <__bss_start>
     89f: 8e 01 d1     	stx	$d101                   ; 0xd101 <__heap_start+0xaab1>
     8a2: ae 46 26     	ldx	$2646                   ; 0x2646 <__bss_start+0x1>
     8a5: 8e 02 d1     	stx	$d102                   ; 0xd102 <__heap_start+0xaab2>
     8a8: ae 47 26     	ldx	$2647                   ; 0x2647 <__bss_start+0x2>
     8ab: 8e 03 d1     	stx	$d103                   ; 0xd103 <__heap_start+0xaab3>
     8ae: 8c 09 d1     	sty	$d109                   ; 0xd109 <__heap_start+0xaab9>
     8b1: a6 15        	ldx	$15                     ; 0x2015 <printf+0xaf5>
     8b3: 8e 0a d1     	stx	$d10a                   ; 0xd10a <__heap_start+0xaaba>
     8b6: a6 17        	ldx	$17                     ; 0x2017 <printf+0xaf7>
     8b8: 8e 0b d1     	stx	$d10b                   ; 0xd10b <__heap_start+0xaabb>
     8bb: a6 12        	ldx	$12                     ; 0x2012 <printf+0xaf2>
     8bd: 8e 11 d1     	stx	$d111                   ; 0xd111 <__heap_start+0xaac1>
     8c0: a6 13        	ldx	$13                     ; 0x2013 <printf+0xaf3>
     8c2: 8e 12 d1     	stx	$d112                   ; 0xd112 <__heap_start+0xaac2>
     8c5: 8d 13 d1     	sta	$d113                   ; 0xd113 <__heap_start+0xaac3>
     8c8: 9c 00 d1     	stz	$d100                   ; 0xd100 <__heap_start+0xaab0>
     8cb: 9c 08 d1     	stz	$d108                   ; 0xd108 <__heap_start+0xaab8>
     8ce: 9c 10 d1     	stz	$d110                   ; 0xd110 <__heap_start+0xaac0>
     8d1: a2 10        	ldx	#$10
     8d3: 8e 00 d2     	stx	$d200                   ; 0xd200 <__heap_start+0xabb0>
     8d6: 8e 0c d2     	stx	$d20c                   ; 0xd20c <__heap_start+0xabbc>
     8d9: 8e 18 d2     	stx	$d218                   ; 0xd218 <__heap_start+0xabc8>
     8dc: a0 d9        	ldy	#$d9
     8de: a2 40        	ldx	#$40
     8e0: 64 12        	stz	$12                     ; 0x2012 <printf+0xaf2>
     8e2: 84 13        	sty	$13                     ; 0x2013 <printf+0xaf3>
     8e4: a9 00        	lda	#$0
     8e6: 92 12        	sta	($12)                   ; 0x2012 <printf+0xaf2>
     8e8: ca           	dex
     8e9: 18           	clc
     8ea: a5 12        	lda	$12                     ; 0x2012 <printf+0xaf2>
     8ec: 69 08        	adc	#$8
     8ee: 85 12        	sta	$12                     ; 0x2012 <printf+0xaf2>
     8f0: 98           	tya
     8f1: 69 00        	adc	#$0
     8f3: a8           	tay
     8f4: 8a           	txa
     8f5: d0 eb        	bne	$8e2 <main+0x389>
     8f7: 18           	clc
     8f8: a5 10        	lda	$10                     ; 0x2010 <printf+0xaf0>
     8fa: 69 0d        	adc	#$d
     8fc: 85 24        	sta	$24                     ; 0x2024 <printf+0xb04>
     8fe: a5 11        	lda	$11                     ; 0x2011 <printf+0xaf1>
     900: 69 00        	adc	#$0
     902: 85 25        	sta	$25                     ; 0x2025 <printf+0xb05>
     904: a6 24        	ldx	$24                     ; 0x2024 <printf+0xb04>
     906: 86 fb        	stx	$fb                     ; 0x20fb <printf+0xbdb>
     908: 85 fc        	sta	$fc                     ; 0x20fc <printf+0xbdc>
     90a: a2 08        	ldx	#$8
     90c: 86 fd        	stx	$fd                     ; 0x20fd <printf+0xbdd>
     90e: 18           	clc
     90f: a5 10        	lda	$10                     ; 0x2010 <printf+0xaf0>
     911: 69 0d        	adc	#$d
     913: 85 2c        	sta	$2c                     ; 0x202c <printf+0xb0c>
     915: a5 11        	lda	$11                     ; 0x2011 <printf+0xaf1>
     917: 69 20        	adc	#$20
     919: 85 2d        	sta	$2d                     ; 0x202d <printf+0xb0d>
     91b: a2 37        	ldx	#$37
     91d: 86 12        	stx	$12                     ; 0x2012 <printf+0xaf2>
     91f: a2 00        	ldx	#$0
     921: 86 13        	stx	$13                     ; 0x2013 <printf+0xaf3>
     923: a0 06        	ldy	#$6
     925: 20 dc ff     	jsr	$ffdc <__heap_start+0xd98c>
     928: 92 2c        	sta	($2c)                   ; 0x202c <printf+0xb0c>
     92a: a9 00        	lda	#$0
     92c: 6a           	ror
     92d: 85 12        	sta	$12                     ; 0x2012 <printf+0xaf2>
     92f: b1 24        	lda	($24),y                 ; 0x2024 <printf+0xb04>
     931: 85 12        	sta	$12                     ; 0x2012 <printf+0xaf2>
     933: c8           	iny
     934: b1 24        	lda	($24),y                 ; 0x2024 <printf+0xb04>
     936: a6 12        	ldx	$12                     ; 0x2012 <printf+0xaf2>
     938: 8e 00 de     	stx	$de00                   ; 0xde00 <__heap_start+0xb7b0>
     93b: 9c 01 de     	stz	$de01                   ; 0xde01 <__heap_start+0xb7b1>
     93e: 8d 02 de     	sta	$de02                   ; 0xde02 <__heap_start+0xb7b2>
     941: 9c 03 de     	stz	$de03                   ; 0xde03 <__heap_start+0xb7b3>
     944: ae 10 de     	ldx	$de10                   ; 0xde10 <__heap_start+0xb7c0>
     947: ac 11 de     	ldy	$de11                   ; 0xde11 <__heap_start+0xb7c1>
     94a: ad 12 de     	lda	$de12                   ; 0xde12 <__heap_start+0xb7c2>
     94d: ad 13 de     	lda	$de13                   ; 0xde13 <__heap_start+0xb7c3>
     950: 8e a4 d6     	stx	$d6a4                   ; 0xd6a4 <__heap_start+0xb054>
     953: 8c a5 d6     	sty	$d6a5                   ; 0xd6a5 <__heap_start+0xb055>
     956: a2 03        	ldx	#$3
     958: 8e a6 d6     	stx	$d6a6                   ; 0xd6a6 <__heap_start+0xb056>
     95b: a2 1f        	ldx	#$1f
     95d: 8e 20 d6     	stx	$d620                   ; 0xd620 <__heap_start+0xafd0>
     960: a2 2a        	ldx	#$2a
     962: 8e 21 d6     	stx	$d621                   ; 0xd621 <__heap_start+0xafd1>
     965: a2 01        	ldx	#$1
     967: 8e 22 d6     	stx	$d622                   ; 0xd622 <__heap_start+0xafd2>
     96a: ad 22 d6     	lda	$d622                   ; 0xd622 <__heap_start+0xafd2>
     96d: 29 01        	and	#$1
     96f: d0 f9        	bne	$96a <main+0x411>
     971: a2 03        	ldx	#$3
     973: 8e 01 d7     	stx	$d701                   ; 0xd701 <__heap_start+0xb0b1>
     976: 9c 02 d7     	stz	$d702                   ; 0xd702 <__heap_start+0xb0b2>
     979: a2 c0        	ldx	#$c0
     97b: 8e 03 d7     	stx	$d703                   ; 0xd703 <__heap_start+0xb0b3>
     97e: a2 01        	ldx	#$1
     980: 8e 00 d7     	stx	$d700                   ; 0xd700 <__heap_start+0xb0b0>
     983: 9c 00 d7     	stz	$d700                   ; 0xd700 <__heap_start+0xb0b0>
     986: ae 00 d7     	ldx	$d700                   ; 0xd700 <__heap_start+0xb0b0>
     989: 30 fb        	bmi	$986 <main+0x42d>
     98b: a2 00        	ldx	#$0
     98d: 64 01        	stz	$1                      ; 0x2001 <printf+0xae1>
     98f: a0 2f        	ldy	#$2f
     991: 8c 00 d0     	sty	$d000                   ; 0xd000 <__heap_start+0xa9b0>
     994: a0 04        	ldy	#$4
     996: 8c 01 d0     	sty	$d001                   ; 0xd001 <__heap_start+0xa9b1>
     999: a0 01        	ldy	#$1
     99b: 8c 02 d0     	sty	$d002                   ; 0xd002 <__heap_start+0xa9b2>
     99e: a9 02        	lda	#$2
     9a0: 8d 03 d0     	sta	$d003                   ; 0xd003 <__heap_start+0xa9b3>
     9a3: 9c 0d d0     	stz	$d00d                   ; 0xd00d <__heap_start+0xa9bd>
     9a6: 9c 0e d0     	stz	$d00e                   ; 0xd00e <__heap_start+0xa9be>
     9a9: 9c 0f d0     	stz	$d00f                   ; 0xd00f <__heap_start+0xa9bf>
     9ac: 84 01        	sty	$1                      ; 0x2001 <printf+0xae1>
     9ae: a0 d0        	ldy	#$d0
     9b0: 8a           	txa
     9b1: 18           	clc
     9b2: 69 00        	adc	#$0
     9b4: 85 14        	sta	$14                     ; 0x2014 <printf+0xaf4>
     9b6: 98           	tya
     9b7: 69 10        	adc	#$10
     9b9: 85 15        	sta	$15                     ; 0x2015 <printf+0xaf5>
     9bb: 86 12        	stx	$12                     ; 0x2012 <printf+0xaf2>
     9bd: 84 13        	sty	$13                     ; 0x2013 <printf+0xaf3>
     9bf: 86 16        	stx	$16                     ; 0x2016 <printf+0xaf6>
     9c1: a6 0f        	ldx	$f                      ; 0x200f <printf+0xaef>
     9c3: 78           	sei
     9c4: a9 08        	lda	#$8
     9c6: 85 0f        	sta	$f                      ; 0x200f <printf+0xaef>
     9c8: b2 14        	lda	($14)                   ; 0x2014 <printf+0xaf4>
     9ca: 86 0f        	stx	$f                      ; 0x200f <printf+0xaef>
     9cc: a6 16        	ldx	$16                     ; 0x2016 <printf+0xaf6>
     9ce: 58           	cli
     9cf: 92 12        	sta	($12)                   ; 0x2012 <printf+0xaf2>
     9d1: e8           	inx
     9d2: d0 01        	bne	$9d5 <main+0x47c>
     9d4: c8           	iny
     9d5: c0 d3        	cpy	#$d3
     9d7: d0 d7        	bne	$9b0 <main+0x457>
     9d9: e0 ff        	cpx	#$ff
     9db: d0 d3        	bne	$9b0 <main+0x457>
     9dd: 64 01        	stz	$1                      ; 0x2001 <printf+0xae1>
     9df: 9c 45 26     	stz	$2645                   ; 0x2645 <__bss_start>
     9e2: a2 04        	ldx	#$4
     9e4: 8e 46 26     	stx	$2646                   ; 0x2646 <__bss_start+0x1>
     9e7: a0 01        	ldy	#$1
     9e9: 8c 47 26     	sty	$2647                   ; 0x2647 <__bss_start+0x2>
     9ec: 9c 48 26     	stz	$2648                   ; 0x2648 <__bss_start+0x3>
     9ef: 9c 01 d1     	stz	$d101                   ; 0xd101 <__heap_start+0xaab1>
     9f2: 8e 02 d1     	stx	$d102                   ; 0xd102 <__heap_start+0xaab2>
     9f5: 8c 03 d1     	sty	$d103                   ; 0xd103 <__heap_start+0xaab3>
     9f8: ad 00 d1     	lda	$d100                   ; 0xd100 <__heap_start+0xaab0>
     9fb: 29 f9        	and	#$f9
     9fd: 8d 00 d1     	sta	$d100                   ; 0xd100 <__heap_start+0xaab0>
     a00: 8c 00 d1     	sty	$d100                   ; 0xd100 <__heap_start+0xaab0>
     a03: 9c 08 d1     	stz	$d108                   ; 0xd108 <__heap_start+0xaab8>
     a06: 9c 10 d1     	stz	$d110                   ; 0xd110 <__heap_start+0xaac0>
     a09: a9 1e        	lda	#$1e
     a0b: 92 10        	sta	($10)                   ; 0x2010 <printf+0xaf0>
     a0d: a9 26        	lda	#$26
     a0f: 91 10        	sta	($10),y                 ; 0x2010 <printf+0xaf0>
     a11: a2 0c        	ldx	#$c
     a13: 86 12        	stx	$12                     ; 0x2012 <printf+0xaf2>
     a15: a2 26        	ldx	#$26
     a17: 86 13        	stx	$13                     ; 0x2013 <printf+0xaf3>
     a19: 20 20 15     	jsr	$1520 <printf>
     a1c: 64 14        	stz	$14                     ; 0x2014 <printf+0xaf4>
     a1e: a2 d4        	ldx	#$d4
     a20: 86 12        	stx	$12                     ; 0x2012 <printf+0xaf2>
     a22: a2 25        	ldx	#$25
     a24: 86 13        	stx	$13                     ; 0x2013 <printf+0xaf3>
     a26: 80 0a        	bra	$a32 <main+0x4d9>
     a28: a2 02        	ldx	#$2
     a2a: e6 12        	inc	$12                     ; 0x2012 <printf+0xaf2>
     a2c: d0 02        	bne	$a30 <main+0x4d7>
     a2e: e6 13        	inc	$13                     ; 0x2013 <printf+0xaf3>
     a30: 86 14        	stx	$14                     ; 0x2014 <printf+0xaf4>
     a32: b2 12        	lda	($12)                   ; 0x2012 <printf+0xaf2>
     a34: c9 61        	cmp	#$61
     a36: f0 f0        	beq	$a28 <main+0x4cf>
     a38: a2 01        	ldx	#$1
     a3a: c9 77        	cmp	#$77
     a3c: f0 ec        	beq	$a2a <main+0x4d1>
     a3e: aa           	tax
     a3f: f0 04        	beq	$a45 <main+0x4ec>
     a41: a6 14        	ldx	$14                     ; 0x2014 <printf+0xaf4>
     a43: 80 e5        	bra	$a2a <main+0x4d1>
     a45: a2 1e        	ldx	#$1e
     a47: a5 14        	lda	$14                     ; 0x2014 <printf+0xaf4>
     a49: a0 26        	ldy	#$26
     a4b: 86 fb        	stx	$fb                     ; 0x20fb <printf+0xbdb>
     a4d: 84 fc        	sty	$fc                     ; 0x20fc <printf+0xbdc>
     a4f: a2 0a        	ldx	#$a
     a51: 86 fd        	stx	$fd                     ; 0x20fd <printf+0xbdd>
     a53: 64 f3        	stz	$f3                     ; 0x20f3 <printf+0xbd3>
     a55: 85 f5        	sta	$f5                     ; 0x20f5 <printf+0xbd5>
     a57: a2 37        	ldx	#$37
     a59: 86 12        	stx	$12                     ; 0x2012 <printf+0xaf2>
     a5b: a2 00        	ldx	#$0
     a5d: 86 13        	stx	$13                     ; 0x2013 <printf+0xaf3>
     a5f: 20 5c ff     	jsr	$ff5c <__heap_start+0xd90c>
     a62: 92 24        	sta	($24)                   ; 0x2024 <printf+0xb04>
     a64: a9 00        	lda	#$0
     a66: 6a           	ror
     a67: 85 12        	sta	$12                     ; 0x2012 <printf+0xaf2>
     a69: a6 37        	ldx	$37                     ; 0x2037 <printf+0xb17>
     a6b: d0 03        	bne	$a70 <main+0x517>
     a6d: 4c df 0e     	jmp	$edf <main+0x986>
     a70: a2 00        	ldx	#$0
     a72: 86 12        	stx	$12                     ; 0x2012 <printf+0xaf2>
     a74: a2 00        	ldx	#$0
     a76: 86 13        	stx	$13                     ; 0x2013 <printf+0xaf3>
     a78: a6 12        	ldx	$12                     ; 0x2012 <printf+0xaf2>
     a7a: a4 13        	ldy	$13                     ; 0x2013 <printf+0xaf3>
     a7c: 86 35        	stx	$35                     ; 0x2035 <printf+0xb15>
     a7e: 84 36        	sty	$36                     ; 0x2036 <printf+0xb16>
     a80: a9 1e        	lda	#$1e
     a82: 92 10        	sta	($10)                   ; 0x2010 <printf+0xaf0>
     a84: a0 01        	ldy	#$1
     a86: a9 26        	lda	#$26
     a88: 91 10        	sta	($10),y                 ; 0x2010 <printf+0xaf0>
     a8a: a2 29        	ldx	#$29
     a8c: 86 12        	stx	$12                     ; 0x2012 <printf+0xaf2>
     a8e: a2 26        	ldx	#$26
     a90: 86 13        	stx	$13                     ; 0x2013 <printf+0xaf3>
     a92: 20 20 15     	jsr	$1520 <printf>
     a95: a6 35        	ldx	$35                     ; 0x2035 <printf+0xb15>
     a97: a4 36        	ldy	$36                     ; 0x2036 <printf+0xb16>
     a99: 86 26        	stx	$26                     ; 0x2026 <printf+0xb06>
     a9b: 84 27        	sty	$27                     ; 0x2027 <printf+0xb07>
     a9d: a2 40        	ldx	#$40
     a9f: a4 24        	ldy	$24                     ; 0x2024 <printf+0xb04>
     aa1: 84 28        	sty	$28                     ; 0x2028 <printf+0xb08>
     aa3: a4 25        	ldy	$25                     ; 0x2025 <printf+0xb05>
     aa5: 84 29        	sty	$29                     ; 0x2029 <printf+0xb09>
     aa7: a4 28        	ldy	$28                     ; 0x2028 <printf+0xb08>
     aa9: 84 12        	sty	$12                     ; 0x2012 <printf+0xaf2>
     aab: a4 29        	ldy	$29                     ; 0x2029 <printf+0xb09>
     aad: 84 13        	sty	$13                     ; 0x2013 <printf+0xaf3>
     aaf: a4 26        	ldy	$26                     ; 0x2026 <printf+0xb06>
     ab1: 84 14        	sty	$14                     ; 0x2014 <printf+0xaf4>
     ab3: a4 27        	ldy	$27                     ; 0x2027 <printf+0xb07>
     ab5: 84 15        	sty	$15                     ; 0x2015 <printf+0xaf5>
     ab7: 86 2e        	stx	$2e                     ; 0x202e <printf+0xb0e>
     ab9: a2 00        	ldx	#$0
     abb: a9 80        	lda	#$80
     abd: 20 76 0f     	jsr	$f76 <fileRead>
     ac0: a6 2e        	ldx	$2e                     ; 0x202e <printf+0xb0e>
     ac2: ca           	dex
     ac3: a5 28        	lda	$28                     ; 0x2028 <printf+0xb08>
     ac5: 18           	clc
     ac6: 69 80        	adc	#$80
     ac8: 85 28        	sta	$28                     ; 0x2028 <printf+0xb08>
     aca: a5 29        	lda	$29                     ; 0x2029 <printf+0xb09>
     acc: 69 00        	adc	#$0
     ace: 85 29        	sta	$29                     ; 0x2029 <printf+0xb09>
     ad0: 8a           	txa
     ad1: d0 d4        	bne	$aa7 <main+0x54e>
     ad3: a2 d7        	ldx	#$d7
     ad5: 86 12        	stx	$12                     ; 0x2012 <printf+0xaf2>
     ad7: a2 25        	ldx	#$25
     ad9: 86 13        	stx	$13                     ; 0x2013 <printf+0xaf3>
     adb: 20 20 15     	jsr	$1520 <printf>
     ade: a2 37        	ldx	#$37
     ae0: 86 12        	stx	$12                     ; 0x2012 <printf+0xaf2>
     ae2: a2 00        	ldx	#$0
     ae4: 86 13        	stx	$13                     ; 0x2013 <printf+0xaf3>
     ae6: 64 38        	stz	$38                     ; 0x2038 <printf+0xb18>
     ae8: 20 00 ff     	jsr	$ff00 <__heap_start+0xd8b0>
     aeb: 92 2c        	sta	($2c)                   ; 0x202c <printf+0xb0c>
     aed: a9 00        	lda	#$0
     aef: 6a           	ror
     af0: 85 12        	sta	$12                     ; 0x2012 <printf+0xaf2>
     af2: a6 38        	ldx	$38                     ; 0x2038 <printf+0xb18>
     af4: e0 08        	cpx	#$8
     af6: d0 ee        	bne	$ae6 <main+0x58d>
     af8: a6 3c        	ldx	$3c                     ; 0x203c <printf+0xb1c>
     afa: e0 20        	cpx	#$20
     afc: f0 04        	beq	$b02 <main+0x5a9>
     afe: e0 94        	cpx	#$94
     b00: d0 e4        	bne	$ae6 <main+0x58d>
     b02: a5 34        	lda	$34                     ; 0x2034 <printf+0xb14>
     b04: 4a           	lsr
     b05: 64 12        	stz	$12                     ; 0x2012 <printf+0xaf2>
     b07: 66 12        	ror	$12                     ; 0x2012 <printf+0xaf2>
     b09: a2 01        	ldx	#$1
     b0b: a5 12        	lda	$12                     ; 0x2012 <printf+0xaf2>
     b0d: 30 02        	bmi	$b11 <main+0x5b8>
     b0f: a2 00        	ldx	#$0
     b11: a0 ff        	ldy	#$ff
     b13: 98           	tya
     b14: e0 00        	cpx	#$0
     b16: d0 02        	bne	$b1a <main+0x5c1>
     b18: a9 00        	lda	#$0
     b1a: aa           	tax
     b1b: 30 02        	bmi	$b1f <main+0x5c6>
     b1d: a0 00        	ldy	#$0
     b1f: 06 12        	asl	$12                     ; 0x2012 <printf+0xaf2>
     b21: 85 12        	sta	$12                     ; 0x2012 <printf+0xaf2>
     b23: 26 12        	rol	$12                     ; 0x2012 <printf+0xaf2>
     b25: 85 13        	sta	$13                     ; 0x2013 <printf+0xaf3>
     b27: 26 13        	rol	$13                     ; 0x2013 <printf+0xaf3>
     b29: 2a           	rol
     b2a: 84 14        	sty	$14                     ; 0x2014 <printf+0xaf4>
     b2c: 26 14        	rol	$14                     ; 0x2014 <printf+0xaf4>
     b2e: aa           	tax
     b2f: a5 12        	lda	$12                     ; 0x2012 <printf+0xaf2>
     b31: 92 10        	sta	($10)                   ; 0x2010 <printf+0xaf0>
     b33: a0 01        	ldy	#$1
     b35: a5 13        	lda	$13                     ; 0x2013 <printf+0xaf3>
     b37: 91 10        	sta	($10),y                 ; 0x2010 <printf+0xaf0>
     b39: c8           	iny
     b3a: 8a           	txa
     b3b: 91 10        	sta	($10),y                 ; 0x2010 <printf+0xaf0>
     b3d: c8           	iny
     b3e: a5 14        	lda	$14                     ; 0x2014 <printf+0xaf4>
     b40: 91 10        	sta	($10),y                 ; 0x2010 <printf+0xaf0>
     b42: a2 1f        	ldx	#$1f
     b44: 86 12        	stx	$12                     ; 0x2012 <printf+0xaf2>
     b46: a2 25        	ldx	#$25
     b48: 86 13        	stx	$13                     ; 0x2013 <printf+0xaf3>
     b4a: 20 20 15     	jsr	$1520 <printf>
     b4d: a0 08        	ldy	#$8
     b4f: a2 00        	ldx	#$0
     b51: b2 24        	lda	($24)                   ; 0x2024 <printf+0xb04>
     b53: 8d 07 d7     	sta	$d707                   ; 0xd707 <__heap_start+0xb0b7>
     b56: ca           	dex
     b57: e0 ff        	cpx	#$ff
     b59: d0 01        	bne	$b5c <main+0x603>
     b5b: 88           	dey
     b5c: e6 24        	inc	$24                     ; 0x2024 <printf+0xb04>
     b5e: d0 02        	bne	$b62 <main+0x609>
     b60: e6 25        	inc	$25                     ; 0x2025 <printf+0xb05>
     b62: 98           	tya
     b63: d0 ec        	bne	$b51 <main+0x5f8>
     b65: 8a           	txa
     b66: d0 e9        	bne	$b51 <main+0x5f8>
     b68: 18           	clc
     b69: a5 10        	lda	$10                     ; 0x2010 <printf+0xaf0>
     b6b: 69 0d        	adc	#$d
     b6d: 48           	pha
     b6e: a5 11        	lda	$11                     ; 0x2011 <printf+0xaf1>
     b70: 69 00        	adc	#$0
     b72: 85 12        	sta	$12                     ; 0x2012 <printf+0xaf2>
     b74: 68           	pla
     b75: 18           	clc
     b76: 69 00        	adc	#$0
     b78: aa           	tax
     b79: a5 12        	lda	$12                     ; 0x2012 <printf+0xaf2>
     b7b: 69 08        	adc	#$8
     b7d: 86 12        	stx	$12                     ; 0x2012 <printf+0xaf2>
     b7f: 85 13        	sta	$13                     ; 0x2013 <printf+0xaf3>
     b81: a0 08        	ldy	#$8
     b83: a2 00        	ldx	#$0
     b85: b2 12        	lda	($12)                   ; 0x2012 <printf+0xaf2>
     b87: 8d 07 d7     	sta	$d707                   ; 0xd707 <__heap_start+0xb0b7>
     b8a: ca           	dex
     b8b: e0 ff        	cpx	#$ff
     b8d: d0 01        	bne	$b90 <main+0x637>
     b8f: 88           	dey
     b90: e6 12        	inc	$12                     ; 0x2012 <printf+0xaf2>
     b92: d0 02        	bne	$b96 <main+0x63d>
     b94: e6 13        	inc	$13                     ; 0x2013 <printf+0xaf3>
     b96: 98           	tya
     b97: d0 ec        	bne	$b85 <main+0x62c>
     b99: 8a           	txa
     b9a: d0 e9        	bne	$b85 <main+0x62c>
     b9c: a2 8b        	ldx	#$8b
     b9e: 86 12        	stx	$12                     ; 0x2012 <printf+0xaf2>
     ba0: a2 25        	ldx	#$25
     ba2: 86 13        	stx	$13                     ; 0x2013 <printf+0xaf3>
     ba4: 20 20 15     	jsr	$1520 <printf>
     ba7: a2 bc        	ldx	#$bc
     ba9: 86 12        	stx	$12                     ; 0x2012 <printf+0xaf2>
     bab: a2 25        	ldx	#$25
     bad: 86 13        	stx	$13                     ; 0x2013 <printf+0xaf3>
     baf: 20 20 15     	jsr	$1520 <printf>
     bb2: a5 34        	lda	$34                     ; 0x2034 <printf+0xb14>
     bb4: 29 01        	and	#$1
     bb6: d0 03        	bne	$bbb <main+0x662>
     bb8: 4c f7 0c     	jmp	$cf7 <main+0x79e>
     bbb: a2 10        	ldx	#$10
     bbd: 8a           	txa
     bbe: a0 0c        	ldy	#$c
     bc0: 91 10        	sta	($10),y                 ; 0x2010 <printf+0xaf0>
     bc2: 64 26        	stz	$26                     ; 0x2026 <printf+0xb06>
     bc4: 64 28        	stz	$28                     ; 0x2028 <printf+0xb08>
     bc6: 64 27        	stz	$27                     ; 0x2027 <printf+0xb07>
     bc8: 4c 39 0c     	jmp	$c39 <main+0x6e0>
     bcb: 84 27        	sty	$27                     ; 0x2027 <printf+0xb07>
     bcd: a6 26        	ldx	$26                     ; 0x2026 <printf+0xb06>
     bcf: 18           	clc
     bd0: a5 10        	lda	$10                     ; 0x2010 <printf+0xaf0>
     bd2: 69 0d        	adc	#$d
     bd4: 85 12        	sta	$12                     ; 0x2012 <printf+0xaf2>
     bd6: a5 11        	lda	$11                     ; 0x2011 <printf+0xaf1>
     bd8: 69 00        	adc	#$0
     bda: 85 13        	sta	$13                     ; 0x2013 <printf+0xaf3>
     bdc: 8a           	txa
     bdd: 18           	clc
     bde: 65 12        	adc	$12                     ; 0x2012 <printf+0xaf2>
     be0: 85 12        	sta	$12                     ; 0x2012 <printf+0xaf2>
     be2: a5 28        	lda	$28                     ; 0x2028 <printf+0xb08>
     be4: 65 13        	adc	$13                     ; 0x2013 <printf+0xaf3>
     be6: 85 13        	sta	$13                     ; 0x2013 <printf+0xaf3>
     be8: a6 35        	ldx	$35                     ; 0x2035 <printf+0xb15>
     bea: 86 14        	stx	$14                     ; 0x2014 <printf+0xaf4>
     bec: a6 36        	ldx	$36                     ; 0x2036 <printf+0xb16>
     bee: 86 15        	stx	$15                     ; 0x2015 <printf+0xaf5>
     bf0: a2 00        	ldx	#$0
     bf2: a9 40        	lda	#$40
     bf4: 20 76 0f     	jsr	$f76 <fileRead>
     bf7: a5 26        	lda	$26                     ; 0x2026 <printf+0xb06>
     bf9: 18           	clc
     bfa: 69 40        	adc	#$40
     bfc: 85 12        	sta	$12                     ; 0x2012 <printf+0xaf2>
     bfe: a5 28        	lda	$28                     ; 0x2028 <printf+0xb08>
     c00: 69 00        	adc	#$0
     c02: 85 28        	sta	$28                     ; 0x2028 <printf+0xb08>
     c04: c9 20        	cmp	#$20
     c06: d0 0e        	bne	$c16 <main+0x6bd>
     c08: a6 29        	ldx	$29                     ; 0x2029 <printf+0xb09>
     c0a: a4 2e        	ldy	$2e                     ; 0x202e <printf+0xb0e>
     c0c: a5 12        	lda	$12                     ; 0x2012 <printf+0xaf2>
     c0e: d0 0c        	bne	$c1c <main+0x6c3>
     c10: a9 00        	lda	#$0
     c12: 64 28        	stz	$28                     ; 0x2028 <printf+0xb08>
     c14: 80 06        	bra	$c1c <main+0x6c3>
     c16: a6 29        	ldx	$29                     ; 0x2029 <printf+0xb09>
     c18: a4 2e        	ldy	$2e                     ; 0x202e <printf+0xb0e>
     c1a: a5 12        	lda	$12                     ; 0x2012 <printf+0xaf2>
     c1c: 85 26        	sta	$26                     ; 0x2026 <printf+0xb06>
     c1e: e8           	inx
     c1f: d0 01        	bne	$c22 <main+0x6c9>
     c21: c8           	iny
     c22: c4 25        	cpy	$25                     ; 0x2025 <printf+0xb05>
     c24: f0 03        	beq	$c29 <main+0x6d0>
     c26: 4c 9d 0c     	jmp	$c9d <main+0x744>
     c29: e4 24        	cpx	$24                     ; 0x2024 <printf+0xb04>
     c2b: f0 03        	beq	$c30 <main+0x6d7>
     c2d: 4c 9d 0c     	jmp	$c9d <main+0x744>
     c30: a5 34        	lda	$34                     ; 0x2034 <printf+0xb14>
     c32: 29 01        	and	#$1
     c34: d0 03        	bne	$c39 <main+0x6e0>
     c36: 4c f7 0c     	jmp	$cf7 <main+0x79e>
     c39: ae 04 d7     	ldx	$d704                   ; 0xd704 <__heap_start+0xb0b4>
     c3c: 86 12        	stx	$12                     ; 0x2012 <printf+0xaf2>
     c3e: ad 05 d7     	lda	$d705                   ; 0xd705 <__heap_start+0xb0b5>
     c41: 29 0f        	and	#$f
     c43: 85 13        	sta	$13                     ; 0x2013 <printf+0xaf3>
     c45: a9 00        	lda	#$0
     c47: 38           	sec
     c48: e5 12        	sbc	$12                     ; 0x2012 <printf+0xaf2>
     c4a: 85 12        	sta	$12                     ; 0x2012 <printf+0xaf2>
     c4c: a9 08        	lda	#$8
     c4e: e5 13        	sbc	$13                     ; 0x2013 <printf+0xaf3>
     c50: 06 12        	asl	$12                     ; 0x2012 <printf+0xaf2>
     c52: 2a           	rol
     c53: 64 25        	stz	$25                     ; 0x2025 <printf+0xb05>
     c55: 26 25        	rol	$25                     ; 0x2025 <printf+0xb05>
     c57: 06 12        	asl	$12                     ; 0x2012 <printf+0xaf2>
     c59: 2a           	rol
     c5a: 85 24        	sta	$24                     ; 0x2024 <printf+0xb04>
     c5c: 26 25        	rol	$25                     ; 0x2025 <printf+0xb05>
     c5e: 64 30        	stz	$30                     ; 0x2030 <printf+0xb10>
     c60: 9c 14 d0     	stz	$d014                   ; 0xd014 <__heap_start+0xa9c4>
     c63: 9c 15 d0     	stz	$d015                   ; 0xd015 <__heap_start+0xa9c5>
     c66: a2 07        	ldx	#$7
     c68: 86 31        	stx	$31                     ; 0x2031 <printf+0xb11>
     c6a: 8e 16 d0     	stx	$d016                   ; 0xd016 <__heap_start+0xa9c6>
     c6d: 9c 17 d0     	stz	$d017                   ; 0xd017 <__heap_start+0xa9c7>
     c70: 38           	sec
     c71: a9 20        	lda	#$20
     c73: e5 24        	sbc	$24                     ; 0x2024 <printf+0xb04>
     c75: a8           	tay
     c76: a9 00        	lda	#$0
     c78: e5 25        	sbc	$25                     ; 0x2025 <printf+0xb05>
     c7a: 64 12        	stz	$12                     ; 0x2012 <printf+0xaf2>
     c7c: 64 13        	stz	$13                     ; 0x2013 <printf+0xaf3>
     c7e: aa           	tax
     c7f: 98           	tya
     c80: 20 79 12     	jsr	$1279 <textPrintUInt>
     c83: a2 64        	ldx	#$64
     c85: 86 12        	stx	$12                     ; 0x2012 <printf+0xaf2>
     c87: a2 25        	ldx	#$25
     c89: 86 13        	stx	$13                     ; 0x2013 <printf+0xaf3>
     c8b: 20 c1 10     	jsr	$10c1 <textPrint>
     c8e: a5 25        	lda	$25                     ; 0x2025 <printf+0xb05>
     c90: d0 07        	bne	$c99 <main+0x740>
     c92: a5 24        	lda	$24                     ; 0x2024 <printf+0xb04>
     c94: d0 03        	bne	$c99 <main+0x740>
     c96: 4c 30 0c     	jmp	$c30 <main+0x6d7>
     c99: a2 00        	ldx	#$0
     c9b: a0 00        	ldy	#$0
     c9d: 84 2e        	sty	$2e                     ; 0x202e <printf+0xb0e>
     c9f: 86 29        	stx	$29                     ; 0x2029 <printf+0xb09>
     ca1: 18           	clc
     ca2: a5 10        	lda	$10                     ; 0x2010 <printf+0xaf0>
     ca4: 69 0d        	adc	#$d
     ca6: 85 12        	sta	$12                     ; 0x2012 <printf+0xaf2>
     ca8: a5 11        	lda	$11                     ; 0x2011 <printf+0xaf1>
     caa: 69 00        	adc	#$0
     cac: 85 13        	sta	$13                     ; 0x2013 <printf+0xaf3>
     cae: a5 27        	lda	$27                     ; 0x2027 <printf+0xb07>
     cb0: 18           	clc
     cb1: 65 12        	adc	$12                     ; 0x2012 <printf+0xaf2>
     cb3: 85 12        	sta	$12                     ; 0x2012 <printf+0xaf2>
     cb5: a0 0c        	ldy	#$c
     cb7: b1 10        	lda	($10),y                 ; 0x2010 <printf+0xaf0>
     cb9: 65 13        	adc	$13                     ; 0x2013 <printf+0xaf3>
     cbb: 85 13        	sta	$13                     ; 0x2013 <printf+0xaf3>
     cbd: a0 00        	ldy	#$0
     cbf: b1 12        	lda	($12),y                 ; 0x2012 <printf+0xaf2>
     cc1: 8d 07 d7     	sta	$d707                   ; 0xd707 <__heap_start+0xb0b7>
     cc4: c8           	iny
     cc5: c0 40        	cpy	#$40
     cc7: d0 f6        	bne	$cbf <main+0x766>
     cc9: 18           	clc
     cca: a5 27        	lda	$27                     ; 0x2027 <printf+0xb07>
     ccc: 69 40        	adc	#$40
     cce: a8           	tay
     ccf: 5a           	phy
     cd0: a0 0c        	ldy	#$c
     cd2: b1 10        	lda	($10),y                 ; 0x2010 <printf+0xaf0>
     cd4: 69 00        	adc	#$0
     cd6: 91 10        	sta	($10),y                 ; 0x2010 <printf+0xaf0>
     cd8: 7a           	ply
     cd9: c9 20        	cmp	#$20
     cdb: f0 03        	beq	$ce0 <main+0x787>
     cdd: 4c cb 0b     	jmp	$bcb <main+0x672>
     ce0: a6 26        	ldx	$26                     ; 0x2026 <printf+0xb06>
     ce2: 84 27        	sty	$27                     ; 0x2027 <printf+0xb07>
     ce4: 98           	tya
     ce5: f0 03        	beq	$cea <main+0x791>
     ce7: 4c cf 0b     	jmp	$bcf <main+0x676>
     cea: 64 27        	stz	$27                     ; 0x2027 <printf+0xb07>
     cec: 64 12        	stz	$12                     ; 0x2012 <printf+0xaf2>
     cee: a9 00        	lda	#$0
     cf0: a0 0c        	ldy	#$c
     cf2: 91 10        	sta	($10),y                 ; 0x2010 <printf+0xaf0>
     cf4: 4c cf 0b     	jmp	$bcf <main+0x676>
     cf7: a4 35        	ldy	$35                     ; 0x2035 <printf+0xb15>
     cf9: a6 36        	ldx	$36                     ; 0x2036 <printf+0xb16>
     cfb: 84 12        	sty	$12                     ; 0x2012 <printf+0xaf2>
     cfd: 86 13        	stx	$13                     ; 0x2013 <printf+0xaf3>
     cff: 86 15        	stx	$15                     ; 0x2015 <printf+0xaf5>
     d01: b2 12        	lda	($12)                   ; 0x2012 <printf+0xaf2>
     d03: 85 f3        	sta	$f3                     ; 0x20f3 <printf+0xbd3>
     d05: a2 37        	ldx	#$37
     d07: 86 12        	stx	$12                     ; 0x2012 <printf+0xaf2>
     d09: a2 00        	ldx	#$0
     d0b: 86 13        	stx	$13                     ; 0x2013 <printf+0xaf3>
     d0d: 84 14        	sty	$14                     ; 0x2014 <printf+0xaf4>
     d0f: 98           	tya
     d10: 18           	clc
     d11: 69 fe        	adc	#$fe
     d13: 85 18        	sta	$18                     ; 0x2018 <printf+0xaf8>
     d15: a5 15        	lda	$15                     ; 0x2015 <printf+0xaf5>
     d17: 85 17        	sta	$17                     ; 0x2017 <printf+0xaf7>
     d19: 69 ff        	adc	#$ff
     d1b: 85 16        	sta	$16                     ; 0x2016 <printf+0xaf6>
     d1d: a6 18        	ldx	$18                     ; 0x2018 <printf+0xaf8>
     d1f: 86 24        	stx	$24                     ; 0x2024 <printf+0xb04>
     d21: 85 25        	sta	$25                     ; 0x2025 <printf+0xb05>
     d23: a0 01        	ldy	#$1
     d25: 20 68 ff     	jsr	$ff68 <__heap_start+0xd918>
     d28: 92 2c        	sta	($2c)                   ; 0x202c <printf+0xb0c>
     d2a: a9 00        	lda	#$0
     d2c: 6a           	ror
     d2d: 85 12        	sta	$12                     ; 0x2012 <printf+0xaf2>
     d2f: b1 24        	lda	($24),y                 ; 0x2024 <printf+0xb04>
     d31: 85 28        	sta	$28                     ; 0x2028 <printf+0xb08>
     d33: a9 fe        	lda	#$fe
     d35: 32 24        	and	($24)                   ; 0x2024 <printf+0xb04>
     d37: 85 29        	sta	$29                     ; 0x2029 <printf+0xb09>
     d39: 86 15        	stx	$15                     ; 0x2015 <printf+0xaf5>
     d3b: a5 18        	lda	$18                     ; 0x2018 <printf+0xaf8>
     d3d: 18           	clc
     d3e: 65 29        	adc	$29                     ; 0x2029 <printf+0xb09>
     d40: 85 13        	sta	$13                     ; 0x2013 <printf+0xaf3>
     d42: a5 16        	lda	$16                     ; 0x2016 <printf+0xaf6>
     d44: 65 28        	adc	$28                     ; 0x2028 <printf+0xb08>
     d46: a8           	tay
     d47: b2 24        	lda	($24)                   ; 0x2024 <printf+0xb04>
     d49: c4 2b        	cpy	$2b                     ; 0x202b <printf+0xb0b>
     d4b: d0 10        	bne	$d5d <main+0x804>
     d4d: a6 13        	ldx	$13                     ; 0x2013 <printf+0xaf3>
     d4f: e4 2a        	cpx	$2a                     ; 0x202a <printf+0xb0a>
     d51: d0 0c        	bne	$d5f <main+0x806>
     d53: a2 00        	ldx	#$0
     d55: 86 26        	stx	$26                     ; 0x2026 <printf+0xb06>
     d57: a2 00        	ldx	#$0
     d59: 86 27        	stx	$27                     ; 0x2027 <printf+0xb07>
     d5b: 80 06        	bra	$d63 <main+0x80a>
     d5d: a6 13        	ldx	$13                     ; 0x2013 <printf+0xaf3>
     d5f: 86 26        	stx	$26                     ; 0x2026 <printf+0xb06>
     d61: 84 27        	sty	$27                     ; 0x2027 <printf+0xb07>
     d63: 29 01        	and	#$1
     d65: f0 4b        	beq	$db2 <main+0x859>
     d67: 18           	clc
     d68: a5 14        	lda	$14                     ; 0x2014 <printf+0xaf4>
     d6a: 69 fc        	adc	#$fc
     d6c: 85 12        	sta	$12                     ; 0x2012 <printf+0xaf2>
     d6e: a5 17        	lda	$17                     ; 0x2017 <printf+0xaf7>
     d70: 69 ff        	adc	#$ff
     d72: 85 13        	sta	$13                     ; 0x2013 <printf+0xaf3>
     d74: a0 01        	ldy	#$1
     d76: 38           	sec
     d77: a9 00        	lda	#$0
     d79: f2 12        	sbc	($12)                   ; 0x2012 <printf+0xaf2>
     d7b: 85 14        	sta	$14                     ; 0x2014 <printf+0xaf4>
     d7d: a9 00        	lda	#$0
     d7f: f1 12        	sbc	($12),y                 ; 0x2012 <printf+0xaf2>
     d81: 85 12        	sta	$12                     ; 0x2012 <printf+0xaf2>
     d83: a5 15        	lda	$15                     ; 0x2015 <printf+0xaf5>
     d85: 18           	clc
     d86: 65 14        	adc	$14                     ; 0x2014 <printf+0xaf4>
     d88: 85 24        	sta	$24                     ; 0x2024 <printf+0xb04>
     d8a: a5 16        	lda	$16                     ; 0x2016 <printf+0xaf6>
     d8c: 65 12        	adc	$12                     ; 0x2012 <printf+0xaf2>
     d8e: 85 25        	sta	$25                     ; 0x2025 <printf+0xb05>
     d90: b1 24        	lda	($24),y                 ; 0x2024 <printf+0xb04>
     d92: 85 2e        	sta	$2e                     ; 0x202e <printf+0xb0e>
     d94: a9 fe        	lda	#$fe
     d96: 32 24        	and	($24)                   ; 0x2024 <printf+0xb04>
     d98: 85 2f        	sta	$2f                     ; 0x202f <printf+0xb0f>
     d9a: a6 24        	ldx	$24                     ; 0x2024 <printf+0xb04>
     d9c: 86 12        	stx	$12                     ; 0x2012 <printf+0xaf2>
     d9e: a6 25        	ldx	$25                     ; 0x2025 <printf+0xb05>
     da0: 86 13        	stx	$13                     ; 0x2013 <printf+0xaf3>
     da2: 20 54 04     	jsr	$454 <_ZN12_GLOBAL__N_19FreeChunk6removeEv>
     da5: 18           	clc
     da6: a5 2f        	lda	$2f                     ; 0x202f <printf+0xb0f>
     da8: 65 29        	adc	$29                     ; 0x2029 <printf+0xb09>
     daa: 85 29        	sta	$29                     ; 0x2029 <printf+0xb09>
     dac: a5 2e        	lda	$2e                     ; 0x202e <printf+0xb0e>
     dae: 65 28        	adc	$28                     ; 0x2028 <printf+0xb08>
     db0: 85 28        	sta	$28                     ; 0x2028 <printf+0xb08>
     db2: a2 00        	ldx	#$0
     db4: 86 12        	stx	$12                     ; 0x2012 <printf+0xaf2>
     db6: a2 00        	ldx	#$0
     db8: 86 13        	stx	$13                     ; 0x2013 <printf+0xaf3>
     dba: a6 27        	ldx	$27                     ; 0x2027 <printf+0xb07>
     dbc: e4 13        	cpx	$13                     ; 0x2013 <printf+0xaf3>
     dbe: d0 0d        	bne	$dcd <main+0x874>
     dc0: a6 26        	ldx	$26                     ; 0x2026 <printf+0xb06>
     dc2: e4 12        	cpx	$12                     ; 0x2012 <printf+0xaf2>
     dc4: d0 07        	bne	$dcd <main+0x874>
     dc6: a2 01        	ldx	#$1
     dc8: 8e 4a 26     	stx	$264a                   ; 0x264a <_ZN12_GLOBAL__N_19last_freeE>
     dcb: 80 52        	bra	$e1f <main+0x8c6>
     dcd: a0 01        	ldy	#$1
     dcf: b1 26        	lda	($26),y                 ; 0x2026 <printf+0xb06>
     dd1: aa           	tax
     dd2: a9 fe        	lda	#$fe
     dd4: 32 26        	and	($26)                   ; 0x2026 <printf+0xb06>
     dd6: 18           	clc
     dd7: 85 2f        	sta	$2f                     ; 0x202f <printf+0xb0f>
     dd9: 65 26        	adc	$26                     ; 0x2026 <printf+0xb06>
     ddb: 85 12        	sta	$12                     ; 0x2012 <printf+0xaf2>
     ddd: 8a           	txa
     dde: 86 2e        	stx	$2e                     ; 0x202e <printf+0xb0e>
     de0: 65 27        	adc	$27                     ; 0x2027 <printf+0xb07>
     de2: c5 2b        	cmp	$2b                     ; 0x202b <printf+0xb0b>
     de4: d0 0f        	bne	$df5 <main+0x89c>
     de6: a6 12        	ldx	$12                     ; 0x2012 <printf+0xaf2>
     de8: e4 2a        	cpx	$2a                     ; 0x202a <printf+0xb0a>
     dea: d0 09        	bne	$df5 <main+0x89c>
     dec: a9 01        	lda	#$1
     dee: 64 12        	stz	$12                     ; 0x2012 <printf+0xaf2>
     df0: 2d 4a 26     	and	$264a                   ; 0x264a <_ZN12_GLOBAL__N_19last_freeE>
     df3: 80 08        	bra	$dfd <main+0x8a4>
     df5: 85 13        	sta	$13                     ; 0x2013 <printf+0xaf3>
     df7: a9 01        	lda	#$1
     df9: 32 12        	and	($12)                   ; 0x2012 <printf+0xaf2>
     dfb: 64 12        	stz	$12                     ; 0x2012 <printf+0xaf2>
     dfd: a6 12        	ldx	$12                     ; 0x2012 <printf+0xaf2>
     dff: d0 06        	bne	$e07 <main+0x8ae>
     e01: aa           	tax
     e02: d0 03        	bne	$e07 <main+0x8ae>
     e04: 4c 69 0f     	jmp	$f69 <main+0xa10>
     e07: a6 26        	ldx	$26                     ; 0x2026 <printf+0xb06>
     e09: 86 12        	stx	$12                     ; 0x2012 <printf+0xaf2>
     e0b: a6 27        	ldx	$27                     ; 0x2027 <printf+0xb07>
     e0d: 86 13        	stx	$13                     ; 0x2013 <printf+0xaf3>
     e0f: 20 54 04     	jsr	$454 <_ZN12_GLOBAL__N_19FreeChunk6removeEv>
     e12: 18           	clc
     e13: a5 2f        	lda	$2f                     ; 0x202f <printf+0xb0f>
     e15: 65 29        	adc	$29                     ; 0x2029 <printf+0xb09>
     e17: 85 29        	sta	$29                     ; 0x2029 <printf+0xb09>
     e19: a5 2e        	lda	$2e                     ; 0x202e <printf+0xb0e>
     e1b: 65 28        	adc	$28                     ; 0x2028 <printf+0xb08>
     e1d: 85 28        	sta	$28                     ; 0x2028 <printf+0xb08>
     e1f: a6 24        	ldx	$24                     ; 0x2024 <printf+0xb04>
     e21: 86 12        	stx	$12                     ; 0x2012 <printf+0xaf2>
     e23: a6 25        	ldx	$25                     ; 0x2025 <printf+0xb05>
     e25: 86 13        	stx	$13                     ; 0x2013 <printf+0xaf3>
     e27: a6 28        	ldx	$28                     ; 0x2028 <printf+0xb08>
     e29: a5 29        	lda	$29                     ; 0x2029 <printf+0xb09>
     e2b: 20 16 03     	jsr	$316 <_ZN12_GLOBAL__N_19FreeChunk6insertEPvj>
     e2e: a2 37        	ldx	#$37
     e30: 86 12        	stx	$12                     ; 0x2012 <printf+0xaf2>
     e32: a2 00        	ldx	#$0
     e34: 86 13        	stx	$13                     ; 0x2013 <printf+0xaf3>
     e36: 64 38        	stz	$38                     ; 0x2038 <printf+0xb18>
     e38: 20 00 ff     	jsr	$ff00 <__heap_start+0xd8b0>
     e3b: 92 2c        	sta	($2c)                   ; 0x202c <printf+0xb0c>
     e3d: a9 00        	lda	#$0
     e3f: 6a           	ror
     e40: 85 12        	sta	$12                     ; 0x2012 <printf+0xaf2>
     e42: a6 38        	ldx	$38                     ; 0x2038 <printf+0xb18>
     e44: e0 38        	cpx	#$38
     e46: f0 04        	beq	$e4c <main+0x8f3>
     e48: e0 32        	cpx	#$32
     e4a: d0 ea        	bne	$e36 <main+0x8dd>
     e4c: a2 66        	ldx	#$66
     e4e: 86 12        	stx	$12                     ; 0x2012 <printf+0xaf2>
     e50: a2 25        	ldx	#$25
     e52: 86 13        	stx	$13                     ; 0x2013 <printf+0xaf3>
     e54: 20 20 15     	jsr	$1520 <printf>
     e57: a2 37        	ldx	#$37
     e59: 86 12        	stx	$12                     ; 0x2012 <printf+0xaf2>
     e5b: a2 00        	ldx	#$0
     e5d: 86 13        	stx	$13                     ; 0x2013 <printf+0xaf3>
     e5f: 64 38        	stz	$38                     ; 0x2038 <printf+0xb18>
     e61: 20 00 ff     	jsr	$ff00 <__heap_start+0xd8b0>
     e64: 92 2c        	sta	($2c)                   ; 0x202c <printf+0xb0c>
     e66: a9 00        	lda	#$0
     e68: 6a           	ror
     e69: 85 12        	sta	$12                     ; 0x2012 <printf+0xaf2>
     e6b: a6 38        	ldx	$38                     ; 0x2038 <printf+0xb18>
     e6d: e0 08        	cpx	#$8
     e6f: d0 ee        	bne	$e5f <main+0x906>
     e71: a6 3c        	ldx	$3c                     ; 0x203c <printf+0xb1c>
     e73: e0 20        	cpx	#$20
     e75: f0 04        	beq	$e7b <main+0x922>
     e77: e0 94        	cpx	#$94
     e79: d0 e4        	bne	$e5f <main+0x906>
     e7b: 78           	sei
     e7c: a2 07        	ldx	#$7
     e7e: 86 0f        	stx	$f                      ; 0x200f <printf+0xaef>
     e80: a2 de        	ldx	#$de
     e82: 8e a2 d6     	stx	$d6a2                   ; 0xd6a2 <__heap_start+0xb052>
     e85: a2 ad        	ldx	#$ad
     e87: 8e a3 d6     	stx	$d6a3                   ; 0xd6a3 <__heap_start+0xb053>
     e8a: a2 f0        	ldx	#$f0
     e8c: 8e a0 d6     	stx	$d6a0                   ; 0xd6a0 <__heap_start+0xb050>
     e8f: 9c a0 d6     	stz	$d6a0                   ; 0xd6a0 <__heap_start+0xb050>
     e92: 6c fc ff     	jmp	($fffc)                 ; 0xfffc <__heap_start+0xd9ac>
     e95: a2 00        	ldx	#$0
     e97: 8a           	txa
     e98: 85 20        	sta	$20                     ; 0x2020 <printf+0xb00>
     e9a: a0 04        	ldy	#$4
     e9c: b1 10        	lda	($10),y                 ; 0x2010 <printf+0xaf0>
     e9e: 85 2f        	sta	$2f                     ; 0x202f <printf+0xb0f>
     ea0: c8           	iny
     ea1: b1 10        	lda	($10),y                 ; 0x2010 <printf+0xaf0>
     ea3: 85 2e        	sta	$2e                     ; 0x202e <printf+0xb0e>
     ea5: c8           	iny
     ea6: b1 10        	lda	($10),y                 ; 0x2010 <printf+0xaf0>
     ea8: 85 2d        	sta	$2d                     ; 0x202d <printf+0xb0d>
     eaa: c8           	iny
     eab: b1 10        	lda	($10),y                 ; 0x2010 <printf+0xaf0>
     ead: 85 2c        	sta	$2c                     ; 0x202c <printf+0xb0c>
     eaf: c8           	iny
     eb0: b1 10        	lda	($10),y                 ; 0x2010 <printf+0xaf0>
     eb2: 85 2b        	sta	$2b                     ; 0x202b <printf+0xb0b>
     eb4: c8           	iny
     eb5: b1 10        	lda	($10),y                 ; 0x2010 <printf+0xaf0>
     eb7: 85 2a        	sta	$2a                     ; 0x202a <printf+0xb0a>
     eb9: c8           	iny
     eba: b1 10        	lda	($10),y                 ; 0x2010 <printf+0xaf0>
     ebc: 85 29        	sta	$29                     ; 0x2029 <printf+0xb09>
     ebe: c8           	iny
     ebf: b1 10        	lda	($10),y                 ; 0x2010 <printf+0xaf0>
     ec1: 85 28        	sta	$28                     ; 0x2028 <printf+0xb08>
     ec3: 7a           	ply
     ec4: 84 27        	sty	$27                     ; 0x2027 <printf+0xb07>
     ec6: 7a           	ply
     ec7: 84 26        	sty	$26                     ; 0x2026 <printf+0xb06>
     ec9: 7a           	ply
     eca: 84 25        	sty	$25                     ; 0x2025 <printf+0xb05>
     ecc: 7a           	ply
     ecd: 84 24        	sty	$24                     ; 0x2024 <printf+0xb04>
     ecf: 18           	clc
     ed0: a5 10        	lda	$10                     ; 0x2010 <printf+0xaf0>
     ed2: 69 0e        	adc	#$e
     ed4: 85 10        	sta	$10                     ; 0x2010 <printf+0xaf0>
     ed6: a5 11        	lda	$11                     ; 0x2011 <printf+0xaf1>
     ed8: 69 20        	adc	#$20
     eda: 85 11        	sta	$11                     ; 0x2011 <printf+0xaf1>
     edc: a5 20        	lda	$20                     ; 0x2020 <printf+0xb00>
     ede: 60           	rts
     edf: b2 24        	lda	($24)                   ; 0x2024 <printf+0xb04>
     ee1: 85 27        	sta	$27                     ; 0x2027 <printf+0xb07>
     ee3: 64 38        	stz	$38                     ; 0x2038 <printf+0xb18>
     ee5: 20 00 ff     	jsr	$ff00 <__heap_start+0xd8b0>
     ee8: 92 24        	sta	($24)                   ; 0x2024 <printf+0xb04>
     eea: a9 00        	lda	#$0
     eec: 6a           	ror
     eed: 85 12        	sta	$12                     ; 0x2012 <printf+0xaf2>
     eef: a6 38        	ldx	$38                     ; 0x2038 <printf+0xb18>
     ef1: e0 28        	cpx	#$28
     ef3: d0 03        	bne	$ef8 <main+0x99f>
     ef5: 4c 70 0a     	jmp	$a70 <main+0x517>
     ef8: e0 38        	cpx	#$38
     efa: d0 03        	bne	$eff <main+0x9a6>
     efc: 4c 70 0a     	jmp	$a70 <main+0x517>
     eff: e0 2a        	cpx	#$2a
     f01: d0 e0        	bne	$ee3 <main+0x98a>
     f03: a9 01        	lda	#$1
     f05: 64 26        	stz	$26                     ; 0x2026 <printf+0xb06>
     f07: a2 00        	ldx	#$0
     f09: 20 4c 21     	jsr	$214c <malloc>
     f0c: a5 27        	lda	$27                     ; 0x2027 <printf+0xb07>
     f0e: 92 12        	sta	($12)                   ; 0x2012 <printf+0xaf2>
     f10: a6 12        	ldx	$12                     ; 0x2012 <printf+0xaf2>
     f12: a4 13        	ldy	$13                     ; 0x2013 <printf+0xaf3>
     f14: 86 35        	stx	$35                     ; 0x2035 <printf+0xb15>
     f16: 84 36        	sty	$36                     ; 0x2036 <printf+0xb16>
     f18: a0 80        	ldy	#$80
     f1a: a6 35        	ldx	$35                     ; 0x2035 <printf+0xb15>
     f1c: a5 36        	lda	$36                     ; 0x2036 <printf+0xb16>
     f1e: 86 14        	stx	$14                     ; 0x2014 <printf+0xaf4>
     f20: 85 15        	sta	$15                     ; 0x2015 <printf+0xaf5>
     f22: a6 24        	ldx	$24                     ; 0x2024 <printf+0xb04>
     f24: 86 12        	stx	$12                     ; 0x2012 <printf+0xaf2>
     f26: a6 25        	ldx	$25                     ; 0x2025 <printf+0xb05>
     f28: 86 13        	stx	$13                     ; 0x2013 <printf+0xaf3>
     f2a: a2 00        	ldx	#$0
     f2c: 98           	tya
     f2d: 20 76 0f     	jsr	$f76 <fileRead>
     f30: e0 00        	cpx	#$0
     f32: d0 08        	bne	$f3c <main+0x9e3>
     f34: 64 26        	stz	$26                     ; 0x2026 <printf+0xb06>
     f36: a0 80        	ldy	#$80
     f38: c9 80        	cmp	#$80
     f3a: f0 de        	beq	$f1a <main+0x9c1>
     f3c: a2 01        	ldx	#$1
     f3e: 86 34        	stx	$34                     ; 0x2034 <printf+0xb14>
     f40: a6 35        	ldx	$35                     ; 0x2035 <printf+0xb15>
     f42: a4 36        	ldy	$36                     ; 0x2036 <printf+0xb16>
     f44: 86 12        	stx	$12                     ; 0x2012 <printf+0xaf2>
     f46: 84 13        	sty	$13                     ; 0x2013 <printf+0xaf3>
     f48: b2 12        	lda	($12)                   ; 0x2012 <printf+0xaf2>
     f4a: 85 f3        	sta	$f3                     ; 0x20f3 <printf+0xbd3>
     f4c: 64 f4        	stz	$f4                     ; 0x20f4 <printf+0xbd4>
     f4e: 64 f5        	stz	$f5                     ; 0x20f5 <printf+0xbd5>
     f50: 64 f6        	stz	$f6                     ; 0x20f6 <printf+0xbd6>
     f52: 64 f7        	stz	$f7                     ; 0x20f7 <printf+0xbd7>
     f54: a2 37        	ldx	#$37
     f56: 86 12        	stx	$12                     ; 0x2012 <printf+0xaf2>
     f58: a2 00        	ldx	#$0
     f5a: 86 13        	stx	$13                     ; 0x2013 <printf+0xaf3>
     f5c: 20 74 ff     	jsr	$ff74 <__heap_start+0xd924>
     f5f: 92 2c        	sta	($2c)                   ; 0x202c <printf+0xb0c>
     f61: a9 00        	lda	#$0
     f63: 6a           	ror
     f64: 85 12        	sta	$12                     ; 0x2012 <printf+0xaf2>
     f66: 4c 95 0a     	jmp	$a95 <main+0x53c>
     f69: b2 26        	lda	($26)                   ; 0x2026 <printf+0xb06>
     f6b: 09 01        	ora	#$1
     f6d: 92 26        	sta	($26)                   ; 0x2026 <printf+0xb06>
     f6f: a5 2e        	lda	$2e                     ; 0x202e <printf+0xb0e>
     f71: 91 26        	sta	($26),y                 ; 0x2026 <printf+0xb06>
     f73: 4c 1f 0e     	jmp	$e1f <main+0x8c6>

00000f76 <fileRead>:
     f76: 85 16        	sta	$16                     ; 0x2016 <printf+0xaf6>
     f78: 86 17        	stx	$17                     ; 0x2017 <printf+0xaf7>
     f7a: 64 18        	stz	$18                     ; 0x2018 <printf+0xaf8>
     f7c: a6 12        	ldx	$12                     ; 0x2012 <printf+0xaf2>
     f7e: 86 1a        	stx	$1a                     ; 0x201a <printf+0xafa>
     f80: a6 13        	ldx	$13                     ; 0x2013 <printf+0xaf3>
     f82: 86 1b        	stx	$1b                     ; 0x201b <printf+0xafb>
     f84: a2 3f        	ldx	#$3f
     f86: a0 00        	ldy	#$0
     f88: a9 37        	lda	#$37
     f8a: 85 12        	sta	$12                     ; 0x2012 <printf+0xaf2>
     f8c: a9 00        	lda	#$0
     f8e: 85 13        	sta	$13                     ; 0x2013 <printf+0xaf3>
     f90: 64 19        	stz	$19                     ; 0x2019 <printf+0xaf9>
     f92: b2 14        	lda	($14)                   ; 0x2014 <printf+0xaf4>
     f94: 85 1d        	sta	$1d                     ; 0x201d <printf+0xafd>
     f96: a5 1a        	lda	$1a                     ; 0x201a <printf+0xafa>
     f98: 85 1e        	sta	$1e                     ; 0x201e <printf+0xafe>
     f9a: a5 1a        	lda	$1a                     ; 0x201a <printf+0xafa>
     f9c: 18           	clc
     f9d: 65 18        	adc	$18                     ; 0x2018 <printf+0xaf8>
     f9f: 85 1c        	sta	$1c                     ; 0x201c <printf+0xafc>
     fa1: a5 1b        	lda	$1b                     ; 0x201b <printf+0xafb>
     fa3: 85 1f        	sta	$1f                     ; 0x201f <printf+0xaff>
     fa5: a5 1b        	lda	$1b                     ; 0x201b <printf+0xafb>
     fa7: 65 19        	adc	$19                     ; 0x2019 <printf+0xaf9>
     fa9: e6 1d        	inc	$1d                     ; 0x201d <printf+0xafd>
     fab: c6 1d        	dec	$1d                     ; 0x201d <printf+0xafd>
     fad: d0 03        	bne	$fb2 <fileRead+0x3c>
     faf: 4c 2f 10     	jmp	$102f <fileRead+0xb9>
     fb2: 5a           	phy
     fb3: a4 1d        	ldy	$1d                     ; 0x201d <printf+0xafd>
     fb5: 84 1a        	sty	$1a                     ; 0x201a <printf+0xafa>
     fb7: 7a           	ply
     fb8: 85 1d        	sta	$1d                     ; 0x201d <printf+0xafd>
     fba: a5 16        	lda	$16                     ; 0x2016 <printf+0xaf6>
     fbc: 38           	sec
     fbd: e5 18        	sbc	$18                     ; 0x2018 <printf+0xaf8>
     fbf: 85 1b        	sta	$1b                     ; 0x201b <printf+0xafb>
     fc1: a5 1a        	lda	$1a                     ; 0x201a <printf+0xafa>
     fc3: 85 f3        	sta	$f3                     ; 0x20f3 <printf+0xbd3>
     fc5: a5 1b        	lda	$1b                     ; 0x201b <printf+0xafb>
     fc7: 85 f4        	sta	$f4                     ; 0x20f4 <printf+0xbd4>
     fc9: a9 41        	lda	#$41
     fcb: 85 1a        	sta	$1a                     ; 0x201a <printf+0xafa>
     fcd: a9 00        	lda	#$0
     fcf: 85 1b        	sta	$1b                     ; 0x201b <printf+0xafb>
     fd1: 20 60 ff     	jsr	$ff60 <__heap_start+0xd910>
     fd4: 92 1a        	sta	($1a)                   ; 0x201a <printf+0xafa>
     fd6: a9 00        	lda	#$0
     fd8: 6a           	ror
     fd9: 85 12        	sta	$12                     ; 0x2012 <printf+0xaf2>
     fdb: a5 37        	lda	$37                     ; 0x2037 <printf+0xb17>
     fdd: f0 03        	beq	$fe2 <fileRead+0x6c>
     fdf: 4c a9 10     	jmp	$10a9 <fileRead+0x133>
     fe2: 64 38        	stz	$38                     ; 0x2038 <printf+0xb18>
     fe4: a9 42        	lda	#$42
     fe6: 85 1a        	sta	$1a                     ; 0x201a <printf+0xafa>
     fe8: a9 00        	lda	#$0
     fea: 85 1b        	sta	$1b                     ; 0x201b <printf+0xafb>
     fec: 20 00 ff     	jsr	$ff00 <__heap_start+0xd8b0>
     fef: 92 1a        	sta	($1a)                   ; 0x201a <printf+0xafa>
     ff1: a9 00        	lda	#$0
     ff3: 6a           	ror
     ff4: 85 12        	sta	$12                     ; 0x2012 <printf+0xaf2>
     ff6: a5 38        	lda	$38                     ; 0x2038 <printf+0xb18>
     ff8: c9 38        	cmp	#$38
     ffa: d0 03        	bne	$fff <fileRead+0x89>
     ffc: 4c a9 10     	jmp	$10a9 <fileRead+0x133>
     fff: c9 30        	cmp	#$30
    1001: d0 03        	bne	$1006 <fileRead+0x90>
    1003: 4c b0 10     	jmp	$10b0 <fileRead+0x13a>
    1006: c9 2c        	cmp	#$2c
    1008: d0 d8        	bne	$fe2 <fileRead+0x6c>
    100a: a5 1c        	lda	$1c                     ; 0x201c <printf+0xafc>
    100c: 85 fb        	sta	$fb                     ; 0x20fb <printf+0xbdb>
    100e: a5 1d        	lda	$1d                     ; 0x201d <printf+0xafd>
    1010: 85 fc        	sta	$fc                     ; 0x20fc <printf+0xbdc>
    1012: a5 3e        	lda	$3e                     ; 0x203e <printf+0xb1e>
    1014: 85 fd        	sta	$fd                     ; 0x20fd <printf+0xbdd>
    1016: a9 43        	lda	#$43
    1018: 85 1a        	sta	$1a                     ; 0x201a <printf+0xafa>
    101a: a9 00        	lda	#$0
    101c: 85 1b        	sta	$1b                     ; 0x201b <printf+0xafb>
    101e: 20 04 ff     	jsr	$ff04 <__heap_start+0xd8b4>
    1021: 92 1a        	sta	($1a)                   ; 0x201a <printf+0xafa>
    1023: a9 00        	lda	#$0
    1025: 6a           	ror
    1026: 85 12        	sta	$12                     ; 0x2012 <printf+0xaf2>
    1028: a5 3e        	lda	$3e                     ; 0x203e <printf+0xb1e>
    102a: d0 45        	bne	$1071 <fileRead+0xfb>
    102c: 4c ba 10     	jmp	$10ba <fileRead+0x144>
    102f: 5a           	phy
    1030: a4 1c        	ldy	$1c                     ; 0x201c <printf+0xafc>
    1032: 84 1a        	sty	$1a                     ; 0x201a <printf+0xafa>
    1034: 7a           	ply
    1035: 85 1b        	sta	$1b                     ; 0x201b <printf+0xafb>
    1037: 80 0a        	bra	$1043 <fileRead+0xcd>
    1039: a5 38        	lda	$38                     ; 0x2038 <printf+0xb18>
    103b: c9 08        	cmp	#$8
    103d: d0 04        	bne	$1043 <fileRead+0xcd>
    103f: a5 3e        	lda	$3e                     ; 0x203e <printf+0xb1e>
    1041: f0 28        	beq	$106b <fileRead+0xf5>
    1043: 64 38        	stz	$38                     ; 0x2038 <printf+0xb18>
    1045: 86 1c        	stx	$1c                     ; 0x201c <printf+0xafc>
    1047: 84 1d        	sty	$1d                     ; 0x201d <printf+0xafd>
    1049: 20 00 ff     	jsr	$ff00 <__heap_start+0xd8b0>
    104c: 92 1c        	sta	($1c)                   ; 0x201c <printf+0xafc>
    104e: a9 00        	lda	#$0
    1050: 6a           	ror
    1051: 85 12        	sta	$12                     ; 0x2012 <printf+0xaf2>
    1053: a5 37        	lda	$37                     ; 0x2037 <printf+0xb17>
    1055: f0 e2        	beq	$1039 <fileRead+0xc3>
    1057: a9 40        	lda	#$40
    1059: 85 1c        	sta	$1c                     ; 0x201c <printf+0xafc>
    105b: a9 00        	lda	#$0
    105d: 85 1d        	sta	$1d                     ; 0x201d <printf+0xafd>
    105f: 20 0c ff     	jsr	$ff0c <__heap_start+0xd8bc>
    1062: 92 1c        	sta	($1c)                   ; 0x201c <printf+0xafc>
    1064: a9 00        	lda	#$0
    1066: 6a           	ror
    1067: 85 12        	sta	$12                     ; 0x2012 <printf+0xaf2>
    1069: 80 d8        	bra	$1043 <fileRead+0xcd>
    106b: a5 3d        	lda	$3d                     ; 0x203d <printf+0xb1d>
    106d: 92 1a        	sta	($1a)                   ; 0x201a <printf+0xafa>
    106f: a9 01        	lda	#$1
    1071: 85 44        	sta	$44                     ; 0x2044 <printf+0xb24>
    1073: a9 00        	lda	#$0
    1075: 85 45        	sta	$45                     ; 0x2045 <printf+0xb25>
    1077: 18           	clc
    1078: a5 44        	lda	$44                     ; 0x2044 <printf+0xb24>
    107a: 65 18        	adc	$18                     ; 0x2018 <printf+0xaf8>
    107c: 85 44        	sta	$44                     ; 0x2044 <printf+0xb24>
    107e: a5 45        	lda	$45                     ; 0x2045 <printf+0xb25>
    1080: 65 19        	adc	$19                     ; 0x2019 <printf+0xaf9>
    1082: c5 17        	cmp	$17                     ; 0x2017 <printf+0xaf7>
    1084: d0 0a        	bne	$1090 <fileRead+0x11a>
    1086: 85 19        	sta	$19                     ; 0x2019 <printf+0xaf9>
    1088: a5 44        	lda	$44                     ; 0x2044 <printf+0xb24>
    108a: 85 18        	sta	$18                     ; 0x2018 <printf+0xaf8>
    108c: c5 16        	cmp	$16                     ; 0x2016 <printf+0xaf6>
    108e: 80 08        	bra	$1098 <fileRead+0x122>
    1090: c5 17        	cmp	$17                     ; 0x2017 <printf+0xaf7>
    1092: 85 19        	sta	$19                     ; 0x2019 <printf+0xaf9>
    1094: a5 44        	lda	$44                     ; 0x2044 <printf+0xb24>
    1096: 85 18        	sta	$18                     ; 0x2018 <printf+0xaf8>
    1098: a5 19        	lda	$19                     ; 0x2019 <printf+0xaf9>
    109a: 5a           	phy
    109b: a4 1e        	ldy	$1e                     ; 0x201e <printf+0xafe>
    109d: 84 1a        	sty	$1a                     ; 0x201a <printf+0xafa>
    109f: a4 1f        	ldy	$1f                     ; 0x201f <printf+0xaff>
    10a1: 84 1b        	sty	$1b                     ; 0x201b <printf+0xafb>
    10a3: 7a           	ply
    10a4: b0 10        	bcs	$10b6 <fileRead+0x140>
    10a6: 4c 92 0f     	jmp	$f92 <fileRead+0x1c>
    10a9: a9 ff        	lda	#$ff
    10ab: aa           	tax
    10ac: 86 44        	stx	$44                     ; 0x2044 <printf+0xb24>
    10ae: 80 06        	bra	$10b6 <fileRead+0x140>
    10b0: a6 18        	ldx	$18                     ; 0x2018 <printf+0xaf8>
    10b2: 86 44        	stx	$44                     ; 0x2044 <printf+0xb24>
    10b4: a5 19        	lda	$19                     ; 0x2019 <printf+0xaf9>
    10b6: aa           	tax
    10b7: a5 44        	lda	$44                     ; 0x2044 <printf+0xb24>
    10b9: 60           	rts
    10ba: a9 00        	lda	#$0
    10bc: 85 44        	sta	$44                     ; 0x2044 <printf+0xb24>
    10be: 1a           	inc
    10bf: 80 b4        	bra	$1075 <fileRead+0xff>

000010c1 <textPrint>:
    10c1: a6 01        	ldx	$1                      ; 0x2001 <printf+0xae1>
    10c3: 86 96        	stx	$96                     ; 0x2096 <printf+0xb76>
    10c5: a6 31        	ldx	$31                     ; 0x2031 <printf+0xb11>
    10c7: a0 50        	ldy	#$50
    10c9: 8c 00 de     	sty	$de00                   ; 0xde00 <__heap_start+0xb7b0>
    10cc: 9c 01 de     	stz	$de01                   ; 0xde01 <__heap_start+0xb7b1>
    10cf: 8e 02 de     	stx	$de02                   ; 0xde02 <__heap_start+0xb7b2>
    10d2: 9c 03 de     	stz	$de03                   ; 0xde03 <__heap_start+0xb7b3>
    10d5: ae 10 de     	ldx	$de10                   ; 0xde10 <__heap_start+0xb7c0>
    10d8: ac 11 de     	ldy	$de11                   ; 0xde11 <__heap_start+0xb7c1>
    10db: 84 15        	sty	$15                     ; 0x2015 <printf+0xaf5>
    10dd: ad 12 de     	lda	$de12                   ; 0xde12 <__heap_start+0xb7c2>
    10e0: ac 13 de     	ldy	$de13                   ; 0xde13 <__heap_start+0xb7c3>
    10e3: 84 1c        	sty	$1c                     ; 0x201c <printf+0xafc>
    10e5: 9c 08 de     	stz	$de08                   ; 0xde08 <__heap_start+0xb7b8>
    10e8: a0 c0        	ldy	#$c0
    10ea: 8c 09 de     	sty	$de09                   ; 0xde09 <__heap_start+0xb7b9>
    10ed: 9c 0a de     	stz	$de0a                   ; 0xde0a <__heap_start+0xb7ba>
    10f0: 9c 0b de     	stz	$de0b                   ; 0xde0b <__heap_start+0xb7bb>
    10f3: 8e 0c de     	stx	$de0c                   ; 0xde0c <__heap_start+0xb7bc>
    10f6: 64 14        	stz	$14                     ; 0x2014 <printf+0xaf4>
    10f8: a2 00        	ldx	#$0
    10fa: 86 16        	stx	$16                     ; 0x2016 <printf+0xaf6>
    10fc: a2 c0        	ldx	#$c0
    10fe: 86 17        	stx	$17                     ; 0x2017 <printf+0xaf7>
    1100: a2 11        	ldx	#$11
    1102: 86 18        	stx	$18                     ; 0x2018 <printf+0xaf8>
    1104: a2 c9        	ldx	#$c9
    1106: 86 19        	stx	$19                     ; 0x2019 <printf+0xaf9>
    1108: a2 10        	ldx	#$10
    110a: 86 1a        	stx	$1a                     ; 0x201a <printf+0xafa>
    110c: a2 c9        	ldx	#$c9
    110e: 86 1b        	stx	$1b                     ; 0x201b <printf+0xafb>
    1110: a6 15        	ldx	$15                     ; 0x2015 <printf+0xaf5>
    1112: 8e 0d de     	stx	$de0d                   ; 0xde0d <__heap_start+0xb7bd>
    1115: 8d 0e de     	sta	$de0e                   ; 0xde0e <__heap_start+0xb7be>
    1118: a6 1c        	ldx	$1c                     ; 0x201c <printf+0xafc>
    111a: 8e 0f de     	stx	$de0f                   ; 0xde0f <__heap_start+0xb7bf>
    111d: ac 18 de     	ldy	$de18                   ; 0xde18 <__heap_start+0xb7c8>
    1120: ad 19 de     	lda	$de19                   ; 0xde19 <__heap_start+0xb7c9>
    1123: ae 1a de     	ldx	$de1a                   ; 0xde1a <__heap_start+0xb7ca>
    1126: ae 1b de     	ldx	$de1b                   ; 0xde1b <__heap_start+0xb7cb>
    1129: 84 1c        	sty	$1c                     ; 0x201c <printf+0xafc>
    112b: 85 1d        	sta	$1d                     ; 0x201d <printf+0xafd>
    112d: 64 15        	stz	$15                     ; 0x2015 <printf+0xaf5>
    112f: 80 13        	bra	$1144 <textPrint+0x83>
    1131: a5 1c        	lda	$1c                     ; 0x201c <printf+0xafc>
    1133: 18           	clc
    1134: 69 50        	adc	#$50
    1136: 85 1c        	sta	$1c                     ; 0x201c <printf+0xafc>
    1138: a5 1d        	lda	$1d                     ; 0x201d <printf+0xafd>
    113a: 69 00        	adc	#$0
    113c: 85 1d        	sta	$1d                     ; 0x201d <printf+0xafd>
    113e: e6 14        	inc	$14                     ; 0x2014 <printf+0xaf4>
    1140: d0 02        	bne	$1144 <textPrint+0x83>
    1142: e6 15        	inc	$15                     ; 0x2015 <printf+0xaf5>
    1144: a5 12        	lda	$12                     ; 0x2012 <printf+0xaf2>
    1146: 18           	clc
    1147: 65 14        	adc	$14                     ; 0x2014 <printf+0xaf4>
    1149: 85 1e        	sta	$1e                     ; 0x201e <printf+0xafe>
    114b: a5 13        	lda	$13                     ; 0x2013 <printf+0xaf3>
    114d: 65 15        	adc	$15                     ; 0x2015 <printf+0xaf5>
    114f: 85 1f        	sta	$1f                     ; 0x201f <printf+0xaff>
    1151: b2 1e        	lda	($1e)                   ; 0x201e <printf+0xafe>
    1153: c9 0a        	cmp	#$a
    1155: f0 26        	beq	$117d <textPrint+0xbc>
    1157: c9 0d        	cmp	#$d
    1159: f0 22        	beq	$117d <textPrint+0xbc>
    115b: aa           	tax
    115c: d0 03        	bne	$1161 <textPrint+0xa0>
    115e: 4c 62 12     	jmp	$1262 <textPrint+0x1a1>
    1161: a2 03        	ldx	#$3
    1163: 86 01        	stx	$1                      ; 0x2001 <printf+0xae1>
    1165: a4 30        	ldy	$30                     ; 0x2030 <printf+0xb10>
    1167: a9 f0        	lda	#$f0
    1169: 91 1c        	sta	($1c),y                 ; 0x201c <printf+0xafc>
    116b: ca           	dex
    116c: 86 01        	stx	$1                      ; 0x2001 <printf+0xae1>
    116e: b2 1e        	lda	($1e)                   ; 0x201e <printf+0xafe>
    1170: a4 30        	ldy	$30                     ; 0x2030 <printf+0xb10>
    1172: 91 1c        	sta	($1c),y                 ; 0x201c <printf+0xafc>
    1174: a6 30        	ldx	$30                     ; 0x2030 <printf+0xb10>
    1176: e8           	inx
    1177: e6 30        	inc	$30                     ; 0x2030 <printf+0xb10>
    1179: e0 50        	cpx	#$50
    117b: d0 c1        	bne	$113e <textPrint+0x7d>
    117d: 64 30        	stz	$30                     ; 0x2030 <printf+0xb10>
    117f: a6 31        	ldx	$31                     ; 0x2031 <printf+0xb11>
    1181: e8           	inx
    1182: e6 31        	inc	$31                     ; 0x2031 <printf+0xb11>
    1184: e0 1e        	cpx	#$1e
    1186: f0 03        	beq	$118b <textPrint+0xca>
    1188: 4c 31 11     	jmp	$1131 <textPrint+0x70>
    118b: a2 03        	ldx	#$3
    118d: 86 01        	stx	$1                      ; 0x2001 <printf+0xae1>
    118f: a2 01        	ldx	#$1
    1191: 86 1c        	stx	$1c                     ; 0x201c <printf+0xafc>
    1193: a2 09        	ldx	#$9
    1195: a0 10        	ldy	#$10
    1197: a9 00        	lda	#$0
    1199: 85 1e        	sta	$1e                     ; 0x201e <printf+0xafe>
    119b: a9 c0        	lda	#$c0
    119d: 85 1f        	sta	$1f                     ; 0x201f <printf+0xaff>
    119f: 84 1d        	sty	$1d                     ; 0x201d <printf+0xafd>
    11a1: a0 50        	ldy	#$50
    11a3: b1 1e        	lda	($1e),y                 ; 0x201e <printf+0xafe>
    11a5: 92 1e        	sta	($1e)                   ; 0x201e <printf+0xafe>
    11a7: a9 ff        	lda	#$ff
    11a9: c6 1d        	dec	$1d                     ; 0x201d <printf+0xafd>
    11ab: c5 1d        	cmp	$1d                     ; 0x201d <printf+0xafd>
    11ad: d0 01        	bne	$11b0 <textPrint+0xef>
    11af: ca           	dex
    11b0: e6 1e        	inc	$1e                     ; 0x201e <printf+0xafe>
    11b2: d0 02        	bne	$11b6 <textPrint+0xf5>
    11b4: e6 1f        	inc	$1f                     ; 0x201f <printf+0xaff>
    11b6: 8a           	txa
    11b7: d0 ea        	bne	$11a3 <textPrint+0xe2>
    11b9: a5 1d        	lda	$1d                     ; 0x201d <printf+0xafd>
    11bb: d0 e6        	bne	$11a3 <textPrint+0xe2>
    11bd: a2 02        	ldx	#$2
    11bf: 86 01        	stx	$1                      ; 0x2001 <printf+0xae1>
    11c1: a2 00        	ldx	#$0
    11c3: a5 1c        	lda	$1c                     ; 0x201c <printf+0xafc>
    11c5: d0 ca        	bne	$1191 <textPrint+0xd0>
    11c7: a2 03        	ldx	#$3
    11c9: 86 01        	stx	$1                      ; 0x2001 <printf+0xae1>
    11cb: a2 50        	ldx	#$50
    11cd: a0 11        	ldy	#$11
    11cf: 84 1c        	sty	$1c                     ; 0x201c <printf+0xafc>
    11d1: a0 c9        	ldy	#$c9
    11d3: 84 1d        	sty	$1d                     ; 0x201d <printf+0xafd>
    11d5: a0 10        	ldy	#$10
    11d7: 84 1e        	sty	$1e                     ; 0x201e <printf+0xafe>
    11d9: a0 c9        	ldy	#$c9
    11db: 84 1f        	sty	$1f                     ; 0x201f <printf+0xaff>
    11dd: a9 f0        	lda	#$f0
    11df: a4 1c        	ldy	$1c                     ; 0x201c <printf+0xafc>
    11e1: 84 22        	sty	$22                     ; 0x2022 <printf+0xb02>
    11e3: a4 1d        	ldy	$1d                     ; 0x201d <printf+0xafd>
    11e5: 84 23        	sty	$23                     ; 0x2023 <printf+0xb03>
    11e7: 92 1e        	sta	($1e)                   ; 0x201e <printf+0xafe>
    11e9: e6 1c        	inc	$1c                     ; 0x201c <printf+0xafc>
    11eb: d0 02        	bne	$11ef <textPrint+0x12e>
    11ed: e6 1d        	inc	$1d                     ; 0x201d <printf+0xafd>
    11ef: ca           	dex
    11f0: a4 22        	ldy	$22                     ; 0x2022 <printf+0xb02>
    11f2: 84 1e        	sty	$1e                     ; 0x201e <printf+0xafe>
    11f4: a4 23        	ldy	$23                     ; 0x2023 <printf+0xb03>
    11f6: 84 1f        	sty	$1f                     ; 0x201f <printf+0xaff>
    11f8: e0 00        	cpx	#$0
    11fa: d0 e3        	bne	$11df <textPrint+0x11e>
    11fc: a2 02        	ldx	#$2
    11fe: 86 01        	stx	$1                      ; 0x2001 <printf+0xae1>
    1200: a2 50        	ldx	#$50
    1202: a0 11        	ldy	#$11
    1204: 84 1c        	sty	$1c                     ; 0x201c <printf+0xafc>
    1206: a0 c9        	ldy	#$c9
    1208: 84 1d        	sty	$1d                     ; 0x201d <printf+0xafd>
    120a: a0 10        	ldy	#$10
    120c: 84 1e        	sty	$1e                     ; 0x201e <printf+0xafe>
    120e: a0 c9        	ldy	#$c9
    1210: 84 1f        	sty	$1f                     ; 0x201f <printf+0xaff>
    1212: a9 20        	lda	#$20
    1214: a4 1c        	ldy	$1c                     ; 0x201c <printf+0xafc>
    1216: 84 22        	sty	$22                     ; 0x2022 <printf+0xb02>
    1218: a4 1d        	ldy	$1d                     ; 0x201d <printf+0xafd>
    121a: 84 23        	sty	$23                     ; 0x2023 <printf+0xb03>
    121c: 92 1e        	sta	($1e)                   ; 0x201e <printf+0xafe>
    121e: e6 1c        	inc	$1c                     ; 0x201c <printf+0xafc>
    1220: d0 02        	bne	$1224 <textPrint+0x163>
    1222: e6 1d        	inc	$1d                     ; 0x201d <printf+0xafd>
    1224: ca           	dex
    1225: a4 22        	ldy	$22                     ; 0x2022 <printf+0xb02>
    1227: 84 1e        	sty	$1e                     ; 0x201e <printf+0xafe>
    1229: a4 23        	ldy	$23                     ; 0x2023 <printf+0xb03>
    122b: 84 1f        	sty	$1f                     ; 0x201f <printf+0xaff>
    122d: e0 00        	cpx	#$0
    122f: d0 e3        	bne	$1214 <textPrint+0x153>
    1231: c6 31        	dec	$31                     ; 0x2031 <printf+0xb11>
    1233: 9c 08 de     	stz	$de08                   ; 0xde08 <__heap_start+0xb7b8>
    1236: a2 c0        	ldx	#$c0
    1238: 8e 09 de     	stx	$de09                   ; 0xde09 <__heap_start+0xb7b9>
    123b: 9c 0a de     	stz	$de0a                   ; 0xde0a <__heap_start+0xb7ba>
    123e: 9c 0b de     	stz	$de0b                   ; 0xde0b <__heap_start+0xb7bb>
    1241: a2 1d        	ldx	#$1d
    1243: 8e 0c de     	stx	$de0c                   ; 0xde0c <__heap_start+0xb7bc>
    1246: 9c 0d de     	stz	$de0d                   ; 0xde0d <__heap_start+0xb7bd>
    1249: 9c 0e de     	stz	$de0e                   ; 0xde0e <__heap_start+0xb7be>
    124c: 9c 0f de     	stz	$de0f                   ; 0xde0f <__heap_start+0xb7bf>
    124f: ae 18 de     	ldx	$de18                   ; 0xde18 <__heap_start+0xb7c8>
    1252: ac 19 de     	ldy	$de19                   ; 0xde19 <__heap_start+0xb7c9>
    1255: ad 1a de     	lda	$de1a                   ; 0xde1a <__heap_start+0xb7ca>
    1258: ad 1b de     	lda	$de1b                   ; 0xde1b <__heap_start+0xb7cb>
    125b: 86 1c        	stx	$1c                     ; 0x201c <printf+0xafc>
    125d: 84 1d        	sty	$1d                     ; 0x201d <printf+0xafd>
    125f: 4c 3e 11     	jmp	$113e <textPrint+0x7d>
    1262: a6 96        	ldx	$96                     ; 0x2096 <printf+0xb76>
    1264: 86 01        	stx	$1                      ; 0x2001 <printf+0xae1>
    1266: a6 30        	ldx	$30                     ; 0x2030 <printf+0xb10>
    1268: a4 31        	ldy	$31                     ; 0x2031 <printf+0xb11>
    126a: 8e 14 d0     	stx	$d014                   ; 0xd014 <__heap_start+0xa9c4>
    126d: 9c 15 d0     	stz	$d015                   ; 0xd015 <__heap_start+0xa9c5>
    1270: 84 31        	sty	$31                     ; 0x2031 <printf+0xb11>
    1272: 8c 16 d0     	sty	$d016                   ; 0xd016 <__heap_start+0xa9c6>
    1275: 9c 17 d0     	stz	$d017                   ; 0xd017 <__heap_start+0xa9c7>
    1278: 60           	rts

00001279 <textPrintUInt>:
    1279: 48           	pha
    127a: 18           	clc
    127b: a5 10        	lda	$10                     ; 0x2010 <printf+0xaf0>
    127d: 69 fe        	adc	#$fe
    127f: 85 10        	sta	$10                     ; 0x2010 <printf+0xaf0>
    1281: a5 11        	lda	$11                     ; 0x2011 <printf+0xaf1>
    1283: 69 ff        	adc	#$ff
    1285: 85 11        	sta	$11                     ; 0x2011 <printf+0xaf1>
    1287: 68           	pla
    1288: a4 24        	ldy	$24                     ; 0x2024 <printf+0xb04>
    128a: 5a           	phy
    128b: a4 25        	ldy	$25                     ; 0x2025 <printf+0xb05>
    128d: 5a           	phy
    128e: a4 26        	ldy	$26                     ; 0x2026 <printf+0xb06>
    1290: 5a           	phy
    1291: a4 27        	ldy	$27                     ; 0x2027 <printf+0xb07>
    1293: 5a           	phy
    1294: 86 25        	stx	$25                     ; 0x2025 <printf+0xb05>
    1296: a4 12        	ldy	$12                     ; 0x2012 <printf+0xaf2>
    1298: a6 13        	ldx	$13                     ; 0x2013 <printf+0xaf3>
    129a: d0 18        	bne	$12b4 <textPrintUInt+0x3b>
    129c: 86 27        	stx	$27                     ; 0x2027 <printf+0xb07>
    129e: c0 00        	cpy	#$0
    12a0: f0 03        	beq	$12a5 <textPrintUInt+0x2c>
    12a2: 4c 24 13     	jmp	$1324 <textPrintUInt+0xab>
    12a5: a6 25        	ldx	$25                     ; 0x2025 <printf+0xb05>
    12a7: f0 03        	beq	$12ac <textPrintUInt+0x33>
    12a9: 4c 2d 13     	jmp	$132d <textPrintUInt+0xb4>
    12ac: 84 26        	sty	$26                     ; 0x2026 <printf+0xb06>
    12ae: c9 0a        	cmp	#$a
    12b0: b0 0a        	bcs	$12bc <textPrintUInt+0x43>
    12b2: 80 29        	bra	$12dd <textPrintUInt+0x64>
    12b4: 84 26        	sty	$26                     ; 0x2026 <printf+0xb06>
    12b6: 86 27        	stx	$27                     ; 0x2027 <printf+0xb07>
    12b8: e0 00        	cpx	#$0
    12ba: 90 21        	bcc	$12dd <textPrintUInt+0x64>
    12bc: 8d 06 de     	sta	$de06                   ; 0xde06 <__heap_start+0xb7b6>
    12bf: a4 25        	ldy	$25                     ; 0x2025 <printf+0xb05>
    12c1: 8c 07 de     	sty	$de07                   ; 0xde07 <__heap_start+0xb7b7>
    12c4: a2 0a        	ldx	#$a
    12c6: 8e 04 de     	stx	$de04                   ; 0xde04 <__heap_start+0xb7b4>
    12c9: 9c 05 de     	stz	$de05                   ; 0xde05 <__heap_start+0xb7b5>
    12cc: 85 24        	sta	$24                     ; 0x2024 <printf+0xb04>
    12ce: ad 14 de     	lda	$de14                   ; 0xde14 <__heap_start+0xb7c4>
    12d1: ae 15 de     	ldx	$de15                   ; 0xde15 <__heap_start+0xb7c5>
    12d4: 64 12        	stz	$12                     ; 0x2012 <printf+0xaf2>
    12d6: 64 13        	stz	$13                     ; 0x2013 <printf+0xaf3>
    12d8: 20 79 12     	jsr	$1279 <textPrintUInt>
    12db: a5 24        	lda	$24                     ; 0x2024 <printf+0xb04>
    12dd: a2 0a        	ldx	#$a
    12df: a4 26        	ldy	$26                     ; 0x2026 <printf+0xb06>
    12e1: 84 12        	sty	$12                     ; 0x2012 <printf+0xaf2>
    12e3: a4 27        	ldy	$27                     ; 0x2027 <printf+0xb07>
    12e5: 84 13        	sty	$13                     ; 0x2013 <printf+0xaf3>
    12e7: 86 14        	stx	$14                     ; 0x2014 <printf+0xaf4>
    12e9: 64 15        	stz	$15                     ; 0x2015 <printf+0xaf5>
    12eb: 64 16        	stz	$16                     ; 0x2016 <printf+0xaf6>
    12ed: 64 17        	stz	$17                     ; 0x2017 <printf+0xaf7>
    12ef: a6 25        	ldx	$25                     ; 0x2025 <printf+0xb05>
    12f1: 20 6d 23     	jsr	$236d <__umodsi3>
    12f4: 09 30        	ora	#$30
    12f6: 18           	clc
    12f7: a6 10        	ldx	$10                     ; 0x2010 <printf+0xaf0>
    12f9: 86 12        	stx	$12                     ; 0x2012 <printf+0xaf2>
    12fb: a6 11        	ldx	$11                     ; 0x2011 <printf+0xaf1>
    12fd: 86 13        	stx	$13                     ; 0x2013 <printf+0xaf3>
    12ff: 92 12        	sta	($12)                   ; 0x2012 <printf+0xaf2>
    1301: a0 01        	ldy	#$1
    1303: a9 00        	lda	#$0
    1305: 91 12        	sta	($12),y                 ; 0x2012 <printf+0xaf2>
    1307: 20 c1 10     	jsr	$10c1 <textPrint>
    130a: fa           	plx
    130b: 86 27        	stx	$27                     ; 0x2027 <printf+0xb07>
    130d: fa           	plx
    130e: 86 26        	stx	$26                     ; 0x2026 <printf+0xb06>
    1310: fa           	plx
    1311: 86 25        	stx	$25                     ; 0x2025 <printf+0xb05>
    1313: fa           	plx
    1314: 86 24        	stx	$24                     ; 0x2024 <printf+0xb04>
    1316: 18           	clc
    1317: a5 10        	lda	$10                     ; 0x2010 <printf+0xaf0>
    1319: 69 02        	adc	#$2
    131b: 85 10        	sta	$10                     ; 0x2010 <printf+0xaf0>
    131d: a5 11        	lda	$11                     ; 0x2011 <printf+0xaf1>
    131f: 69 00        	adc	#$0
    1321: 85 11        	sta	$11                     ; 0x2011 <printf+0xaf1>
    1323: 60           	rts
    1324: 84 26        	sty	$26                     ; 0x2026 <printf+0xb06>
    1326: c0 00        	cpy	#$0
    1328: 90 b3        	bcc	$12dd <textPrintUInt+0x64>
    132a: 4c bc 12     	jmp	$12bc <textPrintUInt+0x43>
    132d: 84 26        	sty	$26                     ; 0x2026 <printf+0xb06>
    132f: a6 25        	ldx	$25                     ; 0x2025 <printf+0xb05>
    1331: 4c b8 12     	jmp	$12b8 <textPrintUInt+0x3f>

00001334 <exit>:
    1334: 20 14 03     	jsr	$314 <_fini>
    1337: 80 fe        	bra	$1337 <exit+0x3>

00001339 <_ZN12_GLOBAL__N_13putEcP6Status>:
    1339: 85 18        	sta	$18                     ; 0x2018 <printf+0xaf8>
    133b: a6 13        	ldx	$13                     ; 0x2013 <printf+0xaf3>
    133d: 18           	clc
    133e: a5 12        	lda	$12                     ; 0x2012 <printf+0xaf2>
    1340: 69 05        	adc	#$5
    1342: a8           	tay
    1343: a5 13        	lda	$13                     ; 0x2013 <printf+0xaf3>
    1345: 86 15        	stx	$15                     ; 0x2015 <printf+0xaf5>
    1347: 69 00        	adc	#$0
    1349: 18           	clc
    134a: 84 16        	sty	$16                     ; 0x2016 <printf+0xaf6>
    134c: a0 05        	ldy	#$5
    134e: 85 17        	sta	$17                     ; 0x2017 <printf+0xaf7>
    1350: b1 12        	lda	($12),y                 ; 0x2012 <printf+0xaf2>
    1352: aa           	tax
    1353: a5 12        	lda	$12                     ; 0x2012 <printf+0xaf2>
    1355: 69 03        	adc	#$3
    1357: 85 14        	sta	$14                     ; 0x2014 <printf+0xaf4>
    1359: a5 15        	lda	$15                     ; 0x2015 <printf+0xaf5>
    135b: 69 00        	adc	#$0
    135d: 85 15        	sta	$15                     ; 0x2015 <printf+0xaf5>
    135f: a0 01        	ldy	#$1
    1361: b1 16        	lda	($16),y                 ; 0x2016 <printf+0xaf6>
    1363: d1 14        	cmp	($14),y                 ; 0x2014 <printf+0xaf4>
    1365: d0 11        	bne	$1378 <_ZN12_GLOBAL__N_13putEcP6Status+0x3f>
    1367: a0 03        	ldy	#$3
    1369: 85 17        	sta	$17                     ; 0x2017 <printf+0xaf7>
    136b: b1 12        	lda	($12),y                 ; 0x2012 <printf+0xaf2>
    136d: 85 14        	sta	$14                     ; 0x2014 <printf+0xaf4>
    136f: 86 16        	stx	$16                     ; 0x2016 <printf+0xaf6>
    1371: e4 14        	cpx	$14                     ; 0x2014 <printf+0xaf4>
    1373: 90 0e        	bcc	$1383 <_ZN12_GLOBAL__N_13putEcP6Status+0x4a>
    1375: 4c ec 13     	jmp	$13ec <_ZN12_GLOBAL__N_13putEcP6Status+0xb3>
    1378: 86 16        	stx	$16                     ; 0x2016 <printf+0xaf6>
    137a: d1 14        	cmp	($14),y                 ; 0x2014 <printf+0xaf4>
    137c: 85 17        	sta	$17                     ; 0x2017 <printf+0xaf7>
    137e: 90 03        	bcc	$1383 <_ZN12_GLOBAL__N_13putEcP6Status+0x4a>
    1380: 4c ec 13     	jmp	$13ec <_ZN12_GLOBAL__N_13putEcP6Status+0xb3>
    1383: a5 12        	lda	$12                     ; 0x2012 <printf+0xaf2>
    1385: 18           	clc
    1386: 69 0f        	adc	#$f
    1388: 85 14        	sta	$14                     ; 0x2014 <printf+0xaf4>
    138a: a5 13        	lda	$13                     ; 0x2013 <printf+0xaf3>
    138c: 69 00        	adc	#$0
    138e: 85 15        	sta	$15                     ; 0x2015 <printf+0xaf5>
    1390: a0 01        	ldy	#$1
    1392: b1 14        	lda	($14),y                 ; 0x2014 <printf+0xaf4>
    1394: a2 00        	ldx	#$0
    1396: 86 14        	stx	$14                     ; 0x2014 <printf+0xaf4>
    1398: a2 00        	ldx	#$0
    139a: 86 15        	stx	$15                     ; 0x2015 <printf+0xaf5>
    139c: c5 15        	cmp	$15                     ; 0x2015 <printf+0xaf5>
    139e: d0 2d        	bne	$13cd <_ZN12_GLOBAL__N_13putEcP6Status+0x94>
    13a0: a0 0f        	ldy	#$f
    13a2: b1 12        	lda	($12),y                 ; 0x2012 <printf+0xaf2>
    13a4: c5 14        	cmp	$14                     ; 0x2014 <printf+0xaf4>
    13a6: d0 25        	bne	$13cd <_ZN12_GLOBAL__N_13putEcP6Status+0x94>
    13a8: a5 12        	lda	$12                     ; 0x2012 <printf+0xaf2>
    13aa: 18           	clc
    13ab: 69 09        	adc	#$9
    13ad: 85 14        	sta	$14                     ; 0x2014 <printf+0xaf4>
    13af: a5 13        	lda	$13                     ; 0x2013 <printf+0xaf3>
    13b1: 69 00        	adc	#$0
    13b3: a0 09        	ldy	#$9
    13b5: 85 15        	sta	$15                     ; 0x2015 <printf+0xaf5>
    13b7: 18           	clc
    13b8: a5 16        	lda	$16                     ; 0x2016 <printf+0xaf6>
    13ba: 71 12        	adc	($12),y                 ; 0x2012 <printf+0xaf2>
    13bc: aa           	tax
    13bd: a0 01        	ldy	#$1
    13bf: a5 17        	lda	$17                     ; 0x2017 <printf+0xaf7>
    13c1: 71 14        	adc	($14),y                 ; 0x2014 <printf+0xaf4>
    13c3: 86 14        	stx	$14                     ; 0x2014 <printf+0xaf4>
    13c5: 85 15        	sta	$15                     ; 0x2015 <printf+0xaf5>
    13c7: a5 18        	lda	$18                     ; 0x2018 <printf+0xaf8>
    13c9: 92 14        	sta	($14)                   ; 0x2014 <printf+0xaf4>
    13cb: 80 1f        	bra	$13ec <_ZN12_GLOBAL__N_13putEcP6Status+0xb3>
    13cd: a6 12        	ldx	$12                     ; 0x2012 <printf+0xaf2>
    13cf: 86 94        	stx	$94                     ; 0x2094 <printf+0xb74>
    13d1: a6 13        	ldx	$13                     ; 0x2013 <printf+0xaf3>
    13d3: 86 95        	stx	$95                     ; 0x2095 <printf+0xb75>
    13d5: a5 18        	lda	$18                     ; 0x2018 <printf+0xaf8>
    13d7: 85 32        	sta	$32                     ; 0x2032 <printf+0xb12>
    13d9: a2 32        	ldx	#$32
    13db: 86 12        	stx	$12                     ; 0x2012 <printf+0xaf2>
    13dd: a2 00        	ldx	#$0
    13df: 86 13        	stx	$13                     ; 0x2013 <printf+0xaf3>
    13e1: 20 c1 10     	jsr	$10c1 <textPrint>
    13e4: a6 94        	ldx	$94                     ; 0x2094 <printf+0xb74>
    13e6: 86 12        	stx	$12                     ; 0x2012 <printf+0xaf2>
    13e8: a6 95        	ldx	$95                     ; 0x2095 <printf+0xb75>
    13ea: 86 13        	stx	$13                     ; 0x2013 <printf+0xaf3>
    13ec: a0 05        	ldy	#$5
    13ee: a5 12        	lda	$12                     ; 0x2012 <printf+0xaf2>
    13f0: 18           	clc
    13f1: 69 05        	adc	#$5
    13f3: 85 14        	sta	$14                     ; 0x2014 <printf+0xaf4>
    13f5: a5 13        	lda	$13                     ; 0x2013 <printf+0xaf3>
    13f7: 69 00        	adc	#$0
    13f9: 85 15        	sta	$15                     ; 0x2015 <printf+0xaf5>
    13fb: b1 12        	lda	($12),y                 ; 0x2012 <printf+0xaf2>
    13fd: aa           	tax
    13fe: a0 01        	ldy	#$1
    1400: b1 14        	lda	($14),y                 ; 0x2014 <printf+0xaf4>
    1402: e8           	inx
    1403: d0 01        	bne	$1406 <_ZN12_GLOBAL__N_13putEcP6Status+0xcd>
    1405: 1a           	inc
    1406: 85 16        	sta	$16                     ; 0x2016 <printf+0xaf6>
    1408: 8a           	txa
    1409: a0 05        	ldy	#$5
    140b: 91 12        	sta	($12),y                 ; 0x2012 <printf+0xaf2>
    140d: a0 01        	ldy	#$1
    140f: a5 16        	lda	$16                     ; 0x2016 <printf+0xaf6>
    1411: 91 14        	sta	($14),y                 ; 0x2014 <printf+0xaf4>
    1413: 60           	rts

00001414 <_ZN12_GLOBAL__N_112print_stringEPKcP6Status>:
    1414: a6 12        	ldx	$12                     ; 0x2012 <printf+0xaf2>
    1416: 86 8c        	stx	$8c                     ; 0x208c <printf+0xb6c>
    1418: a6 13        	ldx	$13                     ; 0x2013 <printf+0xaf3>
    141a: 86 8d        	stx	$8d                     ; 0x208d <printf+0xb6d>
    141c: a6 14        	ldx	$14                     ; 0x2014 <printf+0xaf4>
    141e: 86 8e        	stx	$8e                     ; 0x208e <printf+0xb6e>
    1420: a6 15        	ldx	$15                     ; 0x2015 <printf+0xaf5>
    1422: 86 8f        	stx	$8f                     ; 0x208f <printf+0xb6f>
    1424: a5 8e        	lda	$8e                     ; 0x208e <printf+0xb6e>
    1426: 18           	clc
    1427: 69 0d        	adc	#$d
    1429: 85 12        	sta	$12                     ; 0x2012 <printf+0xaf2>
    142b: a5 8f        	lda	$8f                     ; 0x208f <printf+0xb6f>
    142d: 69 00        	adc	#$0
    142f: 85 13        	sta	$13                     ; 0x2013 <printf+0xaf3>
    1431: a0 01        	ldy	#$1
    1433: b1 12        	lda	($12),y                 ; 0x2012 <printf+0xaf2>
    1435: 30 16        	bmi	$144d <_ZN12_GLOBAL__N_112print_stringEPKcP6Status+0x39>
    1437: a0 0d        	ldy	#$d
    1439: 85 12        	sta	$12                     ; 0x2012 <printf+0xaf2>
    143b: b1 8e        	lda	($8e),y                 ; 0x208e <printf+0xb6e>
    143d: a6 12        	ldx	$12                     ; 0x2012 <printf+0xaf2>
    143f: 86 93        	stx	$93                     ; 0x2093 <printf+0xb73>
    1441: d0 0f        	bne	$1452 <_ZN12_GLOBAL__N_112print_stringEPKcP6Status+0x3e>
    1443: aa           	tax
    1444: d0 0c        	bne	$1452 <_ZN12_GLOBAL__N_112print_stringEPKcP6Status+0x3e>
    1446: 64 90        	stz	$90                     ; 0x2090 <printf+0xb70>
    1448: a2 00        	ldx	#$0
    144a: 4c 1b 15     	jmp	$151b <_ZN12_GLOBAL__N_112print_stringEPKcP6Status+0x107>
    144d: a9 ff        	lda	#$ff
    144f: aa           	tax
    1450: 86 93        	stx	$93                     ; 0x2093 <printf+0xb73>
    1452: 85 90        	sta	$90                     ; 0x2090 <printf+0xb70>
    1454: 64 12        	stz	$12                     ; 0x2012 <printf+0xaf2>
    1456: a4 8c        	ldy	$8c                     ; 0x208c <printf+0xb6c>
    1458: a6 8d        	ldx	$8d                     ; 0x208d <printf+0xb6d>
    145a: 86 16        	stx	$16                     ; 0x2016 <printf+0xaf6>
    145c: 64 13        	stz	$13                     ; 0x2013 <printf+0xaf3>
    145e: 98           	tya
    145f: 18           	clc
    1460: 65 12        	adc	$12                     ; 0x2012 <printf+0xaf2>
    1462: 85 14        	sta	$14                     ; 0x2014 <printf+0xaf4>
    1464: a5 8d        	lda	$8d                     ; 0x208d <printf+0xb6d>
    1466: 65 13        	adc	$13                     ; 0x2013 <printf+0xaf3>
    1468: 85 15        	sta	$15                     ; 0x2015 <printf+0xaf5>
    146a: b2 14        	lda	($14)                   ; 0x2014 <printf+0xaf4>
    146c: d0 03        	bne	$1471 <_ZN12_GLOBAL__N_112print_stringEPKcP6Status+0x5d>
    146e: 4c 15 15     	jmp	$1515 <_ZN12_GLOBAL__N_112print_stringEPKcP6Status+0x101>
    1471: e6 12        	inc	$12                     ; 0x2012 <printf+0xaf2>
    1473: d0 02        	bne	$1477 <_ZN12_GLOBAL__N_112print_stringEPKcP6Status+0x63>
    1475: e6 13        	inc	$13                     ; 0x2013 <printf+0xaf3>
    1477: a6 93        	ldx	$93                     ; 0x2093 <printf+0xb73>
    1479: e4 13        	cpx	$13                     ; 0x2013 <printf+0xaf3>
    147b: d0 e1        	bne	$145e <_ZN12_GLOBAL__N_112print_stringEPKcP6Status+0x4a>
    147d: a6 90        	ldx	$90                     ; 0x2090 <printf+0xb70>
    147f: e4 12        	cpx	$12                     ; 0x2012 <printf+0xaf2>
    1481: d0 db        	bne	$145e <_ZN12_GLOBAL__N_112print_stringEPKcP6Status+0x4a>
    1483: a0 01        	ldy	#$1
    1485: b1 8e        	lda	($8e),y                 ; 0x208e <printf+0xb6e>
    1487: 29 01        	and	#$1
    1489: f0 03        	beq	$148e <_ZN12_GLOBAL__N_112print_stringEPKcP6Status+0x7a>
    148b: 4c e6 14     	jmp	$14e6 <_ZN12_GLOBAL__N_112print_stringEPKcP6Status+0xd2>
    148e: a5 8e        	lda	$8e                     ; 0x208e <printf+0xb6e>
    1490: 18           	clc
    1491: 69 0b        	adc	#$b
    1493: 85 14        	sta	$14                     ; 0x2014 <printf+0xaf4>
    1495: a5 8f        	lda	$8f                     ; 0x208f <printf+0xb6f>
    1497: 69 00        	adc	#$0
    1499: 85 15        	sta	$15                     ; 0x2015 <printf+0xaf5>
    149b: a0 0b        	ldy	#$b
    149d: b1 8e        	lda	($8e),y                 ; 0x208e <printf+0xb6e>
    149f: 85 13        	sta	$13                     ; 0x2013 <printf+0xaf3>
    14a1: a0 01        	ldy	#$1
    14a3: b1 14        	lda	($14),y                 ; 0x2014 <printf+0xaf4>
    14a5: 85 12        	sta	$12                     ; 0x2012 <printf+0xaf2>
    14a7: a6 93        	ldx	$93                     ; 0x2093 <printf+0xb73>
    14a9: e4 12        	cpx	$12                     ; 0x2012 <printf+0xaf2>
    14ab: d0 08        	bne	$14b5 <_ZN12_GLOBAL__N_112print_stringEPKcP6Status+0xa1>
    14ad: a6 90        	ldx	$90                     ; 0x2090 <printf+0xb70>
    14af: e4 13        	cpx	$13                     ; 0x2013 <printf+0xaf3>
    14b1: 90 06        	bcc	$14b9 <_ZN12_GLOBAL__N_112print_stringEPKcP6Status+0xa5>
    14b3: 80 31        	bra	$14e6 <_ZN12_GLOBAL__N_112print_stringEPKcP6Status+0xd2>
    14b5: e4 12        	cpx	$12                     ; 0x2012 <printf+0xaf2>
    14b7: b0 2d        	bcs	$14e6 <_ZN12_GLOBAL__N_112print_stringEPKcP6Status+0xd2>
    14b9: 38           	sec
    14ba: a5 90        	lda	$90                     ; 0x2090 <printf+0xb70>
    14bc: e5 13        	sbc	$13                     ; 0x2013 <printf+0xaf3>
    14be: a8           	tay
    14bf: a5 93        	lda	$93                     ; 0x2093 <printf+0xb73>
    14c1: e5 12        	sbc	$12                     ; 0x2012 <printf+0xaf2>
    14c3: 85 92        	sta	$92                     ; 0x2092 <printf+0xb72>
    14c5: a6 8e        	ldx	$8e                     ; 0x208e <printf+0xb6e>
    14c7: 86 12        	stx	$12                     ; 0x2012 <printf+0xaf2>
    14c9: a6 8f        	ldx	$8f                     ; 0x208f <printf+0xb6f>
    14cb: 86 13        	stx	$13                     ; 0x2013 <printf+0xaf3>
    14cd: 84 91        	sty	$91                     ; 0x2091 <printf+0xb71>
    14cf: a9 20        	lda	#$20
    14d1: 20 39 13     	jsr	$1339 <_ZN12_GLOBAL__N_13putEcP6Status>
    14d4: a6 92        	ldx	$92                     ; 0x2092 <printf+0xb72>
    14d6: e6 91        	inc	$91                     ; 0x2091 <printf+0xb71>
    14d8: d0 01        	bne	$14db <_ZN12_GLOBAL__N_112print_stringEPKcP6Status+0xc7>
    14da: e8           	inx
    14db: 86 92        	stx	$92                     ; 0x2092 <printf+0xb72>
    14dd: a4 91        	ldy	$91                     ; 0x2091 <printf+0xb71>
    14df: 8a           	txa
    14e0: d0 e3        	bne	$14c5 <_ZN12_GLOBAL__N_112print_stringEPKcP6Status+0xb1>
    14e2: a5 91        	lda	$91                     ; 0x2091 <printf+0xb71>
    14e4: d0 df        	bne	$14c5 <_ZN12_GLOBAL__N_112print_stringEPKcP6Status+0xb1>
    14e6: a4 93        	ldy	$93                     ; 0x2093 <printf+0xb73>
    14e8: d0 04        	bne	$14ee <_ZN12_GLOBAL__N_112print_stringEPKcP6Status+0xda>
    14ea: a5 90        	lda	$90                     ; 0x2090 <printf+0xb70>
    14ec: f0 26        	beq	$1514 <_ZN12_GLOBAL__N_112print_stringEPKcP6Status+0x100>
    14ee: a2 ff        	ldx	#$ff
    14f0: c6 90        	dec	$90                     ; 0x2090 <printf+0xb70>
    14f2: e4 90        	cpx	$90                     ; 0x2090 <printf+0xb70>
    14f4: d0 01        	bne	$14f7 <_ZN12_GLOBAL__N_112print_stringEPKcP6Status+0xe3>
    14f6: 88           	dey
    14f7: 84 91        	sty	$91                     ; 0x2091 <printf+0xb71>
    14f9: b2 8c        	lda	($8c)                   ; 0x208c <printf+0xb6c>
    14fb: e6 8c        	inc	$8c                     ; 0x208c <printf+0xb6c>
    14fd: d0 02        	bne	$1501 <_ZN12_GLOBAL__N_112print_stringEPKcP6Status+0xed>
    14ff: e6 8d        	inc	$8d                     ; 0x208d <printf+0xb6d>
    1501: a6 8e        	ldx	$8e                     ; 0x208e <printf+0xb6e>
    1503: 86 12        	stx	$12                     ; 0x2012 <printf+0xaf2>
    1505: a6 8f        	ldx	$8f                     ; 0x208f <printf+0xb6f>
    1507: 86 13        	stx	$13                     ; 0x2013 <printf+0xaf3>
    1509: 20 39 13     	jsr	$1339 <_ZN12_GLOBAL__N_13putEcP6Status>
    150c: a4 91        	ldy	$91                     ; 0x2091 <printf+0xb71>
    150e: d0 de        	bne	$14ee <_ZN12_GLOBAL__N_112print_stringEPKcP6Status+0xda>
    1510: a5 90        	lda	$90                     ; 0x2090 <printf+0xb70>
    1512: d0 da        	bne	$14ee <_ZN12_GLOBAL__N_112print_stringEPKcP6Status+0xda>
    1514: 60           	rts
    1515: a6 12        	ldx	$12                     ; 0x2012 <printf+0xaf2>
    1517: 86 90        	stx	$90                     ; 0x2090 <printf+0xb70>
    1519: a6 13        	ldx	$13                     ; 0x2013 <printf+0xaf3>
    151b: 86 93        	stx	$93                     ; 0x2093 <printf+0xb73>
    151d: 4c 83 14     	jmp	$1483 <_ZN12_GLOBAL__N_112print_stringEPKcP6Status+0x6f>

00001520 <printf>:
    1520: a6 12        	ldx	$12                     ; 0x2012 <printf+0xaf2>
    1522: 86 41        	stx	$41                     ; 0x2041 <printf+0xb21>
    1524: a6 13        	ldx	$13                     ; 0x2013 <printf+0xaf3>
    1526: 86 42        	stx	$42                     ; 0x2042 <printf+0xb22>
    1528: 18           	clc
    1529: a6 10        	ldx	$10                     ; 0x2010 <printf+0xaf0>
    152b: a4 11        	ldy	$11                     ; 0x2011 <printf+0xaf1>
    152d: 86 82        	stx	$82                     ; 0x2082 <printf+0xb62>
    152f: 84 83        	sty	$83                     ; 0x2083 <printf+0xb63>
    1531: a6 82        	ldx	$82                     ; 0x2082 <printf+0xb62>
    1533: a4 83        	ldy	$83                     ; 0x2083 <printf+0xb63>
    1535: 86 6d        	stx	$6d                     ; 0x206d <printf+0xb4d>
    1537: 84 6e        	sty	$6e                     ; 0x206e <printf+0xb4e>
    1539: a2 ff        	ldx	#$ff
    153b: 86 72        	stx	$72                     ; 0x2072 <printf+0xb52>
    153d: 86 73        	stx	$73                     ; 0x2073 <printf+0xb53>
    153f: 64 74        	stz	$74                     ; 0x2074 <printf+0xb54>
    1541: 64 75        	stz	$75                     ; 0x2075 <printf+0xb55>
    1543: e8           	inx
    1544: 86 43        	stx	$43                     ; 0x2043 <printf+0xb23>
    1546: a2 00        	ldx	#$0
    1548: 86 44        	stx	$44                     ; 0x2044 <printf+0xb24>
    154a: a6 43        	ldx	$43                     ; 0x2043 <printf+0xb23>
    154c: a4 44        	ldy	$44                     ; 0x2044 <printf+0xb24>
    154e: 86 78        	stx	$78                     ; 0x2078 <printf+0xb58>
    1550: 84 79        	sty	$79                     ; 0x2079 <printf+0xb59>
    1552: a2 02        	ldx	#$2
    1554: 86 7e        	stx	$7e                     ; 0x207e <printf+0xb5e>
    1556: 64 7f        	stz	$7f                     ; 0x207f <printf+0xb5f>
    1558: a6 6d        	ldx	$6d                     ; 0x206d <printf+0xb4d>
    155a: a4 6e        	ldy	$6e                     ; 0x206e <printf+0xb4e>
    155c: 86 80        	stx	$80                     ; 0x2080 <printf+0xb60>
    155e: 84 81        	sty	$81                     ; 0x2081 <printf+0xb61>
    1560: a2 64        	ldx	#$64
    1562: a0 00        	ldy	#$0
    1564: 86 12        	stx	$12                     ; 0x2012 <printf+0xaf2>
    1566: 84 13        	sty	$13                     ; 0x2013 <printf+0xaf3>
    1568: a0 01        	ldy	#$1
    156a: a9 4b        	lda	#$4b
    156c: 18           	clc
    156d: 69 02        	adc	#$2
    156f: 85 8a        	sta	$8a                     ; 0x208a <printf+0xb6a>
    1571: a9 00        	lda	#$0
    1573: 69 00        	adc	#$0
    1575: 85 8b        	sta	$8b                     ; 0x208b <printf+0xb6b>
    1577: e6 12        	inc	$12                     ; 0x2012 <printf+0xaf2>
    1579: d0 02        	bne	$157d <printf+0x5d>
    157b: e6 13        	inc	$13                     ; 0x2013 <printf+0xaf3>
    157d: a6 12        	ldx	$12                     ; 0x2012 <printf+0xaf2>
    157f: 86 86        	stx	$86                     ; 0x2086 <printf+0xb66>
    1581: a6 13        	ldx	$13                     ; 0x2013 <printf+0xaf3>
    1583: 86 87        	stx	$87                     ; 0x2087 <printf+0xb67>
    1585: a6 41        	ldx	$41                     ; 0x2041 <printf+0xb21>
    1587: 86 45        	stx	$45                     ; 0x2045 <printf+0xb25>
    1589: a6 42        	ldx	$42                     ; 0x2042 <printf+0xb22>
    158b: 86 46        	stx	$46                     ; 0x2046 <printf+0xb26>
    158d: b2 41        	lda	($41)                   ; 0x2041 <printf+0xb21>
    158f: c9 25        	cmp	#$25
    1591: f0 2b        	beq	$15be <printf+0x9e>
    1593: aa           	tax
    1594: d0 03        	bne	$1599 <printf+0x79>
    1596: 4c 4b 21     	jmp	$214b <printf+0xc2b>
    1599: 85 32        	sta	$32                     ; 0x2032 <printf+0xb12>
    159b: a2 32        	ldx	#$32
    159d: 86 12        	stx	$12                     ; 0x2012 <printf+0xaf2>
    159f: a2 00        	ldx	#$0
    15a1: 86 13        	stx	$13                     ; 0x2013 <printf+0xaf3>
    15a3: 20 c1 10     	jsr	$10c1 <textPrint>
    15a6: a0 01        	ldy	#$1
    15a8: e6 45        	inc	$45                     ; 0x2045 <printf+0xb25>
    15aa: d0 02        	bne	$15ae <printf+0x8e>
    15ac: e6 46        	inc	$46                     ; 0x2046 <printf+0xb26>
    15ae: e6 74        	inc	$74                     ; 0x2074 <printf+0xb54>
    15b0: d0 02        	bne	$15b4 <printf+0x94>
    15b2: e6 75        	inc	$75                     ; 0x2075 <printf+0xb55>
    15b4: a6 45        	ldx	$45                     ; 0x2045 <printf+0xb25>
    15b6: 86 41        	stx	$41                     ; 0x2041 <printf+0xb21>
    15b8: a6 46        	ldx	$46                     ; 0x2046 <printf+0xb26>
    15ba: 86 42        	stx	$42                     ; 0x2042 <printf+0xb22>
    15bc: 80 c7        	bra	$1585 <printf+0x65>
    15be: a6 41        	ldx	$41                     ; 0x2041 <printf+0xb21>
    15c0: 86 12        	stx	$12                     ; 0x2012 <printf+0xaf2>
    15c2: a6 42        	ldx	$42                     ; 0x2042 <printf+0xb22>
    15c4: 86 13        	stx	$13                     ; 0x2013 <printf+0xaf3>
    15c6: e6 12        	inc	$12                     ; 0x2012 <printf+0xaf2>
    15c8: d0 02        	bne	$15cc <printf+0xac>
    15ca: e6 13        	inc	$13                     ; 0x2013 <printf+0xaf3>
    15cc: b1 45        	lda	($45),y                 ; 0x2045 <printf+0xb25>
    15ce: c9 25        	cmp	#$25
    15d0: d0 16        	bne	$15e8 <printf+0xc8>
    15d2: a4 74        	ldy	$74                     ; 0x2074 <printf+0xb54>
    15d4: a5 75        	lda	$75                     ; 0x2075 <printf+0xb55>
    15d6: c5 73        	cmp	$73                     ; 0x2073 <printf+0xb53>
    15d8: f0 03        	beq	$15dd <printf+0xbd>
    15da: 4c ef 16     	jmp	$16ef <printf+0x1cf>
    15dd: a6 72        	ldx	$72                     ; 0x2072 <printf+0xb52>
    15df: 86 12        	stx	$12                     ; 0x2012 <printf+0xaf2>
    15e1: 84 13        	sty	$13                     ; 0x2013 <printf+0xaf3>
    15e3: c4 12        	cpy	$12                     ; 0x2012 <printf+0xaf2>
    15e5: 4c f3 16     	jmp	$16f3 <printf+0x1d3>
    15e8: 64 70        	stz	$70                     ; 0x2070 <printf+0xb50>
    15ea: 64 71        	stz	$71                     ; 0x2071 <printf+0xb51>
    15ec: 64 6f        	stz	$6f                     ; 0x206f <printf+0xb4f>
    15ee: 64 7a        	stz	$7a                     ; 0x207a <printf+0xb5a>
    15f0: 64 7b        	stz	$7b                     ; 0x207b <printf+0xb5b>
    15f2: a2 ff        	ldx	#$ff
    15f4: 86 7c        	stx	$7c                     ; 0x207c <printf+0xb5c>
    15f6: 86 7d        	stx	$7d                     ; 0x207d <printf+0xb5d>
    15f8: 64 40        	stz	$40                     ; 0x2040 <printf+0xb20>
    15fa: 80 33        	bra	$162f <printf+0x10f>
    15fc: a2 02        	ldx	#$2
    15fe: 80 15        	bra	$1615 <printf+0xf5>
    1600: e0 20        	cpx	#$20
    1602: f0 15        	beq	$1619 <printf+0xf9>
    1604: 86 15        	stx	$15                     ; 0x2015 <printf+0xaf5>
    1606: e0 23        	cpx	#$23
    1608: f0 03        	beq	$160d <printf+0xed>
    160a: 4c 8c 16     	jmp	$168c <printf+0x16c>
    160d: a5 40        	lda	$40                     ; 0x2040 <printf+0xb20>
    160f: a2 04        	ldx	#$4
    1611: 80 02        	bra	$1615 <printf+0xf5>
    1613: a2 10        	ldx	#$10
    1615: 86 14        	stx	$14                     ; 0x2014 <printf+0xaf4>
    1617: 80 06        	bra	$161f <printf+0xff>
    1619: a2 08        	ldx	#$8
    161b: 86 14        	stx	$14                     ; 0x2014 <printf+0xaf4>
    161d: a5 40        	lda	$40                     ; 0x2040 <printf+0xb20>
    161f: 05 14        	ora	$14                     ; 0x2014 <printf+0xaf4>
    1621: 85 40        	sta	$40                     ; 0x2040 <printf+0xb20>
    1623: 85 70        	sta	$70                     ; 0x2070 <printf+0xb50>
    1625: a2 00        	ldx	#$0
    1627: 86 71        	stx	$71                     ; 0x2071 <printf+0xb51>
    1629: e6 12        	inc	$12                     ; 0x2012 <printf+0xaf2>
    162b: d0 02        	bne	$162f <printf+0x10f>
    162d: e6 13        	inc	$13                     ; 0x2013 <printf+0xaf3>
    162f: b2 12        	lda	($12)                   ; 0x2012 <printf+0xaf2>
    1631: aa           	tax
    1632: 18           	clc
    1633: 69 d6        	adc	#$d6
    1635: c9 07        	cmp	#$7
    1637: b0 c7        	bcs	$1600 <printf+0xe0>
    1639: 86 15        	stx	$15                     ; 0x2015 <printf+0xaf5>
    163b: 0a           	asl
    163c: aa           	tax
    163d: a0 01        	ldy	#$1
    163f: 84 14        	sty	$14                     ; 0x2014 <printf+0xaf4>
    1641: a5 40        	lda	$40                     ; 0x2040 <printf+0xb20>
    1643: 7c b5 24     	jmp	($24b5,x)               ; 0x24b5 <__set_v+0x1>
    1646: a5 80        	lda	$80                     ; 0x2080 <printf+0xb60>
    1648: a6 81        	ldx	$81                     ; 0x2081 <printf+0xb61>
    164a: 85 16        	sta	$16                     ; 0x2016 <printf+0xaf6>
    164c: 86 17        	stx	$17                     ; 0x2017 <printf+0xaf7>
    164e: 18           	clc
    164f: 69 02        	adc	#$2
    1651: a8           	tay
    1652: 8a           	txa
    1653: 69 00        	adc	#$0
    1655: 84 80        	sty	$80                     ; 0x2080 <printf+0xb60>
    1657: 85 81        	sta	$81                     ; 0x2081 <printf+0xb61>
    1659: b2 16        	lda	($16)                   ; 0x2016 <printf+0xaf6>
    165b: 85 15        	sta	$15                     ; 0x2015 <printf+0xaf5>
    165d: a0 01        	ldy	#$1
    165f: b1 16        	lda	($16),y                 ; 0x2016 <printf+0xaf6>
    1661: 85 14        	sta	$14                     ; 0x2014 <printf+0xaf4>
    1663: 10 15        	bpl	$167a <printf+0x15a>
    1665: a5 40        	lda	$40                     ; 0x2040 <printf+0xb20>
    1667: 09 01        	ora	#$1
    1669: 85 40        	sta	$40                     ; 0x2040 <printf+0xb20>
    166b: 85 70        	sta	$70                     ; 0x2070 <printf+0xb50>
    166d: a2 00        	ldx	#$0
    166f: 86 71        	stx	$71                     ; 0x2071 <printf+0xb51>
    1671: 8a           	txa
    1672: 38           	sec
    1673: e5 15        	sbc	$15                     ; 0x2015 <printf+0xaf5>
    1675: 85 15        	sta	$15                     ; 0x2015 <printf+0xaf5>
    1677: 8a           	txa
    1678: e5 14        	sbc	$14                     ; 0x2014 <printf+0xaf4>
    167a: a6 15        	ldx	$15                     ; 0x2015 <printf+0xaf5>
    167c: 86 7a        	stx	$7a                     ; 0x207a <printf+0xb5a>
    167e: 85 7b        	sta	$7b                     ; 0x207b <printf+0xb5b>
    1680: e6 12        	inc	$12                     ; 0x2012 <printf+0xaf2>
    1682: f0 03        	beq	$1687 <printf+0x167>
    1684: 4c 4b 17     	jmp	$174b <printf+0x22b>
    1687: e6 13        	inc	$13                     ; 0x2013 <printf+0xaf3>
    1689: 4c 4b 17     	jmp	$174b <printf+0x22b>
    168c: a5 15        	lda	$15                     ; 0x2015 <printf+0xaf5>
    168e: 18           	clc
    168f: 69 d0        	adc	#$d0
    1691: c9 0a        	cmp	#$a
    1693: 90 03        	bcc	$1698 <printf+0x178>
    1695: 4c 3d 17     	jmp	$173d <printf+0x21d>
    1698: a6 15        	ldx	$15                     ; 0x2015 <printf+0xaf5>
    169a: 86 14        	stx	$14                     ; 0x2014 <printf+0xaf4>
    169c: 64 16        	stz	$16                     ; 0x2016 <printf+0xaf6>
    169e: 64 15        	stz	$15                     ; 0x2015 <printf+0xaf5>
    16a0: 64 17        	stz	$17                     ; 0x2017 <printf+0xaf7>
    16a2: a0 01        	ldy	#$1
    16a4: 06 16        	asl	$16                     ; 0x2016 <printf+0xaf6>
    16a6: 26 17        	rol	$17                     ; 0x2017 <printf+0xaf7>
    16a8: a5 16        	lda	$16                     ; 0x2016 <printf+0xaf6>
    16aa: 0a           	asl
    16ab: aa           	tax
    16ac: a5 17        	lda	$17                     ; 0x2017 <printf+0xaf7>
    16ae: 2a           	rol
    16af: 86 18        	stx	$18                     ; 0x2018 <printf+0xaf8>
    16b1: 06 18        	asl	$18                     ; 0x2018 <printf+0xaf8>
    16b3: 2a           	rol
    16b4: aa           	tax
    16b5: a5 18        	lda	$18                     ; 0x2018 <printf+0xaf8>
    16b7: 18           	clc
    16b8: 65 16        	adc	$16                     ; 0x2016 <printf+0xaf6>
    16ba: 85 16        	sta	$16                     ; 0x2016 <printf+0xaf6>
    16bc: 8a           	txa
    16bd: 65 17        	adc	$17                     ; 0x2017 <printf+0xaf7>
    16bf: 85 17        	sta	$17                     ; 0x2017 <printf+0xaf7>
    16c1: a5 16        	lda	$16                     ; 0x2016 <printf+0xaf6>
    16c3: 18           	clc
    16c4: 65 14        	adc	$14                     ; 0x2014 <printf+0xaf4>
    16c6: 85 14        	sta	$14                     ; 0x2014 <printf+0xaf4>
    16c8: a5 17        	lda	$17                     ; 0x2017 <printf+0xaf7>
    16ca: 65 15        	adc	$15                     ; 0x2015 <printf+0xaf5>
    16cc: aa           	tax
    16cd: 18           	clc
    16ce: a5 14        	lda	$14                     ; 0x2014 <printf+0xaf4>
    16d0: 69 d0        	adc	#$d0
    16d2: 85 16        	sta	$16                     ; 0x2016 <printf+0xaf6>
    16d4: 8a           	txa
    16d5: 69 ff        	adc	#$ff
    16d7: 85 17        	sta	$17                     ; 0x2017 <printf+0xaf7>
    16d9: b1 12        	lda	($12),y                 ; 0x2012 <printf+0xaf2>
    16db: 85 14        	sta	$14                     ; 0x2014 <printf+0xaf4>
    16dd: 18           	clc
    16de: 69 d0        	adc	#$d0
    16e0: e6 12        	inc	$12                     ; 0x2012 <printf+0xaf2>
    16e2: d0 02        	bne	$16e6 <printf+0x1c6>
    16e4: e6 13        	inc	$13                     ; 0x2013 <printf+0xaf3>
    16e6: c9 0a        	cmp	#$a
    16e8: 64 15        	stz	$15                     ; 0x2015 <printf+0xaf5>
    16ea: 90 b8        	bcc	$16a4 <printf+0x184>
    16ec: 4c 43 17     	jmp	$1743 <printf+0x223>
    16ef: 84 13        	sty	$13                     ; 0x2013 <printf+0xaf3>
    16f1: c5 73        	cmp	$73                     ; 0x2073 <printf+0xb53>
    16f3: a0 01        	ldy	#$1
    16f5: b0 30        	bcs	$1727 <printf+0x207>
    16f7: a6 7f        	ldx	$7f                     ; 0x207f <printf+0xb5f>
    16f9: e4 44        	cpx	$44                     ; 0x2044 <printf+0xb24>
    16fb: d0 19        	bne	$1716 <printf+0x1f6>
    16fd: a6 7e        	ldx	$7e                     ; 0x207e <printf+0xb5e>
    16ff: e4 43        	cpx	$43                     ; 0x2043 <printf+0xb23>
    1701: d0 13        	bne	$1716 <printf+0x1f6>
    1703: 18           	clc
    1704: aa           	tax
    1705: a5 13        	lda	$13                     ; 0x2013 <printf+0xaf3>
    1707: 65 78        	adc	$78                     ; 0x2078 <printf+0xb58>
    1709: 85 12        	sta	$12                     ; 0x2012 <printf+0xaf2>
    170b: 8a           	txa
    170c: 65 79        	adc	$79                     ; 0x2079 <printf+0xb59>
    170e: 85 13        	sta	$13                     ; 0x2013 <printf+0xaf3>
    1710: a9 25        	lda	#$25
    1712: 92 12        	sta	($12)                   ; 0x2012 <printf+0xaf2>
    1714: 80 11        	bra	$1727 <printf+0x207>
    1716: a2 25        	ldx	#$25
    1718: 86 32        	stx	$32                     ; 0x2032 <printf+0xb12>
    171a: a2 32        	ldx	#$32
    171c: 86 12        	stx	$12                     ; 0x2012 <printf+0xaf2>
    171e: a2 00        	ldx	#$0
    1720: 86 13        	stx	$13                     ; 0x2013 <printf+0xaf3>
    1722: 20 c1 10     	jsr	$10c1 <textPrint>
    1725: a0 01        	ldy	#$1
    1727: e6 74        	inc	$74                     ; 0x2074 <printf+0xb54>
    1729: d0 02        	bne	$172d <printf+0x20d>
    172b: e6 75        	inc	$75                     ; 0x2075 <printf+0xb55>
    172d: a5 45        	lda	$45                     ; 0x2045 <printf+0xb25>
    172f: 18           	clc
    1730: 69 02        	adc	#$2
    1732: 85 41        	sta	$41                     ; 0x2041 <printf+0xb21>
    1734: a5 46        	lda	$46                     ; 0x2046 <printf+0xb26>
    1736: 69 00        	adc	#$0
    1738: 85 42        	sta	$42                     ; 0x2042 <printf+0xb22>
    173a: 4c 85 15     	jmp	$1585 <printf+0x65>
    173d: 64 16        	stz	$16                     ; 0x2016 <printf+0xaf6>
    173f: 64 17        	stz	$17                     ; 0x2017 <printf+0xaf7>
    1741: a0 01        	ldy	#$1
    1743: a6 16        	ldx	$16                     ; 0x2016 <printf+0xaf6>
    1745: 86 7a        	stx	$7a                     ; 0x207a <printf+0xb5a>
    1747: a5 17        	lda	$17                     ; 0x2017 <printf+0xaf7>
    1749: 85 7b        	sta	$7b                     ; 0x207b <printf+0xb5b>
    174b: 86 49        	stx	$49                     ; 0x2049 <printf+0xb29>
    174d: 85 47        	sta	$47                     ; 0x2047 <printf+0xb27>
    174f: b2 12        	lda	($12)                   ; 0x2012 <printf+0xaf2>
    1751: a2 ff        	ldx	#$ff
    1753: c9 2e        	cmp	#$2e
    1755: d0 39        	bne	$1790 <printf+0x270>
    1757: b1 12        	lda	($12),y                 ; 0x2012 <printf+0xaf2>
    1759: c9 2a        	cmp	#$2a
    175b: d0 38        	bne	$1795 <printf+0x275>
    175d: a5 80        	lda	$80                     ; 0x2080 <printf+0xb60>
    175f: a6 81        	ldx	$81                     ; 0x2081 <printf+0xb61>
    1761: 85 14        	sta	$14                     ; 0x2014 <printf+0xaf4>
    1763: 86 15        	stx	$15                     ; 0x2015 <printf+0xaf5>
    1765: 18           	clc
    1766: 69 02        	adc	#$2
    1768: 85 16        	sta	$16                     ; 0x2016 <printf+0xaf6>
    176a: 8a           	txa
    176b: 69 00        	adc	#$0
    176d: a6 16        	ldx	$16                     ; 0x2016 <printf+0xaf6>
    176f: 86 80        	stx	$80                     ; 0x2080 <printf+0xb60>
    1771: 85 81        	sta	$81                     ; 0x2081 <printf+0xb61>
    1773: a5 12        	lda	$12                     ; 0x2012 <printf+0xaf2>
    1775: 18           	clc
    1776: 69 02        	adc	#$2
    1778: 85 12        	sta	$12                     ; 0x2012 <printf+0xaf2>
    177a: a5 13        	lda	$13                     ; 0x2013 <printf+0xaf3>
    177c: 69 00        	adc	#$0
    177e: 85 13        	sta	$13                     ; 0x2013 <printf+0xaf3>
    1780: b2 14        	lda	($14)                   ; 0x2014 <printf+0xaf4>
    1782: aa           	tax
    1783: b1 14        	lda	($14),y                 ; 0x2014 <printf+0xaf4>
    1785: 86 18        	stx	$18                     ; 0x2018 <printf+0xaf8>
    1787: 86 7c        	stx	$7c                     ; 0x207c <printf+0xb5c>
    1789: 85 19        	sta	$19                     ; 0x2019 <printf+0xaf9>
    178b: 85 7d        	sta	$7d                     ; 0x207d <printf+0xb5d>
    178d: 4c 40 18     	jmp	$1840 <printf+0x320>
    1790: 86 18        	stx	$18                     ; 0x2018 <printf+0xaf8>
    1792: 4c 50 18     	jmp	$1850 <printf+0x330>
    1795: 85 17        	sta	$17                     ; 0x2017 <printf+0xaf7>
    1797: 18           	clc
    1798: 69 d0        	adc	#$d0
    179a: c9 0a        	cmp	#$a
    179c: 90 03        	bcc	$17a1 <printf+0x281>
    179e: 4c 32 18     	jmp	$1832 <printf+0x312>
    17a1: 64 16        	stz	$16                     ; 0x2016 <printf+0xaf6>
    17a3: a2 01        	ldx	#$1
    17a5: 64 18        	stz	$18                     ; 0x2018 <printf+0xaf8>
    17a7: 64 19        	stz	$19                     ; 0x2019 <printf+0xaf9>
    17a9: a0 01        	ldy	#$1
    17ab: 64 1a        	stz	$1a                     ; 0x201a <printf+0xafa>
    17ad: 5a           	phy
    17ae: a4 1a        	ldy	$1a                     ; 0x201a <printf+0xafa>
    17b0: 84 14        	sty	$14                     ; 0x2014 <printf+0xaf4>
    17b2: 86 15        	stx	$15                     ; 0x2015 <printf+0xaf5>
    17b4: 06 18        	asl	$18                     ; 0x2018 <printf+0xaf8>
    17b6: 26 19        	rol	$19                     ; 0x2019 <printf+0xaf9>
    17b8: a5 18        	lda	$18                     ; 0x2018 <printf+0xaf8>
    17ba: 0a           	asl
    17bb: 85 1d        	sta	$1d                     ; 0x201d <printf+0xafd>
    17bd: a5 19        	lda	$19                     ; 0x2019 <printf+0xaf9>
    17bf: 2a           	rol
    17c0: 06 1d        	asl	$1d                     ; 0x201d <printf+0xafd>
    17c2: 2a           	rol
    17c3: 85 1e        	sta	$1e                     ; 0x201e <printf+0xafe>
    17c5: a5 1d        	lda	$1d                     ; 0x201d <printf+0xafd>
    17c7: 18           	clc
    17c8: 65 18        	adc	$18                     ; 0x2018 <printf+0xaf8>
    17ca: 85 18        	sta	$18                     ; 0x2018 <printf+0xaf8>
    17cc: a5 1e        	lda	$1e                     ; 0x201e <printf+0xafe>
    17ce: 65 19        	adc	$19                     ; 0x2019 <printf+0xaf9>
    17d0: 85 19        	sta	$19                     ; 0x2019 <printf+0xaf9>
    17d2: a5 18        	lda	$18                     ; 0x2018 <printf+0xaf8>
    17d4: 18           	clc
    17d5: 65 17        	adc	$17                     ; 0x2017 <printf+0xaf7>
    17d7: 85 17        	sta	$17                     ; 0x2017 <printf+0xaf7>
    17d9: a5 19        	lda	$19                     ; 0x2019 <printf+0xaf9>
    17db: 65 16        	adc	$16                     ; 0x2016 <printf+0xaf6>
    17dd: 85 16        	sta	$16                     ; 0x2016 <printf+0xaf6>
    17df: 18           	clc
    17e0: a5 17        	lda	$17                     ; 0x2017 <printf+0xaf7>
    17e2: 69 d0        	adc	#$d0
    17e4: 85 18        	sta	$18                     ; 0x2018 <printf+0xaf8>
    17e6: a5 16        	lda	$16                     ; 0x2016 <printf+0xaf6>
    17e8: 69 ff        	adc	#$ff
    17ea: 85 19        	sta	$19                     ; 0x2019 <printf+0xaf9>
    17ec: e8           	inx
    17ed: d0 02        	bne	$17f1 <printf+0x2d1>
    17ef: e6 1a        	inc	$1a                     ; 0x201a <printf+0xafa>
    17f1: a5 12        	lda	$12                     ; 0x2012 <printf+0xaf2>
    17f3: 18           	clc
    17f4: 65 15        	adc	$15                     ; 0x2015 <printf+0xaf5>
    17f6: 85 1d        	sta	$1d                     ; 0x201d <printf+0xafd>
    17f8: a5 13        	lda	$13                     ; 0x2013 <printf+0xaf3>
    17fa: 65 14        	adc	$14                     ; 0x2014 <printf+0xaf4>
    17fc: a4 1d        	ldy	$1d                     ; 0x201d <printf+0xafd>
    17fe: 84 16        	sty	$16                     ; 0x2016 <printf+0xaf6>
    1800: 7a           	ply
    1801: 85 17        	sta	$17                     ; 0x2017 <printf+0xaf7>
    1803: b1 16        	lda	($16),y                 ; 0x2016 <printf+0xaf6>
    1805: 85 17        	sta	$17                     ; 0x2017 <printf+0xaf7>
    1807: 18           	clc
    1808: 69 d0        	adc	#$d0
    180a: c9 0a        	cmp	#$a
    180c: 64 16        	stz	$16                     ; 0x2016 <printf+0xaf6>
    180e: b0 03        	bcs	$1813 <printf+0x2f3>
    1810: 4c ad 17     	jmp	$17ad <printf+0x28d>
    1813: a5 12        	lda	$12                     ; 0x2012 <printf+0xaf2>
    1815: 18           	clc
    1816: 65 15        	adc	$15                     ; 0x2015 <printf+0xaf5>
    1818: 85 12        	sta	$12                     ; 0x2012 <printf+0xaf2>
    181a: a5 13        	lda	$13                     ; 0x2013 <printf+0xaf3>
    181c: 65 14        	adc	$14                     ; 0x2014 <printf+0xaf4>
    181e: 85 13        	sta	$13                     ; 0x2013 <printf+0xaf3>
    1820: e6 12        	inc	$12                     ; 0x2012 <printf+0xaf2>
    1822: d0 02        	bne	$1826 <printf+0x306>
    1824: e6 13        	inc	$13                     ; 0x2013 <printf+0xaf3>
    1826: a6 18        	ldx	$18                     ; 0x2018 <printf+0xaf8>
    1828: 86 7c        	stx	$7c                     ; 0x207c <printf+0xb5c>
    182a: a6 19        	ldx	$19                     ; 0x2019 <printf+0xaf9>
    182c: 86 7d        	stx	$7d                     ; 0x207d <printf+0xb5d>
    182e: a0 01        	ldy	#$1
    1830: 80 0e        	bra	$1840 <printf+0x320>
    1832: e6 12        	inc	$12                     ; 0x2012 <printf+0xaf2>
    1834: d0 02        	bne	$1838 <printf+0x318>
    1836: e6 13        	inc	$13                     ; 0x2013 <printf+0xaf3>
    1838: 64 18        	stz	$18                     ; 0x2018 <printf+0xaf8>
    183a: 64 7c        	stz	$7c                     ; 0x207c <printf+0xb5c>
    183c: 64 7d        	stz	$7d                     ; 0x207d <printf+0xb5d>
    183e: 64 19        	stz	$19                     ; 0x2019 <printf+0xaf9>
    1840: a5 40        	lda	$40                     ; 0x2040 <printf+0xb20>
    1842: 29 ef        	and	#$ef
    1844: 85 40        	sta	$40                     ; 0x2040 <printf+0xb20>
    1846: 85 70        	sta	$70                     ; 0x2070 <printf+0xb50>
    1848: a2 00        	ldx	#$0
    184a: 86 71        	stx	$71                     ; 0x2071 <printf+0xb51>
    184c: b2 12        	lda	($12)                   ; 0x2012 <printf+0xaf2>
    184e: a6 19        	ldx	$19                     ; 0x2019 <printf+0xaf9>
    1850: 86 15        	stx	$15                     ; 0x2015 <printf+0xaf5>
    1852: a6 12        	ldx	$12                     ; 0x2012 <printf+0xaf2>
    1854: 86 41        	stx	$41                     ; 0x2041 <printf+0xb21>
    1856: a6 13        	ldx	$13                     ; 0x2013 <printf+0xaf3>
    1858: 86 42        	stx	$42                     ; 0x2042 <printf+0xb22>
    185a: e6 41        	inc	$41                     ; 0x2041 <printf+0xb21>
    185c: d0 02        	bne	$1860 <printf+0x340>
    185e: e6 42        	inc	$42                     ; 0x2042 <printf+0xb22>
    1860: 85 14        	sta	$14                     ; 0x2014 <printf+0xaf4>
    1862: 38           	sec
    1863: e9 6c        	sbc	#$6c
    1865: 50 02        	bvc	$1869 <printf+0x349>
    1867: 49 80        	eor	#$80
    1869: aa           	tax
    186a: 10 1d        	bpl	$1889 <printf+0x369>
    186c: a5 14        	lda	$14                     ; 0x2014 <printf+0xaf4>
    186e: c9 4c        	cmp	#$4c
    1870: f0 27        	beq	$1899 <printf+0x379>
    1872: c9 68        	cmp	#$68
    1874: d0 03        	bne	$1879 <printf+0x359>
    1876: 4c 00 19     	jmp	$1900 <printf+0x3e0>
    1879: a2 08        	ldx	#$8
    187b: c9 6a        	cmp	#$6a
    187d: d0 2e        	bne	$18ad <printf+0x38d>
    187f: a5 41        	lda	$41                     ; 0x2041 <printf+0xb21>
    1881: 85 12        	sta	$12                     ; 0x2012 <printf+0xaf2>
    1883: a5 42        	lda	$42                     ; 0x2042 <printf+0xb22>
    1885: 85 13        	sta	$13                     ; 0x2013 <printf+0xaf3>
    1887: 80 43        	bra	$18cc <printf+0x3ac>
    1889: a6 14        	ldx	$14                     ; 0x2014 <printf+0xaf4>
    188b: e0 6c        	cpx	#$6c
    188d: f0 23        	beq	$18b2 <printf+0x392>
    188f: e0 74        	cpx	#$74
    1891: f0 12        	beq	$18a5 <printf+0x385>
    1893: e0 7a        	cpx	#$7a
    1895: f0 0e        	beq	$18a5 <printf+0x385>
    1897: 80 14        	bra	$18ad <printf+0x38d>
    1899: a5 40        	lda	$40                     ; 0x2040 <printf+0xb20>
    189b: 09 40        	ora	#$40
    189d: 85 40        	sta	$40                     ; 0x2040 <printf+0xb20>
    189f: 85 70        	sta	$70                     ; 0x2070 <printf+0xb50>
    18a1: a2 00        	ldx	#$0
    18a3: 86 71        	stx	$71                     ; 0x2071 <printf+0xb51>
    18a5: a6 41        	ldx	$41                     ; 0x2041 <printf+0xb21>
    18a7: 86 12        	stx	$12                     ; 0x2012 <printf+0xaf2>
    18a9: a6 42        	ldx	$42                     ; 0x2042 <printf+0xb22>
    18ab: 86 13        	stx	$13                     ; 0x2013 <printf+0xaf3>
    18ad: a2 02        	ldx	#$2
    18af: 8a           	txa
    18b0: 80 1c        	bra	$18ce <printf+0x3ae>
    18b2: b1 12        	lda	($12),y                 ; 0x2012 <printf+0xaf2>
    18b4: a2 04        	ldx	#$4
    18b6: c9 6c        	cmp	#$6c
    18b8: f0 03        	beq	$18bd <printf+0x39d>
    18ba: 4c 0f 1c     	jmp	$1c0f <printf+0x6ef>
    18bd: a5 12        	lda	$12                     ; 0x2012 <printf+0xaf2>
    18bf: 18           	clc
    18c0: 69 02        	adc	#$2
    18c2: 85 12        	sta	$12                     ; 0x2012 <printf+0xaf2>
    18c4: a5 13        	lda	$13                     ; 0x2013 <printf+0xaf3>
    18c6: 69 00        	adc	#$0
    18c8: 85 13        	sta	$13                     ; 0x2013 <printf+0xaf3>
    18ca: a2 08        	ldx	#$8
    18cc: a9 08        	lda	#$8
    18ce: 85 85        	sta	$85                     ; 0x2085 <printf+0xb65>
    18d0: b2 12        	lda	($12)                   ; 0x2012 <printf+0xaf2>
    18d2: 5a           	phy
    18d3: a4 12        	ldy	$12                     ; 0x2012 <printf+0xaf2>
    18d5: 84 41        	sty	$41                     ; 0x2041 <printf+0xb21>
    18d7: a4 13        	ldy	$13                     ; 0x2013 <printf+0xaf3>
    18d9: 84 42        	sty	$42                     ; 0x2042 <printf+0xb22>
    18db: 7a           	ply
    18dc: 86 43        	stx	$43                     ; 0x2043 <printf+0xb23>
    18de: aa           	tax
    18df: 18           	clc
    18e0: 69 9d        	adc	#$9d
    18e2: c9 16        	cmp	#$16
    18e4: b0 39        	bcs	$191f <printf+0x3ff>
    18e6: 0a           	asl
    18e7: aa           	tax
    18e8: 7c c3 24     	jmp	($24c3,x)               ; 0x24c3 <__set_v+0xf>
    18eb: a6 15        	ldx	$15                     ; 0x2015 <printf+0xaf5>
    18ed: 86 88        	stx	$88                     ; 0x2088 <printf+0xb68>
    18ef: a6 18        	ldx	$18                     ; 0x2018 <printf+0xaf8>
    18f1: 86 89        	stx	$89                     ; 0x2089 <printf+0xb69>
    18f3: a0 0a        	ldy	#$a
    18f5: a2 0a        	ldx	#$a
    18f7: 86 84        	stx	$84                     ; 0x2084 <printf+0xb64>
    18f9: 84 6f        	sty	$6f                     ; 0x206f <printf+0xb4f>
    18fb: 64 4a        	stz	$4a                     ; 0x204a <printf+0xb2a>
    18fd: 4c 1f 1a     	jmp	$1a1f <printf+0x4ff>
    1900: b1 12        	lda	($12),y                 ; 0x2012 <printf+0xaf2>
    1902: a2 02        	ldx	#$2
    1904: c9 68        	cmp	#$68
    1906: f0 03        	beq	$190b <printf+0x3eb>
    1908: 4c 15 1c     	jmp	$1c15 <printf+0x6f5>
    190b: a5 12        	lda	$12                     ; 0x2012 <printf+0xaf2>
    190d: 18           	clc
    190e: 69 02        	adc	#$2
    1910: 85 12        	sta	$12                     ; 0x2012 <printf+0xaf2>
    1912: a5 13        	lda	$13                     ; 0x2013 <printf+0xaf3>
    1914: 69 00        	adc	#$0
    1916: 85 13        	sta	$13                     ; 0x2013 <printf+0xaf3>
    1918: a2 01        	ldx	#$1
    191a: 86 85        	stx	$85                     ; 0x2085 <printf+0xb65>
    191c: e8           	inx
    191d: 80 b1        	bra	$18d0 <printf+0x3b0>
    191f: e0 58        	cpx	#$58
    1921: f0 03        	beq	$1926 <printf+0x406>
    1923: 4c 07 21     	jmp	$2107 <printf+0xbe7>
    1926: a6 15        	ldx	$15                     ; 0x2015 <printf+0xaf5>
    1928: 86 88        	stx	$88                     ; 0x2088 <printf+0xb68>
    192a: a6 18        	ldx	$18                     ; 0x2018 <printf+0xaf8>
    192c: 86 89        	stx	$89                     ; 0x2089 <printf+0xb69>
    192e: a2 10        	ldx	#$10
    1930: 86 6f        	stx	$6f                     ; 0x206f <printf+0xb4f>
    1932: a9 00        	lda	#$0
    1934: 09 01        	ora	#$1
    1936: a6 40        	ldx	$40                     ; 0x2040 <printf+0xb20>
    1938: 80 29        	bra	$1963 <printf+0x443>
    193a: a6 15        	ldx	$15                     ; 0x2015 <printf+0xaf5>
    193c: 86 88        	stx	$88                     ; 0x2088 <printf+0xb68>
    193e: a6 18        	ldx	$18                     ; 0x2018 <printf+0xaf8>
    1940: 86 89        	stx	$89                     ; 0x2089 <printf+0xb69>
    1942: a2 10        	ldx	#$10
    1944: 86 6f        	stx	$6f                     ; 0x206f <printf+0xb4f>
    1946: a5 40        	lda	$40                     ; 0x2040 <printf+0xb20>
    1948: 09 84        	ora	#$84
    194a: 80 10        	bra	$195c <printf+0x43c>
    194c: a6 15        	ldx	$15                     ; 0x2015 <printf+0xaf5>
    194e: 86 88        	stx	$88                     ; 0x2088 <printf+0xb68>
    1950: a6 18        	ldx	$18                     ; 0x2018 <printf+0xaf8>
    1952: 86 89        	stx	$89                     ; 0x2089 <printf+0xb69>
    1954: a2 10        	ldx	#$10
    1956: 86 6f        	stx	$6f                     ; 0x206f <printf+0xb4f>
    1958: a5 40        	lda	$40                     ; 0x2040 <printf+0xb20>
    195a: 09 80        	ora	#$80
    195c: aa           	tax
    195d: a9 00        	lda	#$0
    195f: 09 01        	ora	#$1
    1961: 86 40        	stx	$40                     ; 0x2040 <printf+0xb20>
    1963: 86 70        	stx	$70                     ; 0x2070 <printf+0xb50>
    1965: 85 4a        	sta	$4a                     ; 0x204a <printf+0xb2a>
    1967: 85 71        	sta	$71                     ; 0x2071 <printf+0xb51>
    1969: a2 10        	ldx	#$10
    196b: 86 84        	stx	$84                     ; 0x2084 <printf+0xb64>
    196d: 4c 1f 1a     	jmp	$1a1f <printf+0x4ff>
    1970: a5 80        	lda	$80                     ; 0x2080 <printf+0xb60>
    1972: a6 81        	ldx	$81                     ; 0x2081 <printf+0xb61>
    1974: 85 12        	sta	$12                     ; 0x2012 <printf+0xaf2>
    1976: 86 13        	stx	$13                     ; 0x2013 <printf+0xaf3>
    1978: 18           	clc
    1979: 69 02        	adc	#$2
    197b: 85 14        	sta	$14                     ; 0x2014 <printf+0xaf4>
    197d: 8a           	txa
    197e: 69 00        	adc	#$0
    1980: a6 14        	ldx	$14                     ; 0x2014 <printf+0xaf4>
    1982: 86 80        	stx	$80                     ; 0x2080 <printf+0xb60>
    1984: 85 81        	sta	$81                     ; 0x2081 <printf+0xb61>
    1986: b2 12        	lda	($12)                   ; 0x2012 <printf+0xaf2>
    1988: aa           	tax
    1989: b1 12        	lda	($12),y                 ; 0x2012 <printf+0xaf2>
    198b: 86 12        	stx	$12                     ; 0x2012 <printf+0xaf2>
    198d: 85 13        	sta	$13                     ; 0x2013 <printf+0xaf3>
    198f: a5 74        	lda	$74                     ; 0x2074 <printf+0xb54>
    1991: a6 75        	ldx	$75                     ; 0x2075 <printf+0xb55>
    1993: 92 12        	sta	($12)                   ; 0x2012 <printf+0xaf2>
    1995: 8a           	txa
    1996: 91 12        	sta	($12),y                 ; 0x2012 <printf+0xaf2>
    1998: 4c f8 19     	jmp	$19f8 <printf+0x4d8>
    199b: a5 80        	lda	$80                     ; 0x2080 <printf+0xb60>
    199d: a6 81        	ldx	$81                     ; 0x2081 <printf+0xb61>
    199f: 85 12        	sta	$12                     ; 0x2012 <printf+0xaf2>
    19a1: 86 13        	stx	$13                     ; 0x2013 <printf+0xaf3>
    19a3: 18           	clc
    19a4: 69 02        	adc	#$2
    19a6: 85 14        	sta	$14                     ; 0x2014 <printf+0xaf4>
    19a8: 8a           	txa
    19a9: 69 00        	adc	#$0
    19ab: a6 14        	ldx	$14                     ; 0x2014 <printf+0xaf4>
    19ad: 86 80        	stx	$80                     ; 0x2080 <printf+0xb60>
    19af: 85 81        	sta	$81                     ; 0x2081 <printf+0xb61>
    19b1: b2 12        	lda	($12)                   ; 0x2012 <printf+0xaf2>
    19b3: aa           	tax
    19b4: b1 12        	lda	($12),y                 ; 0x2012 <printf+0xaf2>
    19b6: 86 12        	stx	$12                     ; 0x2012 <printf+0xaf2>
    19b8: 85 13        	sta	$13                     ; 0x2013 <printf+0xaf3>
    19ba: 80 2f        	bra	$19eb <printf+0x4cb>
    19bc: a6 15        	ldx	$15                     ; 0x2015 <printf+0xaf5>
    19be: 86 88        	stx	$88                     ; 0x2088 <printf+0xb68>
    19c0: a6 18        	ldx	$18                     ; 0x2018 <printf+0xaf8>
    19c2: 86 89        	stx	$89                     ; 0x2089 <printf+0xb69>
    19c4: a0 08        	ldy	#$8
    19c6: a2 08        	ldx	#$8
    19c8: 80 45        	bra	$1a0f <printf+0x4ef>
    19ca: a5 80        	lda	$80                     ; 0x2080 <printf+0xb60>
    19cc: a6 81        	ldx	$81                     ; 0x2081 <printf+0xb61>
    19ce: 85 12        	sta	$12                     ; 0x2012 <printf+0xaf2>
    19d0: 86 13        	stx	$13                     ; 0x2013 <printf+0xaf3>
    19d2: 18           	clc
    19d3: 69 02        	adc	#$2
    19d5: a8           	tay
    19d6: 8a           	txa
    19d7: 69 00        	adc	#$0
    19d9: 84 80        	sty	$80                     ; 0x2080 <printf+0xb60>
    19db: 85 81        	sta	$81                     ; 0x2081 <printf+0xb61>
    19dd: b2 12        	lda	($12)                   ; 0x2012 <printf+0xaf2>
    19df: 85 62        	sta	$62                     ; 0x2062 <printf+0xb42>
    19e1: 64 63        	stz	$63                     ; 0x2063 <printf+0xb43>
    19e3: a2 62        	ldx	#$62
    19e5: 86 12        	stx	$12                     ; 0x2012 <printf+0xaf2>
    19e7: a2 00        	ldx	#$0
    19e9: 86 13        	stx	$13                     ; 0x2013 <printf+0xaf3>
    19eb: a2 6f        	ldx	#$6f
    19ed: 86 14        	stx	$14                     ; 0x2014 <printf+0xaf4>
    19ef: a2 00        	ldx	#$0
    19f1: 86 15        	stx	$15                     ; 0x2015 <printf+0xaf5>
    19f3: 20 14 14     	jsr	$1414 <_ZN12_GLOBAL__N_112print_stringEPKcP6Status>
    19f6: a0 01        	ldy	#$1
    19f8: a2 00        	ldx	#$0
    19fa: 86 43        	stx	$43                     ; 0x2043 <printf+0xb23>
    19fc: a2 00        	ldx	#$0
    19fe: 86 44        	stx	$44                     ; 0x2044 <printf+0xb24>
    1a00: 4c ef 20     	jmp	$20ef <printf+0xbcf>
    1a03: a6 15        	ldx	$15                     ; 0x2015 <printf+0xaf5>
    1a05: 86 88        	stx	$88                     ; 0x2088 <printf+0xb68>
    1a07: a6 18        	ldx	$18                     ; 0x2018 <printf+0xaf8>
    1a09: 86 89        	stx	$89                     ; 0x2089 <printf+0xb69>
    1a0b: a0 0a        	ldy	#$a
    1a0d: a2 0a        	ldx	#$a
    1a0f: 86 84        	stx	$84                     ; 0x2084 <printf+0xb64>
    1a11: 84 6f        	sty	$6f                     ; 0x206f <printf+0xb4f>
    1a13: a9 00        	lda	#$0
    1a15: 09 01        	ora	#$1
    1a17: a6 40        	ldx	$40                     ; 0x2040 <printf+0xb20>
    1a19: 86 70        	stx	$70                     ; 0x2070 <printf+0xb50>
    1a1b: 85 4a        	sta	$4a                     ; 0x204a <printf+0xb2a>
    1a1d: 85 71        	sta	$71                     ; 0x2071 <printf+0xb51>
    1a1f: a5 85        	lda	$85                     ; 0x2085 <printf+0xb65>
    1a21: 85 64        	sta	$64                     ; 0x2064 <printf+0xb44>
    1a23: a4 80        	ldy	$80                     ; 0x2080 <printf+0xb60>
    1a25: a6 81        	ldx	$81                     ; 0x2081 <printf+0xb61>
    1a27: 86 48        	stx	$48                     ; 0x2048 <printf+0xb28>
    1a29: 84 14        	sty	$14                     ; 0x2014 <printf+0xaf4>
    1a2b: 84 3f        	sty	$3f                     ; 0x203f <printf+0xb1f>
    1a2d: 86 15        	stx	$15                     ; 0x2015 <printf+0xaf5>
    1a2f: a6 86        	ldx	$86                     ; 0x2086 <printf+0xb66>
    1a31: 86 12        	stx	$12                     ; 0x2012 <printf+0xaf2>
    1a33: a6 87        	ldx	$87                     ; 0x2087 <printf+0xb67>
    1a35: 86 13        	stx	$13                     ; 0x2013 <printf+0xaf3>
    1a37: a2 00        	ldx	#$0
    1a39: 85 44        	sta	$44                     ; 0x2044 <printf+0xb24>
    1a3b: 20 21 23     	jsr	$2321 <memcpy>
    1a3e: 18           	clc
    1a3f: a5 3f        	lda	$3f                     ; 0x203f <printf+0xb1f>
    1a41: 65 43        	adc	$43                     ; 0x2043 <printf+0xb23>
    1a43: aa           	tax
    1a44: a5 48        	lda	$48                     ; 0x2048 <printf+0xb28>
    1a46: 69 00        	adc	#$0
    1a48: 86 80        	stx	$80                     ; 0x2080 <printf+0xb60>
    1a4a: 85 81        	sta	$81                     ; 0x2081 <printf+0xb61>
    1a4c: a5 4a        	lda	$4a                     ; 0x204a <printf+0xb2a>
    1a4e: 29 01        	and	#$1
    1a50: b8           	clv
    1a51: f0 03        	beq	$1a56 <printf+0x536>
    1a53: 4c aa 1a     	jmp	$1aaa <printf+0x58a>
    1a56: a6 44        	ldx	$44                     ; 0x2044 <printf+0xb24>
    1a58: b5 64        	lda	$64,x                   ; 0x2064 <printf+0xb44>
    1a5a: aa           	tax
    1a5b: a0 01        	ldy	#$1
    1a5d: a5 47        	lda	$47                     ; 0x2047 <printf+0xb27>
    1a5f: 85 1a        	sta	$1a                     ; 0x201a <printf+0xafa>
    1a61: a5 89        	lda	$89                     ; 0x2089 <printf+0xb69>
    1a63: 85 47        	sta	$47                     ; 0x2047 <printf+0xb27>
    1a65: a9 00        	lda	#$0
    1a67: 85 43        	sta	$43                     ; 0x2043 <printf+0xb23>
    1a69: a9 00        	lda	#$0
    1a6b: 85 44        	sta	$44                     ; 0x2044 <printf+0xb24>
    1a6d: a5 88        	lda	$88                     ; 0x2088 <printf+0xb68>
    1a6f: 85 48        	sta	$48                     ; 0x2048 <printf+0xb28>
    1a71: 8a           	txa
    1a72: 10 4c        	bpl	$1ac0 <printf+0x5a0>
    1a74: a2 00        	ldx	#$0
    1a76: 64 12        	stz	$12                     ; 0x2012 <printf+0xaf2>
    1a78: a9 00        	lda	#$0
    1a7a: 38           	sec
    1a7b: f5 65        	sbc	$65,x                   ; 0x2065 <printf+0xb45>
    1a7d: a0 00        	ldy	#$0
    1a7f: b0 02        	bcs	$1a83 <printf+0x563>
    1a81: a0 01        	ldy	#$1
    1a83: 38           	sec
    1a84: e5 12        	sbc	$12                     ; 0x2012 <printf+0xaf2>
    1a86: 85 13        	sta	$13                     ; 0x2013 <printf+0xaf3>
    1a88: 64 12        	stz	$12                     ; 0x2012 <printf+0xaf2>
    1a8a: b0 04        	bcs	$1a90 <printf+0x570>
    1a8c: a9 01        	lda	#$1
    1a8e: 85 12        	sta	$12                     ; 0x2012 <printf+0xaf2>
    1a90: 98           	tya
    1a91: 05 12        	ora	$12                     ; 0x2012 <printf+0xaf2>
    1a93: 85 12        	sta	$12                     ; 0x2012 <printf+0xaf2>
    1a95: a5 13        	lda	$13                     ; 0x2013 <printf+0xaf3>
    1a97: 9d 65 00     	sta	$65,x                   ; 0x65 <__rc31+0x36>
    1a9a: e8           	inx
    1a9b: 86 13        	stx	$13                     ; 0x2013 <printf+0xaf3>
    1a9d: a4 85        	ldy	$85                     ; 0x2085 <printf+0xb65>
    1a9f: c4 13        	cpy	$13                     ; 0x2013 <printf+0xaf3>
    1aa1: d0 d5        	bne	$1a78 <printf+0x558>
    1aa3: 2c b4 24     	bit	$24b4                   ; 0x24b4 <__set_v>
    1aa6: a0 01        	ldy	#$1
    1aa8: 80 16        	bra	$1ac0 <printf+0x5a0>
    1aaa: a0 01        	ldy	#$1
    1aac: a6 47        	ldx	$47                     ; 0x2047 <printf+0xb27>
    1aae: 86 1a        	stx	$1a                     ; 0x201a <printf+0xafa>
    1ab0: a6 89        	ldx	$89                     ; 0x2089 <printf+0xb69>
    1ab2: 86 47        	stx	$47                     ; 0x2047 <printf+0xb27>
    1ab4: a2 00        	ldx	#$0
    1ab6: 86 43        	stx	$43                     ; 0x2043 <printf+0xb23>
    1ab8: a2 00        	ldx	#$0
    1aba: 86 44        	stx	$44                     ; 0x2044 <printf+0xb24>
    1abc: a6 88        	ldx	$88                     ; 0x2088 <printf+0xb68>
    1abe: 86 48        	stx	$48                     ; 0x2048 <printf+0xb28>
    1ac0: a2 01        	ldx	#$1
    1ac2: 70 02        	bvs	$1ac6 <printf+0x5a6>
    1ac4: a2 00        	ldx	#$0
    1ac6: 86 16        	stx	$16                     ; 0x2016 <printf+0xaf6>
    1ac8: a5 85        	lda	$85                     ; 0x2085 <printf+0xb65>
    1aca: 0a           	asl
    1acb: 0a           	asl
    1acc: 0a           	asl
    1acd: 85 12        	sta	$12                     ; 0x2012 <printf+0xaf2>
    1acf: a2 00        	ldx	#$0
    1ad1: 8a           	txa
    1ad2: e0 00        	cpx	#$0
    1ad4: d0 03        	bne	$1ad9 <printf+0x5b9>
    1ad6: 4c 5e 1b     	jmp	$1b5e <printf+0x63e>
    1ad9: 85 17        	sta	$17                     ; 0x2017 <printf+0xaf7>
    1adb: 86 3f        	stx	$3f                     ; 0x203f <printf+0xb1f>
    1add: ca           	dex
    1ade: 86 15        	stx	$15                     ; 0x2015 <printf+0xaf5>
    1ae0: a2 00        	ldx	#$0
    1ae2: 64 13        	stz	$13                     ; 0x2013 <printf+0xaf3>
    1ae4: 80 0d        	bra	$1af3 <printf+0x5d3>
    1ae6: a4 13        	ldy	$13                     ; 0x2013 <printf+0xaf3>
    1ae8: 99 4d 00     	sta	$4d,y                   ; 0x4d <__rc31+0x1e>
    1aeb: a4 15        	ldy	$15                     ; 0x2015 <printf+0xaf5>
    1aed: c4 13        	cpy	$13                     ; 0x2013 <printf+0xaf3>
    1aef: f0 38        	beq	$1b29 <printf+0x609>
    1af1: e6 13        	inc	$13                     ; 0x2013 <printf+0xaf3>
    1af3: a4 13        	ldy	$13                     ; 0x2013 <printf+0xaf3>
    1af5: b9 4d 00     	lda	$4d,y                   ; 0x4d <__rc31+0x1e>
    1af8: 0a           	asl
    1af9: e0 00        	cpx	#$0
    1afb: f0 02        	beq	$1aff <printf+0x5df>
    1afd: 09 01        	ora	#$1
    1aff: a4 84        	ldy	$84                     ; 0x2084 <printf+0xb64>
    1b01: 84 14        	sty	$14                     ; 0x2014 <printf+0xaf4>
    1b03: c5 14        	cmp	$14                     ; 0x2014 <printf+0xaf4>
    1b05: a2 01        	ldx	#$1
    1b07: b0 02        	bcs	$1b0b <printf+0x5eb>
    1b09: a2 00        	ldx	#$0
    1b0b: 90 d9        	bcc	$1ae6 <printf+0x5c6>
    1b0d: 84 14        	sty	$14                     ; 0x2014 <printf+0xaf4>
    1b0f: 38           	sec
    1b10: e5 14        	sbc	$14                     ; 0x2014 <printf+0xaf4>
    1b12: a4 13        	ldy	$13                     ; 0x2013 <printf+0xaf3>
    1b14: 99 4d 00     	sta	$4d,y                   ; 0x4d <__rc31+0x1e>
    1b17: a4 15        	ldy	$15                     ; 0x2015 <printf+0xaf5>
    1b19: c4 13        	cpy	$13                     ; 0x2013 <printf+0xaf3>
    1b1b: d0 d4        	bne	$1af1 <printf+0x5d1>
    1b1d: a4 3f        	ldy	$3f                     ; 0x203f <printf+0xb1f>
    1b1f: a6 3f        	ldx	$3f                     ; 0x203f <printf+0xb1f>
    1b21: e8           	inx
    1b22: a9 01        	lda	#$1
    1b24: 99 4d 00     	sta	$4d,y                   ; 0x4d <__rc31+0x1e>
    1b27: 86 3f        	stx	$3f                     ; 0x203f <printf+0xb1f>
    1b29: a6 85        	ldx	$85                     ; 0x2085 <printf+0xb65>
    1b2b: b5 64        	lda	$64,x                   ; 0x2064 <printf+0xb44>
    1b2d: aa           	tax
    1b2e: a0 01        	ldy	#$1
    1b30: 8a           	txa
    1b31: 10 47        	bpl	$1b7a <printf+0x65a>
    1b33: a5 3f        	lda	$3f                     ; 0x203f <printf+0xb1f>
    1b35: f0 34        	beq	$1b6b <printf+0x64b>
    1b37: a2 00        	ldx	#$0
    1b39: a4 84        	ldy	$84                     ; 0x2084 <printf+0xb64>
    1b3b: 84 14        	sty	$14                     ; 0x2014 <printf+0xaf4>
    1b3d: b5 4d        	lda	$4d,x                   ; 0x204d <printf+0xb2d>
    1b3f: 1a           	inc
    1b40: f6 4d        	inc	$4d,x                   ; 0x204d <printf+0xb2d>
    1b42: c5 14        	cmp	$14                     ; 0x2014 <printf+0xaf4>
    1b44: b0 03        	bcs	$1b49 <printf+0x629>
    1b46: 4c a5 1b     	jmp	$1ba5 <printf+0x685>
    1b49: a4 14        	ldy	$14                     ; 0x2014 <printf+0xaf4>
    1b4b: 84 13        	sty	$13                     ; 0x2013 <printf+0xaf3>
    1b4d: 38           	sec
    1b4e: e5 13        	sbc	$13                     ; 0x2013 <printf+0xaf3>
    1b50: 9d 4d 00     	sta	$4d,x                   ; 0x4d <__rc31+0x1e>
    1b53: e8           	inx
    1b54: 86 13        	stx	$13                     ; 0x2013 <printf+0xaf3>
    1b56: a4 3f        	ldy	$3f                     ; 0x203f <printf+0xb1f>
    1b58: c4 13        	cpy	$13                     ; 0x2013 <printf+0xaf3>
    1b5a: d0 e1        	bne	$1b3d <printf+0x61d>
    1b5c: 80 0f        	bra	$1b6d <printf+0x64d>
    1b5e: 85 17        	sta	$17                     ; 0x2017 <printf+0xaf7>
    1b60: a6 85        	ldx	$85                     ; 0x2085 <printf+0xb65>
    1b62: b5 64        	lda	$64,x                   ; 0x2064 <printf+0xb44>
    1b64: aa           	tax
    1b65: 64 3f        	stz	$3f                     ; 0x203f <printf+0xb1f>
    1b67: 30 04        	bmi	$1b6d <printf+0x64d>
    1b69: 80 0f        	bra	$1b7a <printf+0x65a>
    1b6b: 64 3f        	stz	$3f                     ; 0x203f <printf+0xb1f>
    1b6d: a4 3f        	ldy	$3f                     ; 0x203f <printf+0xb1f>
    1b6f: a6 3f        	ldx	$3f                     ; 0x203f <printf+0xb1f>
    1b71: e8           	inx
    1b72: a9 01        	lda	#$1
    1b74: 99 4d 00     	sta	$4d,y                   ; 0x4d <__rc31+0x1e>
    1b77: a8           	tay
    1b78: 86 3f        	stx	$3f                     ; 0x203f <printf+0xb1f>
    1b7a: a2 01        	ldx	#$1
    1b7c: 64 13        	stz	$13                     ; 0x2013 <printf+0xaf3>
    1b7e: a5 85        	lda	$85                     ; 0x2085 <printf+0xb65>
    1b80: 85 14        	sta	$14                     ; 0x2014 <printf+0xaf4>
    1b82: b5 64        	lda	$64,x                   ; 0x2064 <printf+0xb44>
    1b84: 0a           	asl
    1b85: 64 15        	stz	$15                     ; 0x2015 <printf+0xaf5>
    1b87: 26 15        	rol	$15                     ; 0x2015 <printf+0xaf5>
    1b89: 05 13        	ora	$13                     ; 0x2013 <printf+0xaf3>
    1b8b: 9d 64 00     	sta	$64,x                   ; 0x64 <__rc31+0x35>
    1b8e: e8           	inx
    1b8f: c6 14        	dec	$14                     ; 0x2014 <printf+0xaf4>
    1b91: a5 15        	lda	$15                     ; 0x2015 <printf+0xaf5>
    1b93: 85 13        	sta	$13                     ; 0x2013 <printf+0xaf3>
    1b95: a5 14        	lda	$14                     ; 0x2014 <printf+0xaf4>
    1b97: d0 e9        	bne	$1b82 <printf+0x662>
    1b99: a5 17        	lda	$17                     ; 0x2017 <printf+0xaf7>
    1b9b: 1a           	inc
    1b9c: c5 12        	cmp	$12                     ; 0x2012 <printf+0xaf2>
    1b9e: a6 3f        	ldx	$3f                     ; 0x203f <printf+0xb1f>
    1ba0: b0 07        	bcs	$1ba9 <printf+0x689>
    1ba2: 4c d2 1a     	jmp	$1ad2 <printf+0x5b2>
    1ba5: a0 01        	ldy	#$1
    1ba7: 80 d1        	bra	$1b7a <printf+0x65a>
    1ba9: a5 40        	lda	$40                     ; 0x2040 <printf+0xb20>
    1bab: e6 48        	inc	$48                     ; 0x2048 <printf+0xb28>
    1bad: c6 48        	dec	$48                     ; 0x2048 <printf+0xb28>
    1baf: 10 08        	bpl	$1bb9 <printf+0x699>
    1bb1: a2 01        	ldx	#$1
    1bb3: 64 48        	stz	$48                     ; 0x2048 <printf+0xb28>
    1bb5: 86 47        	stx	$47                     ; 0x2047 <printf+0xb27>
    1bb7: a6 3f        	ldx	$3f                     ; 0x203f <printf+0xb1f>
    1bb9: 29 04        	and	#$4
    1bbb: f0 2b        	beq	$1be8 <printf+0x6c8>
    1bbd: a5 84        	lda	$84                     ; 0x2084 <printf+0xb64>
    1bbf: c9 10        	cmp	#$10
    1bc1: f0 14        	beq	$1bd7 <printf+0x6b7>
    1bc3: c9 08        	cmp	#$8
    1bc5: d0 21        	bne	$1be8 <printf+0x6c8>
    1bc7: a2 00        	ldx	#$0
    1bc9: e4 48        	cpx	$48                     ; 0x2048 <printf+0xb28>
    1bcb: f0 03        	beq	$1bd0 <printf+0x6b0>
    1bcd: 4c 14 21     	jmp	$2114 <printf+0xbf4>
    1bd0: a6 3f        	ldx	$3f                     ; 0x203f <printf+0xb1f>
    1bd2: e4 47        	cpx	$47                     ; 0x2047 <printf+0xb27>
    1bd4: 4c 16 21     	jmp	$2116 <printf+0xbf6>
    1bd7: 8a           	txa
    1bd8: f0 0e        	beq	$1be8 <printf+0x6c8>
    1bda: a5 40        	lda	$40                     ; 0x2040 <printf+0xb20>
    1bdc: 29 80        	and	#$80
    1bde: d0 03        	bne	$1be3 <printf+0x6c3>
    1be0: 4c 2f 21     	jmp	$212f <printf+0xc0f>
    1be3: a2 78        	ldx	#$78
    1be5: 4c 31 21     	jmp	$2131 <printf+0xc11>
    1be8: a6 40        	ldx	$40                     ; 0x2040 <printf+0xb20>
    1bea: a9 2d        	lda	#$2d
    1bec: 85 88        	sta	$88                     ; 0x2088 <printf+0xb68>
    1bee: a5 16        	lda	$16                     ; 0x2016 <printf+0xaf6>
    1bf0: d0 32        	bne	$1c24 <printf+0x704>
    1bf2: 86 12        	stx	$12                     ; 0x2012 <printf+0xaf2>
    1bf4: 8a           	txa
    1bf5: 29 02        	and	#$2
    1bf7: a2 2b        	ldx	#$2b
    1bf9: 86 88        	stx	$88                     ; 0x2088 <printf+0xb68>
    1bfb: aa           	tax
    1bfc: d0 26        	bne	$1c24 <printf+0x704>
    1bfe: a5 12        	lda	$12                     ; 0x2012 <printf+0xaf2>
    1c00: 29 08        	and	#$8
    1c02: d0 1c        	bne	$1c20 <printf+0x700>
    1c04: a2 01        	ldx	#$1
    1c06: 86 85        	stx	$85                     ; 0x2085 <printf+0xb65>
    1c08: a9 00        	lda	#$0
    1c0a: aa           	tax
    1c0b: 86 84        	stx	$84                     ; 0x2084 <printf+0xb64>
    1c0d: 80 1c        	bra	$1c2b <printf+0x70b>
    1c0f: 85 12        	sta	$12                     ; 0x2012 <printf+0xaf2>
    1c11: a9 04        	lda	#$4
    1c13: 80 04        	bra	$1c19 <printf+0x6f9>
    1c15: 85 12        	sta	$12                     ; 0x2012 <printf+0xaf2>
    1c17: a9 02        	lda	#$2
    1c19: 85 85        	sta	$85                     ; 0x2085 <printf+0xb65>
    1c1b: a5 12        	lda	$12                     ; 0x2012 <printf+0xaf2>
    1c1d: 4c dc 18     	jmp	$18dc <printf+0x3bc>
    1c20: a2 20        	ldx	#$20
    1c22: 86 88        	stx	$88                     ; 0x2088 <printf+0xb68>
    1c24: a2 00        	ldx	#$0
    1c26: 86 85        	stx	$85                     ; 0x2085 <printf+0xb65>
    1c28: 86 84        	stx	$84                     ; 0x2084 <printf+0xb64>
    1c2a: 98           	tya
    1c2b: a6 48        	ldx	$48                     ; 0x2048 <printf+0xb28>
    1c2d: d0 35        	bne	$1c64 <printf+0x744>
    1c2f: a6 47        	ldx	$47                     ; 0x2047 <printf+0xb27>
    1c31: a4 3f        	ldy	$3f                     ; 0x203f <printf+0xb1f>
    1c33: 84 12        	sty	$12                     ; 0x2012 <printf+0xaf2>
    1c35: e4 12        	cpx	$12                     ; 0x2012 <printf+0xaf2>
    1c37: a6 47        	ldx	$47                     ; 0x2047 <printf+0xb27>
    1c39: 86 12        	stx	$12                     ; 0x2012 <printf+0xaf2>
    1c3b: a6 48        	ldx	$48                     ; 0x2048 <printf+0xb28>
    1c3d: 86 13        	stx	$13                     ; 0x2013 <printf+0xaf3>
    1c3f: b0 04        	bcs	$1c45 <printf+0x725>
    1c41: 84 12        	sty	$12                     ; 0x2012 <printf+0xaf2>
    1c43: 64 13        	stz	$13                     ; 0x2013 <printf+0xaf3>
    1c45: 85 18        	sta	$18                     ; 0x2018 <printf+0xaf8>
    1c47: 18           	clc
    1c48: 65 12        	adc	$12                     ; 0x2012 <printf+0xaf2>
    1c4a: 85 16        	sta	$16                     ; 0x2016 <printf+0xaf6>
    1c4c: 85 14        	sta	$14                     ; 0x2014 <printf+0xaf4>
    1c4e: a5 13        	lda	$13                     ; 0x2013 <printf+0xaf3>
    1c50: 69 00        	adc	#$0
    1c52: 85 15        	sta	$15                     ; 0x2015 <printf+0xaf5>
    1c54: c5 1a        	cmp	$1a                     ; 0x201a <printf+0xafa>
    1c56: d0 1e        	bne	$1c76 <printf+0x756>
    1c58: a6 1a        	ldx	$1a                     ; 0x201a <printf+0xafa>
    1c5a: 86 17        	stx	$17                     ; 0x2017 <printf+0xaf7>
    1c5c: a6 49        	ldx	$49                     ; 0x2049 <printf+0xb29>
    1c5e: a5 16        	lda	$16                     ; 0x2016 <printf+0xaf6>
    1c60: c5 49        	cmp	$49                     ; 0x2049 <printf+0xb29>
    1c62: 80 1c        	bra	$1c80 <printf+0x760>
    1c64: a6 48        	ldx	$48                     ; 0x2048 <printf+0xb28>
    1c66: e0 00        	cpx	#$0
    1c68: a6 47        	ldx	$47                     ; 0x2047 <printf+0xb27>
    1c6a: 86 12        	stx	$12                     ; 0x2012 <printf+0xaf2>
    1c6c: a6 48        	ldx	$48                     ; 0x2048 <printf+0xb28>
    1c6e: 86 13        	stx	$13                     ; 0x2013 <printf+0xaf3>
    1c70: a4 3f        	ldy	$3f                     ; 0x203f <printf+0xb1f>
    1c72: 90 cd        	bcc	$1c41 <printf+0x721>
    1c74: 80 cf        	bra	$1c45 <printf+0x725>
    1c76: a6 49        	ldx	$49                     ; 0x2049 <printf+0xb29>
    1c78: 5a           	phy
    1c79: a4 1a        	ldy	$1a                     ; 0x201a <printf+0xafa>
    1c7b: 84 17        	sty	$17                     ; 0x2017 <printf+0xaf7>
    1c7d: 7a           	ply
    1c7e: c5 1a        	cmp	$1a                     ; 0x201a <printf+0xafa>
    1c80: 64 4a        	stz	$4a                     ; 0x204a <printf+0xb2a>
    1c82: 64 49        	stz	$49                     ; 0x2049 <printf+0xb29>
    1c84: 90 03        	bcc	$1c89 <printf+0x769>
    1c86: 4c 2a 1d     	jmp	$1d2a <printf+0x80a>
    1c89: a5 40        	lda	$40                     ; 0x2040 <printf+0xb20>
    1c8b: 29 11        	and	#$11
    1c8d: 86 16        	stx	$16                     ; 0x2016 <printf+0xaf6>
    1c8f: f0 0f        	beq	$1ca0 <printf+0x780>
    1c91: 8a           	txa
    1c92: 38           	sec
    1c93: e5 14        	sbc	$14                     ; 0x2014 <printf+0xaf4>
    1c95: 85 4a        	sta	$4a                     ; 0x204a <printf+0xb2a>
    1c97: a5 1a        	lda	$1a                     ; 0x201a <printf+0xafa>
    1c99: e5 15        	sbc	$15                     ; 0x2015 <printf+0xaf5>
    1c9b: 85 49        	sta	$49                     ; 0x2049 <printf+0xb29>
    1c9d: 4c 2a 1d     	jmp	$1d2a <printf+0x80a>
    1ca0: a6 74        	ldx	$74                     ; 0x2074 <printf+0xb54>
    1ca2: 86 14        	stx	$14                     ; 0x2014 <printf+0xaf4>
    1ca4: 38           	sec
    1ca5: a5 18        	lda	$18                     ; 0x2018 <printf+0xaf8>
    1ca7: e5 16        	sbc	$16                     ; 0x2016 <printf+0xaf6>
    1ca9: aa           	tax
    1caa: a9 00        	lda	#$0
    1cac: e5 17        	sbc	$17                     ; 0x2017 <printf+0xaf7>
    1cae: a8           	tay
    1caf: 18           	clc
    1cb0: 8a           	txa
    1cb1: 65 12        	adc	$12                     ; 0x2012 <printf+0xaf2>
    1cb3: 85 40        	sta	$40                     ; 0x2040 <printf+0xb20>
    1cb5: 98           	tya
    1cb6: 65 13        	adc	$13                     ; 0x2013 <printf+0xaf3>
    1cb8: a4 75        	ldy	$75                     ; 0x2075 <printf+0xb55>
    1cba: 4c 0e 1d     	jmp	$1d0e <printf+0x7ee>
    1cbd: c4 73        	cpy	$73                     ; 0x2073 <printf+0xb53>
    1cbf: b0 2f        	bcs	$1cf0 <printf+0x7d0>
    1cc1: a6 7f        	ldx	$7f                     ; 0x207f <printf+0xb5f>
    1cc3: e4 44        	cpx	$44                     ; 0x2044 <printf+0xb24>
    1cc5: d0 18        	bne	$1cdf <printf+0x7bf>
    1cc7: a6 7e        	ldx	$7e                     ; 0x207e <printf+0xb5e>
    1cc9: e4 43        	cpx	$43                     ; 0x2043 <printf+0xb23>
    1ccb: d0 12        	bne	$1cdf <printf+0x7bf>
    1ccd: 18           	clc
    1cce: a5 14        	lda	$14                     ; 0x2014 <printf+0xaf4>
    1cd0: 65 78        	adc	$78                     ; 0x2078 <printf+0xb58>
    1cd2: 85 12        	sta	$12                     ; 0x2012 <printf+0xaf2>
    1cd4: 98           	tya
    1cd5: 65 79        	adc	$79                     ; 0x2079 <printf+0xb59>
    1cd7: 85 13        	sta	$13                     ; 0x2013 <printf+0xaf3>
    1cd9: a9 20        	lda	#$20
    1cdb: 92 12        	sta	($12)                   ; 0x2012 <printf+0xaf2>
    1cdd: 80 0f        	bra	$1cee <printf+0x7ce>
    1cdf: a2 20        	ldx	#$20
    1ce1: 86 32        	stx	$32                     ; 0x2032 <printf+0xb12>
    1ce3: a2 32        	ldx	#$32
    1ce5: 86 12        	stx	$12                     ; 0x2012 <printf+0xaf2>
    1ce7: a2 00        	ldx	#$0
    1ce9: 86 13        	stx	$13                     ; 0x2013 <printf+0xaf3>
    1ceb: 20 c1 10     	jsr	$10c1 <textPrint>
    1cee: a5 49        	lda	$49                     ; 0x2049 <printf+0xb29>
    1cf0: a6 74        	ldx	$74                     ; 0x2074 <printf+0xb54>
    1cf2: a4 75        	ldy	$75                     ; 0x2075 <printf+0xb55>
    1cf4: e8           	inx
    1cf5: d0 01        	bne	$1cf8 <printf+0x7d8>
    1cf7: c8           	iny
    1cf8: 86 14        	stx	$14                     ; 0x2014 <printf+0xaf4>
    1cfa: 86 74        	stx	$74                     ; 0x2074 <printf+0xb54>
    1cfc: 84 75        	sty	$75                     ; 0x2075 <printf+0xb55>
    1cfe: a6 40        	ldx	$40                     ; 0x2040 <printf+0xb20>
    1d00: e8           	inx
    1d01: d0 01        	bne	$1d04 <printf+0x7e4>
    1d03: 1a           	inc
    1d04: 86 40        	stx	$40                     ; 0x2040 <printf+0xb20>
    1d06: c9 00        	cmp	#$0
    1d08: d0 04        	bne	$1d0e <printf+0x7ee>
    1d0a: e0 00        	cpx	#$0
    1d0c: f0 16        	beq	$1d24 <printf+0x804>
    1d0e: 85 49        	sta	$49                     ; 0x2049 <printf+0xb29>
    1d10: c4 73        	cpy	$73                     ; 0x2073 <printf+0xb53>
    1d12: f0 03        	beq	$1d17 <printf+0x7f7>
    1d14: 4c bd 1c     	jmp	$1cbd <printf+0x79d>
    1d17: a6 72        	ldx	$72                     ; 0x2072 <printf+0xb52>
    1d19: 86 12        	stx	$12                     ; 0x2012 <printf+0xaf2>
    1d1b: a6 14        	ldx	$14                     ; 0x2014 <printf+0xaf4>
    1d1d: e4 12        	cpx	$12                     ; 0x2012 <printf+0xaf2>
    1d1f: b0 cf        	bcs	$1cf0 <printf+0x7d0>
    1d21: 4c c1 1c     	jmp	$1cc1 <printf+0x7a1>
    1d24: 64 4a        	stz	$4a                     ; 0x204a <printf+0xb2a>
    1d26: 64 49        	stz	$49                     ; 0x2049 <printf+0xb29>
    1d28: a4 3f        	ldy	$3f                     ; 0x203f <printf+0xb1f>
    1d2a: a6 85        	ldx	$85                     ; 0x2085 <printf+0xb65>
    1d2c: f0 03        	beq	$1d31 <printf+0x811>
    1d2e: 4c 88 1d     	jmp	$1d88 <printf+0x868>
    1d31: a6 74        	ldx	$74                     ; 0x2074 <printf+0xb54>
    1d33: a5 75        	lda	$75                     ; 0x2075 <printf+0xb55>
    1d35: c5 73        	cmp	$73                     ; 0x2073 <printf+0xb53>
    1d37: d0 10        	bne	$1d49 <printf+0x829>
    1d39: 86 13        	stx	$13                     ; 0x2013 <printf+0xaf3>
    1d3b: a6 72        	ldx	$72                     ; 0x2072 <printf+0xb52>
    1d3d: 86 12        	stx	$12                     ; 0x2012 <printf+0xaf2>
    1d3f: a4 3f        	ldy	$3f                     ; 0x203f <printf+0xb1f>
    1d41: a6 13        	ldx	$13                     ; 0x2013 <printf+0xaf3>
    1d43: e4 12        	cpx	$12                     ; 0x2012 <printf+0xaf2>
    1d45: 90 08        	bcc	$1d4f <printf+0x82f>
    1d47: 80 39        	bra	$1d82 <printf+0x862>
    1d49: 86 13        	stx	$13                     ; 0x2013 <printf+0xaf3>
    1d4b: c5 73        	cmp	$73                     ; 0x2073 <printf+0xb53>
    1d4d: b0 33        	bcs	$1d82 <printf+0x862>
    1d4f: a6 7f        	ldx	$7f                     ; 0x207f <printf+0xb5f>
    1d51: e4 44        	cpx	$44                     ; 0x2044 <printf+0xb24>
    1d53: d0 1c        	bne	$1d71 <printf+0x851>
    1d55: a6 7e        	ldx	$7e                     ; 0x207e <printf+0xb5e>
    1d57: e4 43        	cpx	$43                     ; 0x2043 <printf+0xb23>
    1d59: d0 16        	bne	$1d71 <printf+0x851>
    1d5b: 18           	clc
    1d5c: 85 12        	sta	$12                     ; 0x2012 <printf+0xaf2>
    1d5e: a5 13        	lda	$13                     ; 0x2013 <printf+0xaf3>
    1d60: 65 78        	adc	$78                     ; 0x2078 <printf+0xb58>
    1d62: aa           	tax
    1d63: a5 12        	lda	$12                     ; 0x2012 <printf+0xaf2>
    1d65: 65 79        	adc	$79                     ; 0x2079 <printf+0xb59>
    1d67: 86 12        	stx	$12                     ; 0x2012 <printf+0xaf2>
    1d69: 85 13        	sta	$13                     ; 0x2013 <printf+0xaf3>
    1d6b: a5 88        	lda	$88                     ; 0x2088 <printf+0xb68>
    1d6d: 92 12        	sta	($12)                   ; 0x2012 <printf+0xaf2>
    1d6f: 80 0f        	bra	$1d80 <printf+0x860>
    1d71: a6 88        	ldx	$88                     ; 0x2088 <printf+0xb68>
    1d73: 86 32        	stx	$32                     ; 0x2032 <printf+0xb12>
    1d75: a2 32        	ldx	#$32
    1d77: 86 12        	stx	$12                     ; 0x2012 <printf+0xaf2>
    1d79: a2 00        	ldx	#$0
    1d7b: 86 13        	stx	$13                     ; 0x2013 <printf+0xaf3>
    1d7d: 20 c1 10     	jsr	$10c1 <textPrint>
    1d80: a4 3f        	ldy	$3f                     ; 0x203f <printf+0xb1f>
    1d82: e6 74        	inc	$74                     ; 0x2074 <printf+0xb54>
    1d84: d0 02        	bne	$1d88 <printf+0x868>
    1d86: e6 75        	inc	$75                     ; 0x2075 <printf+0xb55>
    1d88: a6 84        	ldx	$84                     ; 0x2084 <printf+0xb64>
    1d8a: d0 03        	bne	$1d8f <printf+0x86f>
    1d8c: 4c e6 1d     	jmp	$1de6 <printf+0x8c6>
    1d8f: a6 74        	ldx	$74                     ; 0x2074 <printf+0xb54>
    1d91: a5 75        	lda	$75                     ; 0x2075 <printf+0xb55>
    1d93: c5 73        	cmp	$73                     ; 0x2073 <printf+0xb53>
    1d95: d0 10        	bne	$1da7 <printf+0x887>
    1d97: 86 13        	stx	$13                     ; 0x2013 <printf+0xaf3>
    1d99: a6 72        	ldx	$72                     ; 0x2072 <printf+0xb52>
    1d9b: 86 12        	stx	$12                     ; 0x2012 <printf+0xaf2>
    1d9d: a4 3f        	ldy	$3f                     ; 0x203f <printf+0xb1f>
    1d9f: a6 13        	ldx	$13                     ; 0x2013 <printf+0xaf3>
    1da1: e4 12        	cpx	$12                     ; 0x2012 <printf+0xaf2>
    1da3: 90 08        	bcc	$1dad <printf+0x88d>
    1da5: 80 39        	bra	$1de0 <printf+0x8c0>
    1da7: 86 13        	stx	$13                     ; 0x2013 <printf+0xaf3>
    1da9: c5 73        	cmp	$73                     ; 0x2073 <printf+0xb53>
    1dab: b0 33        	bcs	$1de0 <printf+0x8c0>
    1dad: a6 7f        	ldx	$7f                     ; 0x207f <printf+0xb5f>
    1daf: e4 44        	cpx	$44                     ; 0x2044 <printf+0xb24>
    1db1: d0 1c        	bne	$1dcf <printf+0x8af>
    1db3: a6 7e        	ldx	$7e                     ; 0x207e <printf+0xb5e>
    1db5: e4 43        	cpx	$43                     ; 0x2043 <printf+0xb23>
    1db7: d0 16        	bne	$1dcf <printf+0x8af>
    1db9: 18           	clc
    1dba: 85 12        	sta	$12                     ; 0x2012 <printf+0xaf2>
    1dbc: a5 13        	lda	$13                     ; 0x2013 <printf+0xaf3>
    1dbe: 65 78        	adc	$78                     ; 0x2078 <printf+0xb58>
    1dc0: aa           	tax
    1dc1: a5 12        	lda	$12                     ; 0x2012 <printf+0xaf2>
    1dc3: 65 79        	adc	$79                     ; 0x2079 <printf+0xb59>
    1dc5: 86 12        	stx	$12                     ; 0x2012 <printf+0xaf2>
    1dc7: 85 13        	sta	$13                     ; 0x2013 <printf+0xaf3>
    1dc9: a5 89        	lda	$89                     ; 0x2089 <printf+0xb69>
    1dcb: 92 12        	sta	($12)                   ; 0x2012 <printf+0xaf2>
    1dcd: 80 0f        	bra	$1dde <printf+0x8be>
    1dcf: a6 89        	ldx	$89                     ; 0x2089 <printf+0xb69>
    1dd1: 86 32        	stx	$32                     ; 0x2032 <printf+0xb12>
    1dd3: a2 32        	ldx	#$32
    1dd5: 86 12        	stx	$12                     ; 0x2012 <printf+0xaf2>
    1dd7: a2 00        	ldx	#$0
    1dd9: 86 13        	stx	$13                     ; 0x2013 <printf+0xaf3>
    1ddb: 20 c1 10     	jsr	$10c1 <textPrint>
    1dde: a4 3f        	ldy	$3f                     ; 0x203f <printf+0xb1f>
    1de0: e6 74        	inc	$74                     ; 0x2074 <printf+0xb54>
    1de2: d0 02        	bne	$1de6 <printf+0x8c6>
    1de4: e6 75        	inc	$75                     ; 0x2075 <printf+0xb55>
    1de6: a9 10        	lda	#$10
    1de8: 25 70        	and	$70                     ; 0x2070 <printf+0xb50>
    1dea: d0 03        	bne	$1def <printf+0x8cf>
    1dec: 4c 80 1e     	jmp	$1e80 <printf+0x960>
    1def: a5 70        	lda	$70                     ; 0x2070 <printf+0xb50>
    1df1: 29 01        	and	#$1
    1df3: f0 03        	beq	$1df8 <printf+0x8d8>
    1df5: 4c 80 1e     	jmp	$1e80 <printf+0x960>
    1df8: a6 4a        	ldx	$4a                     ; 0x204a <printf+0xb2a>
    1dfa: a5 49        	lda	$49                     ; 0x2049 <printf+0xb29>
    1dfc: d0 06        	bne	$1e04 <printf+0x8e4>
    1dfe: 8a           	txa
    1dff: d0 03        	bne	$1e04 <printf+0x8e4>
    1e01: 4c 44 21     	jmp	$2144 <printf+0xc24>
    1e04: a6 74        	ldx	$74                     ; 0x2074 <printf+0xb54>
    1e06: 86 13        	stx	$13                     ; 0x2013 <printf+0xaf3>
    1e08: a5 75        	lda	$75                     ; 0x2075 <printf+0xb55>
    1e0a: 4c 66 1e     	jmp	$1e66 <printf+0x946>
    1e0d: c5 73        	cmp	$73                     ; 0x2073 <printf+0xb53>
    1e0f: b0 2e        	bcs	$1e3f <printf+0x91f>
    1e11: a6 7f        	ldx	$7f                     ; 0x207f <printf+0xb5f>
    1e13: e4 44        	cpx	$44                     ; 0x2044 <printf+0xb24>
    1e15: d0 19        	bne	$1e30 <printf+0x910>
    1e17: a6 7e        	ldx	$7e                     ; 0x207e <printf+0xb5e>
    1e19: e4 43        	cpx	$43                     ; 0x2043 <printf+0xb23>
    1e1b: d0 13        	bne	$1e30 <printf+0x910>
    1e1d: 18           	clc
    1e1e: aa           	tax
    1e1f: a5 13        	lda	$13                     ; 0x2013 <printf+0xaf3>
    1e21: 65 78        	adc	$78                     ; 0x2078 <printf+0xb58>
    1e23: 85 12        	sta	$12                     ; 0x2012 <printf+0xaf2>
    1e25: 8a           	txa
    1e26: 65 79        	adc	$79                     ; 0x2079 <printf+0xb59>
    1e28: 85 13        	sta	$13                     ; 0x2013 <printf+0xaf3>
    1e2a: a9 30        	lda	#$30
    1e2c: 92 12        	sta	($12)                   ; 0x2012 <printf+0xaf2>
    1e2e: 80 0f        	bra	$1e3f <printf+0x91f>
    1e30: a2 30        	ldx	#$30
    1e32: 86 32        	stx	$32                     ; 0x2032 <printf+0xb12>
    1e34: a2 32        	ldx	#$32
    1e36: 86 12        	stx	$12                     ; 0x2012 <printf+0xaf2>
    1e38: a2 00        	ldx	#$0
    1e3a: 86 13        	stx	$13                     ; 0x2013 <printf+0xaf3>
    1e3c: 20 c1 10     	jsr	$10c1 <textPrint>
    1e3f: a6 74        	ldx	$74                     ; 0x2074 <printf+0xb54>
    1e41: a5 75        	lda	$75                     ; 0x2075 <printf+0xb55>
    1e43: e8           	inx
    1e44: d0 01        	bne	$1e47 <printf+0x927>
    1e46: 1a           	inc
    1e47: 86 13        	stx	$13                     ; 0x2013 <printf+0xaf3>
    1e49: 86 74        	stx	$74                     ; 0x2074 <printf+0xb54>
    1e4b: 85 75        	sta	$75                     ; 0x2075 <printf+0xb55>
    1e4d: a4 4a        	ldy	$4a                     ; 0x204a <printf+0xb2a>
    1e4f: a6 49        	ldx	$49                     ; 0x2049 <printf+0xb29>
    1e51: 86 12        	stx	$12                     ; 0x2012 <printf+0xaf2>
    1e53: 88           	dey
    1e54: c0 ff        	cpy	#$ff
    1e56: d0 02        	bne	$1e5a <printf+0x93a>
    1e58: c6 12        	dec	$12                     ; 0x2012 <printf+0xaf2>
    1e5a: 84 4a        	sty	$4a                     ; 0x204a <printf+0xb2a>
    1e5c: a6 12        	ldx	$12                     ; 0x2012 <printf+0xaf2>
    1e5e: 86 49        	stx	$49                     ; 0x2049 <printf+0xb29>
    1e60: d0 04        	bne	$1e66 <printf+0x946>
    1e62: c0 00        	cpy	#$0
    1e64: f0 14        	beq	$1e7a <printf+0x95a>
    1e66: c5 73        	cmp	$73                     ; 0x2073 <printf+0xb53>
    1e68: f0 03        	beq	$1e6d <printf+0x94d>
    1e6a: 4c 0d 1e     	jmp	$1e0d <printf+0x8ed>
    1e6d: a6 72        	ldx	$72                     ; 0x2072 <printf+0xb52>
    1e6f: 86 12        	stx	$12                     ; 0x2012 <printf+0xaf2>
    1e71: a6 13        	ldx	$13                     ; 0x2013 <printf+0xaf3>
    1e73: e4 12        	cpx	$12                     ; 0x2012 <printf+0xaf2>
    1e75: b0 c8        	bcs	$1e3f <printf+0x91f>
    1e77: 4c 11 1e     	jmp	$1e11 <printf+0x8f1>
    1e7a: 64 4a        	stz	$4a                     ; 0x204a <printf+0xb2a>
    1e7c: 64 49        	stz	$49                     ; 0x2049 <printf+0xb29>
    1e7e: a4 3f        	ldy	$3f                     ; 0x203f <printf+0xb1f>
    1e80: a2 00        	ldx	#$0
    1e82: e4 48        	cpx	$48                     ; 0x2048 <printf+0xb28>
    1e84: d0 07        	bne	$1e8d <printf+0x96d>
    1e86: c4 47        	cpy	$47                     ; 0x2047 <printf+0xb27>
    1e88: 90 0a        	bcc	$1e94 <printf+0x974>
    1e8a: 4c 0c 1f     	jmp	$1f0c <printf+0x9ec>
    1e8d: e4 48        	cpx	$48                     ; 0x2048 <printf+0xb28>
    1e8f: 90 03        	bcc	$1e94 <printf+0x974>
    1e91: 4c 0c 1f     	jmp	$1f0c <printf+0x9ec>
    1e94: a6 74        	ldx	$74                     ; 0x2074 <printf+0xb54>
    1e96: 86 13        	stx	$13                     ; 0x2013 <printf+0xaf3>
    1e98: a5 75        	lda	$75                     ; 0x2075 <printf+0xb55>
    1e9a: a2 ff        	ldx	#$ff
    1e9c: c6 47        	dec	$47                     ; 0x2047 <printf+0xb27>
    1e9e: e4 47        	cpx	$47                     ; 0x2047 <printf+0xb27>
    1ea0: d0 02        	bne	$1ea4 <printf+0x984>
    1ea2: c6 48        	dec	$48                     ; 0x2048 <printf+0xb28>
    1ea4: c5 73        	cmp	$73                     ; 0x2073 <printf+0xb53>
    1ea6: d0 0c        	bne	$1eb4 <printf+0x994>
    1ea8: a6 72        	ldx	$72                     ; 0x2072 <printf+0xb52>
    1eaa: 86 12        	stx	$12                     ; 0x2012 <printf+0xaf2>
    1eac: a6 13        	ldx	$13                     ; 0x2013 <printf+0xaf3>
    1eae: e4 12        	cpx	$12                     ; 0x2012 <printf+0xaf2>
    1eb0: 90 06        	bcc	$1eb8 <printf+0x998>
    1eb2: 80 32        	bra	$1ee6 <printf+0x9c6>
    1eb4: c5 73        	cmp	$73                     ; 0x2073 <printf+0xb53>
    1eb6: b0 2e        	bcs	$1ee6 <printf+0x9c6>
    1eb8: a6 7f        	ldx	$7f                     ; 0x207f <printf+0xb5f>
    1eba: e4 44        	cpx	$44                     ; 0x2044 <printf+0xb24>
    1ebc: d0 19        	bne	$1ed7 <printf+0x9b7>
    1ebe: a6 7e        	ldx	$7e                     ; 0x207e <printf+0xb5e>
    1ec0: e4 43        	cpx	$43                     ; 0x2043 <printf+0xb23>
    1ec2: d0 13        	bne	$1ed7 <printf+0x9b7>
    1ec4: 18           	clc
    1ec5: aa           	tax
    1ec6: a5 13        	lda	$13                     ; 0x2013 <printf+0xaf3>
    1ec8: 65 78        	adc	$78                     ; 0x2078 <printf+0xb58>
    1eca: 85 12        	sta	$12                     ; 0x2012 <printf+0xaf2>
    1ecc: 8a           	txa
    1ecd: 65 79        	adc	$79                     ; 0x2079 <printf+0xb59>
    1ecf: 85 13        	sta	$13                     ; 0x2013 <printf+0xaf3>
    1ed1: a9 30        	lda	#$30
    1ed3: 92 12        	sta	($12)                   ; 0x2012 <printf+0xaf2>
    1ed5: 80 0f        	bra	$1ee6 <printf+0x9c6>
    1ed7: a2 30        	ldx	#$30
    1ed9: 86 32        	stx	$32                     ; 0x2032 <printf+0xb12>
    1edb: a2 32        	ldx	#$32
    1edd: 86 12        	stx	$12                     ; 0x2012 <printf+0xaf2>
    1edf: a2 00        	ldx	#$0
    1ee1: 86 13        	stx	$13                     ; 0x2013 <printf+0xaf3>
    1ee3: 20 c1 10     	jsr	$10c1 <textPrint>
    1ee6: a6 74        	ldx	$74                     ; 0x2074 <printf+0xb54>
    1ee8: a5 75        	lda	$75                     ; 0x2075 <printf+0xb55>
    1eea: e8           	inx
    1eeb: d0 01        	bne	$1eee <printf+0x9ce>
    1eed: 1a           	inc
    1eee: 86 13        	stx	$13                     ; 0x2013 <printf+0xaf3>
    1ef0: 86 74        	stx	$74                     ; 0x2074 <printf+0xb54>
    1ef2: 85 75        	sta	$75                     ; 0x2075 <printf+0xb55>
    1ef4: a2 00        	ldx	#$0
    1ef6: e4 48        	cpx	$48                     ; 0x2048 <printf+0xb28>
    1ef8: d0 09        	bne	$1f03 <printf+0x9e3>
    1efa: a4 3f        	ldy	$3f                     ; 0x203f <printf+0xb1f>
    1efc: c4 47        	cpy	$47                     ; 0x2047 <printf+0xb27>
    1efe: b0 0c        	bcs	$1f0c <printf+0x9ec>
    1f00: 4c 9a 1e     	jmp	$1e9a <printf+0x97a>
    1f03: e4 48        	cpx	$48                     ; 0x2048 <printf+0xb28>
    1f05: a4 3f        	ldy	$3f                     ; 0x203f <printf+0xb1f>
    1f07: b0 03        	bcs	$1f0c <printf+0x9ec>
    1f09: 4c 9a 1e     	jmp	$1e9a <printf+0x97a>
    1f0c: 98           	tya
    1f0d: d0 03        	bne	$1f12 <printf+0x9f2>
    1f0f: 4c 15 20     	jmp	$2015 <printf+0xaf5>
    1f12: 88           	dey
    1f13: d0 03        	bne	$1f18 <printf+0x9f8>
    1f15: 4c aa 1f     	jmp	$1faa <printf+0xa8a>
    1f18: 84 47        	sty	$47                     ; 0x2047 <printf+0xb27>
    1f1a: a6 8a        	ldx	$8a                     ; 0x208a <printf+0xb6a>
    1f1c: 8a           	txa
    1f1d: 18           	clc
    1f1e: 65 47        	adc	$47                     ; 0x2047 <printf+0xb27>
    1f20: 85 3f        	sta	$3f                     ; 0x203f <printf+0xb1f>
    1f22: a5 8b        	lda	$8b                     ; 0x208b <printf+0xb6b>
    1f24: 69 00        	adc	#$0
    1f26: 85 40        	sta	$40                     ; 0x2040 <printf+0xb20>
    1f28: 4c 9c 1f     	jmp	$1f9c <printf+0xa7c>
    1f2b: a8           	tay
    1f2c: a9 80        	lda	#$80
    1f2e: 25 70        	and	$70                     ; 0x2070 <printf+0xb50>
    1f30: f0 04        	beq	$1f36 <printf+0xa16>
    1f32: a2 61        	ldx	#$61
    1f34: 80 02        	bra	$1f38 <printf+0xa18>
    1f36: a2 41        	ldx	#$41
    1f38: 86 12        	stx	$12                     ; 0x2012 <printf+0xaf2>
    1f3a: 18           	clc
    1f3b: 98           	tya
    1f3c: 65 12        	adc	$12                     ; 0x2012 <printf+0xaf2>
    1f3e: 18           	clc
    1f3f: 69 f6        	adc	#$f6
    1f41: a4 74        	ldy	$74                     ; 0x2074 <printf+0xb54>
    1f43: a6 75        	ldx	$75                     ; 0x2075 <printf+0xb55>
    1f45: e4 73        	cpx	$73                     ; 0x2073 <printf+0xb53>
    1f47: d0 0c        	bne	$1f55 <printf+0xa35>
    1f49: 86 14        	stx	$14                     ; 0x2014 <printf+0xaf4>
    1f4b: a6 72        	ldx	$72                     ; 0x2072 <printf+0xb52>
    1f4d: 86 12        	stx	$12                     ; 0x2012 <printf+0xaf2>
    1f4f: c4 12        	cpy	$12                     ; 0x2012 <printf+0xaf2>
    1f51: 90 08        	bcc	$1f5b <printf+0xa3b>
    1f53: 80 31        	bra	$1f86 <printf+0xa66>
    1f55: 86 14        	stx	$14                     ; 0x2014 <printf+0xaf4>
    1f57: e4 73        	cpx	$73                     ; 0x2073 <printf+0xb53>
    1f59: b0 2b        	bcs	$1f86 <printf+0xa66>
    1f5b: a6 7f        	ldx	$7f                     ; 0x207f <printf+0xb5f>
    1f5d: e4 44        	cpx	$44                     ; 0x2044 <printf+0xb24>
    1f5f: d0 18        	bne	$1f79 <printf+0xa59>
    1f61: a6 7e        	ldx	$7e                     ; 0x207e <printf+0xb5e>
    1f63: e4 43        	cpx	$43                     ; 0x2043 <printf+0xb23>
    1f65: d0 12        	bne	$1f79 <printf+0xa59>
    1f67: 18           	clc
    1f68: aa           	tax
    1f69: 98           	tya
    1f6a: 65 78        	adc	$78                     ; 0x2078 <printf+0xb58>
    1f6c: 85 12        	sta	$12                     ; 0x2012 <printf+0xaf2>
    1f6e: a5 14        	lda	$14                     ; 0x2014 <printf+0xaf4>
    1f70: 65 79        	adc	$79                     ; 0x2079 <printf+0xb59>
    1f72: 85 13        	sta	$13                     ; 0x2013 <printf+0xaf3>
    1f74: 8a           	txa
    1f75: 92 12        	sta	($12)                   ; 0x2012 <printf+0xaf2>
    1f77: 80 0d        	bra	$1f86 <printf+0xa66>
    1f79: 85 32        	sta	$32                     ; 0x2032 <printf+0xb12>
    1f7b: a2 32        	ldx	#$32
    1f7d: 86 12        	stx	$12                     ; 0x2012 <printf+0xaf2>
    1f7f: a2 00        	ldx	#$0
    1f81: 86 13        	stx	$13                     ; 0x2013 <printf+0xaf3>
    1f83: 20 c1 10     	jsr	$10c1 <textPrint>
    1f86: e6 74        	inc	$74                     ; 0x2074 <printf+0xb54>
    1f88: d0 02        	bne	$1f8c <printf+0xa6c>
    1f8a: e6 75        	inc	$75                     ; 0x2075 <printf+0xb55>
    1f8c: c6 47        	dec	$47                     ; 0x2047 <printf+0xb27>
    1f8e: a2 ff        	ldx	#$ff
    1f90: c6 3f        	dec	$3f                     ; 0x203f <printf+0xb1f>
    1f92: e4 3f        	cpx	$3f                     ; 0x203f <printf+0xb1f>
    1f94: d0 02        	bne	$1f98 <printf+0xa78>
    1f96: c6 40        	dec	$40                     ; 0x2040 <printf+0xb20>
    1f98: a5 47        	lda	$47                     ; 0x2047 <printf+0xb27>
    1f9a: f0 0e        	beq	$1faa <printf+0xa8a>
    1f9c: b2 3f        	lda	($3f)                   ; 0x203f <printf+0xb1f>
    1f9e: c9 0a        	cmp	#$a
    1fa0: 90 03        	bcc	$1fa5 <printf+0xa85>
    1fa2: 4c 2b 1f     	jmp	$1f2b <printf+0xa0b>
    1fa5: 09 30        	ora	#$30
    1fa7: 4c 41 1f     	jmp	$1f41 <printf+0xa21>
    1faa: a5 4d        	lda	$4d                     ; 0x204d <printf+0xb2d>
    1fac: c9 0a        	cmp	#$a
    1fae: b0 04        	bcs	$1fb4 <printf+0xa94>
    1fb0: 09 30        	ora	#$30
    1fb2: 80 16        	bra	$1fca <printf+0xaaa>
    1fb4: a8           	tay
    1fb5: a9 80        	lda	#$80
    1fb7: 25 70        	and	$70                     ; 0x2070 <printf+0xb50>
    1fb9: f0 04        	beq	$1fbf <printf+0xa9f>
    1fbb: a2 61        	ldx	#$61
    1fbd: 80 02        	bra	$1fc1 <printf+0xaa1>
    1fbf: a2 41        	ldx	#$41
    1fc1: 86 12        	stx	$12                     ; 0x2012 <printf+0xaf2>
    1fc3: 18           	clc
    1fc4: 98           	tya
    1fc5: 65 12        	adc	$12                     ; 0x2012 <printf+0xaf2>
    1fc7: 18           	clc
    1fc8: 69 f6        	adc	#$f6
    1fca: a4 74        	ldy	$74                     ; 0x2074 <printf+0xb54>
    1fcc: a6 75        	ldx	$75                     ; 0x2075 <printf+0xb55>
    1fce: e4 73        	cpx	$73                     ; 0x2073 <printf+0xb53>
    1fd0: d0 0c        	bne	$1fde <printf+0xabe>
    1fd2: 86 14        	stx	$14                     ; 0x2014 <printf+0xaf4>
    1fd4: a6 72        	ldx	$72                     ; 0x2072 <printf+0xb52>
    1fd6: 86 12        	stx	$12                     ; 0x2012 <printf+0xaf2>
    1fd8: c4 12        	cpy	$12                     ; 0x2012 <printf+0xaf2>
    1fda: 90 08        	bcc	$1fe4 <printf+0xac4>
    1fdc: 80 31        	bra	$200f <printf+0xaef>
    1fde: 86 14        	stx	$14                     ; 0x2014 <printf+0xaf4>
    1fe0: e4 73        	cpx	$73                     ; 0x2073 <printf+0xb53>
    1fe2: b0 2b        	bcs	$200f <printf+0xaef>
    1fe4: a6 7f        	ldx	$7f                     ; 0x207f <printf+0xb5f>
    1fe6: e4 44        	cpx	$44                     ; 0x2044 <printf+0xb24>
    1fe8: d0 18        	bne	$2002 <printf+0xae2>
    1fea: a6 7e        	ldx	$7e                     ; 0x207e <printf+0xb5e>
    1fec: e4 43        	cpx	$43                     ; 0x2043 <printf+0xb23>
    1fee: d0 12        	bne	$2002 <printf+0xae2>
    1ff0: 18           	clc
    1ff1: aa           	tax
    1ff2: 98           	tya
    1ff3: 65 78        	adc	$78                     ; 0x2078 <printf+0xb58>
    1ff5: 85 12        	sta	$12                     ; 0x2012 <printf+0xaf2>
    1ff7: a5 14        	lda	$14                     ; 0x2014 <printf+0xaf4>
    1ff9: 65 79        	adc	$79                     ; 0x2079 <printf+0xb59>
    1ffb: 85 13        	sta	$13                     ; 0x2013 <printf+0xaf3>
    1ffd: 8a           	txa
    1ffe: 92 12        	sta	($12)                   ; 0x2012 <printf+0xaf2>
    2000: 80 0d        	bra	$200f <printf+0xaef>
    2002: 85 32        	sta	$32                     ; 0x2032 <printf+0xb12>
    2004: a2 32        	ldx	#$32
    2006: 86 12        	stx	$12                     ; 0x2012 <printf+0xaf2>
    2008: a2 00        	ldx	#$0
    200a: 86 13        	stx	$13                     ; 0x2013 <printf+0xaf3>
    200c: 20 c1 10     	jsr	$10c1 <textPrint>
    200f: e6 74        	inc	$74                     ; 0x2074 <printf+0xb54>
    2011: d0 02        	bne	$2015 <printf+0xaf5>
    2013: e6 75        	inc	$75                     ; 0x2075 <printf+0xb55>
    2015: a5 70        	lda	$70                     ; 0x2070 <printf+0xb50>
    2017: 29 01        	and	#$1
    2019: d0 1e        	bne	$2039 <printf+0xb19>
    201b: a6 74        	ldx	$74                     ; 0x2074 <printf+0xb54>
    201d: 86 14        	stx	$14                     ; 0x2014 <printf+0xaf4>
    201f: a5 75        	lda	$75                     ; 0x2075 <printf+0xb55>
    2021: a4 72        	ldy	$72                     ; 0x2072 <printf+0xb52>
    2023: a6 73        	ldx	$73                     ; 0x2073 <printf+0xb53>
    2025: 86 12        	stx	$12                     ; 0x2012 <printf+0xaf2>
    2027: 86 13        	stx	$13                     ; 0x2013 <printf+0xaf3>
    2029: c5 12        	cmp	$12                     ; 0x2012 <printf+0xaf2>
    202b: f0 03        	beq	$2030 <printf+0xb10>
    202d: 4c c6 20     	jmp	$20c6 <printf+0xba6>
    2030: 84 12        	sty	$12                     ; 0x2012 <printf+0xaf2>
    2032: a6 14        	ldx	$14                     ; 0x2014 <printf+0xaf4>
    2034: e4 12        	cpx	$12                     ; 0x2012 <printf+0xaf2>
    2036: 4c ca 20     	jmp	$20ca <printf+0xbaa>
    2039: a6 74        	ldx	$74                     ; 0x2074 <printf+0xb54>
    203b: 86 14        	stx	$14                     ; 0x2014 <printf+0xaf4>
    203d: a5 75        	lda	$75                     ; 0x2075 <printf+0xb55>
    203f: a6 4a        	ldx	$4a                     ; 0x204a <printf+0xb2a>
    2041: a4 49        	ldy	$49                     ; 0x2049 <printf+0xb29>
    2043: f0 03        	beq	$2048 <printf+0xb28>
    2045: 4c b2 20     	jmp	$20b2 <printf+0xb92>
    2048: e0 00        	cpx	#$0
    204a: f0 d5        	beq	$2021 <printf+0xb01>
    204c: 4c b2 20     	jmp	$20b2 <printf+0xb92>
    204f: c5 73        	cmp	$73                     ; 0x2073 <printf+0xb53>
    2051: b0 2e        	bcs	$2081 <printf+0xb61>
    2053: a6 7f        	ldx	$7f                     ; 0x207f <printf+0xb5f>
    2055: e4 44        	cpx	$44                     ; 0x2044 <printf+0xb24>
    2057: d0 19        	bne	$2072 <printf+0xb52>
    2059: a6 7e        	ldx	$7e                     ; 0x207e <printf+0xb5e>
    205b: e4 43        	cpx	$43                     ; 0x2043 <printf+0xb23>
    205d: d0 13        	bne	$2072 <printf+0xb52>
    205f: 18           	clc
    2060: aa           	tax
    2061: a5 14        	lda	$14                     ; 0x2014 <printf+0xaf4>
    2063: 65 78        	adc	$78                     ; 0x2078 <printf+0xb58>
    2065: 85 12        	sta	$12                     ; 0x2012 <printf+0xaf2>
    2067: 8a           	txa
    2068: 65 79        	adc	$79                     ; 0x2079 <printf+0xb59>
    206a: 85 13        	sta	$13                     ; 0x2013 <printf+0xaf3>
    206c: a9 20        	lda	#$20
    206e: 92 12        	sta	($12)                   ; 0x2012 <printf+0xaf2>
    2070: 80 0f        	bra	$2081 <printf+0xb61>
    2072: a2 20        	ldx	#$20
    2074: 86 32        	stx	$32                     ; 0x2032 <printf+0xb12>
    2076: a2 32        	ldx	#$32
    2078: 86 12        	stx	$12                     ; 0x2012 <printf+0xaf2>
    207a: a2 00        	ldx	#$0
    207c: 86 13        	stx	$13                     ; 0x2013 <printf+0xaf3>
    207e: 20 c1 10     	jsr	$10c1 <textPrint>
    2081: a6 74        	ldx	$74                     ; 0x2074 <printf+0xb54>
    2083: a5 75        	lda	$75                     ; 0x2075 <printf+0xb55>
    2085: e8           	inx
    2086: d0 01        	bne	$2089 <printf+0xb69>
    2088: 1a           	inc
    2089: 86 14        	stx	$14                     ; 0x2014 <printf+0xaf4>
    208b: 86 74        	stx	$74                     ; 0x2074 <printf+0xb54>
    208d: 85 75        	sta	$75                     ; 0x2075 <printf+0xb55>
    208f: a6 4a        	ldx	$4a                     ; 0x204a <printf+0xb2a>
    2091: 86 12        	stx	$12                     ; 0x2012 <printf+0xaf2>
    2093: a6 49        	ldx	$49                     ; 0x2049 <printf+0xb29>
    2095: 86 13        	stx	$13                     ; 0x2013 <printf+0xaf3>
    2097: a2 ff        	ldx	#$ff
    2099: c6 12        	dec	$12                     ; 0x2012 <printf+0xaf2>
    209b: e4 12        	cpx	$12                     ; 0x2012 <printf+0xaf2>
    209d: d0 02        	bne	$20a1 <printf+0xb81>
    209f: c6 13        	dec	$13                     ; 0x2013 <printf+0xaf3>
    20a1: a6 12        	ldx	$12                     ; 0x2012 <printf+0xaf2>
    20a3: 86 4a        	stx	$4a                     ; 0x204a <printf+0xb2a>
    20a5: a6 13        	ldx	$13                     ; 0x2013 <printf+0xaf3>
    20a7: 86 49        	stx	$49                     ; 0x2049 <printf+0xb29>
    20a9: d0 07        	bne	$20b2 <printf+0xb92>
    20ab: a6 12        	ldx	$12                     ; 0x2012 <printf+0xaf2>
    20ad: d0 03        	bne	$20b2 <printf+0xb92>
    20af: 4c 21 20     	jmp	$2021 <printf+0xb01>
    20b2: c5 73        	cmp	$73                     ; 0x2073 <printf+0xb53>
    20b4: f0 03        	beq	$20b9 <printf+0xb99>
    20b6: 4c 4f 20     	jmp	$204f <printf+0xb2f>
    20b9: a6 72        	ldx	$72                     ; 0x2072 <printf+0xb52>
    20bb: 86 12        	stx	$12                     ; 0x2012 <printf+0xaf2>
    20bd: a6 14        	ldx	$14                     ; 0x2014 <printf+0xaf4>
    20bf: e4 12        	cpx	$12                     ; 0x2012 <printf+0xaf2>
    20c1: b0 be        	bcs	$2081 <printf+0xb61>
    20c3: 4c 53 20     	jmp	$2053 <printf+0xb33>
    20c6: 86 12        	stx	$12                     ; 0x2012 <printf+0xaf2>
    20c8: c5 12        	cmp	$12                     ; 0x2012 <printf+0xaf2>
    20ca: 98           	tya
    20cb: a0 01        	ldy	#$1
    20cd: 90 20        	bcc	$20ef <printf+0xbcf>
    20cf: a6 13        	ldx	$13                     ; 0x2013 <printf+0xaf3>
    20d1: d0 03        	bne	$20d6 <printf+0xbb6>
    20d3: aa           	tax
    20d4: f0 19        	beq	$20ef <printf+0xbcf>
    20d6: 18           	clc
    20d7: 65 78        	adc	$78                     ; 0x2078 <printf+0xb58>
    20d9: 85 12        	sta	$12                     ; 0x2012 <printf+0xaf2>
    20db: a5 13        	lda	$13                     ; 0x2013 <printf+0xaf3>
    20dd: 65 79        	adc	$79                     ; 0x2079 <printf+0xb59>
    20df: 85 13        	sta	$13                     ; 0x2013 <printf+0xaf3>
    20e1: a2 ff        	ldx	#$ff
    20e3: c6 12        	dec	$12                     ; 0x2012 <printf+0xaf2>
    20e5: e4 12        	cpx	$12                     ; 0x2012 <printf+0xaf2>
    20e7: d0 02        	bne	$20eb <printf+0xbcb>
    20e9: c6 13        	dec	$13                     ; 0x2013 <printf+0xaf3>
    20eb: a9 00        	lda	#$0
    20ed: 92 12        	sta	($12)                   ; 0x2012 <printf+0xaf2>
    20ef: e6 41        	inc	$41                     ; 0x2041 <printf+0xb21>
    20f1: d0 02        	bne	$20f5 <printf+0xbd5>
    20f3: e6 42        	inc	$42                     ; 0x2042 <printf+0xb22>
    20f5: a6 42        	ldx	$42                     ; 0x2042 <printf+0xb22>
    20f7: e4 46        	cpx	$46                     ; 0x2046 <printf+0xb26>
    20f9: f0 03        	beq	$20fe <printf+0xbde>
    20fb: 4c 85 15     	jmp	$1585 <printf+0x65>
    20fe: a6 41        	ldx	$41                     ; 0x2041 <printf+0xb21>
    2100: e4 45        	cpx	$45                     ; 0x2045 <printf+0xb25>
    2102: f0 03        	beq	$2107 <printf+0xbe7>
    2104: 4c 85 15     	jmp	$1585 <printf+0x65>
    2107: b2 45        	lda	($45)                   ; 0x2045 <printf+0xb25>
    2109: a2 00        	ldx	#$0
    210b: 86 43        	stx	$43                     ; 0x2043 <printf+0xb23>
    210d: a2 00        	ldx	#$0
    210f: 86 44        	stx	$44                     ; 0x2044 <printf+0xb24>
    2111: 4c 99 15     	jmp	$1599 <printf+0x79>
    2114: e4 48        	cpx	$48                     ; 0x2048 <printf+0xb28>
    2116: a6 40        	ldx	$40                     ; 0x2040 <printf+0xb20>
    2118: b0 03        	bcs	$211d <printf+0xbfd>
    211a: 4c ea 1b     	jmp	$1bea <printf+0x6ca>
    211d: a5 3f        	lda	$3f                     ; 0x203f <printf+0xb1f>
    211f: 85 47        	sta	$47                     ; 0x2047 <printf+0xb27>
    2121: 64 48        	stz	$48                     ; 0x2048 <printf+0xb28>
    2123: e6 47        	inc	$47                     ; 0x2047 <printf+0xb27>
    2125: f0 03        	beq	$212a <printf+0xc0a>
    2127: 4c ea 1b     	jmp	$1bea <printf+0x6ca>
    212a: e6 48        	inc	$48                     ; 0x2048 <printf+0xb28>
    212c: 4c ea 1b     	jmp	$1bea <printf+0x6ca>
    212f: a2 58        	ldx	#$58
    2131: 86 89        	stx	$89                     ; 0x2089 <printf+0xb69>
    2133: a2 01        	ldx	#$1
    2135: 86 84        	stx	$84                     ; 0x2084 <printf+0xb64>
    2137: a2 30        	ldx	#$30
    2139: 86 88        	stx	$88                     ; 0x2088 <printf+0xb68>
    213b: a9 02        	lda	#$2
    213d: a2 00        	ldx	#$0
    213f: 86 85        	stx	$85                     ; 0x2085 <printf+0xb65>
    2141: 4c 2b 1c     	jmp	$1c2b <printf+0x70b>
    2144: 64 4a        	stz	$4a                     ; 0x204a <printf+0xb2a>
    2146: 64 49        	stz	$49                     ; 0x2049 <printf+0xb29>
    2148: 4c 80 1e     	jmp	$1e80 <printf+0x960>
    214b: 60           	rts

0000214c <malloc>:
    214c: a8           	tay
    214d: 8a           	txa
    214e: a2 00        	ldx	#$0
    2150: 86 12        	stx	$12                     ; 0x2012 <printf+0xaf2>
    2152: a2 00        	ldx	#$0
    2154: 86 13        	stx	$13                     ; 0x2013 <printf+0xaf3>
    2156: aa           	tax
    2157: d0 07        	bne	$2160 <malloc+0x14>
    2159: c0 00        	cpy	#$0
    215b: d0 03        	bne	$2160 <malloc+0x14>
    215d: 4c 52 22     	jmp	$2252 <malloc+0x106>
    2160: 84 16        	sty	$16                     ; 0x2016 <printf+0xaf6>
    2162: aa           	tax
    2163: d0 0e        	bne	$2173 <malloc+0x27>
    2165: a6 16        	ldx	$16                     ; 0x2016 <printf+0xaf6>
    2167: e0 07        	cpx	#$7
    2169: b0 0c        	bcs	$2177 <malloc+0x2b>
    216b: a2 08        	ldx	#$8
    216d: 86 40        	stx	$40                     ; 0x2040 <printf+0xb20>
    216f: a9 00        	lda	#$0
    2171: 80 2f        	bra	$21a2 <malloc+0x56>
    2173: c9 00        	cmp	#$0
    2175: 90 f4        	bcc	$216b <malloc+0x1f>
    2177: a8           	tay
    2178: a5 16        	lda	$16                     ; 0x2016 <printf+0xaf6>
    217a: 29 01        	and	#$1
    217c: a2 02        	ldx	#$2
    217e: 64 14        	stz	$14                     ; 0x2014 <printf+0xaf4>
    2180: c9 00        	cmp	#$0
    2182: f0 02        	beq	$2186 <malloc+0x3a>
    2184: a2 03        	ldx	#$3
    2186: 86 15        	stx	$15                     ; 0x2015 <printf+0xaf5>
    2188: 18           	clc
    2189: a5 16        	lda	$16                     ; 0x2016 <printf+0xaf6>
    218b: 65 15        	adc	$15                     ; 0x2015 <printf+0xaf5>
    218d: aa           	tax
    218e: 98           	tya
    218f: 65 14        	adc	$14                     ; 0x2014 <printf+0xaf4>
    2191: 90 03        	bcc	$2196 <malloc+0x4a>
    2193: 4c 52 22     	jmp	$2252 <malloc+0x106>
    2196: 86 40        	stx	$40                     ; 0x2040 <printf+0xb20>
    2198: a8           	tay
    2199: d0 07        	bne	$21a2 <malloc+0x56>
    219b: e0 00        	cpx	#$0
    219d: d0 03        	bne	$21a2 <malloc+0x56>
    219f: 4c 52 22     	jmp	$2252 <malloc+0x106>
    21a2: 85 3f        	sta	$3f                     ; 0x203f <printf+0xb1f>
    21a4: ad 49 26     	lda	$2649                   ; 0x2649 <_ZN12_GLOBAL__N_111initializedE>
    21a7: 29 01        	and	#$1
    21a9: d0 2d        	bne	$21d8 <malloc+0x8c>
    21ab: a9 00        	lda	#$0
    21ad: a2 10        	ldx	#$10
    21af: a0 50        	ldy	#$50
    21b1: 84 12        	sty	$12                     ; 0x2012 <printf+0xaf2>
    21b3: a0 26        	ldy	#$26
    21b5: 84 13        	sty	$13                     ; 0x2013 <printf+0xaf3>
    21b7: 20 16 03     	jsr	$316 <_ZN12_GLOBAL__N_19FreeChunk6insertEPvj>
    21ba: a2 00        	ldx	#$0
    21bc: 86 12        	stx	$12                     ; 0x2012 <printf+0xaf2>
    21be: a2 00        	ldx	#$0
    21c0: 86 13        	stx	$13                     ; 0x2013 <printf+0xaf3>
    21c2: ae 51 26     	ldx	$2651                   ; 0x2651 <__heap_start+0x1>
    21c5: a9 fe        	lda	#$fe
    21c7: 2d 50 26     	and	$2650                   ; 0x2650 <__heap_start>
    21ca: 8d 50 26     	sta	$2650                   ; 0x2650 <__heap_start>
    21cd: 8e 51 26     	stx	$2651                   ; 0x2651 <__heap_start+0x1>
    21d0: a2 01        	ldx	#$1
    21d2: 8e 4a 26     	stx	$264a                   ; 0x264a <_ZN12_GLOBAL__N_19last_freeE>
    21d5: 8e 49 26     	stx	$2649                   ; 0x2649 <_ZN12_GLOBAL__N_111initializedE>
    21d8: ae 4d 26     	ldx	$264d                   ; 0x264d <_ZN12_GLOBAL__N_19free_listE>
    21db: 86 16        	stx	$16                     ; 0x2016 <printf+0xaf6>
    21dd: ac 4e 26     	ldy	$264e                   ; 0x264e <_ZN12_GLOBAL__N_19free_listE+0x1>
    21e0: 84 17        	sty	$17                     ; 0x2017 <printf+0xaf7>
    21e2: a9 00        	lda	#$0
    21e4: 85 14        	sta	$14                     ; 0x2014 <printf+0xaf4>
    21e6: a9 00        	lda	#$0
    21e8: 85 15        	sta	$15                     ; 0x2015 <printf+0xaf5>
    21ea: c4 15        	cpy	$15                     ; 0x2015 <printf+0xaf5>
    21ec: d0 07        	bne	$21f5 <malloc+0xa9>
    21ee: e4 14        	cpx	$14                     ; 0x2014 <printf+0xaf4>
    21f0: d0 03        	bne	$21f5 <malloc+0xa9>
    21f2: 4c 52 22     	jmp	$2252 <malloc+0x106>
    21f5: a2 00        	ldx	#$0
    21f7: a0 10        	ldy	#$10
    21f9: 86 14        	stx	$14                     ; 0x2014 <printf+0xaf4>
    21fb: 84 15        	sty	$15                     ; 0x2015 <printf+0xaf5>
    21fd: 18           	clc
    21fe: a9 50        	lda	#$50
    2200: 65 14        	adc	$14                     ; 0x2014 <printf+0xaf4>
    2202: 85 18        	sta	$18                     ; 0x2018 <printf+0xaf8>
    2204: a9 26        	lda	#$26
    2206: 65 15        	adc	$15                     ; 0x2015 <printf+0xaf5>
    2208: 85 43        	sta	$43                     ; 0x2043 <printf+0xb23>
    220a: a0 01        	ldy	#$1
    220c: a6 3f        	ldx	$3f                     ; 0x203f <printf+0xb1f>
    220e: 86 19        	stx	$19                     ; 0x2019 <printf+0xaf9>
    2210: a6 16        	ldx	$16                     ; 0x2016 <printf+0xaf6>
    2212: 86 14        	stx	$14                     ; 0x2014 <printf+0xaf4>
    2214: a6 17        	ldx	$17                     ; 0x2017 <printf+0xaf7>
    2216: 86 15        	stx	$15                     ; 0x2015 <printf+0xaf5>
    2218: b1 14        	lda	($14),y                 ; 0x2014 <printf+0xaf4>
    221a: c5 19        	cmp	$19                     ; 0x2019 <printf+0xaf9>
    221c: d0 0e        	bne	$222c <malloc+0xe0>
    221e: b2 14        	lda	($14)                   ; 0x2014 <printf+0xaf4>
    2220: 29 fe        	and	#$fe
    2222: a6 40        	ldx	$40                     ; 0x2040 <printf+0xb20>
    2224: 86 1a        	stx	$1a                     ; 0x201a <printf+0xafa>
    2226: c5 1a        	cmp	$1a                     ; 0x201a <printf+0xafa>
    2228: b0 29        	bcs	$2253 <malloc+0x107>
    222a: 80 04        	bra	$2230 <malloc+0xe4>
    222c: c5 19        	cmp	$19                     ; 0x2019 <printf+0xaf9>
    222e: b0 23        	bcs	$2253 <malloc+0x107>
    2230: a5 14        	lda	$14                     ; 0x2014 <printf+0xaf4>
    2232: 18           	clc
    2233: 69 02        	adc	#$2
    2235: 85 1a        	sta	$1a                     ; 0x201a <printf+0xafa>
    2237: a5 15        	lda	$15                     ; 0x2015 <printf+0xaf5>
    2239: 69 00        	adc	#$0
    223b: 85 1b        	sta	$1b                     ; 0x201b <printf+0xafb>
    223d: a0 02        	ldy	#$2
    223f: b1 14        	lda	($14),y                 ; 0x2014 <printf+0xaf4>
    2241: 85 14        	sta	$14                     ; 0x2014 <printf+0xaf4>
    2243: 88           	dey
    2244: b1 1a        	lda	($1a),y                 ; 0x201a <printf+0xafa>
    2246: 85 15        	sta	$15                     ; 0x2015 <printf+0xaf5>
    2248: c5 17        	cmp	$17                     ; 0x2017 <printf+0xaf7>
    224a: d0 cc        	bne	$2218 <malloc+0xcc>
    224c: a5 14        	lda	$14                     ; 0x2014 <printf+0xaf4>
    224e: c5 16        	cmp	$16                     ; 0x2016 <printf+0xaf6>
    2250: d0 c6        	bne	$2218 <malloc+0xcc>
    2252: 60           	rts
    2253: a6 18        	ldx	$18                     ; 0x2018 <printf+0xaf8>
    2255: 86 44        	stx	$44                     ; 0x2044 <printf+0xb24>
    2257: a6 14        	ldx	$14                     ; 0x2014 <printf+0xaf4>
    2259: 86 12        	stx	$12                     ; 0x2012 <printf+0xaf2>
    225b: a6 15        	ldx	$15                     ; 0x2015 <printf+0xaf5>
    225d: 86 13        	stx	$13                     ; 0x2013 <printf+0xaf3>
    225f: a6 14        	ldx	$14                     ; 0x2014 <printf+0xaf4>
    2261: 86 41        	stx	$41                     ; 0x2041 <printf+0xb21>
    2263: a6 15        	ldx	$15                     ; 0x2015 <printf+0xaf5>
    2265: 86 42        	stx	$42                     ; 0x2042 <printf+0xb22>
    2267: 20 54 04     	jsr	$454 <_ZN12_GLOBAL__N_19FreeChunk6removeEv>
    226a: a6 41        	ldx	$41                     ; 0x2041 <printf+0xb21>
    226c: 86 12        	stx	$12                     ; 0x2012 <printf+0xaf2>
    226e: a6 42        	ldx	$42                     ; 0x2042 <printf+0xb22>
    2270: 86 13        	stx	$13                     ; 0x2013 <printf+0xaf3>
    2272: a0 01        	ldy	#$1
    2274: b1 12        	lda	($12),y                 ; 0x2012 <printf+0xaf2>
    2276: 85 15        	sta	$15                     ; 0x2015 <printf+0xaf5>
    2278: a9 fe        	lda	#$fe
    227a: 32 12        	and	($12)                   ; 0x2012 <printf+0xaf2>
    227c: 38           	sec
    227d: a6 40        	ldx	$40                     ; 0x2040 <printf+0xb20>
    227f: 86 14        	stx	$14                     ; 0x2014 <printf+0xaf4>
    2281: 85 17        	sta	$17                     ; 0x2017 <printf+0xaf7>
    2283: e5 14        	sbc	$14                     ; 0x2014 <printf+0xaf4>
    2285: a8           	tay
    2286: a6 3f        	ldx	$3f                     ; 0x203f <printf+0xb1f>
    2288: 86 14        	stx	$14                     ; 0x2014 <printf+0xaf4>
    228a: a5 15        	lda	$15                     ; 0x2015 <printf+0xaf5>
    228c: 85 16        	sta	$16                     ; 0x2016 <printf+0xaf6>
    228e: e5 14        	sbc	$14                     ; 0x2014 <printf+0xaf4>
    2290: d0 06        	bne	$2298 <malloc+0x14c>
    2292: 85 18        	sta	$18                     ; 0x2018 <printf+0xaf8>
    2294: c0 08        	cpy	#$8
    2296: 80 04        	bra	$229c <malloc+0x150>
    2298: 85 18        	sta	$18                     ; 0x2018 <printf+0xaf8>
    229a: c9 00        	cmp	#$0
    229c: a6 44        	ldx	$44                     ; 0x2044 <printf+0xb24>
    229e: 86 14        	stx	$14                     ; 0x2014 <printf+0xaf4>
    22a0: a6 43        	ldx	$43                     ; 0x2043 <printf+0xb23>
    22a2: 86 15        	stx	$15                     ; 0x2015 <printf+0xaf5>
    22a4: a5 17        	lda	$17                     ; 0x2017 <printf+0xaf7>
    22a6: 90 42        	bcc	$22ea <malloc+0x19e>
    22a8: 18           	clc
    22a9: a5 40        	lda	$40                     ; 0x2040 <printf+0xb20>
    22ab: 85 40        	sta	$40                     ; 0x2040 <printf+0xb20>
    22ad: 65 12        	adc	$12                     ; 0x2012 <printf+0xaf2>
    22af: 85 12        	sta	$12                     ; 0x2012 <printf+0xaf2>
    22b1: a6 3f        	ldx	$3f                     ; 0x203f <printf+0xb1f>
    22b3: 86 3f        	stx	$3f                     ; 0x203f <printf+0xb1f>
    22b5: a5 3f        	lda	$3f                     ; 0x203f <printf+0xb1f>
    22b7: 65 13        	adc	$13                     ; 0x2013 <printf+0xaf3>
    22b9: 85 13        	sta	$13                     ; 0x2013 <printf+0xaf3>
    22bb: a6 18        	ldx	$18                     ; 0x2018 <printf+0xaf8>
    22bd: 98           	tya
    22be: 20 16 03     	jsr	$316 <_ZN12_GLOBAL__N_19FreeChunk6insertEPvj>
    22c1: a6 41        	ldx	$41                     ; 0x2041 <printf+0xb21>
    22c3: 86 12        	stx	$12                     ; 0x2012 <printf+0xaf2>
    22c5: a6 42        	ldx	$42                     ; 0x2042 <printf+0xb22>
    22c7: 86 13        	stx	$13                     ; 0x2013 <printf+0xaf3>
    22c9: a5 40        	lda	$40                     ; 0x2040 <printf+0xb20>
    22cb: 29 fe        	and	#$fe
    22cd: 85 14        	sta	$14                     ; 0x2014 <printf+0xaf4>
    22cf: a0 01        	ldy	#$1
    22d1: 98           	tya
    22d2: 32 12        	and	($12)                   ; 0x2012 <printf+0xaf2>
    22d4: 05 14        	ora	$14                     ; 0x2014 <printf+0xaf4>
    22d6: 92 12        	sta	($12)                   ; 0x2012 <printf+0xaf2>
    22d8: a5 3f        	lda	$3f                     ; 0x203f <printf+0xb1f>
    22da: 91 12        	sta	($12),y                 ; 0x2012 <printf+0xaf2>
    22dc: a5 14        	lda	$14                     ; 0x2014 <printf+0xaf4>
    22de: a6 3f        	ldx	$3f                     ; 0x203f <printf+0xb1f>
    22e0: 86 16        	stx	$16                     ; 0x2016 <printf+0xaf6>
    22e2: a6 44        	ldx	$44                     ; 0x2044 <printf+0xb24>
    22e4: 86 14        	stx	$14                     ; 0x2014 <printf+0xaf4>
    22e6: a6 43        	ldx	$43                     ; 0x2043 <printf+0xb23>
    22e8: 86 15        	stx	$15                     ; 0x2015 <printf+0xaf5>
    22ea: 18           	clc
    22eb: 65 12        	adc	$12                     ; 0x2012 <printf+0xaf2>
    22ed: a8           	tay
    22ee: a5 16        	lda	$16                     ; 0x2016 <printf+0xaf6>
    22f0: 65 13        	adc	$13                     ; 0x2013 <printf+0xaf3>
    22f2: c5 15        	cmp	$15                     ; 0x2015 <printf+0xaf5>
    22f4: d0 09        	bne	$22ff <malloc+0x1b3>
    22f6: c4 14        	cpy	$14                     ; 0x2014 <printf+0xaf4>
    22f8: d0 05        	bne	$22ff <malloc+0x1b3>
    22fa: 9c 4a 26     	stz	$264a                   ; 0x264a <_ZN12_GLOBAL__N_19last_freeE>
    22fd: 80 14        	bra	$2313 <malloc+0x1c7>
    22ff: 84 14        	sty	$14                     ; 0x2014 <printf+0xaf4>
    2301: 85 15        	sta	$15                     ; 0x2015 <printf+0xaf5>
    2303: a0 01        	ldy	#$1
    2305: b1 14        	lda	($14),y                 ; 0x2014 <printf+0xaf4>
    2307: 85 16        	sta	$16                     ; 0x2016 <printf+0xaf6>
    2309: a9 fe        	lda	#$fe
    230b: 32 14        	and	($14)                   ; 0x2014 <printf+0xaf4>
    230d: 92 14        	sta	($14)                   ; 0x2014 <printf+0xaf4>
    230f: a5 16        	lda	$16                     ; 0x2016 <printf+0xaf6>
    2311: 91 14        	sta	($14),y                 ; 0x2014 <printf+0xaf4>
    2313: a5 12        	lda	$12                     ; 0x2012 <printf+0xaf2>
    2315: 18           	clc
    2316: 69 02        	adc	#$2
    2318: 85 12        	sta	$12                     ; 0x2012 <printf+0xaf2>
    231a: a5 13        	lda	$13                     ; 0x2013 <printf+0xaf3>
    231c: 69 00        	adc	#$0
    231e: 85 13        	sta	$13                     ; 0x2013 <printf+0xaf3>
    2320: 60           	rts

00002321 <memcpy>:
    2321: a8           	tay
    2322: 8a           	txa
    2323: d0 03        	bne	$2328 <memcpy+0x7>
    2325: 98           	tya
    2326: f0 24        	beq	$234c <memcpy+0x2b>
    2328: a5 12        	lda	$12                     ; 0x2012 <printf+0xaf2>
    232a: 85 16        	sta	$16                     ; 0x2016 <printf+0xaf6>
    232c: a5 13        	lda	$13                     ; 0x2013 <printf+0xaf3>
    232e: 85 17        	sta	$17                     ; 0x2017 <printf+0xaf7>
    2330: b2 14        	lda	($14)                   ; 0x2014 <printf+0xaf4>
    2332: 92 16        	sta	($16)                   ; 0x2016 <printf+0xaf6>
    2334: e6 16        	inc	$16                     ; 0x2016 <printf+0xaf6>
    2336: d0 02        	bne	$233a <memcpy+0x19>
    2338: e6 17        	inc	$17                     ; 0x2017 <printf+0xaf7>
    233a: e6 14        	inc	$14                     ; 0x2014 <printf+0xaf4>
    233c: d0 02        	bne	$2340 <memcpy+0x1f>
    233e: e6 15        	inc	$15                     ; 0x2015 <printf+0xaf5>
    2340: 88           	dey
    2341: c0 ff        	cpy	#$ff
    2343: d0 01        	bne	$2346 <memcpy+0x25>
    2345: ca           	dex
    2346: 8a           	txa
    2347: d0 e7        	bne	$2330 <memcpy+0xf>
    2349: 98           	tya
    234a: d0 e4        	bne	$2330 <memcpy+0xf>
    234c: 60           	rts

0000234d <__memset>:
    234d: a4 14        	ldy	$14                     ; 0x2014 <printf+0xaf4>
    234f: d0 04        	bne	$2355 <__memset+0x8>
    2351: e0 00        	cpx	#$0
    2353: f0 17        	beq	$236c <__memset+0x1f>
    2355: 92 12        	sta	($12)                   ; 0x2012 <printf+0xaf2>
    2357: e6 12        	inc	$12                     ; 0x2012 <printf+0xaf2>
    2359: d0 02        	bne	$235d <__memset+0x10>
    235b: e6 13        	inc	$13                     ; 0x2013 <printf+0xaf3>
    235d: ca           	dex
    235e: e0 ff        	cpx	#$ff
    2360: d0 02        	bne	$2364 <__memset+0x17>
    2362: c6 14        	dec	$14                     ; 0x2014 <printf+0xaf4>
    2364: a4 14        	ldy	$14                     ; 0x2014 <printf+0xaf4>
    2366: d0 ed        	bne	$2355 <__memset+0x8>
    2368: e0 00        	cpx	#$0
    236a: d0 e9        	bne	$2355 <__memset+0x8>
    236c: 60           	rts

0000236d <__umodsi3>:
    236d: 85 1c        	sta	$1c                     ; 0x201c <printf+0xafc>
    236f: 86 1a        	stx	$1a                     ; 0x201a <printf+0xafa>
    2371: a5 13        	lda	$13                     ; 0x2013 <printf+0xaf3>
    2373: a6 17        	ldx	$17                     ; 0x2017 <printf+0xaf7>
    2375: d0 0f        	bne	$2386 <__umodsi3+0x19>
    2377: a6 16        	ldx	$16                     ; 0x2016 <printf+0xaf6>
    2379: d0 0b        	bne	$2386 <__umodsi3+0x19>
    237b: a6 15        	ldx	$15                     ; 0x2015 <printf+0xaf5>
    237d: d0 07        	bne	$2386 <__umodsi3+0x19>
    237f: a6 14        	ldx	$14                     ; 0x2014 <printf+0xaf4>
    2381: d0 03        	bne	$2386 <__umodsi3+0x19>
    2383: 4c ad 24     	jmp	$24ad <__umodsi3+0x140>
    2386: c5 17        	cmp	$17                     ; 0x2017 <printf+0xaf7>
    2388: d0 15        	bne	$239f <__umodsi3+0x32>
    238a: a6 12        	ldx	$12                     ; 0x2012 <printf+0xaf2>
    238c: e4 16        	cpx	$16                     ; 0x2016 <printf+0xaf6>
    238e: d0 16        	bne	$23a6 <__umodsi3+0x39>
    2390: a6 1a        	ldx	$1a                     ; 0x201a <printf+0xafa>
    2392: e4 15        	cpx	$15                     ; 0x2015 <printf+0xaf5>
    2394: d0 17        	bne	$23ad <__umodsi3+0x40>
    2396: a6 1c        	ldx	$1c                     ; 0x201c <printf+0xafc>
    2398: e4 14        	cpx	$14                     ; 0x2014 <printf+0xaf4>
    239a: b0 1a        	bcs	$23b6 <__umodsi3+0x49>
    239c: 4c ad 24     	jmp	$24ad <__umodsi3+0x140>
    239f: c5 17        	cmp	$17                     ; 0x2017 <printf+0xaf7>
    23a1: b0 13        	bcs	$23b6 <__umodsi3+0x49>
    23a3: 4c ad 24     	jmp	$24ad <__umodsi3+0x140>
    23a6: e4 16        	cpx	$16                     ; 0x2016 <printf+0xaf6>
    23a8: b0 0c        	bcs	$23b6 <__umodsi3+0x49>
    23aa: 4c ad 24     	jmp	$24ad <__umodsi3+0x140>
    23ad: a6 1a        	ldx	$1a                     ; 0x201a <printf+0xafa>
    23af: e4 15        	cpx	$15                     ; 0x2015 <printf+0xaf5>
    23b1: b0 03        	bcs	$23b6 <__umodsi3+0x49>
    23b3: 4c ad 24     	jmp	$24ad <__umodsi3+0x140>
    23b6: a6 17        	ldx	$17                     ; 0x2017 <printf+0xaf7>
    23b8: 10 03        	bpl	$23bd <__umodsi3+0x50>
    23ba: 4c 96 24     	jmp	$2496 <__umodsi3+0x129>
    23bd: a2 00        	ldx	#$0
    23bf: a4 14        	ldy	$14                     ; 0x2014 <printf+0xaf4>
    23c1: 84 1b        	sty	$1b                     ; 0x201b <printf+0xafb>
    23c3: a4 15        	ldy	$15                     ; 0x2015 <printf+0xaf5>
    23c5: 84 13        	sty	$13                     ; 0x2013 <printf+0xaf3>
    23c7: a4 16        	ldy	$16                     ; 0x2016 <printf+0xaf6>
    23c9: 84 18        	sty	$18                     ; 0x2018 <printf+0xaf8>
    23cb: a4 17        	ldy	$17                     ; 0x2017 <printf+0xaf7>
    23cd: 84 19        	sty	$19                     ; 0x2019 <printf+0xaf9>
    23cf: 06 1b        	asl	$1b                     ; 0x201b <printf+0xafb>
    23d1: 26 13        	rol	$13                     ; 0x2013 <printf+0xaf3>
    23d3: 26 18        	rol	$18                     ; 0x2018 <printf+0xaf8>
    23d5: 26 19        	rol	$19                     ; 0x2019 <printf+0xaf9>
    23d7: c5 19        	cmp	$19                     ; 0x2019 <printf+0xaf9>
    23d9: d0 16        	bne	$23f1 <__umodsi3+0x84>
    23db: a4 12        	ldy	$12                     ; 0x2012 <printf+0xaf2>
    23dd: c4 18        	cpy	$18                     ; 0x2018 <printf+0xaf8>
    23df: d0 16        	bne	$23f7 <__umodsi3+0x8a>
    23e1: a4 1a        	ldy	$1a                     ; 0x201a <printf+0xafa>
    23e3: c4 13        	cpy	$13                     ; 0x2013 <printf+0xaf3>
    23e5: d0 16        	bne	$23fd <__umodsi3+0x90>
    23e7: a8           	tay
    23e8: a5 1c        	lda	$1c                     ; 0x201c <printf+0xafc>
    23ea: c5 1b        	cmp	$1b                     ; 0x201b <printf+0xafb>
    23ec: 98           	tya
    23ed: 90 29        	bcc	$2418 <__umodsi3+0xab>
    23ef: 80 12        	bra	$2403 <__umodsi3+0x96>
    23f1: c5 19        	cmp	$19                     ; 0x2019 <printf+0xaf9>
    23f3: 90 23        	bcc	$2418 <__umodsi3+0xab>
    23f5: 80 0c        	bra	$2403 <__umodsi3+0x96>
    23f7: c4 18        	cpy	$18                     ; 0x2018 <printf+0xaf8>
    23f9: 90 1d        	bcc	$2418 <__umodsi3+0xab>
    23fb: 80 06        	bra	$2403 <__umodsi3+0x96>
    23fd: a4 1a        	ldy	$1a                     ; 0x201a <printf+0xafa>
    23ff: c4 13        	cpy	$13                     ; 0x2013 <printf+0xaf3>
    2401: 90 15        	bcc	$2418 <__umodsi3+0xab>
    2403: e8           	inx
    2404: a4 1b        	ldy	$1b                     ; 0x201b <printf+0xafb>
    2406: 84 14        	sty	$14                     ; 0x2014 <printf+0xaf4>
    2408: a4 13        	ldy	$13                     ; 0x2013 <printf+0xaf3>
    240a: 84 15        	sty	$15                     ; 0x2015 <printf+0xaf5>
    240c: a4 18        	ldy	$18                     ; 0x2018 <printf+0xaf8>
    240e: 84 16        	sty	$16                     ; 0x2016 <printf+0xaf6>
    2410: a4 19        	ldy	$19                     ; 0x2019 <printf+0xaf9>
    2412: 84 17        	sty	$17                     ; 0x2017 <printf+0xaf7>
    2414: 10 b9        	bpl	$23cf <__umodsi3+0x62>
    2416: 80 10        	bra	$2428 <__umodsi3+0xbb>
    2418: a4 14        	ldy	$14                     ; 0x2014 <printf+0xaf4>
    241a: 84 1b        	sty	$1b                     ; 0x201b <printf+0xafb>
    241c: a4 15        	ldy	$15                     ; 0x2015 <printf+0xaf5>
    241e: 84 13        	sty	$13                     ; 0x2013 <printf+0xaf3>
    2420: a4 16        	ldy	$16                     ; 0x2016 <printf+0xaf6>
    2422: 84 18        	sty	$18                     ; 0x2018 <printf+0xaf8>
    2424: a4 17        	ldy	$17                     ; 0x2017 <printf+0xaf7>
    2426: 84 19        	sty	$19                     ; 0x2019 <printf+0xaf9>
    2428: 38           	sec
    2429: a8           	tay
    242a: a5 1c        	lda	$1c                     ; 0x201c <printf+0xafc>
    242c: e5 1b        	sbc	$1b                     ; 0x201b <printf+0xafb>
    242e: 85 1c        	sta	$1c                     ; 0x201c <printf+0xafc>
    2430: a5 1a        	lda	$1a                     ; 0x201a <printf+0xafa>
    2432: e5 13        	sbc	$13                     ; 0x2013 <printf+0xaf3>
    2434: 85 1a        	sta	$1a                     ; 0x201a <printf+0xafa>
    2436: a5 12        	lda	$12                     ; 0x2012 <printf+0xaf2>
    2438: e5 18        	sbc	$18                     ; 0x2018 <printf+0xaf8>
    243a: 85 12        	sta	$12                     ; 0x2012 <printf+0xaf2>
    243c: 98           	tya
    243d: e5 19        	sbc	$19                     ; 0x2019 <printf+0xaf9>
    243f: e0 00        	cpx	#$0
    2441: d0 11        	bne	$2454 <__umodsi3+0xe7>
    2443: 4c ad 24     	jmp	$24ad <__umodsi3+0x140>
    2446: c4 18        	cpy	$18                     ; 0x2018 <printf+0xaf8>
    2448: b0 30        	bcs	$247a <__umodsi3+0x10d>
    244a: 80 45        	bra	$2491 <__umodsi3+0x124>
    244c: a4 1a        	ldy	$1a                     ; 0x201a <printf+0xafa>
    244e: c4 13        	cpy	$13                     ; 0x2013 <printf+0xaf3>
    2450: b0 28        	bcs	$247a <__umodsi3+0x10d>
    2452: 80 3d        	bra	$2491 <__umodsi3+0x124>
    2454: 46 19        	lsr	$19                     ; 0x2019 <printf+0xaf9>
    2456: 66 18        	ror	$18                     ; 0x2018 <printf+0xaf8>
    2458: 66 13        	ror	$13                     ; 0x2013 <printf+0xaf3>
    245a: 66 1b        	ror	$1b                     ; 0x201b <printf+0xafb>
    245c: c5 19        	cmp	$19                     ; 0x2019 <printf+0xaf9>
    245e: d0 16        	bne	$2476 <__umodsi3+0x109>
    2460: a4 12        	ldy	$12                     ; 0x2012 <printf+0xaf2>
    2462: c4 18        	cpy	$18                     ; 0x2018 <printf+0xaf8>
    2464: d0 e0        	bne	$2446 <__umodsi3+0xd9>
    2466: a4 1a        	ldy	$1a                     ; 0x201a <printf+0xafa>
    2468: c4 13        	cpy	$13                     ; 0x2013 <printf+0xaf3>
    246a: d0 e0        	bne	$244c <__umodsi3+0xdf>
    246c: a8           	tay
    246d: a5 1c        	lda	$1c                     ; 0x201c <printf+0xafc>
    246f: c5 1b        	cmp	$1b                     ; 0x201b <printf+0xafb>
    2471: 98           	tya
    2472: b0 06        	bcs	$247a <__umodsi3+0x10d>
    2474: 80 1b        	bra	$2491 <__umodsi3+0x124>
    2476: c5 19        	cmp	$19                     ; 0x2019 <printf+0xaf9>
    2478: 90 17        	bcc	$2491 <__umodsi3+0x124>
    247a: a8           	tay
    247b: 38           	sec
    247c: a5 1c        	lda	$1c                     ; 0x201c <printf+0xafc>
    247e: e5 1b        	sbc	$1b                     ; 0x201b <printf+0xafb>
    2480: 85 1c        	sta	$1c                     ; 0x201c <printf+0xafc>
    2482: a5 1a        	lda	$1a                     ; 0x201a <printf+0xafa>
    2484: e5 13        	sbc	$13                     ; 0x2013 <printf+0xaf3>
    2486: 85 1a        	sta	$1a                     ; 0x201a <printf+0xafa>
    2488: a5 12        	lda	$12                     ; 0x2012 <printf+0xaf2>
    248a: e5 18        	sbc	$18                     ; 0x2018 <printf+0xaf8>
    248c: 85 12        	sta	$12                     ; 0x2012 <printf+0xaf2>
    248e: 98           	tya
    248f: e5 19        	sbc	$19                     ; 0x2019 <printf+0xaf9>
    2491: ca           	dex
    2492: d0 c0        	bne	$2454 <__umodsi3+0xe7>
    2494: 80 17        	bra	$24ad <__umodsi3+0x140>
    2496: 38           	sec
    2497: a8           	tay
    2498: a5 1c        	lda	$1c                     ; 0x201c <printf+0xafc>
    249a: e5 14        	sbc	$14                     ; 0x2014 <printf+0xaf4>
    249c: 85 1c        	sta	$1c                     ; 0x201c <printf+0xafc>
    249e: a5 1a        	lda	$1a                     ; 0x201a <printf+0xafa>
    24a0: e5 15        	sbc	$15                     ; 0x2015 <printf+0xaf5>
    24a2: 85 1a        	sta	$1a                     ; 0x201a <printf+0xafa>
    24a4: a5 12        	lda	$12                     ; 0x2012 <printf+0xaf2>
    24a6: e5 16        	sbc	$16                     ; 0x2016 <printf+0xaf6>
    24a8: 85 12        	sta	$12                     ; 0x2012 <printf+0xaf2>
    24aa: 98           	tya
    24ab: e5 17        	sbc	$17                     ; 0x2017 <printf+0xaf7>
    24ad: 85 13        	sta	$13                     ; 0x2013 <printf+0xaf3>
    24af: a6 1a        	ldx	$1a                     ; 0x201a <printf+0xafa>
    24b1: a5 1c        	lda	$1c                     ; 0x201c <printf+0xafc>
    24b3: 60           	rts
