
vgmplayer2.elf:	file format elf32-mos

SYMBOL TABLE:
00000000 l    df *ABS*	00000000 zero-bss.c
00000000 l    df *ABS*	00000000 zero-zp-bss.c
00000000 l    df *ABS*	00000000 copy-zp-data.c
00000000 l    df *ABS*	00000000 ld-temp.o
000005fb l     F .text	00000508 readDirectory_far
00006fea l     F .text	00000120 fileOpenDir
0000710a l     F .text	000000f3 fileReadDir
00006f9f l     F .text	0000004b fileCloseDir
00000b03 l     F .text	000005b7 sortFileList_far
000010ba l     F .text	0000044d displayFileList_far
0000006a l     O .zp.bss	00000001 _col
0000006b l     O .zp.bss	00000001 _row
00002646 l     F .text	00000099 wipeArea_far
00007f66 l     F .text	00000090 printf
0000006c l     O .zp.bss	00000002 __putchar.s
00006dd1 l     F .text	000001ce textPrint
00001507 l     F .text	00001029 pickFile_far
00000062 l     O .zp.bss	00000007 kernelEventData
00000069 l     O .zp.bss	00000001 kernelError
000045f9 l     F .text	0000002a FAR_PEEKW
000045d8 l     F .text	00000021 FAR_PEEK
00004623 l     F .text	00000023 FAR_POKE
00006dc0 l     F .text	00000011 textGotoXY
00004646 l     F .text	0000001c FAR_POKEW
00002530 l     F .text	00000116 reprepFPR_far
000026df l     F .text	000004a4 displayImage
0000830c l     F .text	000000b9 __udivhi3
00002b83 l     F .text	00000058 opl3_initialize
00002bdb l     F .text	00000039 opl3_quietAll
00008d8b l     O .bss	0000010e opl3_instrument_defs
00002c14 l     F .text	00000231 opl3_setInstrumentAllChannels
00000034 l     O .zp.data	00000001 _ccolor
00008c7b l     O .bss	00000001 chip_enable
00000076 l     O .zp.bss	00000001 chip_VT_PERC
00008c7c l     O .bss	00000001 chip_NOTESEL
00002e45 l     F .text	00000137 opl3_setInstrument
00002f7c l     F .text	0000083e opl3_set4OPS
00000077 l     O .zp.bss	00000001 chip_OPL3_PAIRS
00000035 l     O .zp.data	00000012 selectableChan
000037ba l     F .text	000005cc opl3_shadow
00003d86 l     F .text	0000005c lilpause
00003de2 l     F .text	000001f4 copyToRAM
00006c45 l     F .text	0000017b fileRead
00003fd6 l     F .text	000000a8 textUI
0000407e l     F .text	0000006e axes_info
000040ec l     F .text	0000002b wipe_inst
00004117 l     F .text	000000f4 show_all_inst
0000420b l     F .text	000003cd show_inst
00008e99 l     O .bss	00000078 name
00008c36 l     O .rodata	00000030 textColors
00008c7d l     O .bss	00000004 _BITMAP_BASE.0
00008c81 l     O .bss	00000008 _dirStream
0000006e l     O .zp.bss	00000007 gMID
00000078 l     O .zp.bss	00000002 theFile
00006848 l     F .text	000001b0 fileClose
000069f8 l     F .text	00000119 fetchNextPLEntry
00006b11 l     F .text	00000134 fileOpen
00007ff6 l     F .text	000000e2 sprintf
00008c6b l     O .bss	00000004 gd3Location
00008c6a l     O .bss	00000001 oneLoop
00008c6f l     O .bss	00000004 totalWait
00008c73 l     O .bss	00000004 loopBackTo
0000005e l     O .zp.bss	00000004 needle
00008c77 l     O .bss	00000004 samplesSoFar
0000007a l     O .zp.bss	00000001 comeRightTrough
00008c66 l     O .bss	00000004 tooBigWait
00000075 l     O .zp.bss	00000001 playChan
000083c5 l     F .text	000000d7 __udivmodhi4
00008c1e l     O .rodata	00000018 opl3_fnums
0000004c l     O .zp.bss	00000012 polyOPL3Buffer
0000004b l     O .zp.bss	00000001 chipAct.0
00008bc6 l     O .rodata	00000058 noteColors
0000849c l     F .text	00000070 __mulsi3
00000488 l     F .text	000000f0 _ZN12_GLOBAL__N_19FreeChunk6removeEv
00008f12 l     O .bss	00000001 _ZN12_GLOBAL__N_19last_freeE
00000334 l     F .text	00000153 _ZN12_GLOBAL__N_19FreeChunk6insertEPvj
000080d8 l     F .text	000001e8 malloc
00008c89 l     O .bss	00000102 fileReadDir.fileDirEntS
00007202 l     F .text	00000b76 _ZN12_GLOBAL__N_15printEPKcP6Status
00007d78 l     F .text	000000df _ZN12_GLOBAL__N_13putEcP6Status
00007e57 l     F .text	0000010f _ZN12_GLOBAL__N_112print_stringEPKcP6Status
00008f11 l     O .bss	00000001 _ZN12_GLOBAL__N_111initializedE
00008f15 l     O .bss	00000002 _ZN12_GLOBAL__N_19free_listE
00008f13 l     O .bss	00000002 _ZN12_GLOBAL__N_19free_sizeE
000005b5 g       .text	00000000 PEEK24
000005d7 g       .text	00000000 POKE24
00000014 g       *ABS*	00000000 __rc4
00000012 g       *ABS*	00000000 __rc2
00004662 g     F .text	000021e6 main
000103fc g       .pianopal	00000000 pianopal_end
00023000 g       .keys	00000000 keys_end
00060d00 g       .lcdimg	00000000 lcdimg_end
00040000 g       .lcdimg	00000000 lcdimg_start
00010000 g       .pianopal	00000000 pianopal_start
00010400 g       .keys	00000000 keys_start
00000330 g       .text	00000000 __after_main
0000031c g       .text	00000000 __do_init_stack
0000032a g       .text	00000000 __do_copy_zp_data
0000059e g     F .text	00000017 __copy_zp_data
00000324 g       .text	00000000 __do_zero_bss
00000578 g     F .text	00000013 __zero_bss
00000327 g       .text	00000000 __do_zero_zp_bss
0000058b g     F .text	00000013 __zero_zp_bss
000071fd g     F .text	00000005 exit
00000333 g       .text	00000000 _fini
000082ec  w    F .text	00000020 __memset
00001000  w      *ABS*	00000000 __heap_default_limit
00008f18 g       .noinit	00000000 __heap_start
000082c0  w    F .text	0000002c memcpy
00000010 g       *ABS*	00000000 __rc0
00000016 g       *ABS*	00000000 __rc6
00000018 g       *ABS*	00000000 __rc8
0000001a g       *ABS*	00000000 __rc10
0000001c g       *ABS*	00000000 __rc12
0000001e g       *ABS*	00000000 __rc14
00000020 g       *ABS*	00000000 __rc16
00000022 g       *ABS*	00000000 __rc18
00000024 g       *ABS*	00000000 __rc20
00000026 g       *ABS*	00000000 __rc22
00000028 g       *ABS*	00000000 __rc24
0000002a g       *ABS*	00000000 __rc26
0000002c g       *ABS*	00000000 __rc28
0000002e g       *ABS*	00000000 __rc30
0000002f g       *ABS*	00000000 __rc31
00000300 g       *ABS*	00000000 __f256_start
0000a000 g       *ABS*	00000000 __stack
0000a000 g       *ABS*	00000000 __SLOT_ADDR
0800a000 g       *ABS*	00000000 __block8_lma
00002000 g       *ABS*	00000000 __BLOCK_SIZE
0900a000 g       *ABS*	00000000 __block9_lma
0a00a000 g       *ABS*	00000000 __block10_lma
0b00a000 g       *ABS*	00000000 __block11_lma
0c00a000 g       *ABS*	00000000 __block12_lma
0d00a000 g       *ABS*	00000000 __block13_lma
0e00a000 g       *ABS*	00000000 __block14_lma
0f00a000 g       *ABS*	00000000 __block15_lma
1000a000 g       *ABS*	00000000 __block16_lma
1100a000 g       *ABS*	00000000 __block17_lma
1200a000 g       *ABS*	00000000 __block18_lma
1300a000 g       *ABS*	00000000 __block19_lma
1400a000 g       *ABS*	00000000 __block20_lma
1500a000 g       *ABS*	00000000 __block21_lma
1600a000 g       *ABS*	00000000 __block22_lma
1700a000 g       *ABS*	00000000 __block23_lma
00010000 g       *ABS*	00000000 __pianopal_lma
000003fc g       *ABS*	00000000 __pianopal_size
00010400 g       *ABS*	00000000 __keys_lma
00012c00 g       *ABS*	00000000 __keys_size
00040000 g       *ABS*	00000000 __lcdimg_lma
00020d00 g       *ABS*	00000000 __lcdimg_size
00008c66 g       .bss	00000000 __bss_start
000103fc g       .pianopal	00000000 end_pianopal
00023000 g       .keys	00000000 end_keys
00060d00 g       .lcdimg	00000000 end_lcdimg
0000031c g       .text	00000000 _start
0000002d g       *ABS*	00000000 __rc29
0000002b g       *ABS*	00000000 __rc27
00000029 g       *ABS*	00000000 __rc25
00000027 g       *ABS*	00000000 __rc23
00000025 g       *ABS*	00000000 __rc21
00000023 g       *ABS*	00000000 __rc19
00000021 g       *ABS*	00000000 __rc17
0000001f g       *ABS*	00000000 __rc15
0000001d g       *ABS*	00000000 __rc13
0000001b g       *ABS*	00000000 __rc11
00000019 g       *ABS*	00000000 __rc9
00000017 g       *ABS*	00000000 __rc7
00000015 g       *ABS*	00000000 __rc5
00000013 g       *ABS*	00000000 __rc3
00000011 g       *ABS*	00000000 __rc1
00000030 g       .zp.data	00000000 __zp_data_start
00000300 g       *ABS*	00000000 __zp_data_load_start
0000001b g       *ABS*	00000000 __zp_data_size
0000004b g       .zp.bss	00000000 __zp_bss_start
00000030 g       *ABS*	00000000 __zp_bss_size
0000031c g       .text	00000000 _init
0000850c g       .text	00000000 __init_array_start
0000850c g       .text	00000000 __init_array_end
0000850c g       .text	00000000 __fini_array_start
0000850c g       .text	00000000 __fini_array_end
00008c66 g       .data	00000000 __data_start
00008c66 g       .data	00000000 __data_end
00008c66 g       *ABS*	00000000 __data_load_start
00000000 g       *ABS*	00000000 __data_size
00008f17 g       .bss	00000000 __bss_end
000002b1 g       *ABS*	00000000 __bss_size
00008f17 g       .noinit	00000000 end_block8
00008f17 g       .noinit	00000000 end_block9
00008f17 g       .noinit	00000000 end_block10
00008f17 g       .noinit	00000000 end_block11
00008f17 g       .noinit	00000000 end_block12
00008f17 g       .noinit	00000000 end_block13
00008f17 g       .noinit	00000000 end_block14
00008f17 g       .noinit	00000000 end_block15
00008f17 g       .noinit	00000000 end_block16
00008f17 g       .noinit	00000000 end_block17
00008f17 g       .noinit	00000000 end_block18
00008f17 g       .noinit	00000000 end_block19
00008f17 g       .noinit	00000000 end_block20
00008f17 g       .noinit	00000000 end_block21
00008f17 g       .noinit	00000000 end_block22
00008f17 g       .noinit	00000000 end_block23

Disassembly of section .text:

0000031c <_start>:
     31c: a9 00        	lda	#$0
     31e: 85 10        	sta	$10                     ; 0x10 <__rc0>
     320: a9 a0        	lda	#$a0
     322: 85 11        	sta	$11                     ; 0x11 <__rc1>

00000324 <__do_zero_bss>:
     324: 20 78 05     	jsr	$578 <__zero_bss>

00000327 <__do_zero_zp_bss>:
     327: 20 8b 05     	jsr	$58b <__zero_zp_bss>

0000032a <__do_copy_zp_data>:
     32a: 20 9e 05     	jsr	$59e <__copy_zp_data>
     32d: 20 62 46     	jsr	$4662 <main>

00000330 <__after_main>:
     330: 4c fd 71     	jmp	$71fd <exit>

00000333 <_fini>:
     333: 60           	rts

00000334 <_ZN12_GLOBAL__N_19FreeChunk6insertEPvj>:
     334: 85 16        	sta	$16                     ; 0x16 <__rc6>
     336: 29 fe        	and	#$fe
     338: 85 14        	sta	$14                     ; 0x14 <__rc4>
     33a: a0 01        	ldy	#$1
     33c: 98           	tya
     33d: 32 12        	and	($12)                   ; 0x12 <__rc2>
     33f: 05 14        	ora	$14                     ; 0x14 <__rc4>
     341: 92 12        	sta	($12)                   ; 0x12 <__rc2>
     343: a5 12        	lda	$12                     ; 0x12 <__rc2>
     345: 18           	clc
     346: 65 14        	adc	$14                     ; 0x14 <__rc4>
     348: 85 15        	sta	$15                     ; 0x15 <__rc5>
     34a: 8a           	txa
     34b: 65 13        	adc	$13                     ; 0x13 <__rc3>
     34d: 85 14        	sta	$14                     ; 0x14 <__rc4>
     34f: 18           	clc
     350: a5 15        	lda	$15                     ; 0x15 <__rc5>
     352: 69 fe        	adc	#$fe
     354: 85 17        	sta	$17                     ; 0x17 <__rc7>
     356: a5 14        	lda	$14                     ; 0x14 <__rc4>
     358: 69 ff        	adc	#$ff
     35a: 85 15        	sta	$15                     ; 0x15 <__rc5>
     35c: a5 17        	lda	$17                     ; 0x17 <__rc7>
     35e: 85 14        	sta	$14                     ; 0x14 <__rc4>
     360: 8a           	txa
     361: 91 12        	sta	($12),y                 ; 0x12 <__rc2>
     363: a5 16        	lda	$16                     ; 0x16 <__rc6>
     365: 92 14        	sta	($14)                   ; 0x14 <__rc4>
     367: 8a           	txa
     368: 91 14        	sta	($14),y                 ; 0x14 <__rc4>
     36a: a2 01        	ldx	#$1
     36c: 86 18        	stx	$18                     ; 0x18 <__rc8>
     36e: b1 12        	lda	($12),y                 ; 0x12 <__rc2>
     370: 85 14        	sta	$14                     ; 0x14 <__rc4>
     372: a9 fe        	lda	#$fe
     374: 32 12        	and	($12)                   ; 0x12 <__rc2>
     376: 18           	clc
     377: 6d 13 8f     	adc	$8f13                   ; 0x8f13 <_ZN12_GLOBAL__N_19free_sizeE>
     37a: aa           	tax
     37b: a5 14        	lda	$14                     ; 0x14 <__rc4>
     37d: 6d 14 8f     	adc	$8f14                   ; 0x8f14 <_ZN12_GLOBAL__N_19free_sizeE+0x1>
     380: a8           	tay
     381: 18           	clc
     382: 8a           	txa
     383: 69 fe        	adc	#$fe
     385: aa           	tax
     386: 98           	tya
     387: 69 ff        	adc	#$ff
     389: 8e 13 8f     	stx	$8f13                   ; 0x8f13 <_ZN12_GLOBAL__N_19free_sizeE>
     38c: 8d 14 8f     	sta	$8f14                   ; 0x8f14 <_ZN12_GLOBAL__N_19free_sizeE+0x1>
     38f: ae 15 8f     	ldx	$8f15                   ; 0x8f15 <_ZN12_GLOBAL__N_19free_listE>
     392: 86 16        	stx	$16                     ; 0x16 <__rc6>
     394: ac 16 8f     	ldy	$8f16                   ; 0x8f16 <_ZN12_GLOBAL__N_19free_listE+0x1>
     397: a2 00        	ldx	#$0
     399: 86 14        	stx	$14                     ; 0x14 <__rc4>
     39b: a2 00        	ldx	#$0
     39d: 86 15        	stx	$15                     ; 0x15 <__rc5>
     39f: 84 17        	sty	$17                     ; 0x17 <__rc7>
     3a1: c4 15        	cpy	$15                     ; 0x15 <__rc5>
     3a3: d0 3e        	bne	$3e3 <_ZN12_GLOBAL__N_19FreeChunk6insertEPvj+0xaf>
     3a5: a6 16        	ldx	$16                     ; 0x16 <__rc6>
     3a7: e4 14        	cpx	$14                     ; 0x14 <__rc4>
     3a9: d0 38        	bne	$3e3 <_ZN12_GLOBAL__N_19FreeChunk6insertEPvj+0xaf>
     3ab: a0 04        	ldy	#$4
     3ad: a5 12        	lda	$12                     ; 0x12 <__rc2>
     3af: 18           	clc
     3b0: 69 04        	adc	#$4
     3b2: 85 14        	sta	$14                     ; 0x14 <__rc4>
     3b4: a5 13        	lda	$13                     ; 0x13 <__rc3>
     3b6: 69 00        	adc	#$0
     3b8: 18           	clc
     3b9: 85 15        	sta	$15                     ; 0x15 <__rc5>
     3bb: a5 12        	lda	$12                     ; 0x12 <__rc2>
     3bd: 91 12        	sta	($12),y                 ; 0x12 <__rc2>
     3bf: a0 02        	ldy	#$2
     3c1: 85 17        	sta	$17                     ; 0x17 <__rc7>
     3c3: 69 02        	adc	#$2
     3c5: 85 16        	sta	$16                     ; 0x16 <__rc6>
     3c7: a5 17        	lda	$17                     ; 0x17 <__rc7>
     3c9: 91 12        	sta	($12),y                 ; 0x12 <__rc2>
     3cb: a5 13        	lda	$13                     ; 0x13 <__rc3>
     3cd: 69 00        	adc	#$0
     3cf: 85 17        	sta	$17                     ; 0x17 <__rc7>
     3d1: 88           	dey
     3d2: a5 13        	lda	$13                     ; 0x13 <__rc3>
     3d4: 91 14        	sta	($14),y                 ; 0x14 <__rc4>
     3d6: 91 16        	sta	($16),y                 ; 0x16 <__rc6>
     3d8: a6 12        	ldx	$12                     ; 0x12 <__rc2>
     3da: 8e 15 8f     	stx	$8f15                   ; 0x8f15 <_ZN12_GLOBAL__N_19free_listE>
     3dd: a6 13        	ldx	$13                     ; 0x13 <__rc3>
     3df: 8e 16 8f     	stx	$8f16                   ; 0x8f16 <_ZN12_GLOBAL__N_19free_listE+0x1>
     3e2: 60           	rts
     3e3: a6 12        	ldx	$12                     ; 0x12 <__rc2>
     3e5: a5 12        	lda	$12                     ; 0x12 <__rc2>
     3e7: 18           	clc
     3e8: 69 02        	adc	#$2
     3ea: 85 14        	sta	$14                     ; 0x14 <__rc4>
     3ec: a4 16        	ldy	$16                     ; 0x16 <__rc6>
     3ee: a5 13        	lda	$13                     ; 0x13 <__rc3>
     3f0: 69 00        	adc	#$0
     3f2: 85 15        	sta	$15                     ; 0x15 <__rc5>
     3f4: 84 19        	sty	$19                     ; 0x19 <__rc9>
     3f6: a4 17        	ldy	$17                     ; 0x17 <__rc7>
     3f8: 84 1a        	sty	$1a                     ; 0x1a <__rc10>
     3fa: a0 02        	ldy	#$2
     3fc: a5 19        	lda	$19                     ; 0x19 <__rc9>
     3fe: 91 12        	sta	($12),y                 ; 0x12 <__rc2>
     400: 84 1d        	sty	$1d                     ; 0x1d <__rc13>
     402: a4 18        	ldy	$18                     ; 0x18 <__rc8>
     404: a5 1a        	lda	$1a                     ; 0x1a <__rc10>
     406: 91 14        	sta	($14),y                 ; 0x14 <__rc4>
     408: 84 1e        	sty	$1e                     ; 0x1e <__rc14>
     40a: 18           	clc
     40b: a5 19        	lda	$19                     ; 0x19 <__rc9>
     40d: 69 04        	adc	#$4
     40f: 85 18        	sta	$18                     ; 0x18 <__rc8>
     411: a5 1a        	lda	$1a                     ; 0x1a <__rc10>
     413: 69 00        	adc	#$0
     415: 85 19        	sta	$19                     ; 0x19 <__rc9>
     417: 8a           	txa
     418: 18           	clc
     419: 69 04        	adc	#$4
     41b: 85 1a        	sta	$1a                     ; 0x1a <__rc10>
     41d: a5 13        	lda	$13                     ; 0x13 <__rc3>
     41f: 69 00        	adc	#$0
     421: 85 1b        	sta	$1b                     ; 0x1b <__zp_data_size>
     423: a0 04        	ldy	#$4
     425: b1 16        	lda	($16),y                 ; 0x16 <__rc6>
     427: 85 16        	sta	$16                     ; 0x16 <__rc6>
     429: 85 22        	sta	$22                     ; 0x22 <__rc18>
     42b: a4 1e        	ldy	$1e                     ; 0x1e <__rc14>
     42d: b1 18        	lda	($18),y                 ; 0x18 <__rc8>
     42f: 85 17        	sta	$17                     ; 0x17 <__rc7>
     431: 85 19        	sta	$19                     ; 0x19 <__rc9>
     433: a0 04        	ldy	#$4
     435: a5 22        	lda	$22                     ; 0x22 <__rc18>
     437: 91 12        	sta	($12),y                 ; 0x12 <__rc2>
     439: 84 1f        	sty	$1f                     ; 0x1f <__rc15>
     43b: a4 1e        	ldy	$1e                     ; 0x1e <__rc14>
     43d: a5 19        	lda	$19                     ; 0x19 <__rc9>
     43f: 91 1a        	sta	($1a),y                 ; 0x1a <__rc10>
     441: 84 1a        	sty	$1a                     ; 0x1a <__rc10>
     443: 18           	clc
     444: a5 22        	lda	$22                     ; 0x22 <__rc18>
     446: 69 02        	adc	#$2
     448: 85 18        	sta	$18                     ; 0x18 <__rc8>
     44a: a5 19        	lda	$19                     ; 0x19 <__rc9>
     44c: 69 00        	adc	#$0
     44e: 85 19        	sta	$19                     ; 0x19 <__rc9>
     450: 8a           	txa
     451: a4 1d        	ldy	$1d                     ; 0x1d <__rc13>
     453: 91 16        	sta	($16),y                 ; 0x16 <__rc6>
     455: a5 13        	lda	$13                     ; 0x13 <__rc3>
     457: a4 1a        	ldy	$1a                     ; 0x1a <__rc10>
     459: 91 18        	sta	($18),y                 ; 0x18 <__rc8>
     45b: a4 1d        	ldy	$1d                     ; 0x1d <__rc13>
     45d: b1 12        	lda	($12),y                 ; 0x12 <__rc2>
     45f: 85 16        	sta	$16                     ; 0x16 <__rc6>
     461: 85 19        	sta	$19                     ; 0x19 <__rc9>
     463: a4 1a        	ldy	$1a                     ; 0x1a <__rc10>
     465: b1 14        	lda	($14),y                 ; 0x14 <__rc4>
     467: 84 18        	sty	$18                     ; 0x18 <__rc8>
     469: 85 17        	sta	$17                     ; 0x17 <__rc7>
     46b: 85 14        	sta	$14                     ; 0x14 <__rc4>
     46d: 8a           	txa
     46e: a4 1f        	ldy	$1f                     ; 0x1f <__rc15>
     470: 91 16        	sta	($16),y                 ; 0x16 <__rc6>
     472: 18           	clc
     473: a5 19        	lda	$19                     ; 0x19 <__rc9>
     475: 69 04        	adc	#$4
     477: a8           	tay
     478: a5 14        	lda	$14                     ; 0x14 <__rc4>
     47a: 69 00        	adc	#$0
     47c: 84 14        	sty	$14                     ; 0x14 <__rc4>
     47e: 85 15        	sta	$15                     ; 0x15 <__rc5>
     480: a5 13        	lda	$13                     ; 0x13 <__rc3>
     482: a4 18        	ldy	$18                     ; 0x18 <__rc8>
     484: 91 14        	sta	($14),y                 ; 0x14 <__rc4>
     486: 60           	rts
     487: 00           	brk

00000488 <_ZN12_GLOBAL__N_19FreeChunk6removeEv>:
     488: a0 01        	ldy	#$1
     48a: a9 fe        	lda	#$fe
     48c: 32 12        	and	($12)                   ; 0x12 <__rc2>
     48e: 85 14        	sta	$14                     ; 0x14 <__rc4>
     490: ad 13 8f     	lda	$8f13                   ; 0x8f13 <_ZN12_GLOBAL__N_19free_sizeE>
     493: ae 14 8f     	ldx	$8f14                   ; 0x8f14 <_ZN12_GLOBAL__N_19free_sizeE+0x1>
     496: 38           	sec
     497: e5 14        	sbc	$14                     ; 0x14 <__rc4>
     499: 85 17        	sta	$17                     ; 0x17 <__rc7>
     49b: 8a           	txa
     49c: f1 12        	sbc	($12),y                 ; 0x12 <__rc2>
     49e: 85 14        	sta	$14                     ; 0x14 <__rc4>
     4a0: a2 01        	ldx	#$1
     4a2: 86 16        	stx	$16                     ; 0x16 <__rc6>
     4a4: 18           	clc
     4a5: a5 17        	lda	$17                     ; 0x17 <__rc7>
     4a7: 69 02        	adc	#$2
     4a9: 85 15        	sta	$15                     ; 0x15 <__rc5>
     4ab: a5 14        	lda	$14                     ; 0x14 <__rc4>
     4ad: 69 00        	adc	#$0
     4af: a6 15        	ldx	$15                     ; 0x15 <__rc5>
     4b1: 8e 13 8f     	stx	$8f13                   ; 0x8f13 <_ZN12_GLOBAL__N_19free_sizeE>
     4b4: 8d 14 8f     	sta	$8f14                   ; 0x8f14 <_ZN12_GLOBAL__N_19free_sizeE+0x1>
     4b7: a5 12        	lda	$12                     ; 0x12 <__rc2>
     4b9: 18           	clc
     4ba: 69 02        	adc	#$2
     4bc: 85 14        	sta	$14                     ; 0x14 <__rc4>
     4be: a5 13        	lda	$13                     ; 0x13 <__rc3>
     4c0: 69 00        	adc	#$0
     4c2: c8           	iny
     4c3: 85 15        	sta	$15                     ; 0x15 <__rc5>
     4c5: b1 12        	lda	($12),y                 ; 0x12 <__rc2>
     4c7: aa           	tax
     4c8: a4 16        	ldy	$16                     ; 0x16 <__rc6>
     4ca: b1 14        	lda	($14),y                 ; 0x14 <__rc4>
     4cc: 85 19        	sta	$19                     ; 0x19 <__rc9>
     4ce: c5 13        	cmp	$13                     ; 0x13 <__rc3>
     4d0: d0 0f        	bne	$4e1 <_ZN12_GLOBAL__N_19FreeChunk6removeEv+0x59>
     4d2: e4 12        	cpx	$12                     ; 0x12 <__rc2>
     4d4: d0 0b        	bne	$4e1 <_ZN12_GLOBAL__N_19FreeChunk6removeEv+0x59>
     4d6: a2 00        	ldx	#$0
     4d8: 86 14        	stx	$14                     ; 0x14 <__rc4>
     4da: a2 00        	ldx	#$0
     4dc: 86 15        	stx	$15                     ; 0x15 <__rc5>
     4de: 4c 6d 05     	jmp	$56d <_ZN12_GLOBAL__N_19FreeChunk6removeEv+0xe5>
     4e1: 86 18        	stx	$18                     ; 0x18 <__rc8>
     4e3: a6 12        	ldx	$12                     ; 0x12 <__rc2>
     4e5: a5 12        	lda	$12                     ; 0x12 <__rc2>
     4e7: 86 1c        	stx	$1c                     ; 0x1c <__rc12>
     4e9: 18           	clc
     4ea: 69 04        	adc	#$4
     4ec: 85 14        	sta	$14                     ; 0x14 <__rc4>
     4ee: a5 13        	lda	$13                     ; 0x13 <__rc3>
     4f0: 69 00        	adc	#$0
     4f2: a0 04        	ldy	#$4
     4f4: 85 15        	sta	$15                     ; 0x15 <__rc5>
     4f6: b1 12        	lda	($12),y                 ; 0x12 <__rc2>
     4f8: 85 1d        	sta	$1d                     ; 0x1d <__rc13>
     4fa: a2 04        	ldx	#$4
     4fc: 86 1a        	stx	$1a                     ; 0x1a <__rc10>
     4fe: 18           	clc
     4ff: 69 02        	adc	#$2
     501: 85 16        	sta	$16                     ; 0x16 <__rc6>
     503: a0 01        	ldy	#$1
     505: b1 14        	lda	($14),y                 ; 0x14 <__rc4>
     507: aa           	tax
     508: 84 1e        	sty	$1e                     ; 0x1e <__rc14>
     50a: 69 00        	adc	#$0
     50c: a4 16        	ldy	$16                     ; 0x16 <__rc6>
     50e: 84 14        	sty	$14                     ; 0x14 <__rc4>
     510: 85 15        	sta	$15                     ; 0x15 <__rc5>
     512: a4 1d        	ldy	$1d                     ; 0x1d <__rc13>
     514: 84 16        	sty	$16                     ; 0x16 <__rc6>
     516: 86 17        	stx	$17                     ; 0x17 <__rc7>
     518: a5 18        	lda	$18                     ; 0x18 <__rc8>
     51a: a0 02        	ldy	#$2
     51c: 91 16        	sta	($16),y                 ; 0x16 <__rc6>
     51e: 84 16        	sty	$16                     ; 0x16 <__rc6>
     520: a5 19        	lda	$19                     ; 0x19 <__rc9>
     522: a4 1e        	ldy	$1e                     ; 0x1e <__rc14>
     524: 91 14        	sta	($14),y                 ; 0x14 <__rc4>
     526: 18           	clc
     527: a5 1c        	lda	$1c                     ; 0x1c <__rc12>
     529: 69 02        	adc	#$2
     52b: 85 14        	sta	$14                     ; 0x14 <__rc4>
     52d: a5 13        	lda	$13                     ; 0x13 <__rc3>
     52f: 69 00        	adc	#$0
     531: 85 15        	sta	$15                     ; 0x15 <__rc5>
     533: a4 16        	ldy	$16                     ; 0x16 <__rc6>
     535: b1 12        	lda	($12),y                 ; 0x12 <__rc2>
     537: 85 16        	sta	$16                     ; 0x16 <__rc6>
     539: a4 1e        	ldy	$1e                     ; 0x1e <__rc14>
     53b: b1 14        	lda	($14),y                 ; 0x14 <__rc4>
     53d: 84 18        	sty	$18                     ; 0x18 <__rc8>
     53f: a4 16        	ldy	$16                     ; 0x16 <__rc6>
     541: 84 14        	sty	$14                     ; 0x14 <__rc4>
     543: 85 15        	sta	$15                     ; 0x15 <__rc5>
     545: 85 17        	sta	$17                     ; 0x17 <__rc7>
     547: a4 1a        	ldy	$1a                     ; 0x1a <__rc10>
     549: a5 1d        	lda	$1d                     ; 0x1d <__rc13>
     54b: 91 14        	sta	($14),y                 ; 0x14 <__rc4>
     54d: 18           	clc
     54e: a5 16        	lda	$16                     ; 0x16 <__rc6>
     550: 69 04        	adc	#$4
     552: 85 16        	sta	$16                     ; 0x16 <__rc6>
     554: a5 17        	lda	$17                     ; 0x17 <__rc7>
     556: 69 00        	adc	#$0
     558: 85 17        	sta	$17                     ; 0x17 <__rc7>
     55a: 8a           	txa
     55b: a4 18        	ldy	$18                     ; 0x18 <__rc8>
     55d: 91 16        	sta	($16),y                 ; 0x16 <__rc6>
     55f: ae 16 8f     	ldx	$8f16                   ; 0x8f16 <_ZN12_GLOBAL__N_19free_listE+0x1>
     562: e4 13        	cpx	$13                     ; 0x13 <__rc3>
     564: d0 11        	bne	$577 <_ZN12_GLOBAL__N_19FreeChunk6removeEv+0xef>
     566: ae 15 8f     	ldx	$8f15                   ; 0x8f15 <_ZN12_GLOBAL__N_19free_listE>
     569: e4 12        	cpx	$12                     ; 0x12 <__rc2>
     56b: d0 0a        	bne	$577 <_ZN12_GLOBAL__N_19FreeChunk6removeEv+0xef>
     56d: a6 14        	ldx	$14                     ; 0x14 <__rc4>
     56f: a4 15        	ldy	$15                     ; 0x15 <__rc5>
     571: 8e 15 8f     	stx	$8f15                   ; 0x8f15 <_ZN12_GLOBAL__N_19free_listE>
     574: 8c 16 8f     	sty	$8f16                   ; 0x8f16 <_ZN12_GLOBAL__N_19free_listE+0x1>
     577: 60           	rts

00000578 <__zero_bss>:
     578: a2 b1        	ldx	#$b1
     57a: a0 02        	ldy	#$2
     57c: a9 66        	lda	#$66
     57e: 85 12        	sta	$12                     ; 0x12 <__rc2>
     580: a9 8c        	lda	#$8c
     582: 85 13        	sta	$13                     ; 0x13 <__rc3>
     584: a9 00        	lda	#$0
     586: 84 14        	sty	$14                     ; 0x14 <__rc4>
     588: 4c ec 82     	jmp	$82ec <__memset>

0000058b <__zero_zp_bss>:
     58b: a2 30        	ldx	#$30
     58d: a0 00        	ldy	#$0
     58f: a9 4b        	lda	#$4b
     591: 85 12        	sta	$12                     ; 0x12 <__rc2>
     593: a9 00        	lda	#$0
     595: 85 13        	sta	$13                     ; 0x13 <__rc3>
     597: a9 00        	lda	#$0
     599: 84 14        	sty	$14                     ; 0x14 <__rc4>
     59b: 4c ec 82     	jmp	$82ec <__memset>

0000059e <__copy_zp_data>:
     59e: a9 1b        	lda	#$1b
     5a0: a2 00        	ldx	#$0
     5a2: a0 30        	ldy	#$30
     5a4: 84 12        	sty	$12                     ; 0x12 <__rc2>
     5a6: a0 00        	ldy	#$0
     5a8: 84 13        	sty	$13                     ; 0x13 <__rc3>
     5aa: a0 00        	ldy	#$0
     5ac: 84 14        	sty	$14                     ; 0x14 <__rc4>
     5ae: a0 03        	ldy	#$3
     5b0: 84 15        	sty	$15                     ; 0x15 <__rc5>
     5b2: 4c c0 82     	jmp	$82c0 <memcpy>

000005b5 <PEEK24>:
     5b5: 85 05        	sta	$5                      ; 0x5 <__data_size+0x5>
     5b7: 86 06        	stx	$6                      ; 0x6 <__data_size+0x6>
     5b9: a5 12        	lda	$12                     ; 0x12 <__rc2>
     5bb: 85 07        	sta	$7                      ; 0x7 <__data_size+0x7>
     5bd: a6 00        	ldx	$0                      ; 0x0 <__data_size>
     5bf: a4 01        	ldy	$1                      ; 0x1 <__data_size+0x1>
     5c1: 8a           	txa
     5c2: 09 08        	ora	#$8
     5c4: 08           	php
     5c5: 78           	sei
     5c6: 85 00        	sta	$0                      ; 0x0 <__data_size>
     5c8: 98           	tya
     5c9: 09 30        	ora	#$30
     5cb: 85 01        	sta	$1                      ; 0x1 <__data_size+0x1>
     5cd: a7 05        	smb	$2,$5                   ; 0x5 <__data_size+0x5>
     5cf: 86 00        	stx	$0                      ; 0x0 <__data_size>
     5d1: 84 01        	sty	$1                      ; 0x1 <__data_size+0x1>
     5d3: 28           	plp
     5d4: a2 00        	ldx	#$0
     5d6: 60           	rts

000005d7 <POKE24>:
     5d7: 85 05        	sta	$5                      ; 0x5 <__data_size+0x5>
     5d9: 86 06        	stx	$6                      ; 0x6 <__data_size+0x6>
     5db: a5 12        	lda	$12                     ; 0x12 <__rc2>
     5dd: 85 07        	sta	$7                      ; 0x7 <__data_size+0x7>
     5df: a6 00        	ldx	$0                      ; 0x0 <__data_size>
     5e1: a4 01        	ldy	$1                      ; 0x1 <__data_size+0x1>
     5e3: 8a           	txa
     5e4: 09 08        	ora	#$8
     5e6: 08           	php
     5e7: 78           	sei
     5e8: 85 00        	sta	$0                      ; 0x0 <__data_size>
     5ea: 98           	tya
     5eb: 09 48        	ora	#$48
     5ed: 85 01        	sta	$1                      ; 0x1 <__data_size+0x1>
     5ef: a5 14        	lda	$14                     ; 0x14 <__rc4>
     5f1: 87 05        	smb	$0,$5                   ; 0x5 <__data_size+0x5>
     5f3: 86 00        	stx	$0                      ; 0x0 <__data_size>
     5f5: 84 01        	sty	$1                      ; 0x1 <__data_size+0x1>
     5f7: 28           	plp
     5f8: a2 00        	ldx	#$0
     5fa: 60           	rts

000005fb <readDirectory_far>:
     5fb: 18           	clc
     5fc: a5 10        	lda	$10                     ; 0x10 <__rc0>
     5fe: 69 bc        	adc	#$bc
     600: 85 10        	sta	$10                     ; 0x10 <__rc0>
     602: a5 11        	lda	$11                     ; 0x11 <__rc1>
     604: 69 ff        	adc	#$ff
     606: 85 11        	sta	$11                     ; 0x11 <__rc1>
     608: a6 24        	ldx	$24                     ; 0x24 <__rc20>
     60a: da           	phx
     60b: a6 25        	ldx	$25                     ; 0x25 <__rc21>
     60d: da           	phx
     60e: a6 26        	ldx	$26                     ; 0x26 <__rc22>
     610: da           	phx
     611: a6 27        	ldx	$27                     ; 0x27 <__rc23>
     613: da           	phx
     614: a5 28        	lda	$28                     ; 0x28 <__rc24>
     616: a0 03        	ldy	#$3
     618: 91 10        	sta	($10),y                 ; 0x10 <__rc0>
     61a: a5 29        	lda	$29                     ; 0x29 <__rc25>
     61c: 88           	dey
     61d: 91 10        	sta	($10),y                 ; 0x10 <__rc0>
     61f: a5 2a        	lda	$2a                     ; 0x2a <__rc26>
     621: 88           	dey
     622: 91 10        	sta	($10),y                 ; 0x10 <__rc0>
     624: a5 2b        	lda	$2b                     ; 0x2b <__rc27>
     626: 88           	dey
     627: 91 10        	sta	($10),y                 ; 0x10 <__rc0>
     629: a0 00        	ldy	#$0
     62b: 18           	clc
     62c: a5 10        	lda	$10                     ; 0x10 <__rc0>
     62e: 69 04        	adc	#$4
     630: 85 12        	sta	$12                     ; 0x12 <__rc2>
     632: a2 01        	ldx	#$1
     634: b0 02        	bcs	$638 <readDirectory_far+0x3d>
     636: a2 00        	ldx	#$0
     638: 86 16        	stx	$16                     ; 0x16 <__rc6>
     63a: 98           	tya
     63b: 18           	clc
     63c: 69 02        	adc	#$2
     63e: 85 14        	sta	$14                     ; 0x14 <__rc4>
     640: a9 00        	lda	#$0
     642: 69 e0        	adc	#$e0
     644: a6 0f        	ldx	$f                      ; 0xf <__data_size+0xf>
     646: 86 13        	stx	$13                     ; 0x13 <__rc3>
     648: 78           	sei
     649: a2 18        	ldx	#$18
     64b: 86 0f        	stx	$f                      ; 0xf <__data_size+0xf>
     64d: 85 15        	sta	$15                     ; 0x15 <__rc5>
     64f: b2 14        	lda	($14)                   ; 0x14 <__rc4>
     651: a6 13        	ldx	$13                     ; 0x13 <__rc3>
     653: 86 0f        	stx	$f                      ; 0xf <__data_size+0xf>
     655: 58           	cli
     656: a6 16        	ldx	$16                     ; 0x16 <__rc6>
     658: e0 01        	cpx	#$1
     65a: 48           	pha
     65b: a5 11        	lda	$11                     ; 0x11 <__rc1>
     65d: 69 00        	adc	#$0
     65f: 85 13        	sta	$13                     ; 0x13 <__rc3>
     661: 68           	pla
     662: 91 12        	sta	($12),y                 ; 0x12 <__rc2>
     664: f0 05        	beq	$66b <readDirectory_far+0x70>
     666: c8           	iny
     667: c0 3c        	cpy	#$3c
     669: d0 cf        	bne	$63a <readDirectory_far+0x3f>
     66b: 20 ea 6f     	jsr	$6fea <fileOpenDir>
     66e: a6 12        	ldx	$12                     ; 0x12 <__rc2>
     670: 86 24        	stx	$24                     ; 0x24 <__rc20>
     672: a6 13        	ldx	$13                     ; 0x13 <__rc3>
     674: 86 25        	stx	$25                     ; 0x25 <__rc21>
     676: a2 00        	ldx	#$0
     678: 86 12        	stx	$12                     ; 0x12 <__rc2>
     67a: a2 00        	ldx	#$0
     67c: 86 13        	stx	$13                     ; 0x13 <__rc3>
     67e: a6 25        	ldx	$25                     ; 0x25 <__rc21>
     680: e4 13        	cpx	$13                     ; 0x13 <__rc3>
     682: d0 09        	bne	$68d <readDirectory_far+0x92>
     684: a6 24        	ldx	$24                     ; 0x24 <__rc20>
     686: e4 12        	cpx	$12                     ; 0x12 <__rc2>
     688: d0 03        	bne	$68d <readDirectory_far+0x92>
     68a: 4c d4 0a     	jmp	$ad4 <readDirectory_far+0x4d9>
     68d: a6 24        	ldx	$24                     ; 0x24 <__rc20>
     68f: 86 12        	stx	$12                     ; 0x12 <__rc2>
     691: a6 25        	ldx	$25                     ; 0x25 <__rc21>
     693: 86 13        	stx	$13                     ; 0x13 <__rc3>
     695: 20 0a 71     	jsr	$710a <fileReadDir>
     698: a2 01        	ldx	#$1
     69a: 86 26        	stx	$26                     ; 0x26 <__rc22>
     69c: 86 29        	stx	$29                     ; 0x29 <__rc25>
     69e: ca           	dex
     69f: 4c 43 0a     	jmp	$a43 <readDirectory_far+0x448>
     6a2: a5 2a        	lda	$2a                     ; 0x2a <__rc26>
     6a4: f0 03        	beq	$6a9 <readDirectory_far+0xae>
     6a6: 4c 5e 0a     	jmp	$a5e <readDirectory_far+0x463>
     6a9: a2 03        	ldx	#$3
     6ab: 86 28        	stx	$28                     ; 0x28 <__rc24>
     6ad: a2 01        	ldx	#$1
     6af: 86 2b        	stx	$2b                     ; 0x2b <__rc27>
     6b1: a6 24        	ldx	$24                     ; 0x24 <__rc20>
     6b3: 86 12        	stx	$12                     ; 0x12 <__rc2>
     6b5: a6 25        	ldx	$25                     ; 0x25 <__rc21>
     6b7: 86 13        	stx	$13                     ; 0x13 <__rc3>
     6b9: 20 0a 71     	jsr	$710a <fileReadDir>
     6bc: a2 00        	ldx	#$0
     6be: 86 14        	stx	$14                     ; 0x14 <__rc4>
     6c0: a2 00        	ldx	#$0
     6c2: 86 15        	stx	$15                     ; 0x15 <__rc5>
     6c4: a6 13        	ldx	$13                     ; 0x13 <__rc3>
     6c6: e4 15        	cpx	$15                     ; 0x15 <__rc5>
     6c8: d0 0c        	bne	$6d6 <readDirectory_far+0xdb>
     6ca: a6 12        	ldx	$12                     ; 0x12 <__rc2>
     6cc: a4 2b        	ldy	$2b                     ; 0x2b <__rc27>
     6ce: e4 14        	cpx	$14                     ; 0x14 <__rc4>
     6d0: d0 06        	bne	$6d8 <readDirectory_far+0xdd>
     6d2: a0 00        	ldy	#$0
     6d4: 80 02        	bra	$6d8 <readDirectory_far+0xdd>
     6d6: a4 2b        	ldy	$2b                     ; 0x2b <__rc27>
     6d8: 98           	tya
     6d9: d0 03        	bne	$6de <readDirectory_far+0xe3>
     6db: 4c 67 0a     	jmp	$a67 <readDirectory_far+0x46c>
     6de: a0 02        	ldy	#$2
     6e0: b1 12        	lda	($12),y                 ; 0x12 <__rc2>
     6e2: c9 2e        	cmp	#$2e
     6e4: d0 18        	bne	$6fe <readDirectory_far+0x103>
     6e6: a4 28        	ldy	$28                     ; 0x28 <__rc24>
     6e8: a6 27        	ldx	$27                     ; 0x27 <__rc23>
     6ea: b1 12        	lda	($12),y                 ; 0x12 <__rc2>
     6ec: d0 03        	bne	$6f1 <readDirectory_far+0xf6>
     6ee: 4c 4f 0a     	jmp	$a4f <readDirectory_far+0x454>
     6f1: c9 2e        	cmp	#$2e
     6f3: d0 09        	bne	$6fe <readDirectory_far+0x103>
     6f5: a0 04        	ldy	#$4
     6f7: b1 12        	lda	($12),y                 ; 0x12 <__rc2>
     6f9: d0 03        	bne	$6fe <readDirectory_far+0x103>
     6fb: 4c 4f 0a     	jmp	$a4f <readDirectory_far+0x454>
     6fe: a5 12        	lda	$12                     ; 0x12 <__rc2>
     700: 18           	clc
     701: 69 02        	adc	#$2
     703: 85 14        	sta	$14                     ; 0x14 <__rc4>
     705: a5 13        	lda	$13                     ; 0x13 <__rc3>
     707: 69 00        	adc	#$0
     709: 85 15        	sta	$15                     ; 0x15 <__rc5>
     70b: 64 16        	stz	$16                     ; 0x16 <__rc6>
     70d: 64 17        	stz	$17                     ; 0x17 <__rc7>
     70f: a5 16        	lda	$16                     ; 0x16 <__rc6>
     711: 0a           	asl
     712: a6 17        	ldx	$17                     ; 0x17 <__rc7>
     714: 86 18        	stx	$18                     ; 0x18 <__rc8>
     716: 26 18        	rol	$18                     ; 0x18 <__rc8>
     718: 18           	clc
     719: a2 00        	ldx	#$0
     71b: 86 1a        	stx	$1a                     ; 0x1a <__rc10>
     71d: 65 16        	adc	$16                     ; 0x16 <__rc6>
     71f: aa           	tax
     720: a5 18        	lda	$18                     ; 0x18 <__rc8>
     722: 65 17        	adc	$17                     ; 0x17 <__rc7>
     724: 85 18        	sta	$18                     ; 0x18 <__rc8>
     726: 18           	clc
     727: 8a           	txa
     728: 69 4e        	adc	#$4e
     72a: a8           	tay
     72b: a5 18        	lda	$18                     ; 0x18 <__rc8>
     72d: 69 5f        	adc	#$5f
     72f: 85 19        	sta	$19                     ; 0x19 <__rc9>
     731: a9 00        	lda	#$0
     733: 69 03        	adc	#$3
     735: a6 19        	ldx	$19                     ; 0x19 <__rc9>
     737: 86 18        	stx	$18                     ; 0x18 <__rc8>
     739: 06 18        	asl	$18                     ; 0x18 <__rc8>
     73b: 85 1d        	sta	$1d                     ; 0x1d <__rc13>
     73d: 2a           	rol
     73e: 06 18        	asl	$18                     ; 0x18 <__rc8>
     740: 2a           	rol
     741: 06 18        	asl	$18                     ; 0x18 <__rc8>
     743: 2a           	rol
     744: a6 0f        	ldx	$f                      ; 0xf <__data_size+0xf>
     746: 78           	sei
     747: 85 0f        	sta	$f                      ; 0xf <__data_size+0xf>
     749: a5 19        	lda	$19                     ; 0x19 <__rc9>
     74b: 85 1c        	sta	$1c                     ; 0x1c <__rc12>
     74d: 09 e0        	ora	#$e0
     74f: 84 18        	sty	$18                     ; 0x18 <__rc8>
     751: 85 19        	sta	$19                     ; 0x19 <__rc9>
     753: b2 18        	lda	($18)                   ; 0x18 <__rc8>
     755: 86 0f        	stx	$f                      ; 0xf <__data_size+0xf>
     757: 58           	cli
     758: aa           	tax
     759: d0 03        	bne	$75e <readDirectory_far+0x163>
     75b: 4c ed 08     	jmp	$8ed <readDirectory_far+0x2f2>
     75e: 84 1b        	sty	$1b                     ; 0x1b <__zp_data_size>
     760: a0 00        	ldy	#$0
     762: a6 1a        	ldx	$1a                     ; 0x1a <__rc10>
     764: 86 1e        	stx	$1e                     ; 0x1e <__rc14>
     766: a6 1b        	ldx	$1b                     ; 0x1b <__zp_data_size>
     768: 86 1a        	stx	$1a                     ; 0x1a <__rc10>
     76a: a6 1c        	ldx	$1c                     ; 0x1c <__rc12>
     76c: 86 1b        	stx	$1b                     ; 0x1b <__zp_data_size>
     76e: a6 1d        	ldx	$1d                     ; 0x1d <__rc13>
     770: 86 1c        	stx	$1c                     ; 0x1c <__rc12>
     772: 84 18        	sty	$18                     ; 0x18 <__rc8>
     774: a5 1a        	lda	$1a                     ; 0x1a <__rc10>
     776: 5a           	phy
     777: a6 1e        	ldx	$1e                     ; 0x1e <__rc14>
     779: e0 01        	cpx	#$1
     77b: 65 18        	adc	$18                     ; 0x18 <__rc8>
     77d: 85 19        	sta	$19                     ; 0x19 <__rc9>
     77f: a5 1b        	lda	$1b                     ; 0x1b <__zp_data_size>
     781: 69 00        	adc	#$0
     783: 85 1d        	sta	$1d                     ; 0x1d <__rc13>
     785: a5 1c        	lda	$1c                     ; 0x1c <__rc12>
     787: 69 00        	adc	#$0
     789: a6 1d        	ldx	$1d                     ; 0x1d <__rc13>
     78b: 86 18        	stx	$18                     ; 0x18 <__rc8>
     78d: 06 18        	asl	$18                     ; 0x18 <__rc8>
     78f: 2a           	rol
     790: 06 18        	asl	$18                     ; 0x18 <__rc8>
     792: 2a           	rol
     793: 06 18        	asl	$18                     ; 0x18 <__rc8>
     795: 2a           	rol
     796: a6 0f        	ldx	$f                      ; 0xf <__data_size+0xf>
     798: 78           	sei
     799: 85 0f        	sta	$f                      ; 0xf <__data_size+0xf>
     79b: a5 1d        	lda	$1d                     ; 0x1d <__rc13>
     79d: 09 e0        	ora	#$e0
     79f: a4 19        	ldy	$19                     ; 0x19 <__rc9>
     7a1: 84 18        	sty	$18                     ; 0x18 <__rc8>
     7a3: 7a           	ply
     7a4: 85 19        	sta	$19                     ; 0x19 <__rc9>
     7a6: b2 18        	lda	($18)                   ; 0x18 <__rc8>
     7a8: 86 0f        	stx	$f                      ; 0xf <__data_size+0xf>
     7aa: 18           	clc
     7ab: 48           	pha
     7ac: a5 10        	lda	$10                     ; 0x10 <__rc0>
     7ae: 69 40        	adc	#$40
     7b0: 85 18        	sta	$18                     ; 0x18 <__rc8>
     7b2: a5 11        	lda	$11                     ; 0x11 <__rc1>
     7b4: 69 00        	adc	#$0
     7b6: 85 19        	sta	$19                     ; 0x19 <__rc9>
     7b8: 68           	pla
     7b9: 58           	cli
     7ba: 91 18        	sta	($18),y                 ; 0x18 <__rc8>
     7bc: c8           	iny
     7bd: c0 03        	cpy	#$3
     7bf: f0 03        	beq	$7c4 <readDirectory_far+0x1c9>
     7c1: 4c 72 07     	jmp	$772 <readDirectory_far+0x177>
     7c4: b8           	clv
     7c5: a0 03        	ldy	#$3
     7c7: a9 00        	lda	#$0
     7c9: 91 18        	sta	($18),y                 ; 0x18 <__rc8>
     7cb: 88           	dey
     7cc: a2 02        	ldx	#$2
     7ce: b1 12        	lda	($12),y                 ; 0x12 <__rc2>
     7d0: d0 03        	bne	$7d5 <readDirectory_far+0x1da>
     7d2: 4c ed 08     	jmp	$8ed <readDirectory_far+0x2f2>
     7d5: 86 1e        	stx	$1e                     ; 0x1e <__rc14>
     7d7: 85 22        	sta	$22                     ; 0x22 <__rc18>
     7d9: a0 00        	ldy	#$0
     7db: a2 00        	ldx	#$0
     7dd: a9 01        	lda	#$1
     7df: 70 02        	bvs	$7e3 <readDirectory_far+0x1e8>
     7e1: a9 00        	lda	#$0
     7e3: 85 1c        	sta	$1c                     ; 0x1c <__rc12>
     7e5: a9 03        	lda	#$3
     7e7: 85 1d        	sta	$1d                     ; 0x1d <__rc13>
     7e9: 86 1a        	stx	$1a                     ; 0x1a <__rc10>
     7eb: 98           	tya
     7ec: aa           	tax
     7ed: a4 1a        	ldy	$1a                     ; 0x1a <__rc10>
     7ef: e8           	inx
     7f0: d0 01        	bne	$7f3 <readDirectory_far+0x1f8>
     7f2: c8           	iny
     7f3: 48           	pha
     7f4: a5 1c        	lda	$1c                     ; 0x1c <__rc12>
     7f6: c9 01        	cmp	#$1
     7f8: 68           	pla
     7f9: 65 12        	adc	$12                     ; 0x12 <__rc2>
     7fb: 85 23        	sta	$23                     ; 0x23 <__rc19>
     7fd: a5 1a        	lda	$1a                     ; 0x1a <__rc10>
     7ff: 65 13        	adc	$13                     ; 0x13 <__rc3>
     801: 86 1f        	stx	$1f                     ; 0x1f <__rc15>
     803: a6 23        	ldx	$23                     ; 0x23 <__rc19>
     805: 86 1a        	stx	$1a                     ; 0x1a <__rc10>
     807: 5a           	phy
     808: fa           	plx
     809: 85 1b        	sta	$1b                     ; 0x1b <__zp_data_size>
     80b: a4 1d        	ldy	$1d                     ; 0x1d <__rc13>
     80d: b1 1a        	lda	($1a),y                 ; 0x1a <__rc10>
     80f: a4 1f        	ldy	$1f                     ; 0x1f <__rc15>
     811: c9 00        	cmp	#$0
     813: d0 d4        	bne	$7e9 <readDirectory_far+0x1ee>
     815: a9 00        	lda	#$0
     817: 85 1f        	sta	$1f                     ; 0x1f <__rc15>
     819: 8a           	txa
     81a: d0 34        	bne	$850 <readDirectory_far+0x255>
     81c: c0 04        	cpy	#$4
     81e: b0 37        	bcs	$857 <readDirectory_far+0x25c>
     820: 4c ed 08     	jmp	$8ed <readDirectory_far+0x2f2>
     823: c0 03        	cpy	#$3
     825: d0 03        	bne	$82a <readDirectory_far+0x22f>
     827: 4c 1f 09     	jmp	$91f <readDirectory_far+0x324>
     82a: b1 1a        	lda	($1a),y                 ; 0x1a <__rc10>
     82c: c9 41        	cmp	#$41
     82e: 90 06        	bcc	$836 <readDirectory_far+0x23b>
     830: c9 5b        	cmp	#$5b
     832: b0 02        	bcs	$836 <readDirectory_far+0x23b>
     834: 09 20        	ora	#$20
     836: 85 1d        	sta	$1d                     ; 0x1d <__rc13>
     838: b1 18        	lda	($18),y                 ; 0x18 <__rc8>
     83a: c9 41        	cmp	#$41
     83c: 90 06        	bcc	$844 <readDirectory_far+0x249>
     83e: c9 5b        	cmp	#$5b
     840: b0 02        	bcs	$844 <readDirectory_far+0x249>
     842: 09 20        	ora	#$20
     844: 85 1c        	sta	$1c                     ; 0x1c <__rc12>
     846: c8           	iny
     847: a6 1d        	ldx	$1d                     ; 0x1d <__rc13>
     849: e4 1c        	cpx	$1c                     ; 0x1c <__rc12>
     84b: f0 d6        	beq	$823 <readDirectory_far+0x228>
     84d: 4c ed 08     	jmp	$8ed <readDirectory_far+0x2f2>
     850: e0 00        	cpx	#$0
     852: b0 03        	bcs	$857 <readDirectory_far+0x25c>
     854: 4c ed 08     	jmp	$8ed <readDirectory_far+0x2f2>
     857: a2 00        	ldx	#$0
     859: 86 1c        	stx	$1c                     ; 0x1c <__rc12>
     85b: a2 00        	ldx	#$0
     85d: 86 1d        	stx	$1d                     ; 0x1d <__rc13>
     85f: a5 22        	lda	$22                     ; 0x22 <__rc18>
     861: a6 14        	ldx	$14                     ; 0x14 <__rc4>
     863: 86 1a        	stx	$1a                     ; 0x1a <__rc10>
     865: a6 15        	ldx	$15                     ; 0x15 <__rc5>
     867: 86 1b        	stx	$1b                     ; 0x1b <__zp_data_size>
     869: a4 29        	ldy	$29                     ; 0x29 <__rc25>
     86b: c9 2e        	cmp	#$2e
     86d: d0 08        	bne	$877 <readDirectory_far+0x27c>
     86f: a6 1a        	ldx	$1a                     ; 0x1a <__rc10>
     871: 86 1c        	stx	$1c                     ; 0x1c <__rc12>
     873: a6 1b        	ldx	$1b                     ; 0x1b <__zp_data_size>
     875: 86 1d        	stx	$1d                     ; 0x1d <__rc13>
     877: b1 1a        	lda	($1a),y                 ; 0x1a <__rc10>
     879: e6 1a        	inc	$1a                     ; 0x1a <__rc10>
     87b: d0 02        	bne	$87f <readDirectory_far+0x284>
     87d: e6 1b        	inc	$1b                     ; 0x1b <__zp_data_size>
     87f: aa           	tax
     880: d0 e9        	bne	$86b <readDirectory_far+0x270>
     882: a2 01        	ldx	#$1
     884: 86 29        	stx	$29                     ; 0x29 <__rc25>
     886: ca           	dex
     887: 86 1a        	stx	$1a                     ; 0x1a <__rc10>
     889: a2 00        	ldx	#$0
     88b: 86 1b        	stx	$1b                     ; 0x1b <__zp_data_size>
     88d: a6 1d        	ldx	$1d                     ; 0x1d <__rc13>
     88f: e4 1b        	cpx	$1b                     ; 0x1b <__zp_data_size>
     891: d0 09        	bne	$89c <readDirectory_far+0x2a1>
     893: a6 1c        	ldx	$1c                     ; 0x1c <__rc12>
     895: e4 1a        	cpx	$1a                     ; 0x1a <__rc10>
     897: d0 03        	bne	$89c <readDirectory_far+0x2a1>
     899: 4c ed 08     	jmp	$8ed <readDirectory_far+0x2f2>
     89c: a6 1c        	ldx	$1c                     ; 0x1c <__rc12>
     89e: 86 1a        	stx	$1a                     ; 0x1a <__rc10>
     8a0: a6 1d        	ldx	$1d                     ; 0x1d <__rc13>
     8a2: 86 1b        	stx	$1b                     ; 0x1b <__zp_data_size>
     8a4: e6 1a        	inc	$1a                     ; 0x1a <__rc10>
     8a6: d0 02        	bne	$8aa <readDirectory_far+0x2af>
     8a8: e6 1b        	inc	$1b                     ; 0x1b <__zp_data_size>
     8aa: a0 01        	ldy	#$1
     8ac: a2 01        	ldx	#$1
     8ae: 86 29        	stx	$29                     ; 0x29 <__rc25>
     8b0: b1 1c        	lda	($1c),y                 ; 0x1c <__rc12>
     8b2: f0 39        	beq	$8ed <readDirectory_far+0x2f2>
     8b4: a0 00        	ldy	#$0
     8b6: a2 00        	ldx	#$0
     8b8: a5 1e        	lda	$1e                     ; 0x1e <__rc14>
     8ba: 85 23        	sta	$23                     ; 0x23 <__rc19>
     8bc: a5 1f        	lda	$1f                     ; 0x1f <__rc15>
     8be: 85 28        	sta	$28                     ; 0x28 <__rc24>
     8c0: 98           	tya
     8c1: 5a           	phy
     8c2: a4 28        	ldy	$28                     ; 0x28 <__rc24>
     8c4: c0 01        	cpy	#$1
     8c6: 7a           	ply
     8c7: 65 1c        	adc	$1c                     ; 0x1c <__rc12>
     8c9: 85 2b        	sta	$2b                     ; 0x2b <__rc27>
     8cb: 8a           	txa
     8cc: 65 1d        	adc	$1d                     ; 0x1d <__rc13>
     8ce: c8           	iny
     8cf: d0 01        	bne	$8d2 <readDirectory_far+0x2d7>
     8d1: e8           	inx
     8d2: 48           	pha
     8d3: a5 2b        	lda	$2b                     ; 0x2b <__rc27>
     8d5: 85 1e        	sta	$1e                     ; 0x1e <__rc14>
     8d7: 68           	pla
     8d8: 84 2b        	sty	$2b                     ; 0x2b <__rc27>
     8da: 85 1f        	sta	$1f                     ; 0x1f <__rc15>
     8dc: a4 23        	ldy	$23                     ; 0x23 <__rc19>
     8de: b1 1e        	lda	($1e),y                 ; 0x1e <__rc14>
     8e0: a4 2b        	ldy	$2b                     ; 0x2b <__rc27>
     8e2: c9 00        	cmp	#$0
     8e4: d0 da        	bne	$8c0 <readDirectory_far+0x2c5>
     8e6: 8a           	txa
     8e7: d0 04        	bne	$8ed <readDirectory_far+0x2f2>
     8e9: c0 03        	cpy	#$3
     8eb: f0 2d        	beq	$91a <readDirectory_far+0x31f>
     8ed: a6 17        	ldx	$17                     ; 0x17 <__rc7>
     8ef: a4 16        	ldy	$16                     ; 0x16 <__rc6>
     8f1: c8           	iny
     8f2: d0 01        	bne	$8f5 <readDirectory_far+0x2fa>
     8f4: e8           	inx
     8f5: 84 16        	sty	$16                     ; 0x16 <__rc6>
     8f7: 86 17        	stx	$17                     ; 0x17 <__rc7>
     8f9: 8a           	txa
     8fa: f0 03        	beq	$8ff <readDirectory_far+0x304>
     8fc: 4c 0f 07     	jmp	$70f <readDirectory_far+0x114>
     8ff: 84 16        	sty	$16                     ; 0x16 <__rc6>
     901: 86 17        	stx	$17                     ; 0x17 <__rc7>
     903: c0 04        	cpy	#$4
     905: f0 03        	beq	$90a <readDirectory_far+0x30f>
     907: 4c 0f 07     	jmp	$70f <readDirectory_far+0x114>
     90a: a0 01        	ldy	#$1
     90c: a2 01        	ldx	#$1
     90e: 86 29        	stx	$29                     ; 0x29 <__rc25>
     910: b1 12        	lda	($12),y                 ; 0x12 <__rc2>
     912: a6 27        	ldx	$27                     ; 0x27 <__rc23>
     914: a8           	tay
     915: d0 0c        	bne	$923 <readDirectory_far+0x328>
     917: 4c 4f 0a     	jmp	$a4f <readDirectory_far+0x454>
     91a: a0 00        	ldy	#$0
     91c: 4c 23 08     	jmp	$823 <readDirectory_far+0x228>
     91f: a6 27        	ldx	$27                     ; 0x27 <__rc23>
     921: 80 06        	bra	$929 <readDirectory_far+0x32e>
     923: a0 02        	ldy	#$2
     925: b1 12        	lda	($12),y                 ; 0x12 <__rc2>
     927: 85 22        	sta	$22                     ; 0x22 <__rc18>
     929: a5 26        	lda	$26                     ; 0x26 <__rc22>
     92b: 0a           	asl
     92c: 86 14        	stx	$14                     ; 0x14 <__rc4>
     92e: 26 14        	rol	$14                     ; 0x14 <__rc4>
     930: 0a           	asl
     931: 26 14        	rol	$14                     ; 0x14 <__rc4>
     933: 0a           	asl
     934: 85 15        	sta	$15                     ; 0x15 <__rc5>
     936: 26 14        	rol	$14                     ; 0x14 <__rc4>
     938: 0a           	asl
     939: a6 14        	ldx	$14                     ; 0x14 <__rc4>
     93b: 86 16        	stx	$16                     ; 0x16 <__rc6>
     93d: 26 16        	rol	$16                     ; 0x16 <__rc6>
     93f: 0a           	asl
     940: 26 16        	rol	$16                     ; 0x16 <__rc6>
     942: 0a           	asl
     943: 26 16        	rol	$16                     ; 0x16 <__rc6>
     945: 0a           	asl
     946: 26 16        	rol	$16                     ; 0x16 <__rc6>
     948: 38           	sec
     949: e5 15        	sbc	$15                     ; 0x15 <__rc5>
     94b: a8           	tay
     94c: a5 16        	lda	$16                     ; 0x16 <__rc6>
     94e: e5 14        	sbc	$14                     ; 0x14 <__rc4>
     950: aa           	tax
     951: 18           	clc
     952: 84 16        	sty	$16                     ; 0x16 <__rc6>
     954: 98           	tya
     955: 69 b6        	adc	#$b6
     957: a8           	tay
     958: 86 17        	stx	$17                     ; 0x17 <__rc7>
     95a: 8a           	txa
     95b: 69 00        	adc	#$0
     95d: 85 15        	sta	$15                     ; 0x15 <__rc5>
     95f: a9 00        	lda	#$0
     961: 69 03        	adc	#$3
     963: a6 15        	ldx	$15                     ; 0x15 <__rc5>
     965: 86 14        	stx	$14                     ; 0x14 <__rc4>
     967: 06 14        	asl	$14                     ; 0x14 <__rc4>
     969: 85 1a        	sta	$1a                     ; 0x1a <__rc10>
     96b: 2a           	rol
     96c: 06 14        	asl	$14                     ; 0x14 <__rc4>
     96e: 2a           	rol
     96f: 06 14        	asl	$14                     ; 0x14 <__rc4>
     971: 2a           	rol
     972: a6 0f        	ldx	$f                      ; 0xf <__data_size+0xf>
     974: 78           	sei
     975: 85 0f        	sta	$f                      ; 0xf <__data_size+0xf>
     977: a5 15        	lda	$15                     ; 0x15 <__rc5>
     979: 85 19        	sta	$19                     ; 0x19 <__rc9>
     97b: 09 e0        	ora	#$e0
     97d: 84 18        	sty	$18                     ; 0x18 <__rc8>
     97f: 84 14        	sty	$14                     ; 0x14 <__rc4>
     981: 85 15        	sta	$15                     ; 0x15 <__rc5>
     983: a5 22        	lda	$22                     ; 0x22 <__rc18>
     985: 92 14        	sta	($14)                   ; 0x14 <__rc4>
     987: 86 0f        	stx	$f                      ; 0xf <__data_size+0xf>
     989: a0 03        	ldy	#$3
     98b: 58           	cli
     98c: 80 43        	bra	$9d1 <readDirectory_far+0x3d6>
     98e: 98           	tya
     98f: 18           	clc
     990: 69 fe        	adc	#$fe
     992: 85 14        	sta	$14                     ; 0x14 <__rc4>
     994: b1 12        	lda	($12),y                 ; 0x12 <__rc2>
     996: 85 15        	sta	$15                     ; 0x15 <__rc5>
     998: a5 18        	lda	$18                     ; 0x18 <__rc8>
     99a: 18           	clc
     99b: 65 14        	adc	$14                     ; 0x14 <__rc4>
     99d: 85 1b        	sta	$1b                     ; 0x1b <__zp_data_size>
     99f: a5 19        	lda	$19                     ; 0x19 <__rc9>
     9a1: 69 00        	adc	#$0
     9a3: 85 1c        	sta	$1c                     ; 0x1c <__rc12>
     9a5: a5 1a        	lda	$1a                     ; 0x1a <__rc10>
     9a7: 69 00        	adc	#$0
     9a9: a6 1c        	ldx	$1c                     ; 0x1c <__rc12>
     9ab: 86 14        	stx	$14                     ; 0x14 <__rc4>
     9ad: 06 14        	asl	$14                     ; 0x14 <__rc4>
     9af: 2a           	rol
     9b0: 06 14        	asl	$14                     ; 0x14 <__rc4>
     9b2: 2a           	rol
     9b3: 06 14        	asl	$14                     ; 0x14 <__rc4>
     9b5: 2a           	rol
     9b6: a6 0f        	ldx	$f                      ; 0xf <__data_size+0xf>
     9b8: 78           	sei
     9b9: 85 0f        	sta	$f                      ; 0xf <__data_size+0xf>
     9bb: a5 15        	lda	$15                     ; 0x15 <__rc5>
     9bd: 85 1d        	sta	$1d                     ; 0x1d <__rc13>
     9bf: a5 1b        	lda	$1b                     ; 0x1b <__zp_data_size>
     9c1: 85 14        	sta	$14                     ; 0x14 <__rc4>
     9c3: a5 1c        	lda	$1c                     ; 0x1c <__rc12>
     9c5: 09 e0        	ora	#$e0
     9c7: 85 15        	sta	$15                     ; 0x15 <__rc5>
     9c9: a5 1d        	lda	$1d                     ; 0x1d <__rc13>
     9cb: 92 14        	sta	($14)                   ; 0x14 <__rc4>
     9cd: 86 0f        	stx	$f                      ; 0xf <__data_size+0xf>
     9cf: 58           	cli
     9d0: c8           	iny
     9d1: aa           	tax
     9d2: f0 04        	beq	$9d8 <readDirectory_far+0x3dd>
     9d4: c0 79        	cpy	#$79
     9d6: d0 b6        	bne	$98e <readDirectory_far+0x393>
     9d8: 18           	clc
     9d9: a5 16        	lda	$16                     ; 0x16 <__rc6>
     9db: 69 2d        	adc	#$2d
     9dd: 85 15        	sta	$15                     ; 0x15 <__rc5>
     9df: a5 17        	lda	$17                     ; 0x17 <__rc7>
     9e1: 69 01        	adc	#$1
     9e3: 85 16        	sta	$16                     ; 0x16 <__rc6>
     9e5: a9 00        	lda	#$0
     9e7: 69 03        	adc	#$3
     9e9: a6 0f        	ldx	$f                      ; 0xf <__data_size+0xf>
     9eb: 78           	sei
     9ec: a4 16        	ldy	$16                     ; 0x16 <__rc6>
     9ee: 84 14        	sty	$14                     ; 0x14 <__rc4>
     9f0: 06 14        	asl	$14                     ; 0x14 <__rc4>
     9f2: 2a           	rol
     9f3: 06 14        	asl	$14                     ; 0x14 <__rc4>
     9f5: 2a           	rol
     9f6: 06 14        	asl	$14                     ; 0x14 <__rc4>
     9f8: 2a           	rol
     9f9: a0 01        	ldy	#$1
     9fb: 85 0f        	sta	$f                      ; 0xf <__data_size+0xf>
     9fd: a5 16        	lda	$16                     ; 0x16 <__rc6>
     9ff: 09 e0        	ora	#$e0
     a01: 5a           	phy
     a02: a4 15        	ldy	$15                     ; 0x15 <__rc5>
     a04: 84 14        	sty	$14                     ; 0x14 <__rc4>
     a06: 7a           	ply
     a07: 85 15        	sta	$15                     ; 0x15 <__rc5>
     a09: a9 00        	lda	#$0
     a0b: 92 14        	sta	($14)                   ; 0x14 <__rc4>
     a0d: 86 0f        	stx	$f                      ; 0xf <__data_size+0xf>
     a0f: 58           	cli
     a10: a5 26        	lda	$26                     ; 0x26 <__rc22>
     a12: 18           	clc
     a13: 69 76        	adc	#$76
     a15: aa           	tax
     a16: a5 27        	lda	$27                     ; 0x27 <__rc23>
     a18: 69 1e        	adc	#$1e
     a1a: 85 15        	sta	$15                     ; 0x15 <__rc5>
     a1c: b1 12        	lda	($12),y                 ; 0x12 <__rc2>
     a1e: 84 14        	sty	$14                     ; 0x14 <__rc4>
     a20: c9 01        	cmp	#$1
     a22: f0 02        	beq	$a26 <readDirectory_far+0x42b>
     a24: 64 14        	stz	$14                     ; 0x14 <__rc4>
     a26: 86 12        	stx	$12                     ; 0x12 <__rc2>
     a28: a5 15        	lda	$15                     ; 0x15 <__rc5>
     a2a: 09 e0        	ora	#$e0
     a2c: 85 13        	sta	$13                     ; 0x13 <__rc3>
     a2e: a6 0f        	ldx	$f                      ; 0xf <__data_size+0xf>
     a30: 78           	sei
     a31: a0 1a        	ldy	#$1a
     a33: 84 0f        	sty	$f                      ; 0xf <__data_size+0xf>
     a35: a5 14        	lda	$14                     ; 0x14 <__rc4>
     a37: 92 12        	sta	($12)                   ; 0x12 <__rc2>
     a39: 86 0f        	stx	$f                      ; 0xf <__data_size+0xf>
     a3b: 58           	cli
     a3c: a6 27        	ldx	$27                     ; 0x27 <__rc23>
     a3e: e6 26        	inc	$26                     ; 0x26 <__rc22>
     a40: d0 01        	bne	$a43 <readDirectory_far+0x448>
     a42: e8           	inx
     a43: e0 00        	cpx	#$0
     a45: a0 01        	ldy	#$1
     a47: b0 02        	bcs	$a4b <readDirectory_far+0x450>
     a49: a0 00        	ldy	#$0
     a4b: 84 2a        	sty	$2a                     ; 0x2a <__rc26>
     a4d: 86 27        	stx	$27                     ; 0x27 <__rc23>
     a4f: 8a           	txa
     a50: f0 03        	beq	$a55 <readDirectory_far+0x45a>
     a52: 4c a2 06     	jmp	$6a2 <readDirectory_far+0xa7>
     a55: a6 26        	ldx	$26                     ; 0x26 <__rc22>
     a57: e0 c8        	cpx	#$c8
     a59: b0 03        	bcs	$a5e <readDirectory_far+0x463>
     a5b: 4c a9 06     	jmp	$6a9 <readDirectory_far+0xae>
     a5e: a2 03        	ldx	#$3
     a60: 86 28        	stx	$28                     ; 0x28 <__rc24>
     a62: a2 00        	ldx	#$0
     a64: 4c af 06     	jmp	$6af <readDirectory_far+0xb4>
     a67: a6 0f        	ldx	$f                      ; 0xf <__data_size+0xf>
     a69: 78           	sei
     a6a: a5 27        	lda	$27                     ; 0x27 <__rc23>
     a6c: a0 1a        	ldy	#$1a
     a6e: 84 0f        	sty	$f                      ; 0xf <__data_size+0xf>
     a70: a4 26        	ldy	$26                     ; 0x26 <__rc22>
     a72: 8c 3e ff     	sty	$ff3e                   ; 0xff3e <__heap_start+0x7026>
     a75: 8d 3f ff     	sta	$ff3f                   ; 0xff3f <__heap_start+0x7027>
     a78: 86 0f        	stx	$f                      ; 0xf <__data_size+0xf>
     a7a: 58           	cli
     a7b: a4 0f        	ldy	$f                      ; 0xf <__data_size+0xf>
     a7d: 78           	sei
     a7e: a9 18        	lda	#$18
     a80: 85 0f        	sta	$f                      ; 0xf <__data_size+0xf>
     a82: a2 2e        	ldx	#$2e
     a84: 8e b6 e0     	stx	$e0b6                   ; 0xe0b6 <__heap_start+0x519e>
     a87: 84 0f        	sty	$f                      ; 0xf <__data_size+0xf>
     a89: 58           	cli
     a8a: a4 0f        	ldy	$f                      ; 0xf <__data_size+0xf>
     a8c: 78           	sei
     a8d: 85 0f        	sta	$f                      ; 0xf <__data_size+0xf>
     a8f: 8e b7 e0     	stx	$e0b7                   ; 0xe0b7 <__heap_start+0x519f>
     a92: 84 0f        	sty	$f                      ; 0xf <__data_size+0xf>
     a94: 58           	cli
     a95: a6 0f        	ldx	$f                      ; 0xf <__data_size+0xf>
     a97: 78           	sei
     a98: 85 0f        	sta	$f                      ; 0xf <__data_size+0xf>
     a9a: 9c b8 e0     	stz	$e0b8                   ; 0xe0b8 <__heap_start+0x51a0>
     a9d: 86 0f        	stx	$f                      ; 0xf <__data_size+0xf>
     a9f: 58           	cli
     aa0: a0 75        	ldy	#$75
     aa2: a2 03        	ldx	#$3
     aa4: 8a           	txa
     aa5: 18           	clc
     aa6: 69 b6        	adc	#$b6
     aa8: 85 12        	sta	$12                     ; 0x12 <__rc2>
     aaa: a9 00        	lda	#$0
     aac: 69 00        	adc	#$0
     aae: 09 e0        	ora	#$e0
     ab0: 85 13        	sta	$13                     ; 0x13 <__rc3>
     ab2: a5 0f        	lda	$f                      ; 0xf <__data_size+0xf>
     ab4: 85 14        	sta	$14                     ; 0x14 <__rc4>
     ab6: 78           	sei
     ab7: a9 18        	lda	#$18
     ab9: 85 0f        	sta	$f                      ; 0xf <__data_size+0xf>
     abb: a9 00        	lda	#$0
     abd: 92 12        	sta	($12)                   ; 0x12 <__rc2>
     abf: a5 14        	lda	$14                     ; 0x14 <__rc4>
     ac1: 85 0f        	sta	$f                      ; 0xf <__data_size+0xf>
     ac3: 58           	cli
     ac4: 88           	dey
     ac5: e8           	inx
     ac6: 98           	tya
     ac7: d0 db        	bne	$aa4 <readDirectory_far+0x4a9>
     ac9: a6 24        	ldx	$24                     ; 0x24 <__rc20>
     acb: 86 12        	stx	$12                     ; 0x12 <__rc2>
     acd: a6 25        	ldx	$25                     ; 0x25 <__rc21>
     acf: 86 13        	stx	$13                     ; 0x13 <__rc3>
     ad1: 20 9f 6f     	jsr	$6f9f <fileCloseDir>
     ad4: a0 00        	ldy	#$0
     ad6: b1 10        	lda	($10),y                 ; 0x10 <__rc0>
     ad8: 85 2b        	sta	$2b                     ; 0x2b <__rc27>
     ada: c8           	iny
     adb: b1 10        	lda	($10),y                 ; 0x10 <__rc0>
     add: 85 2a        	sta	$2a                     ; 0x2a <__rc26>
     adf: c8           	iny
     ae0: b1 10        	lda	($10),y                 ; 0x10 <__rc0>
     ae2: 85 29        	sta	$29                     ; 0x29 <__rc25>
     ae4: c8           	iny
     ae5: b1 10        	lda	($10),y                 ; 0x10 <__rc0>
     ae7: 85 28        	sta	$28                     ; 0x28 <__rc24>
     ae9: fa           	plx
     aea: 86 27        	stx	$27                     ; 0x27 <__rc23>
     aec: fa           	plx
     aed: 86 26        	stx	$26                     ; 0x26 <__rc22>
     aef: fa           	plx
     af0: 86 25        	stx	$25                     ; 0x25 <__rc21>
     af2: fa           	plx
     af3: 86 24        	stx	$24                     ; 0x24 <__rc20>
     af5: 18           	clc
     af6: a5 10        	lda	$10                     ; 0x10 <__rc0>
     af8: 69 44        	adc	#$44
     afa: 85 10        	sta	$10                     ; 0x10 <__rc0>
     afc: a5 11        	lda	$11                     ; 0x11 <__rc1>
     afe: 69 00        	adc	#$0
     b00: 85 11        	sta	$11                     ; 0x11 <__rc1>
     b02: 60           	rts

00000b03 <sortFileList_far>:
     b03: 18           	clc
     b04: a5 10        	lda	$10                     ; 0x10 <__rc0>
     b06: 69 09        	adc	#$9
     b08: 85 10        	sta	$10                     ; 0x10 <__rc0>
     b0a: a5 11        	lda	$11                     ; 0x11 <__rc1>
     b0c: 69 ff        	adc	#$ff
     b0e: 85 11        	sta	$11                     ; 0x11 <__rc1>
     b10: a6 24        	ldx	$24                     ; 0x24 <__rc20>
     b12: da           	phx
     b13: a6 25        	ldx	$25                     ; 0x25 <__rc21>
     b15: da           	phx
     b16: a6 26        	ldx	$26                     ; 0x26 <__rc22>
     b18: da           	phx
     b19: a6 27        	ldx	$27                     ; 0x27 <__rc23>
     b1b: da           	phx
     b1c: a5 28        	lda	$28                     ; 0x28 <__rc24>
     b1e: a0 06        	ldy	#$6
     b20: 91 10        	sta	($10),y                 ; 0x10 <__rc0>
     b22: a5 29        	lda	$29                     ; 0x29 <__rc25>
     b24: 88           	dey
     b25: 91 10        	sta	($10),y                 ; 0x10 <__rc0>
     b27: a5 2a        	lda	$2a                     ; 0x2a <__rc26>
     b29: 88           	dey
     b2a: 91 10        	sta	($10),y                 ; 0x10 <__rc0>
     b2c: a5 2b        	lda	$2b                     ; 0x2b <__rc27>
     b2e: 88           	dey
     b2f: 91 10        	sta	($10),y                 ; 0x10 <__rc0>
     b31: a5 2c        	lda	$2c                     ; 0x2c <__rc28>
     b33: 88           	dey
     b34: 91 10        	sta	($10),y                 ; 0x10 <__rc0>
     b36: a5 2d        	lda	$2d                     ; 0x2d <__rc29>
     b38: 88           	dey
     b39: 91 10        	sta	($10),y                 ; 0x10 <__rc0>
     b3b: a5 2e        	lda	$2e                     ; 0x2e <__rc30>
     b3d: 88           	dey
     b3e: 91 10        	sta	($10),y                 ; 0x10 <__rc0>
     b40: a4 0f        	ldy	$f                      ; 0xf <__data_size+0xf>
     b42: 78           	sei
     b43: a9 18        	lda	#$18
     b45: 85 0f        	sta	$f                      ; 0xf <__data_size+0xf>
     b47: a2 2e        	ldx	#$2e
     b49: 8e b6 e0     	stx	$e0b6                   ; 0xe0b6 <__heap_start+0x519e>
     b4c: 84 0f        	sty	$f                      ; 0xf <__data_size+0xf>
     b4e: 58           	cli
     b4f: a4 0f        	ldy	$f                      ; 0xf <__data_size+0xf>
     b51: 78           	sei
     b52: 85 0f        	sta	$f                      ; 0xf <__data_size+0xf>
     b54: 8e b7 e0     	stx	$e0b7                   ; 0xe0b7 <__heap_start+0x519f>
     b57: 84 0f        	sty	$f                      ; 0xf <__data_size+0xf>
     b59: 58           	cli
     b5a: a6 0f        	ldx	$f                      ; 0xf <__data_size+0xf>
     b5c: 78           	sei
     b5d: 85 0f        	sta	$f                      ; 0xf <__data_size+0xf>
     b5f: 9c b8 e0     	stz	$e0b8                   ; 0xe0b8 <__heap_start+0x51a0>
     b62: 86 0f        	stx	$f                      ; 0xf <__data_size+0xf>
     b64: 58           	cli
     b65: a0 75        	ldy	#$75
     b67: a2 03        	ldx	#$3
     b69: 8a           	txa
     b6a: 18           	clc
     b6b: 69 b6        	adc	#$b6
     b6d: 85 12        	sta	$12                     ; 0x12 <__rc2>
     b6f: a9 00        	lda	#$0
     b71: 69 00        	adc	#$0
     b73: 09 e0        	ora	#$e0
     b75: 85 13        	sta	$13                     ; 0x13 <__rc3>
     b77: a5 0f        	lda	$f                      ; 0xf <__data_size+0xf>
     b79: 85 14        	sta	$14                     ; 0x14 <__rc4>
     b7b: 78           	sei
     b7c: a9 18        	lda	#$18
     b7e: 85 0f        	sta	$f                      ; 0xf <__data_size+0xf>
     b80: a9 00        	lda	#$0
     b82: 92 12        	sta	($12)                   ; 0x12 <__rc2>
     b84: a5 14        	lda	$14                     ; 0x14 <__rc4>
     b86: 85 0f        	sta	$f                      ; 0xf <__data_size+0xf>
     b88: 58           	cli
     b89: 88           	dey
     b8a: e8           	inx
     b8b: 98           	tya
     b8c: d0 db        	bne	$b69 <sortFileList_far+0x66>
     b8e: a4 0f        	ldy	$f                      ; 0xf <__data_size+0xf>
     b90: 78           	sei
     b91: a2 1a        	ldx	#$1a
     b93: 86 0f        	stx	$f                      ; 0xf <__data_size+0xf>
     b95: a9 01        	lda	#$1
     b97: 8d 76 fe     	sta	$fe76                   ; 0xfe76 <__heap_start+0x6f5e>
     b9a: 84 0f        	sty	$f                      ; 0xf <__data_size+0xf>
     b9c: 58           	cli
     b9d: a5 0f        	lda	$f                      ; 0xf <__data_size+0xf>
     b9f: 78           	sei
     ba0: 86 0f        	stx	$f                      ; 0xf <__data_size+0xf>
     ba2: ae 3e ff     	ldx	$ff3e                   ; 0xff3e <__heap_start+0x7026>
     ba5: 86 12        	stx	$12                     ; 0x12 <__rc2>
     ba7: ac 3f ff     	ldy	$ff3f                   ; 0xff3f <__heap_start+0x7027>
     baa: 84 13        	sty	$13                     ; 0x13 <__rc3>
     bac: 85 0f        	sta	$f                      ; 0xf <__data_size+0xf>
     bae: 58           	cli
     baf: 98           	tya
     bb0: d0 07        	bne	$bb9 <sortFileList_far+0xb6>
     bb2: e0 03        	cpx	#$3
     bb4: b0 0a        	bcs	$bc0 <sortFileList_far+0xbd>
     bb6: 4c 7c 10     	jmp	$107c <sortFileList_far+0x579>
     bb9: c0 00        	cpy	#$0
     bbb: b0 03        	bcs	$bc0 <sortFileList_far+0xbd>
     bbd: 4c 7c 10     	jmp	$107c <sortFileList_far+0x579>
     bc0: a2 02        	ldx	#$2
     bc2: a0 00        	ldy	#$0
     bc4: 18           	clc
     bc5: 86 23        	stx	$23                     ; 0x23 <__rc19>
     bc7: 8a           	txa
     bc8: 69 76        	adc	#$76
     bca: 85 15        	sta	$15                     ; 0x15 <__rc5>
     bcc: 98           	tya
     bcd: 69 5e        	adc	#$5e
     bcf: 85 16        	sta	$16                     ; 0x16 <__rc6>
     bd1: a9 00        	lda	#$0
     bd3: 69 03        	adc	#$3
     bd5: 5a           	phy
     bd6: a6 16        	ldx	$16                     ; 0x16 <__rc6>
     bd8: 86 14        	stx	$14                     ; 0x14 <__rc4>
     bda: 06 14        	asl	$14                     ; 0x14 <__rc4>
     bdc: 2a           	rol
     bdd: 06 14        	asl	$14                     ; 0x14 <__rc4>
     bdf: 2a           	rol
     be0: 06 14        	asl	$14                     ; 0x14 <__rc4>
     be2: 2a           	rol
     be3: a6 0f        	ldx	$f                      ; 0xf <__data_size+0xf>
     be5: 78           	sei
     be6: 85 0f        	sta	$f                      ; 0xf <__data_size+0xf>
     be8: a5 16        	lda	$16                     ; 0x16 <__rc6>
     bea: 09 e0        	ora	#$e0
     bec: a4 15        	ldy	$15                     ; 0x15 <__rc5>
     bee: 84 14        	sty	$14                     ; 0x14 <__rc4>
     bf0: 7a           	ply
     bf1: 85 15        	sta	$15                     ; 0x15 <__rc5>
     bf3: b2 14        	lda	($14)                   ; 0x14 <__rc4>
     bf5: 86 0f        	stx	$f                      ; 0xf <__data_size+0xf>
     bf7: 58           	cli
     bf8: a2 00        	ldx	#$0
     bfa: 85 28        	sta	$28                     ; 0x28 <__rc24>
     bfc: c9 00        	cmp	#$0
     bfe: f0 02        	beq	$c02 <sortFileList_far+0xff>
     c00: a2 01        	ldx	#$1
     c02: 86 25        	stx	$25                     ; 0x25 <__rc21>
     c04: a5 23        	lda	$23                     ; 0x23 <__rc19>
     c06: 0a           	asl
     c07: 84 24        	sty	$24                     ; 0x24 <__rc20>
     c09: 84 14        	sty	$14                     ; 0x14 <__rc4>
     c0b: 26 14        	rol	$14                     ; 0x14 <__rc4>
     c0d: 0a           	asl
     c0e: 26 14        	rol	$14                     ; 0x14 <__rc4>
     c10: 0a           	asl
     c11: 85 15        	sta	$15                     ; 0x15 <__rc5>
     c13: 26 14        	rol	$14                     ; 0x14 <__rc4>
     c15: 0a           	asl
     c16: aa           	tax
     c17: a5 14        	lda	$14                     ; 0x14 <__rc4>
     c19: 2a           	rol
     c1a: 86 16        	stx	$16                     ; 0x16 <__rc6>
     c1c: 06 16        	asl	$16                     ; 0x16 <__rc6>
     c1e: 2a           	rol
     c1f: 06 16        	asl	$16                     ; 0x16 <__rc6>
     c21: 2a           	rol
     c22: 06 16        	asl	$16                     ; 0x16 <__rc6>
     c24: 2a           	rol
     c25: aa           	tax
     c26: 38           	sec
     c27: a5 16        	lda	$16                     ; 0x16 <__rc6>
     c29: e5 15        	sbc	$15                     ; 0x15 <__rc5>
     c2b: 85 16        	sta	$16                     ; 0x16 <__rc6>
     c2d: 8a           	txa
     c2e: e5 14        	sbc	$14                     ; 0x14 <__rc4>
     c30: 85 17        	sta	$17                     ; 0x17 <__rc7>
     c32: a0 00        	ldy	#$0
     c34: 84 14        	sty	$14                     ; 0x14 <__rc4>
     c36: a5 16        	lda	$16                     ; 0x16 <__rc6>
     c38: 18           	clc
     c39: 65 14        	adc	$14                     ; 0x14 <__rc4>
     c3b: 85 14        	sta	$14                     ; 0x14 <__rc4>
     c3d: a5 17        	lda	$17                     ; 0x17 <__rc7>
     c3f: 69 00        	adc	#$0
     c41: 85 18        	sta	$18                     ; 0x18 <__rc8>
     c43: a9 00        	lda	#$0
     c45: 69 00        	adc	#$0
     c47: aa           	tax
     c48: 18           	clc
     c49: a5 14        	lda	$14                     ; 0x14 <__rc4>
     c4b: 69 b6        	adc	#$b6
     c4d: 85 15        	sta	$15                     ; 0x15 <__rc5>
     c4f: a5 18        	lda	$18                     ; 0x18 <__rc8>
     c51: 69 00        	adc	#$0
     c53: 85 14        	sta	$14                     ; 0x14 <__rc4>
     c55: 8a           	txa
     c56: 69 03        	adc	#$3
     c58: 85 18        	sta	$18                     ; 0x18 <__rc8>
     c5a: a5 14        	lda	$14                     ; 0x14 <__rc4>
     c5c: 06 14        	asl	$14                     ; 0x14 <__rc4>
     c5e: 26 18        	rol	$18                     ; 0x18 <__rc8>
     c60: 06 14        	asl	$14                     ; 0x14 <__rc4>
     c62: 26 18        	rol	$18                     ; 0x18 <__rc8>
     c64: 06 14        	asl	$14                     ; 0x14 <__rc4>
     c66: 26 18        	rol	$18                     ; 0x18 <__rc8>
     c68: a6 18        	ldx	$18                     ; 0x18 <__rc8>
     c6a: 86 14        	stx	$14                     ; 0x14 <__rc4>
     c6c: a6 0f        	ldx	$f                      ; 0xf <__data_size+0xf>
     c6e: 86 18        	stx	$18                     ; 0x18 <__rc8>
     c70: 78           	sei
     c71: a6 14        	ldx	$14                     ; 0x14 <__rc4>
     c73: 86 0f        	stx	$f                      ; 0xf <__data_size+0xf>
     c75: 09 e0        	ora	#$e0
     c77: a6 15        	ldx	$15                     ; 0x15 <__rc5>
     c79: 86 14        	stx	$14                     ; 0x14 <__rc4>
     c7b: 85 15        	sta	$15                     ; 0x15 <__rc5>
     c7d: b2 14        	lda	($14)                   ; 0x14 <__rc4>
     c7f: a6 18        	ldx	$18                     ; 0x18 <__rc8>
     c81: 86 0f        	stx	$f                      ; 0xf <__data_size+0xf>
     c83: 18           	clc
     c84: 48           	pha
     c85: a5 10        	lda	$10                     ; 0x10 <__rc0>
     c87: 69 7f        	adc	#$7f
     c89: 85 14        	sta	$14                     ; 0x14 <__rc4>
     c8b: a5 11        	lda	$11                     ; 0x11 <__rc1>
     c8d: 69 00        	adc	#$0
     c8f: 85 15        	sta	$15                     ; 0x15 <__rc5>
     c91: 68           	pla
     c92: 58           	cli
     c93: 91 14        	sta	($14),y                 ; 0x14 <__rc4>
     c95: aa           	tax
     c96: f0 08        	beq	$ca0 <sortFileList_far+0x19d>
     c98: c8           	iny
     c99: c0 78        	cpy	#$78
     c9b: f0 03        	beq	$ca0 <sortFileList_far+0x19d>
     c9d: 4c 34 0c     	jmp	$c34 <sortFileList_far+0x131>
     ca0: a4 23        	ldy	$23                     ; 0x23 <__rc19>
     ca2: a5 24        	lda	$24                     ; 0x24 <__rc20>
     ca4: 85 16        	sta	$16                     ; 0x16 <__rc6>
     ca6: 84 27        	sty	$27                     ; 0x27 <__rc23>
     ca8: 84 17        	sty	$17                     ; 0x17 <__rc7>
     caa: 4c e1 0d     	jmp	$de1 <sortFileList_far+0x2de>
     cad: 38           	sec
     cae: e5 19        	sbc	$19                     ; 0x19 <__rc9>
     cb0: a8           	tay
     cb1: a5 1a        	lda	$1a                     ; 0x1a <__rc10>
     cb3: e5 18        	sbc	$18                     ; 0x18 <__rc8>
     cb5: aa           	tax
     cb6: 84 2a        	sty	$2a                     ; 0x2a <__rc26>
     cb8: 98           	tya
     cb9: 18           	clc
     cba: 69 b6        	adc	#$b6
     cbc: 85 2c        	sta	$2c                     ; 0x2c <__rc28>
     cbe: 8a           	txa
     cbf: 86 2b        	stx	$2b                     ; 0x2b <__rc27>
     cc1: 69 00        	adc	#$0
     cc3: 85 2d        	sta	$2d                     ; 0x2d <__rc29>
     cc5: a9 00        	lda	#$0
     cc7: 69 03        	adc	#$3
     cc9: 85 2e        	sta	$2e                     ; 0x2e <__rc30>
     ccb: 64 18        	stz	$18                     ; 0x18 <__rc8>
     ccd: 80 27        	bra	$cf6 <sortFileList_far+0x1f3>
     ccf: a5 19        	lda	$19                     ; 0x19 <__rc9>
     cd1: c9 41        	cmp	#$41
     cd3: 90 06        	bcc	$cdb <sortFileList_far+0x1d8>
     cd5: c9 5b        	cmp	#$5b
     cd7: b0 02        	bcs	$cdb <sortFileList_far+0x1d8>
     cd9: 09 20        	ora	#$20
     cdb: 85 18        	sta	$18                     ; 0x18 <__rc8>
     cdd: b2 1a        	lda	($1a)                   ; 0x1a <__rc10>
     cdf: c9 41        	cmp	#$41
     ce1: 90 06        	bcc	$ce9 <sortFileList_far+0x1e6>
     ce3: c9 5b        	cmp	#$5b
     ce5: b0 02        	bcs	$ce9 <sortFileList_far+0x1e6>
     ce7: 09 20        	ora	#$20
     ce9: a6 18        	ldx	$18                     ; 0x18 <__rc8>
     ceb: 86 19        	stx	$19                     ; 0x19 <__rc9>
     ced: 64 18        	stz	$18                     ; 0x18 <__rc8>
     cef: c5 19        	cmp	$19                     ; 0x19 <__rc9>
     cf1: 90 03        	bcc	$cf6 <sortFileList_far+0x1f3>
     cf3: 4c 56 0f     	jmp	$f56 <sortFileList_far+0x453>
     cf6: 64 19        	stz	$19                     ; 0x19 <__rc9>
     cf8: a5 2a        	lda	$2a                     ; 0x2a <__rc26>
     cfa: a2 00        	ldx	#$0
     cfc: 86 1b        	stx	$1b                     ; 0x1b <__zp_data_size>
     cfe: 18           	clc
     cff: 65 19        	adc	$19                     ; 0x19 <__rc9>
     d01: a8           	tay
     d02: a5 2b        	lda	$2b                     ; 0x2b <__rc27>
     d04: 69 00        	adc	#$0
     d06: aa           	tax
     d07: a9 00        	lda	#$0
     d09: 69 00        	adc	#$0
     d0b: 85 1a        	sta	$1a                     ; 0x1a <__rc10>
     d0d: 18           	clc
     d0e: 98           	tya
     d0f: 69 2e        	adc	#$2e
     d11: 85 1e        	sta	$1e                     ; 0x1e <__rc14>
     d13: 8a           	txa
     d14: 69 01        	adc	#$1
     d16: a8           	tay
     d17: a5 1a        	lda	$1a                     ; 0x1a <__rc10>
     d19: 69 03        	adc	#$3
     d1b: 85 1d        	sta	$1d                     ; 0x1d <__rc13>
     d1d: a5 2c        	lda	$2c                     ; 0x2c <__rc28>
     d1f: a6 1b        	ldx	$1b                     ; 0x1b <__zp_data_size>
     d21: e0 01        	cpx	#$1
     d23: 65 19        	adc	$19                     ; 0x19 <__rc9>
     d25: 85 1c        	sta	$1c                     ; 0x1c <__rc12>
     d27: a5 2d        	lda	$2d                     ; 0x2d <__rc29>
     d29: 69 00        	adc	#$0
     d2b: 85 1b        	sta	$1b                     ; 0x1b <__zp_data_size>
     d2d: a5 2e        	lda	$2e                     ; 0x2e <__rc30>
     d2f: 69 00        	adc	#$0
     d31: a6 1b        	ldx	$1b                     ; 0x1b <__zp_data_size>
     d33: 86 1a        	stx	$1a                     ; 0x1a <__rc10>
     d35: 06 1a        	asl	$1a                     ; 0x1a <__rc10>
     d37: 2a           	rol
     d38: 06 1a        	asl	$1a                     ; 0x1a <__rc10>
     d3a: 2a           	rol
     d3b: 06 1a        	asl	$1a                     ; 0x1a <__rc10>
     d3d: 2a           	rol
     d3e: a6 1c        	ldx	$1c                     ; 0x1c <__rc12>
     d40: 86 1a        	stx	$1a                     ; 0x1a <__rc10>
     d42: a6 0f        	ldx	$f                      ; 0xf <__data_size+0xf>
     d44: 78           	sei
     d45: 85 0f        	sta	$f                      ; 0xf <__data_size+0xf>
     d47: 85 1f        	sta	$1f                     ; 0x1f <__rc15>
     d49: a5 1b        	lda	$1b                     ; 0x1b <__zp_data_size>
     d4b: 09 e0        	ora	#$e0
     d4d: 85 1b        	sta	$1b                     ; 0x1b <__zp_data_size>
     d4f: b2 1a        	lda	($1a)                   ; 0x1a <__rc10>
     d51: 85 22        	sta	$22                     ; 0x22 <__rc18>
     d53: 86 0f        	stx	$f                      ; 0xf <__data_size+0xf>
     d55: 58           	cli
     d56: 98           	tya
     d57: 84 1c        	sty	$1c                     ; 0x1c <__rc12>
     d59: 06 1c        	asl	$1c                     ; 0x1c <__rc12>
     d5b: 26 1d        	rol	$1d                     ; 0x1d <__rc13>
     d5d: 06 1c        	asl	$1c                     ; 0x1c <__rc12>
     d5f: 26 1d        	rol	$1d                     ; 0x1d <__rc13>
     d61: 06 1c        	asl	$1c                     ; 0x1c <__rc12>
     d63: 26 1d        	rol	$1d                     ; 0x1d <__rc13>
     d65: a4 1d        	ldy	$1d                     ; 0x1d <__rc13>
     d67: a6 0f        	ldx	$f                      ; 0xf <__data_size+0xf>
     d69: 78           	sei
     d6a: 84 0f        	sty	$f                      ; 0xf <__data_size+0xf>
     d6c: a4 1e        	ldy	$1e                     ; 0x1e <__rc14>
     d6e: 84 1c        	sty	$1c                     ; 0x1c <__rc12>
     d70: 09 e0        	ora	#$e0
     d72: 85 1d        	sta	$1d                     ; 0x1d <__rc13>
     d74: a5 22        	lda	$22                     ; 0x22 <__rc18>
     d76: 92 1c        	sta	($1c)                   ; 0x1c <__rc12>
     d78: 86 0f        	stx	$f                      ; 0xf <__data_size+0xf>
     d7a: 58           	cli
     d7b: a6 0f        	ldx	$f                      ; 0xf <__data_size+0xf>
     d7d: 78           	sei
     d7e: a4 1f        	ldy	$1f                     ; 0x1f <__rc15>
     d80: 84 0f        	sty	$f                      ; 0xf <__data_size+0xf>
     d82: b2 1a        	lda	($1a)                   ; 0x1a <__rc10>
     d84: 86 0f        	stx	$f                      ; 0xf <__data_size+0xf>
     d86: 58           	cli
     d87: aa           	tax
     d88: f0 0c        	beq	$d96 <sortFileList_far+0x293>
     d8a: a6 19        	ldx	$19                     ; 0x19 <__rc9>
     d8c: e8           	inx
     d8d: 86 19        	stx	$19                     ; 0x19 <__rc9>
     d8f: e0 78        	cpx	#$78
     d91: f0 03        	beq	$d96 <sortFileList_far+0x293>
     d93: 4c f8 0c     	jmp	$cf8 <sortFileList_far+0x1f5>
     d96: 18           	clc
     d97: a5 17        	lda	$17                     ; 0x17 <__rc7>
     d99: 69 77        	adc	#$77
     d9b: a8           	tay
     d9c: a5 16        	lda	$16                     ; 0x16 <__rc6>
     d9e: 69 5e        	adc	#$5e
     da0: 85 19        	sta	$19                     ; 0x19 <__rc9>
     da2: a9 00        	lda	#$0
     da4: 69 03        	adc	#$3
     da6: a6 19        	ldx	$19                     ; 0x19 <__rc9>
     da8: 86 18        	stx	$18                     ; 0x18 <__rc8>
     daa: 06 18        	asl	$18                     ; 0x18 <__rc8>
     dac: 2a           	rol
     dad: 06 18        	asl	$18                     ; 0x18 <__rc8>
     daf: 2a           	rol
     db0: 06 18        	asl	$18                     ; 0x18 <__rc8>
     db2: 2a           	rol
     db3: a6 0f        	ldx	$f                      ; 0xf <__data_size+0xf>
     db5: 78           	sei
     db6: 85 0f        	sta	$f                      ; 0xf <__data_size+0xf>
     db8: 84 18        	sty	$18                     ; 0x18 <__rc8>
     dba: a5 19        	lda	$19                     ; 0x19 <__rc9>
     dbc: 09 e0        	ora	#$e0
     dbe: 85 19        	sta	$19                     ; 0x19 <__rc9>
     dc0: a5 29        	lda	$29                     ; 0x29 <__rc25>
     dc2: 92 18        	sta	($18)                   ; 0x18 <__rc8>
     dc4: 86 0f        	stx	$f                      ; 0xf <__data_size+0xf>
     dc6: 58           	cli
     dc7: a6 27        	ldx	$27                     ; 0x27 <__rc23>
     dc9: e0 03        	cpx	#$3
     dcb: a5 26        	lda	$26                     ; 0x26 <__rc22>
     dcd: e9 00        	sbc	#$0
     dcf: 50 02        	bvc	$dd3 <sortFileList_far+0x2d0>
     dd1: 49 80        	eor	#$80
     dd3: aa           	tax
     dd4: a4 17        	ldy	$17                     ; 0x17 <__rc7>
     dd6: 84 27        	sty	$27                     ; 0x27 <__rc23>
     dd8: a5 16        	lda	$16                     ; 0x16 <__rc6>
     dda: e0 00        	cpx	#$0
     ddc: 10 03        	bpl	$de1 <sortFileList_far+0x2de>
     dde: 4c 5a 0f     	jmp	$f5a <sortFileList_far+0x457>
     de1: 85 26        	sta	$26                     ; 0x26 <__rc22>
     de3: a2 ff        	ldx	#$ff
     de5: c6 17        	dec	$17                     ; 0x17 <__rc7>
     de7: e4 17        	cpx	$17                     ; 0x17 <__rc7>
     de9: d0 02        	bne	$ded <sortFileList_far+0x2ea>
     deb: c6 16        	dec	$16                     ; 0x16 <__rc6>
     ded: 18           	clc
     dee: a5 17        	lda	$17                     ; 0x17 <__rc7>
     df0: 69 76        	adc	#$76
     df2: aa           	tax
     df3: a5 16        	lda	$16                     ; 0x16 <__rc6>
     df5: 69 5e        	adc	#$5e
     df7: 85 19        	sta	$19                     ; 0x19 <__rc9>
     df9: a9 00        	lda	#$0
     dfb: 69 03        	adc	#$3
     dfd: a4 19        	ldy	$19                     ; 0x19 <__rc9>
     dff: 84 18        	sty	$18                     ; 0x18 <__rc8>
     e01: 06 18        	asl	$18                     ; 0x18 <__rc8>
     e03: 2a           	rol
     e04: 06 18        	asl	$18                     ; 0x18 <__rc8>
     e06: 2a           	rol
     e07: 06 18        	asl	$18                     ; 0x18 <__rc8>
     e09: 2a           	rol
     e0a: a4 0f        	ldy	$f                      ; 0xf <__data_size+0xf>
     e0c: 84 1a        	sty	$1a                     ; 0x1a <__rc10>
     e0e: 78           	sei
     e0f: 85 0f        	sta	$f                      ; 0xf <__data_size+0xf>
     e11: a0 01        	ldy	#$1
     e13: 86 18        	stx	$18                     ; 0x18 <__rc8>
     e15: a5 19        	lda	$19                     ; 0x19 <__rc9>
     e17: 09 e0        	ora	#$e0
     e19: 85 19        	sta	$19                     ; 0x19 <__rc9>
     e1b: b2 18        	lda	($18)                   ; 0x18 <__rc8>
     e1d: a6 1a        	ldx	$1a                     ; 0x1a <__rc10>
     e1f: 86 0f        	stx	$f                      ; 0xf <__data_size+0xf>
     e21: 58           	cli
     e22: 85 18        	sta	$18                     ; 0x18 <__rc8>
     e24: aa           	tax
     e25: f0 02        	beq	$e29 <sortFileList_far+0x326>
     e27: a0 00        	ldy	#$0
     e29: a2 00        	ldx	#$0
     e2b: 98           	tya
     e2c: d0 02        	bne	$e30 <sortFileList_far+0x32d>
     e2e: a2 01        	ldx	#$1
     e30: 86 29        	stx	$29                     ; 0x29 <__rc25>
     e32: a9 01        	lda	#$1
     e34: a4 28        	ldy	$28                     ; 0x28 <__rc24>
     e36: d0 05        	bne	$e3d <sortFileList_far+0x33a>
     e38: 8a           	txa
     e39: 49 01        	eor	#$1
     e3b: 29 01        	and	#$1
     e3d: aa           	tax
     e3e: d0 03        	bne	$e43 <sortFileList_far+0x340>
     e40: 4c 56 0f     	jmp	$f56 <sortFileList_far+0x453>
     e43: a0 01        	ldy	#$1
     e45: a9 00        	lda	#$0
     e47: a6 18        	ldx	$18                     ; 0x18 <__rc8>
     e49: f0 02        	beq	$e4d <sortFileList_far+0x34a>
     e4b: a9 01        	lda	#$1
     e4d: a6 28        	ldx	$28                     ; 0x28 <__rc24>
     e4f: f0 01        	beq	$e52 <sortFileList_far+0x34f>
     e51: a8           	tay
     e52: a5 17        	lda	$17                     ; 0x17 <__rc7>
     e54: 0a           	asl
     e55: a6 16        	ldx	$16                     ; 0x16 <__rc6>
     e57: 86 18        	stx	$18                     ; 0x18 <__rc8>
     e59: 26 18        	rol	$18                     ; 0x18 <__rc8>
     e5b: 0a           	asl
     e5c: 26 18        	rol	$18                     ; 0x18 <__rc8>
     e5e: 0a           	asl
     e5f: 85 19        	sta	$19                     ; 0x19 <__rc9>
     e61: 26 18        	rol	$18                     ; 0x18 <__rc8>
     e63: 0a           	asl
     e64: a6 18        	ldx	$18                     ; 0x18 <__rc8>
     e66: 86 1a        	stx	$1a                     ; 0x1a <__rc10>
     e68: 26 1a        	rol	$1a                     ; 0x1a <__rc10>
     e6a: 0a           	asl
     e6b: 26 1a        	rol	$1a                     ; 0x1a <__rc10>
     e6d: 0a           	asl
     e6e: 26 1a        	rol	$1a                     ; 0x1a <__rc10>
     e70: 0a           	asl
     e71: 26 1a        	rol	$1a                     ; 0x1a <__rc10>
     e73: c0 00        	cpy	#$0
     e75: d0 03        	bne	$e7a <sortFileList_far+0x377>
     e77: 4c ad 0c     	jmp	$cad <sortFileList_far+0x1aa>
     e7a: 38           	sec
     e7b: e5 19        	sbc	$19                     ; 0x19 <__rc9>
     e7d: a8           	tay
     e7e: a5 1a        	lda	$1a                     ; 0x1a <__rc10>
     e80: e5 18        	sbc	$18                     ; 0x18 <__rc8>
     e82: aa           	tax
     e83: 18           	clc
     e84: 98           	tya
     e85: 84 2a        	sty	$2a                     ; 0x2a <__rc26>
     e87: 69 b6        	adc	#$b6
     e89: 85 2c        	sta	$2c                     ; 0x2c <__rc28>
     e8b: 8a           	txa
     e8c: 86 2b        	stx	$2b                     ; 0x2b <__rc27>
     e8e: 69 00        	adc	#$0
     e90: 85 2d        	sta	$2d                     ; 0x2d <__rc29>
     e92: a9 00        	lda	#$0
     e94: 69 03        	adc	#$3
     e96: 85 2e        	sta	$2e                     ; 0x2e <__rc30>
     e98: a0 00        	ldy	#$0
     e9a: 84 18        	sty	$18                     ; 0x18 <__rc8>
     e9c: a5 2c        	lda	$2c                     ; 0x2c <__rc28>
     e9e: 18           	clc
     e9f: 65 18        	adc	$18                     ; 0x18 <__rc8>
     ea1: 85 19        	sta	$19                     ; 0x19 <__rc9>
     ea3: a5 2d        	lda	$2d                     ; 0x2d <__rc29>
     ea5: 69 00        	adc	#$0
     ea7: 85 1a        	sta	$1a                     ; 0x1a <__rc10>
     ea9: a5 2e        	lda	$2e                     ; 0x2e <__rc30>
     eab: 69 00        	adc	#$0
     ead: 5a           	phy
     eae: a6 1a        	ldx	$1a                     ; 0x1a <__rc10>
     eb0: 86 18        	stx	$18                     ; 0x18 <__rc8>
     eb2: 06 18        	asl	$18                     ; 0x18 <__rc8>
     eb4: 2a           	rol
     eb5: 06 18        	asl	$18                     ; 0x18 <__rc8>
     eb7: 2a           	rol
     eb8: 06 18        	asl	$18                     ; 0x18 <__rc8>
     eba: 2a           	rol
     ebb: a6 0f        	ldx	$f                      ; 0xf <__data_size+0xf>
     ebd: 78           	sei
     ebe: 85 0f        	sta	$f                      ; 0xf <__data_size+0xf>
     ec0: a5 1a        	lda	$1a                     ; 0x1a <__rc10>
     ec2: 09 e0        	ora	#$e0
     ec4: a4 19        	ldy	$19                     ; 0x19 <__rc9>
     ec6: 84 18        	sty	$18                     ; 0x18 <__rc8>
     ec8: 7a           	ply
     ec9: 85 19        	sta	$19                     ; 0x19 <__rc9>
     ecb: b2 18        	lda	($18)                   ; 0x18 <__rc8>
     ecd: 86 0f        	stx	$f                      ; 0xf <__data_size+0xf>
     ecf: 18           	clc
     ed0: 48           	pha
     ed1: a5 10        	lda	$10                     ; 0x10 <__rc0>
     ed3: 69 07        	adc	#$7
     ed5: 85 1c        	sta	$1c                     ; 0x1c <__rc12>
     ed7: a5 11        	lda	$11                     ; 0x11 <__rc1>
     ed9: 69 00        	adc	#$0
     edb: 85 1d        	sta	$1d                     ; 0x1d <__rc13>
     edd: 68           	pla
     ede: 58           	cli
     edf: 91 1c        	sta	($1c),y                 ; 0x1c <__rc12>
     ee1: aa           	tax
     ee2: f0 08        	beq	$eec <sortFileList_far+0x3e9>
     ee4: c8           	iny
     ee5: c0 78        	cpy	#$78
     ee7: f0 03        	beq	$eec <sortFileList_far+0x3e9>
     ee9: 4c 9a 0e     	jmp	$e9a <sortFileList_far+0x397>
     eec: b2 1c        	lda	($1c)                   ; 0x1c <__rc12>
     eee: 64 18        	stz	$18                     ; 0x18 <__rc8>
     ef0: a6 14        	ldx	$14                     ; 0x14 <__rc4>
     ef2: 86 1a        	stx	$1a                     ; 0x1a <__rc10>
     ef4: a6 15        	ldx	$15                     ; 0x15 <__rc5>
     ef6: 86 1b        	stx	$1b                     ; 0x1b <__zp_data_size>
     ef8: aa           	tax
     ef9: d0 03        	bne	$efe <sortFileList_far+0x3fb>
     efb: 4c dd 0c     	jmp	$cdd <sortFileList_far+0x1da>
     efe: a6 1c        	ldx	$1c                     ; 0x1c <__rc12>
     f00: 86 1e        	stx	$1e                     ; 0x1e <__rc14>
     f02: a6 1d        	ldx	$1d                     ; 0x1d <__rc13>
     f04: 86 1f        	stx	$1f                     ; 0x1f <__rc15>
     f06: a0 01        	ldy	#$1
     f08: 85 19        	sta	$19                     ; 0x19 <__rc9>
     f0a: e6 1e        	inc	$1e                     ; 0x1e <__rc14>
     f0c: d0 02        	bne	$f10 <sortFileList_far+0x40d>
     f0e: e6 1f        	inc	$1f                     ; 0x1f <__rc15>
     f10: b2 1a        	lda	($1a)                   ; 0x1a <__rc10>
     f12: d0 03        	bne	$f17 <sortFileList_far+0x414>
     f14: 4c cf 0c     	jmp	$ccf <sortFileList_far+0x1cc>
     f17: 85 22        	sta	$22                     ; 0x22 <__rc18>
     f19: a6 19        	ldx	$19                     ; 0x19 <__rc9>
     f1b: e0 41        	cpx	#$41
     f1d: 90 0a        	bcc	$f29 <sortFileList_far+0x426>
     f1f: a5 19        	lda	$19                     ; 0x19 <__rc9>
     f21: c9 5b        	cmp	#$5b
     f23: b0 04        	bcs	$f29 <sortFileList_far+0x426>
     f25: 09 20        	ora	#$20
     f27: 85 19        	sta	$19                     ; 0x19 <__rc9>
     f29: a5 22        	lda	$22                     ; 0x22 <__rc18>
     f2b: c9 41        	cmp	#$41
     f2d: 90 06        	bcc	$f35 <sortFileList_far+0x432>
     f2f: c9 5b        	cmp	#$5b
     f31: b0 02        	bcs	$f35 <sortFileList_far+0x432>
     f33: 09 20        	ora	#$20
     f35: 85 22        	sta	$22                     ; 0x22 <__rc18>
     f37: a6 19        	ldx	$19                     ; 0x19 <__rc9>
     f39: e4 22        	cpx	$22                     ; 0x22 <__rc18>
     f3b: f0 03        	beq	$f40 <sortFileList_far+0x43d>
     f3d: 4c ed 0c     	jmp	$ced <sortFileList_far+0x1ea>
     f40: e6 1a        	inc	$1a                     ; 0x1a <__rc10>
     f42: d0 02        	bne	$f46 <sortFileList_far+0x443>
     f44: e6 1b        	inc	$1b                     ; 0x1b <__zp_data_size>
     f46: b1 1c        	lda	($1c),y                 ; 0x1c <__rc12>
     f48: a6 1e        	ldx	$1e                     ; 0x1e <__rc14>
     f4a: 86 1c        	stx	$1c                     ; 0x1c <__rc12>
     f4c: a6 1f        	ldx	$1f                     ; 0x1f <__rc15>
     f4e: 86 1d        	stx	$1d                     ; 0x1d <__rc13>
     f50: aa           	tax
     f51: d0 b5        	bne	$f08 <sortFileList_far+0x405>
     f53: 4c dd 0c     	jmp	$cdd <sortFileList_far+0x1da>
     f56: a6 26        	ldx	$26                     ; 0x26 <__rc22>
     f58: 80 09        	bra	$f63 <sortFileList_far+0x460>
     f5a: a2 01        	ldx	#$1
     f5c: 86 27        	stx	$27                     ; 0x27 <__rc23>
     f5e: ca           	dex
     f5f: 64 17        	stz	$17                     ; 0x17 <__rc7>
     f61: 64 16        	stz	$16                     ; 0x16 <__rc6>
     f63: 06 17        	asl	$17                     ; 0x17 <__rc7>
     f65: 26 16        	rol	$16                     ; 0x16 <__rc6>
     f67: 06 17        	asl	$17                     ; 0x17 <__rc7>
     f69: 26 16        	rol	$16                     ; 0x16 <__rc6>
     f6b: 06 17        	asl	$17                     ; 0x17 <__rc7>
     f6d: 26 16        	rol	$16                     ; 0x16 <__rc6>
     f6f: a5 17        	lda	$17                     ; 0x17 <__rc7>
     f71: 0a           	asl
     f72: a4 16        	ldy	$16                     ; 0x16 <__rc6>
     f74: 84 18        	sty	$18                     ; 0x18 <__rc8>
     f76: 26 18        	rol	$18                     ; 0x18 <__rc8>
     f78: 0a           	asl
     f79: 26 18        	rol	$18                     ; 0x18 <__rc8>
     f7b: 0a           	asl
     f7c: 26 18        	rol	$18                     ; 0x18 <__rc8>
     f7e: 0a           	asl
     f7f: 26 18        	rol	$18                     ; 0x18 <__rc8>
     f81: 38           	sec
     f82: e5 17        	sbc	$17                     ; 0x17 <__rc7>
     f84: 85 17        	sta	$17                     ; 0x17 <__rc7>
     f86: a5 18        	lda	$18                     ; 0x18 <__rc8>
     f88: e5 16        	sbc	$16                     ; 0x16 <__rc6>
     f8a: a8           	tay
     f8b: 18           	clc
     f8c: a5 17        	lda	$17                     ; 0x17 <__rc7>
     f8e: 69 78        	adc	#$78
     f90: 85 16        	sta	$16                     ; 0x16 <__rc6>
     f92: 98           	tya
     f93: 69 00        	adc	#$0
     f95: a8           	tay
     f96: 10 06        	bpl	$f9e <sortFileList_far+0x49b>
     f98: 86 18        	stx	$18                     ; 0x18 <__rc8>
     f9a: a2 ff        	ldx	#$ff
     f9c: 80 04        	bra	$fa2 <sortFileList_far+0x49f>
     f9e: 86 18        	stx	$18                     ; 0x18 <__rc8>
     fa0: a2 00        	ldx	#$0
     fa2: 18           	clc
     fa3: a5 16        	lda	$16                     ; 0x16 <__rc6>
     fa5: 69 b6        	adc	#$b6
     fa7: 85 17        	sta	$17                     ; 0x17 <__rc7>
     fa9: 98           	tya
     faa: 69 00        	adc	#$0
     fac: a8           	tay
     fad: 8a           	txa
     fae: 69 03        	adc	#$3
     fb0: aa           	tax
     fb1: b2 14        	lda	($14)                   ; 0x14 <__rc4>
     fb3: 85 1c        	sta	$1c                     ; 0x1c <__rc12>
     fb5: 84 16        	sty	$16                     ; 0x16 <__rc6>
     fb7: 06 16        	asl	$16                     ; 0x16 <__rc6>
     fb9: 86 1b        	stx	$1b                     ; 0x1b <__zp_data_size>
     fbb: 8a           	txa
     fbc: 2a           	rol
     fbd: 06 16        	asl	$16                     ; 0x16 <__rc6>
     fbf: 2a           	rol
     fc0: 06 16        	asl	$16                     ; 0x16 <__rc6>
     fc2: 2a           	rol
     fc3: a6 0f        	ldx	$f                      ; 0xf <__data_size+0xf>
     fc5: 78           	sei
     fc6: 85 0f        	sta	$f                      ; 0xf <__data_size+0xf>
     fc8: 98           	tya
     fc9: 84 1a        	sty	$1a                     ; 0x1a <__rc10>
     fcb: 09 e0        	ora	#$e0
     fcd: a4 17        	ldy	$17                     ; 0x17 <__rc7>
     fcf: 84 19        	sty	$19                     ; 0x19 <__rc9>
     fd1: a4 17        	ldy	$17                     ; 0x17 <__rc7>
     fd3: 84 16        	sty	$16                     ; 0x16 <__rc6>
     fd5: 85 17        	sta	$17                     ; 0x17 <__rc7>
     fd7: a5 1c        	lda	$1c                     ; 0x1c <__rc12>
     fd9: 92 16        	sta	($16)                   ; 0x16 <__rc6>
     fdb: 86 0f        	stx	$f                      ; 0xf <__data_size+0xf>
     fdd: 58           	cli
     fde: a0 01        	ldy	#$1
     fe0: 80 3f        	bra	$1021 <sortFileList_far+0x51e>
     fe2: 84 16        	sty	$16                     ; 0x16 <__rc6>
     fe4: a5 19        	lda	$19                     ; 0x19 <__rc9>
     fe6: 18           	clc
     fe7: 65 16        	adc	$16                     ; 0x16 <__rc6>
     fe9: 85 17        	sta	$17                     ; 0x17 <__rc7>
     feb: a5 1a        	lda	$1a                     ; 0x1a <__rc10>
     fed: 69 00        	adc	#$0
     fef: 85 1c        	sta	$1c                     ; 0x1c <__rc12>
     ff1: a5 1b        	lda	$1b                     ; 0x1b <__zp_data_size>
     ff3: 69 00        	adc	#$0
     ff5: aa           	tax
     ff6: b1 14        	lda	($14),y                 ; 0x14 <__rc4>
     ff8: 85 1d        	sta	$1d                     ; 0x1d <__rc13>
     ffa: a5 1c        	lda	$1c                     ; 0x1c <__rc12>
     ffc: 85 16        	sta	$16                     ; 0x16 <__rc6>
     ffe: 06 16        	asl	$16                     ; 0x16 <__rc6>
    1000: 8a           	txa
    1001: 2a           	rol
    1002: 06 16        	asl	$16                     ; 0x16 <__rc6>
    1004: 2a           	rol
    1005: 06 16        	asl	$16                     ; 0x16 <__rc6>
    1007: 2a           	rol
    1008: a6 0f        	ldx	$f                      ; 0xf <__data_size+0xf>
    100a: 78           	sei
    100b: 85 0f        	sta	$f                      ; 0xf <__data_size+0xf>
    100d: a5 17        	lda	$17                     ; 0x17 <__rc7>
    100f: 85 16        	sta	$16                     ; 0x16 <__rc6>
    1011: a5 1c        	lda	$1c                     ; 0x1c <__rc12>
    1013: 09 e0        	ora	#$e0
    1015: 85 17        	sta	$17                     ; 0x17 <__rc7>
    1017: a5 1d        	lda	$1d                     ; 0x1d <__rc13>
    1019: 85 1c        	sta	$1c                     ; 0x1c <__rc12>
    101b: 92 16        	sta	($16)                   ; 0x16 <__rc6>
    101d: 86 0f        	stx	$f                      ; 0xf <__data_size+0xf>
    101f: 58           	cli
    1020: c8           	iny
    1021: a5 1c        	lda	$1c                     ; 0x1c <__rc12>
    1023: f0 04        	beq	$1029 <sortFileList_far+0x526>
    1025: c0 78        	cpy	#$78
    1027: d0 b9        	bne	$fe2 <sortFileList_far+0x4df>
    1029: a6 18        	ldx	$18                     ; 0x18 <__rc8>
    102b: 10 04        	bpl	$1031 <sortFileList_far+0x52e>
    102d: a0 ff        	ldy	#$ff
    102f: 80 02        	bra	$1033 <sortFileList_far+0x530>
    1031: a0 00        	ldy	#$0
    1033: 18           	clc
    1034: a5 27        	lda	$27                     ; 0x27 <__rc23>
    1036: 69 76        	adc	#$76
    1038: 85 15        	sta	$15                     ; 0x15 <__rc5>
    103a: 8a           	txa
    103b: 69 5e        	adc	#$5e
    103d: 85 16        	sta	$16                     ; 0x16 <__rc6>
    103f: 98           	tya
    1040: 69 03        	adc	#$3
    1042: a6 16        	ldx	$16                     ; 0x16 <__rc6>
    1044: 86 14        	stx	$14                     ; 0x14 <__rc4>
    1046: 06 14        	asl	$14                     ; 0x14 <__rc4>
    1048: 2a           	rol
    1049: 06 14        	asl	$14                     ; 0x14 <__rc4>
    104b: 2a           	rol
    104c: 06 14        	asl	$14                     ; 0x14 <__rc4>
    104e: 2a           	rol
    104f: a6 0f        	ldx	$f                      ; 0xf <__data_size+0xf>
    1051: 78           	sei
    1052: 85 0f        	sta	$f                      ; 0xf <__data_size+0xf>
    1054: a4 15        	ldy	$15                     ; 0x15 <__rc5>
    1056: 84 14        	sty	$14                     ; 0x14 <__rc4>
    1058: a5 16        	lda	$16                     ; 0x16 <__rc6>
    105a: 09 e0        	ora	#$e0
    105c: 85 15        	sta	$15                     ; 0x15 <__rc5>
    105e: a5 25        	lda	$25                     ; 0x25 <__rc21>
    1060: 92 14        	sta	($14)                   ; 0x14 <__rc4>
    1062: 86 0f        	stx	$f                      ; 0xf <__data_size+0xf>
    1064: 58           	cli
    1065: a6 23        	ldx	$23                     ; 0x23 <__rc19>
    1067: e8           	inx
    1068: d0 02        	bne	$106c <sortFileList_far+0x569>
    106a: e6 24        	inc	$24                     ; 0x24 <__rc20>
    106c: a4 24        	ldy	$24                     ; 0x24 <__rc20>
    106e: c4 13        	cpy	$13                     ; 0x13 <__rc3>
    1070: f0 03        	beq	$1075 <sortFileList_far+0x572>
    1072: 4c c4 0b     	jmp	$bc4 <sortFileList_far+0xc1>
    1075: e4 12        	cpx	$12                     ; 0x12 <__rc2>
    1077: f0 03        	beq	$107c <sortFileList_far+0x579>
    1079: 4c c4 0b     	jmp	$bc4 <sortFileList_far+0xc1>
    107c: a0 00        	ldy	#$0
    107e: b1 10        	lda	($10),y                 ; 0x10 <__rc0>
    1080: 85 2e        	sta	$2e                     ; 0x2e <__rc30>
    1082: c8           	iny
    1083: b1 10        	lda	($10),y                 ; 0x10 <__rc0>
    1085: 85 2d        	sta	$2d                     ; 0x2d <__rc29>
    1087: c8           	iny
    1088: b1 10        	lda	($10),y                 ; 0x10 <__rc0>
    108a: 85 2c        	sta	$2c                     ; 0x2c <__rc28>
    108c: c8           	iny
    108d: b1 10        	lda	($10),y                 ; 0x10 <__rc0>
    108f: 85 2b        	sta	$2b                     ; 0x2b <__rc27>
    1091: c8           	iny
    1092: b1 10        	lda	($10),y                 ; 0x10 <__rc0>
    1094: 85 2a        	sta	$2a                     ; 0x2a <__rc26>
    1096: c8           	iny
    1097: b1 10        	lda	($10),y                 ; 0x10 <__rc0>
    1099: 85 29        	sta	$29                     ; 0x29 <__rc25>
    109b: c8           	iny
    109c: b1 10        	lda	($10),y                 ; 0x10 <__rc0>
    109e: 85 28        	sta	$28                     ; 0x28 <__rc24>
    10a0: fa           	plx
    10a1: 86 27        	stx	$27                     ; 0x27 <__rc23>
    10a3: fa           	plx
    10a4: 86 26        	stx	$26                     ; 0x26 <__rc22>
    10a6: fa           	plx
    10a7: 86 25        	stx	$25                     ; 0x25 <__rc21>
    10a9: fa           	plx
    10aa: 86 24        	stx	$24                     ; 0x24 <__rc20>
    10ac: 18           	clc
    10ad: a5 10        	lda	$10                     ; 0x10 <__rc0>
    10af: 69 f7        	adc	#$f7
    10b1: 85 10        	sta	$10                     ; 0x10 <__rc0>
    10b3: a5 11        	lda	$11                     ; 0x11 <__rc1>
    10b5: 69 00        	adc	#$0
    10b7: 85 11        	sta	$11                     ; 0x11 <__rc1>
    10b9: 60           	rts

000010ba <displayFileList_far>:
    10ba: 48           	pha
    10bb: 18           	clc
    10bc: a5 10        	lda	$10                     ; 0x10 <__rc0>
    10be: 69 ff        	adc	#$ff
    10c0: 85 10        	sta	$10                     ; 0x10 <__rc0>
    10c2: a5 11        	lda	$11                     ; 0x11 <__rc1>
    10c4: 69 fe        	adc	#$fe
    10c6: 85 11        	sta	$11                     ; 0x11 <__rc1>
    10c8: 68           	pla
    10c9: a4 24        	ldy	$24                     ; 0x24 <__rc20>
    10cb: 5a           	phy
    10cc: a4 25        	ldy	$25                     ; 0x25 <__rc21>
    10ce: 5a           	phy
    10cf: a4 26        	ldy	$26                     ; 0x26 <__rc22>
    10d1: 5a           	phy
    10d2: a4 27        	ldy	$27                     ; 0x27 <__rc23>
    10d4: 5a           	phy
    10d5: 48           	pha
    10d6: a5 28        	lda	$28                     ; 0x28 <__rc24>
    10d8: a0 0d        	ldy	#$d
    10da: 91 10        	sta	($10),y                 ; 0x10 <__rc0>
    10dc: a5 29        	lda	$29                     ; 0x29 <__rc25>
    10de: 88           	dey
    10df: 91 10        	sta	($10),y                 ; 0x10 <__rc0>
    10e1: a5 2a        	lda	$2a                     ; 0x2a <__rc26>
    10e3: 88           	dey
    10e4: 91 10        	sta	($10),y                 ; 0x10 <__rc0>
    10e6: a5 2b        	lda	$2b                     ; 0x2b <__rc27>
    10e8: 88           	dey
    10e9: 91 10        	sta	($10),y                 ; 0x10 <__rc0>
    10eb: a5 2c        	lda	$2c                     ; 0x2c <__rc28>
    10ed: 88           	dey
    10ee: 91 10        	sta	($10),y                 ; 0x10 <__rc0>
    10f0: a5 2d        	lda	$2d                     ; 0x2d <__rc29>
    10f2: 88           	dey
    10f3: 91 10        	sta	($10),y                 ; 0x10 <__rc0>
    10f5: a5 2e        	lda	$2e                     ; 0x2e <__rc30>
    10f7: 88           	dey
    10f8: 91 10        	sta	($10),y                 ; 0x10 <__rc0>
    10fa: a5 2f        	lda	$2f                     ; 0x2f <__rc31>
    10fc: 88           	dey
    10fd: 91 10        	sta	($10),y                 ; 0x10 <__rc0>
    10ff: 68           	pla
    1100: 85 14        	sta	$14                     ; 0x14 <__rc4>
    1102: 86 13        	stx	$13                     ; 0x13 <__rc3>
    1104: a4 0f        	ldy	$f                      ; 0xf <__data_size+0xf>
    1106: 78           	sei
    1107: a9 18        	lda	#$18
    1109: 85 0f        	sta	$f                      ; 0xf <__data_size+0xf>
    110b: ae 00 e0     	ldx	$e000                   ; 0xe000 <__heap_start+0x50e8>
    110e: 86 2c        	stx	$2c                     ; 0x2c <__rc28>
    1110: 84 0f        	sty	$f                      ; 0xf <__data_size+0xf>
    1112: 58           	cli
    1113: a4 0f        	ldy	$f                      ; 0xf <__data_size+0xf>
    1115: 78           	sei
    1116: 85 0f        	sta	$f                      ; 0xf <__data_size+0xf>
    1118: ae 01 e0     	ldx	$e001                   ; 0xe001 <__heap_start+0x50e9>
    111b: 86 2a        	stx	$2a                     ; 0x2a <__rc26>
    111d: 84 0f        	sty	$f                      ; 0xf <__data_size+0xf>
    111f: 58           	cli
    1120: a4 0f        	ldy	$f                      ; 0xf <__data_size+0xf>
    1122: 78           	sei
    1123: a2 1a        	ldx	#$1a
    1125: 86 0f        	stx	$f                      ; 0xf <__data_size+0xf>
    1127: 8a           	txa
    1128: ae 3e ff     	ldx	$ff3e                   ; 0xff3e <__heap_start+0x7026>
    112b: 86 12        	stx	$12                     ; 0x12 <__rc2>
    112d: ae 3f ff     	ldx	$ff3f                   ; 0xff3f <__heap_start+0x7027>
    1130: 86 2e        	stx	$2e                     ; 0x2e <__rc30>
    1132: 84 0f        	sty	$f                      ; 0xf <__data_size+0xf>
    1134: 58           	cli
    1135: a6 0f        	ldx	$f                      ; 0xf <__data_size+0xf>
    1137: 78           	sei
    1138: 85 0f        	sta	$f                      ; 0xf <__data_size+0xf>
    113a: ac 42 ff     	ldy	$ff42                   ; 0xff42 <__heap_start+0x702a>
    113d: 48           	pha
    113e: 98           	tya
    113f: a0 10        	ldy	#$10
    1141: 91 10        	sta	($10),y                 ; 0x10 <__rc0>
    1143: 68           	pla
    1144: ac 43 ff     	ldy	$ff43                   ; 0xff43 <__heap_start+0x702b>
    1147: 84 2f        	sty	$2f                     ; 0x2f <__rc31>
    1149: 86 0f        	stx	$f                      ; 0xf <__data_size+0xf>
    114b: 58           	cli
    114c: a6 0f        	ldx	$f                      ; 0xf <__data_size+0xf>
    114e: 78           	sei
    114f: 85 0f        	sta	$f                      ; 0xf <__data_size+0xf>
    1151: ac 46 ff     	ldy	$ff46                   ; 0xff46 <__heap_start+0x702e>
    1154: 84 28        	sty	$28                     ; 0x28 <__rc24>
    1156: ac 47 ff     	ldy	$ff47                   ; 0xff47 <__heap_start+0x702f>
    1159: 86 0f        	stx	$f                      ; 0xf <__data_size+0xf>
    115b: a5 14        	lda	$14                     ; 0x14 <__rc4>
    115d: 85 26        	sta	$26                     ; 0x26 <__rc22>
    115f: 18           	clc
    1160: 69 10        	adc	#$10
    1162: 85 2d        	sta	$2d                     ; 0x2d <__rc29>
    1164: a5 13        	lda	$13                     ; 0x13 <__rc3>
    1166: 85 25        	sta	$25                     ; 0x25 <__rc21>
    1168: 69 00        	adc	#$0
    116a: 58           	cli
    116b: e6 26        	inc	$26                     ; 0x26 <__rc22>
    116d: d0 02        	bne	$1171 <displayFileList_far+0xb7>
    116f: e6 25        	inc	$25                     ; 0x25 <__rc21>
    1171: c5 2e        	cmp	$2e                     ; 0x2e <__rc30>
    1173: d0 06        	bne	$117b <displayFileList_far+0xc1>
    1175: a6 2d        	ldx	$2d                     ; 0x2d <__rc29>
    1177: e4 12        	cpx	$12                     ; 0x12 <__rc2>
    1179: 80 02        	bra	$117d <displayFileList_far+0xc3>
    117b: c5 2e        	cmp	$2e                     ; 0x2e <__rc30>
    117d: 85 29        	sta	$29                     ; 0x29 <__rc25>
    117f: 90 08        	bcc	$1189 <displayFileList_far+0xcf>
    1181: a6 12        	ldx	$12                     ; 0x12 <__rc2>
    1183: 86 2d        	stx	$2d                     ; 0x2d <__rc29>
    1185: a6 2e        	ldx	$2e                     ; 0x2e <__rc30>
    1187: 86 29        	stx	$29                     ; 0x29 <__rc25>
    1189: a5 12        	lda	$12                     ; 0x12 <__rc2>
    118b: 5a           	phy
    118c: a0 0f        	ldy	#$f
    118e: 91 10        	sta	($10),y                 ; 0x10 <__rc0>
    1190: 7a           	ply
    1191: 84 27        	sty	$27                     ; 0x27 <__rc23>
    1193: a6 2c        	ldx	$2c                     ; 0x2c <__rc28>
    1195: 86 6a        	stx	$6a                     ; 0x6a <_col>
    1197: 8e 14 d0     	stx	$d014                   ; 0xd014 <__heap_start+0x40fc>
    119a: 86 2b        	stx	$2b                     ; 0x2b <__rc27>
    119c: 9c 15 d0     	stz	$d015                   ; 0xd015 <__heap_start+0x40fd>
    119f: a6 2a        	ldx	$2a                     ; 0x2a <__rc26>
    11a1: 86 6b        	stx	$6b                     ; 0x6b <_row>
    11a3: 8e 16 d0     	stx	$d016                   ; 0xd016 <__heap_start+0x40fe>
    11a6: 86 24        	stx	$24                     ; 0x24 <__rc20>
    11a8: 9c 17 d0     	stz	$d017                   ; 0xd017 <__heap_start+0x40ff>
    11ab: 20 46 26     	jsr	$2646 <wipeArea_far>
    11ae: a6 2b        	ldx	$2b                     ; 0x2b <__rc27>
    11b0: 86 6a        	stx	$6a                     ; 0x6a <_col>
    11b2: 8e 14 d0     	stx	$d014                   ; 0xd014 <__heap_start+0x40fc>
    11b5: 9c 15 d0     	stz	$d015                   ; 0xd015 <__heap_start+0x40fd>
    11b8: a6 24        	ldx	$24                     ; 0x24 <__rc20>
    11ba: 86 6b        	stx	$6b                     ; 0x6b <_row>
    11bc: 8e 16 d0     	stx	$d016                   ; 0xd016 <__heap_start+0x40fe>
    11bf: 9c 17 d0     	stz	$d017                   ; 0xd017 <__heap_start+0x40ff>
    11c2: a0 00        	ldy	#$0
    11c4: 98           	tya
    11c5: 18           	clc
    11c6: 69 b6        	adc	#$b6
    11c8: 85 12        	sta	$12                     ; 0x12 <__rc2>
    11ca: a9 00        	lda	#$0
    11cc: 69 e0        	adc	#$e0
    11ce: a6 0f        	ldx	$f                      ; 0xf <__data_size+0xf>
    11d0: 86 14        	stx	$14                     ; 0x14 <__rc4>
    11d2: 78           	sei
    11d3: a2 18        	ldx	#$18
    11d5: 86 0f        	stx	$f                      ; 0xf <__data_size+0xf>
    11d7: 85 13        	sta	$13                     ; 0x13 <__rc3>
    11d9: b2 12        	lda	($12)                   ; 0x12 <__rc2>
    11db: a6 14        	ldx	$14                     ; 0x14 <__rc4>
    11dd: 86 0f        	stx	$f                      ; 0xf <__data_size+0xf>
    11df: 18           	clc
    11e0: 48           	pha
    11e1: a5 10        	lda	$10                     ; 0x10 <__rc0>
    11e3: 69 89        	adc	#$89
    11e5: 85 12        	sta	$12                     ; 0x12 <__rc2>
    11e7: a5 11        	lda	$11                     ; 0x11 <__rc1>
    11e9: 69 00        	adc	#$0
    11eb: 85 13        	sta	$13                     ; 0x13 <__rc3>
    11ed: 68           	pla
    11ee: 58           	cli
    11ef: 91 12        	sta	($12),y                 ; 0x12 <__rc2>
    11f1: aa           	tax
    11f2: f0 05        	beq	$11f9 <displayFileList_far+0x13f>
    11f4: c8           	iny
    11f5: c0 78        	cpy	#$78
    11f7: d0 cb        	bne	$11c4 <displayFileList_far+0x10a>
    11f9: a4 0f        	ldy	$f                      ; 0xf <__data_size+0xf>
    11fb: 78           	sei
    11fc: a2 1a        	ldx	#$1a
    11fe: 86 0f        	stx	$f                      ; 0xf <__data_size+0xf>
    1200: ae 76 fe     	ldx	$fe76                   ; 0xfe76 <__heap_start+0x6f5e>
    1203: 84 0f        	sty	$f                      ; 0xf <__data_size+0xf>
    1205: 58           	cli
    1206: 64 14        	stz	$14                     ; 0x14 <__rc4>
    1208: a5 27        	lda	$27                     ; 0x27 <__rc23>
    120a: d0 07        	bne	$1213 <displayFileList_far+0x159>
    120c: a5 28        	lda	$28                     ; 0x28 <__rc24>
    120e: d0 03        	bne	$1213 <displayFileList_far+0x159>
    1210: 4c 02 15     	jmp	$1502 <displayFileList_far+0x448>
    1213: a9 20        	lda	#$20
    1215: e0 00        	cpx	#$0
    1217: f0 08        	beq	$1221 <displayFileList_far+0x167>
    1219: a2 c4        	ldx	#$c4
    121b: 86 12        	stx	$12                     ; 0x12 <__rc2>
    121d: a2 89        	ldx	#$89
    121f: 80 06        	bra	$1227 <displayFileList_far+0x16d>
    1221: a2 4b        	ldx	#$4b
    1223: 86 12        	stx	$12                     ; 0x12 <__rc2>
    1225: a2 89        	ldx	#$89
    1227: 86 13        	stx	$13                     ; 0x13 <__rc3>
    1229: a6 10        	ldx	$10                     ; 0x10 <__rc0>
    122b: 92 10        	sta	($10)                   ; 0x10 <__rc0>
    122d: a0 01        	ldy	#$1
    122f: a9 00        	lda	#$0
    1231: 91 10        	sta	($10),y                 ; 0x10 <__rc0>
    1233: 84 17        	sty	$17                     ; 0x17 <__rc7>
    1235: 18           	clc
    1236: a5 10        	lda	$10                     ; 0x10 <__rc0>
    1238: 69 89        	adc	#$89
    123a: a0 01        	ldy	#$1
    123c: b0 02        	bcs	$1240 <displayFileList_far+0x186>
    123e: a0 00        	ldy	#$0
    1240: 84 18        	sty	$18                     ; 0x18 <__rc8>
    1242: a0 02        	ldy	#$2
    1244: 91 10        	sta	($10),y                 ; 0x10 <__rc0>
    1246: 8a           	txa
    1247: 18           	clc
    1248: 69 02        	adc	#$2
    124a: 85 14        	sta	$14                     ; 0x14 <__rc4>
    124c: a5 11        	lda	$11                     ; 0x11 <__rc1>
    124e: 69 00        	adc	#$0
    1250: 85 15        	sta	$15                     ; 0x15 <__rc5>
    1252: a4 18        	ldy	$18                     ; 0x18 <__rc8>
    1254: c0 01        	cpy	#$1
    1256: a5 11        	lda	$11                     ; 0x11 <__rc1>
    1258: 69 00        	adc	#$0
    125a: a4 17        	ldy	$17                     ; 0x17 <__rc7>
    125c: 91 14        	sta	($14),y                 ; 0x14 <__rc4>
    125e: 8a           	txa
    125f: 18           	clc
    1260: 69 04        	adc	#$4
    1262: 85 14        	sta	$14                     ; 0x14 <__rc4>
    1264: a5 11        	lda	$11                     ; 0x11 <__rc1>
    1266: 69 00        	adc	#$0
    1268: a0 04        	ldy	#$4
    126a: 85 15        	sta	$15                     ; 0x15 <__rc5>
    126c: a5 12        	lda	$12                     ; 0x12 <__rc2>
    126e: 91 10        	sta	($10),y                 ; 0x10 <__rc0>
    1270: a4 17        	ldy	$17                     ; 0x17 <__rc7>
    1272: a5 13        	lda	$13                     ; 0x13 <__rc3>
    1274: 91 14        	sta	($14),y                 ; 0x14 <__rc4>
    1276: a2 54        	ldx	#$54
    1278: 86 12        	stx	$12                     ; 0x12 <__rc2>
    127a: a2 8b        	ldx	#$8b
    127c: 86 13        	stx	$13                     ; 0x13 <__rc3>
    127e: 20 66 7f     	jsr	$7f66 <printf>
    1281: a6 26        	ldx	$26                     ; 0x26 <__rc22>
    1283: e4 2d        	cpx	$2d                     ; 0x2d <__rc29>
    1285: a5 25        	lda	$25                     ; 0x25 <__rc21>
    1287: e5 29        	sbc	$29                     ; 0x29 <__rc25>
    1289: 50 02        	bvc	$128d <displayFileList_far+0x1d3>
    128b: 49 80        	eor	#$80
    128d: e6 2a        	inc	$2a                     ; 0x2a <__rc26>
    128f: aa           	tax
    1290: 30 03        	bmi	$1295 <displayFileList_far+0x1db>
    1292: 4c 30 14     	jmp	$1430 <displayFileList_far+0x376>
    1295: a5 2d        	lda	$2d                     ; 0x2d <__rc29>
    1297: a0 0e        	ldy	#$e
    1299: 91 10        	sta	($10),y                 ; 0x10 <__rc0>
    129b: a4 26        	ldy	$26                     ; 0x26 <__rc22>
    129d: 98           	tya
    129e: 38           	sec
    129f: e5 26        	sbc	$26                     ; 0x26 <__rc22>
    12a1: 18           	clc
    12a2: 65 2a        	adc	$2a                     ; 0x2a <__rc26>
    12a4: a6 2c        	ldx	$2c                     ; 0x2c <__rc28>
    12a6: 86 6a        	stx	$6a                     ; 0x6a <_col>
    12a8: 8e 14 d0     	stx	$d014                   ; 0xd014 <__heap_start+0x40fc>
    12ab: 9c 15 d0     	stz	$d015                   ; 0xd015 <__heap_start+0x40fd>
    12ae: 85 6b        	sta	$6b                     ; 0x6b <_row>
    12b0: 8d 16 d0     	sta	$d016                   ; 0xd016 <__heap_start+0x40fe>
    12b3: 9c 17 d0     	stz	$d017                   ; 0xd017 <__heap_start+0x40ff>
    12b6: a6 2f        	ldx	$2f                     ; 0x2f <__rc31>
    12b8: 84 2b        	sty	$2b                     ; 0x2b <__rc27>
    12ba: e4 25        	cpx	$25                     ; 0x25 <__rc21>
    12bc: d0 0e        	bne	$12cc <displayFileList_far+0x212>
    12be: 84 12        	sty	$12                     ; 0x12 <__rc2>
    12c0: a0 10        	ldy	#$10
    12c2: b1 10        	lda	($10),y                 ; 0x10 <__rc0>
    12c4: c5 12        	cmp	$12                     ; 0x12 <__rc2>
    12c6: d0 04        	bne	$12cc <displayFileList_far+0x212>
    12c8: a2 fa        	ldx	#$fa
    12ca: 80 02        	bra	$12ce <displayFileList_far+0x214>
    12cc: a2 20        	ldx	#$20
    12ce: 86 6c        	stx	$6c                     ; 0x6c <__putchar.s>
    12d0: a2 6c        	ldx	#$6c
    12d2: 86 12        	stx	$12                     ; 0x12 <__rc2>
    12d4: a2 00        	ldx	#$0
    12d6: 86 13        	stx	$13                     ; 0x13 <__rc3>
    12d8: 20 d1 6d     	jsr	$6dd1 <textPrint>
    12db: a5 2b        	lda	$2b                     ; 0x2b <__rc27>
    12dd: 0a           	asl
    12de: a6 25        	ldx	$25                     ; 0x25 <__rc21>
    12e0: 86 12        	stx	$12                     ; 0x12 <__rc2>
    12e2: 26 12        	rol	$12                     ; 0x12 <__rc2>
    12e4: 0a           	asl
    12e5: 26 12        	rol	$12                     ; 0x12 <__rc2>
    12e7: 0a           	asl
    12e8: 85 13        	sta	$13                     ; 0x13 <__rc3>
    12ea: 26 12        	rol	$12                     ; 0x12 <__rc2>
    12ec: 0a           	asl
    12ed: aa           	tax
    12ee: a5 12        	lda	$12                     ; 0x12 <__rc2>
    12f0: 2a           	rol
    12f1: 86 14        	stx	$14                     ; 0x14 <__rc4>
    12f3: 06 14        	asl	$14                     ; 0x14 <__rc4>
    12f5: 2a           	rol
    12f6: 06 14        	asl	$14                     ; 0x14 <__rc4>
    12f8: 2a           	rol
    12f9: 06 14        	asl	$14                     ; 0x14 <__rc4>
    12fb: 2a           	rol
    12fc: aa           	tax
    12fd: 38           	sec
    12fe: a5 14        	lda	$14                     ; 0x14 <__rc4>
    1300: e5 13        	sbc	$13                     ; 0x13 <__rc3>
    1302: 85 14        	sta	$14                     ; 0x14 <__rc4>
    1304: 8a           	txa
    1305: e5 12        	sbc	$12                     ; 0x12 <__rc2>
    1307: 85 15        	sta	$15                     ; 0x15 <__rc5>
    1309: 10 06        	bpl	$1311 <displayFileList_far+0x257>
    130b: a2 ff        	ldx	#$ff
    130d: 86 16        	stx	$16                     ; 0x16 <__rc6>
    130f: 80 02        	bra	$1313 <displayFileList_far+0x259>
    1311: 64 16        	stz	$16                     ; 0x16 <__rc6>
    1313: a0 00        	ldy	#$0
    1315: 84 12        	sty	$12                     ; 0x12 <__rc2>
    1317: a5 14        	lda	$14                     ; 0x14 <__rc4>
    1319: 18           	clc
    131a: 65 12        	adc	$12                     ; 0x12 <__rc2>
    131c: 85 12        	sta	$12                     ; 0x12 <__rc2>
    131e: a5 15        	lda	$15                     ; 0x15 <__rc5>
    1320: 69 00        	adc	#$0
    1322: 85 17        	sta	$17                     ; 0x17 <__rc7>
    1324: a5 16        	lda	$16                     ; 0x16 <__rc6>
    1326: 69 00        	adc	#$0
    1328: aa           	tax
    1329: 18           	clc
    132a: a5 12        	lda	$12                     ; 0x12 <__rc2>
    132c: 69 b6        	adc	#$b6
    132e: 85 13        	sta	$13                     ; 0x13 <__rc3>
    1330: a5 17        	lda	$17                     ; 0x17 <__rc7>
    1332: 69 00        	adc	#$0
    1334: 85 12        	sta	$12                     ; 0x12 <__rc2>
    1336: 8a           	txa
    1337: 69 03        	adc	#$3
    1339: 85 17        	sta	$17                     ; 0x17 <__rc7>
    133b: a5 12        	lda	$12                     ; 0x12 <__rc2>
    133d: 06 12        	asl	$12                     ; 0x12 <__rc2>
    133f: 26 17        	rol	$17                     ; 0x17 <__rc7>
    1341: 06 12        	asl	$12                     ; 0x12 <__rc2>
    1343: 26 17        	rol	$17                     ; 0x17 <__rc7>
    1345: 06 12        	asl	$12                     ; 0x12 <__rc2>
    1347: 26 17        	rol	$17                     ; 0x17 <__rc7>
    1349: a6 17        	ldx	$17                     ; 0x17 <__rc7>
    134b: 86 12        	stx	$12                     ; 0x12 <__rc2>
    134d: a6 0f        	ldx	$f                      ; 0xf <__data_size+0xf>
    134f: 86 17        	stx	$17                     ; 0x17 <__rc7>
    1351: 78           	sei
    1352: a6 12        	ldx	$12                     ; 0x12 <__rc2>
    1354: 86 0f        	stx	$f                      ; 0xf <__data_size+0xf>
    1356: 09 e0        	ora	#$e0
    1358: a6 13        	ldx	$13                     ; 0x13 <__rc3>
    135a: 86 12        	stx	$12                     ; 0x12 <__rc2>
    135c: 85 13        	sta	$13                     ; 0x13 <__rc3>
    135e: b2 12        	lda	($12)                   ; 0x12 <__rc2>
    1360: a6 17        	ldx	$17                     ; 0x17 <__rc7>
    1362: 86 0f        	stx	$f                      ; 0xf <__data_size+0xf>
    1364: 18           	clc
    1365: 48           	pha
    1366: a5 10        	lda	$10                     ; 0x10 <__rc0>
    1368: 69 11        	adc	#$11
    136a: 85 12        	sta	$12                     ; 0x12 <__rc2>
    136c: a5 11        	lda	$11                     ; 0x11 <__rc1>
    136e: 69 00        	adc	#$0
    1370: 85 13        	sta	$13                     ; 0x13 <__rc3>
    1372: 68           	pla
    1373: 58           	cli
    1374: 91 12        	sta	($12),y                 ; 0x12 <__rc2>
    1376: aa           	tax
    1377: f0 08        	beq	$1381 <displayFileList_far+0x2c7>
    1379: c8           	iny
    137a: c0 77        	cpy	#$77
    137c: f0 03        	beq	$1381 <displayFileList_far+0x2c7>
    137e: 4c 15 13     	jmp	$1315 <displayFileList_far+0x25b>
    1381: a0 77        	ldy	#$77
    1383: a9 00        	lda	#$0
    1385: 91 12        	sta	($12),y                 ; 0x12 <__rc2>
    1387: a5 25        	lda	$25                     ; 0x25 <__rc21>
    1389: 10 04        	bpl	$138f <displayFileList_far+0x2d5>
    138b: a0 ff        	ldy	#$ff
    138d: 80 02        	bra	$1391 <displayFileList_far+0x2d7>
    138f: a0 00        	ldy	#$0
    1391: a5 2b        	lda	$2b                     ; 0x2b <__rc27>
    1393: 18           	clc
    1394: 69 76        	adc	#$76
    1396: 85 13        	sta	$13                     ; 0x13 <__rc3>
    1398: a5 25        	lda	$25                     ; 0x25 <__rc21>
    139a: 69 5e        	adc	#$5e
    139c: 85 14        	sta	$14                     ; 0x14 <__rc4>
    139e: 98           	tya
    139f: 69 03        	adc	#$3
    13a1: a6 14        	ldx	$14                     ; 0x14 <__rc4>
    13a3: 86 12        	stx	$12                     ; 0x12 <__rc2>
    13a5: 06 12        	asl	$12                     ; 0x12 <__rc2>
    13a7: 2a           	rol
    13a8: 06 12        	asl	$12                     ; 0x12 <__rc2>
    13aa: 2a           	rol
    13ab: 06 12        	asl	$12                     ; 0x12 <__rc2>
    13ad: 2a           	rol
    13ae: a6 0f        	ldx	$f                      ; 0xf <__data_size+0xf>
    13b0: 78           	sei
    13b1: 85 0f        	sta	$f                      ; 0xf <__data_size+0xf>
    13b3: a4 13        	ldy	$13                     ; 0x13 <__rc3>
    13b5: 84 12        	sty	$12                     ; 0x12 <__rc2>
    13b7: a5 14        	lda	$14                     ; 0x14 <__rc4>
    13b9: 09 e0        	ora	#$e0
    13bb: 85 13        	sta	$13                     ; 0x13 <__rc3>
    13bd: b2 12        	lda	($12)                   ; 0x12 <__rc2>
    13bf: 86 0f        	stx	$f                      ; 0xf <__data_size+0xf>
    13c1: 58           	cli
    13c2: aa           	tax
    13c3: f0 08        	beq	$13cd <displayFileList_far+0x313>
    13c5: a2 c4        	ldx	#$c4
    13c7: 86 12        	stx	$12                     ; 0x12 <__rc2>
    13c9: a2 89        	ldx	#$89
    13cb: 80 06        	bra	$13d3 <displayFileList_far+0x319>
    13cd: a2 4b        	ldx	#$4b
    13cf: 86 12        	stx	$12                     ; 0x12 <__rc2>
    13d1: a2 89        	ldx	#$89
    13d3: 86 13        	stx	$13                     ; 0x13 <__rc3>
    13d5: a6 11        	ldx	$11                     ; 0x11 <__rc1>
    13d7: 18           	clc
    13d8: a5 10        	lda	$10                     ; 0x10 <__rc0>
    13da: 69 11        	adc	#$11
    13dc: 48           	pha
    13dd: a5 11        	lda	$11                     ; 0x11 <__rc1>
    13df: 69 00        	adc	#$0
    13e1: 85 16        	sta	$16                     ; 0x16 <__rc6>
    13e3: 68           	pla
    13e4: 92 10        	sta	($10)                   ; 0x10 <__rc0>
    13e6: a0 01        	ldy	#$1
    13e8: a5 16        	lda	$16                     ; 0x16 <__rc6>
    13ea: 91 10        	sta	($10),y                 ; 0x10 <__rc0>
    13ec: 84 16        	sty	$16                     ; 0x16 <__rc6>
    13ee: 18           	clc
    13ef: a5 10        	lda	$10                     ; 0x10 <__rc0>
    13f1: 69 02        	adc	#$2
    13f3: 85 14        	sta	$14                     ; 0x14 <__rc4>
    13f5: 8a           	txa
    13f6: 69 00        	adc	#$0
    13f8: 85 15        	sta	$15                     ; 0x15 <__rc5>
    13fa: a5 12        	lda	$12                     ; 0x12 <__rc2>
    13fc: c8           	iny
    13fd: 91 10        	sta	($10),y                 ; 0x10 <__rc0>
    13ff: a4 16        	ldy	$16                     ; 0x16 <__rc6>
    1401: a5 13        	lda	$13                     ; 0x13 <__rc3>
    1403: 91 14        	sta	($14),y                 ; 0x14 <__rc4>
    1405: a2 3c        	ldx	#$3c
    1407: 86 12        	stx	$12                     ; 0x12 <__rc2>
    1409: a2 89        	ldx	#$89
    140b: 86 13        	stx	$13                     ; 0x13 <__rc3>
    140d: 20 66 7f     	jsr	$7f66 <printf>
    1410: a6 25        	ldx	$25                     ; 0x25 <__rc21>
    1412: a4 2b        	ldy	$2b                     ; 0x2b <__rc27>
    1414: c8           	iny
    1415: d0 01        	bne	$1418 <displayFileList_far+0x35e>
    1417: e8           	inx
    1418: 86 25        	stx	$25                     ; 0x25 <__rc21>
    141a: e4 29        	cpx	$29                     ; 0x29 <__rc25>
    141c: f0 03        	beq	$1421 <displayFileList_far+0x367>
    141e: 4c 9d 12     	jmp	$129d <displayFileList_far+0x1e3>
    1421: 5a           	phy
    1422: a0 0e        	ldy	#$e
    1424: b1 10        	lda	($10),y                 ; 0x10 <__rc0>
    1426: 7a           	ply
    1427: 85 12        	sta	$12                     ; 0x12 <__rc2>
    1429: c4 12        	cpy	$12                     ; 0x12 <__rc2>
    142b: f0 03        	beq	$1430 <displayFileList_far+0x376>
    142d: 4c 9d 12     	jmp	$129d <displayFileList_far+0x1e3>
    1430: 18           	clc
    1431: a5 2c        	lda	$2c                     ; 0x2c <__rc28>
    1433: 69 02        	adc	#$2
    1435: aa           	tax
    1436: 38           	sec
    1437: a5 2d        	lda	$2d                     ; 0x2d <__rc29>
    1439: e5 26        	sbc	$26                     ; 0x26 <__rc22>
    143b: 85 12        	sta	$12                     ; 0x12 <__rc2>
    143d: a5 2a        	lda	$2a                     ; 0x2a <__rc26>
    143f: 18           	clc
    1440: 65 12        	adc	$12                     ; 0x12 <__rc2>
    1442: 86 6a        	stx	$6a                     ; 0x6a <_col>
    1444: 8e 14 d0     	stx	$d014                   ; 0xd014 <__heap_start+0x40fc>
    1447: 9c 15 d0     	stz	$d015                   ; 0xd015 <__heap_start+0x40fd>
    144a: 85 6b        	sta	$6b                     ; 0x6b <_row>
    144c: 8d 16 d0     	sta	$d016                   ; 0xd016 <__heap_start+0x40fe>
    144f: 9c 17 d0     	stz	$d017                   ; 0xd017 <__heap_start+0x40ff>
    1452: a0 10        	ldy	#$10
    1454: b1 10        	lda	($10),y                 ; 0x10 <__rc0>
    1456: aa           	tax
    1457: 18           	clc
    1458: 69 10        	adc	#$10
    145a: 85 13        	sta	$13                     ; 0x13 <__rc3>
    145c: a5 2f        	lda	$2f                     ; 0x2f <__rc31>
    145e: 69 00        	adc	#$0
    1460: 85 12        	sta	$12                     ; 0x12 <__rc2>
    1462: 38           	sec
    1463: a5 13        	lda	$13                     ; 0x13 <__rc3>
    1465: e5 28        	sbc	$28                     ; 0x28 <__rc24>
    1467: 85 17        	sta	$17                     ; 0x17 <__rc7>
    1469: a5 12        	lda	$12                     ; 0x12 <__rc2>
    146b: e5 27        	sbc	$27                     ; 0x27 <__rc23>
    146d: a4 2f        	ldy	$2f                     ; 0x2f <__rc31>
    146f: d0 04        	bne	$1475 <displayFileList_far+0x3bb>
    1471: e0 0f        	cpx	#$f
    1473: 80 04        	bra	$1479 <displayFileList_far+0x3bf>
    1475: a4 2f        	ldy	$2f                     ; 0x2f <__rc31>
    1477: c0 00        	cpy	#$0
    1479: a2 fb        	ldx	#$fb
    147b: 86 16        	stx	$16                     ; 0x16 <__rc6>
    147d: 48           	pha
    147e: a0 0f        	ldy	#$f
    1480: b1 10        	lda	($10),y                 ; 0x10 <__rc0>
    1482: 85 12        	sta	$12                     ; 0x12 <__rc2>
    1484: 68           	pla
    1485: b0 04        	bcs	$148b <displayFileList_far+0x3d1>
    1487: a2 20        	ldx	#$20
    1489: 86 16        	stx	$16                     ; 0x16 <__rc6>
    148b: c5 2e        	cmp	$2e                     ; 0x2e <__rc30>
    148d: d0 0a        	bne	$1499 <displayFileList_far+0x3df>
    148f: a5 17        	lda	$17                     ; 0x17 <__rc7>
    1491: c5 12        	cmp	$12                     ; 0x12 <__rc2>
    1493: 90 08        	bcc	$149d <displayFileList_far+0x3e3>
    1495: a2 20        	ldx	#$20
    1497: 80 06        	bra	$149f <displayFileList_far+0x3e5>
    1499: c5 2e        	cmp	$2e                     ; 0x2e <__rc30>
    149b: b0 f8        	bcs	$1495 <displayFileList_far+0x3db>
    149d: a2 f8        	ldx	#$f8
    149f: 64 12        	stz	$12                     ; 0x12 <__rc2>
    14a1: a5 16        	lda	$16                     ; 0x16 <__rc6>
    14a3: 92 10        	sta	($10)                   ; 0x10 <__rc0>
    14a5: a0 01        	ldy	#$1
    14a7: a9 00        	lda	#$0
    14a9: 91 10        	sta	($10),y                 ; 0x10 <__rc0>
    14ab: c8           	iny
    14ac: 8a           	txa
    14ad: 91 10        	sta	($10),y                 ; 0x10 <__rc0>
    14af: c8           	iny
    14b0: a9 00        	lda	#$0
    14b2: 91 10        	sta	($10),y                 ; 0x10 <__rc0>
    14b4: a2 7f        	ldx	#$7f
    14b6: 86 12        	stx	$12                     ; 0x12 <__rc2>
    14b8: a2 8b        	ldx	#$8b
    14ba: 86 13        	stx	$13                     ; 0x13 <__rc3>
    14bc: 20 66 7f     	jsr	$7f66 <printf>
    14bf: a0 06        	ldy	#$6
    14c1: b1 10        	lda	($10),y                 ; 0x10 <__rc0>
    14c3: 85 2f        	sta	$2f                     ; 0x2f <__rc31>
    14c5: c8           	iny
    14c6: b1 10        	lda	($10),y                 ; 0x10 <__rc0>
    14c8: 85 2e        	sta	$2e                     ; 0x2e <__rc30>
    14ca: c8           	iny
    14cb: b1 10        	lda	($10),y                 ; 0x10 <__rc0>
    14cd: 85 2d        	sta	$2d                     ; 0x2d <__rc29>
    14cf: c8           	iny
    14d0: b1 10        	lda	($10),y                 ; 0x10 <__rc0>
    14d2: 85 2c        	sta	$2c                     ; 0x2c <__rc28>
    14d4: c8           	iny
    14d5: b1 10        	lda	($10),y                 ; 0x10 <__rc0>
    14d7: 85 2b        	sta	$2b                     ; 0x2b <__rc27>
    14d9: c8           	iny
    14da: b1 10        	lda	($10),y                 ; 0x10 <__rc0>
    14dc: 85 2a        	sta	$2a                     ; 0x2a <__rc26>
    14de: c8           	iny
    14df: b1 10        	lda	($10),y                 ; 0x10 <__rc0>
    14e1: 85 29        	sta	$29                     ; 0x29 <__rc25>
    14e3: c8           	iny
    14e4: b1 10        	lda	($10),y                 ; 0x10 <__rc0>
    14e6: 85 28        	sta	$28                     ; 0x28 <__rc24>
    14e8: fa           	plx
    14e9: 86 27        	stx	$27                     ; 0x27 <__rc23>
    14eb: fa           	plx
    14ec: 86 26        	stx	$26                     ; 0x26 <__rc22>
    14ee: fa           	plx
    14ef: 86 25        	stx	$25                     ; 0x25 <__rc21>
    14f1: fa           	plx
    14f2: 86 24        	stx	$24                     ; 0x24 <__rc20>
    14f4: 18           	clc
    14f5: a5 10        	lda	$10                     ; 0x10 <__rc0>
    14f7: 69 01        	adc	#$1
    14f9: 85 10        	sta	$10                     ; 0x10 <__rc0>
    14fb: a5 11        	lda	$11                     ; 0x11 <__rc1>
    14fd: 69 01        	adc	#$1
    14ff: 85 11        	sta	$11                     ; 0x11 <__rc1>
    1501: 60           	rts
    1502: a9 fa        	lda	#$fa
    1504: 4c 15 12     	jmp	$1215 <displayFileList_far+0x15b>

00001507 <pickFile_far>:
    1507: 18           	clc
    1508: a5 10        	lda	$10                     ; 0x10 <__rc0>
    150a: 69 a2        	adc	#$a2
    150c: 85 10        	sta	$10                     ; 0x10 <__rc0>
    150e: a5 11        	lda	$11                     ; 0x11 <__rc1>
    1510: 69 ff        	adc	#$ff
    1512: 85 11        	sta	$11                     ; 0x11 <__rc1>
    1514: a6 24        	ldx	$24                     ; 0x24 <__rc20>
    1516: da           	phx
    1517: a6 25        	ldx	$25                     ; 0x25 <__rc21>
    1519: da           	phx
    151a: a6 26        	ldx	$26                     ; 0x26 <__rc22>
    151c: da           	phx
    151d: a6 27        	ldx	$27                     ; 0x27 <__rc23>
    151f: da           	phx
    1520: a5 28        	lda	$28                     ; 0x28 <__rc24>
    1522: a0 05        	ldy	#$5
    1524: 91 10        	sta	($10),y                 ; 0x10 <__rc0>
    1526: a5 29        	lda	$29                     ; 0x29 <__rc25>
    1528: 88           	dey
    1529: 91 10        	sta	($10),y                 ; 0x10 <__rc0>
    152b: a5 2a        	lda	$2a                     ; 0x2a <__rc26>
    152d: 88           	dey
    152e: 91 10        	sta	($10),y                 ; 0x10 <__rc0>
    1530: a5 2b        	lda	$2b                     ; 0x2b <__rc27>
    1532: 88           	dey
    1533: 91 10        	sta	($10),y                 ; 0x10 <__rc0>
    1535: a2 08        	ldx	#$8
    1537: 86 28        	stx	$28                     ; 0x28 <__rc24>
    1539: a2 00        	ldx	#$0
    153b: 86 29        	stx	$29                     ; 0x29 <__rc25>
    153d: 64 62        	stz	$62                     ; 0x62 <kernelEventData>
    153f: 18           	clc
    1540: a5 10        	lda	$10                     ; 0x10 <__rc0>
    1542: 69 5b        	adc	#$5b
    1544: 85 12        	sta	$12                     ; 0x12 <__rc2>
    1546: a5 11        	lda	$11                     ; 0x11 <__rc1>
    1548: 69 00        	adc	#$0
    154a: 85 13        	sta	$13                     ; 0x13 <__rc3>
    154c: a2 69        	ldx	#$69
    154e: 86 14        	stx	$14                     ; 0x14 <__rc4>
    1550: a2 00        	ldx	#$0
    1552: 86 15        	stx	$15                     ; 0x15 <__rc5>
    1554: 20 00 ff     	jsr	$ff00 <__heap_start+0x6fe8>
    1557: 92 12        	sta	($12)                   ; 0x12 <__rc2>
    1559: a9 00        	lda	#$0
    155b: 6a           	ror
    155c: 85 14        	sta	$14                     ; 0x14 <__rc4>
    155e: b2 12        	lda	($12)                   ; 0x12 <__rc2>
    1560: 18           	clc
    1561: 48           	pha
    1562: a5 10        	lda	$10                     ; 0x10 <__rc0>
    1564: 69 5a        	adc	#$5a
    1566: 85 12        	sta	$12                     ; 0x12 <__rc2>
    1568: a5 11        	lda	$11                     ; 0x11 <__rc1>
    156a: 69 00        	adc	#$0
    156c: 85 13        	sta	$13                     ; 0x13 <__rc3>
    156e: 68           	pla
    156f: 92 12        	sta	($12)                   ; 0x12 <__rc2>
    1571: b2 12        	lda	($12)                   ; 0x12 <__rc2>
    1573: 18           	clc
    1574: 48           	pha
    1575: a5 10        	lda	$10                     ; 0x10 <__rc0>
    1577: 69 5c        	adc	#$5c
    1579: 85 12        	sta	$12                     ; 0x12 <__rc2>
    157b: a5 11        	lda	$11                     ; 0x11 <__rc1>
    157d: 69 00        	adc	#$0
    157f: 85 13        	sta	$13                     ; 0x13 <__rc3>
    1581: 68           	pla
    1582: 92 12        	sta	($12)                   ; 0x12 <__rc2>
    1584: a6 62        	ldx	$62                     ; 0x62 <kernelEventData>
    1586: a0 00        	ldy	#$0
    1588: c4 29        	cpy	$29                     ; 0x29 <__rc25>
    158a: f0 02        	beq	$158e <pickFile_far+0x87>
    158c: 80 0d        	bra	$159b <pickFile_far+0x94>
    158e: e4 28        	cpx	$28                     ; 0x28 <__rc24>
    1590: f0 02        	beq	$1594 <pickFile_far+0x8d>
    1592: 80 02        	bra	$1596 <pickFile_far+0x8f>
    1594: 80 03        	bra	$1599 <pickFile_far+0x92>
    1596: 4c eb 24     	jmp	$24eb <pickFile_far+0xfe4>
    1599: 80 03        	bra	$159e <pickFile_far+0x97>
    159b: 4c eb 24     	jmp	$24eb <pickFile_far+0xfe4>
    159e: 80 00        	bra	$15a0 <pickFile_far+0x99>
    15a0: a5 66        	lda	$66                     ; 0x66 <kernelEventData+0x4>
    15a2: 18           	clc
    15a3: 69 6e        	adc	#$6e
    15a5: aa           	tax
    15a6: a9 00        	lda	#$0
    15a8: 69 ff        	adc	#$ff
    15aa: c9 00        	cmp	#$0
    15ac: a0 01        	ldy	#$1
    15ae: b0 02        	bcs	$15b2 <pickFile_far+0xab>
    15b0: a0 00        	ldy	#$0
    15b2: 84 12        	sty	$12                     ; 0x12 <__rc2>
    15b4: a8           	tay
    15b5: f0 02        	beq	$15b9 <pickFile_far+0xb2>
    15b7: 80 08        	bra	$15c1 <pickFile_far+0xba>
    15b9: 8a           	txa
    15ba: c9 28        	cmp	#$28
    15bc: 90 0b        	bcc	$15c9 <pickFile_far+0xc2>
    15be: 4c eb 24     	jmp	$24eb <pickFile_far+0xfe4>
    15c1: 8a           	txa
    15c2: a6 12        	ldx	$12                     ; 0x12 <__rc2>
    15c4: f0 03        	beq	$15c9 <pickFile_far+0xc2>
    15c6: 4c eb 24     	jmp	$24eb <pickFile_far+0xfe4>
    15c9: 0a           	asl
    15ca: aa           	tax
    15cb: 7c 0c 85     	jmp	($850c,x)               ; 0x850c <__BLOCK_SIZE+0x650c>
    15ce: 18           	clc
    15cf: a5 10        	lda	$10                     ; 0x10 <__rc0>
    15d1: 69 5d        	adc	#$5d
    15d3: 85 12        	sta	$12                     ; 0x12 <__rc2>
    15d5: a5 11        	lda	$11                     ; 0x11 <__rc1>
    15d7: 69 00        	adc	#$0
    15d9: 85 13        	sta	$13                     ; 0x13 <__rc3>
    15db: a9 03        	lda	#$3
    15dd: 92 12        	sta	($12)                   ; 0x12 <__rc2>
    15df: 4c ee 24     	jmp	$24ee <pickFile_far+0xfe7>
    15e2: a9 42        	lda	#$42
    15e4: a2 5f        	ldx	#$5f
    15e6: a0 03        	ldy	#$3
    15e8: 64 13        	stz	$13                     ; 0x13 <__rc3>
    15ea: 84 12        	sty	$12                     ; 0x12 <__rc2>
    15ec: 20 f9 45     	jsr	$45f9 <FAR_PEEKW>
    15ef: 18           	clc
    15f0: 48           	pha
    15f1: a5 10        	lda	$10                     ; 0x10 <__rc0>
    15f3: 69 58        	adc	#$58
    15f5: 85 12        	sta	$12                     ; 0x12 <__rc2>
    15f7: a5 11        	lda	$11                     ; 0x11 <__rc1>
    15f9: 69 00        	adc	#$0
    15fb: 85 13        	sta	$13                     ; 0x13 <__rc3>
    15fd: 68           	pla
    15fe: 92 12        	sta	($12)                   ; 0x12 <__rc2>
    1600: a0 01        	ldy	#$1
    1602: 8a           	txa
    1603: 91 12        	sta	($12),y                 ; 0x12 <__rc2>
    1605: b2 12        	lda	($12)                   ; 0x12 <__rc2>
    1607: 85 14        	sta	$14                     ; 0x14 <__rc4>
    1609: b1 12        	lda	($12),y                 ; 0x12 <__rc2>
    160b: 85 12        	sta	$12                     ; 0x12 <__rc2>
    160d: a2 01        	ldx	#$1
    160f: a5 14        	lda	$14                     ; 0x14 <__rc4>
    1611: 0a           	asl
    1612: 26 12        	rol	$12                     ; 0x12 <__rc2>
    1614: 0a           	asl
    1615: 26 12        	rol	$12                     ; 0x12 <__rc2>
    1617: a4 12        	ldy	$12                     ; 0x12 <__rc2>
    1619: 84 13        	sty	$13                     ; 0x13 <__rc3>
    161b: 85 12        	sta	$12                     ; 0x12 <__rc2>
    161d: 06 12        	asl	$12                     ; 0x12 <__rc2>
    161f: 26 13        	rol	$13                     ; 0x13 <__rc3>
    1621: a5 12        	lda	$12                     ; 0x12 <__rc2>
    1623: 0a           	asl
    1624: a4 13        	ldy	$13                     ; 0x13 <__rc3>
    1626: 84 14        	sty	$14                     ; 0x14 <__rc4>
    1628: 26 14        	rol	$14                     ; 0x14 <__rc4>
    162a: 0a           	asl
    162b: 26 14        	rol	$14                     ; 0x14 <__rc4>
    162d: 0a           	asl
    162e: 26 14        	rol	$14                     ; 0x14 <__rc4>
    1630: 0a           	asl
    1631: 26 14        	rol	$14                     ; 0x14 <__rc4>
    1633: 38           	sec
    1634: e5 12        	sbc	$12                     ; 0x12 <__rc2>
    1636: a8           	tay
    1637: a5 14        	lda	$14                     ; 0x14 <__rc4>
    1639: e5 13        	sbc	$13                     ; 0x13 <__rc3>
    163b: 85 14        	sta	$14                     ; 0x14 <__rc4>
    163d: 18           	clc
    163e: a5 10        	lda	$10                     ; 0x10 <__rc0>
    1640: 69 54        	adc	#$54
    1642: 85 12        	sta	$12                     ; 0x12 <__rc2>
    1644: a5 11        	lda	$11                     ; 0x11 <__rc1>
    1646: 69 00        	adc	#$0
    1648: 85 13        	sta	$13                     ; 0x13 <__rc3>
    164a: 18           	clc
    164b: 98           	tya
    164c: 69 b6        	adc	#$b6
    164e: 85 16        	sta	$16                     ; 0x16 <__rc6>
    1650: a5 14        	lda	$14                     ; 0x14 <__rc4>
    1652: 69 00        	adc	#$0
    1654: 85 17        	sta	$17                     ; 0x17 <__rc7>
    1656: a9 00        	lda	#$0
    1658: 69 03        	adc	#$3
    165a: a0 01        	ldy	#$1
    165c: b0 02        	bcs	$1660 <pickFile_far+0x159>
    165e: a0 00        	ldy	#$0
    1660: 84 18        	sty	$18                     ; 0x18 <__rc8>
    1662: a0 02        	ldy	#$2
    1664: 91 12        	sta	($12),y                 ; 0x12 <__rc2>
    1666: 18           	clc
    1667: a5 10        	lda	$10                     ; 0x10 <__rc0>
    1669: 69 50        	adc	#$50
    166b: 85 14        	sta	$14                     ; 0x14 <__rc4>
    166d: a5 11        	lda	$11                     ; 0x11 <__rc1>
    166f: 69 00        	adc	#$0
    1671: 85 15        	sta	$15                     ; 0x15 <__rc5>
    1673: a9 03        	lda	#$3
    1675: 91 14        	sta	($14),y                 ; 0x14 <__rc4>
    1677: a9 00        	lda	#$0
    1679: a4 18        	ldy	$18                     ; 0x18 <__rc8>
    167b: c0 01        	cpy	#$1
    167d: 69 00        	adc	#$0
    167f: 85 18        	sta	$18                     ; 0x18 <__rc8>
    1681: a5 16        	lda	$16                     ; 0x16 <__rc6>
    1683: 92 12        	sta	($12)                   ; 0x12 <__rc2>
    1685: a0 01        	ldy	#$1
    1687: a5 17        	lda	$17                     ; 0x17 <__rc7>
    1689: 91 12        	sta	($12),y                 ; 0x12 <__rc2>
    168b: 86 17        	stx	$17                     ; 0x17 <__rc7>
    168d: a2 03        	ldx	#$3
    168f: 86 16        	stx	$16                     ; 0x16 <__rc6>
    1691: a5 18        	lda	$18                     ; 0x18 <__rc8>
    1693: a4 16        	ldy	$16                     ; 0x16 <__rc6>
    1695: 91 12        	sta	($12),y                 ; 0x12 <__rc2>
    1697: a9 3e        	lda	#$3e
    1699: 92 14        	sta	($14)                   ; 0x14 <__rc4>
    169b: a9 00        	lda	#$0
    169d: 91 14        	sta	($14),y                 ; 0x14 <__rc4>
    169f: 18           	clc
    16a0: 48           	pha
    16a1: a5 10        	lda	$10                     ; 0x10 <__rc0>
    16a3: 69 4e        	adc	#$4e
    16a5: 85 12        	sta	$12                     ; 0x12 <__rc2>
    16a7: a5 11        	lda	$11                     ; 0x11 <__rc1>
    16a9: 69 00        	adc	#$0
    16ab: 85 13        	sta	$13                     ; 0x13 <__rc3>
    16ad: 68           	pla
    16ae: a4 17        	ldy	$17                     ; 0x17 <__rc7>
    16b0: 91 14        	sta	($14),y                 ; 0x14 <__rc4>
    16b2: 91 12        	sta	($12),y                 ; 0x12 <__rc2>
    16b4: 92 12        	sta	($12)                   ; 0x12 <__rc2>
    16b6: 18           	clc
    16b7: a5 10        	lda	$10                     ; 0x10 <__rc0>
    16b9: 69 4e        	adc	#$4e
    16bb: 85 12        	sta	$12                     ; 0x12 <__rc2>
    16bd: a5 11        	lda	$11                     ; 0x11 <__rc1>
    16bf: 69 00        	adc	#$0
    16c1: 85 13        	sta	$13                     ; 0x13 <__rc3>
    16c3: b2 12        	lda	($12)                   ; 0x12 <__rc2>
    16c5: 85 14        	sta	$14                     ; 0x14 <__rc4>
    16c7: a0 01        	ldy	#$1
    16c9: b1 12        	lda	($12),y                 ; 0x12 <__rc2>
    16cb: a6 14        	ldx	$14                     ; 0x14 <__rc4>
    16cd: e0 78        	cpx	#$78
    16cf: e9 00        	sbc	#$0
    16d1: 70 02        	bvs	$16d5 <pickFile_far+0x1ce>
    16d3: 80 04        	bra	$16d9 <pickFile_far+0x1d2>
    16d5: 49 80        	eor	#$80
    16d7: 80 02        	bra	$16db <pickFile_far+0x1d4>
    16d9: 80 00        	bra	$16db <pickFile_far+0x1d4>
    16db: aa           	tax
    16dc: 30 22        	bmi	$1700 <pickFile_far+0x1f9>
    16de: 80 00        	bra	$16e0 <pickFile_far+0x1d9>
    16e0: 18           	clc
    16e1: a5 10        	lda	$10                     ; 0x10 <__rc0>
    16e3: 69 4a        	adc	#$4a
    16e5: 85 12        	sta	$12                     ; 0x12 <__rc2>
    16e7: a5 11        	lda	$11                     ; 0x11 <__rc1>
    16e9: 69 00        	adc	#$0
    16eb: 85 13        	sta	$13                     ; 0x13 <__rc3>
    16ed: a9 05        	lda	#$5
    16ef: 92 12        	sta	($12)                   ; 0x12 <__rc2>
    16f1: a0 01        	ldy	#$1
    16f3: a9 00        	lda	#$0
    16f5: 91 12        	sta	($12),y                 ; 0x12 <__rc2>
    16f7: c8           	iny
    16f8: 91 12        	sta	($12),y                 ; 0x12 <__rc2>
    16fa: c8           	iny
    16fb: 91 12        	sta	($12),y                 ; 0x12 <__rc2>
    16fd: 4c 93 18     	jmp	$1893 <pickFile_far+0x38c>
    1700: 18           	clc
    1701: a5 10        	lda	$10                     ; 0x10 <__rc0>
    1703: 69 54        	adc	#$54
    1705: 85 14        	sta	$14                     ; 0x14 <__rc4>
    1707: a5 11        	lda	$11                     ; 0x11 <__rc1>
    1709: 69 00        	adc	#$0
    170b: 85 15        	sta	$15                     ; 0x15 <__rc5>
    170d: b2 14        	lda	($14)                   ; 0x14 <__rc4>
    170f: 85 18        	sta	$18                     ; 0x18 <__rc8>
    1711: a0 01        	ldy	#$1
    1713: b1 14        	lda	($14),y                 ; 0x14 <__rc4>
    1715: a2 01        	ldx	#$1
    1717: 86 13        	stx	$13                     ; 0x13 <__rc3>
    1719: 85 19        	sta	$19                     ; 0x19 <__rc9>
    171b: c8           	iny
    171c: b1 14        	lda	($14),y                 ; 0x14 <__rc4>
    171e: 85 1a        	sta	$1a                     ; 0x1a <__rc10>
    1720: 18           	clc
    1721: a5 10        	lda	$10                     ; 0x10 <__rc0>
    1723: 69 4e        	adc	#$4e
    1725: 85 16        	sta	$16                     ; 0x16 <__rc6>
    1727: a5 11        	lda	$11                     ; 0x11 <__rc1>
    1729: 69 00        	adc	#$0
    172b: 85 17        	sta	$17                     ; 0x17 <__rc7>
    172d: b2 16        	lda	($16)                   ; 0x16 <__rc6>
    172f: 85 12        	sta	$12                     ; 0x12 <__rc2>
    1731: a4 13        	ldy	$13                     ; 0x13 <__rc3>
    1733: b1 16        	lda	($16),y                 ; 0x16 <__rc6>
    1735: 85 13        	sta	$13                     ; 0x13 <__rc3>
    1737: a0 03        	ldy	#$3
    1739: 64 24        	stz	$24                     ; 0x24 <__rc20>
    173b: b1 14        	lda	($14),y                 ; 0x14 <__rc4>
    173d: a2 ff        	ldx	#$ff
    173f: a4 13        	ldy	$13                     ; 0x13 <__rc3>
    1741: 30 02        	bmi	$1745 <pickFile_far+0x23e>
    1743: 80 08        	bra	$174d <pickFile_far+0x246>
    1745: 85 15        	sta	$15                     ; 0x15 <__rc5>
    1747: 86 25        	stx	$25                     ; 0x25 <__rc21>
    1749: 86 14        	stx	$14                     ; 0x14 <__rc4>
    174b: 80 0a        	bra	$1757 <pickFile_far+0x250>
    174d: 85 15        	sta	$15                     ; 0x15 <__rc5>
    174f: a2 ff        	ldx	#$ff
    1751: 86 25        	stx	$25                     ; 0x25 <__rc21>
    1753: 64 14        	stz	$14                     ; 0x14 <__rc4>
    1755: 80 00        	bra	$1757 <pickFile_far+0x250>
    1757: 18           	clc
    1758: a5 18        	lda	$18                     ; 0x18 <__rc8>
    175a: 65 12        	adc	$12                     ; 0x12 <__rc2>
    175c: a8           	tay
    175d: a5 19        	lda	$19                     ; 0x19 <__rc9>
    175f: 65 13        	adc	$13                     ; 0x13 <__rc3>
    1761: aa           	tax
    1762: a5 1a        	lda	$1a                     ; 0x1a <__rc10>
    1764: 65 14        	adc	$14                     ; 0x14 <__rc4>
    1766: 85 12        	sta	$12                     ; 0x12 <__rc2>
    1768: a5 15        	lda	$15                     ; 0x15 <__rc5>
    176a: 65 14        	adc	$14                     ; 0x14 <__rc4>
    176c: 85 13        	sta	$13                     ; 0x13 <__rc3>
    176e: 98           	tya
    176f: 20 d8 45     	jsr	$45d8 <FAR_PEEK>
    1772: 18           	clc
    1773: 48           	pha
    1774: a5 10        	lda	$10                     ; 0x10 <__rc0>
    1776: 69 49        	adc	#$49
    1778: 85 12        	sta	$12                     ; 0x12 <__rc2>
    177a: a5 11        	lda	$11                     ; 0x11 <__rc1>
    177c: 69 00        	adc	#$0
    177e: 85 13        	sta	$13                     ; 0x13 <__rc3>
    1780: 68           	pla
    1781: 92 12        	sta	($12)                   ; 0x12 <__rc2>
    1783: 18           	clc
    1784: a5 10        	lda	$10                     ; 0x10 <__rc0>
    1786: 69 50        	adc	#$50
    1788: 85 14        	sta	$14                     ; 0x14 <__rc4>
    178a: a5 11        	lda	$11                     ; 0x11 <__rc1>
    178c: 69 00        	adc	#$0
    178e: 85 15        	sta	$15                     ; 0x15 <__rc5>
    1790: b2 14        	lda	($14)                   ; 0x14 <__rc4>
    1792: aa           	tax
    1793: a0 02        	ldy	#$2
    1795: b1 14        	lda	($14),y                 ; 0x14 <__rc4>
    1797: 85 18        	sta	$18                     ; 0x18 <__rc8>
    1799: c8           	iny
    179a: b1 14        	lda	($14),y                 ; 0x14 <__rc4>
    179c: 85 19        	sta	$19                     ; 0x19 <__rc9>
    179e: 18           	clc
    179f: a5 10        	lda	$10                     ; 0x10 <__rc0>
    17a1: 69 4e        	adc	#$4e
    17a3: 85 16        	sta	$16                     ; 0x16 <__rc6>
    17a5: a5 11        	lda	$11                     ; 0x11 <__rc1>
    17a7: 69 00        	adc	#$0
    17a9: 85 17        	sta	$17                     ; 0x17 <__rc7>
    17ab: b2 16        	lda	($16)                   ; 0x16 <__rc6>
    17ad: 85 12        	sta	$12                     ; 0x12 <__rc2>
    17af: a0 01        	ldy	#$1
    17b1: b1 14        	lda	($14),y                 ; 0x14 <__rc4>
    17b3: 85 14        	sta	$14                     ; 0x14 <__rc4>
    17b5: b1 16        	lda	($16),y                 ; 0x16 <__rc6>
    17b7: 85 13        	sta	$13                     ; 0x13 <__rc3>
    17b9: a5 13        	lda	$13                     ; 0x13 <__rc3>
    17bb: 30 02        	bmi	$17bf <pickFile_far+0x2b8>
    17bd: 80 06        	bra	$17c5 <pickFile_far+0x2be>
    17bf: a4 25        	ldy	$25                     ; 0x25 <__rc21>
    17c1: 84 24        	sty	$24                     ; 0x24 <__rc20>
    17c3: 80 02        	bra	$17c7 <pickFile_far+0x2c0>
    17c5: 80 00        	bra	$17c7 <pickFile_far+0x2c0>
    17c7: 18           	clc
    17c8: 8a           	txa
    17c9: 65 12        	adc	$12                     ; 0x12 <__rc2>
    17cb: a8           	tay
    17cc: a5 14        	lda	$14                     ; 0x14 <__rc4>
    17ce: 65 13        	adc	$13                     ; 0x13 <__rc3>
    17d0: aa           	tax
    17d1: a5 18        	lda	$18                     ; 0x18 <__rc8>
    17d3: 65 24        	adc	$24                     ; 0x24 <__rc20>
    17d5: 85 12        	sta	$12                     ; 0x12 <__rc2>
    17d7: a5 19        	lda	$19                     ; 0x19 <__rc9>
    17d9: 65 24        	adc	$24                     ; 0x24 <__rc20>
    17db: 85 13        	sta	$13                     ; 0x13 <__rc3>
    17dd: 18           	clc
    17de: a5 10        	lda	$10                     ; 0x10 <__rc0>
    17e0: 69 49        	adc	#$49
    17e2: 85 24        	sta	$24                     ; 0x24 <__rc20>
    17e4: a5 11        	lda	$11                     ; 0x11 <__rc1>
    17e6: 69 00        	adc	#$0
    17e8: 85 25        	sta	$25                     ; 0x25 <__rc21>
    17ea: b2 24        	lda	($24)                   ; 0x24 <__rc20>
    17ec: 85 14        	sta	$14                     ; 0x14 <__rc4>
    17ee: 98           	tya
    17ef: 20 23 46     	jsr	$4623 <FAR_POKE>
    17f2: b2 24        	lda	($24)                   ; 0x24 <__rc20>
    17f4: d0 21        	bne	$1817 <pickFile_far+0x310>
    17f6: 80 00        	bra	$17f8 <pickFile_far+0x2f1>
    17f8: 18           	clc
    17f9: a5 10        	lda	$10                     ; 0x10 <__rc0>
    17fb: 69 4a        	adc	#$4a
    17fd: 85 12        	sta	$12                     ; 0x12 <__rc2>
    17ff: a5 11        	lda	$11                     ; 0x11 <__rc1>
    1801: 69 00        	adc	#$0
    1803: 85 13        	sta	$13                     ; 0x13 <__rc3>
    1805: a9 05        	lda	#$5
    1807: 92 12        	sta	($12)                   ; 0x12 <__rc2>
    1809: a0 01        	ldy	#$1
    180b: a9 00        	lda	#$0
    180d: 91 12        	sta	($12),y                 ; 0x12 <__rc2>
    180f: c8           	iny
    1810: 91 12        	sta	($12),y                 ; 0x12 <__rc2>
    1812: c8           	iny
    1813: 91 12        	sta	($12),y                 ; 0x12 <__rc2>
    1815: 80 1d        	bra	$1834 <pickFile_far+0x32d>
    1817: a9 00        	lda	#$0
    1819: 18           	clc
    181a: 48           	pha
    181b: a5 10        	lda	$10                     ; 0x10 <__rc0>
    181d: 69 4a        	adc	#$4a
    181f: 85 12        	sta	$12                     ; 0x12 <__rc2>
    1821: a5 11        	lda	$11                     ; 0x11 <__rc1>
    1823: 69 00        	adc	#$0
    1825: 85 13        	sta	$13                     ; 0x13 <__rc3>
    1827: 68           	pla
    1828: 92 12        	sta	($12)                   ; 0x12 <__rc2>
    182a: a0 01        	ldy	#$1
    182c: 91 12        	sta	($12),y                 ; 0x12 <__rc2>
    182e: c8           	iny
    182f: 91 12        	sta	($12),y                 ; 0x12 <__rc2>
    1831: c8           	iny
    1832: 91 12        	sta	($12),y                 ; 0x12 <__rc2>
    1834: 18           	clc
    1835: a5 10        	lda	$10                     ; 0x10 <__rc0>
    1837: 69 4a        	adc	#$4a
    1839: 85 12        	sta	$12                     ; 0x12 <__rc2>
    183b: a5 11        	lda	$11                     ; 0x11 <__rc1>
    183d: 69 00        	adc	#$0
    183f: 85 13        	sta	$13                     ; 0x13 <__rc3>
    1841: b2 12        	lda	($12)                   ; 0x12 <__rc2>
    1843: 85 14        	sta	$14                     ; 0x14 <__rc4>
    1845: a0 01        	ldy	#$1
    1847: b1 12        	lda	($12),y                 ; 0x12 <__rc2>
    1849: 85 15        	sta	$15                     ; 0x15 <__rc5>
    184b: c8           	iny
    184c: b1 12        	lda	($12),y                 ; 0x12 <__rc2>
    184e: 85 16        	sta	$16                     ; 0x16 <__rc6>
    1850: c8           	iny
    1851: b1 12        	lda	($12),y                 ; 0x12 <__rc2>
    1853: d0 3e        	bne	$1893 <pickFile_far+0x38c>
    1855: 80 00        	bra	$1857 <pickFile_far+0x350>
    1857: a5 16        	lda	$16                     ; 0x16 <__rc6>
    1859: d0 38        	bne	$1893 <pickFile_far+0x38c>
    185b: 80 00        	bra	$185d <pickFile_far+0x356>
    185d: a5 15        	lda	$15                     ; 0x15 <__rc5>
    185f: d0 32        	bne	$1893 <pickFile_far+0x38c>
    1861: 80 00        	bra	$1863 <pickFile_far+0x35c>
    1863: a5 14        	lda	$14                     ; 0x14 <__rc4>
    1865: d0 2c        	bne	$1893 <pickFile_far+0x38c>
    1867: 80 00        	bra	$1869 <pickFile_far+0x362>
    1869: 18           	clc
    186a: a5 10        	lda	$10                     ; 0x10 <__rc0>
    186c: 69 4e        	adc	#$4e
    186e: 85 12        	sta	$12                     ; 0x12 <__rc2>
    1870: a5 11        	lda	$11                     ; 0x11 <__rc1>
    1872: 69 00        	adc	#$0
    1874: 85 13        	sta	$13                     ; 0x13 <__rc3>
    1876: b2 12        	lda	($12)                   ; 0x12 <__rc2>
    1878: aa           	tax
    1879: a0 01        	ldy	#$1
    187b: b1 12        	lda	($12),y                 ; 0x12 <__rc2>
    187d: e8           	inx
    187e: f0 03        	beq	$1883 <pickFile_far+0x37c>
    1880: 4c 87 18     	jmp	$1887 <pickFile_far+0x380>
    1883: 1a           	inc
    1884: 4c 87 18     	jmp	$1887 <pickFile_far+0x380>
    1887: 85 14        	sta	$14                     ; 0x14 <__rc4>
    1889: 8a           	txa
    188a: 92 12        	sta	($12)                   ; 0x12 <__rc2>
    188c: a5 14        	lda	$14                     ; 0x14 <__rc4>
    188e: 91 12        	sta	($12),y                 ; 0x12 <__rc2>
    1890: 4c b6 16     	jmp	$16b6 <pickFile_far+0x1af>
    1893: a9 46        	lda	#$46
    1895: a2 5f        	ldx	#$5f
    1897: a0 03        	ldy	#$3
    1899: 64 13        	stz	$13                     ; 0x13 <__rc3>
    189b: 84 12        	sty	$12                     ; 0x12 <__rc2>
    189d: 20 f9 45     	jsr	$45f9 <FAR_PEEKW>
    18a0: 18           	clc
    18a1: 48           	pha
    18a2: a5 10        	lda	$10                     ; 0x10 <__rc0>
    18a4: 69 47        	adc	#$47
    18a6: 85 12        	sta	$12                     ; 0x12 <__rc2>
    18a8: a5 11        	lda	$11                     ; 0x11 <__rc1>
    18aa: 69 00        	adc	#$0
    18ac: 85 13        	sta	$13                     ; 0x13 <__rc3>
    18ae: 68           	pla
    18af: 92 12        	sta	($12)                   ; 0x12 <__rc2>
    18b1: a0 01        	ldy	#$1
    18b3: 8a           	txa
    18b4: 91 12        	sta	($12),y                 ; 0x12 <__rc2>
    18b6: b2 12        	lda	($12)                   ; 0x12 <__rc2>
    18b8: 85 14        	sta	$14                     ; 0x14 <__rc4>
    18ba: b1 12        	lda	($12),y                 ; 0x12 <__rc2>
    18bc: d0 39        	bne	$18f7 <pickFile_far+0x3f0>
    18be: 80 00        	bra	$18c0 <pickFile_far+0x3b9>
    18c0: a5 14        	lda	$14                     ; 0x14 <__rc4>
    18c2: d0 33        	bne	$18f7 <pickFile_far+0x3f0>
    18c4: 80 00        	bra	$18c6 <pickFile_far+0x3bf>
    18c6: 18           	clc
    18c7: a5 10        	lda	$10                     ; 0x10 <__rc0>
    18c9: 69 5d        	adc	#$5d
    18cb: 85 12        	sta	$12                     ; 0x12 <__rc2>
    18cd: a5 11        	lda	$11                     ; 0x11 <__rc1>
    18cf: 69 00        	adc	#$0
    18d1: 85 13        	sta	$13                     ; 0x13 <__rc3>
    18d3: a9 00        	lda	#$0
    18d5: 92 12        	sta	($12)                   ; 0x12 <__rc2>
    18d7: 18           	clc
    18d8: a5 10        	lda	$10                     ; 0x10 <__rc0>
    18da: 69 4a        	adc	#$4a
    18dc: 85 12        	sta	$12                     ; 0x12 <__rc2>
    18de: a5 11        	lda	$11                     ; 0x11 <__rc1>
    18e0: 69 00        	adc	#$0
    18e2: 85 13        	sta	$13                     ; 0x13 <__rc3>
    18e4: a9 01        	lda	#$1
    18e6: 92 12        	sta	($12)                   ; 0x12 <__rc2>
    18e8: a8           	tay
    18e9: 3a           	dec
    18ea: 91 12        	sta	($12),y                 ; 0x12 <__rc2>
    18ec: c8           	iny
    18ed: 91 12        	sta	($12),y                 ; 0x12 <__rc2>
    18ef: a9 00        	lda	#$0
    18f1: c8           	iny
    18f2: 91 12        	sta	($12),y                 ; 0x12 <__rc2>
    18f4: 4c 9c 19     	jmp	$199c <pickFile_far+0x495>
    18f7: 18           	clc
    18f8: a5 10        	lda	$10                     ; 0x10 <__rc0>
    18fa: 69 58        	adc	#$58
    18fc: 85 12        	sta	$12                     ; 0x12 <__rc2>
    18fe: a5 11        	lda	$11                     ; 0x11 <__rc1>
    1900: 69 00        	adc	#$0
    1902: 85 13        	sta	$13                     ; 0x13 <__rc3>
    1904: b2 12        	lda	($12)                   ; 0x12 <__rc2>
    1906: 85 14        	sta	$14                     ; 0x14 <__rc4>
    1908: a0 01        	ldy	#$1
    190a: b1 12        	lda	($12),y                 ; 0x12 <__rc2>
    190c: 85 12        	sta	$12                     ; 0x12 <__rc2>
    190e: 18           	clc
    190f: a5 14        	lda	$14                     ; 0x14 <__rc4>
    1911: 69 76        	adc	#$76
    1913: a8           	tay
    1914: a5 12        	lda	$12                     ; 0x12 <__rc2>
    1916: 69 5e        	adc	#$5e
    1918: aa           	tax
    1919: a9 00        	lda	#$0
    191b: 69 03        	adc	#$3
    191d: 85 12        	sta	$12                     ; 0x12 <__rc2>
    191f: a9 00        	lda	#$0
    1921: 69 00        	adc	#$0
    1923: 85 13        	sta	$13                     ; 0x13 <__rc3>
    1925: 98           	tya
    1926: 20 d8 45     	jsr	$45d8 <FAR_PEEK>
    1929: 18           	clc
    192a: 48           	pha
    192b: a5 10        	lda	$10                     ; 0x10 <__rc0>
    192d: 69 46        	adc	#$46
    192f: 85 12        	sta	$12                     ; 0x12 <__rc2>
    1931: a5 11        	lda	$11                     ; 0x11 <__rc1>
    1933: 69 00        	adc	#$0
    1935: 85 13        	sta	$13                     ; 0x13 <__rc3>
    1937: 68           	pla
    1938: 92 12        	sta	($12)                   ; 0x12 <__rc2>
    193a: b2 12        	lda	($12)                   ; 0x12 <__rc2>
    193c: f0 32        	beq	$1970 <pickFile_far+0x469>
    193e: 80 00        	bra	$1940 <pickFile_far+0x439>
    1940: 18           	clc
    1941: a5 10        	lda	$10                     ; 0x10 <__rc0>
    1943: 69 5d        	adc	#$5d
    1945: 85 12        	sta	$12                     ; 0x12 <__rc2>
    1947: a5 11        	lda	$11                     ; 0x11 <__rc1>
    1949: 69 00        	adc	#$0
    194b: 85 13        	sta	$13                     ; 0x13 <__rc3>
    194d: a9 01        	lda	#$1
    194f: 92 12        	sta	($12)                   ; 0x12 <__rc2>
    1951: 18           	clc
    1952: 48           	pha
    1953: a5 10        	lda	$10                     ; 0x10 <__rc0>
    1955: 69 4a        	adc	#$4a
    1957: 85 12        	sta	$12                     ; 0x12 <__rc2>
    1959: a5 11        	lda	$11                     ; 0x11 <__rc1>
    195b: 69 00        	adc	#$0
    195d: 85 13        	sta	$13                     ; 0x13 <__rc3>
    195f: 68           	pla
    1960: 92 12        	sta	($12)                   ; 0x12 <__rc2>
    1962: a0 01        	ldy	#$1
    1964: a9 00        	lda	#$0
    1966: 91 12        	sta	($12),y                 ; 0x12 <__rc2>
    1968: c8           	iny
    1969: 91 12        	sta	($12),y                 ; 0x12 <__rc2>
    196b: c8           	iny
    196c: 91 12        	sta	($12),y                 ; 0x12 <__rc2>
    196e: 80 2c        	bra	$199c <pickFile_far+0x495>
    1970: 18           	clc
    1971: a5 10        	lda	$10                     ; 0x10 <__rc0>
    1973: 69 5d        	adc	#$5d
    1975: 85 12        	sta	$12                     ; 0x12 <__rc2>
    1977: a5 11        	lda	$11                     ; 0x11 <__rc1>
    1979: 69 00        	adc	#$0
    197b: 85 13        	sta	$13                     ; 0x13 <__rc3>
    197d: a9 02        	lda	#$2
    197f: 92 12        	sta	($12)                   ; 0x12 <__rc2>
    1981: 18           	clc
    1982: a5 10        	lda	$10                     ; 0x10 <__rc0>
    1984: 69 4a        	adc	#$4a
    1986: 85 12        	sta	$12                     ; 0x12 <__rc2>
    1988: a5 11        	lda	$11                     ; 0x11 <__rc1>
    198a: 69 00        	adc	#$0
    198c: 85 13        	sta	$13                     ; 0x13 <__rc3>
    198e: a9 01        	lda	#$1
    1990: 92 12        	sta	($12)                   ; 0x12 <__rc2>
    1992: a8           	tay
    1993: 3a           	dec
    1994: 91 12        	sta	($12),y                 ; 0x12 <__rc2>
    1996: c8           	iny
    1997: 91 12        	sta	($12),y                 ; 0x12 <__rc2>
    1999: c8           	iny
    199a: 91 12        	sta	($12),y                 ; 0x12 <__rc2>
    199c: 4c ee 24     	jmp	$24ee <pickFile_far+0xfe7>
    199f: a9 42        	lda	#$42
    19a1: a2 03        	ldx	#$3
    19a3: 86 12        	stx	$12                     ; 0x12 <__rc2>
    19a5: 86 24        	stx	$24                     ; 0x24 <__rc20>
    19a7: 64 13        	stz	$13                     ; 0x13 <__rc3>
    19a9: a2 5f        	ldx	#$5f
    19ab: 20 f9 45     	jsr	$45f9 <FAR_PEEKW>
    19ae: 18           	clc
    19af: 48           	pha
    19b0: a5 10        	lda	$10                     ; 0x10 <__rc0>
    19b2: 69 44        	adc	#$44
    19b4: 85 26        	sta	$26                     ; 0x26 <__rc22>
    19b6: a5 11        	lda	$11                     ; 0x11 <__rc1>
    19b8: 69 00        	adc	#$0
    19ba: 85 27        	sta	$27                     ; 0x27 <__rc23>
    19bc: 68           	pla
    19bd: 92 26        	sta	($26)                   ; 0x26 <__rc22>
    19bf: a0 01        	ldy	#$1
    19c1: 8a           	txa
    19c2: 91 26        	sta	($26),y                 ; 0x26 <__rc22>
    19c4: a2 01        	ldx	#$1
    19c6: 86 25        	stx	$25                     ; 0x25 <__rc21>
    19c8: a9 46        	lda	#$46
    19ca: a6 24        	ldx	$24                     ; 0x24 <__rc20>
    19cc: 86 12        	stx	$12                     ; 0x12 <__rc2>
    19ce: 64 13        	stz	$13                     ; 0x13 <__rc3>
    19d0: a2 5f        	ldx	#$5f
    19d2: 20 f9 45     	jsr	$45f9 <FAR_PEEKW>
    19d5: 18           	clc
    19d6: 48           	pha
    19d7: a5 10        	lda	$10                     ; 0x10 <__rc0>
    19d9: 69 42        	adc	#$42
    19db: 85 12        	sta	$12                     ; 0x12 <__rc2>
    19dd: a5 11        	lda	$11                     ; 0x11 <__rc1>
    19df: 69 00        	adc	#$0
    19e1: 85 13        	sta	$13                     ; 0x13 <__rc3>
    19e3: 68           	pla
    19e4: 92 12        	sta	($12)                   ; 0x12 <__rc2>
    19e6: a4 25        	ldy	$25                     ; 0x25 <__rc21>
    19e8: 8a           	txa
    19e9: 91 12        	sta	($12),y                 ; 0x12 <__rc2>
    19eb: a9 4a        	lda	#$4a
    19ed: a6 24        	ldx	$24                     ; 0x24 <__rc20>
    19ef: 86 12        	stx	$12                     ; 0x12 <__rc2>
    19f1: 64 13        	stz	$13                     ; 0x13 <__rc3>
    19f3: a2 5f        	ldx	#$5f
    19f5: 20 f9 45     	jsr	$45f9 <FAR_PEEKW>
    19f8: 18           	clc
    19f9: 48           	pha
    19fa: a5 10        	lda	$10                     ; 0x10 <__rc0>
    19fc: 69 40        	adc	#$40
    19fe: 85 12        	sta	$12                     ; 0x12 <__rc2>
    1a00: a5 11        	lda	$11                     ; 0x11 <__rc1>
    1a02: 69 00        	adc	#$0
    1a04: 85 13        	sta	$13                     ; 0x13 <__rc3>
    1a06: 68           	pla
    1a07: 92 12        	sta	($12)                   ; 0x12 <__rc2>
    1a09: a4 25        	ldy	$25                     ; 0x25 <__rc21>
    1a0b: 8a           	txa
    1a0c: 91 12        	sta	($12),y                 ; 0x12 <__rc2>
    1a0e: a6 24        	ldx	$24                     ; 0x24 <__rc20>
    1a10: 86 12        	stx	$12                     ; 0x12 <__rc2>
    1a12: 64 13        	stz	$13                     ; 0x13 <__rc3>
    1a14: a2 00        	ldx	#$0
    1a16: 8a           	txa
    1a17: 20 d8 45     	jsr	$45d8 <FAR_PEEK>
    1a1a: 18           	clc
    1a1b: 48           	pha
    1a1c: a5 10        	lda	$10                     ; 0x10 <__rc0>
    1a1e: 69 3f        	adc	#$3f
    1a20: 85 12        	sta	$12                     ; 0x12 <__rc2>
    1a22: a5 11        	lda	$11                     ; 0x11 <__rc1>
    1a24: 69 00        	adc	#$0
    1a26: 85 13        	sta	$13                     ; 0x13 <__rc3>
    1a28: 68           	pla
    1a29: 92 12        	sta	($12)                   ; 0x12 <__rc2>
    1a2b: a6 24        	ldx	$24                     ; 0x24 <__rc20>
    1a2d: 86 12        	stx	$12                     ; 0x12 <__rc2>
    1a2f: 64 13        	stz	$13                     ; 0x13 <__rc3>
    1a31: a2 00        	ldx	#$0
    1a33: a5 25        	lda	$25                     ; 0x25 <__rc21>
    1a35: 20 d8 45     	jsr	$45d8 <FAR_PEEK>
    1a38: 18           	clc
    1a39: 48           	pha
    1a3a: a5 10        	lda	$10                     ; 0x10 <__rc0>
    1a3c: 69 3e        	adc	#$3e
    1a3e: 85 12        	sta	$12                     ; 0x12 <__rc2>
    1a40: a5 11        	lda	$11                     ; 0x11 <__rc1>
    1a42: 69 00        	adc	#$0
    1a44: 85 13        	sta	$13                     ; 0x13 <__rc3>
    1a46: 68           	pla
    1a47: 92 12        	sta	($12)                   ; 0x12 <__rc2>
    1a49: b2 26        	lda	($26)                   ; 0x26 <__rc22>
    1a4b: 85 12        	sta	$12                     ; 0x12 <__rc2>
    1a4d: a4 25        	ldy	$25                     ; 0x25 <__rc21>
    1a4f: b1 26        	lda	($26),y                 ; 0x26 <__rc22>
    1a51: c9 00        	cmp	#$0
    1a53: a2 01        	ldx	#$1
    1a55: b0 02        	bcs	$1a59 <pickFile_far+0x552>
    1a57: a2 00        	ldx	#$0
    1a59: 86 13        	stx	$13                     ; 0x13 <__rc3>
    1a5b: aa           	tax
    1a5c: f0 02        	beq	$1a60 <pickFile_far+0x559>
    1a5e: 80 09        	bra	$1a69 <pickFile_far+0x562>
    1a60: a6 12        	ldx	$12                     ; 0x12 <__rc2>
    1a62: e0 01        	cpx	#$1
    1a64: b0 0a        	bcs	$1a70 <pickFile_far+0x569>
    1a66: 4c ae 1c     	jmp	$1cae <pickFile_far+0x7a7>
    1a69: a5 13        	lda	$13                     ; 0x13 <__rc3>
    1a6b: d0 03        	bne	$1a70 <pickFile_far+0x569>
    1a6d: 4c ae 1c     	jmp	$1cae <pickFile_far+0x7a7>
    1a70: 80 00        	bra	$1a72 <pickFile_far+0x56b>
    1a72: 18           	clc
    1a73: a5 10        	lda	$10                     ; 0x10 <__rc0>
    1a75: 69 42        	adc	#$42
    1a77: 85 12        	sta	$12                     ; 0x12 <__rc2>
    1a79: a5 11        	lda	$11                     ; 0x11 <__rc1>
    1a7b: 69 00        	adc	#$0
    1a7d: 85 13        	sta	$13                     ; 0x13 <__rc3>
    1a7f: b2 12        	lda	($12)                   ; 0x12 <__rc2>
    1a81: 85 14        	sta	$14                     ; 0x14 <__rc4>
    1a83: a0 01        	ldy	#$1
    1a85: b1 12        	lda	($12),y                 ; 0x12 <__rc2>
    1a87: c9 00        	cmp	#$0
    1a89: a2 01        	ldx	#$1
    1a8b: b0 02        	bcs	$1a8f <pickFile_far+0x588>
    1a8d: a2 00        	ldx	#$0
    1a8f: 86 12        	stx	$12                     ; 0x12 <__rc2>
    1a91: aa           	tax
    1a92: f0 02        	beq	$1a96 <pickFile_far+0x58f>
    1a94: 80 09        	bra	$1a9f <pickFile_far+0x598>
    1a96: a6 14        	ldx	$14                     ; 0x14 <__rc4>
    1a98: e0 01        	cpx	#$1
    1a9a: b0 0a        	bcs	$1aa6 <pickFile_far+0x59f>
    1a9c: 4c 95 1b     	jmp	$1b95 <pickFile_far+0x68e>
    1a9f: a5 12        	lda	$12                     ; 0x12 <__rc2>
    1aa1: d0 03        	bne	$1aa6 <pickFile_far+0x59f>
    1aa3: 4c 95 1b     	jmp	$1b95 <pickFile_far+0x68e>
    1aa6: 80 00        	bra	$1aa8 <pickFile_far+0x5a1>
    1aa8: 18           	clc
    1aa9: a5 10        	lda	$10                     ; 0x10 <__rc0>
    1aab: 69 3f        	adc	#$3f
    1aad: 85 24        	sta	$24                     ; 0x24 <__rc20>
    1aaf: a5 11        	lda	$11                     ; 0x11 <__rc1>
    1ab1: 69 00        	adc	#$0
    1ab3: 85 25        	sta	$25                     ; 0x25 <__rc21>
    1ab5: b2 24        	lda	($24)                   ; 0x24 <__rc20>
    1ab7: a8           	tay
    1ab8: 18           	clc
    1ab9: a5 10        	lda	$10                     ; 0x10 <__rc0>
    1abb: 69 3e        	adc	#$3e
    1abd: 85 2a        	sta	$2a                     ; 0x2a <__rc26>
    1abf: a5 11        	lda	$11                     ; 0x11 <__rc1>
    1ac1: 69 00        	adc	#$0
    1ac3: 85 2b        	sta	$2b                     ; 0x2b <__rc27>
    1ac5: 18           	clc
    1ac6: a5 10        	lda	$10                     ; 0x10 <__rc0>
    1ac8: 69 42        	adc	#$42
    1aca: 85 26        	sta	$26                     ; 0x26 <__rc22>
    1acc: a5 11        	lda	$11                     ; 0x11 <__rc1>
    1ace: 69 00        	adc	#$0
    1ad0: 85 27        	sta	$27                     ; 0x27 <__rc23>
    1ad2: b2 26        	lda	($26)                   ; 0x26 <__rc22>
    1ad4: 18           	clc
    1ad5: 72 2a        	adc	($2a)                   ; 0x2a <__rc26>
    1ad7: aa           	tax
    1ad8: 98           	tya
    1ad9: 20 c0 6d     	jsr	$6dc0 <textGotoXY>
    1adc: a9 20        	lda	#$20
    1ade: 92 10        	sta	($10)                   ; 0x10 <__rc0>
    1ae0: a0 01        	ldy	#$1
    1ae2: a9 00        	lda	#$0
    1ae4: 91 10        	sta	($10),y                 ; 0x10 <__rc0>
    1ae6: a2 e7        	ldx	#$e7
    1ae8: 86 12        	stx	$12                     ; 0x12 <__rc2>
    1aea: a2 8a        	ldx	#$8a
    1aec: 86 13        	stx	$13                     ; 0x13 <__rc3>
    1aee: a5 12        	lda	$12                     ; 0x12 <__rc2>
    1af0: a0 0a        	ldy	#$a
    1af2: 91 10        	sta	($10),y                 ; 0x10 <__rc0>
    1af4: a5 13        	lda	$13                     ; 0x13 <__rc3>
    1af6: c8           	iny
    1af7: 91 10        	sta	($10),y                 ; 0x10 <__rc0>
    1af9: 20 66 7f     	jsr	$7f66 <printf>
    1afc: 18           	clc
    1afd: a5 10        	lda	$10                     ; 0x10 <__rc0>
    1aff: 69 44        	adc	#$44
    1b01: 85 12        	sta	$12                     ; 0x12 <__rc2>
    1b03: a5 11        	lda	$11                     ; 0x11 <__rc1>
    1b05: 69 00        	adc	#$0
    1b07: 85 13        	sta	$13                     ; 0x13 <__rc3>
    1b09: b2 12        	lda	($12)                   ; 0x12 <__rc2>
    1b0b: aa           	tax
    1b0c: a0 01        	ldy	#$1
    1b0e: b1 12        	lda	($12),y                 ; 0x12 <__rc2>
    1b10: 85 14        	sta	$14                     ; 0x14 <__rc4>
    1b12: 8a           	txa
    1b13: 3a           	dec
    1b14: c9 ff        	cmp	#$ff
    1b16: f0 03        	beq	$1b1b <pickFile_far+0x614>
    1b18: 4c 20 1b     	jmp	$1b20 <pickFile_far+0x619>
    1b1b: c6 14        	dec	$14                     ; 0x14 <__rc4>
    1b1d: 4c 20 1b     	jmp	$1b20 <pickFile_far+0x619>
    1b20: 92 12        	sta	($12)                   ; 0x12 <__rc2>
    1b22: a5 14        	lda	$14                     ; 0x14 <__rc4>
    1b24: 91 12        	sta	($12),y                 ; 0x12 <__rc2>
    1b26: b2 26        	lda	($26)                   ; 0x26 <__rc22>
    1b28: aa           	tax
    1b29: b1 26        	lda	($26),y                 ; 0x26 <__rc22>
    1b2b: 85 14        	sta	$14                     ; 0x14 <__rc4>
    1b2d: 8a           	txa
    1b2e: 3a           	dec
    1b2f: c9 ff        	cmp	#$ff
    1b31: f0 03        	beq	$1b36 <pickFile_far+0x62f>
    1b33: 4c 3b 1b     	jmp	$1b3b <pickFile_far+0x634>
    1b36: c6 14        	dec	$14                     ; 0x14 <__rc4>
    1b38: 4c 3b 1b     	jmp	$1b3b <pickFile_far+0x634>
    1b3b: 92 26        	sta	($26)                   ; 0x26 <__rc22>
    1b3d: a5 14        	lda	$14                     ; 0x14 <__rc4>
    1b3f: 91 26        	sta	($26),y                 ; 0x26 <__rc22>
    1b41: b2 12        	lda	($12)                   ; 0x12 <__rc2>
    1b43: 85 14        	sta	$14                     ; 0x14 <__rc4>
    1b45: b1 12        	lda	($12),y                 ; 0x12 <__rc2>
    1b47: a2 03        	ldx	#$3
    1b49: 86 12        	stx	$12                     ; 0x12 <__rc2>
    1b4b: 64 13        	stz	$13                     ; 0x13 <__rc3>
    1b4d: 85 15        	sta	$15                     ; 0x15 <__rc5>
    1b4f: a2 5f        	ldx	#$5f
    1b51: a9 42        	lda	#$42
    1b53: 20 46 46     	jsr	$4646 <FAR_POKEW>
    1b56: b2 26        	lda	($26)                   ; 0x26 <__rc22>
    1b58: 85 14        	sta	$14                     ; 0x14 <__rc4>
    1b5a: a0 01        	ldy	#$1
    1b5c: b1 26        	lda	($26),y                 ; 0x26 <__rc22>
    1b5e: a2 03        	ldx	#$3
    1b60: 86 12        	stx	$12                     ; 0x12 <__rc2>
    1b62: 64 13        	stz	$13                     ; 0x13 <__rc3>
    1b64: 85 15        	sta	$15                     ; 0x15 <__rc5>
    1b66: a2 5f        	ldx	#$5f
    1b68: a9 46        	lda	#$46
    1b6a: 20 46 46     	jsr	$4646 <FAR_POKEW>
    1b6d: b2 24        	lda	($24)                   ; 0x24 <__rc20>
    1b6f: a8           	tay
    1b70: b2 26        	lda	($26)                   ; 0x26 <__rc22>
    1b72: 18           	clc
    1b73: 72 2a        	adc	($2a)                   ; 0x2a <__rc26>
    1b75: aa           	tax
    1b76: 98           	tya
    1b77: 20 c0 6d     	jsr	$6dc0 <textGotoXY>
    1b7a: a9 fa        	lda	#$fa
    1b7c: 92 10        	sta	($10)                   ; 0x10 <__rc0>
    1b7e: a9 00        	lda	#$0
    1b80: a0 01        	ldy	#$1
    1b82: 91 10        	sta	($10),y                 ; 0x10 <__rc0>
    1b84: a0 0a        	ldy	#$a
    1b86: b1 10        	lda	($10),y                 ; 0x10 <__rc0>
    1b88: 85 12        	sta	$12                     ; 0x12 <__rc2>
    1b8a: c8           	iny
    1b8b: b1 10        	lda	($10),y                 ; 0x10 <__rc0>
    1b8d: 85 13        	sta	$13                     ; 0x13 <__rc3>
    1b8f: 20 66 7f     	jsr	$7f66 <printf>
    1b92: 4c ae 1c     	jmp	$1cae <pickFile_far+0x7a7>
    1b95: 18           	clc
    1b96: a5 10        	lda	$10                     ; 0x10 <__rc0>
    1b98: 69 3f        	adc	#$3f
    1b9a: 85 12        	sta	$12                     ; 0x12 <__rc2>
    1b9c: a5 11        	lda	$11                     ; 0x11 <__rc1>
    1b9e: 69 00        	adc	#$0
    1ba0: 85 13        	sta	$13                     ; 0x13 <__rc3>
    1ba2: a5 12        	lda	$12                     ; 0x12 <__rc2>
    1ba4: a0 18        	ldy	#$18
    1ba6: 91 10        	sta	($10),y                 ; 0x10 <__rc0>
    1ba8: a5 13        	lda	$13                     ; 0x13 <__rc3>
    1baa: c8           	iny
    1bab: 91 10        	sta	($10),y                 ; 0x10 <__rc0>
    1bad: b2 12        	lda	($12)                   ; 0x12 <__rc2>
    1baf: a8           	tay
    1bb0: 18           	clc
    1bb1: 5a           	phy
    1bb2: a5 10        	lda	$10                     ; 0x10 <__rc0>
    1bb4: 69 3e        	adc	#$3e
    1bb6: 85 12        	sta	$12                     ; 0x12 <__rc2>
    1bb8: a5 11        	lda	$11                     ; 0x11 <__rc1>
    1bba: 69 00        	adc	#$0
    1bbc: 85 13        	sta	$13                     ; 0x13 <__rc3>
    1bbe: a5 12        	lda	$12                     ; 0x12 <__rc2>
    1bc0: a0 06        	ldy	#$6
    1bc2: 91 10        	sta	($10),y                 ; 0x10 <__rc0>
    1bc4: a5 13        	lda	$13                     ; 0x13 <__rc3>
    1bc6: c8           	iny
    1bc7: 91 10        	sta	($10),y                 ; 0x10 <__rc0>
    1bc9: 7a           	ply
    1bca: 18           	clc
    1bcb: a5 10        	lda	$10                     ; 0x10 <__rc0>
    1bcd: 69 42        	adc	#$42
    1bcf: 85 26        	sta	$26                     ; 0x26 <__rc22>
    1bd1: a5 11        	lda	$11                     ; 0x11 <__rc1>
    1bd3: 69 00        	adc	#$0
    1bd5: 85 27        	sta	$27                     ; 0x27 <__rc23>
    1bd7: b2 26        	lda	($26)                   ; 0x26 <__rc22>
    1bd9: 18           	clc
    1bda: 72 12        	adc	($12)                   ; 0x12 <__rc2>
    1bdc: aa           	tax
    1bdd: 98           	tya
    1bde: 20 c0 6d     	jsr	$6dc0 <textGotoXY>
    1be1: a9 20        	lda	#$20
    1be3: 92 10        	sta	($10)                   ; 0x10 <__rc0>
    1be5: a0 01        	ldy	#$1
    1be7: a9 00        	lda	#$0
    1be9: 91 10        	sta	($10),y                 ; 0x10 <__rc0>
    1beb: a2 e7        	ldx	#$e7
    1bed: 86 12        	stx	$12                     ; 0x12 <__rc2>
    1bef: a2 8a        	ldx	#$8a
    1bf1: 86 13        	stx	$13                     ; 0x13 <__rc3>
    1bf3: a5 12        	lda	$12                     ; 0x12 <__rc2>
    1bf5: a0 10        	ldy	#$10
    1bf7: 91 10        	sta	($10),y                 ; 0x10 <__rc0>
    1bf9: a5 13        	lda	$13                     ; 0x13 <__rc3>
    1bfb: c8           	iny
    1bfc: 91 10        	sta	($10),y                 ; 0x10 <__rc0>
    1bfe: 20 66 7f     	jsr	$7f66 <printf>
    1c01: a9 0f        	lda	#$f
    1c03: 92 26        	sta	($26)                   ; 0x26 <__rc22>
    1c05: a9 00        	lda	#$0
    1c07: a0 01        	ldy	#$1
    1c09: 91 26        	sta	($26),y                 ; 0x26 <__rc22>
    1c0b: 18           	clc
    1c0c: a5 10        	lda	$10                     ; 0x10 <__rc0>
    1c0e: 69 40        	adc	#$40
    1c10: 85 24        	sta	$24                     ; 0x24 <__rc20>
    1c12: a5 11        	lda	$11                     ; 0x11 <__rc1>
    1c14: 69 00        	adc	#$0
    1c16: 85 25        	sta	$25                     ; 0x25 <__rc21>
    1c18: b2 24        	lda	($24)                   ; 0x24 <__rc20>
    1c1a: 85 13        	sta	$13                     ; 0x13 <__rc3>
    1c1c: b1 24        	lda	($24),y                 ; 0x24 <__rc20>
    1c1e: 85 12        	sta	$12                     ; 0x12 <__rc2>
    1c20: 18           	clc
    1c21: a5 13        	lda	$13                     ; 0x13 <__rc3>
    1c23: 69 f1        	adc	#$f1
    1c25: 85 13        	sta	$13                     ; 0x13 <__rc3>
    1c27: a5 12        	lda	$12                     ; 0x12 <__rc2>
    1c29: 69 ff        	adc	#$ff
    1c2b: aa           	tax
    1c2c: a5 13        	lda	$13                     ; 0x13 <__rc3>
    1c2e: 92 24        	sta	($24)                   ; 0x24 <__rc20>
    1c30: 8a           	txa
    1c31: 91 24        	sta	($24),y                 ; 0x24 <__rc20>
    1c33: b2 26        	lda	($26)                   ; 0x26 <__rc22>
    1c35: 85 14        	sta	$14                     ; 0x14 <__rc4>
    1c37: b1 26        	lda	($26),y                 ; 0x26 <__rc22>
    1c39: a2 03        	ldx	#$3
    1c3b: 86 12        	stx	$12                     ; 0x12 <__rc2>
    1c3d: 86 2a        	stx	$2a                     ; 0x2a <__rc26>
    1c3f: 64 13        	stz	$13                     ; 0x13 <__rc3>
    1c41: 85 15        	sta	$15                     ; 0x15 <__rc5>
    1c43: a2 5f        	ldx	#$5f
    1c45: a9 46        	lda	#$46
    1c47: 20 46 46     	jsr	$4646 <FAR_POKEW>
    1c4a: b2 24        	lda	($24)                   ; 0x24 <__rc20>
    1c4c: 85 14        	sta	$14                     ; 0x14 <__rc4>
    1c4e: a0 01        	ldy	#$1
    1c50: b1 24        	lda	($24),y                 ; 0x24 <__rc20>
    1c52: a6 2a        	ldx	$2a                     ; 0x2a <__rc26>
    1c54: 86 12        	stx	$12                     ; 0x12 <__rc2>
    1c56: 64 13        	stz	$13                     ; 0x13 <__rc3>
    1c58: 85 15        	sta	$15                     ; 0x15 <__rc5>
    1c5a: a2 5f        	ldx	#$5f
    1c5c: a9 4a        	lda	#$4a
    1c5e: 20 46 46     	jsr	$4646 <FAR_POKEW>
    1c61: b2 24        	lda	($24)                   ; 0x24 <__rc20>
    1c63: 85 12        	sta	$12                     ; 0x12 <__rc2>
    1c65: a0 01        	ldy	#$1
    1c67: b1 24        	lda	($24),y                 ; 0x24 <__rc20>
    1c69: aa           	tax
    1c6a: a5 12        	lda	$12                     ; 0x12 <__rc2>
    1c6c: 20 ba 10     	jsr	$10ba <displayFileList_far>
    1c6f: a0 18        	ldy	#$18
    1c71: b1 10        	lda	($10),y                 ; 0x10 <__rc0>
    1c73: 85 12        	sta	$12                     ; 0x12 <__rc2>
    1c75: c8           	iny
    1c76: b1 10        	lda	($10),y                 ; 0x10 <__rc0>
    1c78: 85 13        	sta	$13                     ; 0x13 <__rc3>
    1c7a: b2 12        	lda	($12)                   ; 0x12 <__rc2>
    1c7c: a8           	tay
    1c7d: b2 26        	lda	($26)                   ; 0x26 <__rc22>
    1c7f: 18           	clc
    1c80: 48           	pha
    1c81: 5a           	phy
    1c82: a0 06        	ldy	#$6
    1c84: b1 10        	lda	($10),y                 ; 0x10 <__rc0>
    1c86: 85 12        	sta	$12                     ; 0x12 <__rc2>
    1c88: c8           	iny
    1c89: b1 10        	lda	($10),y                 ; 0x10 <__rc0>
    1c8b: 7a           	ply
    1c8c: 85 13        	sta	$13                     ; 0x13 <__rc3>
    1c8e: 68           	pla
    1c8f: 72 12        	adc	($12)                   ; 0x12 <__rc2>
    1c91: aa           	tax
    1c92: 98           	tya
    1c93: 20 c0 6d     	jsr	$6dc0 <textGotoXY>
    1c96: a9 fa        	lda	#$fa
    1c98: 92 10        	sta	($10)                   ; 0x10 <__rc0>
    1c9a: a9 00        	lda	#$0
    1c9c: a0 01        	ldy	#$1
    1c9e: 91 10        	sta	($10),y                 ; 0x10 <__rc0>
    1ca0: a0 10        	ldy	#$10
    1ca2: b1 10        	lda	($10),y                 ; 0x10 <__rc0>
    1ca4: 85 12        	sta	$12                     ; 0x12 <__rc2>
    1ca6: c8           	iny
    1ca7: b1 10        	lda	($10),y                 ; 0x10 <__rc0>
    1ca9: 85 13        	sta	$13                     ; 0x13 <__rc3>
    1cab: 20 66 7f     	jsr	$7f66 <printf>
    1cae: 4c eb 24     	jmp	$24eb <pickFile_far+0xfe4>
    1cb1: a9 42        	lda	#$42
    1cb3: a2 03        	ldx	#$3
    1cb5: 86 12        	stx	$12                     ; 0x12 <__rc2>
    1cb7: 86 2a        	stx	$2a                     ; 0x2a <__rc26>
    1cb9: 64 13        	stz	$13                     ; 0x13 <__rc3>
    1cbb: a2 5f        	ldx	#$5f
    1cbd: 20 f9 45     	jsr	$45f9 <FAR_PEEKW>
    1cc0: 18           	clc
    1cc1: 48           	pha
    1cc2: a5 10        	lda	$10                     ; 0x10 <__rc0>
    1cc4: 69 3c        	adc	#$3c
    1cc6: 85 26        	sta	$26                     ; 0x26 <__rc22>
    1cc8: a5 11        	lda	$11                     ; 0x11 <__rc1>
    1cca: 69 00        	adc	#$0
    1ccc: 85 27        	sta	$27                     ; 0x27 <__rc23>
    1cce: 68           	pla
    1ccf: 92 26        	sta	($26)                   ; 0x26 <__rc22>
    1cd1: a0 01        	ldy	#$1
    1cd3: 8a           	txa
    1cd4: 91 26        	sta	($26),y                 ; 0x26 <__rc22>
    1cd6: a2 01        	ldx	#$1
    1cd8: 86 2b        	stx	$2b                     ; 0x2b <__rc27>
    1cda: a9 46        	lda	#$46
    1cdc: a6 2a        	ldx	$2a                     ; 0x2a <__rc26>
    1cde: 86 12        	stx	$12                     ; 0x12 <__rc2>
    1ce0: 64 13        	stz	$13                     ; 0x13 <__rc3>
    1ce2: a2 5f        	ldx	#$5f
    1ce4: 20 f9 45     	jsr	$45f9 <FAR_PEEKW>
    1ce7: 18           	clc
    1ce8: 48           	pha
    1ce9: a5 10        	lda	$10                     ; 0x10 <__rc0>
    1ceb: 69 3a        	adc	#$3a
    1ced: 85 12        	sta	$12                     ; 0x12 <__rc2>
    1cef: a5 11        	lda	$11                     ; 0x11 <__rc1>
    1cf1: 69 00        	adc	#$0
    1cf3: 85 13        	sta	$13                     ; 0x13 <__rc3>
    1cf5: 68           	pla
    1cf6: 92 12        	sta	($12)                   ; 0x12 <__rc2>
    1cf8: a4 2b        	ldy	$2b                     ; 0x2b <__rc27>
    1cfa: 8a           	txa
    1cfb: 91 12        	sta	($12),y                 ; 0x12 <__rc2>
    1cfd: a9 4a        	lda	#$4a
    1cff: a6 2a        	ldx	$2a                     ; 0x2a <__rc26>
    1d01: 86 12        	stx	$12                     ; 0x12 <__rc2>
    1d03: 64 13        	stz	$13                     ; 0x13 <__rc3>
    1d05: a2 5f        	ldx	#$5f
    1d07: 20 f9 45     	jsr	$45f9 <FAR_PEEKW>
    1d0a: 18           	clc
    1d0b: 48           	pha
    1d0c: a5 10        	lda	$10                     ; 0x10 <__rc0>
    1d0e: 69 38        	adc	#$38
    1d10: 85 12        	sta	$12                     ; 0x12 <__rc2>
    1d12: a5 11        	lda	$11                     ; 0x11 <__rc1>
    1d14: 69 00        	adc	#$0
    1d16: 85 13        	sta	$13                     ; 0x13 <__rc3>
    1d18: 68           	pla
    1d19: 92 12        	sta	($12)                   ; 0x12 <__rc2>
    1d1b: a4 2b        	ldy	$2b                     ; 0x2b <__rc27>
    1d1d: 8a           	txa
    1d1e: 91 12        	sta	($12),y                 ; 0x12 <__rc2>
    1d20: a9 3e        	lda	#$3e
    1d22: a6 2a        	ldx	$2a                     ; 0x2a <__rc26>
    1d24: 86 12        	stx	$12                     ; 0x12 <__rc2>
    1d26: 64 13        	stz	$13                     ; 0x13 <__rc3>
    1d28: a2 5f        	ldx	#$5f
    1d2a: 20 f9 45     	jsr	$45f9 <FAR_PEEKW>
    1d2d: 18           	clc
    1d2e: 48           	pha
    1d2f: a5 10        	lda	$10                     ; 0x10 <__rc0>
    1d31: 69 36        	adc	#$36
    1d33: 85 24        	sta	$24                     ; 0x24 <__rc20>
    1d35: a5 11        	lda	$11                     ; 0x11 <__rc1>
    1d37: 69 00        	adc	#$0
    1d39: 85 25        	sta	$25                     ; 0x25 <__rc21>
    1d3b: 68           	pla
    1d3c: 92 24        	sta	($24)                   ; 0x24 <__rc20>
    1d3e: a4 2b        	ldy	$2b                     ; 0x2b <__rc27>
    1d40: 8a           	txa
    1d41: 91 24        	sta	($24),y                 ; 0x24 <__rc20>
    1d43: a6 2a        	ldx	$2a                     ; 0x2a <__rc26>
    1d45: 86 12        	stx	$12                     ; 0x12 <__rc2>
    1d47: 64 13        	stz	$13                     ; 0x13 <__rc3>
    1d49: a2 00        	ldx	#$0
    1d4b: 8a           	txa
    1d4c: 20 d8 45     	jsr	$45d8 <FAR_PEEK>
    1d4f: 18           	clc
    1d50: 48           	pha
    1d51: a5 10        	lda	$10                     ; 0x10 <__rc0>
    1d53: 69 35        	adc	#$35
    1d55: 85 12        	sta	$12                     ; 0x12 <__rc2>
    1d57: a5 11        	lda	$11                     ; 0x11 <__rc1>
    1d59: 69 00        	adc	#$0
    1d5b: 85 13        	sta	$13                     ; 0x13 <__rc3>
    1d5d: 68           	pla
    1d5e: 92 12        	sta	($12)                   ; 0x12 <__rc2>
    1d60: a6 2a        	ldx	$2a                     ; 0x2a <__rc26>
    1d62: 86 12        	stx	$12                     ; 0x12 <__rc2>
    1d64: 64 13        	stz	$13                     ; 0x13 <__rc3>
    1d66: a2 00        	ldx	#$0
    1d68: a5 2b        	lda	$2b                     ; 0x2b <__rc27>
    1d6a: 20 d8 45     	jsr	$45d8 <FAR_PEEK>
    1d6d: 18           	clc
    1d6e: 48           	pha
    1d6f: a5 10        	lda	$10                     ; 0x10 <__rc0>
    1d71: 69 34        	adc	#$34
    1d73: 85 12        	sta	$12                     ; 0x12 <__rc2>
    1d75: a5 11        	lda	$11                     ; 0x11 <__rc1>
    1d77: 69 00        	adc	#$0
    1d79: 85 13        	sta	$13                     ; 0x13 <__rc3>
    1d7b: 68           	pla
    1d7c: 92 12        	sta	($12)                   ; 0x12 <__rc2>
    1d7e: b2 26        	lda	($26)                   ; 0x26 <__rc22>
    1d80: 85 14        	sta	$14                     ; 0x14 <__rc4>
    1d82: a4 2b        	ldy	$2b                     ; 0x2b <__rc27>
    1d84: b1 26        	lda	($26),y                 ; 0x26 <__rc22>
    1d86: 85 15        	sta	$15                     ; 0x15 <__rc5>
    1d88: b2 24        	lda	($24)                   ; 0x24 <__rc20>
    1d8a: 85 12        	sta	$12                     ; 0x12 <__rc2>
    1d8c: b1 24        	lda	($24),y                 ; 0x24 <__rc20>
    1d8e: 85 13        	sta	$13                     ; 0x13 <__rc3>
    1d90: a2 ff        	ldx	#$ff
    1d92: c6 12        	dec	$12                     ; 0x12 <__rc2>
    1d94: e4 12        	cpx	$12                     ; 0x12 <__rc2>
    1d96: f0 03        	beq	$1d9b <pickFile_far+0x894>
    1d98: 4c a0 1d     	jmp	$1da0 <pickFile_far+0x899>
    1d9b: c6 13        	dec	$13                     ; 0x13 <__rc3>
    1d9d: 4c a0 1d     	jmp	$1da0 <pickFile_far+0x899>
    1da0: a6 15        	ldx	$15                     ; 0x15 <__rc5>
    1da2: e4 13        	cpx	$13                     ; 0x13 <__rc3>
    1da4: a0 01        	ldy	#$1
    1da6: b0 02        	bcs	$1daa <pickFile_far+0x8a3>
    1da8: a0 00        	ldy	#$0
    1daa: 84 15        	sty	$15                     ; 0x15 <__rc5>
    1dac: e4 13        	cpx	$13                     ; 0x13 <__rc3>
    1dae: f0 02        	beq	$1db2 <pickFile_far+0x8ab>
    1db0: 80 09        	bra	$1dbb <pickFile_far+0x8b4>
    1db2: a6 14        	ldx	$14                     ; 0x14 <__rc4>
    1db4: e4 12        	cpx	$12                     ; 0x12 <__rc2>
    1db6: 90 0a        	bcc	$1dc2 <pickFile_far+0x8bb>
    1db8: 4c 4f 20     	jmp	$204f <pickFile_far+0xb48>
    1dbb: a5 15        	lda	$15                     ; 0x15 <__rc5>
    1dbd: f0 03        	beq	$1dc2 <pickFile_far+0x8bb>
    1dbf: 4c 4f 20     	jmp	$204f <pickFile_far+0xb48>
    1dc2: 80 00        	bra	$1dc4 <pickFile_far+0x8bd>
    1dc4: 18           	clc
    1dc5: a5 10        	lda	$10                     ; 0x10 <__rc0>
    1dc7: 69 3a        	adc	#$3a
    1dc9: 85 12        	sta	$12                     ; 0x12 <__rc2>
    1dcb: a5 11        	lda	$11                     ; 0x11 <__rc1>
    1dcd: 69 00        	adc	#$0
    1dcf: 85 13        	sta	$13                     ; 0x13 <__rc3>
    1dd1: b2 12        	lda	($12)                   ; 0x12 <__rc2>
    1dd3: 85 14        	sta	$14                     ; 0x14 <__rc4>
    1dd5: a0 01        	ldy	#$1
    1dd7: b1 12        	lda	($12),y                 ; 0x12 <__rc2>
    1dd9: c9 00        	cmp	#$0
    1ddb: a2 01        	ldx	#$1
    1ddd: b0 02        	bcs	$1de1 <pickFile_far+0x8da>
    1ddf: a2 00        	ldx	#$0
    1de1: 86 12        	stx	$12                     ; 0x12 <__rc2>
    1de3: aa           	tax
    1de4: f0 02        	beq	$1de8 <pickFile_far+0x8e1>
    1de6: 80 09        	bra	$1df1 <pickFile_far+0x8ea>
    1de8: a6 14        	ldx	$14                     ; 0x14 <__rc4>
    1dea: e0 0f        	cpx	#$f
    1dec: 90 0a        	bcc	$1df8 <pickFile_far+0x8f1>
    1dee: 4c e1 1e     	jmp	$1ee1 <pickFile_far+0x9da>
    1df1: a5 12        	lda	$12                     ; 0x12 <__rc2>
    1df3: f0 03        	beq	$1df8 <pickFile_far+0x8f1>
    1df5: 4c e1 1e     	jmp	$1ee1 <pickFile_far+0x9da>
    1df8: 80 00        	bra	$1dfa <pickFile_far+0x8f3>
    1dfa: 18           	clc
    1dfb: a5 10        	lda	$10                     ; 0x10 <__rc0>
    1dfd: 69 35        	adc	#$35
    1dff: 85 24        	sta	$24                     ; 0x24 <__rc20>
    1e01: a5 11        	lda	$11                     ; 0x11 <__rc1>
    1e03: 69 00        	adc	#$0
    1e05: 85 25        	sta	$25                     ; 0x25 <__rc21>
    1e07: b2 24        	lda	($24)                   ; 0x24 <__rc20>
    1e09: a8           	tay
    1e0a: 18           	clc
    1e0b: a5 10        	lda	$10                     ; 0x10 <__rc0>
    1e0d: 69 34        	adc	#$34
    1e0f: 85 2a        	sta	$2a                     ; 0x2a <__rc26>
    1e11: a5 11        	lda	$11                     ; 0x11 <__rc1>
    1e13: 69 00        	adc	#$0
    1e15: 85 2b        	sta	$2b                     ; 0x2b <__rc27>
    1e17: 18           	clc
    1e18: a5 10        	lda	$10                     ; 0x10 <__rc0>
    1e1a: 69 3a        	adc	#$3a
    1e1c: 85 26        	sta	$26                     ; 0x26 <__rc22>
    1e1e: a5 11        	lda	$11                     ; 0x11 <__rc1>
    1e20: 69 00        	adc	#$0
    1e22: 85 27        	sta	$27                     ; 0x27 <__rc23>
    1e24: b2 26        	lda	($26)                   ; 0x26 <__rc22>
    1e26: 18           	clc
    1e27: 72 2a        	adc	($2a)                   ; 0x2a <__rc26>
    1e29: aa           	tax
    1e2a: 98           	tya
    1e2b: 20 c0 6d     	jsr	$6dc0 <textGotoXY>
    1e2e: a9 20        	lda	#$20
    1e30: 92 10        	sta	($10)                   ; 0x10 <__rc0>
    1e32: a0 01        	ldy	#$1
    1e34: a9 00        	lda	#$0
    1e36: 91 10        	sta	($10),y                 ; 0x10 <__rc0>
    1e38: a2 e7        	ldx	#$e7
    1e3a: 86 12        	stx	$12                     ; 0x12 <__rc2>
    1e3c: a2 8a        	ldx	#$8a
    1e3e: 86 13        	stx	$13                     ; 0x13 <__rc3>
    1e40: a5 12        	lda	$12                     ; 0x12 <__rc2>
    1e42: a0 0c        	ldy	#$c
    1e44: 91 10        	sta	($10),y                 ; 0x10 <__rc0>
    1e46: a5 13        	lda	$13                     ; 0x13 <__rc3>
    1e48: c8           	iny
    1e49: 91 10        	sta	($10),y                 ; 0x10 <__rc0>
    1e4b: 20 66 7f     	jsr	$7f66 <printf>
    1e4e: 18           	clc
    1e4f: a5 10        	lda	$10                     ; 0x10 <__rc0>
    1e51: 69 3c        	adc	#$3c
    1e53: 85 12        	sta	$12                     ; 0x12 <__rc2>
    1e55: a5 11        	lda	$11                     ; 0x11 <__rc1>
    1e57: 69 00        	adc	#$0
    1e59: 85 13        	sta	$13                     ; 0x13 <__rc3>
    1e5b: b2 12        	lda	($12)                   ; 0x12 <__rc2>
    1e5d: 85 14        	sta	$14                     ; 0x14 <__rc4>
    1e5f: a0 01        	ldy	#$1
    1e61: b1 12        	lda	($12),y                 ; 0x12 <__rc2>
    1e63: aa           	tax
    1e64: a5 14        	lda	$14                     ; 0x14 <__rc4>
    1e66: 1a           	inc
    1e67: f0 03        	beq	$1e6c <pickFile_far+0x965>
    1e69: 4c 70 1e     	jmp	$1e70 <pickFile_far+0x969>
    1e6c: e8           	inx
    1e6d: 4c 70 1e     	jmp	$1e70 <pickFile_far+0x969>
    1e70: 92 12        	sta	($12)                   ; 0x12 <__rc2>
    1e72: 8a           	txa
    1e73: 91 12        	sta	($12),y                 ; 0x12 <__rc2>
    1e75: b2 26        	lda	($26)                   ; 0x26 <__rc22>
    1e77: 85 14        	sta	$14                     ; 0x14 <__rc4>
    1e79: b1 26        	lda	($26),y                 ; 0x26 <__rc22>
    1e7b: aa           	tax
    1e7c: a5 14        	lda	$14                     ; 0x14 <__rc4>
    1e7e: 1a           	inc
    1e7f: f0 03        	beq	$1e84 <pickFile_far+0x97d>
    1e81: 4c 88 1e     	jmp	$1e88 <pickFile_far+0x981>
    1e84: e8           	inx
    1e85: 4c 88 1e     	jmp	$1e88 <pickFile_far+0x981>
    1e88: 92 26        	sta	($26)                   ; 0x26 <__rc22>
    1e8a: 8a           	txa
    1e8b: 91 26        	sta	($26),y                 ; 0x26 <__rc22>
    1e8d: b2 12        	lda	($12)                   ; 0x12 <__rc2>
    1e8f: 85 14        	sta	$14                     ; 0x14 <__rc4>
    1e91: b1 12        	lda	($12),y                 ; 0x12 <__rc2>
    1e93: a2 03        	ldx	#$3
    1e95: 86 12        	stx	$12                     ; 0x12 <__rc2>
    1e97: 64 13        	stz	$13                     ; 0x13 <__rc3>
    1e99: 85 15        	sta	$15                     ; 0x15 <__rc5>
    1e9b: a2 5f        	ldx	#$5f
    1e9d: a9 42        	lda	#$42
    1e9f: 20 46 46     	jsr	$4646 <FAR_POKEW>
    1ea2: b2 26        	lda	($26)                   ; 0x26 <__rc22>
    1ea4: 85 14        	sta	$14                     ; 0x14 <__rc4>
    1ea6: a0 01        	ldy	#$1
    1ea8: b1 26        	lda	($26),y                 ; 0x26 <__rc22>
    1eaa: a2 03        	ldx	#$3
    1eac: 86 12        	stx	$12                     ; 0x12 <__rc2>
    1eae: 64 13        	stz	$13                     ; 0x13 <__rc3>
    1eb0: 85 15        	sta	$15                     ; 0x15 <__rc5>
    1eb2: a2 5f        	ldx	#$5f
    1eb4: a9 46        	lda	#$46
    1eb6: 20 46 46     	jsr	$4646 <FAR_POKEW>
    1eb9: b2 24        	lda	($24)                   ; 0x24 <__rc20>
    1ebb: a8           	tay
    1ebc: b2 26        	lda	($26)                   ; 0x26 <__rc22>
    1ebe: 18           	clc
    1ebf: 72 2a        	adc	($2a)                   ; 0x2a <__rc26>
    1ec1: aa           	tax
    1ec2: 98           	tya
    1ec3: 20 c0 6d     	jsr	$6dc0 <textGotoXY>
    1ec6: a9 fa        	lda	#$fa
    1ec8: 92 10        	sta	($10)                   ; 0x10 <__rc0>
    1eca: a9 00        	lda	#$0
    1ecc: a0 01        	ldy	#$1
    1ece: 91 10        	sta	($10),y                 ; 0x10 <__rc0>
    1ed0: a0 0c        	ldy	#$c
    1ed2: b1 10        	lda	($10),y                 ; 0x10 <__rc0>
    1ed4: 85 12        	sta	$12                     ; 0x12 <__rc2>
    1ed6: c8           	iny
    1ed7: b1 10        	lda	($10),y                 ; 0x10 <__rc0>
    1ed9: 85 13        	sta	$13                     ; 0x13 <__rc3>
    1edb: 20 66 7f     	jsr	$7f66 <printf>
    1ede: 4c 4f 20     	jmp	$204f <pickFile_far+0xb48>
    1ee1: 18           	clc
    1ee2: a5 10        	lda	$10                     ; 0x10 <__rc0>
    1ee4: 69 3a        	adc	#$3a
    1ee6: 85 12        	sta	$12                     ; 0x12 <__rc2>
    1ee8: a5 11        	lda	$11                     ; 0x11 <__rc1>
    1eea: 69 00        	adc	#$0
    1eec: 85 13        	sta	$13                     ; 0x13 <__rc3>
    1eee: b2 12        	lda	($12)                   ; 0x12 <__rc2>
    1ef0: 85 14        	sta	$14                     ; 0x14 <__rc4>
    1ef2: a0 01        	ldy	#$1
    1ef4: b1 12        	lda	($12),y                 ; 0x12 <__rc2>
    1ef6: f0 02        	beq	$1efa <pickFile_far+0x9f3>
    1ef8: 80 0f        	bra	$1f09 <pickFile_far+0xa02>
    1efa: a6 14        	ldx	$14                     ; 0x14 <__rc4>
    1efc: e0 0f        	cpx	#$f
    1efe: f0 02        	beq	$1f02 <pickFile_far+0x9fb>
    1f00: 80 02        	bra	$1f04 <pickFile_far+0x9fd>
    1f02: 80 03        	bra	$1f07 <pickFile_far+0xa00>
    1f04: 4c 4f 20     	jmp	$204f <pickFile_far+0xb48>
    1f07: 80 03        	bra	$1f0c <pickFile_far+0xa05>
    1f09: 4c 4f 20     	jmp	$204f <pickFile_far+0xb48>
    1f0c: 80 00        	bra	$1f0e <pickFile_far+0xa07>
    1f0e: 18           	clc
    1f0f: a5 10        	lda	$10                     ; 0x10 <__rc0>
    1f11: 69 36        	adc	#$36
    1f13: 85 14        	sta	$14                     ; 0x14 <__rc4>
    1f15: a5 11        	lda	$11                     ; 0x11 <__rc1>
    1f17: 69 00        	adc	#$0
    1f19: 85 15        	sta	$15                     ; 0x15 <__rc5>
    1f1b: b2 14        	lda	($14)                   ; 0x14 <__rc4>
    1f1d: 85 12        	sta	$12                     ; 0x12 <__rc2>
    1f1f: a0 01        	ldy	#$1
    1f21: 18           	clc
    1f22: a5 10        	lda	$10                     ; 0x10 <__rc0>
    1f24: 69 3c        	adc	#$3c
    1f26: 85 16        	sta	$16                     ; 0x16 <__rc6>
    1f28: a5 11        	lda	$11                     ; 0x11 <__rc1>
    1f2a: 69 00        	adc	#$0
    1f2c: 85 17        	sta	$17                     ; 0x17 <__rc7>
    1f2e: b2 16        	lda	($16)                   ; 0x16 <__rc6>
    1f30: 85 13        	sta	$13                     ; 0x13 <__rc3>
    1f32: b1 16        	lda	($16),y                 ; 0x16 <__rc6>
    1f34: d1 14        	cmp	($14),y                 ; 0x14 <__rc4>
    1f36: a2 01        	ldx	#$1
    1f38: b0 02        	bcs	$1f3c <pickFile_far+0xa35>
    1f3a: a2 00        	ldx	#$0
    1f3c: 86 16        	stx	$16                     ; 0x16 <__rc6>
    1f3e: d1 14        	cmp	($14),y                 ; 0x14 <__rc4>
    1f40: f0 02        	beq	$1f44 <pickFile_far+0xa3d>
    1f42: 80 09        	bra	$1f4d <pickFile_far+0xa46>
    1f44: a6 13        	ldx	$13                     ; 0x13 <__rc3>
    1f46: e4 12        	cpx	$12                     ; 0x12 <__rc2>
    1f48: 90 0a        	bcc	$1f54 <pickFile_far+0xa4d>
    1f4a: 4c 4f 20     	jmp	$204f <pickFile_far+0xb48>
    1f4d: a5 16        	lda	$16                     ; 0x16 <__rc6>
    1f4f: f0 03        	beq	$1f54 <pickFile_far+0xa4d>
    1f51: 4c 4f 20     	jmp	$204f <pickFile_far+0xb48>
    1f54: 80 00        	bra	$1f56 <pickFile_far+0xa4f>
    1f56: 18           	clc
    1f57: a5 10        	lda	$10                     ; 0x10 <__rc0>
    1f59: 69 35        	adc	#$35
    1f5b: 85 12        	sta	$12                     ; 0x12 <__rc2>
    1f5d: a5 11        	lda	$11                     ; 0x11 <__rc1>
    1f5f: 69 00        	adc	#$0
    1f61: 85 13        	sta	$13                     ; 0x13 <__rc3>
    1f63: a5 12        	lda	$12                     ; 0x12 <__rc2>
    1f65: a0 16        	ldy	#$16
    1f67: 91 10        	sta	($10),y                 ; 0x10 <__rc0>
    1f69: a5 13        	lda	$13                     ; 0x13 <__rc3>
    1f6b: c8           	iny
    1f6c: 91 10        	sta	($10),y                 ; 0x10 <__rc0>
    1f6e: b2 12        	lda	($12)                   ; 0x12 <__rc2>
    1f70: a8           	tay
    1f71: 18           	clc
    1f72: a5 10        	lda	$10                     ; 0x10 <__rc0>
    1f74: 69 34        	adc	#$34
    1f76: 85 2a        	sta	$2a                     ; 0x2a <__rc26>
    1f78: a5 11        	lda	$11                     ; 0x11 <__rc1>
    1f7a: 69 00        	adc	#$0
    1f7c: 85 2b        	sta	$2b                     ; 0x2b <__rc27>
    1f7e: 18           	clc
    1f7f: a5 10        	lda	$10                     ; 0x10 <__rc0>
    1f81: 69 3a        	adc	#$3a
    1f83: 85 26        	sta	$26                     ; 0x26 <__rc22>
    1f85: a5 11        	lda	$11                     ; 0x11 <__rc1>
    1f87: 69 00        	adc	#$0
    1f89: 85 27        	sta	$27                     ; 0x27 <__rc23>
    1f8b: b2 26        	lda	($26)                   ; 0x26 <__rc22>
    1f8d: 18           	clc
    1f8e: 72 2a        	adc	($2a)                   ; 0x2a <__rc26>
    1f90: aa           	tax
    1f91: 98           	tya
    1f92: 20 c0 6d     	jsr	$6dc0 <textGotoXY>
    1f95: a9 20        	lda	#$20
    1f97: 92 10        	sta	($10)                   ; 0x10 <__rc0>
    1f99: a0 01        	ldy	#$1
    1f9b: a9 00        	lda	#$0
    1f9d: 91 10        	sta	($10),y                 ; 0x10 <__rc0>
    1f9f: a2 e7        	ldx	#$e7
    1fa1: 86 12        	stx	$12                     ; 0x12 <__rc2>
    1fa3: a2 8a        	ldx	#$8a
    1fa5: 86 13        	stx	$13                     ; 0x13 <__rc3>
    1fa7: a5 12        	lda	$12                     ; 0x12 <__rc2>
    1fa9: a0 0e        	ldy	#$e
    1fab: 91 10        	sta	($10),y                 ; 0x10 <__rc0>
    1fad: a5 13        	lda	$13                     ; 0x13 <__rc3>
    1faf: c8           	iny
    1fb0: 91 10        	sta	($10),y                 ; 0x10 <__rc0>
    1fb2: 20 66 7f     	jsr	$7f66 <printf>
    1fb5: a9 00        	lda	#$0
    1fb7: 92 26        	sta	($26)                   ; 0x26 <__rc22>
    1fb9: a0 01        	ldy	#$1
    1fbb: 91 26        	sta	($26),y                 ; 0x26 <__rc22>
    1fbd: 18           	clc
    1fbe: a5 10        	lda	$10                     ; 0x10 <__rc0>
    1fc0: 69 38        	adc	#$38
    1fc2: 85 24        	sta	$24                     ; 0x24 <__rc20>
    1fc4: a5 11        	lda	$11                     ; 0x11 <__rc1>
    1fc6: 69 00        	adc	#$0
    1fc8: 85 25        	sta	$25                     ; 0x25 <__rc21>
    1fca: b2 24        	lda	($24)                   ; 0x24 <__rc20>
    1fcc: 85 13        	sta	$13                     ; 0x13 <__rc3>
    1fce: b1 24        	lda	($24),y                 ; 0x24 <__rc20>
    1fd0: 85 12        	sta	$12                     ; 0x12 <__rc2>
    1fd2: 18           	clc
    1fd3: a5 13        	lda	$13                     ; 0x13 <__rc3>
    1fd5: 69 0f        	adc	#$f
    1fd7: 85 13        	sta	$13                     ; 0x13 <__rc3>
    1fd9: a5 12        	lda	$12                     ; 0x12 <__rc2>
    1fdb: 69 00        	adc	#$0
    1fdd: aa           	tax
    1fde: a5 13        	lda	$13                     ; 0x13 <__rc3>
    1fe0: 92 24        	sta	($24)                   ; 0x24 <__rc20>
    1fe2: 8a           	txa
    1fe3: 91 24        	sta	($24),y                 ; 0x24 <__rc20>
    1fe5: b2 26        	lda	($26)                   ; 0x26 <__rc22>
    1fe7: 85 14        	sta	$14                     ; 0x14 <__rc4>
    1fe9: b1 26        	lda	($26),y                 ; 0x26 <__rc22>
    1feb: a2 03        	ldx	#$3
    1fed: 86 12        	stx	$12                     ; 0x12 <__rc2>
    1fef: 64 13        	stz	$13                     ; 0x13 <__rc3>
    1ff1: 85 15        	sta	$15                     ; 0x15 <__rc5>
    1ff3: a2 5f        	ldx	#$5f
    1ff5: a9 46        	lda	#$46
    1ff7: 20 46 46     	jsr	$4646 <FAR_POKEW>
    1ffa: b2 24        	lda	($24)                   ; 0x24 <__rc20>
    1ffc: 85 14        	sta	$14                     ; 0x14 <__rc4>
    1ffe: a0 01        	ldy	#$1
    2000: b1 24        	lda	($24),y                 ; 0x24 <__rc20>
    2002: a2 03        	ldx	#$3
    2004: 86 12        	stx	$12                     ; 0x12 <__rc2>
    2006: 64 13        	stz	$13                     ; 0x13 <__rc3>
    2008: 85 15        	sta	$15                     ; 0x15 <__rc5>
    200a: a2 5f        	ldx	#$5f
    200c: a9 4a        	lda	#$4a
    200e: 20 46 46     	jsr	$4646 <FAR_POKEW>
    2011: b2 24        	lda	($24)                   ; 0x24 <__rc20>
    2013: 85 12        	sta	$12                     ; 0x12 <__rc2>
    2015: a0 01        	ldy	#$1
    2017: b1 24        	lda	($24),y                 ; 0x24 <__rc20>
    2019: aa           	tax
    201a: a5 12        	lda	$12                     ; 0x12 <__rc2>
    201c: 20 ba 10     	jsr	$10ba <displayFileList_far>
    201f: a0 16        	ldy	#$16
    2021: b1 10        	lda	($10),y                 ; 0x10 <__rc0>
    2023: 85 12        	sta	$12                     ; 0x12 <__rc2>
    2025: c8           	iny
    2026: b1 10        	lda	($10),y                 ; 0x10 <__rc0>
    2028: 85 13        	sta	$13                     ; 0x13 <__rc3>
    202a: b2 12        	lda	($12)                   ; 0x12 <__rc2>
    202c: a8           	tay
    202d: b2 26        	lda	($26)                   ; 0x26 <__rc22>
    202f: 18           	clc
    2030: 72 2a        	adc	($2a)                   ; 0x2a <__rc26>
    2032: aa           	tax
    2033: 98           	tya
    2034: 20 c0 6d     	jsr	$6dc0 <textGotoXY>
    2037: a9 fa        	lda	#$fa
    2039: 92 10        	sta	($10)                   ; 0x10 <__rc0>
    203b: a9 00        	lda	#$0
    203d: a0 01        	ldy	#$1
    203f: 91 10        	sta	($10),y                 ; 0x10 <__rc0>
    2041: a0 0e        	ldy	#$e
    2043: b1 10        	lda	($10),y                 ; 0x10 <__rc0>
    2045: 85 12        	sta	$12                     ; 0x12 <__rc2>
    2047: c8           	iny
    2048: b1 10        	lda	($10),y                 ; 0x10 <__rc0>
    204a: 85 13        	sta	$13                     ; 0x13 <__rc3>
    204c: 20 66 7f     	jsr	$7f66 <printf>
    204f: 4c eb 24     	jmp	$24eb <pickFile_far+0xfe4>
    2052: a9 42        	lda	#$42
    2054: a2 03        	ldx	#$3
    2056: 86 12        	stx	$12                     ; 0x12 <__rc2>
    2058: 86 24        	stx	$24                     ; 0x24 <__rc20>
    205a: 64 13        	stz	$13                     ; 0x13 <__rc3>
    205c: a2 5f        	ldx	#$5f
    205e: 20 f9 45     	jsr	$45f9 <FAR_PEEKW>
    2061: 18           	clc
    2062: 48           	pha
    2063: a5 10        	lda	$10                     ; 0x10 <__rc0>
    2065: 69 32        	adc	#$32
    2067: 85 26        	sta	$26                     ; 0x26 <__rc22>
    2069: a5 11        	lda	$11                     ; 0x11 <__rc1>
    206b: 69 00        	adc	#$0
    206d: 85 27        	sta	$27                     ; 0x27 <__rc23>
    206f: 68           	pla
    2070: 92 26        	sta	($26)                   ; 0x26 <__rc22>
    2072: a0 01        	ldy	#$1
    2074: 8a           	txa
    2075: 91 26        	sta	($26),y                 ; 0x26 <__rc22>
    2077: a2 01        	ldx	#$1
    2079: 86 25        	stx	$25                     ; 0x25 <__rc21>
    207b: a9 46        	lda	#$46
    207d: a6 24        	ldx	$24                     ; 0x24 <__rc20>
    207f: 86 12        	stx	$12                     ; 0x12 <__rc2>
    2081: 64 13        	stz	$13                     ; 0x13 <__rc3>
    2083: a2 5f        	ldx	#$5f
    2085: 20 f9 45     	jsr	$45f9 <FAR_PEEKW>
    2088: 18           	clc
    2089: 48           	pha
    208a: a5 10        	lda	$10                     ; 0x10 <__rc0>
    208c: 69 30        	adc	#$30
    208e: 85 12        	sta	$12                     ; 0x12 <__rc2>
    2090: a5 11        	lda	$11                     ; 0x11 <__rc1>
    2092: 69 00        	adc	#$0
    2094: 85 13        	sta	$13                     ; 0x13 <__rc3>
    2096: 68           	pla
    2097: 92 12        	sta	($12)                   ; 0x12 <__rc2>
    2099: a4 25        	ldy	$25                     ; 0x25 <__rc21>
    209b: 8a           	txa
    209c: 91 12        	sta	($12),y                 ; 0x12 <__rc2>
    209e: a9 4a        	lda	#$4a
    20a0: a6 24        	ldx	$24                     ; 0x24 <__rc20>
    20a2: 86 12        	stx	$12                     ; 0x12 <__rc2>
    20a4: 64 13        	stz	$13                     ; 0x13 <__rc3>
    20a6: a2 5f        	ldx	#$5f
    20a8: 20 f9 45     	jsr	$45f9 <FAR_PEEKW>
    20ab: 18           	clc
    20ac: 48           	pha
    20ad: a5 10        	lda	$10                     ; 0x10 <__rc0>
    20af: 69 2e        	adc	#$2e
    20b1: 85 12        	sta	$12                     ; 0x12 <__rc2>
    20b3: a5 11        	lda	$11                     ; 0x11 <__rc1>
    20b5: 69 00        	adc	#$0
    20b7: 85 13        	sta	$13                     ; 0x13 <__rc3>
    20b9: 68           	pla
    20ba: 92 12        	sta	($12)                   ; 0x12 <__rc2>
    20bc: a4 25        	ldy	$25                     ; 0x25 <__rc21>
    20be: 8a           	txa
    20bf: 91 12        	sta	($12),y                 ; 0x12 <__rc2>
    20c1: a6 24        	ldx	$24                     ; 0x24 <__rc20>
    20c3: 86 12        	stx	$12                     ; 0x12 <__rc2>
    20c5: 64 13        	stz	$13                     ; 0x13 <__rc3>
    20c7: a2 00        	ldx	#$0
    20c9: 8a           	txa
    20ca: 20 d8 45     	jsr	$45d8 <FAR_PEEK>
    20cd: 18           	clc
    20ce: 48           	pha
    20cf: a5 10        	lda	$10                     ; 0x10 <__rc0>
    20d1: 69 2d        	adc	#$2d
    20d3: 85 12        	sta	$12                     ; 0x12 <__rc2>
    20d5: a5 11        	lda	$11                     ; 0x11 <__rc1>
    20d7: 69 00        	adc	#$0
    20d9: 85 13        	sta	$13                     ; 0x13 <__rc3>
    20db: 68           	pla
    20dc: 92 12        	sta	($12)                   ; 0x12 <__rc2>
    20de: a6 24        	ldx	$24                     ; 0x24 <__rc20>
    20e0: 86 12        	stx	$12                     ; 0x12 <__rc2>
    20e2: 64 13        	stz	$13                     ; 0x13 <__rc3>
    20e4: a2 00        	ldx	#$0
    20e6: a5 25        	lda	$25                     ; 0x25 <__rc21>
    20e8: 20 d8 45     	jsr	$45d8 <FAR_PEEK>
    20eb: 18           	clc
    20ec: 48           	pha
    20ed: a5 10        	lda	$10                     ; 0x10 <__rc0>
    20ef: 69 2c        	adc	#$2c
    20f1: 85 12        	sta	$12                     ; 0x12 <__rc2>
    20f3: a5 11        	lda	$11                     ; 0x11 <__rc1>
    20f5: 69 00        	adc	#$0
    20f7: 85 13        	sta	$13                     ; 0x13 <__rc3>
    20f9: 68           	pla
    20fa: 92 12        	sta	($12)                   ; 0x12 <__rc2>
    20fc: b2 26        	lda	($26)                   ; 0x26 <__rc22>
    20fe: 85 12        	sta	$12                     ; 0x12 <__rc2>
    2100: a4 25        	ldy	$25                     ; 0x25 <__rc21>
    2102: b1 26        	lda	($26),y                 ; 0x26 <__rc22>
    2104: c9 00        	cmp	#$0
    2106: a2 01        	ldx	#$1
    2108: b0 02        	bcs	$210c <pickFile_far+0xc05>
    210a: a2 00        	ldx	#$0
    210c: 86 13        	stx	$13                     ; 0x13 <__rc3>
    210e: aa           	tax
    210f: f0 02        	beq	$2113 <pickFile_far+0xc0c>
    2111: 80 09        	bra	$211c <pickFile_far+0xc15>
    2113: a6 12        	ldx	$12                     ; 0x12 <__rc2>
    2115: e0 0f        	cpx	#$f
    2117: b0 0a        	bcs	$2123 <pickFile_far+0xc1c>
    2119: 4c 60 22     	jmp	$2260 <pickFile_far+0xd59>
    211c: a5 13        	lda	$13                     ; 0x13 <__rc3>
    211e: d0 03        	bne	$2123 <pickFile_far+0xc1c>
    2120: 4c 60 22     	jmp	$2260 <pickFile_far+0xd59>
    2123: 80 00        	bra	$2125 <pickFile_far+0xc1e>
    2125: 18           	clc
    2126: a5 10        	lda	$10                     ; 0x10 <__rc0>
    2128: 69 2d        	adc	#$2d
    212a: 85 26        	sta	$26                     ; 0x26 <__rc22>
    212c: a5 11        	lda	$11                     ; 0x11 <__rc1>
    212e: 69 00        	adc	#$0
    2130: 85 27        	sta	$27                     ; 0x27 <__rc23>
    2132: b2 26        	lda	($26)                   ; 0x26 <__rc22>
    2134: a8           	tay
    2135: 18           	clc
    2136: 5a           	phy
    2137: a5 10        	lda	$10                     ; 0x10 <__rc0>
    2139: 69 2c        	adc	#$2c
    213b: 85 12        	sta	$12                     ; 0x12 <__rc2>
    213d: a5 11        	lda	$11                     ; 0x11 <__rc1>
    213f: 69 00        	adc	#$0
    2141: 85 13        	sta	$13                     ; 0x13 <__rc3>
    2143: a5 12        	lda	$12                     ; 0x12 <__rc2>
    2145: a0 08        	ldy	#$8
    2147: 91 10        	sta	($10),y                 ; 0x10 <__rc0>
    2149: a5 13        	lda	$13                     ; 0x13 <__rc3>
    214b: c8           	iny
    214c: 91 10        	sta	($10),y                 ; 0x10 <__rc0>
    214e: 18           	clc
    214f: a5 10        	lda	$10                     ; 0x10 <__rc0>
    2151: 69 30        	adc	#$30
    2153: 85 14        	sta	$14                     ; 0x14 <__rc4>
    2155: a5 11        	lda	$11                     ; 0x11 <__rc1>
    2157: 69 00        	adc	#$0
    2159: 85 15        	sta	$15                     ; 0x15 <__rc5>
    215b: a5 14        	lda	$14                     ; 0x14 <__rc4>
    215d: a0 1a        	ldy	#$1a
    215f: 91 10        	sta	($10),y                 ; 0x10 <__rc0>
    2161: a5 15        	lda	$15                     ; 0x15 <__rc5>
    2163: c8           	iny
    2164: 91 10        	sta	($10),y                 ; 0x10 <__rc0>
    2166: 7a           	ply
    2167: b2 14        	lda	($14)                   ; 0x14 <__rc4>
    2169: 18           	clc
    216a: 72 12        	adc	($12)                   ; 0x12 <__rc2>
    216c: aa           	tax
    216d: 98           	tya
    216e: 20 c0 6d     	jsr	$6dc0 <textGotoXY>
    2171: a9 20        	lda	#$20
    2173: 92 10        	sta	($10)                   ; 0x10 <__rc0>
    2175: a0 01        	ldy	#$1
    2177: a9 00        	lda	#$0
    2179: 91 10        	sta	($10),y                 ; 0x10 <__rc0>
    217b: a2 e7        	ldx	#$e7
    217d: 86 12        	stx	$12                     ; 0x12 <__rc2>
    217f: a2 8a        	ldx	#$8a
    2181: 86 13        	stx	$13                     ; 0x13 <__rc3>
    2183: a5 12        	lda	$12                     ; 0x12 <__rc2>
    2185: a0 14        	ldy	#$14
    2187: 91 10        	sta	($10),y                 ; 0x10 <__rc0>
    2189: a5 13        	lda	$13                     ; 0x13 <__rc3>
    218b: c8           	iny
    218c: 91 10        	sta	($10),y                 ; 0x10 <__rc0>
    218e: 20 66 7f     	jsr	$7f66 <printf>
    2191: 18           	clc
    2192: a5 10        	lda	$10                     ; 0x10 <__rc0>
    2194: 69 32        	adc	#$32
    2196: 85 12        	sta	$12                     ; 0x12 <__rc2>
    2198: a5 11        	lda	$11                     ; 0x11 <__rc1>
    219a: 69 00        	adc	#$0
    219c: 85 13        	sta	$13                     ; 0x13 <__rc3>
    219e: b2 12        	lda	($12)                   ; 0x12 <__rc2>
    21a0: 85 15        	sta	$15                     ; 0x15 <__rc5>
    21a2: a0 01        	ldy	#$1
    21a4: b1 12        	lda	($12),y                 ; 0x12 <__rc2>
    21a6: 85 14        	sta	$14                     ; 0x14 <__rc4>
    21a8: 18           	clc
    21a9: a5 15        	lda	$15                     ; 0x15 <__rc5>
    21ab: 69 f1        	adc	#$f1
    21ad: 85 15        	sta	$15                     ; 0x15 <__rc5>
    21af: a5 14        	lda	$14                     ; 0x14 <__rc4>
    21b1: 69 ff        	adc	#$ff
    21b3: aa           	tax
    21b4: a5 15        	lda	$15                     ; 0x15 <__rc5>
    21b6: 92 12        	sta	($12)                   ; 0x12 <__rc2>
    21b8: 8a           	txa
    21b9: 91 12        	sta	($12),y                 ; 0x12 <__rc2>
    21bb: 18           	clc
    21bc: a5 10        	lda	$10                     ; 0x10 <__rc0>
    21be: 69 2e        	adc	#$2e
    21c0: 85 24        	sta	$24                     ; 0x24 <__rc20>
    21c2: a5 11        	lda	$11                     ; 0x11 <__rc1>
    21c4: 69 00        	adc	#$0
    21c6: 85 25        	sta	$25                     ; 0x25 <__rc21>
    21c8: b2 24        	lda	($24)                   ; 0x24 <__rc20>
    21ca: 85 15        	sta	$15                     ; 0x15 <__rc5>
    21cc: b1 24        	lda	($24),y                 ; 0x24 <__rc20>
    21ce: 85 14        	sta	$14                     ; 0x14 <__rc4>
    21d0: 18           	clc
    21d1: a5 15        	lda	$15                     ; 0x15 <__rc5>
    21d3: 69 f1        	adc	#$f1
    21d5: 85 15        	sta	$15                     ; 0x15 <__rc5>
    21d7: a5 14        	lda	$14                     ; 0x14 <__rc4>
    21d9: 69 ff        	adc	#$ff
    21db: aa           	tax
    21dc: a5 15        	lda	$15                     ; 0x15 <__rc5>
    21de: 92 24        	sta	($24)                   ; 0x24 <__rc20>
    21e0: 8a           	txa
    21e1: 91 24        	sta	($24),y                 ; 0x24 <__rc20>
    21e3: b2 12        	lda	($12)                   ; 0x12 <__rc2>
    21e5: 85 14        	sta	$14                     ; 0x14 <__rc4>
    21e7: b1 12        	lda	($12),y                 ; 0x12 <__rc2>
    21e9: a2 03        	ldx	#$3
    21eb: 86 12        	stx	$12                     ; 0x12 <__rc2>
    21ed: 86 2a        	stx	$2a                     ; 0x2a <__rc26>
    21ef: 64 13        	stz	$13                     ; 0x13 <__rc3>
    21f1: 85 15        	sta	$15                     ; 0x15 <__rc5>
    21f3: a2 5f        	ldx	#$5f
    21f5: a9 42        	lda	#$42
    21f7: 20 46 46     	jsr	$4646 <FAR_POKEW>
    21fa: b2 24        	lda	($24)                   ; 0x24 <__rc20>
    21fc: 85 14        	sta	$14                     ; 0x14 <__rc4>
    21fe: a0 01        	ldy	#$1
    2200: b1 24        	lda	($24),y                 ; 0x24 <__rc20>
    2202: a6 2a        	ldx	$2a                     ; 0x2a <__rc26>
    2204: 86 12        	stx	$12                     ; 0x12 <__rc2>
    2206: 64 13        	stz	$13                     ; 0x13 <__rc3>
    2208: 85 15        	sta	$15                     ; 0x15 <__rc5>
    220a: a2 5f        	ldx	#$5f
    220c: a9 4a        	lda	#$4a
    220e: 20 46 46     	jsr	$4646 <FAR_POKEW>
    2211: b2 24        	lda	($24)                   ; 0x24 <__rc20>
    2213: 85 12        	sta	$12                     ; 0x12 <__rc2>
    2215: a0 01        	ldy	#$1
    2217: b1 24        	lda	($24),y                 ; 0x24 <__rc20>
    2219: aa           	tax
    221a: a5 12        	lda	$12                     ; 0x12 <__rc2>
    221c: 20 ba 10     	jsr	$10ba <displayFileList_far>
    221f: b2 26        	lda	($26)                   ; 0x26 <__rc22>
    2221: a8           	tay
    2222: 84 21        	sty	$21                     ; 0x21 <__rc17>
    2224: a0 1a        	ldy	#$1a
    2226: b1 10        	lda	($10),y                 ; 0x10 <__rc0>
    2228: 85 12        	sta	$12                     ; 0x12 <__rc2>
    222a: c8           	iny
    222b: b1 10        	lda	($10),y                 ; 0x10 <__rc0>
    222d: 85 13        	sta	$13                     ; 0x13 <__rc3>
    222f: b2 12        	lda	($12)                   ; 0x12 <__rc2>
    2231: 18           	clc
    2232: 48           	pha
    2233: a0 08        	ldy	#$8
    2235: b1 10        	lda	($10),y                 ; 0x10 <__rc0>
    2237: 85 12        	sta	$12                     ; 0x12 <__rc2>
    2239: c8           	iny
    223a: b1 10        	lda	($10),y                 ; 0x10 <__rc0>
    223c: a4 21        	ldy	$21                     ; 0x21 <__rc17>
    223e: 85 13        	sta	$13                     ; 0x13 <__rc3>
    2240: 68           	pla
    2241: 72 12        	adc	($12)                   ; 0x12 <__rc2>
    2243: aa           	tax
    2244: 98           	tya
    2245: 20 c0 6d     	jsr	$6dc0 <textGotoXY>
    2248: a9 fa        	lda	#$fa
    224a: 92 10        	sta	($10)                   ; 0x10 <__rc0>
    224c: a9 00        	lda	#$0
    224e: a0 01        	ldy	#$1
    2250: 91 10        	sta	($10),y                 ; 0x10 <__rc0>
    2252: a0 14        	ldy	#$14
    2254: b1 10        	lda	($10),y                 ; 0x10 <__rc0>
    2256: 85 12        	sta	$12                     ; 0x12 <__rc2>
    2258: c8           	iny
    2259: b1 10        	lda	($10),y                 ; 0x10 <__rc0>
    225b: 85 13        	sta	$13                     ; 0x13 <__rc3>
    225d: 20 66 7f     	jsr	$7f66 <printf>
    2260: 4c eb 24     	jmp	$24eb <pickFile_far+0xfe4>
    2263: a9 42        	lda	#$42
    2265: a2 03        	ldx	#$3
    2267: 86 12        	stx	$12                     ; 0x12 <__rc2>
    2269: 86 2a        	stx	$2a                     ; 0x2a <__rc26>
    226b: 64 13        	stz	$13                     ; 0x13 <__rc3>
    226d: a2 5f        	ldx	#$5f
    226f: 20 f9 45     	jsr	$45f9 <FAR_PEEKW>
    2272: 18           	clc
    2273: 48           	pha
    2274: a5 10        	lda	$10                     ; 0x10 <__rc0>
    2276: 69 2a        	adc	#$2a
    2278: 85 14        	sta	$14                     ; 0x14 <__rc4>
    227a: a5 11        	lda	$11                     ; 0x11 <__rc1>
    227c: 69 00        	adc	#$0
    227e: 85 15        	sta	$15                     ; 0x15 <__rc5>
    2280: a5 14        	lda	$14                     ; 0x14 <__rc4>
    2282: a0 12        	ldy	#$12
    2284: 91 10        	sta	($10),y                 ; 0x10 <__rc0>
    2286: a5 15        	lda	$15                     ; 0x15 <__rc5>
    2288: c8           	iny
    2289: 91 10        	sta	($10),y                 ; 0x10 <__rc0>
    228b: 68           	pla
    228c: 92 14        	sta	($14)                   ; 0x14 <__rc4>
    228e: a0 01        	ldy	#$1
    2290: 8a           	txa
    2291: 91 14        	sta	($14),y                 ; 0x14 <__rc4>
    2293: a2 01        	ldx	#$1
    2295: 86 2b        	stx	$2b                     ; 0x2b <__rc27>
    2297: a9 46        	lda	#$46
    2299: a6 2a        	ldx	$2a                     ; 0x2a <__rc26>
    229b: 86 12        	stx	$12                     ; 0x12 <__rc2>
    229d: 64 13        	stz	$13                     ; 0x13 <__rc3>
    229f: a2 5f        	ldx	#$5f
    22a1: 20 f9 45     	jsr	$45f9 <FAR_PEEKW>
    22a4: 18           	clc
    22a5: 48           	pha
    22a6: a5 10        	lda	$10                     ; 0x10 <__rc0>
    22a8: 69 28        	adc	#$28
    22aa: 85 26        	sta	$26                     ; 0x26 <__rc22>
    22ac: a5 11        	lda	$11                     ; 0x11 <__rc1>
    22ae: 69 00        	adc	#$0
    22b0: 85 27        	sta	$27                     ; 0x27 <__rc23>
    22b2: 68           	pla
    22b3: 92 26        	sta	($26)                   ; 0x26 <__rc22>
    22b5: a4 2b        	ldy	$2b                     ; 0x2b <__rc27>
    22b7: 8a           	txa
    22b8: 91 26        	sta	($26),y                 ; 0x26 <__rc22>
    22ba: a9 4a        	lda	#$4a
    22bc: a6 2a        	ldx	$2a                     ; 0x2a <__rc26>
    22be: 86 12        	stx	$12                     ; 0x12 <__rc2>
    22c0: 64 13        	stz	$13                     ; 0x13 <__rc3>
    22c2: a2 5f        	ldx	#$5f
    22c4: 20 f9 45     	jsr	$45f9 <FAR_PEEKW>
    22c7: 18           	clc
    22c8: 48           	pha
    22c9: a5 10        	lda	$10                     ; 0x10 <__rc0>
    22cb: 69 26        	adc	#$26
    22cd: 85 12        	sta	$12                     ; 0x12 <__rc2>
    22cf: a5 11        	lda	$11                     ; 0x11 <__rc1>
    22d1: 69 00        	adc	#$0
    22d3: 85 13        	sta	$13                     ; 0x13 <__rc3>
    22d5: 68           	pla
    22d6: 92 12        	sta	($12)                   ; 0x12 <__rc2>
    22d8: a4 2b        	ldy	$2b                     ; 0x2b <__rc27>
    22da: 8a           	txa
    22db: 91 12        	sta	($12),y                 ; 0x12 <__rc2>
    22dd: a9 3e        	lda	#$3e
    22df: a6 2a        	ldx	$2a                     ; 0x2a <__rc26>
    22e1: 86 12        	stx	$12                     ; 0x12 <__rc2>
    22e3: 64 13        	stz	$13                     ; 0x13 <__rc3>
    22e5: a2 5f        	ldx	#$5f
    22e7: 20 f9 45     	jsr	$45f9 <FAR_PEEKW>
    22ea: 18           	clc
    22eb: 48           	pha
    22ec: a5 10        	lda	$10                     ; 0x10 <__rc0>
    22ee: 69 24        	adc	#$24
    22f0: 85 24        	sta	$24                     ; 0x24 <__rc20>
    22f2: a5 11        	lda	$11                     ; 0x11 <__rc1>
    22f4: 69 00        	adc	#$0
    22f6: 85 25        	sta	$25                     ; 0x25 <__rc21>
    22f8: 68           	pla
    22f9: 92 24        	sta	($24)                   ; 0x24 <__rc20>
    22fb: a4 2b        	ldy	$2b                     ; 0x2b <__rc27>
    22fd: 8a           	txa
    22fe: 91 24        	sta	($24),y                 ; 0x24 <__rc20>
    2300: a6 2a        	ldx	$2a                     ; 0x2a <__rc26>
    2302: 86 12        	stx	$12                     ; 0x12 <__rc2>
    2304: 64 13        	stz	$13                     ; 0x13 <__rc3>
    2306: a2 00        	ldx	#$0
    2308: 8a           	txa
    2309: 20 d8 45     	jsr	$45d8 <FAR_PEEK>
    230c: 18           	clc
    230d: 48           	pha
    230e: a5 10        	lda	$10                     ; 0x10 <__rc0>
    2310: 69 23        	adc	#$23
    2312: 85 12        	sta	$12                     ; 0x12 <__rc2>
    2314: a5 11        	lda	$11                     ; 0x11 <__rc1>
    2316: 69 00        	adc	#$0
    2318: 85 13        	sta	$13                     ; 0x13 <__rc3>
    231a: 68           	pla
    231b: 92 12        	sta	($12)                   ; 0x12 <__rc2>
    231d: a6 2a        	ldx	$2a                     ; 0x2a <__rc26>
    231f: 86 12        	stx	$12                     ; 0x12 <__rc2>
    2321: 64 13        	stz	$13                     ; 0x13 <__rc3>
    2323: a2 00        	ldx	#$0
    2325: a5 2b        	lda	$2b                     ; 0x2b <__rc27>
    2327: 20 d8 45     	jsr	$45d8 <FAR_PEEK>
    232a: 18           	clc
    232b: 48           	pha
    232c: a5 10        	lda	$10                     ; 0x10 <__rc0>
    232e: 69 22        	adc	#$22
    2330: 85 12        	sta	$12                     ; 0x12 <__rc2>
    2332: a5 11        	lda	$11                     ; 0x11 <__rc1>
    2334: 69 00        	adc	#$0
    2336: 85 13        	sta	$13                     ; 0x13 <__rc3>
    2338: 68           	pla
    2339: 92 12        	sta	($12)                   ; 0x12 <__rc2>
    233b: b2 24        	lda	($24)                   ; 0x24 <__rc20>
    233d: 85 12        	sta	$12                     ; 0x12 <__rc2>
    233f: a0 12        	ldy	#$12
    2341: b1 10        	lda	($10),y                 ; 0x10 <__rc0>
    2343: 85 14        	sta	$14                     ; 0x14 <__rc4>
    2345: c8           	iny
    2346: b1 10        	lda	($10),y                 ; 0x10 <__rc0>
    2348: 85 15        	sta	$15                     ; 0x15 <__rc5>
    234a: b2 14        	lda	($14)                   ; 0x14 <__rc4>
    234c: 85 13        	sta	$13                     ; 0x13 <__rc3>
    234e: a0 01        	ldy	#$1
    2350: b1 14        	lda	($14),y                 ; 0x14 <__rc4>
    2352: 85 14        	sta	$14                     ; 0x14 <__rc4>
    2354: 38           	sec
    2355: a5 13        	lda	$13                     ; 0x13 <__rc3>
    2357: f2 26        	sbc	($26)                   ; 0x26 <__rc22>
    2359: 85 13        	sta	$13                     ; 0x13 <__rc3>
    235b: a5 14        	lda	$14                     ; 0x14 <__rc4>
    235d: f1 26        	sbc	($26),y                 ; 0x26 <__rc22>
    235f: aa           	tax
    2360: 18           	clc
    2361: a5 13        	lda	$13                     ; 0x13 <__rc3>
    2363: 69 10        	adc	#$10
    2365: 85 13        	sta	$13                     ; 0x13 <__rc3>
    2367: 8a           	txa
    2368: 69 00        	adc	#$0
    236a: d1 24        	cmp	($24),y                 ; 0x24 <__rc20>
    236c: a2 01        	ldx	#$1
    236e: b0 02        	bcs	$2372 <pickFile_far+0xe6b>
    2370: a2 00        	ldx	#$0
    2372: 86 14        	stx	$14                     ; 0x14 <__rc4>
    2374: d1 24        	cmp	($24),y                 ; 0x24 <__rc20>
    2376: f0 02        	beq	$237a <pickFile_far+0xe73>
    2378: 80 09        	bra	$2383 <pickFile_far+0xe7c>
    237a: a6 13        	ldx	$13                     ; 0x13 <__rc3>
    237c: e4 12        	cpx	$12                     ; 0x12 <__rc2>
    237e: 90 0a        	bcc	$238a <pickFile_far+0xe83>
    2380: 4c eb 24     	jmp	$24eb <pickFile_far+0xfe4>
    2383: a5 14        	lda	$14                     ; 0x14 <__rc4>
    2385: f0 03        	beq	$238a <pickFile_far+0xe83>
    2387: 4c eb 24     	jmp	$24eb <pickFile_far+0xfe4>
    238a: 80 00        	bra	$238c <pickFile_far+0xe85>
    238c: 18           	clc
    238d: a5 10        	lda	$10                     ; 0x10 <__rc0>
    238f: 69 23        	adc	#$23
    2391: 85 12        	sta	$12                     ; 0x12 <__rc2>
    2393: a5 11        	lda	$11                     ; 0x11 <__rc1>
    2395: 69 00        	adc	#$0
    2397: 85 13        	sta	$13                     ; 0x13 <__rc3>
    2399: a5 12        	lda	$12                     ; 0x12 <__rc2>
    239b: a0 20        	ldy	#$20
    239d: 91 10        	sta	($10),y                 ; 0x10 <__rc0>
    239f: a5 13        	lda	$13                     ; 0x13 <__rc3>
    23a1: c8           	iny
    23a2: 91 10        	sta	($10),y                 ; 0x10 <__rc0>
    23a4: b2 12        	lda	($12)                   ; 0x12 <__rc2>
    23a6: a8           	tay
    23a7: 18           	clc
    23a8: 5a           	phy
    23a9: a5 10        	lda	$10                     ; 0x10 <__rc0>
    23ab: 69 22        	adc	#$22
    23ad: 85 12        	sta	$12                     ; 0x12 <__rc2>
    23af: a5 11        	lda	$11                     ; 0x11 <__rc1>
    23b1: 69 00        	adc	#$0
    23b3: 85 13        	sta	$13                     ; 0x13 <__rc3>
    23b5: a5 12        	lda	$12                     ; 0x12 <__rc2>
    23b7: a0 1e        	ldy	#$1e
    23b9: 91 10        	sta	($10),y                 ; 0x10 <__rc0>
    23bb: a5 13        	lda	$13                     ; 0x13 <__rc3>
    23bd: c8           	iny
    23be: 91 10        	sta	($10),y                 ; 0x10 <__rc0>
    23c0: 7a           	ply
    23c1: 18           	clc
    23c2: a5 10        	lda	$10                     ; 0x10 <__rc0>
    23c4: 69 28        	adc	#$28
    23c6: 85 24        	sta	$24                     ; 0x24 <__rc20>
    23c8: a5 11        	lda	$11                     ; 0x11 <__rc1>
    23ca: 69 00        	adc	#$0
    23cc: 85 25        	sta	$25                     ; 0x25 <__rc21>
    23ce: b2 24        	lda	($24)                   ; 0x24 <__rc20>
    23d0: 18           	clc
    23d1: 72 12        	adc	($12)                   ; 0x12 <__rc2>
    23d3: aa           	tax
    23d4: 98           	tya
    23d5: 20 c0 6d     	jsr	$6dc0 <textGotoXY>
    23d8: a9 20        	lda	#$20
    23da: 92 10        	sta	($10)                   ; 0x10 <__rc0>
    23dc: a0 01        	ldy	#$1
    23de: a9 00        	lda	#$0
    23e0: 91 10        	sta	($10),y                 ; 0x10 <__rc0>
    23e2: a2 e7        	ldx	#$e7
    23e4: 86 12        	stx	$12                     ; 0x12 <__rc2>
    23e6: a2 8a        	ldx	#$8a
    23e8: 86 13        	stx	$13                     ; 0x13 <__rc3>
    23ea: a5 12        	lda	$12                     ; 0x12 <__rc2>
    23ec: a0 1c        	ldy	#$1c
    23ee: 91 10        	sta	($10),y                 ; 0x10 <__rc0>
    23f0: a5 13        	lda	$13                     ; 0x13 <__rc3>
    23f2: c8           	iny
    23f3: 91 10        	sta	($10),y                 ; 0x10 <__rc0>
    23f5: 20 66 7f     	jsr	$7f66 <printf>
    23f8: 38           	sec
    23f9: a9 0f        	lda	#$f
    23fb: f2 24        	sbc	($24)                   ; 0x24 <__rc20>
    23fd: aa           	tax
    23fe: a9 00        	lda	#$0
    2400: a0 01        	ldy	#$1
    2402: f1 24        	sbc	($24),y                 ; 0x24 <__rc20>
    2404: 85 15        	sta	$15                     ; 0x15 <__rc5>
    2406: 18           	clc
    2407: a5 10        	lda	$10                     ; 0x10 <__rc0>
    2409: 69 2a        	adc	#$2a
    240b: 85 12        	sta	$12                     ; 0x12 <__rc2>
    240d: a5 11        	lda	$11                     ; 0x11 <__rc1>
    240f: 69 00        	adc	#$0
    2411: 85 13        	sta	$13                     ; 0x13 <__rc3>
    2413: 18           	clc
    2414: 8a           	txa
    2415: 72 12        	adc	($12)                   ; 0x12 <__rc2>
    2417: 85 14        	sta	$14                     ; 0x14 <__rc4>
    2419: a5 15        	lda	$15                     ; 0x15 <__rc5>
    241b: 71 12        	adc	($12),y                 ; 0x12 <__rc2>
    241d: 85 15        	sta	$15                     ; 0x15 <__rc5>
    241f: a5 14        	lda	$14                     ; 0x14 <__rc4>
    2421: 92 12        	sta	($12)                   ; 0x12 <__rc2>
    2423: a5 15        	lda	$15                     ; 0x15 <__rc5>
    2425: 91 12        	sta	($12),y                 ; 0x12 <__rc2>
    2427: a9 00        	lda	#$0
    2429: 92 24        	sta	($24)                   ; 0x24 <__rc20>
    242b: 91 24        	sta	($24),y                 ; 0x24 <__rc20>
    242d: 18           	clc
    242e: a5 10        	lda	$10                     ; 0x10 <__rc0>
    2430: 69 26        	adc	#$26
    2432: 85 26        	sta	$26                     ; 0x26 <__rc22>
    2434: a5 11        	lda	$11                     ; 0x11 <__rc1>
    2436: 69 00        	adc	#$0
    2438: 85 27        	sta	$27                     ; 0x27 <__rc23>
    243a: b2 26        	lda	($26)                   ; 0x26 <__rc22>
    243c: 85 15        	sta	$15                     ; 0x15 <__rc5>
    243e: b1 26        	lda	($26),y                 ; 0x26 <__rc22>
    2440: 85 14        	sta	$14                     ; 0x14 <__rc4>
    2442: 18           	clc
    2443: a5 15        	lda	$15                     ; 0x15 <__rc5>
    2445: 69 0f        	adc	#$f
    2447: 85 15        	sta	$15                     ; 0x15 <__rc5>
    2449: a5 14        	lda	$14                     ; 0x14 <__rc4>
    244b: 69 00        	adc	#$0
    244d: aa           	tax
    244e: a5 15        	lda	$15                     ; 0x15 <__rc5>
    2450: 92 26        	sta	($26)                   ; 0x26 <__rc22>
    2452: 8a           	txa
    2453: 91 26        	sta	($26),y                 ; 0x26 <__rc22>
    2455: b2 12        	lda	($12)                   ; 0x12 <__rc2>
    2457: 85 14        	sta	$14                     ; 0x14 <__rc4>
    2459: b1 12        	lda	($12),y                 ; 0x12 <__rc2>
    245b: a2 01        	ldx	#$1
    245d: 86 2a        	stx	$2a                     ; 0x2a <__rc26>
    245f: a2 03        	ldx	#$3
    2461: 86 12        	stx	$12                     ; 0x12 <__rc2>
    2463: 86 2b        	stx	$2b                     ; 0x2b <__rc27>
    2465: 64 13        	stz	$13                     ; 0x13 <__rc3>
    2467: 85 15        	sta	$15                     ; 0x15 <__rc5>
    2469: a2 5f        	ldx	#$5f
    246b: a9 42        	lda	#$42
    246d: 20 46 46     	jsr	$4646 <FAR_POKEW>
    2470: b2 24        	lda	($24)                   ; 0x24 <__rc20>
    2472: 85 14        	sta	$14                     ; 0x14 <__rc4>
    2474: a4 2a        	ldy	$2a                     ; 0x2a <__rc26>
    2476: b1 24        	lda	($24),y                 ; 0x24 <__rc20>
    2478: a6 2b        	ldx	$2b                     ; 0x2b <__rc27>
    247a: 86 12        	stx	$12                     ; 0x12 <__rc2>
    247c: 64 13        	stz	$13                     ; 0x13 <__rc3>
    247e: 85 15        	sta	$15                     ; 0x15 <__rc5>
    2480: a2 5f        	ldx	#$5f
    2482: a9 46        	lda	#$46
    2484: 20 46 46     	jsr	$4646 <FAR_POKEW>
    2487: b2 26        	lda	($26)                   ; 0x26 <__rc22>
    2489: 85 14        	sta	$14                     ; 0x14 <__rc4>
    248b: a4 2a        	ldy	$2a                     ; 0x2a <__rc26>
    248d: b1 26        	lda	($26),y                 ; 0x26 <__rc22>
    248f: a6 2b        	ldx	$2b                     ; 0x2b <__rc27>
    2491: 86 12        	stx	$12                     ; 0x12 <__rc2>
    2493: 64 13        	stz	$13                     ; 0x13 <__rc3>
    2495: 85 15        	sta	$15                     ; 0x15 <__rc5>
    2497: a2 5f        	ldx	#$5f
    2499: a9 4a        	lda	#$4a
    249b: 20 46 46     	jsr	$4646 <FAR_POKEW>
    249e: b2 26        	lda	($26)                   ; 0x26 <__rc22>
    24a0: 85 12        	sta	$12                     ; 0x12 <__rc2>
    24a2: a4 2a        	ldy	$2a                     ; 0x2a <__rc26>
    24a4: b1 26        	lda	($26),y                 ; 0x26 <__rc22>
    24a6: aa           	tax
    24a7: a5 12        	lda	$12                     ; 0x12 <__rc2>
    24a9: 20 ba 10     	jsr	$10ba <displayFileList_far>
    24ac: a0 20        	ldy	#$20
    24ae: b1 10        	lda	($10),y                 ; 0x10 <__rc0>
    24b0: 85 12        	sta	$12                     ; 0x12 <__rc2>
    24b2: c8           	iny
    24b3: b1 10        	lda	($10),y                 ; 0x10 <__rc0>
    24b5: 85 13        	sta	$13                     ; 0x13 <__rc3>
    24b7: b2 12        	lda	($12)                   ; 0x12 <__rc2>
    24b9: a8           	tay
    24ba: b2 24        	lda	($24)                   ; 0x24 <__rc20>
    24bc: 18           	clc
    24bd: 48           	pha
    24be: 5a           	phy
    24bf: a0 1e        	ldy	#$1e
    24c1: b1 10        	lda	($10),y                 ; 0x10 <__rc0>
    24c3: 85 12        	sta	$12                     ; 0x12 <__rc2>
    24c5: c8           	iny
    24c6: b1 10        	lda	($10),y                 ; 0x10 <__rc0>
    24c8: 7a           	ply
    24c9: 85 13        	sta	$13                     ; 0x13 <__rc3>
    24cb: 68           	pla
    24cc: 72 12        	adc	($12)                   ; 0x12 <__rc2>
    24ce: aa           	tax
    24cf: 98           	tya
    24d0: 20 c0 6d     	jsr	$6dc0 <textGotoXY>
    24d3: a9 fa        	lda	#$fa
    24d5: 92 10        	sta	($10)                   ; 0x10 <__rc0>
    24d7: a9 00        	lda	#$0
    24d9: a4 2a        	ldy	$2a                     ; 0x2a <__rc26>
    24db: 91 10        	sta	($10),y                 ; 0x10 <__rc0>
    24dd: a0 1c        	ldy	#$1c
    24df: b1 10        	lda	($10),y                 ; 0x10 <__rc0>
    24e1: 85 12        	sta	$12                     ; 0x12 <__rc2>
    24e3: c8           	iny
    24e4: b1 10        	lda	($10),y                 ; 0x10 <__rc0>
    24e6: 85 13        	sta	$13                     ; 0x13 <__rc3>
    24e8: 20 66 7f     	jsr	$7f66 <printf>
    24eb: 4c 3d 15     	jmp	$153d <pickFile_far+0x36>
    24ee: 18           	clc
    24ef: a5 10        	lda	$10                     ; 0x10 <__rc0>
    24f1: 69 5d        	adc	#$5d
    24f3: 85 12        	sta	$12                     ; 0x12 <__rc2>
    24f5: a5 11        	lda	$11                     ; 0x11 <__rc1>
    24f7: 69 00        	adc	#$0
    24f9: 85 13        	sta	$13                     ; 0x13 <__rc3>
    24fb: b2 12        	lda	($12)                   ; 0x12 <__rc2>
    24fd: 85 20        	sta	$20                     ; 0x20 <__rc16>
    24ff: a0 02        	ldy	#$2
    2501: b1 10        	lda	($10),y                 ; 0x10 <__rc0>
    2503: 85 2b        	sta	$2b                     ; 0x2b <__rc27>
    2505: c8           	iny
    2506: b1 10        	lda	($10),y                 ; 0x10 <__rc0>
    2508: 85 2a        	sta	$2a                     ; 0x2a <__rc26>
    250a: c8           	iny
    250b: b1 10        	lda	($10),y                 ; 0x10 <__rc0>
    250d: 85 29        	sta	$29                     ; 0x29 <__rc25>
    250f: c8           	iny
    2510: b1 10        	lda	($10),y                 ; 0x10 <__rc0>
    2512: 85 28        	sta	$28                     ; 0x28 <__rc24>
    2514: fa           	plx
    2515: 86 27        	stx	$27                     ; 0x27 <__rc23>
    2517: fa           	plx
    2518: 86 26        	stx	$26                     ; 0x26 <__rc22>
    251a: fa           	plx
    251b: 86 25        	stx	$25                     ; 0x25 <__rc21>
    251d: fa           	plx
    251e: 86 24        	stx	$24                     ; 0x24 <__rc20>
    2520: 18           	clc
    2521: a5 10        	lda	$10                     ; 0x10 <__rc0>
    2523: 69 5e        	adc	#$5e
    2525: 85 10        	sta	$10                     ; 0x10 <__rc0>
    2527: a5 11        	lda	$11                     ; 0x11 <__rc1>
    2529: 69 00        	adc	#$0
    252b: 85 11        	sta	$11                     ; 0x11 <__rc1>
    252d: a5 20        	lda	$20                     ; 0x20 <__rc16>
    252f: 60           	rts

00002530 <reprepFPR_far>:
    2530: a2 01        	ldx	#$1
    2532: a0 00        	ldy	#$0
    2534: 84 14        	sty	$14                     ; 0x14 <__rc4>
    2536: 64 17        	stz	$17                     ; 0x17 <__rc7>
    2538: 86 16        	stx	$16                     ; 0x16 <__rc6>
    253a: 8a           	txa
    253b: 0a           	asl
    253c: a6 17        	ldx	$17                     ; 0x17 <__rc7>
    253e: 86 12        	stx	$12                     ; 0x12 <__rc2>
    2540: 26 12        	rol	$12                     ; 0x12 <__rc2>
    2542: 0a           	asl
    2543: 26 12        	rol	$12                     ; 0x12 <__rc2>
    2545: 0a           	asl
    2546: 85 13        	sta	$13                     ; 0x13 <__rc3>
    2548: 26 12        	rol	$12                     ; 0x12 <__rc2>
    254a: 0a           	asl
    254b: aa           	tax
    254c: a5 12        	lda	$12                     ; 0x12 <__rc2>
    254e: 2a           	rol
    254f: 86 15        	stx	$15                     ; 0x15 <__rc5>
    2551: 06 15        	asl	$15                     ; 0x15 <__rc5>
    2553: 2a           	rol
    2554: 06 15        	asl	$15                     ; 0x15 <__rc5>
    2556: 2a           	rol
    2557: 06 15        	asl	$15                     ; 0x15 <__rc5>
    2559: 2a           	rol
    255a: aa           	tax
    255b: 38           	sec
    255c: a5 15        	lda	$15                     ; 0x15 <__rc5>
    255e: e5 13        	sbc	$13                     ; 0x13 <__rc3>
    2560: 85 1a        	sta	$1a                     ; 0x1a <__rc10>
    2562: 8a           	txa
    2563: e5 12        	sbc	$12                     ; 0x12 <__rc2>
    2565: 85 18        	sta	$18                     ; 0x18 <__rc8>
    2567: 64 12        	stz	$12                     ; 0x12 <__rc2>
    2569: a6 14        	ldx	$14                     ; 0x14 <__rc4>
    256b: 86 19        	stx	$19                     ; 0x19 <__rc9>
    256d: a5 1a        	lda	$1a                     ; 0x1a <__rc10>
    256f: a6 19        	ldx	$19                     ; 0x19 <__rc9>
    2571: e0 01        	cpx	#$1
    2573: 65 12        	adc	$12                     ; 0x12 <__rc2>
    2575: 85 13        	sta	$13                     ; 0x13 <__rc3>
    2577: a5 18        	lda	$18                     ; 0x18 <__rc8>
    2579: 69 00        	adc	#$0
    257b: a8           	tay
    257c: a9 00        	lda	#$0
    257e: 69 00        	adc	#$0
    2580: aa           	tax
    2581: 18           	clc
    2582: a5 13        	lda	$13                     ; 0x13 <__rc3>
    2584: 69 b6        	adc	#$b6
    2586: 85 14        	sta	$14                     ; 0x14 <__rc4>
    2588: 98           	tya
    2589: 69 00        	adc	#$0
    258b: a8           	tay
    258c: 8a           	txa
    258d: 69 03        	adc	#$3
    258f: 85 15        	sta	$15                     ; 0x15 <__rc5>
    2591: 98           	tya
    2592: 84 13        	sty	$13                     ; 0x13 <__rc3>
    2594: 06 13        	asl	$13                     ; 0x13 <__rc3>
    2596: 26 15        	rol	$15                     ; 0x15 <__rc5>
    2598: 06 13        	asl	$13                     ; 0x13 <__rc3>
    259a: 26 15        	rol	$15                     ; 0x15 <__rc5>
    259c: 06 13        	asl	$13                     ; 0x13 <__rc3>
    259e: 26 15        	rol	$15                     ; 0x15 <__rc5>
    25a0: a4 15        	ldy	$15                     ; 0x15 <__rc5>
    25a2: a6 0f        	ldx	$f                      ; 0xf <__data_size+0xf>
    25a4: 78           	sei
    25a5: 84 0f        	sty	$f                      ; 0xf <__data_size+0xf>
    25a7: 09 e0        	ora	#$e0
    25a9: 85 15        	sta	$15                     ; 0x15 <__rc5>
    25ab: a9 00        	lda	#$0
    25ad: 92 14        	sta	($14)                   ; 0x14 <__rc4>
    25af: 86 0f        	stx	$f                      ; 0xf <__data_size+0xf>
    25b1: 58           	cli
    25b2: a6 12        	ldx	$12                     ; 0x12 <__rc2>
    25b4: e8           	inx
    25b5: 86 12        	stx	$12                     ; 0x12 <__rc2>
    25b7: e0 78        	cpx	#$78
    25b9: f0 03        	beq	$25be <reprepFPR_far+0x8e>
    25bb: 4c 6d 25     	jmp	$256d <reprepFPR_far+0x3d>
    25be: a2 00        	ldx	#$0
    25c0: 86 14        	stx	$14                     ; 0x14 <__rc4>
    25c2: 18           	clc
    25c3: a6 16        	ldx	$16                     ; 0x16 <__rc6>
    25c5: a5 16        	lda	$16                     ; 0x16 <__rc6>
    25c7: 69 76        	adc	#$76
    25c9: 85 13        	sta	$13                     ; 0x13 <__rc3>
    25cb: a5 17        	lda	$17                     ; 0x17 <__rc7>
    25cd: 69 5e        	adc	#$5e
    25cf: 85 15        	sta	$15                     ; 0x15 <__rc5>
    25d1: a9 00        	lda	#$0
    25d3: 69 03        	adc	#$3
    25d5: a4 15        	ldy	$15                     ; 0x15 <__rc5>
    25d7: 84 12        	sty	$12                     ; 0x12 <__rc2>
    25d9: 06 12        	asl	$12                     ; 0x12 <__rc2>
    25db: 2a           	rol
    25dc: 06 12        	asl	$12                     ; 0x12 <__rc2>
    25de: 2a           	rol
    25df: 06 12        	asl	$12                     ; 0x12 <__rc2>
    25e1: 2a           	rol
    25e2: a4 0f        	ldy	$f                      ; 0xf <__data_size+0xf>
    25e4: 78           	sei
    25e5: 85 0f        	sta	$f                      ; 0xf <__data_size+0xf>
    25e7: a5 13        	lda	$13                     ; 0x13 <__rc3>
    25e9: 85 12        	sta	$12                     ; 0x12 <__rc2>
    25eb: a5 15        	lda	$15                     ; 0x15 <__rc5>
    25ed: 09 e0        	ora	#$e0
    25ef: 85 13        	sta	$13                     ; 0x13 <__rc3>
    25f1: a9 00        	lda	#$0
    25f3: 92 12        	sta	($12)                   ; 0x12 <__rc2>
    25f5: 84 0f        	sty	$f                      ; 0xf <__data_size+0xf>
    25f7: 58           	cli
    25f8: e8           	inx
    25f9: d0 02        	bne	$25fd <reprepFPR_far+0xcd>
    25fb: e6 17        	inc	$17                     ; 0x17 <__rc7>
    25fd: a5 17        	lda	$17                     ; 0x17 <__rc7>
    25ff: f0 03        	beq	$2604 <reprepFPR_far+0xd4>
    2601: 4c 38 25     	jmp	$2538 <reprepFPR_far+0x8>
    2604: e0 c8        	cpx	#$c8
    2606: f0 03        	beq	$260b <reprepFPR_far+0xdb>
    2608: 4c 38 25     	jmp	$2538 <reprepFPR_far+0x8>
    260b: a4 0f        	ldy	$f                      ; 0xf <__data_size+0xf>
    260d: 78           	sei
    260e: a2 1a        	ldx	#$1a
    2610: 86 0f        	stx	$f                      ; 0xf <__data_size+0xf>
    2612: 9c 3e ff     	stz	$ff3e                   ; 0xff3e <__heap_start+0x7026>
    2615: 9c 3f ff     	stz	$ff3f                   ; 0xff3f <__heap_start+0x7027>
    2618: 84 0f        	sty	$f                      ; 0xf <__data_size+0xf>
    261a: 58           	cli
    261b: a4 0f        	ldy	$f                      ; 0xf <__data_size+0xf>
    261d: 78           	sei
    261e: 86 0f        	stx	$f                      ; 0xf <__data_size+0xf>
    2620: 9c 42 ff     	stz	$ff42                   ; 0xff42 <__heap_start+0x702a>
    2623: 9c 43 ff     	stz	$ff43                   ; 0xff43 <__heap_start+0x702b>
    2626: 84 0f        	sty	$f                      ; 0xf <__data_size+0xf>
    2628: 58           	cli
    2629: a4 0f        	ldy	$f                      ; 0xf <__data_size+0xf>
    262b: 78           	sei
    262c: 86 0f        	stx	$f                      ; 0xf <__data_size+0xf>
    262e: 9c 4a ff     	stz	$ff4a                   ; 0xff4a <__heap_start+0x7032>
    2631: 9c 4b ff     	stz	$ff4b                   ; 0xff4b <__heap_start+0x7033>
    2634: 84 0f        	sty	$f                      ; 0xf <__data_size+0xf>
    2636: 58           	cli
    2637: a4 0f        	ldy	$f                      ; 0xf <__data_size+0xf>
    2639: 78           	sei
    263a: 86 0f        	stx	$f                      ; 0xf <__data_size+0xf>
    263c: 9c 46 ff     	stz	$ff46                   ; 0xff46 <__heap_start+0x702e>
    263f: 9c 47 ff     	stz	$ff47                   ; 0xff47 <__heap_start+0x702f>
    2642: 84 0f        	sty	$f                      ; 0xf <__data_size+0xf>
    2644: 58           	cli
    2645: 60           	rts

00002646 <wipeArea_far>:
    2646: 18           	clc
    2647: a5 10        	lda	$10                     ; 0x10 <__rc0>
    2649: 69 ff        	adc	#$ff
    264b: 85 10        	sta	$10                     ; 0x10 <__rc0>
    264d: a5 11        	lda	$11                     ; 0x11 <__rc1>
    264f: 69 ff        	adc	#$ff
    2651: 85 11        	sta	$11                     ; 0x11 <__rc1>
    2653: a6 24        	ldx	$24                     ; 0x24 <__rc20>
    2655: da           	phx
    2656: a6 25        	ldx	$25                     ; 0x25 <__rc21>
    2658: da           	phx
    2659: a6 26        	ldx	$26                     ; 0x26 <__rc22>
    265b: da           	phx
    265c: a6 27        	ldx	$27                     ; 0x27 <__rc23>
    265e: da           	phx
    265f: a5 28        	lda	$28                     ; 0x28 <__rc24>
    2661: a0 00        	ldy	#$0
    2663: 91 10        	sta	($10),y                 ; 0x10 <__rc0>
    2665: a6 0f        	ldx	$f                      ; 0xf <__data_size+0xf>
    2667: 78           	sei
    2668: a0 18        	ldy	#$18
    266a: 84 0f        	sty	$f                      ; 0xf <__data_size+0xf>
    266c: ac 01 e0     	ldy	$e001                   ; 0xe001 <__heap_start+0x50e9>
    266f: 86 0f        	stx	$f                      ; 0xf <__data_size+0xf>
    2671: 58           	cli
    2672: 18           	clc
    2673: 98           	tya
    2674: 69 b0        	adc	#$b0
    2676: 85 25        	sta	$25                     ; 0x25 <__rc21>
    2678: a2 00        	ldx	#$0
    267a: c0 50        	cpy	#$50
    267c: a0 01        	ldy	#$1
    267e: b0 02        	bcs	$2682 <wipeArea_far+0x3c>
    2680: a0 00        	ldy	#$0
    2682: 84 27        	sty	$27                     ; 0x27 <__rc23>
    2684: a0 20        	ldy	#$20
    2686: 84 28        	sty	$28                     ; 0x28 <__rc24>
    2688: 86 26        	stx	$26                     ; 0x26 <__rc22>
    268a: a6 25        	ldx	$25                     ; 0x25 <__rc21>
    268c: 86 24        	stx	$24                     ; 0x24 <__rc20>
    268e: a5 27        	lda	$27                     ; 0x27 <__rc23>
    2690: d0 13        	bne	$26a5 <wipeArea_far+0x5f>
    2692: a6 28        	ldx	$28                     ; 0x28 <__rc24>
    2694: 86 6c        	stx	$6c                     ; 0x6c <__putchar.s>
    2696: a2 6c        	ldx	#$6c
    2698: 86 12        	stx	$12                     ; 0x12 <__rc2>
    269a: a2 00        	ldx	#$0
    269c: 86 13        	stx	$13                     ; 0x13 <__rc3>
    269e: 20 d1 6d     	jsr	$6dd1 <textPrint>
    26a1: e6 24        	inc	$24                     ; 0x24 <__rc20>
    26a3: d0 ed        	bne	$2692 <wipeArea_far+0x4c>
    26a5: a2 20        	ldx	#$20
    26a7: 86 28        	stx	$28                     ; 0x28 <__rc24>
    26a9: a2 0a        	ldx	#$a
    26ab: 86 6c        	stx	$6c                     ; 0x6c <__putchar.s>
    26ad: a2 6c        	ldx	#$6c
    26af: 86 12        	stx	$12                     ; 0x12 <__rc2>
    26b1: a2 00        	ldx	#$0
    26b3: 86 13        	stx	$13                     ; 0x13 <__rc3>
    26b5: 20 d1 6d     	jsr	$6dd1 <textPrint>
    26b8: a6 26        	ldx	$26                     ; 0x26 <__rc22>
    26ba: e8           	inx
    26bb: e0 11        	cpx	#$11
    26bd: d0 c9        	bne	$2688 <wipeArea_far+0x42>
    26bf: a0 00        	ldy	#$0
    26c1: b1 10        	lda	($10),y                 ; 0x10 <__rc0>
    26c3: 85 28        	sta	$28                     ; 0x28 <__rc24>
    26c5: fa           	plx
    26c6: 86 27        	stx	$27                     ; 0x27 <__rc23>
    26c8: fa           	plx
    26c9: 86 26        	stx	$26                     ; 0x26 <__rc22>
    26cb: fa           	plx
    26cc: 86 25        	stx	$25                     ; 0x25 <__rc21>
    26ce: fa           	plx
    26cf: 86 24        	stx	$24                     ; 0x24 <__rc20>
    26d1: 18           	clc
    26d2: a5 10        	lda	$10                     ; 0x10 <__rc0>
    26d4: 69 01        	adc	#$1
    26d6: 85 10        	sta	$10                     ; 0x10 <__rc0>
    26d8: a5 11        	lda	$11                     ; 0x11 <__rc1>
    26da: 69 00        	adc	#$0
    26dc: 85 11        	sta	$11                     ; 0x11 <__rc1>
    26de: 60           	rts

000026df <displayImage>:
    26df: 18           	clc
    26e0: a5 10        	lda	$10                     ; 0x10 <__rc0>
    26e2: 69 e9        	adc	#$e9
    26e4: 85 10        	sta	$10                     ; 0x10 <__rc0>
    26e6: a5 11        	lda	$11                     ; 0x11 <__rc1>
    26e8: 69 ff        	adc	#$ff
    26ea: 85 11        	sta	$11                     ; 0x11 <__rc1>
    26ec: a6 24        	ldx	$24                     ; 0x24 <__rc20>
    26ee: da           	phx
    26ef: a6 25        	ldx	$25                     ; 0x25 <__rc21>
    26f1: da           	phx
    26f2: a6 26        	ldx	$26                     ; 0x26 <__rc22>
    26f4: da           	phx
    26f5: 18           	clc
    26f6: a5 10        	lda	$10                     ; 0x10 <__rc0>
    26f8: 69 13        	adc	#$13
    26fa: 85 12        	sta	$12                     ; 0x12 <__rc2>
    26fc: a5 11        	lda	$11                     ; 0x11 <__rc1>
    26fe: 69 00        	adc	#$0
    2700: 85 13        	sta	$13                     ; 0x13 <__rc3>
    2702: a9 00        	lda	#$0
    2704: 92 12        	sta	($12)                   ; 0x12 <__rc2>
    2706: a0 02        	ldy	#$2
    2708: a9 04        	lda	#$4
    270a: 91 12        	sta	($12),y                 ; 0x12 <__rc2>
    270c: 18           	clc
    270d: a5 10        	lda	$10                     ; 0x10 <__rc0>
    270f: 69 12        	adc	#$12
    2711: 85 24        	sta	$24                     ; 0x24 <__rc20>
    2713: a5 11        	lda	$11                     ; 0x11 <__rc1>
    2715: 69 00        	adc	#$0
    2717: 85 25        	sta	$25                     ; 0x25 <__rc21>
    2719: 98           	tya
    271a: 92 24        	sta	($24)                   ; 0x24 <__rc20>
    271c: 18           	clc
    271d: a5 10        	lda	$10                     ; 0x10 <__rc0>
    271f: 69 06        	adc	#$6
    2721: 85 14        	sta	$14                     ; 0x14 <__rc4>
    2723: a5 11        	lda	$11                     ; 0x11 <__rc1>
    2725: 69 00        	adc	#$0
    2727: 85 15        	sta	$15                     ; 0x15 <__rc5>
    2729: a9 00        	lda	#$0
    272b: 91 14        	sta	($14),y                 ; 0x14 <__rc4>
    272d: c8           	iny
    272e: a9 00        	lda	#$0
    2730: 91 12        	sta	($12),y                 ; 0x12 <__rc2>
    2732: a9 00        	lda	#$0
    2734: 91 14        	sta	($14),y                 ; 0x14 <__rc4>
    2736: a0 01        	ldy	#$1
    2738: a9 00        	lda	#$0
    273a: 91 12        	sta	($12),y                 ; 0x12 <__rc2>
    273c: a9 00        	lda	#$0
    273e: 92 14        	sta	($14)                   ; 0x14 <__rc4>
    2740: 91 14        	sta	($14),y                 ; 0x14 <__rc4>
    2742: a2 01        	ldx	#$1
    2744: 86 26        	stx	$26                     ; 0x26 <__rc22>
    2746: b2 24        	lda	($24)                   ; 0x24 <__rc20>
    2748: 85 12        	sta	$12                     ; 0x12 <__rc2>
    274a: 64 13        	stz	$13                     ; 0x13 <__rc3>
    274c: ca           	dex
    274d: a9 f0        	lda	#$f0
    274f: 20 0c 83     	jsr	$830c <__udivhi3>
    2752: 18           	clc
    2753: 48           	pha
    2754: a5 10        	lda	$10                     ; 0x10 <__rc0>
    2756: 69 05        	adc	#$5
    2758: 85 12        	sta	$12                     ; 0x12 <__rc2>
    275a: a5 11        	lda	$11                     ; 0x11 <__rc1>
    275c: 69 00        	adc	#$0
    275e: 85 13        	sta	$13                     ; 0x13 <__rc3>
    2760: 68           	pla
    2761: 92 12        	sta	($12)                   ; 0x12 <__rc2>
    2763: b2 24        	lda	($24)                   ; 0x24 <__rc20>
    2765: 0a           	asl
    2766: 18           	clc
    2767: 48           	pha
    2768: a5 10        	lda	$10                     ; 0x10 <__rc0>
    276a: 69 04        	adc	#$4
    276c: 85 12        	sta	$12                     ; 0x12 <__rc2>
    276e: a5 11        	lda	$11                     ; 0x11 <__rc1>
    2770: 69 00        	adc	#$0
    2772: 85 13        	sta	$13                     ; 0x13 <__rc3>
    2774: 68           	pla
    2775: 92 12        	sta	($12)                   ; 0x12 <__rc2>
    2777: 18           	clc
    2778: a5 10        	lda	$10                     ; 0x10 <__rc0>
    277a: 69 03        	adc	#$3
    277c: 85 12        	sta	$12                     ; 0x12 <__rc2>
    277e: a5 11        	lda	$11                     ; 0x11 <__rc1>
    2780: 69 00        	adc	#$0
    2782: 85 13        	sta	$13                     ; 0x13 <__rc3>
    2784: a9 00        	lda	#$0
    2786: 92 12        	sta	($12)                   ; 0x12 <__rc2>
    2788: 18           	clc
    2789: 48           	pha
    278a: a5 10        	lda	$10                     ; 0x10 <__rc0>
    278c: 69 02        	adc	#$2
    278e: 85 12        	sta	$12                     ; 0x12 <__rc2>
    2790: a5 11        	lda	$11                     ; 0x11 <__rc1>
    2792: 69 00        	adc	#$0
    2794: 85 13        	sta	$13                     ; 0x13 <__rc3>
    2796: 68           	pla
    2797: 92 12        	sta	($12)                   ; 0x12 <__rc2>
    2799: 18           	clc
    279a: a6 10        	ldx	$10                     ; 0x10 <__rc0>
    279c: 86 12        	stx	$12                     ; 0x12 <__rc2>
    279e: a6 11        	ldx	$11                     ; 0x11 <__rc1>
    27a0: 86 13        	stx	$13                     ; 0x13 <__rc3>
    27a2: 92 12        	sta	($12)                   ; 0x12 <__rc2>
    27a4: a4 26        	ldy	$26                     ; 0x26 <__rc22>
    27a6: 91 12        	sta	($12),y                 ; 0x12 <__rc2>
    27a8: b2 24        	lda	($24)                   ; 0x24 <__rc20>
    27aa: c9 02        	cmp	#$2
    27ac: f0 02        	beq	$27b0 <displayImage+0xd1>
    27ae: 80 02        	bra	$27b2 <displayImage+0xd3>
    27b0: 80 02        	bra	$27b4 <displayImage+0xd5>
    27b2: 80 13        	bra	$27c7 <displayImage+0xe8>
    27b4: 80 00        	bra	$27b6 <displayImage+0xd7>
    27b6: 18           	clc
    27b7: a5 10        	lda	$10                     ; 0x10 <__rc0>
    27b9: 69 03        	adc	#$3
    27bb: 85 12        	sta	$12                     ; 0x12 <__rc2>
    27bd: a5 11        	lda	$11                     ; 0x11 <__rc1>
    27bf: 69 00        	adc	#$0
    27c1: 85 13        	sta	$13                     ; 0x13 <__rc3>
    27c3: a9 01        	lda	#$1
    27c5: 92 12        	sta	($12)                   ; 0x12 <__rc2>
    27c7: 18           	clc
    27c8: a5 10        	lda	$10                     ; 0x10 <__rc0>
    27ca: 69 12        	adc	#$12
    27cc: 85 12        	sta	$12                     ; 0x12 <__rc2>
    27ce: a5 11        	lda	$11                     ; 0x11 <__rc1>
    27d0: 69 00        	adc	#$0
    27d2: 85 13        	sta	$13                     ; 0x13 <__rc3>
    27d4: b2 12        	lda	($12)                   ; 0x12 <__rc2>
    27d6: c9 04        	cmp	#$4
    27d8: f0 02        	beq	$27dc <displayImage+0xfd>
    27da: 80 02        	bra	$27de <displayImage+0xff>
    27dc: 80 02        	bra	$27e0 <displayImage+0x101>
    27de: 80 24        	bra	$2804 <displayImage+0x125>
    27e0: 80 00        	bra	$27e2 <displayImage+0x103>
    27e2: 18           	clc
    27e3: a5 10        	lda	$10                     ; 0x10 <__rc0>
    27e5: 69 03        	adc	#$3
    27e7: 85 12        	sta	$12                     ; 0x12 <__rc2>
    27e9: a5 11        	lda	$11                     ; 0x11 <__rc1>
    27eb: 69 00        	adc	#$0
    27ed: 85 13        	sta	$13                     ; 0x13 <__rc3>
    27ef: a9 01        	lda	#$1
    27f1: 92 12        	sta	($12)                   ; 0x12 <__rc2>
    27f3: 18           	clc
    27f4: 48           	pha
    27f5: a5 10        	lda	$10                     ; 0x10 <__rc0>
    27f7: 69 02        	adc	#$2
    27f9: 85 12        	sta	$12                     ; 0x12 <__rc2>
    27fb: a5 11        	lda	$11                     ; 0x11 <__rc1>
    27fd: 69 00        	adc	#$0
    27ff: 85 13        	sta	$13                     ; 0x13 <__rc3>
    2801: 68           	pla
    2802: 92 12        	sta	($12)                   ; 0x12 <__rc2>
    2804: a2 2a        	ldx	#$2a
    2806: 8e 40 dd     	stx	$dd40                   ; 0xdd40 <__heap_start+0x4e28>
    2809: 9c 41 dd     	stz	$dd41                   ; 0xdd41 <__heap_start+0x4e29>
    280c: 9c 41 dd     	stz	$dd41                   ; 0xdd41 <__heap_start+0x4e29>
    280f: 9c 41 dd     	stz	$dd41                   ; 0xdd41 <__heap_start+0x4e29>
    2812: a2 ef        	ldx	#$ef
    2814: 8e 41 dd     	stx	$dd41                   ; 0xdd41 <__heap_start+0x4e29>
    2817: a2 2b        	ldx	#$2b
    2819: 8e 40 dd     	stx	$dd40                   ; 0xdd40 <__heap_start+0x4e28>
    281c: 9c 41 dd     	stz	$dd41                   ; 0xdd41 <__heap_start+0x4e29>
    281f: a2 14        	ldx	#$14
    2821: 8e 41 dd     	stx	$dd41                   ; 0xdd41 <__heap_start+0x4e29>
    2824: a2 01        	ldx	#$1
    2826: 8e 41 dd     	stx	$dd41                   ; 0xdd41 <__heap_start+0x4e29>
    2829: a2 3f        	ldx	#$3f
    282b: 8e 41 dd     	stx	$dd41                   ; 0xdd41 <__heap_start+0x4e29>
    282e: a2 2c        	ldx	#$2c
    2830: 8e 40 dd     	stx	$dd40                   ; 0xdd40 <__heap_start+0x4e28>
    2833: a9 00        	lda	#$0
    2835: 18           	clc
    2836: 48           	pha
    2837: a5 10        	lda	$10                     ; 0x10 <__rc0>
    2839: 69 0a        	adc	#$a
    283b: 85 12        	sta	$12                     ; 0x12 <__rc2>
    283d: a5 11        	lda	$11                     ; 0x11 <__rc1>
    283f: 69 00        	adc	#$0
    2841: 85 13        	sta	$13                     ; 0x13 <__rc3>
    2843: 68           	pla
    2844: 92 12        	sta	($12)                   ; 0x12 <__rc2>
    2846: a0 01        	ldy	#$1
    2848: 91 12        	sta	($12),y                 ; 0x12 <__rc2>
    284a: c8           	iny
    284b: 91 12        	sta	($12),y                 ; 0x12 <__rc2>
    284d: c8           	iny
    284e: 91 12        	sta	($12),y                 ; 0x12 <__rc2>
    2850: 18           	clc
    2851: a5 10        	lda	$10                     ; 0x10 <__rc0>
    2853: 69 0a        	adc	#$a
    2855: 85 12        	sta	$12                     ; 0x12 <__rc2>
    2857: a5 11        	lda	$11                     ; 0x11 <__rc1>
    2859: 69 00        	adc	#$0
    285b: 85 13        	sta	$13                     ; 0x13 <__rc3>
    285d: b2 12        	lda	($12)                   ; 0x12 <__rc2>
    285f: 85 14        	sta	$14                     ; 0x14 <__rc4>
    2861: a0 01        	ldy	#$1
    2863: b1 12        	lda	($12),y                 ; 0x12 <__rc2>
    2865: 85 15        	sta	$15                     ; 0x15 <__rc5>
    2867: c8           	iny
    2868: b1 12        	lda	($12),y                 ; 0x12 <__rc2>
    286a: 85 16        	sta	$16                     ; 0x16 <__rc6>
    286c: c8           	iny
    286d: b1 12        	lda	($12),y                 ; 0x12 <__rc2>
    286f: c9 00        	cmp	#$0
    2871: a2 01        	ldx	#$1
    2873: b0 02        	bcs	$2877 <displayImage+0x198>
    2875: a2 00        	ldx	#$0
    2877: 86 12        	stx	$12                     ; 0x12 <__rc2>
    2879: aa           	tax
    287a: f0 02        	beq	$287e <displayImage+0x19f>
    287c: 80 3e        	bra	$28bc <displayImage+0x1dd>
    287e: a6 16        	ldx	$16                     ; 0x16 <__rc6>
    2880: e0 00        	cpx	#$0
    2882: a0 01        	ldy	#$1
    2884: b0 02        	bcs	$2888 <displayImage+0x1a9>
    2886: a0 00        	ldy	#$0
    2888: 84 12        	sty	$12                     ; 0x12 <__rc2>
    288a: 8a           	txa
    288b: f0 02        	beq	$288f <displayImage+0x1b0>
    288d: 80 24        	bra	$28b3 <displayImage+0x1d4>
    288f: a6 15        	ldx	$15                     ; 0x15 <__rc5>
    2891: e0 01        	cpx	#$1
    2893: a0 01        	ldy	#$1
    2895: b0 02        	bcs	$2899 <displayImage+0x1ba>
    2897: a0 00        	ldy	#$0
    2899: 84 12        	sty	$12                     ; 0x12 <__rc2>
    289b: e0 01        	cpx	#$1
    289d: f0 02        	beq	$28a1 <displayImage+0x1c2>
    289f: 80 09        	bra	$28aa <displayImage+0x1cb>
    28a1: a6 14        	ldx	$14                     ; 0x14 <__rc4>
    28a3: e0 18        	cpx	#$18
    28a5: 90 0a        	bcc	$28b1 <displayImage+0x1d2>
    28a7: 4c 6c 2b     	jmp	$2b6c <displayImage+0x48d>
    28aa: a5 12        	lda	$12                     ; 0x12 <__rc2>
    28ac: f0 03        	beq	$28b1 <displayImage+0x1d2>
    28ae: 4c 6c 2b     	jmp	$2b6c <displayImage+0x48d>
    28b1: 80 07        	bra	$28ba <displayImage+0x1db>
    28b3: a5 12        	lda	$12                     ; 0x12 <__rc2>
    28b5: f0 03        	beq	$28ba <displayImage+0x1db>
    28b7: 4c 6c 2b     	jmp	$2b6c <displayImage+0x48d>
    28ba: 80 07        	bra	$28c3 <displayImage+0x1e4>
    28bc: a5 12        	lda	$12                     ; 0x12 <__rc2>
    28be: f0 03        	beq	$28c3 <displayImage+0x1e4>
    28c0: 4c 6c 2b     	jmp	$2b6c <displayImage+0x48d>
    28c3: 80 00        	bra	$28c5 <displayImage+0x1e6>
    28c5: a9 00        	lda	#$0
    28c7: 18           	clc
    28c8: 48           	pha
    28c9: a5 10        	lda	$10                     ; 0x10 <__rc0>
    28cb: 69 0e        	adc	#$e
    28cd: 85 12        	sta	$12                     ; 0x12 <__rc2>
    28cf: a5 11        	lda	$11                     ; 0x11 <__rc1>
    28d1: 69 00        	adc	#$0
    28d3: 85 13        	sta	$13                     ; 0x13 <__rc3>
    28d5: 68           	pla
    28d6: 92 12        	sta	($12)                   ; 0x12 <__rc2>
    28d8: a0 01        	ldy	#$1
    28da: 91 12        	sta	($12),y                 ; 0x12 <__rc2>
    28dc: c8           	iny
    28dd: 91 12        	sta	($12),y                 ; 0x12 <__rc2>
    28df: c8           	iny
    28e0: 91 12        	sta	($12),y                 ; 0x12 <__rc2>
    28e2: 18           	clc
    28e3: a5 10        	lda	$10                     ; 0x10 <__rc0>
    28e5: 69 0e        	adc	#$e
    28e7: 85 12        	sta	$12                     ; 0x12 <__rc2>
    28e9: a5 11        	lda	$11                     ; 0x11 <__rc1>
    28eb: 69 00        	adc	#$0
    28ed: 85 13        	sta	$13                     ; 0x13 <__rc3>
    28ef: b2 12        	lda	($12)                   ; 0x12 <__rc2>
    28f1: 85 14        	sta	$14                     ; 0x14 <__rc4>
    28f3: a0 01        	ldy	#$1
    28f5: b1 12        	lda	($12),y                 ; 0x12 <__rc2>
    28f7: 85 15        	sta	$15                     ; 0x15 <__rc5>
    28f9: c8           	iny
    28fa: b1 12        	lda	($12),y                 ; 0x12 <__rc2>
    28fc: 85 16        	sta	$16                     ; 0x16 <__rc6>
    28fe: c8           	iny
    28ff: b1 12        	lda	($12),y                 ; 0x12 <__rc2>
    2901: aa           	tax
    2902: 18           	clc
    2903: a5 10        	lda	$10                     ; 0x10 <__rc0>
    2905: 69 05        	adc	#$5
    2907: 85 12        	sta	$12                     ; 0x12 <__rc2>
    2909: a5 11        	lda	$11                     ; 0x11 <__rc1>
    290b: 69 00        	adc	#$0
    290d: 85 13        	sta	$13                     ; 0x13 <__rc3>
    290f: b2 12        	lda	($12)                   ; 0x12 <__rc2>
    2911: 85 12        	sta	$12                     ; 0x12 <__rc2>
    2913: e0 00        	cpx	#$0
    2915: a0 01        	ldy	#$1
    2917: b0 02        	bcs	$291b <displayImage+0x23c>
    2919: a0 00        	ldy	#$0
    291b: 84 13        	sty	$13                     ; 0x13 <__rc3>
    291d: 8a           	txa
    291e: f0 02        	beq	$2922 <displayImage+0x243>
    2920: 80 3d        	bra	$295f <displayImage+0x280>
    2922: a6 16        	ldx	$16                     ; 0x16 <__rc6>
    2924: e0 00        	cpx	#$0
    2926: a0 01        	ldy	#$1
    2928: b0 02        	bcs	$292c <displayImage+0x24d>
    292a: a0 00        	ldy	#$0
    292c: 84 13        	sty	$13                     ; 0x13 <__rc3>
    292e: 8a           	txa
    292f: f0 02        	beq	$2933 <displayImage+0x254>
    2931: 80 23        	bra	$2956 <displayImage+0x277>
    2933: a6 15        	ldx	$15                     ; 0x15 <__rc5>
    2935: e0 00        	cpx	#$0
    2937: a0 01        	ldy	#$1
    2939: b0 02        	bcs	$293d <displayImage+0x25e>
    293b: a0 00        	ldy	#$0
    293d: 84 13        	sty	$13                     ; 0x13 <__rc3>
    293f: 8a           	txa
    2940: f0 02        	beq	$2944 <displayImage+0x265>
    2942: 80 09        	bra	$294d <displayImage+0x26e>
    2944: a6 14        	ldx	$14                     ; 0x14 <__rc4>
    2946: e4 12        	cpx	$12                     ; 0x12 <__rc2>
    2948: 90 0a        	bcc	$2954 <displayImage+0x275>
    294a: 4c 09 2b     	jmp	$2b09 <displayImage+0x42a>
    294d: a5 13        	lda	$13                     ; 0x13 <__rc3>
    294f: f0 03        	beq	$2954 <displayImage+0x275>
    2951: 4c 09 2b     	jmp	$2b09 <displayImage+0x42a>
    2954: 80 07        	bra	$295d <displayImage+0x27e>
    2956: a5 13        	lda	$13                     ; 0x13 <__rc3>
    2958: f0 03        	beq	$295d <displayImage+0x27e>
    295a: 4c 09 2b     	jmp	$2b09 <displayImage+0x42a>
    295d: 80 07        	bra	$2966 <displayImage+0x287>
    295f: a5 13        	lda	$13                     ; 0x13 <__rc3>
    2961: f0 03        	beq	$2966 <displayImage+0x287>
    2963: 4c 09 2b     	jmp	$2b09 <displayImage+0x42a>
    2966: 80 00        	bra	$2968 <displayImage+0x289>
    2968: 18           	clc
    2969: a5 10        	lda	$10                     ; 0x10 <__rc0>
    296b: 69 13        	adc	#$13
    296d: 85 12        	sta	$12                     ; 0x12 <__rc2>
    296f: a5 11        	lda	$11                     ; 0x11 <__rc1>
    2971: 69 00        	adc	#$0
    2973: 85 13        	sta	$13                     ; 0x13 <__rc3>
    2975: 18           	clc
    2976: a5 10        	lda	$10                     ; 0x10 <__rc0>
    2978: 69 06        	adc	#$6
    297a: 85 14        	sta	$14                     ; 0x14 <__rc4>
    297c: a5 11        	lda	$11                     ; 0x11 <__rc1>
    297e: 69 00        	adc	#$0
    2980: 85 15        	sta	$15                     ; 0x15 <__rc5>
    2982: b2 14        	lda	($14)                   ; 0x14 <__rc4>
    2984: 85 16        	sta	$16                     ; 0x16 <__rc6>
    2986: a0 01        	ldy	#$1
    2988: b1 14        	lda	($14),y                 ; 0x14 <__rc4>
    298a: 85 1b        	sta	$1b                     ; 0x1b <__zp_data_size>
    298c: a2 01        	ldx	#$1
    298e: 86 1c        	stx	$1c                     ; 0x1c <__rc12>
    2990: c8           	iny
    2991: b1 14        	lda	($14),y                 ; 0x14 <__rc4>
    2993: 85 17        	sta	$17                     ; 0x17 <__rc7>
    2995: e8           	inx
    2996: 86 19        	stx	$19                     ; 0x19 <__rc9>
    2998: c8           	iny
    2999: b1 14        	lda	($14),y                 ; 0x14 <__rc4>
    299b: 85 18        	sta	$18                     ; 0x18 <__rc8>
    299d: e8           	inx
    299e: 86 1a        	stx	$1a                     ; 0x1a <__rc10>
    29a0: 18           	clc
    29a1: a5 16        	lda	$16                     ; 0x16 <__rc6>
    29a3: 72 12        	adc	($12)                   ; 0x12 <__rc2>
    29a5: 85 14        	sta	$14                     ; 0x14 <__rc4>
    29a7: a5 1b        	lda	$1b                     ; 0x1b <__zp_data_size>
    29a9: a4 1c        	ldy	$1c                     ; 0x1c <__rc12>
    29ab: 71 12        	adc	($12),y                 ; 0x12 <__rc2>
    29ad: 85 15        	sta	$15                     ; 0x15 <__rc5>
    29af: a5 17        	lda	$17                     ; 0x17 <__rc7>
    29b1: a4 19        	ldy	$19                     ; 0x19 <__rc9>
    29b3: 71 12        	adc	($12),y                 ; 0x12 <__rc2>
    29b5: aa           	tax
    29b6: a5 18        	lda	$18                     ; 0x18 <__rc8>
    29b8: a4 1a        	ldy	$1a                     ; 0x1a <__rc10>
    29ba: 71 12        	adc	($12),y                 ; 0x12 <__rc2>
    29bc: 86 12        	stx	$12                     ; 0x12 <__rc2>
    29be: 85 13        	sta	$13                     ; 0x13 <__rc3>
    29c0: a6 15        	ldx	$15                     ; 0x15 <__rc5>
    29c2: a5 14        	lda	$14                     ; 0x14 <__rc4>
    29c4: 20 f9 45     	jsr	$45f9 <FAR_PEEKW>
    29c7: 18           	clc
    29c8: a4 10        	ldy	$10                     ; 0x10 <__rc0>
    29ca: 84 12        	sty	$12                     ; 0x12 <__rc2>
    29cc: a4 11        	ldy	$11                     ; 0x11 <__rc1>
    29ce: 84 13        	sty	$13                     ; 0x13 <__rc3>
    29d0: 92 12        	sta	($12)                   ; 0x12 <__rc2>
    29d2: a0 01        	ldy	#$1
    29d4: 8a           	txa
    29d5: 91 12        	sta	($12),y                 ; 0x12 <__rc2>
    29d7: b2 12        	lda	($12)                   ; 0x12 <__rc2>
    29d9: 85 14        	sta	$14                     ; 0x14 <__rc4>
    29db: b1 12        	lda	($12),y                 ; 0x12 <__rc2>
    29dd: a6 14        	ldx	$14                     ; 0x14 <__rc4>
    29df: 8e 42 dd     	stx	$dd42                   ; 0xdd42 <__heap_start+0x4e2a>
    29e2: 8d 43 dd     	sta	$dd43                   ; 0xdd43 <__heap_start+0x4e2b>
    29e5: 18           	clc
    29e6: a5 10        	lda	$10                     ; 0x10 <__rc0>
    29e8: 69 03        	adc	#$3
    29ea: 85 12        	sta	$12                     ; 0x12 <__rc2>
    29ec: a5 11        	lda	$11                     ; 0x11 <__rc1>
    29ee: 69 00        	adc	#$0
    29f0: 85 13        	sta	$13                     ; 0x13 <__rc3>
    29f2: b2 12        	lda	($12)                   ; 0x12 <__rc2>
    29f4: f0 1b        	beq	$2a11 <displayImage+0x332>
    29f6: 80 00        	bra	$29f8 <displayImage+0x319>
    29f8: 18           	clc
    29f9: a6 10        	ldx	$10                     ; 0x10 <__rc0>
    29fb: 86 12        	stx	$12                     ; 0x12 <__rc2>
    29fd: a6 11        	ldx	$11                     ; 0x11 <__rc1>
    29ff: 86 13        	stx	$13                     ; 0x13 <__rc3>
    2a01: b2 12        	lda	($12)                   ; 0x12 <__rc2>
    2a03: 85 14        	sta	$14                     ; 0x14 <__rc4>
    2a05: a0 01        	ldy	#$1
    2a07: b1 12        	lda	($12),y                 ; 0x12 <__rc2>
    2a09: a6 14        	ldx	$14                     ; 0x14 <__rc4>
    2a0b: 8e 42 dd     	stx	$dd42                   ; 0xdd42 <__heap_start+0x4e2a>
    2a0e: 8d 43 dd     	sta	$dd43                   ; 0xdd43 <__heap_start+0x4e2b>
    2a11: 18           	clc
    2a12: a5 10        	lda	$10                     ; 0x10 <__rc0>
    2a14: 69 02        	adc	#$2
    2a16: 85 12        	sta	$12                     ; 0x12 <__rc2>
    2a18: a5 11        	lda	$11                     ; 0x11 <__rc1>
    2a1a: 69 00        	adc	#$0
    2a1c: 85 13        	sta	$13                     ; 0x13 <__rc3>
    2a1e: b2 12        	lda	($12)                   ; 0x12 <__rc2>
    2a20: f0 29        	beq	$2a4b <displayImage+0x36c>
    2a22: 80 00        	bra	$2a24 <displayImage+0x345>
    2a24: 18           	clc
    2a25: a6 10        	ldx	$10                     ; 0x10 <__rc0>
    2a27: 86 12        	stx	$12                     ; 0x12 <__rc2>
    2a29: a6 11        	ldx	$11                     ; 0x11 <__rc1>
    2a2b: 86 13        	stx	$13                     ; 0x13 <__rc3>
    2a2d: b2 12        	lda	($12)                   ; 0x12 <__rc2>
    2a2f: 85 14        	sta	$14                     ; 0x14 <__rc4>
    2a31: a0 01        	ldy	#$1
    2a33: b1 12        	lda	($12),y                 ; 0x12 <__rc2>
    2a35: a6 14        	ldx	$14                     ; 0x14 <__rc4>
    2a37: 8e 42 dd     	stx	$dd42                   ; 0xdd42 <__heap_start+0x4e2a>
    2a3a: 8d 43 dd     	sta	$dd43                   ; 0xdd43 <__heap_start+0x4e2b>
    2a3d: b2 12        	lda	($12)                   ; 0x12 <__rc2>
    2a3f: 85 14        	sta	$14                     ; 0x14 <__rc4>
    2a41: b1 12        	lda	($12),y                 ; 0x12 <__rc2>
    2a43: a6 14        	ldx	$14                     ; 0x14 <__rc4>
    2a45: 8e 42 dd     	stx	$dd42                   ; 0xdd42 <__heap_start+0x4e2a>
    2a48: 8d 43 dd     	sta	$dd43                   ; 0xdd43 <__heap_start+0x4e2b>
    2a4b: 18           	clc
    2a4c: a5 10        	lda	$10                     ; 0x10 <__rc0>
    2a4e: 69 04        	adc	#$4
    2a50: 85 12        	sta	$12                     ; 0x12 <__rc2>
    2a52: a5 11        	lda	$11                     ; 0x11 <__rc1>
    2a54: 69 00        	adc	#$0
    2a56: 85 13        	sta	$13                     ; 0x13 <__rc3>
    2a58: b2 12        	lda	($12)                   ; 0x12 <__rc2>
    2a5a: 85 14        	sta	$14                     ; 0x14 <__rc4>
    2a5c: 18           	clc
    2a5d: a5 10        	lda	$10                     ; 0x10 <__rc0>
    2a5f: 69 06        	adc	#$6
    2a61: 85 12        	sta	$12                     ; 0x12 <__rc2>
    2a63: a5 11        	lda	$11                     ; 0x11 <__rc1>
    2a65: 69 00        	adc	#$0
    2a67: 85 13        	sta	$13                     ; 0x13 <__rc3>
    2a69: a0 01        	ldy	#$1
    2a6b: b1 12        	lda	($12),y                 ; 0x12 <__rc2>
    2a6d: 85 1a        	sta	$1a                     ; 0x1a <__rc10>
    2a6f: a2 01        	ldx	#$1
    2a71: 86 16        	stx	$16                     ; 0x16 <__rc6>
    2a73: c8           	iny
    2a74: b1 12        	lda	($12),y                 ; 0x12 <__rc2>
    2a76: 85 18        	sta	$18                     ; 0x18 <__rc8>
    2a78: e8           	inx
    2a79: 86 15        	stx	$15                     ; 0x15 <__rc5>
    2a7b: c8           	iny
    2a7c: b1 12        	lda	($12),y                 ; 0x12 <__rc2>
    2a7e: 85 19        	sta	$19                     ; 0x19 <__rc9>
    2a80: e8           	inx
    2a81: 86 17        	stx	$17                     ; 0x17 <__rc7>
    2a83: 18           	clc
    2a84: a5 14        	lda	$14                     ; 0x14 <__rc4>
    2a86: 72 12        	adc	($12)                   ; 0x12 <__rc2>
    2a88: 85 14        	sta	$14                     ; 0x14 <__rc4>
    2a8a: a5 1a        	lda	$1a                     ; 0x1a <__rc10>
    2a8c: 69 00        	adc	#$0
    2a8e: a4 16        	ldy	$16                     ; 0x16 <__rc6>
    2a90: 91 12        	sta	($12),y                 ; 0x12 <__rc2>
    2a92: a5 18        	lda	$18                     ; 0x18 <__rc8>
    2a94: 69 00        	adc	#$0
    2a96: a4 15        	ldy	$15                     ; 0x15 <__rc5>
    2a98: 91 12        	sta	($12),y                 ; 0x12 <__rc2>
    2a9a: a5 19        	lda	$19                     ; 0x19 <__rc9>
    2a9c: 69 00        	adc	#$0
    2a9e: a4 17        	ldy	$17                     ; 0x17 <__rc7>
    2aa0: 91 12        	sta	($12),y                 ; 0x12 <__rc2>
    2aa2: a5 14        	lda	$14                     ; 0x14 <__rc4>
    2aa4: 92 12        	sta	($12)                   ; 0x12 <__rc2>
    2aa6: 18           	clc
    2aa7: a5 10        	lda	$10                     ; 0x10 <__rc0>
    2aa9: 69 0e        	adc	#$e
    2aab: 85 12        	sta	$12                     ; 0x12 <__rc2>
    2aad: a5 11        	lda	$11                     ; 0x11 <__rc1>
    2aaf: 69 00        	adc	#$0
    2ab1: 85 13        	sta	$13                     ; 0x13 <__rc3>
    2ab3: b2 12        	lda	($12)                   ; 0x12 <__rc2>
    2ab5: aa           	tax
    2ab6: a0 01        	ldy	#$1
    2ab8: b1 12        	lda	($12),y                 ; 0x12 <__rc2>
    2aba: 85 14        	sta	$14                     ; 0x14 <__rc4>
    2abc: a0 01        	ldy	#$1
    2abe: 84 15        	sty	$15                     ; 0x15 <__rc5>
    2ac0: c8           	iny
    2ac1: b1 12        	lda	($12),y                 ; 0x12 <__rc2>
    2ac3: 85 18        	sta	$18                     ; 0x18 <__rc8>
    2ac5: a0 02        	ldy	#$2
    2ac7: 84 16        	sty	$16                     ; 0x16 <__rc6>
    2ac9: c8           	iny
    2aca: b1 12        	lda	($12),y                 ; 0x12 <__rc2>
    2acc: 85 17        	sta	$17                     ; 0x17 <__rc7>
    2ace: a0 03        	ldy	#$3
    2ad0: 84 19        	sty	$19                     ; 0x19 <__rc9>
    2ad2: e8           	inx
    2ad3: f0 03        	beq	$2ad8 <displayImage+0x3f9>
    2ad5: 4c f1 2a     	jmp	$2af1 <displayImage+0x412>
    2ad8: e6 14        	inc	$14                     ; 0x14 <__rc4>
    2ada: f0 03        	beq	$2adf <displayImage+0x400>
    2adc: 4c ee 2a     	jmp	$2aee <displayImage+0x40f>
    2adf: e6 18        	inc	$18                     ; 0x18 <__rc8>
    2ae1: f0 03        	beq	$2ae6 <displayImage+0x407>
    2ae3: 4c eb 2a     	jmp	$2aeb <displayImage+0x40c>
    2ae6: e6 17        	inc	$17                     ; 0x17 <__rc7>
    2ae8: 4c eb 2a     	jmp	$2aeb <displayImage+0x40c>
    2aeb: 4c ee 2a     	jmp	$2aee <displayImage+0x40f>
    2aee: 4c f1 2a     	jmp	$2af1 <displayImage+0x412>
    2af1: a5 14        	lda	$14                     ; 0x14 <__rc4>
    2af3: a4 15        	ldy	$15                     ; 0x15 <__rc5>
    2af5: 91 12        	sta	($12),y                 ; 0x12 <__rc2>
    2af7: a4 16        	ldy	$16                     ; 0x16 <__rc6>
    2af9: a5 18        	lda	$18                     ; 0x18 <__rc8>
    2afb: 91 12        	sta	($12),y                 ; 0x12 <__rc2>
    2afd: a5 17        	lda	$17                     ; 0x17 <__rc7>
    2aff: a4 19        	ldy	$19                     ; 0x19 <__rc9>
    2b01: 91 12        	sta	($12),y                 ; 0x12 <__rc2>
    2b03: 8a           	txa
    2b04: 92 12        	sta	($12)                   ; 0x12 <__rc2>
    2b06: 4c e2 28     	jmp	$28e2 <displayImage+0x203>
    2b09: 18           	clc
    2b0a: a5 10        	lda	$10                     ; 0x10 <__rc0>
    2b0c: 69 0a        	adc	#$a
    2b0e: 85 12        	sta	$12                     ; 0x12 <__rc2>
    2b10: a5 11        	lda	$11                     ; 0x11 <__rc1>
    2b12: 69 00        	adc	#$0
    2b14: 85 13        	sta	$13                     ; 0x13 <__rc3>
    2b16: b2 12        	lda	($12)                   ; 0x12 <__rc2>
    2b18: aa           	tax
    2b19: a0 01        	ldy	#$1
    2b1b: b1 12        	lda	($12),y                 ; 0x12 <__rc2>
    2b1d: 85 14        	sta	$14                     ; 0x14 <__rc4>
    2b1f: a0 01        	ldy	#$1
    2b21: 84 15        	sty	$15                     ; 0x15 <__rc5>
    2b23: c8           	iny
    2b24: b1 12        	lda	($12),y                 ; 0x12 <__rc2>
    2b26: 85 18        	sta	$18                     ; 0x18 <__rc8>
    2b28: a0 02        	ldy	#$2
    2b2a: 84 16        	sty	$16                     ; 0x16 <__rc6>
    2b2c: c8           	iny
    2b2d: b1 12        	lda	($12),y                 ; 0x12 <__rc2>
    2b2f: 85 17        	sta	$17                     ; 0x17 <__rc7>
    2b31: a0 03        	ldy	#$3
    2b33: 84 19        	sty	$19                     ; 0x19 <__rc9>
    2b35: e8           	inx
    2b36: f0 03        	beq	$2b3b <displayImage+0x45c>
    2b38: 4c 54 2b     	jmp	$2b54 <displayImage+0x475>
    2b3b: e6 14        	inc	$14                     ; 0x14 <__rc4>
    2b3d: f0 03        	beq	$2b42 <displayImage+0x463>
    2b3f: 4c 51 2b     	jmp	$2b51 <displayImage+0x472>
    2b42: e6 18        	inc	$18                     ; 0x18 <__rc8>
    2b44: f0 03        	beq	$2b49 <displayImage+0x46a>
    2b46: 4c 4e 2b     	jmp	$2b4e <displayImage+0x46f>
    2b49: e6 17        	inc	$17                     ; 0x17 <__rc7>
    2b4b: 4c 4e 2b     	jmp	$2b4e <displayImage+0x46f>
    2b4e: 4c 51 2b     	jmp	$2b51 <displayImage+0x472>
    2b51: 4c 54 2b     	jmp	$2b54 <displayImage+0x475>
    2b54: a5 14        	lda	$14                     ; 0x14 <__rc4>
    2b56: a4 15        	ldy	$15                     ; 0x15 <__rc5>
    2b58: 91 12        	sta	($12),y                 ; 0x12 <__rc2>
    2b5a: a4 16        	ldy	$16                     ; 0x16 <__rc6>
    2b5c: a5 18        	lda	$18                     ; 0x18 <__rc8>
    2b5e: 91 12        	sta	($12),y                 ; 0x12 <__rc2>
    2b60: a5 17        	lda	$17                     ; 0x17 <__rc7>
    2b62: a4 19        	ldy	$19                     ; 0x19 <__rc9>
    2b64: 91 12        	sta	($12),y                 ; 0x12 <__rc2>
    2b66: 8a           	txa
    2b67: 92 12        	sta	($12)                   ; 0x12 <__rc2>
    2b69: 4c 50 28     	jmp	$2850 <displayImage+0x171>
    2b6c: fa           	plx
    2b6d: 86 26        	stx	$26                     ; 0x26 <__rc22>
    2b6f: fa           	plx
    2b70: 86 25        	stx	$25                     ; 0x25 <__rc21>
    2b72: fa           	plx
    2b73: 86 24        	stx	$24                     ; 0x24 <__rc20>
    2b75: 18           	clc
    2b76: a5 10        	lda	$10                     ; 0x10 <__rc0>
    2b78: 69 17        	adc	#$17
    2b7a: 85 10        	sta	$10                     ; 0x10 <__rc0>
    2b7c: a5 11        	lda	$11                     ; 0x11 <__rc1>
    2b7e: 69 00        	adc	#$0
    2b80: 85 11        	sta	$11                     ; 0x11 <__rc1>
    2b82: 60           	rts

00002b83 <opl3_initialize>:
    2b83: a2 01        	ldx	#$1
    2b85: 8e 80 d5     	stx	$d580                   ; 0xd580 <__heap_start+0x4668>
    2b88: a0 20        	ldy	#$20
    2b8a: 8c 81 d5     	sty	$d581                   ; 0xd581 <__heap_start+0x4669>
    2b8d: a0 02        	ldy	#$2
    2b8f: 8c 80 d5     	sty	$d580                   ; 0xd580 <__heap_start+0x4668>
    2b92: 9c 81 d5     	stz	$d581                   ; 0xd581 <__heap_start+0x4669>
    2b95: c8           	iny
    2b96: 8c 80 d5     	sty	$d580                   ; 0xd580 <__heap_start+0x4668>
    2b99: 9c 81 d5     	stz	$d581                   ; 0xd581 <__heap_start+0x4669>
    2b9c: c8           	iny
    2b9d: 8c 82 d5     	sty	$d582                   ; 0xd582 <__heap_start+0x466a>
    2ba0: 9c 81 d5     	stz	$d581                   ; 0xd581 <__heap_start+0x4669>
    2ba3: c8           	iny
    2ba4: 8c 82 d5     	sty	$d582                   ; 0xd582 <__heap_start+0x466a>
    2ba7: 8e 81 d5     	stx	$d581                   ; 0xd581 <__heap_start+0x4669>
    2baa: a2 08        	ldx	#$8
    2bac: 8e 80 d5     	stx	$d580                   ; 0xd580 <__heap_start+0x4668>
    2baf: 9c 81 d5     	stz	$d581                   ; 0xd581 <__heap_start+0x4669>
    2bb2: a2 bd        	ldx	#$bd
    2bb4: 8e 80 d5     	stx	$d580                   ; 0xd580 <__heap_start+0x4668>
    2bb7: 9c 81 d5     	stz	$d581                   ; 0xd581 <__heap_start+0x4669>
    2bba: a2 c0        	ldx	#$c0
    2bbc: a0 30        	ldy	#$30
    2bbe: 8e 80 d5     	stx	$d580                   ; 0xd580 <__heap_start+0x4668>
    2bc1: 8c 81 d5     	sty	$d581                   ; 0xd581 <__heap_start+0x4669>
    2bc4: e8           	inx
    2bc5: e0 c9        	cpx	#$c9
    2bc7: d0 f5        	bne	$2bbe <opl3_initialize+0x3b>
    2bc9: a2 c0        	ldx	#$c0
    2bcb: a0 30        	ldy	#$30
    2bcd: 8e 82 d5     	stx	$d582                   ; 0xd582 <__heap_start+0x466a>
    2bd0: 8c 81 d5     	sty	$d581                   ; 0xd581 <__heap_start+0x4669>
    2bd3: e8           	inx
    2bd4: e0 c9        	cpx	#$c9
    2bd6: d0 f5        	bne	$2bcd <opl3_initialize+0x4a>
    2bd8: 4c db 2b     	jmp	$2bdb <opl3_quietAll>

00002bdb <opl3_quietAll>:
    2bdb: a9 0c        	lda	#$c
    2bdd: a2 b0        	ldx	#$b0
    2bdf: a8           	tay
    2be0: 85 12        	sta	$12                     ; 0x12 <__rc2>
    2be2: a9 df        	lda	#$df
    2be4: 39 8b 8d     	and	$8d8b,y                 ; 0x8d8b <opl3_instrument_defs>
    2be7: 8e 80 d5     	stx	$d580                   ; 0xd580 <__heap_start+0x4668>
    2bea: 8d 81 d5     	sta	$d581                   ; 0xd581 <__heap_start+0x4669>
    2bed: a5 12        	lda	$12                     ; 0x12 <__rc2>
    2bef: 18           	clc
    2bf0: 69 0f        	adc	#$f
    2bf2: e8           	inx
    2bf3: e0 b9        	cpx	#$b9
    2bf5: d0 e8        	bne	$2bdf <opl3_quietAll+0x4>
    2bf7: a9 00        	lda	#$0
    2bf9: a2 b0        	ldx	#$b0
    2bfb: a8           	tay
    2bfc: 85 12        	sta	$12                     ; 0x12 <__rc2>
    2bfe: a9 df        	lda	#$df
    2c00: 39 1e 8e     	and	$8e1e,y                 ; 0x8e1e <opl3_instrument_defs+0x93>
    2c03: 8e 82 d5     	stx	$d582                   ; 0xd582 <__heap_start+0x466a>
    2c06: 8d 81 d5     	sta	$d581                   ; 0xd581 <__heap_start+0x4669>
    2c09: a5 12        	lda	$12                     ; 0x12 <__rc2>
    2c0b: 18           	clc
    2c0c: 69 0f        	adc	#$f
    2c0e: e8           	inx
    2c0f: e0 b9        	cpx	#$b9
    2c11: d0 e8        	bne	$2bfb <opl3_quietAll+0x20>
    2c13: 60           	rts

00002c14 <opl3_setInstrumentAllChannels>:
    2c14: 85 12        	sta	$12                     ; 0x12 <__rc2>
    2c16: 86 7c        	stx	$7c                     ; 0x7c <__zp_bss_size+0x4c>
    2c18: a2 80        	ldx	#$80
    2c1a: 86 82        	stx	$82                     ; 0x82 <__zp_bss_size+0x52>
    2c1c: a2 d5        	ldx	#$d5
    2c1e: 86 83        	stx	$83                     ; 0x83 <__zp_bss_size+0x53>
    2c20: a2 82        	ldx	#$82
    2c22: 86 84        	stx	$84                     ; 0x84 <__zp_bss_size+0x54>
    2c24: a2 d5        	ldx	#$d5
    2c26: 86 85        	stx	$85                     ; 0x85 <__zp_bss_size+0x55>
    2c28: a9 e0        	lda	#$e0
    2c2a: 85 34        	sta	$34                     ; 0x34 <_ccolor>
    2c2c: ae 7b 8c     	ldx	$8c7b                   ; 0x8c7b <chip_enable>
    2c2f: a0 01        	ldy	#$1
    2c31: 8c 80 d5     	sty	$d580                   ; 0xd580 <__heap_start+0x4668>
    2c34: 8e 81 d5     	stx	$d581                   ; 0xd581 <__heap_start+0x4669>
    2c37: 25 76        	and	$76                     ; 0x76 <chip_VT_PERC>
    2c39: a2 bd        	ldx	#$bd
    2c3b: 8e 80 d5     	stx	$d580                   ; 0xd580 <__heap_start+0x4668>
    2c3e: 8d 81 d5     	sta	$d581                   ; 0xd581 <__heap_start+0x4669>
    2c41: ae 7c 8c     	ldx	$8c7c                   ; 0x8c7c <chip_NOTESEL>
    2c44: a0 08        	ldy	#$8
    2c46: 8c 80 d5     	sty	$d580                   ; 0xd580 <__heap_start+0x4668>
    2c49: 8e 81 d5     	stx	$d581                   ; 0xd581 <__heap_start+0x4669>
    2c4c: a5 12        	lda	$12                     ; 0x12 <__rc2>
    2c4e: 0a           	asl
    2c4f: 64 13        	stz	$13                     ; 0x13 <__rc3>
    2c51: 26 13        	rol	$13                     ; 0x13 <__rc3>
    2c53: 0a           	asl
    2c54: 26 13        	rol	$13                     ; 0x13 <__rc3>
    2c56: 0a           	asl
    2c57: 26 13        	rol	$13                     ; 0x13 <__rc3>
    2c59: 0a           	asl
    2c5a: 26 13        	rol	$13                     ; 0x13 <__rc3>
    2c5c: 38           	sec
    2c5d: e5 12        	sbc	$12                     ; 0x12 <__rc2>
    2c5f: 85 12        	sta	$12                     ; 0x12 <__rc2>
    2c61: 64 7d        	stz	$7d                     ; 0x7d <__zp_bss_size+0x4d>
    2c63: a5 13        	lda	$13                     ; 0x13 <__rc3>
    2c65: e9 00        	sbc	#$0
    2c67: 85 13        	sta	$13                     ; 0x13 <__rc3>
    2c69: a9 8b        	lda	#$8b
    2c6b: a2 8b        	ldx	#$8b
    2c6d: 86 80        	stx	$80                     ; 0x80 <__zp_bss_size+0x50>
    2c6f: a2 8d        	ldx	#$8d
    2c71: 86 81        	stx	$81                     ; 0x81 <__zp_bss_size+0x51>
    2c73: 18           	clc
    2c74: 65 12        	adc	$12                     ; 0x12 <__rc2>
    2c76: 85 7e        	sta	$7e                     ; 0x7e <__zp_bss_size+0x4e>
    2c78: a9 8d        	lda	#$8d
    2c7a: 65 13        	adc	$13                     ; 0x13 <__rc3>
    2c7c: 85 7f        	sta	$7f                     ; 0x7f <__zp_bss_size+0x4f>
    2c7e: 4c dd 2d     	jmp	$2ddd <opl3_setInstrumentAllChannels+0x1c9>
    2c81: a2 82        	ldx	#$82
    2c83: 86 12        	stx	$12                     ; 0x12 <__rc2>
    2c85: a2 d5        	ldx	#$d5
    2c87: 86 13        	stx	$13                     ; 0x13 <__rc3>
    2c89: a5 14        	lda	$14                     ; 0x14 <__rc4>
    2c8b: d0 08        	bne	$2c95 <opl3_setInstrumentAllChannels+0x81>
    2c8d: a2 80        	ldx	#$80
    2c8f: 86 12        	stx	$12                     ; 0x12 <__rc2>
    2c91: a2 d5        	ldx	#$d5
    2c93: 86 13        	stx	$13                     ; 0x13 <__rc3>
    2c95: a0 0a        	ldy	#$a
    2c97: b1 80        	lda	($80),y                 ; 0x80 <__zp_bss_size+0x50>
    2c99: 85 14        	sta	$14                     ; 0x14 <__rc4>
    2c9b: a6 7d        	ldx	$7d                     ; 0x7d <__zp_bss_size+0x4d>
    2c9d: a5 7d        	lda	$7d                     ; 0x7d <__zp_bss_size+0x4d>
    2c9f: 18           	clc
    2ca0: 69 c0        	adc	#$c0
    2ca2: 92 12        	sta	($12)                   ; 0x12 <__rc2>
    2ca4: a4 14        	ldy	$14                     ; 0x14 <__rc4>
    2ca6: 8c 81 d5     	sty	$d581                   ; 0xd581 <__heap_start+0x4669>
    2ca9: e0 08        	cpx	#$8
    2cab: d0 03        	bne	$2cb0 <opl3_setInstrumentAllChannels+0x9c>
    2cad: 4c 39 2d     	jmp	$2d39 <opl3_setInstrumentAllChannels+0x125>
    2cb0: a6 7d        	ldx	$7d                     ; 0x7d <__zp_bss_size+0x4d>
    2cb2: e0 07        	cpx	#$7
    2cb4: f0 03        	beq	$2cb9 <opl3_setInstrumentAllChannels+0xa5>
    2cb6: 4c b8 2d     	jmp	$2db8 <opl3_setInstrumentAllChannels+0x1a4>
    2cb9: a6 76        	ldx	$76                     ; 0x76 <chip_VT_PERC>
    2cbb: d0 03        	bne	$2cc0 <opl3_setInstrumentAllChannels+0xac>
    2cbd: 4c b8 2d     	jmp	$2db8 <opl3_setInstrumentAllChannels+0x1a4>
    2cc0: a0 08        	ldy	#$8
    2cc2: b1 80        	lda	($80),y                 ; 0x80 <__zp_bss_size+0x50>
    2cc4: a0 f4        	ldy	#$f4
    2cc6: 8c 80 d5     	sty	$d580                   ; 0xd580 <__heap_start+0x4668>
    2cc9: 8d 81 d5     	sta	$d581                   ; 0xd581 <__heap_start+0x4669>
    2ccc: b2 80        	lda	($80)                   ; 0x80 <__zp_bss_size+0x50>
    2cce: a0 34        	ldy	#$34
    2cd0: 8c 80 d5     	sty	$d580                   ; 0xd580 <__heap_start+0x4668>
    2cd3: 8d 81 d5     	sta	$d581                   ; 0xd581 <__heap_start+0x4669>
    2cd6: a0 02        	ldy	#$2
    2cd8: b1 80        	lda	($80),y                 ; 0x80 <__zp_bss_size+0x50>
    2cda: a0 54        	ldy	#$54
    2cdc: 8c 80 d5     	sty	$d580                   ; 0xd580 <__heap_start+0x4668>
    2cdf: 8d 81 d5     	sta	$d581                   ; 0xd581 <__heap_start+0x4669>
    2ce2: a0 04        	ldy	#$4
    2ce4: b1 80        	lda	($80),y                 ; 0x80 <__zp_bss_size+0x50>
    2ce6: a0 74        	ldy	#$74
    2ce8: 8c 80 d5     	sty	$d580                   ; 0xd580 <__heap_start+0x4668>
    2ceb: 8d 81 d5     	sta	$d581                   ; 0xd581 <__heap_start+0x4669>
    2cee: a0 06        	ldy	#$6
    2cf0: b1 80        	lda	($80),y                 ; 0x80 <__zp_bss_size+0x50>
    2cf2: a0 94        	ldy	#$94
    2cf4: 8c 80 d5     	sty	$d580                   ; 0xd580 <__heap_start+0x4668>
    2cf7: 8d 81 d5     	sta	$d581                   ; 0xd581 <__heap_start+0x4669>
    2cfa: a0 09        	ldy	#$9
    2cfc: b1 80        	lda	($80),y                 ; 0x80 <__zp_bss_size+0x50>
    2cfe: a0 f1        	ldy	#$f1
    2d00: 8c 80 d5     	sty	$d580                   ; 0xd580 <__heap_start+0x4668>
    2d03: 8d 81 d5     	sta	$d581                   ; 0xd581 <__heap_start+0x4669>
    2d06: a0 01        	ldy	#$1
    2d08: b1 80        	lda	($80),y                 ; 0x80 <__zp_bss_size+0x50>
    2d0a: a2 31        	ldx	#$31
    2d0c: 8e 80 d5     	stx	$d580                   ; 0xd580 <__heap_start+0x4668>
    2d0f: 8d 81 d5     	sta	$d581                   ; 0xd581 <__heap_start+0x4669>
    2d12: a0 03        	ldy	#$3
    2d14: b1 80        	lda	($80),y                 ; 0x80 <__zp_bss_size+0x50>
    2d16: a2 51        	ldx	#$51
    2d18: 8e 80 d5     	stx	$d580                   ; 0xd580 <__heap_start+0x4668>
    2d1b: 8d 81 d5     	sta	$d581                   ; 0xd581 <__heap_start+0x4669>
    2d1e: a0 05        	ldy	#$5
    2d20: b1 80        	lda	($80),y                 ; 0x80 <__zp_bss_size+0x50>
    2d22: a2 71        	ldx	#$71
    2d24: 8e 80 d5     	stx	$d580                   ; 0xd580 <__heap_start+0x4668>
    2d27: 8d 81 d5     	sta	$d581                   ; 0xd581 <__heap_start+0x4669>
    2d2a: a0 07        	ldy	#$7
    2d2c: b1 80        	lda	($80),y                 ; 0x80 <__zp_bss_size+0x50>
    2d2e: a2 91        	ldx	#$91
    2d30: 8e 80 d5     	stx	$d580                   ; 0xd580 <__heap_start+0x4668>
    2d33: 8d 81 d5     	sta	$d581                   ; 0xd581 <__heap_start+0x4669>
    2d36: 4c b8 2d     	jmp	$2db8 <opl3_setInstrumentAllChannels+0x1a4>
    2d39: a6 76        	ldx	$76                     ; 0x76 <chip_VT_PERC>
    2d3b: d0 03        	bne	$2d40 <opl3_setInstrumentAllChannels+0x12c>
    2d3d: 4c b8 2d     	jmp	$2db8 <opl3_setInstrumentAllChannels+0x1a4>
    2d40: a0 08        	ldy	#$8
    2d42: b1 80        	lda	($80),y                 ; 0x80 <__zp_bss_size+0x50>
    2d44: a2 f5        	ldx	#$f5
    2d46: 8e 80 d5     	stx	$d580                   ; 0xd580 <__heap_start+0x4668>
    2d49: 8d 81 d5     	sta	$d581                   ; 0xd581 <__heap_start+0x4669>
    2d4c: b2 80        	lda	($80)                   ; 0x80 <__zp_bss_size+0x50>
    2d4e: a2 35        	ldx	#$35
    2d50: 8e 80 d5     	stx	$d580                   ; 0xd580 <__heap_start+0x4668>
    2d53: 8d 81 d5     	sta	$d581                   ; 0xd581 <__heap_start+0x4669>
    2d56: a0 02        	ldy	#$2
    2d58: b1 80        	lda	($80),y                 ; 0x80 <__zp_bss_size+0x50>
    2d5a: a2 55        	ldx	#$55
    2d5c: 8e 80 d5     	stx	$d580                   ; 0xd580 <__heap_start+0x4668>
    2d5f: 8d 81 d5     	sta	$d581                   ; 0xd581 <__heap_start+0x4669>
    2d62: a0 04        	ldy	#$4
    2d64: b1 80        	lda	($80),y                 ; 0x80 <__zp_bss_size+0x50>
    2d66: a2 75        	ldx	#$75
    2d68: 8e 80 d5     	stx	$d580                   ; 0xd580 <__heap_start+0x4668>
    2d6b: 8d 81 d5     	sta	$d581                   ; 0xd581 <__heap_start+0x4669>
    2d6e: a0 06        	ldy	#$6
    2d70: b1 80        	lda	($80),y                 ; 0x80 <__zp_bss_size+0x50>
    2d72: a2 95        	ldx	#$95
    2d74: 8e 80 d5     	stx	$d580                   ; 0xd580 <__heap_start+0x4668>
    2d77: 8d 81 d5     	sta	$d581                   ; 0xd581 <__heap_start+0x4669>
    2d7a: a0 09        	ldy	#$9
    2d7c: b1 80        	lda	($80),y                 ; 0x80 <__zp_bss_size+0x50>
    2d7e: a2 f2        	ldx	#$f2
    2d80: 8e 80 d5     	stx	$d580                   ; 0xd580 <__heap_start+0x4668>
    2d83: 8d 81 d5     	sta	$d581                   ; 0xd581 <__heap_start+0x4669>
    2d86: a0 01        	ldy	#$1
    2d88: b1 80        	lda	($80),y                 ; 0x80 <__zp_bss_size+0x50>
    2d8a: a2 32        	ldx	#$32
    2d8c: 8e 80 d5     	stx	$d580                   ; 0xd580 <__heap_start+0x4668>
    2d8f: 8d 81 d5     	sta	$d581                   ; 0xd581 <__heap_start+0x4669>
    2d92: a0 03        	ldy	#$3
    2d94: b1 80        	lda	($80),y                 ; 0x80 <__zp_bss_size+0x50>
    2d96: a2 52        	ldx	#$52
    2d98: 8e 80 d5     	stx	$d580                   ; 0xd580 <__heap_start+0x4668>
    2d9b: 8d 81 d5     	sta	$d581                   ; 0xd581 <__heap_start+0x4669>
    2d9e: a0 05        	ldy	#$5
    2da0: b1 80        	lda	($80),y                 ; 0x80 <__zp_bss_size+0x50>
    2da2: a2 72        	ldx	#$72
    2da4: 8e 80 d5     	stx	$d580                   ; 0xd580 <__heap_start+0x4668>
    2da7: 8d 81 d5     	sta	$d581                   ; 0xd581 <__heap_start+0x4669>
    2daa: a0 07        	ldy	#$7
    2dac: b1 80        	lda	($80),y                 ; 0x80 <__zp_bss_size+0x50>
    2dae: a2 92        	ldx	#$92
    2db0: 8e 80 d5     	stx	$d580                   ; 0xd580 <__heap_start+0x4668>
    2db3: 8d 81 d5     	sta	$d581                   ; 0xd581 <__heap_start+0x4669>
    2db6: 80 0d        	bra	$2dc5 <opl3_setInstrumentAllChannels+0x1b1>
    2db8: a6 80        	ldx	$80                     ; 0x80 <__zp_bss_size+0x50>
    2dba: 86 12        	stx	$12                     ; 0x12 <__rc2>
    2dbc: a6 81        	ldx	$81                     ; 0x81 <__zp_bss_size+0x51>
    2dbe: 86 13        	stx	$13                     ; 0x13 <__rc3>
    2dc0: a5 7d        	lda	$7d                     ; 0x7d <__zp_bss_size+0x4d>
    2dc2: 20 45 2e     	jsr	$2e45 <opl3_setInstrument>
    2dc5: e6 7d        	inc	$7d                     ; 0x7d <__zp_bss_size+0x4d>
    2dc7: a5 80        	lda	$80                     ; 0x80 <__zp_bss_size+0x50>
    2dc9: 18           	clc
    2dca: 69 0f        	adc	#$f
    2dcc: 85 80        	sta	$80                     ; 0x80 <__zp_bss_size+0x50>
    2dce: a5 81        	lda	$81                     ; 0x81 <__zp_bss_size+0x51>
    2dd0: 69 00        	adc	#$0
    2dd2: 85 81        	sta	$81                     ; 0x81 <__zp_bss_size+0x51>
    2dd4: a6 7d        	ldx	$7d                     ; 0x7d <__zp_bss_size+0x4d>
    2dd6: e0 12        	cpx	#$12
    2dd8: d0 03        	bne	$2ddd <opl3_setInstrumentAllChannels+0x1c9>
    2dda: 4c 44 2e     	jmp	$2e44 <opl3_setInstrumentAllChannels+0x230>
    2ddd: a6 7d        	ldx	$7d                     ; 0x7d <__zp_bss_size+0x4d>
    2ddf: e0 09        	cpx	#$9
    2de1: a2 01        	ldx	#$1
    2de3: b0 02        	bcs	$2de7 <opl3_setInstrumentAllChannels+0x1d3>
    2de5: a2 00        	ldx	#$0
    2de7: 86 14        	stx	$14                     ; 0x14 <__rc4>
    2de9: a5 7c        	lda	$7c                     ; 0x7c <__zp_bss_size+0x4c>
    2deb: d0 03        	bne	$2df0 <opl3_setInstrumentAllChannels+0x1dc>
    2ded: 4c 81 2c     	jmp	$2c81 <opl3_setInstrumentAllChannels+0x6d>
    2df0: a2 82        	ldx	#$82
    2df2: 86 12        	stx	$12                     ; 0x12 <__rc2>
    2df4: a2 d5        	ldx	#$d5
    2df6: 86 13        	stx	$13                     ; 0x13 <__rc3>
    2df8: a5 14        	lda	$14                     ; 0x14 <__rc4>
    2dfa: d0 08        	bne	$2e04 <opl3_setInstrumentAllChannels+0x1f0>
    2dfc: a2 80        	ldx	#$80
    2dfe: 86 12        	stx	$12                     ; 0x12 <__rc2>
    2e00: a2 d5        	ldx	#$d5
    2e02: 86 13        	stx	$13                     ; 0x13 <__rc3>
    2e04: a0 0a        	ldy	#$a
    2e06: b1 7e        	lda	($7e),y                 ; 0x7e <__zp_bss_size+0x4e>
    2e08: 85 14        	sta	$14                     ; 0x14 <__rc4>
    2e0a: a5 7d        	lda	$7d                     ; 0x7d <__zp_bss_size+0x4d>
    2e0c: 18           	clc
    2e0d: 69 c0        	adc	#$c0
    2e0f: 92 12        	sta	($12)                   ; 0x12 <__rc2>
    2e11: a6 14        	ldx	$14                     ; 0x14 <__rc4>
    2e13: 8e 81 d5     	stx	$d581                   ; 0xd581 <__heap_start+0x4669>
    2e16: a5 7d        	lda	$7d                     ; 0x7d <__zp_bss_size+0x4d>
    2e18: 18           	clc
    2e19: 69 a0        	adc	#$a0
    2e1b: aa           	tax
    2e1c: c8           	iny
    2e1d: b1 7e        	lda	($7e),y                 ; 0x7e <__zp_bss_size+0x4e>
    2e1f: 85 14        	sta	$14                     ; 0x14 <__rc4>
    2e21: 8a           	txa
    2e22: 92 12        	sta	($12)                   ; 0x12 <__rc2>
    2e24: a6 14        	ldx	$14                     ; 0x14 <__rc4>
    2e26: 8e 81 d5     	stx	$d581                   ; 0xd581 <__heap_start+0x4669>
    2e29: c8           	iny
    2e2a: a9 df        	lda	#$df
    2e2c: 31 7e        	and	($7e),y                 ; 0x7e <__zp_bss_size+0x4e>
    2e2e: 85 14        	sta	$14                     ; 0x14 <__rc4>
    2e30: a5 7d        	lda	$7d                     ; 0x7d <__zp_bss_size+0x4d>
    2e32: 09 b0        	ora	#$b0
    2e34: 92 12        	sta	($12)                   ; 0x12 <__rc2>
    2e36: a6 14        	ldx	$14                     ; 0x14 <__rc4>
    2e38: 8e 81 d5     	stx	$d581                   ; 0xd581 <__heap_start+0x4669>
    2e3b: a6 7e        	ldx	$7e                     ; 0x7e <__zp_bss_size+0x4e>
    2e3d: 86 12        	stx	$12                     ; 0x12 <__rc2>
    2e3f: a6 7f        	ldx	$7f                     ; 0x7f <__zp_bss_size+0x4f>
    2e41: 4c be 2d     	jmp	$2dbe <opl3_setInstrumentAllChannels+0x1aa>
    2e44: 60           	rts

00002e45 <opl3_setInstrument>:
    2e45: a2 82        	ldx	#$82
    2e47: 86 16        	stx	$16                     ; 0x16 <__rc6>
    2e49: a2 d5        	ldx	#$d5
    2e4b: 86 17        	stx	$17                     ; 0x17 <__rc7>
    2e4d: a2 80        	ldx	#$80
    2e4f: 86 14        	stx	$14                     ; 0x14 <__rc4>
    2e51: a2 d5        	ldx	#$d5
    2e53: 86 15        	stx	$15                     ; 0x15 <__rc5>
    2e55: c9 03        	cmp	#$3
    2e57: 90 24        	bcc	$2e7d <opl3_setInstrument+0x38>
    2e59: c9 06        	cmp	#$6
    2e5b: 90 18        	bcc	$2e75 <opl3_setInstrument+0x30>
    2e5d: c9 09        	cmp	#$9
    2e5f: 90 19        	bcc	$2e7a <opl3_setInstrument+0x35>
    2e61: a2 01        	ldx	#$1
    2e63: c9 0c        	cmp	#$c
    2e65: b0 03        	bcs	$2e6a <opl3_setInstrument+0x25>
    2e67: 4c 6d 2f     	jmp	$2f6d <opl3_setInstrument+0x128>
    2e6a: c9 0f        	cmp	#$f
    2e6c: b0 03        	bcs	$2e71 <opl3_setInstrument+0x2c>
    2e6e: 4c 72 2f     	jmp	$2f72 <opl3_setInstrument+0x12d>
    2e71: 1a           	inc
    2e72: 4c 75 2f     	jmp	$2f75 <opl3_setInstrument+0x130>
    2e75: 18           	clc
    2e76: 69 05        	adc	#$5
    2e78: 80 03        	bra	$2e7d <opl3_setInstrument+0x38>
    2e7a: 18           	clc
    2e7b: 69 0a        	adc	#$a
    2e7d: 64 1a        	stz	$1a                     ; 0x1a <__rc10>
    2e7f: a2 80        	ldx	#$80
    2e81: 86 18        	stx	$18                     ; 0x18 <__rc8>
    2e83: a2 d5        	ldx	#$d5
    2e85: 86 19        	stx	$19                     ; 0x19 <__rc9>
    2e87: aa           	tax
    2e88: 09 e0        	ora	#$e0
    2e8a: 85 1c        	sta	$1c                     ; 0x1c <__rc12>
    2e8c: a0 09        	ldy	#$9
    2e8e: b1 12        	lda	($12),y                 ; 0x12 <__rc2>
    2e90: 85 1b        	sta	$1b                     ; 0x1b <__zp_data_size>
    2e92: a5 1c        	lda	$1c                     ; 0x1c <__rc12>
    2e94: 92 18        	sta	($18)                   ; 0x18 <__rc8>
    2e96: a4 1b        	ldy	$1b                     ; 0x1b <__zp_data_size>
    2e98: 8c 81 d5     	sty	$d581                   ; 0xd581 <__heap_start+0x4669>
    2e9b: 18           	clc
    2e9c: 8a           	txa
    2e9d: 69 03        	adc	#$3
    2e9f: 85 1c        	sta	$1c                     ; 0x1c <__rc12>
    2ea1: a9 00        	lda	#$0
    2ea3: 69 00        	adc	#$0
    2ea5: 05 1a        	ora	$1a                     ; 0x1a <__rc10>
    2ea7: 85 1d        	sta	$1d                     ; 0x1d <__rc13>
    2ea9: a0 08        	ldy	#$8
    2eab: b1 12        	lda	($12),y                 ; 0x12 <__rc2>
    2ead: 85 1b        	sta	$1b                     ; 0x1b <__zp_data_size>
    2eaf: a5 1c        	lda	$1c                     ; 0x1c <__rc12>
    2eb1: 85 1a        	sta	$1a                     ; 0x1a <__rc10>
    2eb3: 09 e0        	ora	#$e0
    2eb5: a4 1d        	ldy	$1d                     ; 0x1d <__rc13>
    2eb7: c0 01        	cpy	#$1
    2eb9: f0 03        	beq	$2ebe <opl3_setInstrument+0x79>
    2ebb: 4c 63 2f     	jmp	$2f63 <opl3_setInstrument+0x11e>
    2ebe: a4 1a        	ldy	$1a                     ; 0x1a <__rc10>
    2ec0: c0 00        	cpy	#$0
    2ec2: 90 08        	bcc	$2ecc <opl3_setInstrument+0x87>
    2ec4: a0 82        	ldy	#$82
    2ec6: 84 14        	sty	$14                     ; 0x14 <__rc4>
    2ec8: a0 d5        	ldy	#$d5
    2eca: 84 15        	sty	$15                     ; 0x15 <__rc5>
    2ecc: 92 14        	sta	($14)                   ; 0x14 <__rc4>
    2ece: a4 1b        	ldy	$1b                     ; 0x1b <__zp_data_size>
    2ed0: 8c 81 d5     	sty	$d581                   ; 0xd581 <__heap_start+0x4669>
    2ed3: 8a           	txa
    2ed4: 09 20        	ora	#$20
    2ed6: 85 17        	sta	$17                     ; 0x17 <__rc7>
    2ed8: a0 01        	ldy	#$1
    2eda: b1 12        	lda	($12),y                 ; 0x12 <__rc2>
    2edc: 85 16        	sta	$16                     ; 0x16 <__rc6>
    2ede: a5 17        	lda	$17                     ; 0x17 <__rc7>
    2ee0: 92 18        	sta	($18)                   ; 0x18 <__rc8>
    2ee2: a4 16        	ldy	$16                     ; 0x16 <__rc6>
    2ee4: 8c 81 d5     	sty	$d581                   ; 0xd581 <__heap_start+0x4669>
    2ee7: b2 12        	lda	($12)                   ; 0x12 <__rc2>
    2ee9: 85 16        	sta	$16                     ; 0x16 <__rc6>
    2eeb: a5 1a        	lda	$1a                     ; 0x1a <__rc10>
    2eed: 09 20        	ora	#$20
    2eef: 92 14        	sta	($14)                   ; 0x14 <__rc4>
    2ef1: a4 16        	ldy	$16                     ; 0x16 <__rc6>
    2ef3: 8c 81 d5     	sty	$d581                   ; 0xd581 <__heap_start+0x4669>
    2ef6: 8a           	txa
    2ef7: 09 40        	ora	#$40
    2ef9: 85 17        	sta	$17                     ; 0x17 <__rc7>
    2efb: a0 03        	ldy	#$3
    2efd: b1 12        	lda	($12),y                 ; 0x12 <__rc2>
    2eff: 85 16        	sta	$16                     ; 0x16 <__rc6>
    2f01: a5 17        	lda	$17                     ; 0x17 <__rc7>
    2f03: 92 18        	sta	($18)                   ; 0x18 <__rc8>
    2f05: a4 16        	ldy	$16                     ; 0x16 <__rc6>
    2f07: 8c 81 d5     	sty	$d581                   ; 0xd581 <__heap_start+0x4669>
    2f0a: a0 02        	ldy	#$2
    2f0c: b1 12        	lda	($12),y                 ; 0x12 <__rc2>
    2f0e: 85 16        	sta	$16                     ; 0x16 <__rc6>
    2f10: a5 1a        	lda	$1a                     ; 0x1a <__rc10>
    2f12: 09 40        	ora	#$40
    2f14: 92 14        	sta	($14)                   ; 0x14 <__rc4>
    2f16: a4 16        	ldy	$16                     ; 0x16 <__rc6>
    2f18: 8c 81 d5     	sty	$d581                   ; 0xd581 <__heap_start+0x4669>
    2f1b: 8a           	txa
    2f1c: 09 60        	ora	#$60
    2f1e: 85 17        	sta	$17                     ; 0x17 <__rc7>
    2f20: a0 05        	ldy	#$5
    2f22: b1 12        	lda	($12),y                 ; 0x12 <__rc2>
    2f24: 85 16        	sta	$16                     ; 0x16 <__rc6>
    2f26: a5 17        	lda	$17                     ; 0x17 <__rc7>
    2f28: 92 18        	sta	($18)                   ; 0x18 <__rc8>
    2f2a: a4 16        	ldy	$16                     ; 0x16 <__rc6>
    2f2c: 8c 81 d5     	sty	$d581                   ; 0xd581 <__heap_start+0x4669>
    2f2f: a0 04        	ldy	#$4
    2f31: b1 12        	lda	($12),y                 ; 0x12 <__rc2>
    2f33: 85 16        	sta	$16                     ; 0x16 <__rc6>
    2f35: a5 1a        	lda	$1a                     ; 0x1a <__rc10>
    2f37: 09 60        	ora	#$60
    2f39: 92 14        	sta	($14)                   ; 0x14 <__rc4>
    2f3b: a4 16        	ldy	$16                     ; 0x16 <__rc6>
    2f3d: 8c 81 d5     	sty	$d581                   ; 0xd581 <__heap_start+0x4669>
    2f40: 8a           	txa
    2f41: 09 80        	ora	#$80
    2f43: aa           	tax
    2f44: a0 07        	ldy	#$7
    2f46: b1 12        	lda	($12),y                 ; 0x12 <__rc2>
    2f48: 85 16        	sta	$16                     ; 0x16 <__rc6>
    2f4a: 8a           	txa
    2f4b: 92 18        	sta	($18)                   ; 0x18 <__rc8>
    2f4d: a6 16        	ldx	$16                     ; 0x16 <__rc6>
    2f4f: 8e 81 d5     	stx	$d581                   ; 0xd581 <__heap_start+0x4669>
    2f52: 88           	dey
    2f53: b1 12        	lda	($12),y                 ; 0x12 <__rc2>
    2f55: 85 12        	sta	$12                     ; 0x12 <__rc2>
    2f57: a5 1a        	lda	$1a                     ; 0x1a <__rc10>
    2f59: 09 80        	ora	#$80
    2f5b: 92 14        	sta	($14)                   ; 0x14 <__rc4>
    2f5d: a6 12        	ldx	$12                     ; 0x12 <__rc2>
    2f5f: 8e 81 d5     	stx	$d581                   ; 0xd581 <__heap_start+0x4669>
    2f62: 60           	rts
    2f63: c0 01        	cpy	#$1
    2f65: 90 03        	bcc	$2f6a <opl3_setInstrument+0x125>
    2f67: 4c c4 2e     	jmp	$2ec4 <opl3_setInstrument+0x7f>
    2f6a: 4c cc 2e     	jmp	$2ecc <opl3_setInstrument+0x87>
    2f6d: 18           	clc
    2f6e: 69 f7        	adc	#$f7
    2f70: 80 03        	bra	$2f75 <opl3_setInstrument+0x130>
    2f72: 18           	clc
    2f73: 69 fc        	adc	#$fc
    2f75: 86 1a        	stx	$1a                     ; 0x1a <__rc10>
    2f77: a2 82        	ldx	#$82
    2f79: 4c 81 2e     	jmp	$2e81 <opl3_setInstrument+0x3c>

00002f7c <opl3_set4OPS>:
    2f7c: a8           	tay
    2f7d: a5 77        	lda	$77                     ; 0x77 <chip_OPL3_PAIRS>
    2f7f: 85 14        	sta	$14                     ; 0x14 <__rc4>
    2f81: 29 01        	and	#$1
    2f83: f0 17        	beq	$2f9c <opl3_set4OPS+0x20>
    2f85: 64 7b        	stz	$7b                     ; 0x7b <__zp_bss_size+0x4b>
    2f87: a2 b4        	ldx	#$b4
    2f89: 86 12        	stx	$12                     ; 0x12 <__rc2>
    2f8b: a2 89        	ldx	#$89
    2f8d: 86 13        	stx	$13                     ; 0x13 <__rc3>
    2f8f: 98           	tya
    2f90: d0 03        	bne	$2f95 <opl3_set4OPS+0x19>
    2f92: 4c 4e 30     	jmp	$304e <opl3_set4OPS+0xd2>
    2f95: c0 03        	cpy	#$3
    2f97: d0 03        	bne	$2f9c <opl3_set4OPS+0x20>
    2f99: 4c 4e 30     	jmp	$304e <opl3_set4OPS+0xd2>
    2f9c: a5 14        	lda	$14                     ; 0x14 <__rc4>
    2f9e: 29 02        	and	#$2
    2fa0: f0 1a        	beq	$2fbc <opl3_set4OPS+0x40>
    2fa2: a2 01        	ldx	#$1
    2fa4: a9 ea        	lda	#$ea
    2fa6: 85 12        	sta	$12                     ; 0x12 <__rc2>
    2fa8: a9 8a        	lda	#$8a
    2faa: 85 13        	sta	$13                     ; 0x13 <__rc3>
    2fac: c0 01        	cpy	#$1
    2fae: d0 03        	bne	$2fb3 <opl3_set4OPS+0x37>
    2fb0: 4c 4c 30     	jmp	$304c <opl3_set4OPS+0xd0>
    2fb3: 86 7b        	stx	$7b                     ; 0x7b <__zp_bss_size+0x4b>
    2fb5: c0 04        	cpy	#$4
    2fb7: d0 03        	bne	$2fbc <opl3_set4OPS+0x40>
    2fb9: 4c 4e 30     	jmp	$304e <opl3_set4OPS+0xd2>
    2fbc: a5 14        	lda	$14                     ; 0x14 <__rc4>
    2fbe: 29 04        	and	#$4
    2fc0: f0 1a        	beq	$2fdc <opl3_set4OPS+0x60>
    2fc2: a2 02        	ldx	#$2
    2fc4: a9 a3        	lda	#$a3
    2fc6: 85 12        	sta	$12                     ; 0x12 <__rc2>
    2fc8: a9 8a        	lda	#$8a
    2fca: 85 13        	sta	$13                     ; 0x13 <__rc3>
    2fcc: c0 02        	cpy	#$2
    2fce: d0 03        	bne	$2fd3 <opl3_set4OPS+0x57>
    2fd0: 4c 4c 30     	jmp	$304c <opl3_set4OPS+0xd0>
    2fd3: 86 7b        	stx	$7b                     ; 0x7b <__zp_bss_size+0x4b>
    2fd5: c0 05        	cpy	#$5
    2fd7: d0 03        	bne	$2fdc <opl3_set4OPS+0x60>
    2fd9: 4c 4e 30     	jmp	$304e <opl3_set4OPS+0xd2>
    2fdc: a5 14        	lda	$14                     ; 0x14 <__rc4>
    2fde: 29 08        	and	#$8
    2fe0: f0 17        	beq	$2ff9 <opl3_set4OPS+0x7d>
    2fe2: a2 09        	ldx	#$9
    2fe4: a9 b3        	lda	#$b3
    2fe6: 85 12        	sta	$12                     ; 0x12 <__rc2>
    2fe8: a9 8a        	lda	#$8a
    2fea: 85 13        	sta	$13                     ; 0x13 <__rc3>
    2fec: c0 09        	cpy	#$9
    2fee: d0 03        	bne	$2ff3 <opl3_set4OPS+0x77>
    2ff0: 4c 4c 30     	jmp	$304c <opl3_set4OPS+0xd0>
    2ff3: 86 7b        	stx	$7b                     ; 0x7b <__zp_bss_size+0x4b>
    2ff5: c0 0c        	cpy	#$c
    2ff7: f0 55        	beq	$304e <opl3_set4OPS+0xd2>
    2ff9: a5 14        	lda	$14                     ; 0x14 <__rc4>
    2ffb: 29 10        	and	#$10
    2ffd: f0 14        	beq	$3013 <opl3_set4OPS+0x97>
    2fff: a2 0a        	ldx	#$a
    3001: a9 09        	lda	#$9
    3003: 85 12        	sta	$12                     ; 0x12 <__rc2>
    3005: a9 8b        	lda	#$8b
    3007: 85 13        	sta	$13                     ; 0x13 <__rc3>
    3009: c0 0a        	cpy	#$a
    300b: f0 3f        	beq	$304c <opl3_set4OPS+0xd0>
    300d: 86 7b        	stx	$7b                     ; 0x7b <__zp_bss_size+0x4b>
    300f: c0 0d        	cpy	#$d
    3011: f0 3b        	beq	$304e <opl3_set4OPS+0xd2>
    3013: a5 14        	lda	$14                     ; 0x14 <__rc4>
    3015: 29 20        	and	#$20
    3017: f0 14        	beq	$302d <opl3_set4OPS+0xb1>
    3019: a2 0b        	ldx	#$b
    301b: a9 c4        	lda	#$c4
    301d: 85 12        	sta	$12                     ; 0x12 <__rc2>
    301f: a9 8a        	lda	#$8a
    3021: 85 13        	sta	$13                     ; 0x13 <__rc3>
    3023: c0 0b        	cpy	#$b
    3025: f0 25        	beq	$304c <opl3_set4OPS+0xd0>
    3027: 86 7b        	stx	$7b                     ; 0x7b <__zp_bss_size+0x4b>
    3029: c0 0e        	cpy	#$e
    302b: f0 21        	beq	$304e <opl3_set4OPS+0xd2>
    302d: a2 04        	ldx	#$4
    302f: 8e 82 d5     	stx	$d582                   ; 0xd582 <__heap_start+0x466a>
    3032: 9c 81 d5     	stz	$d581                   ; 0xd581 <__heap_start+0x4669>
    3035: a2 01        	ldx	#$1
    3037: 98           	tya
    3038: 20 14 2c     	jsr	$2c14 <opl3_setInstrumentAllChannels>
    303b: a2 35        	ldx	#$35
    303d: 86 12        	stx	$12                     ; 0x12 <__rc2>
    303f: a2 00        	ldx	#$0
    3041: 86 13        	stx	$13                     ; 0x13 <__rc3>
    3043: a2 12        	ldx	#$12
    3045: 64 14        	stz	$14                     ; 0x14 <__rc4>
    3047: a9 01        	lda	#$1
    3049: 4c ec 82     	jmp	$82ec <__memset>
    304c: 86 7b        	stx	$7b                     ; 0x7b <__zp_bss_size+0x4b>
    304e: 20 66 7f     	jsr	$7f66 <printf>
    3051: a6 77        	ldx	$77                     ; 0x77 <chip_OPL3_PAIRS>
    3053: f0 1f        	beq	$3074 <opl3_set4OPS+0xf8>
    3055: a2 38        	ldx	#$38
    3057: 86 12        	stx	$12                     ; 0x12 <__rc2>
    3059: a2 00        	ldx	#$0
    305b: 86 13        	stx	$13                     ; 0x13 <__rc3>
    305d: a2 0f        	ldx	#$f
    305f: 64 14        	stz	$14                     ; 0x14 <__rc4>
    3061: a9 00        	lda	#$0
    3063: 20 ec 82     	jsr	$82ec <__memset>
    3066: a2 01        	ldx	#$1
    3068: 86 35        	stx	$35                     ; 0x35 <selectableChan>
    306a: 86 36        	stx	$36                     ; 0x36 <selectableChan+0x1>
    306c: 86 37        	stx	$37                     ; 0x37 <selectableChan+0x2>
    306e: 86 3e        	stx	$3e                     ; 0x3e <selectableChan+0x9>
    3070: 86 3f        	stx	$3f                     ; 0x3f <selectableChan+0xa>
    3072: 86 40        	stx	$40                     ; 0x40 <selectableChan+0xb>
    3074: a2 04        	ldx	#$4
    3076: 8e 82 d5     	stx	$d582                   ; 0xd582 <__heap_start+0x466a>
    3079: 86 14        	stx	$14                     ; 0x14 <__rc4>
    307b: a2 3f        	ldx	#$3f
    307d: 8e 81 d5     	stx	$d581                   ; 0xd581 <__heap_start+0x4669>
    3080: a5 7b        	lda	$7b                     ; 0x7b <__zp_bss_size+0x4b>
    3082: 0a           	asl
    3083: 0a           	asl
    3084: 0a           	asl
    3085: 0a           	asl
    3086: 38           	sec
    3087: e5 7b        	sbc	$7b                     ; 0x7b <__zp_bss_size+0x4b>
    3089: 85 12        	sta	$12                     ; 0x12 <__rc2>
    308b: a0 01        	ldy	#$1
    308d: a9 00        	lda	#$0
    308f: e9 00        	sbc	#$0
    3091: 85 13        	sta	$13                     ; 0x13 <__rc3>
    3093: a9 8b        	lda	#$8b
    3095: 18           	clc
    3096: 65 12        	adc	$12                     ; 0x12 <__rc2>
    3098: 85 12        	sta	$12                     ; 0x12 <__rc2>
    309a: a9 8d        	lda	#$8d
    309c: 65 13        	adc	$13                     ; 0x13 <__rc3>
    309e: 85 13        	sta	$13                     ; 0x13 <__rc3>
    30a0: b2 12        	lda	($12)                   ; 0x12 <__rc2>
    30a2: 85 1a        	sta	$1a                     ; 0x1a <__rc10>
    30a4: b1 12        	lda	($12),y                 ; 0x12 <__rc2>
    30a6: 85 16        	sta	$16                     ; 0x16 <__rc6>
    30a8: c8           	iny
    30a9: b1 12        	lda	($12),y                 ; 0x12 <__rc2>
    30ab: 85 17        	sta	$17                     ; 0x17 <__rc7>
    30ad: c8           	iny
    30ae: b1 12        	lda	($12),y                 ; 0x12 <__rc2>
    30b0: 85 1b        	sta	$1b                     ; 0x1b <__zp_data_size>
    30b2: a4 14        	ldy	$14                     ; 0x14 <__rc4>
    30b4: b1 12        	lda	($12),y                 ; 0x12 <__rc2>
    30b6: 85 15        	sta	$15                     ; 0x15 <__rc5>
    30b8: a0 05        	ldy	#$5
    30ba: b1 12        	lda	($12),y                 ; 0x12 <__rc2>
    30bc: 85 19        	sta	$19                     ; 0x19 <__rc9>
    30be: c8           	iny
    30bf: b1 12        	lda	($12),y                 ; 0x12 <__rc2>
    30c1: 85 14        	sta	$14                     ; 0x14 <__rc4>
    30c3: c8           	iny
    30c4: b1 12        	lda	($12),y                 ; 0x12 <__rc2>
    30c6: 85 18        	sta	$18                     ; 0x18 <__rc8>
    30c8: c8           	iny
    30c9: b1 12        	lda	($12),y                 ; 0x12 <__rc2>
    30cb: 85 1c        	sta	$1c                     ; 0x1c <__rc12>
    30cd: c8           	iny
    30ce: b1 12        	lda	($12),y                 ; 0x12 <__rc2>
    30d0: a2 e0        	ldx	#$e0
    30d2: 8e 80 d5     	stx	$d580                   ; 0xd580 <__heap_start+0x4668>
    30d5: 8d 81 d5     	sta	$d581                   ; 0xd581 <__heap_start+0x4669>
    30d8: a2 e3        	ldx	#$e3
    30da: 8e 80 d5     	stx	$d580                   ; 0xd580 <__heap_start+0x4668>
    30dd: a6 1c        	ldx	$1c                     ; 0x1c <__rc12>
    30df: 8e 81 d5     	stx	$d581                   ; 0xd581 <__heap_start+0x4669>
    30e2: a2 20        	ldx	#$20
    30e4: 8e 80 d5     	stx	$d580                   ; 0xd580 <__heap_start+0x4668>
    30e7: a6 16        	ldx	$16                     ; 0x16 <__rc6>
    30e9: 8e 81 d5     	stx	$d581                   ; 0xd581 <__heap_start+0x4669>
    30ec: a2 23        	ldx	#$23
    30ee: 8e 80 d5     	stx	$d580                   ; 0xd580 <__heap_start+0x4668>
    30f1: a6 1a        	ldx	$1a                     ; 0x1a <__rc10>
    30f3: 8e 81 d5     	stx	$d581                   ; 0xd581 <__heap_start+0x4669>
    30f6: a2 40        	ldx	#$40
    30f8: 8e 80 d5     	stx	$d580                   ; 0xd580 <__heap_start+0x4668>
    30fb: a6 1b        	ldx	$1b                     ; 0x1b <__zp_data_size>
    30fd: 8e 81 d5     	stx	$d581                   ; 0xd581 <__heap_start+0x4669>
    3100: a2 43        	ldx	#$43
    3102: 8e 80 d5     	stx	$d580                   ; 0xd580 <__heap_start+0x4668>
    3105: a6 17        	ldx	$17                     ; 0x17 <__rc7>
    3107: 8e 81 d5     	stx	$d581                   ; 0xd581 <__heap_start+0x4669>
    310a: a2 60        	ldx	#$60
    310c: 8e 80 d5     	stx	$d580                   ; 0xd580 <__heap_start+0x4668>
    310f: a6 19        	ldx	$19                     ; 0x19 <__rc9>
    3111: 8e 81 d5     	stx	$d581                   ; 0xd581 <__heap_start+0x4669>
    3114: a2 63        	ldx	#$63
    3116: 8e 80 d5     	stx	$d580                   ; 0xd580 <__heap_start+0x4668>
    3119: a6 15        	ldx	$15                     ; 0x15 <__rc5>
    311b: 8e 81 d5     	stx	$d581                   ; 0xd581 <__heap_start+0x4669>
    311e: a2 80        	ldx	#$80
    3120: 8e 80 d5     	stx	$d580                   ; 0xd580 <__heap_start+0x4668>
    3123: a6 18        	ldx	$18                     ; 0x18 <__rc8>
    3125: 8e 81 d5     	stx	$d581                   ; 0xd581 <__heap_start+0x4669>
    3128: a2 83        	ldx	#$83
    312a: 8e 80 d5     	stx	$d580                   ; 0xd580 <__heap_start+0x4668>
    312d: a6 14        	ldx	$14                     ; 0x14 <__rc4>
    312f: 8e 81 d5     	stx	$d581                   ; 0xd581 <__heap_start+0x4669>
    3132: a0 2d        	ldy	#$2d
    3134: b1 12        	lda	($12),y                 ; 0x12 <__rc2>
    3136: 85 1b        	sta	$1b                     ; 0x1b <__zp_data_size>
    3138: c8           	iny
    3139: b1 12        	lda	($12),y                 ; 0x12 <__rc2>
    313b: 85 16        	sta	$16                     ; 0x16 <__rc6>
    313d: c8           	iny
    313e: b1 12        	lda	($12),y                 ; 0x12 <__rc2>
    3140: 85 19        	sta	$19                     ; 0x19 <__rc9>
    3142: c8           	iny
    3143: b1 12        	lda	($12),y                 ; 0x12 <__rc2>
    3145: 85 1d        	sta	$1d                     ; 0x1d <__rc13>
    3147: c8           	iny
    3148: b1 12        	lda	($12),y                 ; 0x12 <__rc2>
    314a: 85 17        	sta	$17                     ; 0x17 <__rc7>
    314c: c8           	iny
    314d: b1 12        	lda	($12),y                 ; 0x12 <__rc2>
    314f: 85 1c        	sta	$1c                     ; 0x1c <__rc12>
    3151: c8           	iny
    3152: b1 12        	lda	($12),y                 ; 0x12 <__rc2>
    3154: 85 15        	sta	$15                     ; 0x15 <__rc5>
    3156: c8           	iny
    3157: b1 12        	lda	($12),y                 ; 0x12 <__rc2>
    3159: 85 1a        	sta	$1a                     ; 0x1a <__rc10>
    315b: a2 34        	ldx	#$34
    315d: 86 18        	stx	$18                     ; 0x18 <__rc8>
    315f: c8           	iny
    3160: b1 12        	lda	($12),y                 ; 0x12 <__rc2>
    3162: 85 14        	sta	$14                     ; 0x14 <__rc4>
    3164: e8           	inx
    3165: c8           	iny
    3166: b1 12        	lda	($12),y                 ; 0x12 <__rc2>
    3168: a0 e8        	ldy	#$e8
    316a: 8c 80 d5     	sty	$d580                   ; 0xd580 <__heap_start+0x4668>
    316d: 8d 81 d5     	sta	$d581                   ; 0xd581 <__heap_start+0x4669>
    3170: a0 eb        	ldy	#$eb
    3172: 8c 80 d5     	sty	$d580                   ; 0xd580 <__heap_start+0x4668>
    3175: a4 14        	ldy	$14                     ; 0x14 <__rc4>
    3177: 8c 81 d5     	sty	$d581                   ; 0xd581 <__heap_start+0x4669>
    317a: a0 28        	ldy	#$28
    317c: 8c 80 d5     	sty	$d580                   ; 0xd580 <__heap_start+0x4668>
    317f: a4 16        	ldy	$16                     ; 0x16 <__rc6>
    3181: 8c 81 d5     	sty	$d581                   ; 0xd581 <__heap_start+0x4669>
    3184: a0 2b        	ldy	#$2b
    3186: 8c 80 d5     	sty	$d580                   ; 0xd580 <__heap_start+0x4668>
    3189: a4 1b        	ldy	$1b                     ; 0x1b <__zp_data_size>
    318b: 8c 81 d5     	sty	$d581                   ; 0xd581 <__heap_start+0x4669>
    318e: a0 48        	ldy	#$48
    3190: 8c 80 d5     	sty	$d580                   ; 0xd580 <__heap_start+0x4668>
    3193: a4 1d        	ldy	$1d                     ; 0x1d <__rc13>
    3195: 8c 81 d5     	sty	$d581                   ; 0xd581 <__heap_start+0x4669>
    3198: a0 4b        	ldy	#$4b
    319a: 8c 80 d5     	sty	$d580                   ; 0xd580 <__heap_start+0x4668>
    319d: a4 19        	ldy	$19                     ; 0x19 <__rc9>
    319f: 8c 81 d5     	sty	$d581                   ; 0xd581 <__heap_start+0x4669>
    31a2: a0 68        	ldy	#$68
    31a4: 8c 80 d5     	sty	$d580                   ; 0xd580 <__heap_start+0x4668>
    31a7: a4 1c        	ldy	$1c                     ; 0x1c <__rc12>
    31a9: 8c 81 d5     	sty	$d581                   ; 0xd581 <__heap_start+0x4669>
    31ac: a0 6b        	ldy	#$6b
    31ae: 8c 80 d5     	sty	$d580                   ; 0xd580 <__heap_start+0x4668>
    31b1: a4 17        	ldy	$17                     ; 0x17 <__rc7>
    31b3: 8c 81 d5     	sty	$d581                   ; 0xd581 <__heap_start+0x4669>
    31b6: a0 88        	ldy	#$88
    31b8: 8c 80 d5     	sty	$d580                   ; 0xd580 <__heap_start+0x4668>
    31bb: a4 1a        	ldy	$1a                     ; 0x1a <__rc10>
    31bd: 8c 81 d5     	sty	$d581                   ; 0xd581 <__heap_start+0x4669>
    31c0: a0 8b        	ldy	#$8b
    31c2: 8c 80 d5     	sty	$d580                   ; 0xd580 <__heap_start+0x4668>
    31c5: a4 15        	ldy	$15                     ; 0x15 <__rc5>
    31c7: 8c 81 d5     	sty	$d581                   ; 0xd581 <__heap_start+0x4669>
    31ca: b2 12        	lda	($12)                   ; 0x12 <__rc2>
    31cc: 85 22        	sta	$22                     ; 0x22 <__rc18>
    31ce: a0 01        	ldy	#$1
    31d0: b1 12        	lda	($12),y                 ; 0x12 <__rc2>
    31d2: 85 7b        	sta	$7b                     ; 0x7b <__zp_bss_size+0x4b>
    31d4: c8           	iny
    31d5: b1 12        	lda	($12),y                 ; 0x12 <__rc2>
    31d7: 85 14        	sta	$14                     ; 0x14 <__rc4>
    31d9: c8           	iny
    31da: b1 12        	lda	($12),y                 ; 0x12 <__rc2>
    31dc: 85 23        	sta	$23                     ; 0x23 <__rc19>
    31de: c8           	iny
    31df: b1 12        	lda	($12),y                 ; 0x12 <__rc2>
    31e1: 85 1b        	sta	$1b                     ; 0x1b <__zp_data_size>
    31e3: c8           	iny
    31e4: b1 12        	lda	($12),y                 ; 0x12 <__rc2>
    31e6: 85 1f        	sta	$1f                     ; 0x1f <__rc15>
    31e8: 84 1d        	sty	$1d                     ; 0x1d <__rc13>
    31ea: c8           	iny
    31eb: b1 12        	lda	($12),y                 ; 0x12 <__rc2>
    31ed: 85 1a        	sta	$1a                     ; 0x1a <__rc10>
    31ef: 84 19        	sty	$19                     ; 0x19 <__rc9>
    31f1: c8           	iny
    31f2: b1 12        	lda	($12),y                 ; 0x12 <__rc2>
    31f4: 85 1c        	sta	$1c                     ; 0x1c <__rc12>
    31f6: 84 17        	sty	$17                     ; 0x17 <__rc7>
    31f8: c8           	iny
    31f9: b1 12        	lda	($12),y                 ; 0x12 <__rc2>
    31fb: 85 1e        	sta	$1e                     ; 0x1e <__rc14>
    31fd: 84 16        	sty	$16                     ; 0x16 <__rc6>
    31ff: c8           	iny
    3200: b1 12        	lda	($12),y                 ; 0x12 <__rc2>
    3202: 84 15        	sty	$15                     ; 0x15 <__rc5>
    3204: a0 e1        	ldy	#$e1
    3206: 8c 80 d5     	sty	$d580                   ; 0xd580 <__heap_start+0x4668>
    3209: 8d 81 d5     	sta	$d581                   ; 0xd581 <__heap_start+0x4669>
    320c: a0 e4        	ldy	#$e4
    320e: 8c 80 d5     	sty	$d580                   ; 0xd580 <__heap_start+0x4668>
    3211: a4 1e        	ldy	$1e                     ; 0x1e <__rc14>
    3213: 8c 81 d5     	sty	$d581                   ; 0xd581 <__heap_start+0x4669>
    3216: a0 21        	ldy	#$21
    3218: 8c 80 d5     	sty	$d580                   ; 0xd580 <__heap_start+0x4668>
    321b: a4 7b        	ldy	$7b                     ; 0x7b <__zp_bss_size+0x4b>
    321d: 8c 81 d5     	sty	$d581                   ; 0xd581 <__heap_start+0x4669>
    3220: a0 24        	ldy	#$24
    3222: 8c 80 d5     	sty	$d580                   ; 0xd580 <__heap_start+0x4668>
    3225: a4 22        	ldy	$22                     ; 0x22 <__rc18>
    3227: 8c 81 d5     	sty	$d581                   ; 0xd581 <__heap_start+0x4669>
    322a: a0 41        	ldy	#$41
    322c: 8c 80 d5     	sty	$d580                   ; 0xd580 <__heap_start+0x4668>
    322f: a4 23        	ldy	$23                     ; 0x23 <__rc19>
    3231: 8c 81 d5     	sty	$d581                   ; 0xd581 <__heap_start+0x4669>
    3234: a0 44        	ldy	#$44
    3236: 8c 80 d5     	sty	$d580                   ; 0xd580 <__heap_start+0x4668>
    3239: a4 14        	ldy	$14                     ; 0x14 <__rc4>
    323b: 8c 81 d5     	sty	$d581                   ; 0xd581 <__heap_start+0x4669>
    323e: a0 61        	ldy	#$61
    3240: 8c 80 d5     	sty	$d580                   ; 0xd580 <__heap_start+0x4668>
    3243: a4 1f        	ldy	$1f                     ; 0x1f <__rc15>
    3245: 8c 81 d5     	sty	$d581                   ; 0xd581 <__heap_start+0x4669>
    3248: a0 64        	ldy	#$64
    324a: 8c 80 d5     	sty	$d580                   ; 0xd580 <__heap_start+0x4668>
    324d: a4 1b        	ldy	$1b                     ; 0x1b <__zp_data_size>
    324f: 8c 81 d5     	sty	$d581                   ; 0xd581 <__heap_start+0x4669>
    3252: a0 81        	ldy	#$81
    3254: 8c 80 d5     	sty	$d580                   ; 0xd580 <__heap_start+0x4668>
    3257: a4 1c        	ldy	$1c                     ; 0x1c <__rc12>
    3259: 8c 81 d5     	sty	$d581                   ; 0xd581 <__heap_start+0x4669>
    325c: a0 84        	ldy	#$84
    325e: 8c 80 d5     	sty	$d580                   ; 0xd580 <__heap_start+0x4668>
    3261: a4 1a        	ldy	$1a                     ; 0x1a <__rc10>
    3263: 8c 81 d5     	sty	$d581                   ; 0xd581 <__heap_start+0x4669>
    3266: a0 2d        	ldy	#$2d
    3268: b1 12        	lda	($12),y                 ; 0x12 <__rc2>
    326a: 85 22        	sta	$22                     ; 0x22 <__rc18>
    326c: 84 14        	sty	$14                     ; 0x14 <__rc4>
    326e: c8           	iny
    326f: b1 12        	lda	($12),y                 ; 0x12 <__rc2>
    3271: 85 7b        	sta	$7b                     ; 0x7b <__zp_bss_size+0x4b>
    3273: c8           	iny
    3274: b1 12        	lda	($12),y                 ; 0x12 <__rc2>
    3276: 85 1c        	sta	$1c                     ; 0x1c <__rc12>
    3278: c8           	iny
    3279: b1 12        	lda	($12),y                 ; 0x12 <__rc2>
    327b: 85 23        	sta	$23                     ; 0x23 <__rc19>
    327d: c8           	iny
    327e: b1 12        	lda	($12),y                 ; 0x12 <__rc2>
    3280: 85 1b        	sta	$1b                     ; 0x1b <__zp_data_size>
    3282: c8           	iny
    3283: b1 12        	lda	($12),y                 ; 0x12 <__rc2>
    3285: 85 1f        	sta	$1f                     ; 0x1f <__rc15>
    3287: c8           	iny
    3288: b1 12        	lda	($12),y                 ; 0x12 <__rc2>
    328a: 85 1a        	sta	$1a                     ; 0x1a <__rc10>
    328c: a4 18        	ldy	$18                     ; 0x18 <__rc8>
    328e: b1 12        	lda	($12),y                 ; 0x12 <__rc2>
    3290: 85 18        	sta	$18                     ; 0x18 <__rc8>
    3292: a0 35        	ldy	#$35
    3294: b1 12        	lda	($12),y                 ; 0x12 <__rc2>
    3296: 85 1e        	sta	$1e                     ; 0x1e <__rc14>
    3298: c8           	iny
    3299: b1 12        	lda	($12),y                 ; 0x12 <__rc2>
    329b: a2 e9        	ldx	#$e9
    329d: 8e 80 d5     	stx	$d580                   ; 0xd580 <__heap_start+0x4668>
    32a0: 8d 81 d5     	sta	$d581                   ; 0xd581 <__heap_start+0x4669>
    32a3: a2 ec        	ldx	#$ec
    32a5: 8e 80 d5     	stx	$d580                   ; 0xd580 <__heap_start+0x4668>
    32a8: a6 1e        	ldx	$1e                     ; 0x1e <__rc14>
    32aa: 8e 81 d5     	stx	$d581                   ; 0xd581 <__heap_start+0x4669>
    32ad: a2 29        	ldx	#$29
    32af: 8e 80 d5     	stx	$d580                   ; 0xd580 <__heap_start+0x4668>
    32b2: a6 7b        	ldx	$7b                     ; 0x7b <__zp_bss_size+0x4b>
    32b4: 8e 81 d5     	stx	$d581                   ; 0xd581 <__heap_start+0x4669>
    32b7: a2 2c        	ldx	#$2c
    32b9: 8e 80 d5     	stx	$d580                   ; 0xd580 <__heap_start+0x4668>
    32bc: a6 22        	ldx	$22                     ; 0x22 <__rc18>
    32be: 8e 81 d5     	stx	$d581                   ; 0xd581 <__heap_start+0x4669>
    32c1: a2 49        	ldx	#$49
    32c3: 8e 80 d5     	stx	$d580                   ; 0xd580 <__heap_start+0x4668>
    32c6: a6 23        	ldx	$23                     ; 0x23 <__rc19>
    32c8: 8e 81 d5     	stx	$d581                   ; 0xd581 <__heap_start+0x4669>
    32cb: a2 4c        	ldx	#$4c
    32cd: 8e 80 d5     	stx	$d580                   ; 0xd580 <__heap_start+0x4668>
    32d0: a6 1c        	ldx	$1c                     ; 0x1c <__rc12>
    32d2: 8e 81 d5     	stx	$d581                   ; 0xd581 <__heap_start+0x4669>
    32d5: a2 69        	ldx	#$69
    32d7: 8e 80 d5     	stx	$d580                   ; 0xd580 <__heap_start+0x4668>
    32da: a6 1f        	ldx	$1f                     ; 0x1f <__rc15>
    32dc: 8e 81 d5     	stx	$d581                   ; 0xd581 <__heap_start+0x4669>
    32df: a2 6c        	ldx	#$6c
    32e1: 8e 80 d5     	stx	$d580                   ; 0xd580 <__heap_start+0x4668>
    32e4: a6 1b        	ldx	$1b                     ; 0x1b <__zp_data_size>
    32e6: 8e 81 d5     	stx	$d581                   ; 0xd581 <__heap_start+0x4669>
    32e9: a2 89        	ldx	#$89
    32eb: 8e 80 d5     	stx	$d580                   ; 0xd580 <__heap_start+0x4668>
    32ee: a6 18        	ldx	$18                     ; 0x18 <__rc8>
    32f0: 8e 81 d5     	stx	$d581                   ; 0xd581 <__heap_start+0x4669>
    32f3: a2 8c        	ldx	#$8c
    32f5: 8e 80 d5     	stx	$d580                   ; 0xd580 <__heap_start+0x4668>
    32f8: a6 1a        	ldx	$1a                     ; 0x1a <__rc10>
    32fa: 8e 81 d5     	stx	$d581                   ; 0xd581 <__heap_start+0x4669>
    32fd: b2 12        	lda	($12)                   ; 0x12 <__rc2>
    32ff: 85 1e        	sta	$1e                     ; 0x1e <__rc14>
    3301: a0 01        	ldy	#$1
    3303: b1 12        	lda	($12),y                 ; 0x12 <__rc2>
    3305: 85 22        	sta	$22                     ; 0x22 <__rc18>
    3307: c8           	iny
    3308: b1 12        	lda	($12),y                 ; 0x12 <__rc2>
    330a: 85 1b        	sta	$1b                     ; 0x1b <__zp_data_size>
    330c: c8           	iny
    330d: b1 12        	lda	($12),y                 ; 0x12 <__rc2>
    330f: 85 1f        	sta	$1f                     ; 0x1f <__rc15>
    3311: c8           	iny
    3312: b1 12        	lda	($12),y                 ; 0x12 <__rc2>
    3314: 85 1a        	sta	$1a                     ; 0x1a <__rc10>
    3316: a4 1d        	ldy	$1d                     ; 0x1d <__rc13>
    3318: b1 12        	lda	($12),y                 ; 0x12 <__rc2>
    331a: 85 1c        	sta	$1c                     ; 0x1c <__rc12>
    331c: a4 19        	ldy	$19                     ; 0x19 <__rc9>
    331e: b1 12        	lda	($12),y                 ; 0x12 <__rc2>
    3320: 85 18        	sta	$18                     ; 0x18 <__rc8>
    3322: a4 17        	ldy	$17                     ; 0x17 <__rc7>
    3324: b1 12        	lda	($12),y                 ; 0x12 <__rc2>
    3326: 85 17        	sta	$17                     ; 0x17 <__rc7>
    3328: a4 16        	ldy	$16                     ; 0x16 <__rc6>
    332a: b1 12        	lda	($12),y                 ; 0x12 <__rc2>
    332c: 85 16        	sta	$16                     ; 0x16 <__rc6>
    332e: a4 15        	ldy	$15                     ; 0x15 <__rc5>
    3330: b1 12        	lda	($12),y                 ; 0x12 <__rc2>
    3332: a2 e2        	ldx	#$e2
    3334: 8e 80 d5     	stx	$d580                   ; 0xd580 <__heap_start+0x4668>
    3337: 8d 81 d5     	sta	$d581                   ; 0xd581 <__heap_start+0x4669>
    333a: a2 e5        	ldx	#$e5
    333c: 8e 80 d5     	stx	$d580                   ; 0xd580 <__heap_start+0x4668>
    333f: a6 16        	ldx	$16                     ; 0x16 <__rc6>
    3341: 8e 81 d5     	stx	$d581                   ; 0xd581 <__heap_start+0x4669>
    3344: a2 22        	ldx	#$22
    3346: 8e 80 d5     	stx	$d580                   ; 0xd580 <__heap_start+0x4668>
    3349: a6 22        	ldx	$22                     ; 0x22 <__rc18>
    334b: 8e 81 d5     	stx	$d581                   ; 0xd581 <__heap_start+0x4669>
    334e: a2 25        	ldx	#$25
    3350: 8e 80 d5     	stx	$d580                   ; 0xd580 <__heap_start+0x4668>
    3353: a6 1e        	ldx	$1e                     ; 0x1e <__rc14>
    3355: 8e 81 d5     	stx	$d581                   ; 0xd581 <__heap_start+0x4669>
    3358: a2 42        	ldx	#$42
    335a: 8e 80 d5     	stx	$d580                   ; 0xd580 <__heap_start+0x4668>
    335d: a6 1f        	ldx	$1f                     ; 0x1f <__rc15>
    335f: 8e 81 d5     	stx	$d581                   ; 0xd581 <__heap_start+0x4669>
    3362: a2 45        	ldx	#$45
    3364: 8e 80 d5     	stx	$d580                   ; 0xd580 <__heap_start+0x4668>
    3367: a6 1b        	ldx	$1b                     ; 0x1b <__zp_data_size>
    3369: 8e 81 d5     	stx	$d581                   ; 0xd581 <__heap_start+0x4669>
    336c: a2 62        	ldx	#$62
    336e: 8e 80 d5     	stx	$d580                   ; 0xd580 <__heap_start+0x4668>
    3371: a6 1c        	ldx	$1c                     ; 0x1c <__rc12>
    3373: 8e 81 d5     	stx	$d581                   ; 0xd581 <__heap_start+0x4669>
    3376: a2 65        	ldx	#$65
    3378: 8e 80 d5     	stx	$d580                   ; 0xd580 <__heap_start+0x4668>
    337b: a6 1a        	ldx	$1a                     ; 0x1a <__rc10>
    337d: 8e 81 d5     	stx	$d581                   ; 0xd581 <__heap_start+0x4669>
    3380: a2 82        	ldx	#$82
    3382: 8e 80 d5     	stx	$d580                   ; 0xd580 <__heap_start+0x4668>
    3385: a6 17        	ldx	$17                     ; 0x17 <__rc7>
    3387: 8e 81 d5     	stx	$d581                   ; 0xd581 <__heap_start+0x4669>
    338a: a2 85        	ldx	#$85
    338c: 8e 80 d5     	stx	$d580                   ; 0xd580 <__heap_start+0x4668>
    338f: a6 18        	ldx	$18                     ; 0x18 <__rc8>
    3391: 8e 81 d5     	stx	$d581                   ; 0xd581 <__heap_start+0x4669>
    3394: a4 14        	ldy	$14                     ; 0x14 <__rc4>
    3396: b1 12        	lda	($12),y                 ; 0x12 <__rc2>
    3398: 85 1d        	sta	$1d                     ; 0x1d <__rc13>
    339a: a0 2e        	ldy	#$2e
    339c: b1 12        	lda	($12),y                 ; 0x12 <__rc2>
    339e: 85 1c        	sta	$1c                     ; 0x1c <__rc12>
    33a0: c8           	iny
    33a1: b1 12        	lda	($12),y                 ; 0x12 <__rc2>
    33a3: 85 7b        	sta	$7b                     ; 0x7b <__zp_bss_size+0x4b>
    33a5: c8           	iny
    33a6: b1 12        	lda	($12),y                 ; 0x12 <__rc2>
    33a8: 85 1b        	sta	$1b                     ; 0x1b <__zp_data_size>
    33aa: c8           	iny
    33ab: b1 12        	lda	($12),y                 ; 0x12 <__rc2>
    33ad: 85 1e        	sta	$1e                     ; 0x1e <__rc14>
    33af: 84 17        	sty	$17                     ; 0x17 <__rc7>
    33b1: c8           	iny
    33b2: b1 12        	lda	($12),y                 ; 0x12 <__rc2>
    33b4: 85 22        	sta	$22                     ; 0x22 <__rc18>
    33b6: 84 16        	sty	$16                     ; 0x16 <__rc6>
    33b8: c8           	iny
    33b9: b1 12        	lda	($12),y                 ; 0x12 <__rc2>
    33bb: 85 1f        	sta	$1f                     ; 0x1f <__rc15>
    33bd: c8           	iny
    33be: b1 12        	lda	($12),y                 ; 0x12 <__rc2>
    33c0: 85 23        	sta	$23                     ; 0x23 <__rc19>
    33c2: c8           	iny
    33c3: b1 12        	lda	($12),y                 ; 0x12 <__rc2>
    33c5: 85 15        	sta	$15                     ; 0x15 <__rc5>
    33c7: c8           	iny
    33c8: b1 12        	lda	($12),y                 ; 0x12 <__rc2>
    33ca: a2 ea        	ldx	#$ea
    33cc: 8e 80 d5     	stx	$d580                   ; 0xd580 <__heap_start+0x4668>
    33cf: 8d 81 d5     	sta	$d581                   ; 0xd581 <__heap_start+0x4669>
    33d2: a2 ed        	ldx	#$ed
    33d4: 8e 80 d5     	stx	$d580                   ; 0xd580 <__heap_start+0x4668>
    33d7: a6 15        	ldx	$15                     ; 0x15 <__rc5>
    33d9: 8e 81 d5     	stx	$d581                   ; 0xd581 <__heap_start+0x4669>
    33dc: a2 2a        	ldx	#$2a
    33de: 8e 80 d5     	stx	$d580                   ; 0xd580 <__heap_start+0x4668>
    33e1: a6 1c        	ldx	$1c                     ; 0x1c <__rc12>
    33e3: 8e 81 d5     	stx	$d581                   ; 0xd581 <__heap_start+0x4669>
    33e6: a4 14        	ldy	$14                     ; 0x14 <__rc4>
    33e8: 8c 80 d5     	sty	$d580                   ; 0xd580 <__heap_start+0x4668>
    33eb: a6 1d        	ldx	$1d                     ; 0x1d <__rc13>
    33ed: 8e 81 d5     	stx	$d581                   ; 0xd581 <__heap_start+0x4669>
    33f0: a2 4a        	ldx	#$4a
    33f2: 8e 80 d5     	stx	$d580                   ; 0xd580 <__heap_start+0x4668>
    33f5: a6 1b        	ldx	$1b                     ; 0x1b <__zp_data_size>
    33f7: 8e 81 d5     	stx	$d581                   ; 0xd581 <__heap_start+0x4669>
    33fa: a2 4d        	ldx	#$4d
    33fc: 8e 80 d5     	stx	$d580                   ; 0xd580 <__heap_start+0x4668>
    33ff: a6 7b        	ldx	$7b                     ; 0x7b <__zp_bss_size+0x4b>
    3401: 8e 81 d5     	stx	$d581                   ; 0xd581 <__heap_start+0x4669>
    3404: a2 6a        	ldx	#$6a
    3406: 8e 80 d5     	stx	$d580                   ; 0xd580 <__heap_start+0x4668>
    3409: a6 22        	ldx	$22                     ; 0x22 <__rc18>
    340b: 8e 81 d5     	stx	$d581                   ; 0xd581 <__heap_start+0x4669>
    340e: a2 6d        	ldx	#$6d
    3410: 8e 80 d5     	stx	$d580                   ; 0xd580 <__heap_start+0x4668>
    3413: a6 1e        	ldx	$1e                     ; 0x1e <__rc14>
    3415: 8e 81 d5     	stx	$d581                   ; 0xd581 <__heap_start+0x4669>
    3418: a2 8a        	ldx	#$8a
    341a: 8e 80 d5     	stx	$d580                   ; 0xd580 <__heap_start+0x4668>
    341d: a6 23        	ldx	$23                     ; 0x23 <__rc19>
    341f: 8e 81 d5     	stx	$d581                   ; 0xd581 <__heap_start+0x4669>
    3422: a2 8d        	ldx	#$8d
    3424: 8e 80 d5     	stx	$d580                   ; 0xd580 <__heap_start+0x4668>
    3427: a6 1f        	ldx	$1f                     ; 0x1f <__rc15>
    3429: 8e 81 d5     	stx	$d581                   ; 0xd581 <__heap_start+0x4669>
    342c: b2 12        	lda	($12)                   ; 0x12 <__rc2>
    342e: 85 1a        	sta	$1a                     ; 0x1a <__rc10>
    3430: a0 01        	ldy	#$1
    3432: b1 12        	lda	($12),y                 ; 0x12 <__rc2>
    3434: 85 19        	sta	$19                     ; 0x19 <__rc9>
    3436: 84 1f        	sty	$1f                     ; 0x1f <__rc15>
    3438: c8           	iny
    3439: b1 12        	lda	($12),y                 ; 0x12 <__rc2>
    343b: 85 7b        	sta	$7b                     ; 0x7b <__zp_bss_size+0x4b>
    343d: 84 1e        	sty	$1e                     ; 0x1e <__rc14>
    343f: c8           	iny
    3440: b1 12        	lda	($12),y                 ; 0x12 <__rc2>
    3442: 85 15        	sta	$15                     ; 0x15 <__rc5>
    3444: c8           	iny
    3445: b1 12        	lda	($12),y                 ; 0x12 <__rc2>
    3447: 85 23        	sta	$23                     ; 0x23 <__rc19>
    3449: c8           	iny
    344a: b1 12        	lda	($12),y                 ; 0x12 <__rc2>
    344c: 85 1c        	sta	$1c                     ; 0x1c <__rc12>
    344e: c8           	iny
    344f: b1 12        	lda	($12),y                 ; 0x12 <__rc2>
    3451: 85 22        	sta	$22                     ; 0x22 <__rc18>
    3453: c8           	iny
    3454: b1 12        	lda	($12),y                 ; 0x12 <__rc2>
    3456: 85 1b        	sta	$1b                     ; 0x1b <__zp_data_size>
    3458: c8           	iny
    3459: b1 12        	lda	($12),y                 ; 0x12 <__rc2>
    345b: 85 18        	sta	$18                     ; 0x18 <__rc8>
    345d: c8           	iny
    345e: b1 12        	lda	($12),y                 ; 0x12 <__rc2>
    3460: 84 1d        	sty	$1d                     ; 0x1d <__rc13>
    3462: a2 e0        	ldx	#$e0
    3464: 8e 82 d5     	stx	$d582                   ; 0xd582 <__heap_start+0x466a>
    3467: 8d 81 d5     	sta	$d581                   ; 0xd581 <__heap_start+0x4669>
    346a: a2 e3        	ldx	#$e3
    346c: 8e 82 d5     	stx	$d582                   ; 0xd582 <__heap_start+0x466a>
    346f: a6 18        	ldx	$18                     ; 0x18 <__rc8>
    3471: 8e 81 d5     	stx	$d581                   ; 0xd581 <__heap_start+0x4669>
    3474: a2 20        	ldx	#$20
    3476: 8e 82 d5     	stx	$d582                   ; 0xd582 <__heap_start+0x466a>
    3479: a6 19        	ldx	$19                     ; 0x19 <__rc9>
    347b: 8e 81 d5     	stx	$d581                   ; 0xd581 <__heap_start+0x4669>
    347e: a2 23        	ldx	#$23
    3480: 8e 82 d5     	stx	$d582                   ; 0xd582 <__heap_start+0x466a>
    3483: a6 1a        	ldx	$1a                     ; 0x1a <__rc10>
    3485: 8e 81 d5     	stx	$d581                   ; 0xd581 <__heap_start+0x4669>
    3488: a2 40        	ldx	#$40
    348a: 8e 82 d5     	stx	$d582                   ; 0xd582 <__heap_start+0x466a>
    348d: a6 15        	ldx	$15                     ; 0x15 <__rc5>
    348f: 8e 81 d5     	stx	$d581                   ; 0xd581 <__heap_start+0x4669>
    3492: a2 43        	ldx	#$43
    3494: 8e 82 d5     	stx	$d582                   ; 0xd582 <__heap_start+0x466a>
    3497: a6 7b        	ldx	$7b                     ; 0x7b <__zp_bss_size+0x4b>
    3499: 8e 81 d5     	stx	$d581                   ; 0xd581 <__heap_start+0x4669>
    349c: a2 60        	ldx	#$60
    349e: 8e 82 d5     	stx	$d582                   ; 0xd582 <__heap_start+0x466a>
    34a1: a6 1c        	ldx	$1c                     ; 0x1c <__rc12>
    34a3: 8e 81 d5     	stx	$d581                   ; 0xd581 <__heap_start+0x4669>
    34a6: a2 63        	ldx	#$63
    34a8: 8e 82 d5     	stx	$d582                   ; 0xd582 <__heap_start+0x466a>
    34ab: a6 23        	ldx	$23                     ; 0x23 <__rc19>
    34ad: 8e 81 d5     	stx	$d581                   ; 0xd581 <__heap_start+0x4669>
    34b0: a2 80        	ldx	#$80
    34b2: 8e 82 d5     	stx	$d582                   ; 0xd582 <__heap_start+0x466a>
    34b5: a6 1b        	ldx	$1b                     ; 0x1b <__zp_data_size>
    34b7: 8e 81 d5     	stx	$d581                   ; 0xd581 <__heap_start+0x4669>
    34ba: a2 83        	ldx	#$83
    34bc: 8e 82 d5     	stx	$d582                   ; 0xd582 <__heap_start+0x466a>
    34bf: a6 22        	ldx	$22                     ; 0x22 <__rc18>
    34c1: 8e 81 d5     	stx	$d581                   ; 0xd581 <__heap_start+0x4669>
    34c4: a4 14        	ldy	$14                     ; 0x14 <__rc4>
    34c6: b1 12        	lda	($12),y                 ; 0x12 <__rc2>
    34c8: 85 1a        	sta	$1a                     ; 0x1a <__rc10>
    34ca: a0 2e        	ldy	#$2e
    34cc: b1 12        	lda	($12),y                 ; 0x12 <__rc2>
    34ce: 85 1b        	sta	$1b                     ; 0x1b <__zp_data_size>
    34d0: 84 15        	sty	$15                     ; 0x15 <__rc5>
    34d2: c8           	iny
    34d3: b1 12        	lda	($12),y                 ; 0x12 <__rc2>
    34d5: 85 19        	sta	$19                     ; 0x19 <__rc9>
    34d7: c8           	iny
    34d8: b1 12        	lda	($12),y                 ; 0x12 <__rc2>
    34da: 85 18        	sta	$18                     ; 0x18 <__rc8>
    34dc: a4 17        	ldy	$17                     ; 0x17 <__rc7>
    34de: b1 12        	lda	($12),y                 ; 0x12 <__rc2>
    34e0: 85 23        	sta	$23                     ; 0x23 <__rc19>
    34e2: a4 16        	ldy	$16                     ; 0x16 <__rc6>
    34e4: b1 12        	lda	($12),y                 ; 0x12 <__rc2>
    34e6: 85 17        	sta	$17                     ; 0x17 <__rc7>
    34e8: a0 33        	ldy	#$33
    34ea: b1 12        	lda	($12),y                 ; 0x12 <__rc2>
    34ec: 85 7b        	sta	$7b                     ; 0x7b <__zp_bss_size+0x4b>
    34ee: c8           	iny
    34ef: b1 12        	lda	($12),y                 ; 0x12 <__rc2>
    34f1: 85 14        	sta	$14                     ; 0x14 <__rc4>
    34f3: c8           	iny
    34f4: b1 12        	lda	($12),y                 ; 0x12 <__rc2>
    34f6: 85 1c        	sta	$1c                     ; 0x1c <__rc12>
    34f8: c8           	iny
    34f9: b1 12        	lda	($12),y                 ; 0x12 <__rc2>
    34fb: 84 16        	sty	$16                     ; 0x16 <__rc6>
    34fd: a2 e8        	ldx	#$e8
    34ff: 8e 82 d5     	stx	$d582                   ; 0xd582 <__heap_start+0x466a>
    3502: 8d 81 d5     	sta	$d581                   ; 0xd581 <__heap_start+0x4669>
    3505: a2 eb        	ldx	#$eb
    3507: 8e 82 d5     	stx	$d582                   ; 0xd582 <__heap_start+0x466a>
    350a: a6 1c        	ldx	$1c                     ; 0x1c <__rc12>
    350c: 8e 81 d5     	stx	$d581                   ; 0xd581 <__heap_start+0x4669>
    350f: a2 28        	ldx	#$28
    3511: 8e 82 d5     	stx	$d582                   ; 0xd582 <__heap_start+0x466a>
    3514: a6 1b        	ldx	$1b                     ; 0x1b <__zp_data_size>
    3516: 8e 81 d5     	stx	$d581                   ; 0xd581 <__heap_start+0x4669>
    3519: a2 2b        	ldx	#$2b
    351b: 8e 82 d5     	stx	$d582                   ; 0xd582 <__heap_start+0x466a>
    351e: a6 1a        	ldx	$1a                     ; 0x1a <__rc10>
    3520: 8e 81 d5     	stx	$d581                   ; 0xd581 <__heap_start+0x4669>
    3523: a2 48        	ldx	#$48
    3525: 8e 82 d5     	stx	$d582                   ; 0xd582 <__heap_start+0x466a>
    3528: a6 18        	ldx	$18                     ; 0x18 <__rc8>
    352a: 8e 81 d5     	stx	$d581                   ; 0xd581 <__heap_start+0x4669>
    352d: a2 4b        	ldx	#$4b
    352f: 8e 82 d5     	stx	$d582                   ; 0xd582 <__heap_start+0x466a>
    3532: a6 19        	ldx	$19                     ; 0x19 <__rc9>
    3534: 8e 81 d5     	stx	$d581                   ; 0xd581 <__heap_start+0x4669>
    3537: a2 68        	ldx	#$68
    3539: 8e 82 d5     	stx	$d582                   ; 0xd582 <__heap_start+0x466a>
    353c: a6 17        	ldx	$17                     ; 0x17 <__rc7>
    353e: 8e 81 d5     	stx	$d581                   ; 0xd581 <__heap_start+0x4669>
    3541: a2 6b        	ldx	#$6b
    3543: 8e 82 d5     	stx	$d582                   ; 0xd582 <__heap_start+0x466a>
    3546: a6 23        	ldx	$23                     ; 0x23 <__rc19>
    3548: 8e 81 d5     	stx	$d581                   ; 0xd581 <__heap_start+0x4669>
    354b: a2 88        	ldx	#$88
    354d: 8e 82 d5     	stx	$d582                   ; 0xd582 <__heap_start+0x466a>
    3550: a6 14        	ldx	$14                     ; 0x14 <__rc4>
    3552: 8e 81 d5     	stx	$d581                   ; 0xd581 <__heap_start+0x4669>
    3555: a2 8b        	ldx	#$8b
    3557: 8e 82 d5     	stx	$d582                   ; 0xd582 <__heap_start+0x466a>
    355a: a6 7b        	ldx	$7b                     ; 0x7b <__zp_bss_size+0x4b>
    355c: 8e 81 d5     	stx	$d581                   ; 0xd581 <__heap_start+0x4669>
    355f: b2 12        	lda	($12)                   ; 0x12 <__rc2>
    3561: 85 18        	sta	$18                     ; 0x18 <__rc8>
    3563: a4 1f        	ldy	$1f                     ; 0x1f <__rc15>
    3565: b1 12        	lda	($12),y                 ; 0x12 <__rc2>
    3567: 85 1c        	sta	$1c                     ; 0x1c <__rc12>
    3569: a4 1e        	ldy	$1e                     ; 0x1e <__rc14>
    356b: b1 12        	lda	($12),y                 ; 0x12 <__rc2>
    356d: 85 19        	sta	$19                     ; 0x19 <__rc9>
    356f: a0 03        	ldy	#$3
    3571: b1 12        	lda	($12),y                 ; 0x12 <__rc2>
    3573: 85 1b        	sta	$1b                     ; 0x1b <__zp_data_size>
    3575: c8           	iny
    3576: b1 12        	lda	($12),y                 ; 0x12 <__rc2>
    3578: 85 23        	sta	$23                     ; 0x23 <__rc19>
    357a: c8           	iny
    357b: b1 12        	lda	($12),y                 ; 0x12 <__rc2>
    357d: 85 17        	sta	$17                     ; 0x17 <__rc7>
    357f: c8           	iny
    3580: b1 12        	lda	($12),y                 ; 0x12 <__rc2>
    3582: 85 7b        	sta	$7b                     ; 0x7b <__zp_bss_size+0x4b>
    3584: c8           	iny
    3585: b1 12        	lda	($12),y                 ; 0x12 <__rc2>
    3587: 85 14        	sta	$14                     ; 0x14 <__rc4>
    3589: c8           	iny
    358a: b1 12        	lda	($12),y                 ; 0x12 <__rc2>
    358c: 85 22        	sta	$22                     ; 0x22 <__rc18>
    358e: a4 1d        	ldy	$1d                     ; 0x1d <__rc13>
    3590: b1 12        	lda	($12),y                 ; 0x12 <__rc2>
    3592: a6 1d        	ldx	$1d                     ; 0x1d <__rc13>
    3594: 86 1a        	stx	$1a                     ; 0x1a <__rc10>
    3596: a2 e1        	ldx	#$e1
    3598: 8e 82 d5     	stx	$d582                   ; 0xd582 <__heap_start+0x466a>
    359b: 8d 81 d5     	sta	$d581                   ; 0xd581 <__heap_start+0x4669>
    359e: a2 e4        	ldx	#$e4
    35a0: 8e 82 d5     	stx	$d582                   ; 0xd582 <__heap_start+0x466a>
    35a3: a6 22        	ldx	$22                     ; 0x22 <__rc18>
    35a5: 8e 81 d5     	stx	$d581                   ; 0xd581 <__heap_start+0x4669>
    35a8: a2 21        	ldx	#$21
    35aa: 8e 82 d5     	stx	$d582                   ; 0xd582 <__heap_start+0x466a>
    35ad: a6 1c        	ldx	$1c                     ; 0x1c <__rc12>
    35af: 8e 81 d5     	stx	$d581                   ; 0xd581 <__heap_start+0x4669>
    35b2: a2 24        	ldx	#$24
    35b4: 8e 82 d5     	stx	$d582                   ; 0xd582 <__heap_start+0x466a>
    35b7: a6 18        	ldx	$18                     ; 0x18 <__rc8>
    35b9: 8e 81 d5     	stx	$d581                   ; 0xd581 <__heap_start+0x4669>
    35bc: a2 41        	ldx	#$41
    35be: 8e 82 d5     	stx	$d582                   ; 0xd582 <__heap_start+0x466a>
    35c1: a6 1b        	ldx	$1b                     ; 0x1b <__zp_data_size>
    35c3: 8e 81 d5     	stx	$d581                   ; 0xd581 <__heap_start+0x4669>
    35c6: a2 44        	ldx	#$44
    35c8: 8e 82 d5     	stx	$d582                   ; 0xd582 <__heap_start+0x466a>
    35cb: a6 19        	ldx	$19                     ; 0x19 <__rc9>
    35cd: 8e 81 d5     	stx	$d581                   ; 0xd581 <__heap_start+0x4669>
    35d0: a2 61        	ldx	#$61
    35d2: 8e 82 d5     	stx	$d582                   ; 0xd582 <__heap_start+0x466a>
    35d5: a6 17        	ldx	$17                     ; 0x17 <__rc7>
    35d7: 8e 81 d5     	stx	$d581                   ; 0xd581 <__heap_start+0x4669>
    35da: a2 64        	ldx	#$64
    35dc: 8e 82 d5     	stx	$d582                   ; 0xd582 <__heap_start+0x466a>
    35df: a6 23        	ldx	$23                     ; 0x23 <__rc19>
    35e1: 8e 81 d5     	stx	$d581                   ; 0xd581 <__heap_start+0x4669>
    35e4: a2 81        	ldx	#$81
    35e6: 8e 82 d5     	stx	$d582                   ; 0xd582 <__heap_start+0x466a>
    35e9: a6 14        	ldx	$14                     ; 0x14 <__rc4>
    35eb: 8e 81 d5     	stx	$d581                   ; 0xd581 <__heap_start+0x4669>
    35ee: a2 84        	ldx	#$84
    35f0: 8e 82 d5     	stx	$d582                   ; 0xd582 <__heap_start+0x466a>
    35f3: a6 7b        	ldx	$7b                     ; 0x7b <__zp_bss_size+0x4b>
    35f5: 8e 81 d5     	stx	$d581                   ; 0xd581 <__heap_start+0x4669>
    35f8: a0 2d        	ldy	#$2d
    35fa: b1 12        	lda	($12),y                 ; 0x12 <__rc2>
    35fc: 85 18        	sta	$18                     ; 0x18 <__rc8>
    35fe: 84 1d        	sty	$1d                     ; 0x1d <__rc13>
    3600: a4 15        	ldy	$15                     ; 0x15 <__rc5>
    3602: b1 12        	lda	($12),y                 ; 0x12 <__rc2>
    3604: 85 1c        	sta	$1c                     ; 0x1c <__rc12>
    3606: a0 2f        	ldy	#$2f
    3608: b1 12        	lda	($12),y                 ; 0x12 <__rc2>
    360a: 85 19        	sta	$19                     ; 0x19 <__rc9>
    360c: c8           	iny
    360d: b1 12        	lda	($12),y                 ; 0x12 <__rc2>
    360f: 85 1b        	sta	$1b                     ; 0x1b <__zp_data_size>
    3611: c8           	iny
    3612: b1 12        	lda	($12),y                 ; 0x12 <__rc2>
    3614: 85 7b        	sta	$7b                     ; 0x7b <__zp_bss_size+0x4b>
    3616: c8           	iny
    3617: b1 12        	lda	($12),y                 ; 0x12 <__rc2>
    3619: 85 17        	sta	$17                     ; 0x17 <__rc7>
    361b: c8           	iny
    361c: b1 12        	lda	($12),y                 ; 0x12 <__rc2>
    361e: 85 23        	sta	$23                     ; 0x23 <__rc19>
    3620: c8           	iny
    3621: b1 12        	lda	($12),y                 ; 0x12 <__rc2>
    3623: 85 14        	sta	$14                     ; 0x14 <__rc4>
    3625: c8           	iny
    3626: b1 12        	lda	($12),y                 ; 0x12 <__rc2>
    3628: 85 22        	sta	$22                     ; 0x22 <__rc18>
    362a: a4 16        	ldy	$16                     ; 0x16 <__rc6>
    362c: b1 12        	lda	($12),y                 ; 0x12 <__rc2>
    362e: a2 e9        	ldx	#$e9
    3630: 8e 82 d5     	stx	$d582                   ; 0xd582 <__heap_start+0x466a>
    3633: 8d 81 d5     	sta	$d581                   ; 0xd581 <__heap_start+0x4669>
    3636: a2 ec        	ldx	#$ec
    3638: 8e 82 d5     	stx	$d582                   ; 0xd582 <__heap_start+0x466a>
    363b: a6 22        	ldx	$22                     ; 0x22 <__rc18>
    363d: 8e 81 d5     	stx	$d581                   ; 0xd581 <__heap_start+0x4669>
    3640: a2 29        	ldx	#$29
    3642: 8e 82 d5     	stx	$d582                   ; 0xd582 <__heap_start+0x466a>
    3645: a6 1c        	ldx	$1c                     ; 0x1c <__rc12>
    3647: 8e 81 d5     	stx	$d581                   ; 0xd581 <__heap_start+0x4669>
    364a: a2 2c        	ldx	#$2c
    364c: 8e 82 d5     	stx	$d582                   ; 0xd582 <__heap_start+0x466a>
    364f: a6 18        	ldx	$18                     ; 0x18 <__rc8>
    3651: 8e 81 d5     	stx	$d581                   ; 0xd581 <__heap_start+0x4669>
    3654: a2 49        	ldx	#$49
    3656: 8e 82 d5     	stx	$d582                   ; 0xd582 <__heap_start+0x466a>
    3659: a6 1b        	ldx	$1b                     ; 0x1b <__zp_data_size>
    365b: 8e 81 d5     	stx	$d581                   ; 0xd581 <__heap_start+0x4669>
    365e: a2 4c        	ldx	#$4c
    3660: 8e 82 d5     	stx	$d582                   ; 0xd582 <__heap_start+0x466a>
    3663: a6 19        	ldx	$19                     ; 0x19 <__rc9>
    3665: 8e 81 d5     	stx	$d581                   ; 0xd581 <__heap_start+0x4669>
    3668: a2 69        	ldx	#$69
    366a: 8e 82 d5     	stx	$d582                   ; 0xd582 <__heap_start+0x466a>
    366d: a6 17        	ldx	$17                     ; 0x17 <__rc7>
    366f: 8e 81 d5     	stx	$d581                   ; 0xd581 <__heap_start+0x4669>
    3672: a2 6c        	ldx	#$6c
    3674: 8e 82 d5     	stx	$d582                   ; 0xd582 <__heap_start+0x466a>
    3677: a6 7b        	ldx	$7b                     ; 0x7b <__zp_bss_size+0x4b>
    3679: 8e 81 d5     	stx	$d581                   ; 0xd581 <__heap_start+0x4669>
    367c: a2 89        	ldx	#$89
    367e: 8e 82 d5     	stx	$d582                   ; 0xd582 <__heap_start+0x466a>
    3681: a6 14        	ldx	$14                     ; 0x14 <__rc4>
    3683: 8e 81 d5     	stx	$d581                   ; 0xd581 <__heap_start+0x4669>
    3686: a2 8c        	ldx	#$8c
    3688: 8e 82 d5     	stx	$d582                   ; 0xd582 <__heap_start+0x466a>
    368b: a6 23        	ldx	$23                     ; 0x23 <__rc19>
    368d: 8e 81 d5     	stx	$d581                   ; 0xd581 <__heap_start+0x4669>
    3690: a4 1f        	ldy	$1f                     ; 0x1f <__rc15>
    3692: b1 12        	lda	($12),y                 ; 0x12 <__rc2>
    3694: 85 18        	sta	$18                     ; 0x18 <__rc8>
    3696: a4 1e        	ldy	$1e                     ; 0x1e <__rc14>
    3698: b1 12        	lda	($12),y                 ; 0x12 <__rc2>
    369a: 85 14        	sta	$14                     ; 0x14 <__rc4>
    369c: a0 03        	ldy	#$3
    369e: b1 12        	lda	($12),y                 ; 0x12 <__rc2>
    36a0: 85 17        	sta	$17                     ; 0x17 <__rc7>
    36a2: c8           	iny
    36a3: b1 12        	lda	($12),y                 ; 0x12 <__rc2>
    36a5: 85 1f        	sta	$1f                     ; 0x1f <__rc15>
    36a7: c8           	iny
    36a8: b1 12        	lda	($12),y                 ; 0x12 <__rc2>
    36aa: 85 19        	sta	$19                     ; 0x19 <__rc9>
    36ac: c8           	iny
    36ad: b1 12        	lda	($12),y                 ; 0x12 <__rc2>
    36af: 85 1e        	sta	$1e                     ; 0x1e <__rc14>
    36b1: c8           	iny
    36b2: b1 12        	lda	($12),y                 ; 0x12 <__rc2>
    36b4: 85 23        	sta	$23                     ; 0x23 <__rc19>
    36b6: c8           	iny
    36b7: b1 12        	lda	($12),y                 ; 0x12 <__rc2>
    36b9: 85 1b        	sta	$1b                     ; 0x1b <__zp_data_size>
    36bb: a4 1a        	ldy	$1a                     ; 0x1a <__rc10>
    36bd: b1 12        	lda	($12),y                 ; 0x12 <__rc2>
    36bf: 85 1c        	sta	$1c                     ; 0x1c <__rc12>
    36c1: b2 12        	lda	($12)                   ; 0x12 <__rc2>
    36c3: a2 e2        	ldx	#$e2
    36c5: 8e 82 d5     	stx	$d582                   ; 0xd582 <__heap_start+0x466a>
    36c8: a6 1c        	ldx	$1c                     ; 0x1c <__rc12>
    36ca: 8e 81 d5     	stx	$d581                   ; 0xd581 <__heap_start+0x4669>
    36cd: a2 e5        	ldx	#$e5
    36cf: 8e 82 d5     	stx	$d582                   ; 0xd582 <__heap_start+0x466a>
    36d2: a6 1b        	ldx	$1b                     ; 0x1b <__zp_data_size>
    36d4: 8e 81 d5     	stx	$d581                   ; 0xd581 <__heap_start+0x4669>
    36d7: a2 22        	ldx	#$22
    36d9: 8e 82 d5     	stx	$d582                   ; 0xd582 <__heap_start+0x466a>
    36dc: a6 18        	ldx	$18                     ; 0x18 <__rc8>
    36de: 8e 81 d5     	stx	$d581                   ; 0xd581 <__heap_start+0x4669>
    36e1: a2 25        	ldx	#$25
    36e3: 8e 82 d5     	stx	$d582                   ; 0xd582 <__heap_start+0x466a>
    36e6: 8d 81 d5     	sta	$d581                   ; 0xd581 <__heap_start+0x4669>
    36e9: a2 42        	ldx	#$42
    36eb: 8e 82 d5     	stx	$d582                   ; 0xd582 <__heap_start+0x466a>
    36ee: a6 17        	ldx	$17                     ; 0x17 <__rc7>
    36f0: 8e 81 d5     	stx	$d581                   ; 0xd581 <__heap_start+0x4669>
    36f3: a2 45        	ldx	#$45
    36f5: 8e 82 d5     	stx	$d582                   ; 0xd582 <__heap_start+0x466a>
    36f8: a6 14        	ldx	$14                     ; 0x14 <__rc4>
    36fa: 8e 81 d5     	stx	$d581                   ; 0xd581 <__heap_start+0x4669>
    36fd: a2 62        	ldx	#$62
    36ff: 8e 82 d5     	stx	$d582                   ; 0xd582 <__heap_start+0x466a>
    3702: a6 19        	ldx	$19                     ; 0x19 <__rc9>
    3704: 8e 81 d5     	stx	$d581                   ; 0xd581 <__heap_start+0x4669>
    3707: a2 65        	ldx	#$65
    3709: 8e 82 d5     	stx	$d582                   ; 0xd582 <__heap_start+0x466a>
    370c: a6 1f        	ldx	$1f                     ; 0x1f <__rc15>
    370e: 8e 81 d5     	stx	$d581                   ; 0xd581 <__heap_start+0x4669>
    3711: a2 82        	ldx	#$82
    3713: 8e 82 d5     	stx	$d582                   ; 0xd582 <__heap_start+0x466a>
    3716: a6 23        	ldx	$23                     ; 0x23 <__rc19>
    3718: 8e 81 d5     	stx	$d581                   ; 0xd581 <__heap_start+0x4669>
    371b: a2 85        	ldx	#$85
    371d: 8e 82 d5     	stx	$d582                   ; 0xd582 <__heap_start+0x466a>
    3720: a6 1e        	ldx	$1e                     ; 0x1e <__rc14>
    3722: 8e 81 d5     	stx	$d581                   ; 0xd581 <__heap_start+0x4669>
    3725: a4 15        	ldy	$15                     ; 0x15 <__rc5>
    3727: b1 12        	lda	($12),y                 ; 0x12 <__rc2>
    3729: 85 1b        	sta	$1b                     ; 0x1b <__zp_data_size>
    372b: a0 2f        	ldy	#$2f
    372d: b1 12        	lda	($12),y                 ; 0x12 <__rc2>
    372f: 85 1a        	sta	$1a                     ; 0x1a <__rc10>
    3731: c8           	iny
    3732: b1 12        	lda	($12),y                 ; 0x12 <__rc2>
    3734: 85 19        	sta	$19                     ; 0x19 <__rc9>
    3736: c8           	iny
    3737: b1 12        	lda	($12),y                 ; 0x12 <__rc2>
    3739: 85 15        	sta	$15                     ; 0x15 <__rc5>
    373b: c8           	iny
    373c: b1 12        	lda	($12),y                 ; 0x12 <__rc2>
    373e: 85 18        	sta	$18                     ; 0x18 <__rc8>
    3740: c8           	iny
    3741: b1 12        	lda	($12),y                 ; 0x12 <__rc2>
    3743: 85 14        	sta	$14                     ; 0x14 <__rc4>
    3745: c8           	iny
    3746: b1 12        	lda	($12),y                 ; 0x12 <__rc2>
    3748: 85 17        	sta	$17                     ; 0x17 <__rc7>
    374a: c8           	iny
    374b: b1 12        	lda	($12),y                 ; 0x12 <__rc2>
    374d: 85 1c        	sta	$1c                     ; 0x1c <__rc12>
    374f: a4 16        	ldy	$16                     ; 0x16 <__rc6>
    3751: b1 12        	lda	($12),y                 ; 0x12 <__rc2>
    3753: 85 16        	sta	$16                     ; 0x16 <__rc6>
    3755: a4 1d        	ldy	$1d                     ; 0x1d <__rc13>
    3757: b1 12        	lda	($12),y                 ; 0x12 <__rc2>
    3759: a2 ea        	ldx	#$ea
    375b: 8e 82 d5     	stx	$d582                   ; 0xd582 <__heap_start+0x466a>
    375e: a6 16        	ldx	$16                     ; 0x16 <__rc6>
    3760: 8e 81 d5     	stx	$d581                   ; 0xd581 <__heap_start+0x4669>
    3763: a2 ed        	ldx	#$ed
    3765: 8e 82 d5     	stx	$d582                   ; 0xd582 <__heap_start+0x466a>
    3768: a6 1c        	ldx	$1c                     ; 0x1c <__rc12>
    376a: 8e 81 d5     	stx	$d581                   ; 0xd581 <__heap_start+0x4669>
    376d: a2 2a        	ldx	#$2a
    376f: 8e 82 d5     	stx	$d582                   ; 0xd582 <__heap_start+0x466a>
    3772: a6 1b        	ldx	$1b                     ; 0x1b <__zp_data_size>
    3774: 8e 81 d5     	stx	$d581                   ; 0xd581 <__heap_start+0x4669>
    3777: 8c 82 d5     	sty	$d582                   ; 0xd582 <__heap_start+0x466a>
    377a: 8d 81 d5     	sta	$d581                   ; 0xd581 <__heap_start+0x4669>
    377d: a2 4a        	ldx	#$4a
    377f: 8e 82 d5     	stx	$d582                   ; 0xd582 <__heap_start+0x466a>
    3782: a6 19        	ldx	$19                     ; 0x19 <__rc9>
    3784: 8e 81 d5     	stx	$d581                   ; 0xd581 <__heap_start+0x4669>
    3787: a2 4d        	ldx	#$4d
    3789: 8e 82 d5     	stx	$d582                   ; 0xd582 <__heap_start+0x466a>
    378c: a6 1a        	ldx	$1a                     ; 0x1a <__rc10>
    378e: 8e 81 d5     	stx	$d581                   ; 0xd581 <__heap_start+0x4669>
    3791: a2 6a        	ldx	#$6a
    3793: 8e 82 d5     	stx	$d582                   ; 0xd582 <__heap_start+0x466a>
    3796: a6 18        	ldx	$18                     ; 0x18 <__rc8>
    3798: 8e 81 d5     	stx	$d581                   ; 0xd581 <__heap_start+0x4669>
    379b: a2 6d        	ldx	#$6d
    379d: 8e 82 d5     	stx	$d582                   ; 0xd582 <__heap_start+0x466a>
    37a0: a6 15        	ldx	$15                     ; 0x15 <__rc5>
    37a2: 8e 81 d5     	stx	$d581                   ; 0xd581 <__heap_start+0x4669>
    37a5: a2 8a        	ldx	#$8a
    37a7: 8e 82 d5     	stx	$d582                   ; 0xd582 <__heap_start+0x466a>
    37aa: a6 17        	ldx	$17                     ; 0x17 <__rc7>
    37ac: 8e 81 d5     	stx	$d581                   ; 0xd581 <__heap_start+0x4669>
    37af: a2 8d        	ldx	#$8d
    37b1: 8e 82 d5     	stx	$d582                   ; 0xd582 <__heap_start+0x466a>
    37b4: a6 14        	ldx	$14                     ; 0x14 <__rc4>
    37b6: 8e 81 d5     	stx	$d581                   ; 0xd581 <__heap_start+0x4669>
    37b9: 60           	rts

000037ba <opl3_shadow>:
    37ba: 48           	pha
    37bb: 18           	clc
    37bc: a5 10        	lda	$10                     ; 0x10 <__rc0>
    37be: 69 fe        	adc	#$fe
    37c0: 85 10        	sta	$10                     ; 0x10 <__rc0>
    37c2: a5 11        	lda	$11                     ; 0x11 <__rc1>
    37c4: 69 ff        	adc	#$ff
    37c6: 85 11        	sta	$11                     ; 0x11 <__rc1>
    37c8: 68           	pla
    37c9: 86 16        	stx	$16                     ; 0x16 <__rc6>
    37cb: a4 12        	ldy	$12                     ; 0x12 <__rc2>
    37cd: 64 7b        	stz	$7b                     ; 0x7b <__zp_bss_size+0x4b>
    37cf: 64 12        	stz	$12                     ; 0x12 <__rc2>
    37d1: f0 04        	beq	$37d7 <opl3_shadow+0x1d>
    37d3: a2 09        	ldx	#$9
    37d5: 86 12        	stx	$12                     ; 0x12 <__rc2>
    37d7: a2 f0        	ldx	#$f0
    37d9: 86 34        	stx	$34                     ; 0x34 <_ccolor>
    37db: 18           	clc
    37dc: 85 17        	sta	$17                     ; 0x17 <__rc7>
    37de: 69 80        	adc	#$80
    37e0: c9 f6        	cmp	#$f6
    37e2: 90 03        	bcc	$37e7 <opl3_shadow+0x2d>
    37e4: 4c fd 3c     	jmp	$3cfd <opl3_shadow+0x543>
    37e7: aa           	tax
    37e8: bd 5c 85     	lda	$855c,x                 ; 0x855c <__BLOCK_SIZE+0x655c>
    37eb: 48           	pha
    37ec: bd 52 86     	lda	$8652,x                 ; 0x8652 <__BLOCK_SIZE+0x6652>
    37ef: aa           	tax
    37f0: 68           	pla
    37f1: 85 14        	sta	$14                     ; 0x14 <__rc4>
    37f3: 86 15        	stx	$15                     ; 0x15 <__rc5>
    37f5: 6c 14 00     	jmp	($14)                   ; 0x14 <__rc4>
    37f8: a5 17        	lda	$17                     ; 0x17 <__rc7>
    37fa: a4 17        	ldy	$17                     ; 0x17 <__rc7>
    37fc: 49 80        	eor	#$80
    37fe: c9 10        	cmp	#$10
    3800: b0 03        	bcs	$3805 <opl3_shadow+0x4b>
    3802: 4c 3f 3c     	jmp	$3c3f <opl3_shadow+0x485>
    3805: 18           	clc
    3806: 98           	tya
    3807: 69 76        	adc	#$76
    3809: 4c 48 3c     	jmp	$3c48 <opl3_shadow+0x48e>
    380c: a5 17        	lda	$17                     ; 0x17 <__rc7>
    380e: a4 17        	ldy	$17                     ; 0x17 <__rc7>
    3810: 18           	clc
    3811: 69 9d        	adc	#$9d
    3813: c9 10        	cmp	#$10
    3815: b0 03        	bcs	$381a <opl3_shadow+0x60>
    3817: 4c ac 39     	jmp	$39ac <opl3_shadow+0x1f2>
    381a: 98           	tya
    381b: 18           	clc
    381c: 69 93        	adc	#$93
    381e: 4c b5 39     	jmp	$39b5 <opl3_shadow+0x1fb>
    3821: a5 17        	lda	$17                     ; 0x17 <__rc7>
    3823: a4 17        	ldy	$17                     ; 0x17 <__rc7>
    3825: 18           	clc
    3826: 69 a0        	adc	#$a0
    3828: c9 10        	cmp	#$10
    382a: b0 03        	bcs	$382f <opl3_shadow+0x75>
    382c: 4c fc 39     	jmp	$39fc <opl3_shadow+0x242>
    382f: 98           	tya
    3830: 18           	clc
    3831: 69 96        	adc	#$96
    3833: 4c 05 3a     	jmp	$3a05 <opl3_shadow+0x24b>
    3836: a5 17        	lda	$17                     ; 0x17 <__rc7>
    3838: a4 17        	ldy	$17                     ; 0x17 <__rc7>
    383a: 18           	clc
    383b: 69 20        	adc	#$20
    383d: c9 10        	cmp	#$10
    383f: b0 03        	bcs	$3844 <opl3_shadow+0x8a>
    3841: 4c 4c 3a     	jmp	$3a4c <opl3_shadow+0x292>
    3844: 98           	tya
    3845: 18           	clc
    3846: 69 16        	adc	#$16
    3848: 4c 55 3a     	jmp	$3a55 <opl3_shadow+0x29b>
    384b: a5 17        	lda	$17                     ; 0x17 <__rc7>
    384d: a4 17        	ldy	$17                     ; 0x17 <__rc7>
    384f: 18           	clc
    3850: 69 e0        	adc	#$e0
    3852: c9 10        	cmp	#$10
    3854: b0 03        	bcs	$3859 <opl3_shadow+0x9f>
    3856: 4c 9c 3a     	jmp	$3a9c <opl3_shadow+0x2e2>
    3859: 98           	tya
    385a: 18           	clc
    385b: 69 d6        	adc	#$d6
    385d: 4c a5 3a     	jmp	$3aa5 <opl3_shadow+0x2eb>
    3860: a5 17        	lda	$17                     ; 0x17 <__rc7>
    3862: 18           	clc
    3863: 65 12        	adc	$12                     ; 0x12 <__rc2>
    3865: 18           	clc
    3866: 69 60        	adc	#$60
    3868: 85 12        	sta	$12                     ; 0x12 <__rc2>
    386a: 64 13        	stz	$13                     ; 0x13 <__rc3>
    386c: 0a           	asl
    386d: 26 13        	rol	$13                     ; 0x13 <__rc3>
    386f: 0a           	asl
    3870: 26 13        	rol	$13                     ; 0x13 <__rc3>
    3872: 0a           	asl
    3873: 26 13        	rol	$13                     ; 0x13 <__rc3>
    3875: 0a           	asl
    3876: 26 13        	rol	$13                     ; 0x13 <__rc3>
    3878: 38           	sec
    3879: e5 12        	sbc	$12                     ; 0x12 <__rc2>
    387b: 85 12        	sta	$12                     ; 0x12 <__rc2>
    387d: a5 13        	lda	$13                     ; 0x13 <__rc3>
    387f: e9 00        	sbc	#$0
    3881: 85 13        	sta	$13                     ; 0x13 <__rc3>
    3883: a9 8b        	lda	#$8b
    3885: 18           	clc
    3886: 65 12        	adc	$12                     ; 0x12 <__rc2>
    3888: 85 12        	sta	$12                     ; 0x12 <__rc2>
    388a: a9 8d        	lda	#$8d
    388c: 65 13        	adc	$13                     ; 0x13 <__rc3>
    388e: 85 13        	sta	$13                     ; 0x13 <__rc3>
    3890: a0 0b        	ldy	#$b
    3892: a5 16        	lda	$16                     ; 0x16 <__rc6>
    3894: 91 12        	sta	($12),y                 ; 0x12 <__rc2>
    3896: 4c fd 3c     	jmp	$3cfd <opl3_shadow+0x543>
    3899: a5 17        	lda	$17                     ; 0x17 <__rc7>
    389b: a4 17        	ldy	$17                     ; 0x17 <__rc7>
    389d: 18           	clc
    389e: 69 7d        	adc	#$7d
    38a0: c9 10        	cmp	#$10
    38a2: b0 03        	bcs	$38a7 <opl3_shadow+0xed>
    38a4: 4c 01 3b     	jmp	$3b01 <opl3_shadow+0x347>
    38a7: 98           	tya
    38a8: 18           	clc
    38a9: 69 73        	adc	#$73
    38ab: 4c 0a 3b     	jmp	$3b0a <opl3_shadow+0x350>
    38ae: a5 17        	lda	$17                     ; 0x17 <__rc7>
    38b0: a4 17        	ldy	$17                     ; 0x17 <__rc7>
    38b2: 18           	clc
    38b3: 69 c0        	adc	#$c0
    38b5: c9 10        	cmp	#$10
    38b7: b0 03        	bcs	$38bc <opl3_shadow+0x102>
    38b9: 4c 51 3b     	jmp	$3b51 <opl3_shadow+0x397>
    38bc: 98           	tya
    38bd: 18           	clc
    38be: 69 b6        	adc	#$b6
    38c0: 4c 5a 3b     	jmp	$3b5a <opl3_shadow+0x3a0>
    38c3: a5 17        	lda	$17                     ; 0x17 <__rc7>
    38c5: a4 17        	ldy	$17                     ; 0x17 <__rc7>
    38c7: 18           	clc
    38c8: 69 1d        	adc	#$1d
    38ca: c9 10        	cmp	#$10
    38cc: b0 03        	bcs	$38d1 <opl3_shadow+0x117>
    38ce: 4c a1 3b     	jmp	$3ba1 <opl3_shadow+0x3e7>
    38d1: 98           	tya
    38d2: 18           	clc
    38d3: 69 13        	adc	#$13
    38d5: 4c aa 3b     	jmp	$3baa <opl3_shadow+0x3f0>
    38d8: a5 17        	lda	$17                     ; 0x17 <__rc7>
    38da: a4 17        	ldy	$17                     ; 0x17 <__rc7>
    38dc: 18           	clc
    38dd: 69 dd        	adc	#$dd
    38df: c9 10        	cmp	#$10
    38e1: b0 03        	bcs	$38e6 <opl3_shadow+0x12c>
    38e3: 4c f1 3b     	jmp	$3bf1 <opl3_shadow+0x437>
    38e6: 98           	tya
    38e7: 18           	clc
    38e8: 69 d3        	adc	#$d3
    38ea: 4c fa 3b     	jmp	$3bfa <opl3_shadow+0x440>
    38ed: a5 17        	lda	$17                     ; 0x17 <__rc7>
    38ef: 18           	clc
    38f0: 65 12        	adc	$12                     ; 0x12 <__rc2>
    38f2: 85 17        	sta	$17                     ; 0x17 <__rc7>
    38f4: 18           	clc
    38f5: 69 50        	adc	#$50
    38f7: 85 12        	sta	$12                     ; 0x12 <__rc2>
    38f9: 0a           	asl
    38fa: 64 14        	stz	$14                     ; 0x14 <__rc4>
    38fc: 26 14        	rol	$14                     ; 0x14 <__rc4>
    38fe: 0a           	asl
    38ff: 26 14        	rol	$14                     ; 0x14 <__rc4>
    3901: 0a           	asl
    3902: 26 14        	rol	$14                     ; 0x14 <__rc4>
    3904: 0a           	asl
    3905: 26 14        	rol	$14                     ; 0x14 <__rc4>
    3907: 38           	sec
    3908: e5 12        	sbc	$12                     ; 0x12 <__rc2>
    390a: 85 12        	sta	$12                     ; 0x12 <__rc2>
    390c: a5 14        	lda	$14                     ; 0x14 <__rc4>
    390e: e9 00        	sbc	#$0
    3910: 85 14        	sta	$14                     ; 0x14 <__rc4>
    3912: a9 8b        	lda	#$8b
    3914: 18           	clc
    3915: 65 12        	adc	$12                     ; 0x12 <__rc2>
    3917: aa           	tax
    3918: a9 8d        	lda	#$8d
    391a: 65 14        	adc	$14                     ; 0x14 <__rc4>
    391c: 86 14        	stx	$14                     ; 0x14 <__rc4>
    391e: 85 15        	sta	$15                     ; 0x15 <__rc5>
    3920: a0 0d        	ldy	#$d
    3922: a9 20        	lda	#$20
    3924: 31 14        	and	($14),y                 ; 0x14 <__rc4>
    3926: 85 12        	sta	$12                     ; 0x12 <__rc2>
    3928: a5 16        	lda	$16                     ; 0x16 <__rc6>
    392a: 29 20        	and	#$20
    392c: c5 12        	cmp	$12                     ; 0x12 <__rc2>
    392e: f0 04        	beq	$3934 <opl3_shadow+0x17a>
    3930: a2 01        	ldx	#$1
    3932: 86 7b        	stx	$7b                     ; 0x7b <__zp_bss_size+0x4b>
    3934: 91 14        	sta	($14),y                 ; 0x14 <__rc4>
    3936: a0 0c        	ldy	#$c
    3938: a5 16        	lda	$16                     ; 0x16 <__rc6>
    393a: 91 14        	sta	($14),y                 ; 0x14 <__rc4>
    393c: a6 13        	ldx	$13                     ; 0x13 <__rc3>
    393e: d0 03        	bne	$3943 <opl3_shadow+0x189>
    3940: 4c fd 3c     	jmp	$3cfd <opl3_shadow+0x543>
    3943: 18           	clc
    3944: a8           	tay
    3945: a5 17        	lda	$17                     ; 0x17 <__rc7>
    3947: 69 55        	adc	#$55
    3949: a2 30        	ldx	#$30
    394b: 4c d9 3c     	jmp	$3cd9 <opl3_shadow+0x51f>
    394e: 18           	clc
    394f: a5 17        	lda	$17                     ; 0x17 <__rc7>
    3951: 65 12        	adc	$12                     ; 0x12 <__rc2>
    3953: aa           	tax
    3954: 18           	clc
    3955: 69 40        	adc	#$40
    3957: 85 12        	sta	$12                     ; 0x12 <__rc2>
    3959: 0a           	asl
    395a: 64 14        	stz	$14                     ; 0x14 <__rc4>
    395c: 26 14        	rol	$14                     ; 0x14 <__rc4>
    395e: 0a           	asl
    395f: 26 14        	rol	$14                     ; 0x14 <__rc4>
    3961: 0a           	asl
    3962: 26 14        	rol	$14                     ; 0x14 <__rc4>
    3964: 0a           	asl
    3965: 26 14        	rol	$14                     ; 0x14 <__rc4>
    3967: 38           	sec
    3968: e5 12        	sbc	$12                     ; 0x12 <__rc2>
    396a: 85 12        	sta	$12                     ; 0x12 <__rc2>
    396c: a5 14        	lda	$14                     ; 0x14 <__rc4>
    396e: e9 00        	sbc	#$0
    3970: 85 14        	sta	$14                     ; 0x14 <__rc4>
    3972: a9 8b        	lda	#$8b
    3974: 18           	clc
    3975: 65 12        	adc	$12                     ; 0x12 <__rc2>
    3977: a8           	tay
    3978: a9 8d        	lda	#$8d
    397a: 65 14        	adc	$14                     ; 0x14 <__rc4>
    397c: 84 14        	sty	$14                     ; 0x14 <__rc4>
    397e: 85 15        	sta	$15                     ; 0x15 <__rc5>
    3980: a0 0a        	ldy	#$a
    3982: a5 16        	lda	$16                     ; 0x16 <__rc6>
    3984: 91 14        	sta	($14),y                 ; 0x14 <__rc4>
    3986: a4 13        	ldy	$13                     ; 0x13 <__rc3>
    3988: d0 03        	bne	$398d <opl3_shadow+0x1d3>
    398a: 4c fd 3c     	jmp	$3cfd <opl3_shadow+0x543>
    398d: a8           	tay
    398e: 8a           	txa
    398f: 18           	clc
    3990: 69 45        	adc	#$45
    3992: a2 2c        	ldx	#$2c
    3994: 4c d9 3c     	jmp	$3cd9 <opl3_shadow+0x51f>
    3997: a5 17        	lda	$17                     ; 0x17 <__rc7>
    3999: a4 17        	ldy	$17                     ; 0x17 <__rc7>
    399b: 18           	clc
    399c: 69 bd        	adc	#$bd
    399e: c9 10        	cmp	#$10
    39a0: b0 03        	bcs	$39a5 <opl3_shadow+0x1eb>
    39a2: 4c 8f 3c     	jmp	$3c8f <opl3_shadow+0x4d5>
    39a5: 98           	tya
    39a6: 18           	clc
    39a7: 69 b3        	adc	#$b3
    39a9: 4c 98 3c     	jmp	$3c98 <opl3_shadow+0x4de>
    39ac: aa           	tax
    39ad: e0 08        	cpx	#$8
    39af: 90 04        	bcc	$39b5 <opl3_shadow+0x1fb>
    39b1: 18           	clc
    39b2: 98           	tya
    39b3: 69 98        	adc	#$98
    39b5: 18           	clc
    39b6: 65 12        	adc	$12                     ; 0x12 <__rc2>
    39b8: aa           	tax
    39b9: 0a           	asl
    39ba: 64 14        	stz	$14                     ; 0x14 <__rc4>
    39bc: 26 14        	rol	$14                     ; 0x14 <__rc4>
    39be: 0a           	asl
    39bf: 26 14        	rol	$14                     ; 0x14 <__rc4>
    39c1: 0a           	asl
    39c2: 26 14        	rol	$14                     ; 0x14 <__rc4>
    39c4: 0a           	asl
    39c5: 26 14        	rol	$14                     ; 0x14 <__rc4>
    39c7: 38           	sec
    39c8: 86 17        	stx	$17                     ; 0x17 <__rc7>
    39ca: 86 12        	stx	$12                     ; 0x12 <__rc2>
    39cc: e5 12        	sbc	$12                     ; 0x12 <__rc2>
    39ce: 85 12        	sta	$12                     ; 0x12 <__rc2>
    39d0: a5 14        	lda	$14                     ; 0x14 <__rc4>
    39d2: e9 00        	sbc	#$0
    39d4: 85 14        	sta	$14                     ; 0x14 <__rc4>
    39d6: a9 8b        	lda	#$8b
    39d8: 18           	clc
    39d9: 65 12        	adc	$12                     ; 0x12 <__rc2>
    39db: aa           	tax
    39dc: a9 8d        	lda	#$8d
    39de: 65 14        	adc	$14                     ; 0x14 <__rc4>
    39e0: 86 14        	stx	$14                     ; 0x14 <__rc4>
    39e2: 85 15        	sta	$15                     ; 0x15 <__rc5>
    39e4: a0 04        	ldy	#$4
    39e6: a5 16        	lda	$16                     ; 0x16 <__rc6>
    39e8: 91 14        	sta	($14),y                 ; 0x14 <__rc4>
    39ea: a6 13        	ldx	$13                     ; 0x13 <__rc3>
    39ec: d0 03        	bne	$39f1 <opl3_shadow+0x237>
    39ee: 4c fd 3c     	jmp	$3cfd <opl3_shadow+0x543>
    39f1: a8           	tay
    39f2: a5 17        	lda	$17                     ; 0x17 <__rc7>
    39f4: 18           	clc
    39f5: 69 05        	adc	#$5
    39f7: a2 18        	ldx	#$18
    39f9: 4c d9 3c     	jmp	$3cd9 <opl3_shadow+0x51f>
    39fc: aa           	tax
    39fd: e0 08        	cpx	#$8
    39ff: 90 04        	bcc	$3a05 <opl3_shadow+0x24b>
    3a01: 18           	clc
    3a02: 98           	tya
    3a03: 69 9b        	adc	#$9b
    3a05: 18           	clc
    3a06: 65 12        	adc	$12                     ; 0x12 <__rc2>
    3a08: aa           	tax
    3a09: 0a           	asl
    3a0a: 64 14        	stz	$14                     ; 0x14 <__rc4>
    3a0c: 26 14        	rol	$14                     ; 0x14 <__rc4>
    3a0e: 0a           	asl
    3a0f: 26 14        	rol	$14                     ; 0x14 <__rc4>
    3a11: 0a           	asl
    3a12: 26 14        	rol	$14                     ; 0x14 <__rc4>
    3a14: 0a           	asl
    3a15: 26 14        	rol	$14                     ; 0x14 <__rc4>
    3a17: 38           	sec
    3a18: 86 17        	stx	$17                     ; 0x17 <__rc7>
    3a1a: 86 12        	stx	$12                     ; 0x12 <__rc2>
    3a1c: e5 12        	sbc	$12                     ; 0x12 <__rc2>
    3a1e: 85 12        	sta	$12                     ; 0x12 <__rc2>
    3a20: a5 14        	lda	$14                     ; 0x14 <__rc4>
    3a22: e9 00        	sbc	#$0
    3a24: 85 14        	sta	$14                     ; 0x14 <__rc4>
    3a26: a9 8b        	lda	#$8b
    3a28: 18           	clc
    3a29: 65 12        	adc	$12                     ; 0x12 <__rc2>
    3a2b: aa           	tax
    3a2c: a9 8d        	lda	#$8d
    3a2e: 65 14        	adc	$14                     ; 0x14 <__rc4>
    3a30: 86 14        	stx	$14                     ; 0x14 <__rc4>
    3a32: 85 15        	sta	$15                     ; 0x15 <__rc5>
    3a34: a0 05        	ldy	#$5
    3a36: a5 16        	lda	$16                     ; 0x16 <__rc6>
    3a38: 91 14        	sta	($14),y                 ; 0x14 <__rc4>
    3a3a: a6 13        	ldx	$13                     ; 0x13 <__rc3>
    3a3c: d0 03        	bne	$3a41 <opl3_shadow+0x287>
    3a3e: 4c fd 3c     	jmp	$3cfd <opl3_shadow+0x543>
    3a41: a8           	tay
    3a42: a5 17        	lda	$17                     ; 0x17 <__rc7>
    3a44: 18           	clc
    3a45: 69 05        	adc	#$5
    3a47: a2 14        	ldx	#$14
    3a49: 4c d9 3c     	jmp	$3cd9 <opl3_shadow+0x51f>
    3a4c: aa           	tax
    3a4d: e0 08        	cpx	#$8
    3a4f: 90 04        	bcc	$3a55 <opl3_shadow+0x29b>
    3a51: 18           	clc
    3a52: 98           	tya
    3a53: 69 1b        	adc	#$1b
    3a55: 18           	clc
    3a56: 65 12        	adc	$12                     ; 0x12 <__rc2>
    3a58: aa           	tax
    3a59: 0a           	asl
    3a5a: 64 14        	stz	$14                     ; 0x14 <__rc4>
    3a5c: 26 14        	rol	$14                     ; 0x14 <__rc4>
    3a5e: 0a           	asl
    3a5f: 26 14        	rol	$14                     ; 0x14 <__rc4>
    3a61: 0a           	asl
    3a62: 26 14        	rol	$14                     ; 0x14 <__rc4>
    3a64: 0a           	asl
    3a65: 26 14        	rol	$14                     ; 0x14 <__rc4>
    3a67: 38           	sec
    3a68: 86 17        	stx	$17                     ; 0x17 <__rc7>
    3a6a: 86 12        	stx	$12                     ; 0x12 <__rc2>
    3a6c: e5 12        	sbc	$12                     ; 0x12 <__rc2>
    3a6e: 85 12        	sta	$12                     ; 0x12 <__rc2>
    3a70: a5 14        	lda	$14                     ; 0x14 <__rc4>
    3a72: e9 00        	sbc	#$0
    3a74: 85 14        	sta	$14                     ; 0x14 <__rc4>
    3a76: a9 8b        	lda	#$8b
    3a78: 18           	clc
    3a79: 65 12        	adc	$12                     ; 0x12 <__rc2>
    3a7b: aa           	tax
    3a7c: a9 8d        	lda	#$8d
    3a7e: 65 14        	adc	$14                     ; 0x14 <__rc4>
    3a80: 86 14        	stx	$14                     ; 0x14 <__rc4>
    3a82: 85 15        	sta	$15                     ; 0x15 <__rc5>
    3a84: a0 09        	ldy	#$9
    3a86: a5 16        	lda	$16                     ; 0x16 <__rc6>
    3a88: 91 14        	sta	($14),y                 ; 0x14 <__rc4>
    3a8a: a6 13        	ldx	$13                     ; 0x13 <__rc3>
    3a8c: d0 03        	bne	$3a91 <opl3_shadow+0x2d7>
    3a8e: 4c fd 3c     	jmp	$3cfd <opl3_shadow+0x543>
    3a91: a8           	tay
    3a92: a5 17        	lda	$17                     ; 0x17 <__rc7>
    3a94: 18           	clc
    3a95: 69 05        	adc	#$5
    3a97: a2 24        	ldx	#$24
    3a99: 4c d9 3c     	jmp	$3cd9 <opl3_shadow+0x51f>
    3a9c: aa           	tax
    3a9d: e0 08        	cpx	#$8
    3a9f: 90 04        	bcc	$3aa5 <opl3_shadow+0x2eb>
    3aa1: 18           	clc
    3aa2: 98           	tya
    3aa3: 69 db        	adc	#$db
    3aa5: 18           	clc
    3aa6: 65 12        	adc	$12                     ; 0x12 <__rc2>
    3aa8: aa           	tax
    3aa9: 0a           	asl
    3aaa: 64 14        	stz	$14                     ; 0x14 <__rc4>
    3aac: 26 14        	rol	$14                     ; 0x14 <__rc4>
    3aae: 0a           	asl
    3aaf: 26 14        	rol	$14                     ; 0x14 <__rc4>
    3ab1: 0a           	asl
    3ab2: 26 14        	rol	$14                     ; 0x14 <__rc4>
    3ab4: 0a           	asl
    3ab5: 26 14        	rol	$14                     ; 0x14 <__rc4>
    3ab7: 38           	sec
    3ab8: 86 17        	stx	$17                     ; 0x17 <__rc7>
    3aba: 86 12        	stx	$12                     ; 0x12 <__rc2>
    3abc: e5 12        	sbc	$12                     ; 0x12 <__rc2>
    3abe: 85 12        	sta	$12                     ; 0x12 <__rc2>
    3ac0: a5 14        	lda	$14                     ; 0x14 <__rc4>
    3ac2: e9 00        	sbc	#$0
    3ac4: 85 14        	sta	$14                     ; 0x14 <__rc4>
    3ac6: a9 8b        	lda	#$8b
    3ac8: 18           	clc
    3ac9: 65 12        	adc	$12                     ; 0x12 <__rc2>
    3acb: aa           	tax
    3acc: a9 8d        	lda	#$8d
    3ace: 65 14        	adc	$14                     ; 0x14 <__rc4>
    3ad0: 86 14        	stx	$14                     ; 0x14 <__rc4>
    3ad2: a0 01        	ldy	#$1
    3ad4: 85 15        	sta	$15                     ; 0x15 <__rc5>
    3ad6: a5 16        	lda	$16                     ; 0x16 <__rc6>
    3ad8: 91 14        	sta	($14),y                 ; 0x14 <__rc4>
    3ada: a6 13        	ldx	$13                     ; 0x13 <__rc3>
    3adc: d0 03        	bne	$3ae1 <opl3_shadow+0x327>
    3ade: 4c fd 3c     	jmp	$3cfd <opl3_shadow+0x543>
    3ae1: 85 12        	sta	$12                     ; 0x12 <__rc2>
    3ae3: a5 17        	lda	$17                     ; 0x17 <__rc7>
    3ae5: 18           	clc
    3ae6: 69 05        	adc	#$5
    3ae8: a2 04        	ldx	#$4
    3aea: 86 6a        	stx	$6a                     ; 0x6a <_col>
    3aec: 8e 14 d0     	stx	$d014                   ; 0xd014 <__heap_start+0x40fc>
    3aef: 9c 15 d0     	stz	$d015                   ; 0xd015 <__heap_start+0x40fd>
    3af2: 85 6b        	sta	$6b                     ; 0x6b <_row>
    3af4: 8d 16 d0     	sta	$d016                   ; 0xd016 <__heap_start+0x40fe>
    3af7: 9c 17 d0     	stz	$d017                   ; 0xd017 <__heap_start+0x40ff>
    3afa: a5 12        	lda	$12                     ; 0x12 <__rc2>
    3afc: 92 10        	sta	($10)                   ; 0x10 <__rc0>
    3afe: 4c ee 3c     	jmp	$3cee <opl3_shadow+0x534>
    3b01: aa           	tax
    3b02: e0 08        	cpx	#$8
    3b04: 90 04        	bcc	$3b0a <opl3_shadow+0x350>
    3b06: 18           	clc
    3b07: 98           	tya
    3b08: 69 78        	adc	#$78
    3b0a: 18           	clc
    3b0b: 65 12        	adc	$12                     ; 0x12 <__rc2>
    3b0d: aa           	tax
    3b0e: 0a           	asl
    3b0f: 64 14        	stz	$14                     ; 0x14 <__rc4>
    3b11: 26 14        	rol	$14                     ; 0x14 <__rc4>
    3b13: 0a           	asl
    3b14: 26 14        	rol	$14                     ; 0x14 <__rc4>
    3b16: 0a           	asl
    3b17: 26 14        	rol	$14                     ; 0x14 <__rc4>
    3b19: 0a           	asl
    3b1a: 26 14        	rol	$14                     ; 0x14 <__rc4>
    3b1c: 38           	sec
    3b1d: 86 17        	stx	$17                     ; 0x17 <__rc7>
    3b1f: 86 12        	stx	$12                     ; 0x12 <__rc2>
    3b21: e5 12        	sbc	$12                     ; 0x12 <__rc2>
    3b23: 85 12        	sta	$12                     ; 0x12 <__rc2>
    3b25: a5 14        	lda	$14                     ; 0x14 <__rc4>
    3b27: e9 00        	sbc	#$0
    3b29: 85 14        	sta	$14                     ; 0x14 <__rc4>
    3b2b: a9 8b        	lda	#$8b
    3b2d: 18           	clc
    3b2e: 65 12        	adc	$12                     ; 0x12 <__rc2>
    3b30: aa           	tax
    3b31: a9 8d        	lda	#$8d
    3b33: 65 14        	adc	$14                     ; 0x14 <__rc4>
    3b35: 86 14        	stx	$14                     ; 0x14 <__rc4>
    3b37: 85 15        	sta	$15                     ; 0x15 <__rc5>
    3b39: a0 06        	ldy	#$6
    3b3b: a5 16        	lda	$16                     ; 0x16 <__rc6>
    3b3d: 91 14        	sta	($14),y                 ; 0x14 <__rc4>
    3b3f: a6 13        	ldx	$13                     ; 0x13 <__rc3>
    3b41: d0 03        	bne	$3b46 <opl3_shadow+0x38c>
    3b43: 4c fd 3c     	jmp	$3cfd <opl3_shadow+0x543>
    3b46: a8           	tay
    3b47: a5 17        	lda	$17                     ; 0x17 <__rc7>
    3b49: 18           	clc
    3b4a: 69 05        	adc	#$5
    3b4c: a2 20        	ldx	#$20
    3b4e: 4c d9 3c     	jmp	$3cd9 <opl3_shadow+0x51f>
    3b51: aa           	tax
    3b52: e0 08        	cpx	#$8
    3b54: 90 04        	bcc	$3b5a <opl3_shadow+0x3a0>
    3b56: 18           	clc
    3b57: 98           	tya
    3b58: 69 bb        	adc	#$bb
    3b5a: 18           	clc
    3b5b: 65 12        	adc	$12                     ; 0x12 <__rc2>
    3b5d: aa           	tax
    3b5e: 0a           	asl
    3b5f: 64 14        	stz	$14                     ; 0x14 <__rc4>
    3b61: 26 14        	rol	$14                     ; 0x14 <__rc4>
    3b63: 0a           	asl
    3b64: 26 14        	rol	$14                     ; 0x14 <__rc4>
    3b66: 0a           	asl
    3b67: 26 14        	rol	$14                     ; 0x14 <__rc4>
    3b69: 0a           	asl
    3b6a: 26 14        	rol	$14                     ; 0x14 <__rc4>
    3b6c: 38           	sec
    3b6d: 86 17        	stx	$17                     ; 0x17 <__rc7>
    3b6f: 86 12        	stx	$12                     ; 0x12 <__rc2>
    3b71: e5 12        	sbc	$12                     ; 0x12 <__rc2>
    3b73: 85 12        	sta	$12                     ; 0x12 <__rc2>
    3b75: a5 14        	lda	$14                     ; 0x14 <__rc4>
    3b77: e9 00        	sbc	#$0
    3b79: 85 14        	sta	$14                     ; 0x14 <__rc4>
    3b7b: a9 8b        	lda	#$8b
    3b7d: 18           	clc
    3b7e: 65 12        	adc	$12                     ; 0x12 <__rc2>
    3b80: aa           	tax
    3b81: a9 8d        	lda	#$8d
    3b83: 65 14        	adc	$14                     ; 0x14 <__rc4>
    3b85: 86 14        	stx	$14                     ; 0x14 <__rc4>
    3b87: 85 15        	sta	$15                     ; 0x15 <__rc5>
    3b89: a0 03        	ldy	#$3
    3b8b: a5 16        	lda	$16                     ; 0x16 <__rc6>
    3b8d: 91 14        	sta	($14),y                 ; 0x14 <__rc4>
    3b8f: a6 13        	ldx	$13                     ; 0x13 <__rc3>
    3b91: d0 03        	bne	$3b96 <opl3_shadow+0x3dc>
    3b93: 4c fd 3c     	jmp	$3cfd <opl3_shadow+0x543>
    3b96: a8           	tay
    3b97: a5 17        	lda	$17                     ; 0x17 <__rc7>
    3b99: 18           	clc
    3b9a: 69 05        	adc	#$5
    3b9c: a2 0c        	ldx	#$c
    3b9e: 4c d9 3c     	jmp	$3cd9 <opl3_shadow+0x51f>
    3ba1: aa           	tax
    3ba2: e0 08        	cpx	#$8
    3ba4: 90 04        	bcc	$3baa <opl3_shadow+0x3f0>
    3ba6: 18           	clc
    3ba7: 98           	tya
    3ba8: 69 18        	adc	#$18
    3baa: 18           	clc
    3bab: 65 12        	adc	$12                     ; 0x12 <__rc2>
    3bad: aa           	tax
    3bae: 0a           	asl
    3baf: 64 14        	stz	$14                     ; 0x14 <__rc4>
    3bb1: 26 14        	rol	$14                     ; 0x14 <__rc4>
    3bb3: 0a           	asl
    3bb4: 26 14        	rol	$14                     ; 0x14 <__rc4>
    3bb6: 0a           	asl
    3bb7: 26 14        	rol	$14                     ; 0x14 <__rc4>
    3bb9: 0a           	asl
    3bba: 26 14        	rol	$14                     ; 0x14 <__rc4>
    3bbc: 38           	sec
    3bbd: 86 17        	stx	$17                     ; 0x17 <__rc7>
    3bbf: 86 12        	stx	$12                     ; 0x12 <__rc2>
    3bc1: e5 12        	sbc	$12                     ; 0x12 <__rc2>
    3bc3: 85 12        	sta	$12                     ; 0x12 <__rc2>
    3bc5: a5 14        	lda	$14                     ; 0x14 <__rc4>
    3bc7: e9 00        	sbc	#$0
    3bc9: 85 14        	sta	$14                     ; 0x14 <__rc4>
    3bcb: a9 8b        	lda	#$8b
    3bcd: 18           	clc
    3bce: 65 12        	adc	$12                     ; 0x12 <__rc2>
    3bd0: aa           	tax
    3bd1: a9 8d        	lda	#$8d
    3bd3: 65 14        	adc	$14                     ; 0x14 <__rc4>
    3bd5: 86 14        	stx	$14                     ; 0x14 <__rc4>
    3bd7: 85 15        	sta	$15                     ; 0x15 <__rc5>
    3bd9: a0 08        	ldy	#$8
    3bdb: a5 16        	lda	$16                     ; 0x16 <__rc6>
    3bdd: 91 14        	sta	($14),y                 ; 0x14 <__rc4>
    3bdf: a6 13        	ldx	$13                     ; 0x13 <__rc3>
    3be1: d0 03        	bne	$3be6 <opl3_shadow+0x42c>
    3be3: 4c fd 3c     	jmp	$3cfd <opl3_shadow+0x543>
    3be6: a8           	tay
    3be7: a5 17        	lda	$17                     ; 0x17 <__rc7>
    3be9: 18           	clc
    3bea: 69 05        	adc	#$5
    3bec: a2 28        	ldx	#$28
    3bee: 4c d9 3c     	jmp	$3cd9 <opl3_shadow+0x51f>
    3bf1: aa           	tax
    3bf2: e0 08        	cpx	#$8
    3bf4: 90 04        	bcc	$3bfa <opl3_shadow+0x440>
    3bf6: 18           	clc
    3bf7: 98           	tya
    3bf8: 69 d8        	adc	#$d8
    3bfa: 18           	clc
    3bfb: 65 12        	adc	$12                     ; 0x12 <__rc2>
    3bfd: aa           	tax
    3bfe: 0a           	asl
    3bff: 64 14        	stz	$14                     ; 0x14 <__rc4>
    3c01: 26 14        	rol	$14                     ; 0x14 <__rc4>
    3c03: 0a           	asl
    3c04: 26 14        	rol	$14                     ; 0x14 <__rc4>
    3c06: 0a           	asl
    3c07: 26 14        	rol	$14                     ; 0x14 <__rc4>
    3c09: 0a           	asl
    3c0a: 26 14        	rol	$14                     ; 0x14 <__rc4>
    3c0c: 38           	sec
    3c0d: 86 17        	stx	$17                     ; 0x17 <__rc7>
    3c0f: 86 12        	stx	$12                     ; 0x12 <__rc2>
    3c11: e5 12        	sbc	$12                     ; 0x12 <__rc2>
    3c13: 85 12        	sta	$12                     ; 0x12 <__rc2>
    3c15: a5 14        	lda	$14                     ; 0x14 <__rc4>
    3c17: e9 00        	sbc	#$0
    3c19: 85 14        	sta	$14                     ; 0x14 <__rc4>
    3c1b: a9 8b        	lda	#$8b
    3c1d: 18           	clc
    3c1e: 65 12        	adc	$12                     ; 0x12 <__rc2>
    3c20: aa           	tax
    3c21: a9 8d        	lda	#$8d
    3c23: 65 14        	adc	$14                     ; 0x14 <__rc4>
    3c25: 86 14        	stx	$14                     ; 0x14 <__rc4>
    3c27: 85 15        	sta	$15                     ; 0x15 <__rc5>
    3c29: a5 16        	lda	$16                     ; 0x16 <__rc6>
    3c2b: 92 14        	sta	($14)                   ; 0x14 <__rc4>
    3c2d: a6 13        	ldx	$13                     ; 0x13 <__rc3>
    3c2f: d0 03        	bne	$3c34 <opl3_shadow+0x47a>
    3c31: 4c fd 3c     	jmp	$3cfd <opl3_shadow+0x543>
    3c34: a8           	tay
    3c35: a5 17        	lda	$17                     ; 0x17 <__rc7>
    3c37: 18           	clc
    3c38: 69 05        	adc	#$5
    3c3a: a2 08        	ldx	#$8
    3c3c: 4c d9 3c     	jmp	$3cd9 <opl3_shadow+0x51f>
    3c3f: aa           	tax
    3c40: e0 08        	cpx	#$8
    3c42: 90 04        	bcc	$3c48 <opl3_shadow+0x48e>
    3c44: 18           	clc
    3c45: 98           	tya
    3c46: 69 7b        	adc	#$7b
    3c48: 18           	clc
    3c49: 65 12        	adc	$12                     ; 0x12 <__rc2>
    3c4b: aa           	tax
    3c4c: 0a           	asl
    3c4d: 64 14        	stz	$14                     ; 0x14 <__rc4>
    3c4f: 26 14        	rol	$14                     ; 0x14 <__rc4>
    3c51: 0a           	asl
    3c52: 26 14        	rol	$14                     ; 0x14 <__rc4>
    3c54: 0a           	asl
    3c55: 26 14        	rol	$14                     ; 0x14 <__rc4>
    3c57: 0a           	asl
    3c58: 26 14        	rol	$14                     ; 0x14 <__rc4>
    3c5a: 38           	sec
    3c5b: 86 17        	stx	$17                     ; 0x17 <__rc7>
    3c5d: 86 12        	stx	$12                     ; 0x12 <__rc2>
    3c5f: e5 12        	sbc	$12                     ; 0x12 <__rc2>
    3c61: 85 12        	sta	$12                     ; 0x12 <__rc2>
    3c63: a5 14        	lda	$14                     ; 0x14 <__rc4>
    3c65: e9 00        	sbc	#$0
    3c67: 85 14        	sta	$14                     ; 0x14 <__rc4>
    3c69: a9 8b        	lda	#$8b
    3c6b: 18           	clc
    3c6c: 65 12        	adc	$12                     ; 0x12 <__rc2>
    3c6e: aa           	tax
    3c6f: a9 8d        	lda	#$8d
    3c71: 65 14        	adc	$14                     ; 0x14 <__rc4>
    3c73: 86 14        	stx	$14                     ; 0x14 <__rc4>
    3c75: 85 15        	sta	$15                     ; 0x15 <__rc5>
    3c77: a0 07        	ldy	#$7
    3c79: a5 16        	lda	$16                     ; 0x16 <__rc6>
    3c7b: 91 14        	sta	($14),y                 ; 0x14 <__rc4>
    3c7d: a6 13        	ldx	$13                     ; 0x13 <__rc3>
    3c7f: d0 03        	bne	$3c84 <opl3_shadow+0x4ca>
    3c81: 4c fd 3c     	jmp	$3cfd <opl3_shadow+0x543>
    3c84: a8           	tay
    3c85: a5 17        	lda	$17                     ; 0x17 <__rc7>
    3c87: 18           	clc
    3c88: 69 05        	adc	#$5
    3c8a: a2 1c        	ldx	#$1c
    3c8c: 4c d9 3c     	jmp	$3cd9 <opl3_shadow+0x51f>
    3c8f: aa           	tax
    3c90: e0 08        	cpx	#$8
    3c92: 90 04        	bcc	$3c98 <opl3_shadow+0x4de>
    3c94: 18           	clc
    3c95: 98           	tya
    3c96: 69 b8        	adc	#$b8
    3c98: 18           	clc
    3c99: 65 12        	adc	$12                     ; 0x12 <__rc2>
    3c9b: aa           	tax
    3c9c: 0a           	asl
    3c9d: 64 14        	stz	$14                     ; 0x14 <__rc4>
    3c9f: 26 14        	rol	$14                     ; 0x14 <__rc4>
    3ca1: 0a           	asl
    3ca2: 26 14        	rol	$14                     ; 0x14 <__rc4>
    3ca4: 0a           	asl
    3ca5: 26 14        	rol	$14                     ; 0x14 <__rc4>
    3ca7: 0a           	asl
    3ca8: 26 14        	rol	$14                     ; 0x14 <__rc4>
    3caa: 38           	sec
    3cab: 86 17        	stx	$17                     ; 0x17 <__rc7>
    3cad: 86 12        	stx	$12                     ; 0x12 <__rc2>
    3caf: e5 12        	sbc	$12                     ; 0x12 <__rc2>
    3cb1: 85 12        	sta	$12                     ; 0x12 <__rc2>
    3cb3: a5 14        	lda	$14                     ; 0x14 <__rc4>
    3cb5: e9 00        	sbc	#$0
    3cb7: 85 14        	sta	$14                     ; 0x14 <__rc4>
    3cb9: a9 8b        	lda	#$8b
    3cbb: 18           	clc
    3cbc: 65 12        	adc	$12                     ; 0x12 <__rc2>
    3cbe: aa           	tax
    3cbf: a9 8d        	lda	#$8d
    3cc1: 65 14        	adc	$14                     ; 0x14 <__rc4>
    3cc3: 86 14        	stx	$14                     ; 0x14 <__rc4>
    3cc5: 85 15        	sta	$15                     ; 0x15 <__rc5>
    3cc7: a0 02        	ldy	#$2
    3cc9: a5 16        	lda	$16                     ; 0x16 <__rc6>
    3ccb: 91 14        	sta	($14),y                 ; 0x14 <__rc4>
    3ccd: a6 13        	ldx	$13                     ; 0x13 <__rc3>
    3ccf: f0 2c        	beq	$3cfd <opl3_shadow+0x543>
    3cd1: a8           	tay
    3cd2: a5 17        	lda	$17                     ; 0x17 <__rc7>
    3cd4: 18           	clc
    3cd5: 69 05        	adc	#$5
    3cd7: a2 10        	ldx	#$10
    3cd9: 86 6a        	stx	$6a                     ; 0x6a <_col>
    3cdb: 8e 14 d0     	stx	$d014                   ; 0xd014 <__heap_start+0x40fc>
    3cde: 9c 15 d0     	stz	$d015                   ; 0xd015 <__heap_start+0x40fd>
    3ce1: 85 6b        	sta	$6b                     ; 0x6b <_row>
    3ce3: 8d 16 d0     	sta	$d016                   ; 0xd016 <__heap_start+0x40fe>
    3ce6: 9c 17 d0     	stz	$d017                   ; 0xd017 <__heap_start+0x40ff>
    3ce9: 98           	tya
    3cea: 92 10        	sta	($10)                   ; 0x10 <__rc0>
    3cec: a0 01        	ldy	#$1
    3cee: a9 00        	lda	#$0
    3cf0: 91 10        	sta	($10),y                 ; 0x10 <__rc0>
    3cf2: a2 f0        	ldx	#$f0
    3cf4: 86 12        	stx	$12                     ; 0x12 <__rc2>
    3cf6: a2 89        	ldx	#$89
    3cf8: 86 13        	stx	$13                     ; 0x13 <__rc3>
    3cfa: 20 66 7f     	jsr	$7f66 <printf>
    3cfd: a5 7b        	lda	$7b                     ; 0x7b <__zp_bss_size+0x4b>
    3cff: 48           	pha
    3d00: 18           	clc
    3d01: a5 10        	lda	$10                     ; 0x10 <__rc0>
    3d03: 69 02        	adc	#$2
    3d05: 85 10        	sta	$10                     ; 0x10 <__rc0>
    3d07: a5 11        	lda	$11                     ; 0x11 <__rc1>
    3d09: 69 00        	adc	#$0
    3d0b: 85 11        	sta	$11                     ; 0x11 <__rc1>
    3d0d: 68           	pla
    3d0e: 60           	rts
    3d0f: a6 16        	ldx	$16                     ; 0x16 <__rc6>
    3d11: 8e 7b 8c     	stx	$8c7b                   ; 0x8c7b <chip_enable>
    3d14: 80 e7        	bra	$3cfd <opl3_shadow+0x543>
    3d16: 98           	tya
    3d17: f0 e4        	beq	$3cfd <opl3_shadow+0x543>
    3d19: a6 16        	ldx	$16                     ; 0x16 <__rc6>
    3d1b: 86 77        	stx	$77                     ; 0x77 <chip_OPL3_PAIRS>
    3d1d: a5 13        	lda	$13                     ; 0x13 <__rc3>
    3d1f: f0 dc        	beq	$3cfd <opl3_shadow+0x543>
    3d21: a2 40        	ldx	#$40
    3d23: 86 6a        	stx	$6a                     ; 0x6a <_col>
    3d25: 8e 14 d0     	stx	$d014                   ; 0xd014 <__heap_start+0x40fc>
    3d28: 9c 15 d0     	stz	$d015                   ; 0xd015 <__heap_start+0x40fd>
    3d2b: a2 05        	ldx	#$5
    3d2d: 86 6b        	stx	$6b                     ; 0x6b <_row>
    3d2f: 8e 16 d0     	stx	$d016                   ; 0xd016 <__heap_start+0x40fe>
    3d32: 9c 17 d0     	stz	$d017                   ; 0xd017 <__heap_start+0x40ff>
    3d35: a5 77        	lda	$77                     ; 0x77 <chip_OPL3_PAIRS>
    3d37: 80 b1        	bra	$3cea <opl3_shadow+0x530>
    3d39: a6 16        	ldx	$16                     ; 0x16 <__rc6>
    3d3b: 86 76        	stx	$76                     ; 0x76 <chip_VT_PERC>
    3d3d: a5 13        	lda	$13                     ; 0x13 <__rc3>
    3d3f: f0 bc        	beq	$3cfd <opl3_shadow+0x543>
    3d41: 18           	clc
    3d42: a5 12        	lda	$12                     ; 0x12 <__rc2>
    3d44: 69 05        	adc	#$5
    3d46: a2 34        	ldx	#$34
    3d48: 86 6a        	stx	$6a                     ; 0x6a <_col>
    3d4a: 8e 14 d0     	stx	$d014                   ; 0xd014 <__heap_start+0x40fc>
    3d4d: 9c 15 d0     	stz	$d015                   ; 0xd015 <__heap_start+0x40fd>
    3d50: 85 6b        	sta	$6b                     ; 0x6b <_row>
    3d52: 8d 16 d0     	sta	$d016                   ; 0xd016 <__heap_start+0x40fe>
    3d55: 9c 17 d0     	stz	$d017                   ; 0xd017 <__heap_start+0x40ff>
    3d58: a5 76        	lda	$76                     ; 0x76 <chip_VT_PERC>
    3d5a: 4c ea 3c     	jmp	$3cea <opl3_shadow+0x530>
    3d5d: a6 16        	ldx	$16                     ; 0x16 <__rc6>
    3d5f: 8e 7c 8c     	stx	$8c7c                   ; 0x8c7c <chip_NOTESEL>
    3d62: a5 13        	lda	$13                     ; 0x13 <__rc3>
    3d64: d0 03        	bne	$3d69 <opl3_shadow+0x5af>
    3d66: 4c fd 3c     	jmp	$3cfd <opl3_shadow+0x543>
    3d69: 18           	clc
    3d6a: a5 12        	lda	$12                     ; 0x12 <__rc2>
    3d6c: 69 05        	adc	#$5
    3d6e: a2 3c        	ldx	#$3c
    3d70: 86 6a        	stx	$6a                     ; 0x6a <_col>
    3d72: 8e 14 d0     	stx	$d014                   ; 0xd014 <__heap_start+0x40fc>
    3d75: 9c 15 d0     	stz	$d015                   ; 0xd015 <__heap_start+0x40fd>
    3d78: 85 6b        	sta	$6b                     ; 0x6b <_row>
    3d7a: 8d 16 d0     	sta	$d016                   ; 0xd016 <__heap_start+0x40fe>
    3d7d: 9c 17 d0     	stz	$d017                   ; 0xd017 <__heap_start+0x40ff>
    3d80: ad 7c 8c     	lda	$8c7c                   ; 0x8c7c <chip_NOTESEL>
    3d83: 4c ea 3c     	jmp	$3cea <opl3_shadow+0x530>

00003d86 <lilpause>:
    3d86: a2 80        	ldx	#$80
    3d88: 86 f3        	stx	$f3                     ; 0xf3 <__zp_bss_size+0xc3>
    3d8a: a2 87        	ldx	#$87
    3d8c: a0 00        	ldy	#$0
    3d8e: 86 14        	stx	$14                     ; 0x14 <__rc4>
    3d90: 84 15        	sty	$15                     ; 0x15 <__rc5>
    3d92: a2 69        	ldx	#$69
    3d94: 86 12        	stx	$12                     ; 0x12 <__rc2>
    3d96: a2 00        	ldx	#$0
    3d98: 86 13        	stx	$13                     ; 0x13 <__rc3>
    3d9a: 20 f0 ff     	jsr	$fff0 <__heap_start+0x70d8>
    3d9d: 92 14        	sta	($14)                   ; 0x14 <__rc4>
    3d9f: a9 00        	lda	#$0
    3da1: 6a           	ror
    3da2: 85 12        	sta	$12                     ; 0x12 <__rc2>
    3da4: a6 87        	ldx	$87                     ; 0x87 <__zp_bss_size+0x57>
    3da6: e8           	inx
    3da7: 64 f3        	stz	$f3                     ; 0xf3 <__zp_bss_size+0xc3>
    3da9: 86 f4        	stx	$f4                     ; 0xf4 <__zp_bss_size+0xc4>
    3dab: a2 d5        	ldx	#$d5
    3dad: 86 f5        	stx	$f5                     ; 0xf5 <__zp_bss_size+0xc5>
    3daf: a2 86        	ldx	#$86
    3db1: a0 00        	ldy	#$0
    3db3: 86 16        	stx	$16                     ; 0x16 <__rc6>
    3db5: 84 17        	sty	$17                     ; 0x17 <__rc7>
    3db7: a2 88        	ldx	#$88
    3db9: a0 00        	ldy	#$0
    3dbb: 86 14        	stx	$14                     ; 0x14 <__rc4>
    3dbd: 84 15        	sty	$15                     ; 0x15 <__rc5>
    3dbf: 20 f0 ff     	jsr	$fff0 <__heap_start+0x70d8>
    3dc2: 92 16        	sta	($16)                   ; 0x16 <__rc6>
    3dc4: a9 00        	lda	#$0
    3dc6: 6a           	ror
    3dc7: 85 12        	sta	$12                     ; 0x12 <__rc2>
    3dc9: 64 62        	stz	$62                     ; 0x62 <kernelEventData>
    3dcb: 20 00 ff     	jsr	$ff00 <__heap_start+0x6fe8>
    3dce: 92 14        	sta	($14)                   ; 0x14 <__rc4>
    3dd0: a9 00        	lda	#$0
    3dd2: 6a           	ror
    3dd3: 85 12        	sta	$12                     ; 0x12 <__rc2>
    3dd5: a6 62        	ldx	$62                     ; 0x62 <kernelEventData>
    3dd7: e0 52        	cpx	#$52
    3dd9: d0 ee        	bne	$3dc9 <lilpause+0x43>
    3ddb: a6 66        	ldx	$66                     ; 0x66 <kernelEventData+0x4>
    3ddd: e0 d5        	cpx	#$d5
    3ddf: d0 e8        	bne	$3dc9 <lilpause+0x43>
    3de1: 60           	rts

00003de2 <copyToRAM>:
    3de2: 18           	clc
    3de3: a5 10        	lda	$10                     ; 0x10 <__rc0>
    3de5: 69 f8        	adc	#$f8
    3de7: 85 10        	sta	$10                     ; 0x10 <__rc0>
    3de9: a5 11        	lda	$11                     ; 0x11 <__rc1>
    3deb: 69 fe        	adc	#$fe
    3ded: 85 11        	sta	$11                     ; 0x11 <__rc1>
    3def: a5 12        	lda	$12                     ; 0x12 <__rc2>
    3df1: a6 13        	ldx	$13                     ; 0x13 <__rc3>
    3df3: 18           	clc
    3df4: 48           	pha
    3df5: a5 10        	lda	$10                     ; 0x10 <__rc0>
    3df7: 69 06        	adc	#$6
    3df9: 85 12        	sta	$12                     ; 0x12 <__rc2>
    3dfb: a5 11        	lda	$11                     ; 0x11 <__rc1>
    3dfd: 69 01        	adc	#$1
    3dff: 85 13        	sta	$13                     ; 0x13 <__rc3>
    3e01: 68           	pla
    3e02: 92 12        	sta	($12)                   ; 0x12 <__rc2>
    3e04: a0 01        	ldy	#$1
    3e06: 8a           	txa
    3e07: 91 12        	sta	($12),y                 ; 0x12 <__rc2>
    3e09: 18           	clc
    3e0a: a5 10        	lda	$10                     ; 0x10 <__rc0>
    3e0c: 69 05        	adc	#$5
    3e0e: 85 12        	sta	$12                     ; 0x12 <__rc2>
    3e10: a5 11        	lda	$11                     ; 0x11 <__rc1>
    3e12: 69 01        	adc	#$1
    3e14: 85 13        	sta	$13                     ; 0x13 <__rc3>
    3e16: 98           	tya
    3e17: 92 12        	sta	($12)                   ; 0x12 <__rc2>
    3e19: 18           	clc
    3e1a: a5 10        	lda	$10                     ; 0x10 <__rc0>
    3e1c: 69 05        	adc	#$5
    3e1e: 85 12        	sta	$12                     ; 0x12 <__rc2>
    3e20: a5 11        	lda	$11                     ; 0x11 <__rc1>
    3e22: 69 00        	adc	#$0
    3e24: 85 13        	sta	$13                     ; 0x13 <__rc3>
    3e26: a9 00        	lda	#$0
    3e28: 92 12        	sta	($12)                   ; 0x12 <__rc2>
    3e2a: a9 00        	lda	#$0
    3e2c: 18           	clc
    3e2d: 48           	pha
    3e2e: a5 10        	lda	$10                     ; 0x10 <__rc0>
    3e30: 69 01        	adc	#$1
    3e32: 85 12        	sta	$12                     ; 0x12 <__rc2>
    3e34: a5 11        	lda	$11                     ; 0x11 <__rc1>
    3e36: 69 00        	adc	#$0
    3e38: 85 13        	sta	$13                     ; 0x13 <__rc3>
    3e3a: 68           	pla
    3e3b: 92 12        	sta	($12)                   ; 0x12 <__rc2>
    3e3d: 91 12        	sta	($12),y                 ; 0x12 <__rc2>
    3e3f: c8           	iny
    3e40: 91 12        	sta	($12),y                 ; 0x12 <__rc2>
    3e42: c8           	iny
    3e43: 91 12        	sta	($12),y                 ; 0x12 <__rc2>
    3e45: 18           	clc
    3e46: a5 10        	lda	$10                     ; 0x10 <__rc0>
    3e48: 69 05        	adc	#$5
    3e4a: 85 12        	sta	$12                     ; 0x12 <__rc2>
    3e4c: a5 11        	lda	$11                     ; 0x11 <__rc1>
    3e4e: 69 01        	adc	#$1
    3e50: 85 13        	sta	$13                     ; 0x13 <__rc3>
    3e52: b2 12        	lda	($12)                   ; 0x12 <__rc2>
    3e54: d0 03        	bne	$3e59 <copyToRAM+0x77>
    3e56: 4c c8 3f     	jmp	$3fc8 <copyToRAM+0x1e6>
    3e59: 18           	clc
    3e5a: a5 10        	lda	$10                     ; 0x10 <__rc0>
    3e5c: 69 06        	adc	#$6
    3e5e: 85 12        	sta	$12                     ; 0x12 <__rc2>
    3e60: a5 11        	lda	$11                     ; 0x11 <__rc1>
    3e62: 69 01        	adc	#$1
    3e64: 85 13        	sta	$13                     ; 0x13 <__rc3>
    3e66: b2 12        	lda	($12)                   ; 0x12 <__rc2>
    3e68: 85 14        	sta	$14                     ; 0x14 <__rc4>
    3e6a: a0 01        	ldy	#$1
    3e6c: b1 12        	lda	($12),y                 ; 0x12 <__rc2>
    3e6e: 85 15        	sta	$15                     ; 0x15 <__rc5>
    3e70: a9 ff        	lda	#$ff
    3e72: a2 00        	ldx	#$0
    3e74: 18           	clc
    3e75: 48           	pha
    3e76: a5 10        	lda	$10                     ; 0x10 <__rc0>
    3e78: 69 06        	adc	#$6
    3e7a: 85 12        	sta	$12                     ; 0x12 <__rc2>
    3e7c: a5 11        	lda	$11                     ; 0x11 <__rc1>
    3e7e: 69 00        	adc	#$0
    3e80: 85 13        	sta	$13                     ; 0x13 <__rc3>
    3e82: 68           	pla
    3e83: 20 45 6c     	jsr	$6c45 <fileRead>
    3e86: 18           	clc
    3e87: 48           	pha
    3e88: a5 10        	lda	$10                     ; 0x10 <__rc0>
    3e8a: 69 05        	adc	#$5
    3e8c: 85 12        	sta	$12                     ; 0x12 <__rc2>
    3e8e: a5 11        	lda	$11                     ; 0x11 <__rc1>
    3e90: 69 00        	adc	#$0
    3e92: 85 13        	sta	$13                     ; 0x13 <__rc3>
    3e94: 68           	pla
    3e95: 92 12        	sta	($12)                   ; 0x12 <__rc2>
    3e97: b2 12        	lda	($12)                   ; 0x12 <__rc2>
    3e99: c9 ff        	cmp	#$ff
    3e9b: f0 02        	beq	$3e9f <copyToRAM+0xbd>
    3e9d: 80 02        	bra	$3ea1 <copyToRAM+0xbf>
    3e9f: 80 15        	bra	$3eb6 <copyToRAM+0xd4>
    3ea1: 80 00        	bra	$3ea3 <copyToRAM+0xc1>
    3ea3: 80 00        	bra	$3ea5 <copyToRAM+0xc3>
    3ea5: 18           	clc
    3ea6: a5 10        	lda	$10                     ; 0x10 <__rc0>
    3ea8: 69 05        	adc	#$5
    3eaa: 85 12        	sta	$12                     ; 0x12 <__rc2>
    3eac: a5 11        	lda	$11                     ; 0x11 <__rc1>
    3eae: 69 01        	adc	#$1
    3eb0: 85 13        	sta	$13                     ; 0x13 <__rc3>
    3eb2: a9 00        	lda	#$0
    3eb4: 92 12        	sta	($12)                   ; 0x12 <__rc2>
    3eb6: 18           	clc
    3eb7: a6 10        	ldx	$10                     ; 0x10 <__rc0>
    3eb9: 86 12        	stx	$12                     ; 0x12 <__rc2>
    3ebb: a6 11        	ldx	$11                     ; 0x11 <__rc1>
    3ebd: 86 13        	stx	$13                     ; 0x13 <__rc3>
    3ebf: a9 00        	lda	#$0
    3ec1: 92 12        	sta	($12)                   ; 0x12 <__rc2>
    3ec3: 18           	clc
    3ec4: a6 10        	ldx	$10                     ; 0x10 <__rc0>
    3ec6: 86 12        	stx	$12                     ; 0x12 <__rc2>
    3ec8: a6 11        	ldx	$11                     ; 0x11 <__rc1>
    3eca: 86 13        	stx	$13                     ; 0x13 <__rc3>
    3ecc: b2 12        	lda	($12)                   ; 0x12 <__rc2>
    3ece: 18           	clc
    3ecf: 48           	pha
    3ed0: a5 10        	lda	$10                     ; 0x10 <__rc0>
    3ed2: 69 05        	adc	#$5
    3ed4: 85 12        	sta	$12                     ; 0x12 <__rc2>
    3ed6: a5 11        	lda	$11                     ; 0x11 <__rc1>
    3ed8: 69 00        	adc	#$0
    3eda: 85 13        	sta	$13                     ; 0x13 <__rc3>
    3edc: 68           	pla
    3edd: d2 12        	cmp	($12)                   ; 0x12 <__rc2>
    3edf: a9 00        	lda	#$0
    3ee1: e9 00        	sbc	#$0
    3ee3: 70 02        	bvs	$3ee7 <copyToRAM+0x105>
    3ee5: 80 04        	bra	$3eeb <copyToRAM+0x109>
    3ee7: 49 80        	eor	#$80
    3ee9: 80 02        	bra	$3eed <copyToRAM+0x10b>
    3eeb: 80 00        	bra	$3eed <copyToRAM+0x10b>
    3eed: aa           	tax
    3eee: 30 05        	bmi	$3ef5 <copyToRAM+0x113>
    3ef0: 80 00        	bra	$3ef2 <copyToRAM+0x110>
    3ef2: 4c 6a 3f     	jmp	$3f6a <copyToRAM+0x188>
    3ef5: 18           	clc
    3ef6: a6 10        	ldx	$10                     ; 0x10 <__rc0>
    3ef8: 86 18        	stx	$18                     ; 0x18 <__rc8>
    3efa: a6 11        	ldx	$11                     ; 0x11 <__rc1>
    3efc: 86 19        	stx	$19                     ; 0x19 <__rc9>
    3efe: 18           	clc
    3eff: a5 10        	lda	$10                     ; 0x10 <__rc0>
    3f01: 69 01        	adc	#$1
    3f03: 85 14        	sta	$14                     ; 0x14 <__rc4>
    3f05: a5 11        	lda	$11                     ; 0x11 <__rc1>
    3f07: 69 00        	adc	#$0
    3f09: 85 15        	sta	$15                     ; 0x15 <__rc5>
    3f0b: b2 14        	lda	($14)                   ; 0x14 <__rc4>
    3f0d: a0 01        	ldy	#$1
    3f0f: 18           	clc
    3f10: 72 18        	adc	($18)                   ; 0x18 <__rc8>
    3f12: 85 16        	sta	$16                     ; 0x16 <__rc6>
    3f14: a9 00        	lda	#$0
    3f16: 71 14        	adc	($14),y                 ; 0x14 <__rc4>
    3f18: aa           	tax
    3f19: a9 00        	lda	#$0
    3f1b: c8           	iny
    3f1c: 71 14        	adc	($14),y                 ; 0x14 <__rc4>
    3f1e: 85 12        	sta	$12                     ; 0x12 <__rc2>
    3f20: c8           	iny
    3f21: a9 00        	lda	#$0
    3f23: 71 14        	adc	($14),y                 ; 0x14 <__rc4>
    3f25: a8           	tay
    3f26: 18           	clc
    3f27: a5 16        	lda	$16                     ; 0x16 <__rc6>
    3f29: 69 00        	adc	#$0
    3f2b: 85 16        	sta	$16                     ; 0x16 <__rc6>
    3f2d: 8a           	txa
    3f2e: 69 00        	adc	#$0
    3f30: 85 17        	sta	$17                     ; 0x17 <__rc7>
    3f32: a5 12        	lda	$12                     ; 0x12 <__rc2>
    3f34: 69 10        	adc	#$10
    3f36: 85 12        	sta	$12                     ; 0x12 <__rc2>
    3f38: 98           	tya
    3f39: 69 00        	adc	#$0
    3f3b: aa           	tax
    3f3c: 18           	clc
    3f3d: a5 10        	lda	$10                     ; 0x10 <__rc0>
    3f3f: 69 06        	adc	#$6
    3f41: 85 14        	sta	$14                     ; 0x14 <__rc4>
    3f43: a5 11        	lda	$11                     ; 0x11 <__rc1>
    3f45: 69 00        	adc	#$0
    3f47: 85 15        	sta	$15                     ; 0x15 <__rc5>
    3f49: b2 18        	lda	($18)                   ; 0x18 <__rc8>
    3f4b: a8           	tay
    3f4c: b1 14        	lda	($14),y                 ; 0x14 <__rc4>
    3f4e: 86 13        	stx	$13                     ; 0x13 <__rc3>
    3f50: 85 14        	sta	$14                     ; 0x14 <__rc4>
    3f52: a6 17        	ldx	$17                     ; 0x17 <__rc7>
    3f54: a5 16        	lda	$16                     ; 0x16 <__rc6>
    3f56: 20 d7 05     	jsr	$5d7 <POKE24>
    3f59: 18           	clc
    3f5a: a6 10        	ldx	$10                     ; 0x10 <__rc0>
    3f5c: 86 12        	stx	$12                     ; 0x12 <__rc2>
    3f5e: a6 11        	ldx	$11                     ; 0x11 <__rc1>
    3f60: 86 13        	stx	$13                     ; 0x13 <__rc3>
    3f62: b2 12        	lda	($12)                   ; 0x12 <__rc2>
    3f64: 1a           	inc
    3f65: 92 12        	sta	($12)                   ; 0x12 <__rc2>
    3f67: 4c c3 3e     	jmp	$3ec3 <copyToRAM+0xe1>
    3f6a: 18           	clc
    3f6b: a5 10        	lda	$10                     ; 0x10 <__rc0>
    3f6d: 69 05        	adc	#$5
    3f6f: 85 12        	sta	$12                     ; 0x12 <__rc2>
    3f71: a5 11        	lda	$11                     ; 0x11 <__rc1>
    3f73: 69 00        	adc	#$0
    3f75: 85 13        	sta	$13                     ; 0x13 <__rc3>
    3f77: b2 12        	lda	($12)                   ; 0x12 <__rc2>
    3f79: 85 14        	sta	$14                     ; 0x14 <__rc4>
    3f7b: 18           	clc
    3f7c: a5 10        	lda	$10                     ; 0x10 <__rc0>
    3f7e: 69 01        	adc	#$1
    3f80: 85 12        	sta	$12                     ; 0x12 <__rc2>
    3f82: a5 11        	lda	$11                     ; 0x11 <__rc1>
    3f84: 69 00        	adc	#$0
    3f86: 85 13        	sta	$13                     ; 0x13 <__rc3>
    3f88: a0 01        	ldy	#$1
    3f8a: b1 12        	lda	($12),y                 ; 0x12 <__rc2>
    3f8c: 85 1a        	sta	$1a                     ; 0x1a <__rc10>
    3f8e: a2 01        	ldx	#$1
    3f90: 86 16        	stx	$16                     ; 0x16 <__rc6>
    3f92: c8           	iny
    3f93: b1 12        	lda	($12),y                 ; 0x12 <__rc2>
    3f95: 85 18        	sta	$18                     ; 0x18 <__rc8>
    3f97: e8           	inx
    3f98: 86 15        	stx	$15                     ; 0x15 <__rc5>
    3f9a: c8           	iny
    3f9b: b1 12        	lda	($12),y                 ; 0x12 <__rc2>
    3f9d: 85 19        	sta	$19                     ; 0x19 <__rc9>
    3f9f: e8           	inx
    3fa0: 86 17        	stx	$17                     ; 0x17 <__rc7>
    3fa2: 18           	clc
    3fa3: a5 14        	lda	$14                     ; 0x14 <__rc4>
    3fa5: 72 12        	adc	($12)                   ; 0x12 <__rc2>
    3fa7: 85 14        	sta	$14                     ; 0x14 <__rc4>
    3fa9: a5 1a        	lda	$1a                     ; 0x1a <__rc10>
    3fab: 69 00        	adc	#$0
    3fad: a4 16        	ldy	$16                     ; 0x16 <__rc6>
    3faf: 91 12        	sta	($12),y                 ; 0x12 <__rc2>
    3fb1: a5 18        	lda	$18                     ; 0x18 <__rc8>
    3fb3: 69 00        	adc	#$0
    3fb5: a4 15        	ldy	$15                     ; 0x15 <__rc5>
    3fb7: 91 12        	sta	($12),y                 ; 0x12 <__rc2>
    3fb9: a5 19        	lda	$19                     ; 0x19 <__rc9>
    3fbb: 69 00        	adc	#$0
    3fbd: a4 17        	ldy	$17                     ; 0x17 <__rc7>
    3fbf: 91 12        	sta	($12),y                 ; 0x12 <__rc2>
    3fc1: a5 14        	lda	$14                     ; 0x14 <__rc4>
    3fc3: 92 12        	sta	($12)                   ; 0x12 <__rc2>
    3fc5: 4c 45 3e     	jmp	$3e45 <copyToRAM+0x63>
    3fc8: 18           	clc
    3fc9: a5 10        	lda	$10                     ; 0x10 <__rc0>
    3fcb: 69 08        	adc	#$8
    3fcd: 85 10        	sta	$10                     ; 0x10 <__rc0>
    3fcf: a5 11        	lda	$11                     ; 0x11 <__rc1>
    3fd1: 69 01        	adc	#$1
    3fd3: 85 11        	sta	$11                     ; 0x11 <__rc1>
    3fd5: 60           	rts

00003fd6 <textUI>:
    3fd6: 64 6a        	stz	$6a                     ; 0x6a <_col>
    3fd8: 9c 14 d0     	stz	$d014                   ; 0xd014 <__heap_start+0x40fc>
    3fdb: 9c 15 d0     	stz	$d015                   ; 0xd015 <__heap_start+0x40fd>
    3fde: a2 1c        	ldx	#$1c
    3fe0: 86 6b        	stx	$6b                     ; 0x6b <_row>
    3fe2: 8e 16 d0     	stx	$d016                   ; 0xd016 <__heap_start+0x40fe>
    3fe5: 9c 17 d0     	stz	$d017                   ; 0xd017 <__heap_start+0x40ff>
    3fe8: a2 76        	ldx	#$76
    3fea: 86 34        	stx	$34                     ; 0x34 <_ccolor>
    3fec: a2 22        	ldx	#$22
    3fee: 86 12        	stx	$12                     ; 0x12 <__rc2>
    3ff0: a2 8b        	ldx	#$8b
    3ff2: 86 13        	stx	$13                     ; 0x13 <__rc3>
    3ff4: 20 66 7f     	jsr	$7f66 <printf>
    3ff7: a2 f0        	ldx	#$f0
    3ff9: 86 34        	stx	$34                     ; 0x34 <_ccolor>
    3ffb: a2 dc        	ldx	#$dc
    3ffd: 86 12        	stx	$12                     ; 0x12 <__rc2>
    3fff: a2 8a        	ldx	#$8a
    4001: 86 13        	stx	$13                     ; 0x13 <__rc3>
    4003: 20 66 7f     	jsr	$7f66 <printf>
    4006: a2 76        	ldx	#$76
    4008: 86 34        	stx	$34                     ; 0x34 <_ccolor>
    400a: a2 d6        	ldx	#$d6
    400c: 86 12        	stx	$12                     ; 0x12 <__rc2>
    400e: a2 8a        	ldx	#$8a
    4010: 86 13        	stx	$13                     ; 0x13 <__rc3>
    4012: 20 66 7f     	jsr	$7f66 <printf>
    4015: a2 f0        	ldx	#$f0
    4017: 86 34        	stx	$34                     ; 0x34 <_ccolor>
    4019: a2 bf        	ldx	#$bf
    401b: 86 12        	stx	$12                     ; 0x12 <__rc2>
    401d: a2 8b        	ldx	#$8b
    401f: 86 13        	stx	$13                     ; 0x13 <__rc3>
    4021: 20 66 7f     	jsr	$7f66 <printf>
    4024: a2 76        	ldx	#$76
    4026: 86 34        	stx	$34                     ; 0x34 <_ccolor>
    4028: a2 fa        	ldx	#$fa
    402a: 86 12        	stx	$12                     ; 0x12 <__rc2>
    402c: a2 8a        	ldx	#$8a
    402e: 86 13        	stx	$13                     ; 0x13 <__rc3>
    4030: 20 66 7f     	jsr	$7f66 <printf>
    4033: a2 f0        	ldx	#$f0
    4035: 86 34        	stx	$34                     ; 0x34 <_ccolor>
    4037: a2 95        	ldx	#$95
    4039: 86 12        	stx	$12                     ; 0x12 <__rc2>
    403b: a2 8a        	ldx	#$8a
    403d: 86 13        	stx	$13                     ; 0x13 <__rc3>
    403f: 20 66 7f     	jsr	$7f66 <printf>
    4042: a2 76        	ldx	#$76
    4044: 86 34        	stx	$34                     ; 0x34 <_ccolor>
    4046: a2 1d        	ldx	#$1d
    4048: 86 12        	stx	$12                     ; 0x12 <__rc2>
    404a: a2 8b        	ldx	#$8b
    404c: 86 13        	stx	$13                     ; 0x13 <__rc3>
    404e: 20 66 7f     	jsr	$7f66 <printf>
    4051: a2 f0        	ldx	#$f0
    4053: 86 34        	stx	$34                     ; 0x34 <_ccolor>
    4055: a2 cf        	ldx	#$cf
    4057: 86 12        	stx	$12                     ; 0x12 <__rc2>
    4059: a2 89        	ldx	#$89
    405b: 86 13        	stx	$13                     ; 0x13 <__rc3>
    405d: 20 66 7f     	jsr	$7f66 <printf>
    4060: a2 76        	ldx	#$76
    4062: 86 34        	stx	$34                     ; 0x34 <_ccolor>
    4064: a2 a4        	ldx	#$a4
    4066: 86 12        	stx	$12                     ; 0x12 <__rc2>
    4068: a2 89        	ldx	#$89
    406a: 86 13        	stx	$13                     ; 0x13 <__rc3>
    406c: 20 66 7f     	jsr	$7f66 <printf>
    406f: a2 f0        	ldx	#$f0
    4071: 86 34        	stx	$34                     ; 0x34 <_ccolor>
    4073: a2 ac        	ldx	#$ac
    4075: 86 12        	stx	$12                     ; 0x12 <__rc2>
    4077: a2 89        	ldx	#$89
    4079: 86 13        	stx	$13                     ; 0x13 <__rc3>
    407b: 4c 66 7f     	jmp	$7f66 <printf>

0000407e <axes_info>:
    407e: 18           	clc
    407f: a5 10        	lda	$10                     ; 0x10 <__rc0>
    4081: 69 fe        	adc	#$fe
    4083: 85 10        	sta	$10                     ; 0x10 <__rc0>
    4085: a5 11        	lda	$11                     ; 0x11 <__rc1>
    4087: 69 ff        	adc	#$ff
    4089: 85 11        	sta	$11                     ; 0x11 <__rc1>
    408b: a2 04        	ldx	#$4
    408d: 86 6a        	stx	$6a                     ; 0x6a <_col>
    408f: 8e 14 d0     	stx	$d014                   ; 0xd014 <__heap_start+0x40fc>
    4092: 9c 15 d0     	stz	$d015                   ; 0xd015 <__heap_start+0x40fd>
    4095: 86 6b        	stx	$6b                     ; 0x6b <_row>
    4097: 8e 16 d0     	stx	$d016                   ; 0xd016 <__heap_start+0x40fe>
    409a: 9c 17 d0     	stz	$d017                   ; 0xd017 <__heap_start+0x40ff>
    409d: a2 d0        	ldx	#$d0
    409f: 86 34        	stx	$34                     ; 0x34 <_ccolor>
    40a1: a2 0b        	ldx	#$b
    40a3: 86 12        	stx	$12                     ; 0x12 <__rc2>
    40a5: a2 8a        	ldx	#$8a
    40a7: 86 13        	stx	$13                     ; 0x13 <__rc3>
    40a9: 20 66 7f     	jsr	$7f66 <printf>
    40ac: a2 05        	ldx	#$5
    40ae: 18           	clc
    40af: 8a           	txa
    40b0: 69 fb        	adc	#$fb
    40b2: 64 6a        	stz	$6a                     ; 0x6a <_col>
    40b4: 9c 14 d0     	stz	$d014                   ; 0xd014 <__heap_start+0x40fc>
    40b7: 9c 15 d0     	stz	$d015                   ; 0xd015 <__heap_start+0x40fd>
    40ba: 86 6b        	stx	$6b                     ; 0x6b <_row>
    40bc: 8e 16 d0     	stx	$d016                   ; 0xd016 <__heap_start+0x40fe>
    40bf: 86 7b        	stx	$7b                     ; 0x7b <__zp_bss_size+0x4b>
    40c1: 9c 17 d0     	stz	$d017                   ; 0xd017 <__heap_start+0x40ff>
    40c4: 92 10        	sta	($10)                   ; 0x10 <__rc0>
    40c6: a9 00        	lda	#$0
    40c8: a0 01        	ldy	#$1
    40ca: 91 10        	sta	($10),y                 ; 0x10 <__rc0>
    40cc: a2 44        	ldx	#$44
    40ce: 86 12        	stx	$12                     ; 0x12 <__rc2>
    40d0: a2 89        	ldx	#$89
    40d2: 86 13        	stx	$13                     ; 0x13 <__rc3>
    40d4: 20 66 7f     	jsr	$7f66 <printf>
    40d7: a6 7b        	ldx	$7b                     ; 0x7b <__zp_bss_size+0x4b>
    40d9: e8           	inx
    40da: e0 17        	cpx	#$17
    40dc: d0 d0        	bne	$40ae <axes_info+0x30>
    40de: 18           	clc
    40df: a5 10        	lda	$10                     ; 0x10 <__rc0>
    40e1: 69 02        	adc	#$2
    40e3: 85 10        	sta	$10                     ; 0x10 <__rc0>
    40e5: a5 11        	lda	$11                     ; 0x11 <__rc1>
    40e7: 69 00        	adc	#$0
    40e9: 85 11        	sta	$11                     ; 0x11 <__rc1>
    40eb: 60           	rts

000040ec <wipe_inst>:
    40ec: a2 f0        	ldx	#$f0
    40ee: 86 34        	stx	$34                     ; 0x34 <_ccolor>
    40f0: a2 04        	ldx	#$4
    40f2: 64 6a        	stz	$6a                     ; 0x6a <_col>
    40f4: 9c 14 d0     	stz	$d014                   ; 0xd014 <__heap_start+0x40fc>
    40f7: 9c 15 d0     	stz	$d015                   ; 0xd015 <__heap_start+0x40fd>
    40fa: 86 6b        	stx	$6b                     ; 0x6b <_row>
    40fc: 8e 16 d0     	stx	$d016                   ; 0xd016 <__heap_start+0x40fe>
    40ff: 9c 17 d0     	stz	$d017                   ; 0xd017 <__heap_start+0x40ff>
    4102: 86 7b        	stx	$7b                     ; 0x7b <__zp_bss_size+0x4b>
    4104: a2 4b        	ldx	#$4b
    4106: 86 12        	stx	$12                     ; 0x12 <__rc2>
    4108: a2 8a        	ldx	#$8a
    410a: 86 13        	stx	$13                     ; 0x13 <__rc3>
    410c: 20 d1 6d     	jsr	$6dd1 <textPrint>
    410f: a6 7b        	ldx	$7b                     ; 0x7b <__zp_bss_size+0x4b>
    4111: e8           	inx
    4112: e0 17        	cpx	#$17
    4114: d0 dc        	bne	$40f2 <wipe_inst+0x6>
    4116: 60           	rts

00004117 <show_all_inst>:
    4117: 18           	clc
    4118: a5 10        	lda	$10                     ; 0x10 <__rc0>
    411a: 69 fe        	adc	#$fe
    411c: 85 10        	sta	$10                     ; 0x10 <__rc0>
    411e: a5 11        	lda	$11                     ; 0x11 <__rc1>
    4120: 69 ff        	adc	#$ff
    4122: 85 11        	sta	$11                     ; 0x11 <__rc1>
    4124: a2 f0        	ldx	#$f0
    4126: 86 34        	stx	$34                     ; 0x34 <_ccolor>
    4128: a2 00        	ldx	#$0
    412a: 86 7b        	stx	$7b                     ; 0x7b <__zp_bss_size+0x4b>
    412c: 8a           	txa
    412d: 20 0b 42     	jsr	$420b <show_inst>
    4130: a6 7b        	ldx	$7b                     ; 0x7b <__zp_bss_size+0x4b>
    4132: e8           	inx
    4133: e0 12        	cpx	#$12
    4135: d0 f3        	bne	$412a <show_all_inst+0x13>
    4137: a2 34        	ldx	#$34
    4139: 86 6a        	stx	$6a                     ; 0x6a <_col>
    413b: 8e 14 d0     	stx	$d014                   ; 0xd014 <__heap_start+0x40fc>
    413e: 9c 15 d0     	stz	$d015                   ; 0xd015 <__heap_start+0x40fd>
    4141: a2 05        	ldx	#$5
    4143: 86 6b        	stx	$6b                     ; 0x6b <_row>
    4145: 8e 16 d0     	stx	$d016                   ; 0xd016 <__heap_start+0x40fe>
    4148: 9c 17 d0     	stz	$d017                   ; 0xd017 <__heap_start+0x40ff>
    414b: a5 76        	lda	$76                     ; 0x76 <chip_VT_PERC>
    414d: 92 10        	sta	($10)                   ; 0x10 <__rc0>
    414f: a0 01        	ldy	#$1
    4151: a9 00        	lda	#$0
    4153: 91 10        	sta	($10),y                 ; 0x10 <__rc0>
    4155: a2 f0        	ldx	#$f0
    4157: 86 12        	stx	$12                     ; 0x12 <__rc2>
    4159: a2 89        	ldx	#$89
    415b: 86 13        	stx	$13                     ; 0x13 <__rc3>
    415d: a2 f0        	ldx	#$f0
    415f: 86 14        	stx	$14                     ; 0x14 <__rc4>
    4161: a2 89        	ldx	#$89
    4163: 86 15        	stx	$15                     ; 0x15 <__rc5>
    4165: a6 14        	ldx	$14                     ; 0x14 <__rc4>
    4167: 86 7c        	stx	$7c                     ; 0x7c <__zp_bss_size+0x4c>
    4169: a6 15        	ldx	$15                     ; 0x15 <__rc5>
    416b: 86 7d        	stx	$7d                     ; 0x7d <__zp_bss_size+0x4d>
    416d: 20 66 7f     	jsr	$7f66 <printf>
    4170: a2 38        	ldx	#$38
    4172: 86 6a        	stx	$6a                     ; 0x6a <_col>
    4174: 8e 14 d0     	stx	$d014                   ; 0xd014 <__heap_start+0x40fc>
    4177: 9c 15 d0     	stz	$d015                   ; 0xd015 <__heap_start+0x40fd>
    417a: a2 05        	ldx	#$5
    417c: 86 6b        	stx	$6b                     ; 0x6b <_row>
    417e: 8e 16 d0     	stx	$d016                   ; 0xd016 <__heap_start+0x40fe>
    4181: 9c 17 d0     	stz	$d017                   ; 0xd017 <__heap_start+0x40ff>
    4184: ad 7b 8c     	lda	$8c7b                   ; 0x8c7b <chip_enable>
    4187: 92 10        	sta	($10)                   ; 0x10 <__rc0>
    4189: a0 01        	ldy	#$1
    418b: a9 00        	lda	#$0
    418d: 91 10        	sta	($10),y                 ; 0x10 <__rc0>
    418f: a6 7c        	ldx	$7c                     ; 0x7c <__zp_bss_size+0x4c>
    4191: 86 12        	stx	$12                     ; 0x12 <__rc2>
    4193: a6 7d        	ldx	$7d                     ; 0x7d <__zp_bss_size+0x4d>
    4195: 86 13        	stx	$13                     ; 0x13 <__rc3>
    4197: 20 66 7f     	jsr	$7f66 <printf>
    419a: a2 3c        	ldx	#$3c
    419c: 86 6a        	stx	$6a                     ; 0x6a <_col>
    419e: 8e 14 d0     	stx	$d014                   ; 0xd014 <__heap_start+0x40fc>
    41a1: 9c 15 d0     	stz	$d015                   ; 0xd015 <__heap_start+0x40fd>
    41a4: a2 05        	ldx	#$5
    41a6: 86 6b        	stx	$6b                     ; 0x6b <_row>
    41a8: 8e 16 d0     	stx	$d016                   ; 0xd016 <__heap_start+0x40fe>
    41ab: 86 7b        	stx	$7b                     ; 0x7b <__zp_bss_size+0x4b>
    41ad: 9c 17 d0     	stz	$d017                   ; 0xd017 <__heap_start+0x40ff>
    41b0: ad 7c 8c     	lda	$8c7c                   ; 0x8c7c <chip_NOTESEL>
    41b3: 92 10        	sta	($10)                   ; 0x10 <__rc0>
    41b5: a0 01        	ldy	#$1
    41b7: a9 00        	lda	#$0
    41b9: 91 10        	sta	($10),y                 ; 0x10 <__rc0>
    41bb: a6 7c        	ldx	$7c                     ; 0x7c <__zp_bss_size+0x4c>
    41bd: 86 12        	stx	$12                     ; 0x12 <__rc2>
    41bf: a6 7d        	ldx	$7d                     ; 0x7d <__zp_bss_size+0x4d>
    41c1: 86 13        	stx	$13                     ; 0x13 <__rc3>
    41c3: a4 12        	ldy	$12                     ; 0x12 <__rc2>
    41c5: 84 14        	sty	$14                     ; 0x14 <__rc4>
    41c7: 86 15        	stx	$15                     ; 0x15 <__rc5>
    41c9: a6 14        	ldx	$14                     ; 0x14 <__rc4>
    41cb: 86 7c        	stx	$7c                     ; 0x7c <__zp_bss_size+0x4c>
    41cd: a6 15        	ldx	$15                     ; 0x15 <__rc5>
    41cf: 86 7d        	stx	$7d                     ; 0x7d <__zp_bss_size+0x4d>
    41d1: 20 66 7f     	jsr	$7f66 <printf>
    41d4: a2 40        	ldx	#$40
    41d6: 86 6a        	stx	$6a                     ; 0x6a <_col>
    41d8: 8e 14 d0     	stx	$d014                   ; 0xd014 <__heap_start+0x40fc>
    41db: 9c 15 d0     	stz	$d015                   ; 0xd015 <__heap_start+0x40fd>
    41de: a6 7b        	ldx	$7b                     ; 0x7b <__zp_bss_size+0x4b>
    41e0: 86 6b        	stx	$6b                     ; 0x6b <_row>
    41e2: 8e 16 d0     	stx	$d016                   ; 0xd016 <__heap_start+0x40fe>
    41e5: 9c 17 d0     	stz	$d017                   ; 0xd017 <__heap_start+0x40ff>
    41e8: a5 77        	lda	$77                     ; 0x77 <chip_OPL3_PAIRS>
    41ea: 92 10        	sta	($10)                   ; 0x10 <__rc0>
    41ec: a0 01        	ldy	#$1
    41ee: a9 00        	lda	#$0
    41f0: 91 10        	sta	($10),y                 ; 0x10 <__rc0>
    41f2: a6 7c        	ldx	$7c                     ; 0x7c <__zp_bss_size+0x4c>
    41f4: 86 12        	stx	$12                     ; 0x12 <__rc2>
    41f6: a6 7d        	ldx	$7d                     ; 0x7d <__zp_bss_size+0x4d>
    41f8: 86 13        	stx	$13                     ; 0x13 <__rc3>
    41fa: 20 66 7f     	jsr	$7f66 <printf>
    41fd: 18           	clc
    41fe: a5 10        	lda	$10                     ; 0x10 <__rc0>
    4200: 69 02        	adc	#$2
    4202: 85 10        	sta	$10                     ; 0x10 <__rc0>
    4204: a5 11        	lda	$11                     ; 0x11 <__rc1>
    4206: 69 00        	adc	#$0
    4208: 85 11        	sta	$11                     ; 0x11 <__rc1>
    420a: 60           	rts

0000420b <show_inst>:
    420b: 48           	pha
    420c: 18           	clc
    420d: a5 10        	lda	$10                     ; 0x10 <__rc0>
    420f: 69 fe        	adc	#$fe
    4211: 85 10        	sta	$10                     ; 0x10 <__rc0>
    4213: a5 11        	lda	$11                     ; 0x11 <__rc1>
    4215: 69 ff        	adc	#$ff
    4217: 85 11        	sta	$11                     ; 0x11 <__rc1>
    4219: 68           	pla
    421a: 85 12        	sta	$12                     ; 0x12 <__rc2>
    421c: 18           	clc
    421d: 69 05        	adc	#$5
    421f: 85 14        	sta	$14                     ; 0x14 <__rc4>
    4221: a5 12        	lda	$12                     ; 0x12 <__rc2>
    4223: 0a           	asl
    4224: 64 13        	stz	$13                     ; 0x13 <__rc3>
    4226: 26 13        	rol	$13                     ; 0x13 <__rc3>
    4228: 0a           	asl
    4229: 26 13        	rol	$13                     ; 0x13 <__rc3>
    422b: 0a           	asl
    422c: 26 13        	rol	$13                     ; 0x13 <__rc3>
    422e: 0a           	asl
    422f: 26 13        	rol	$13                     ; 0x13 <__rc3>
    4231: 38           	sec
    4232: e5 12        	sbc	$12                     ; 0x12 <__rc2>
    4234: 85 12        	sta	$12                     ; 0x12 <__rc2>
    4236: a5 13        	lda	$13                     ; 0x13 <__rc3>
    4238: e9 00        	sbc	#$0
    423a: 85 13        	sta	$13                     ; 0x13 <__rc3>
    423c: a9 8b        	lda	#$8b
    423e: 18           	clc
    423f: 65 12        	adc	$12                     ; 0x12 <__rc2>
    4241: 85 16        	sta	$16                     ; 0x16 <__rc6>
    4243: a9 8d        	lda	#$8d
    4245: 65 13        	adc	$13                     ; 0x13 <__rc3>
    4247: a2 04        	ldx	#$4
    4249: 86 6a        	stx	$6a                     ; 0x6a <_col>
    424b: 8e 14 d0     	stx	$d014                   ; 0xd014 <__heap_start+0x40fc>
    424e: 9c 15 d0     	stz	$d015                   ; 0xd015 <__heap_start+0x40fd>
    4251: a6 14        	ldx	$14                     ; 0x14 <__rc4>
    4253: 86 82        	stx	$82                     ; 0x82 <__zp_bss_size+0x52>
    4255: 86 6b        	stx	$6b                     ; 0x6b <_row>
    4257: 8e 16 d0     	stx	$d016                   ; 0xd016 <__heap_start+0x40fe>
    425a: 9c 17 d0     	stz	$d017                   ; 0xd017 <__heap_start+0x40ff>
    425d: 85 17        	sta	$17                     ; 0x17 <__rc7>
    425f: a6 16        	ldx	$16                     ; 0x16 <__rc6>
    4261: 86 12        	stx	$12                     ; 0x12 <__rc2>
    4263: 85 13        	sta	$13                     ; 0x13 <__rc3>
    4265: a6 12        	ldx	$12                     ; 0x12 <__rc2>
    4267: 86 7e        	stx	$7e                     ; 0x7e <__zp_bss_size+0x4e>
    4269: a6 13        	ldx	$13                     ; 0x13 <__rc3>
    426b: 86 7f        	stx	$7f                     ; 0x7f <__zp_bss_size+0x4f>
    426d: b2 16        	lda	($16)                   ; 0x16 <__rc6>
    426f: 92 10        	sta	($10)                   ; 0x10 <__rc0>
    4271: a0 01        	ldy	#$1
    4273: a9 00        	lda	#$0
    4275: 91 10        	sta	($10),y                 ; 0x10 <__rc0>
    4277: a2 f0        	ldx	#$f0
    4279: 86 12        	stx	$12                     ; 0x12 <__rc2>
    427b: a2 89        	ldx	#$89
    427d: 86 13        	stx	$13                     ; 0x13 <__rc3>
    427f: a2 f0        	ldx	#$f0
    4281: 86 14        	stx	$14                     ; 0x14 <__rc4>
    4283: a2 89        	ldx	#$89
    4285: 86 15        	stx	$15                     ; 0x15 <__rc5>
    4287: a6 14        	ldx	$14                     ; 0x14 <__rc4>
    4289: 86 80        	stx	$80                     ; 0x80 <__zp_bss_size+0x50>
    428b: a6 15        	ldx	$15                     ; 0x15 <__rc5>
    428d: 86 81        	stx	$81                     ; 0x81 <__zp_bss_size+0x51>
    428f: 20 66 7f     	jsr	$7f66 <printf>
    4292: a2 08        	ldx	#$8
    4294: 86 6a        	stx	$6a                     ; 0x6a <_col>
    4296: 8e 14 d0     	stx	$d014                   ; 0xd014 <__heap_start+0x40fc>
    4299: 9c 15 d0     	stz	$d015                   ; 0xd015 <__heap_start+0x40fd>
    429c: a6 82        	ldx	$82                     ; 0x82 <__zp_bss_size+0x52>
    429e: 86 82        	stx	$82                     ; 0x82 <__zp_bss_size+0x52>
    42a0: 86 6b        	stx	$6b                     ; 0x6b <_row>
    42a2: 8e 16 d0     	stx	$d016                   ; 0xd016 <__heap_start+0x40fe>
    42a5: 9c 17 d0     	stz	$d017                   ; 0xd017 <__heap_start+0x40ff>
    42a8: a0 01        	ldy	#$1
    42aa: a6 7e        	ldx	$7e                     ; 0x7e <__zp_bss_size+0x4e>
    42ac: 86 12        	stx	$12                     ; 0x12 <__rc2>
    42ae: a6 7f        	ldx	$7f                     ; 0x7f <__zp_bss_size+0x4f>
    42b0: 86 13        	stx	$13                     ; 0x13 <__rc3>
    42b2: a5 12        	lda	$12                     ; 0x12 <__rc2>
    42b4: 85 14        	sta	$14                     ; 0x14 <__rc4>
    42b6: 86 15        	stx	$15                     ; 0x15 <__rc5>
    42b8: a6 14        	ldx	$14                     ; 0x14 <__rc4>
    42ba: 86 7e        	stx	$7e                     ; 0x7e <__zp_bss_size+0x4e>
    42bc: a6 15        	ldx	$15                     ; 0x15 <__rc5>
    42be: 86 7f        	stx	$7f                     ; 0x7f <__zp_bss_size+0x4f>
    42c0: b1 12        	lda	($12),y                 ; 0x12 <__rc2>
    42c2: 92 10        	sta	($10)                   ; 0x10 <__rc0>
    42c4: a9 00        	lda	#$0
    42c6: 91 10        	sta	($10),y                 ; 0x10 <__rc0>
    42c8: a6 80        	ldx	$80                     ; 0x80 <__zp_bss_size+0x50>
    42ca: 86 12        	stx	$12                     ; 0x12 <__rc2>
    42cc: a6 81        	ldx	$81                     ; 0x81 <__zp_bss_size+0x51>
    42ce: 86 13        	stx	$13                     ; 0x13 <__rc3>
    42d0: a4 12        	ldy	$12                     ; 0x12 <__rc2>
    42d2: 84 14        	sty	$14                     ; 0x14 <__rc4>
    42d4: 86 15        	stx	$15                     ; 0x15 <__rc5>
    42d6: a4 12        	ldy	$12                     ; 0x12 <__rc2>
    42d8: 84 16        	sty	$16                     ; 0x16 <__rc6>
    42da: 86 17        	stx	$17                     ; 0x17 <__rc7>
    42dc: a6 16        	ldx	$16                     ; 0x16 <__rc6>
    42de: 86 80        	stx	$80                     ; 0x80 <__zp_bss_size+0x50>
    42e0: a6 17        	ldx	$17                     ; 0x17 <__rc7>
    42e2: 86 81        	stx	$81                     ; 0x81 <__zp_bss_size+0x51>
    42e4: a6 14        	ldx	$14                     ; 0x14 <__rc4>
    42e6: 86 80        	stx	$80                     ; 0x80 <__zp_bss_size+0x50>
    42e8: a6 15        	ldx	$15                     ; 0x15 <__rc5>
    42ea: 86 81        	stx	$81                     ; 0x81 <__zp_bss_size+0x51>
    42ec: 20 66 7f     	jsr	$7f66 <printf>
    42ef: a2 0c        	ldx	#$c
    42f1: 86 6a        	stx	$6a                     ; 0x6a <_col>
    42f3: 8e 14 d0     	stx	$d014                   ; 0xd014 <__heap_start+0x40fc>
    42f6: 9c 15 d0     	stz	$d015                   ; 0xd015 <__heap_start+0x40fd>
    42f9: a6 82        	ldx	$82                     ; 0x82 <__zp_bss_size+0x52>
    42fb: 86 82        	stx	$82                     ; 0x82 <__zp_bss_size+0x52>
    42fd: 86 6b        	stx	$6b                     ; 0x6b <_row>
    42ff: 8e 16 d0     	stx	$d016                   ; 0xd016 <__heap_start+0x40fe>
    4302: 9c 17 d0     	stz	$d017                   ; 0xd017 <__heap_start+0x40ff>
    4305: a0 02        	ldy	#$2
    4307: a6 7e        	ldx	$7e                     ; 0x7e <__zp_bss_size+0x4e>
    4309: 86 12        	stx	$12                     ; 0x12 <__rc2>
    430b: a6 7f        	ldx	$7f                     ; 0x7f <__zp_bss_size+0x4f>
    430d: 86 13        	stx	$13                     ; 0x13 <__rc3>
    430f: a5 12        	lda	$12                     ; 0x12 <__rc2>
    4311: 85 14        	sta	$14                     ; 0x14 <__rc4>
    4313: 86 15        	stx	$15                     ; 0x15 <__rc5>
    4315: a6 14        	ldx	$14                     ; 0x14 <__rc4>
    4317: 86 7e        	stx	$7e                     ; 0x7e <__zp_bss_size+0x4e>
    4319: a6 15        	ldx	$15                     ; 0x15 <__rc5>
    431b: 86 7f        	stx	$7f                     ; 0x7f <__zp_bss_size+0x4f>
    431d: b1 12        	lda	($12),y                 ; 0x12 <__rc2>
    431f: 92 10        	sta	($10)                   ; 0x10 <__rc0>
    4321: a9 00        	lda	#$0
    4323: 88           	dey
    4324: 91 10        	sta	($10),y                 ; 0x10 <__rc0>
    4326: a6 80        	ldx	$80                     ; 0x80 <__zp_bss_size+0x50>
    4328: 86 12        	stx	$12                     ; 0x12 <__rc2>
    432a: a6 81        	ldx	$81                     ; 0x81 <__zp_bss_size+0x51>
    432c: 86 13        	stx	$13                     ; 0x13 <__rc3>
    432e: 20 66 7f     	jsr	$7f66 <printf>
    4331: a2 10        	ldx	#$10
    4333: 86 6a        	stx	$6a                     ; 0x6a <_col>
    4335: 8e 14 d0     	stx	$d014                   ; 0xd014 <__heap_start+0x40fc>
    4338: 9c 15 d0     	stz	$d015                   ; 0xd015 <__heap_start+0x40fd>
    433b: a6 82        	ldx	$82                     ; 0x82 <__zp_bss_size+0x52>
    433d: 86 82        	stx	$82                     ; 0x82 <__zp_bss_size+0x52>
    433f: 86 6b        	stx	$6b                     ; 0x6b <_row>
    4341: 8e 16 d0     	stx	$d016                   ; 0xd016 <__heap_start+0x40fe>
    4344: 9c 17 d0     	stz	$d017                   ; 0xd017 <__heap_start+0x40ff>
    4347: a0 03        	ldy	#$3
    4349: a6 7e        	ldx	$7e                     ; 0x7e <__zp_bss_size+0x4e>
    434b: 86 12        	stx	$12                     ; 0x12 <__rc2>
    434d: a6 7f        	ldx	$7f                     ; 0x7f <__zp_bss_size+0x4f>
    434f: 86 13        	stx	$13                     ; 0x13 <__rc3>
    4351: a5 12        	lda	$12                     ; 0x12 <__rc2>
    4353: 85 14        	sta	$14                     ; 0x14 <__rc4>
    4355: 86 15        	stx	$15                     ; 0x15 <__rc5>
    4357: a6 14        	ldx	$14                     ; 0x14 <__rc4>
    4359: 86 7e        	stx	$7e                     ; 0x7e <__zp_bss_size+0x4e>
    435b: a6 15        	ldx	$15                     ; 0x15 <__rc5>
    435d: 86 7f        	stx	$7f                     ; 0x7f <__zp_bss_size+0x4f>
    435f: b1 12        	lda	($12),y                 ; 0x12 <__rc2>
    4361: 92 10        	sta	($10)                   ; 0x10 <__rc0>
    4363: a9 00        	lda	#$0
    4365: a0 01        	ldy	#$1
    4367: 91 10        	sta	($10),y                 ; 0x10 <__rc0>
    4369: a6 80        	ldx	$80                     ; 0x80 <__zp_bss_size+0x50>
    436b: 86 12        	stx	$12                     ; 0x12 <__rc2>
    436d: a6 81        	ldx	$81                     ; 0x81 <__zp_bss_size+0x51>
    436f: 86 13        	stx	$13                     ; 0x13 <__rc3>
    4371: 20 66 7f     	jsr	$7f66 <printf>
    4374: a2 14        	ldx	#$14
    4376: 86 6a        	stx	$6a                     ; 0x6a <_col>
    4378: 8e 14 d0     	stx	$d014                   ; 0xd014 <__heap_start+0x40fc>
    437b: 9c 15 d0     	stz	$d015                   ; 0xd015 <__heap_start+0x40fd>
    437e: a6 82        	ldx	$82                     ; 0x82 <__zp_bss_size+0x52>
    4380: 86 82        	stx	$82                     ; 0x82 <__zp_bss_size+0x52>
    4382: 86 6b        	stx	$6b                     ; 0x6b <_row>
    4384: 8e 16 d0     	stx	$d016                   ; 0xd016 <__heap_start+0x40fe>
    4387: 9c 17 d0     	stz	$d017                   ; 0xd017 <__heap_start+0x40ff>
    438a: a0 04        	ldy	#$4
    438c: a6 7e        	ldx	$7e                     ; 0x7e <__zp_bss_size+0x4e>
    438e: 86 12        	stx	$12                     ; 0x12 <__rc2>
    4390: a6 7f        	ldx	$7f                     ; 0x7f <__zp_bss_size+0x4f>
    4392: 86 13        	stx	$13                     ; 0x13 <__rc3>
    4394: a5 12        	lda	$12                     ; 0x12 <__rc2>
    4396: 85 14        	sta	$14                     ; 0x14 <__rc4>
    4398: 86 15        	stx	$15                     ; 0x15 <__rc5>
    439a: a6 14        	ldx	$14                     ; 0x14 <__rc4>
    439c: 86 7e        	stx	$7e                     ; 0x7e <__zp_bss_size+0x4e>
    439e: a6 15        	ldx	$15                     ; 0x15 <__rc5>
    43a0: 86 7f        	stx	$7f                     ; 0x7f <__zp_bss_size+0x4f>
    43a2: b1 12        	lda	($12),y                 ; 0x12 <__rc2>
    43a4: 92 10        	sta	($10)                   ; 0x10 <__rc0>
    43a6: a9 00        	lda	#$0
    43a8: a0 01        	ldy	#$1
    43aa: 91 10        	sta	($10),y                 ; 0x10 <__rc0>
    43ac: a6 80        	ldx	$80                     ; 0x80 <__zp_bss_size+0x50>
    43ae: 86 12        	stx	$12                     ; 0x12 <__rc2>
    43b0: a6 81        	ldx	$81                     ; 0x81 <__zp_bss_size+0x51>
    43b2: 86 13        	stx	$13                     ; 0x13 <__rc3>
    43b4: a4 12        	ldy	$12                     ; 0x12 <__rc2>
    43b6: 84 14        	sty	$14                     ; 0x14 <__rc4>
    43b8: 86 15        	stx	$15                     ; 0x15 <__rc5>
    43ba: a6 14        	ldx	$14                     ; 0x14 <__rc4>
    43bc: 86 80        	stx	$80                     ; 0x80 <__zp_bss_size+0x50>
    43be: a6 15        	ldx	$15                     ; 0x15 <__rc5>
    43c0: 86 81        	stx	$81                     ; 0x81 <__zp_bss_size+0x51>
    43c2: 20 66 7f     	jsr	$7f66 <printf>
    43c5: a2 18        	ldx	#$18
    43c7: 86 6a        	stx	$6a                     ; 0x6a <_col>
    43c9: 8e 14 d0     	stx	$d014                   ; 0xd014 <__heap_start+0x40fc>
    43cc: 9c 15 d0     	stz	$d015                   ; 0xd015 <__heap_start+0x40fd>
    43cf: a6 82        	ldx	$82                     ; 0x82 <__zp_bss_size+0x52>
    43d1: 86 82        	stx	$82                     ; 0x82 <__zp_bss_size+0x52>
    43d3: 86 6b        	stx	$6b                     ; 0x6b <_row>
    43d5: 8e 16 d0     	stx	$d016                   ; 0xd016 <__heap_start+0x40fe>
    43d8: 9c 17 d0     	stz	$d017                   ; 0xd017 <__heap_start+0x40ff>
    43db: a0 05        	ldy	#$5
    43dd: a6 7e        	ldx	$7e                     ; 0x7e <__zp_bss_size+0x4e>
    43df: 86 12        	stx	$12                     ; 0x12 <__rc2>
    43e1: a6 7f        	ldx	$7f                     ; 0x7f <__zp_bss_size+0x4f>
    43e3: 86 13        	stx	$13                     ; 0x13 <__rc3>
    43e5: a5 12        	lda	$12                     ; 0x12 <__rc2>
    43e7: 85 14        	sta	$14                     ; 0x14 <__rc4>
    43e9: 86 15        	stx	$15                     ; 0x15 <__rc5>
    43eb: a6 14        	ldx	$14                     ; 0x14 <__rc4>
    43ed: 86 7e        	stx	$7e                     ; 0x7e <__zp_bss_size+0x4e>
    43ef: a6 15        	ldx	$15                     ; 0x15 <__rc5>
    43f1: 86 7f        	stx	$7f                     ; 0x7f <__zp_bss_size+0x4f>
    43f3: b1 12        	lda	($12),y                 ; 0x12 <__rc2>
    43f5: 92 10        	sta	($10)                   ; 0x10 <__rc0>
    43f7: a9 00        	lda	#$0
    43f9: a0 01        	ldy	#$1
    43fb: 91 10        	sta	($10),y                 ; 0x10 <__rc0>
    43fd: a6 80        	ldx	$80                     ; 0x80 <__zp_bss_size+0x50>
    43ff: 86 12        	stx	$12                     ; 0x12 <__rc2>
    4401: a6 81        	ldx	$81                     ; 0x81 <__zp_bss_size+0x51>
    4403: 86 13        	stx	$13                     ; 0x13 <__rc3>
    4405: a4 12        	ldy	$12                     ; 0x12 <__rc2>
    4407: 84 14        	sty	$14                     ; 0x14 <__rc4>
    4409: 86 15        	stx	$15                     ; 0x15 <__rc5>
    440b: a6 14        	ldx	$14                     ; 0x14 <__rc4>
    440d: 86 80        	stx	$80                     ; 0x80 <__zp_bss_size+0x50>
    440f: a6 15        	ldx	$15                     ; 0x15 <__rc5>
    4411: 86 81        	stx	$81                     ; 0x81 <__zp_bss_size+0x51>
    4413: 20 66 7f     	jsr	$7f66 <printf>
    4416: a2 1c        	ldx	#$1c
    4418: 86 6a        	stx	$6a                     ; 0x6a <_col>
    441a: 8e 14 d0     	stx	$d014                   ; 0xd014 <__heap_start+0x40fc>
    441d: 9c 15 d0     	stz	$d015                   ; 0xd015 <__heap_start+0x40fd>
    4420: a6 82        	ldx	$82                     ; 0x82 <__zp_bss_size+0x52>
    4422: 86 82        	stx	$82                     ; 0x82 <__zp_bss_size+0x52>
    4424: 86 6b        	stx	$6b                     ; 0x6b <_row>
    4426: 8e 16 d0     	stx	$d016                   ; 0xd016 <__heap_start+0x40fe>
    4429: 9c 17 d0     	stz	$d017                   ; 0xd017 <__heap_start+0x40ff>
    442c: a0 06        	ldy	#$6
    442e: a6 7e        	ldx	$7e                     ; 0x7e <__zp_bss_size+0x4e>
    4430: 86 12        	stx	$12                     ; 0x12 <__rc2>
    4432: a6 7f        	ldx	$7f                     ; 0x7f <__zp_bss_size+0x4f>
    4434: 86 13        	stx	$13                     ; 0x13 <__rc3>
    4436: a5 12        	lda	$12                     ; 0x12 <__rc2>
    4438: 85 14        	sta	$14                     ; 0x14 <__rc4>
    443a: 86 15        	stx	$15                     ; 0x15 <__rc5>
    443c: a6 14        	ldx	$14                     ; 0x14 <__rc4>
    443e: 86 7e        	stx	$7e                     ; 0x7e <__zp_bss_size+0x4e>
    4440: a6 15        	ldx	$15                     ; 0x15 <__rc5>
    4442: 86 7f        	stx	$7f                     ; 0x7f <__zp_bss_size+0x4f>
    4444: b1 12        	lda	($12),y                 ; 0x12 <__rc2>
    4446: 92 10        	sta	($10)                   ; 0x10 <__rc0>
    4448: a9 00        	lda	#$0
    444a: a0 01        	ldy	#$1
    444c: 91 10        	sta	($10),y                 ; 0x10 <__rc0>
    444e: a6 80        	ldx	$80                     ; 0x80 <__zp_bss_size+0x50>
    4450: 86 12        	stx	$12                     ; 0x12 <__rc2>
    4452: a6 81        	ldx	$81                     ; 0x81 <__zp_bss_size+0x51>
    4454: 86 13        	stx	$13                     ; 0x13 <__rc3>
    4456: a4 12        	ldy	$12                     ; 0x12 <__rc2>
    4458: 84 14        	sty	$14                     ; 0x14 <__rc4>
    445a: 86 15        	stx	$15                     ; 0x15 <__rc5>
    445c: a6 14        	ldx	$14                     ; 0x14 <__rc4>
    445e: 86 80        	stx	$80                     ; 0x80 <__zp_bss_size+0x50>
    4460: a6 15        	ldx	$15                     ; 0x15 <__rc5>
    4462: 86 81        	stx	$81                     ; 0x81 <__zp_bss_size+0x51>
    4464: 20 66 7f     	jsr	$7f66 <printf>
    4467: a2 20        	ldx	#$20
    4469: 86 6a        	stx	$6a                     ; 0x6a <_col>
    446b: 8e 14 d0     	stx	$d014                   ; 0xd014 <__heap_start+0x40fc>
    446e: 9c 15 d0     	stz	$d015                   ; 0xd015 <__heap_start+0x40fd>
    4471: a6 82        	ldx	$82                     ; 0x82 <__zp_bss_size+0x52>
    4473: 86 82        	stx	$82                     ; 0x82 <__zp_bss_size+0x52>
    4475: 86 6b        	stx	$6b                     ; 0x6b <_row>
    4477: 8e 16 d0     	stx	$d016                   ; 0xd016 <__heap_start+0x40fe>
    447a: 9c 17 d0     	stz	$d017                   ; 0xd017 <__heap_start+0x40ff>
    447d: a0 07        	ldy	#$7
    447f: a6 7e        	ldx	$7e                     ; 0x7e <__zp_bss_size+0x4e>
    4481: 86 12        	stx	$12                     ; 0x12 <__rc2>
    4483: a6 7f        	ldx	$7f                     ; 0x7f <__zp_bss_size+0x4f>
    4485: 86 13        	stx	$13                     ; 0x13 <__rc3>
    4487: a5 12        	lda	$12                     ; 0x12 <__rc2>
    4489: 85 14        	sta	$14                     ; 0x14 <__rc4>
    448b: 86 15        	stx	$15                     ; 0x15 <__rc5>
    448d: a6 14        	ldx	$14                     ; 0x14 <__rc4>
    448f: 86 7e        	stx	$7e                     ; 0x7e <__zp_bss_size+0x4e>
    4491: a6 15        	ldx	$15                     ; 0x15 <__rc5>
    4493: 86 7f        	stx	$7f                     ; 0x7f <__zp_bss_size+0x4f>
    4495: b1 12        	lda	($12),y                 ; 0x12 <__rc2>
    4497: 92 10        	sta	($10)                   ; 0x10 <__rc0>
    4499: a9 00        	lda	#$0
    449b: a0 01        	ldy	#$1
    449d: 91 10        	sta	($10),y                 ; 0x10 <__rc0>
    449f: a6 80        	ldx	$80                     ; 0x80 <__zp_bss_size+0x50>
    44a1: 86 12        	stx	$12                     ; 0x12 <__rc2>
    44a3: a6 81        	ldx	$81                     ; 0x81 <__zp_bss_size+0x51>
    44a5: 86 13        	stx	$13                     ; 0x13 <__rc3>
    44a7: a4 12        	ldy	$12                     ; 0x12 <__rc2>
    44a9: 84 14        	sty	$14                     ; 0x14 <__rc4>
    44ab: 86 15        	stx	$15                     ; 0x15 <__rc5>
    44ad: a6 14        	ldx	$14                     ; 0x14 <__rc4>
    44af: 86 80        	stx	$80                     ; 0x80 <__zp_bss_size+0x50>
    44b1: a6 15        	ldx	$15                     ; 0x15 <__rc5>
    44b3: 86 81        	stx	$81                     ; 0x81 <__zp_bss_size+0x51>
    44b5: 20 66 7f     	jsr	$7f66 <printf>
    44b8: a2 24        	ldx	#$24
    44ba: 86 6a        	stx	$6a                     ; 0x6a <_col>
    44bc: 8e 14 d0     	stx	$d014                   ; 0xd014 <__heap_start+0x40fc>
    44bf: 9c 15 d0     	stz	$d015                   ; 0xd015 <__heap_start+0x40fd>
    44c2: a6 82        	ldx	$82                     ; 0x82 <__zp_bss_size+0x52>
    44c4: 86 82        	stx	$82                     ; 0x82 <__zp_bss_size+0x52>
    44c6: 86 6b        	stx	$6b                     ; 0x6b <_row>
    44c8: 8e 16 d0     	stx	$d016                   ; 0xd016 <__heap_start+0x40fe>
    44cb: 9c 17 d0     	stz	$d017                   ; 0xd017 <__heap_start+0x40ff>
    44ce: a0 08        	ldy	#$8
    44d0: a6 7e        	ldx	$7e                     ; 0x7e <__zp_bss_size+0x4e>
    44d2: 86 14        	stx	$14                     ; 0x14 <__rc4>
    44d4: a6 7f        	ldx	$7f                     ; 0x7f <__zp_bss_size+0x4f>
    44d6: 86 15        	stx	$15                     ; 0x15 <__rc5>
    44d8: b1 14        	lda	($14),y                 ; 0x14 <__rc4>
    44da: a4 14        	ldy	$14                     ; 0x14 <__rc4>
    44dc: 84 12        	sty	$12                     ; 0x12 <__rc2>
    44de: 86 13        	stx	$13                     ; 0x13 <__rc3>
    44e0: a6 14        	ldx	$14                     ; 0x14 <__rc4>
    44e2: 86 7e        	stx	$7e                     ; 0x7e <__zp_bss_size+0x4e>
    44e4: a6 15        	ldx	$15                     ; 0x15 <__rc5>
    44e6: 86 7f        	stx	$7f                     ; 0x7f <__zp_bss_size+0x4f>
    44e8: a6 12        	ldx	$12                     ; 0x12 <__rc2>
    44ea: 86 7e        	stx	$7e                     ; 0x7e <__zp_bss_size+0x4e>
    44ec: a6 13        	ldx	$13                     ; 0x13 <__rc3>
    44ee: 86 7f        	stx	$7f                     ; 0x7f <__zp_bss_size+0x4f>
    44f0: 92 10        	sta	($10)                   ; 0x10 <__rc0>
    44f2: a9 00        	lda	#$0
    44f4: a0 01        	ldy	#$1
    44f6: 91 10        	sta	($10),y                 ; 0x10 <__rc0>
    44f8: a6 80        	ldx	$80                     ; 0x80 <__zp_bss_size+0x50>
    44fa: 86 12        	stx	$12                     ; 0x12 <__rc2>
    44fc: a6 81        	ldx	$81                     ; 0x81 <__zp_bss_size+0x51>
    44fe: 86 13        	stx	$13                     ; 0x13 <__rc3>
    4500: a4 12        	ldy	$12                     ; 0x12 <__rc2>
    4502: 84 14        	sty	$14                     ; 0x14 <__rc4>
    4504: 86 15        	stx	$15                     ; 0x15 <__rc5>
    4506: a6 14        	ldx	$14                     ; 0x14 <__rc4>
    4508: 86 80        	stx	$80                     ; 0x80 <__zp_bss_size+0x50>
    450a: a6 15        	ldx	$15                     ; 0x15 <__rc5>
    450c: 86 81        	stx	$81                     ; 0x81 <__zp_bss_size+0x51>
    450e: 20 66 7f     	jsr	$7f66 <printf>
    4511: a2 28        	ldx	#$28
    4513: 86 6a        	stx	$6a                     ; 0x6a <_col>
    4515: 8e 14 d0     	stx	$d014                   ; 0xd014 <__heap_start+0x40fc>
    4518: 9c 15 d0     	stz	$d015                   ; 0xd015 <__heap_start+0x40fd>
    451b: a6 82        	ldx	$82                     ; 0x82 <__zp_bss_size+0x52>
    451d: 86 82        	stx	$82                     ; 0x82 <__zp_bss_size+0x52>
    451f: 86 6b        	stx	$6b                     ; 0x6b <_row>
    4521: 8e 16 d0     	stx	$d016                   ; 0xd016 <__heap_start+0x40fe>
    4524: 9c 17 d0     	stz	$d017                   ; 0xd017 <__heap_start+0x40ff>
    4527: a0 09        	ldy	#$9
    4529: a6 7e        	ldx	$7e                     ; 0x7e <__zp_bss_size+0x4e>
    452b: 86 12        	stx	$12                     ; 0x12 <__rc2>
    452d: a6 7f        	ldx	$7f                     ; 0x7f <__zp_bss_size+0x4f>
    452f: 86 13        	stx	$13                     ; 0x13 <__rc3>
    4531: b1 12        	lda	($12),y                 ; 0x12 <__rc2>
    4533: 92 10        	sta	($10)                   ; 0x10 <__rc0>
    4535: a9 00        	lda	#$0
    4537: a0 01        	ldy	#$1
    4539: 91 10        	sta	($10),y                 ; 0x10 <__rc0>
    453b: a6 80        	ldx	$80                     ; 0x80 <__zp_bss_size+0x50>
    453d: 86 12        	stx	$12                     ; 0x12 <__rc2>
    453f: a6 81        	ldx	$81                     ; 0x81 <__zp_bss_size+0x51>
    4541: 86 13        	stx	$13                     ; 0x13 <__rc3>
    4543: a4 12        	ldy	$12                     ; 0x12 <__rc2>
    4545: 84 14        	sty	$14                     ; 0x14 <__rc4>
    4547: 86 15        	stx	$15                     ; 0x15 <__rc5>
    4549: a6 14        	ldx	$14                     ; 0x14 <__rc4>
    454b: 86 80        	stx	$80                     ; 0x80 <__zp_bss_size+0x50>
    454d: a6 15        	ldx	$15                     ; 0x15 <__rc5>
    454f: 86 81        	stx	$81                     ; 0x81 <__zp_bss_size+0x51>
    4551: 20 66 7f     	jsr	$7f66 <printf>
    4554: a2 2c        	ldx	#$2c
    4556: 86 6a        	stx	$6a                     ; 0x6a <_col>
    4558: 8e 14 d0     	stx	$d014                   ; 0xd014 <__heap_start+0x40fc>
    455b: 9c 15 d0     	stz	$d015                   ; 0xd015 <__heap_start+0x40fd>
    455e: a6 82        	ldx	$82                     ; 0x82 <__zp_bss_size+0x52>
    4560: 86 82        	stx	$82                     ; 0x82 <__zp_bss_size+0x52>
    4562: 86 6b        	stx	$6b                     ; 0x6b <_row>
    4564: 8e 16 d0     	stx	$d016                   ; 0xd016 <__heap_start+0x40fe>
    4567: 9c 17 d0     	stz	$d017                   ; 0xd017 <__heap_start+0x40ff>
    456a: a0 0a        	ldy	#$a
    456c: a6 7e        	ldx	$7e                     ; 0x7e <__zp_bss_size+0x4e>
    456e: 86 12        	stx	$12                     ; 0x12 <__rc2>
    4570: a6 7f        	ldx	$7f                     ; 0x7f <__zp_bss_size+0x4f>
    4572: 86 13        	stx	$13                     ; 0x13 <__rc3>
    4574: b1 12        	lda	($12),y                 ; 0x12 <__rc2>
    4576: 92 10        	sta	($10)                   ; 0x10 <__rc0>
    4578: a9 00        	lda	#$0
    457a: a0 01        	ldy	#$1
    457c: 91 10        	sta	($10),y                 ; 0x10 <__rc0>
    457e: a6 80        	ldx	$80                     ; 0x80 <__zp_bss_size+0x50>
    4580: 86 12        	stx	$12                     ; 0x12 <__rc2>
    4582: a6 81        	ldx	$81                     ; 0x81 <__zp_bss_size+0x51>
    4584: 86 13        	stx	$13                     ; 0x13 <__rc3>
    4586: a4 12        	ldy	$12                     ; 0x12 <__rc2>
    4588: 84 14        	sty	$14                     ; 0x14 <__rc4>
    458a: 86 15        	stx	$15                     ; 0x15 <__rc5>
    458c: a6 14        	ldx	$14                     ; 0x14 <__rc4>
    458e: 86 80        	stx	$80                     ; 0x80 <__zp_bss_size+0x50>
    4590: a6 15        	ldx	$15                     ; 0x15 <__rc5>
    4592: 86 81        	stx	$81                     ; 0x81 <__zp_bss_size+0x51>
    4594: 20 66 7f     	jsr	$7f66 <printf>
    4597: a2 30        	ldx	#$30
    4599: 86 6a        	stx	$6a                     ; 0x6a <_col>
    459b: 8e 14 d0     	stx	$d014                   ; 0xd014 <__heap_start+0x40fc>
    459e: 9c 15 d0     	stz	$d015                   ; 0xd015 <__heap_start+0x40fd>
    45a1: a6 82        	ldx	$82                     ; 0x82 <__zp_bss_size+0x52>
    45a3: 86 6b        	stx	$6b                     ; 0x6b <_row>
    45a5: 8e 16 d0     	stx	$d016                   ; 0xd016 <__heap_start+0x40fe>
    45a8: 9c 17 d0     	stz	$d017                   ; 0xd017 <__heap_start+0x40ff>
    45ab: a0 0c        	ldy	#$c
    45ad: a6 7e        	ldx	$7e                     ; 0x7e <__zp_bss_size+0x4e>
    45af: 86 12        	stx	$12                     ; 0x12 <__rc2>
    45b1: a6 7f        	ldx	$7f                     ; 0x7f <__zp_bss_size+0x4f>
    45b3: 86 13        	stx	$13                     ; 0x13 <__rc3>
    45b5: b1 12        	lda	($12),y                 ; 0x12 <__rc2>
    45b7: 92 10        	sta	($10)                   ; 0x10 <__rc0>
    45b9: a9 00        	lda	#$0
    45bb: a0 01        	ldy	#$1
    45bd: 91 10        	sta	($10),y                 ; 0x10 <__rc0>
    45bf: a6 80        	ldx	$80                     ; 0x80 <__zp_bss_size+0x50>
    45c1: 86 12        	stx	$12                     ; 0x12 <__rc2>
    45c3: a6 81        	ldx	$81                     ; 0x81 <__zp_bss_size+0x51>
    45c5: 86 13        	stx	$13                     ; 0x13 <__rc3>
    45c7: 20 66 7f     	jsr	$7f66 <printf>
    45ca: 18           	clc
    45cb: a5 10        	lda	$10                     ; 0x10 <__rc0>
    45cd: 69 02        	adc	#$2
    45cf: 85 10        	sta	$10                     ; 0x10 <__rc0>
    45d1: a5 11        	lda	$11                     ; 0x11 <__rc1>
    45d3: 69 00        	adc	#$0
    45d5: 85 11        	sta	$11                     ; 0x11 <__rc1>
    45d7: 60           	rts

000045d8 <FAR_PEEK>:
    45d8: 85 14        	sta	$14                     ; 0x14 <__rc4>
    45da: da           	phx
    45db: 7a           	ply
    45dc: a5 12        	lda	$12                     ; 0x12 <__rc2>
    45de: a6 0f        	ldx	$f                      ; 0xf <__data_size+0xf>
    45e0: 78           	sei
    45e1: 84 12        	sty	$12                     ; 0x12 <__rc2>
    45e3: 06 12        	asl	$12                     ; 0x12 <__rc2>
    45e5: 2a           	rol
    45e6: 06 12        	asl	$12                     ; 0x12 <__rc2>
    45e8: 2a           	rol
    45e9: 06 12        	asl	$12                     ; 0x12 <__rc2>
    45eb: 2a           	rol
    45ec: 85 0f        	sta	$f                      ; 0xf <__data_size+0xf>
    45ee: 98           	tya
    45ef: 09 e0        	ora	#$e0
    45f1: 85 15        	sta	$15                     ; 0x15 <__rc5>
    45f3: b2 14        	lda	($14)                   ; 0x14 <__rc4>
    45f5: 86 0f        	stx	$f                      ; 0xf <__data_size+0xf>
    45f7: 58           	cli
    45f8: 60           	rts

000045f9 <FAR_PEEKW>:
    45f9: 85 14        	sta	$14                     ; 0x14 <__rc4>
    45fb: da           	phx
    45fc: 7a           	ply
    45fd: a5 12        	lda	$12                     ; 0x12 <__rc2>
    45ff: a6 0f        	ldx	$f                      ; 0xf <__data_size+0xf>
    4601: 78           	sei
    4602: 84 12        	sty	$12                     ; 0x12 <__rc2>
    4604: 06 12        	asl	$12                     ; 0x12 <__rc2>
    4606: 2a           	rol
    4607: 06 12        	asl	$12                     ; 0x12 <__rc2>
    4609: 2a           	rol
    460a: 06 12        	asl	$12                     ; 0x12 <__rc2>
    460c: 2a           	rol
    460d: 85 0f        	sta	$f                      ; 0xf <__data_size+0xf>
    460f: 98           	tya
    4610: 09 e0        	ora	#$e0
    4612: 85 15        	sta	$15                     ; 0x15 <__rc5>
    4614: b2 14        	lda	($14)                   ; 0x14 <__rc4>
    4616: 85 12        	sta	$12                     ; 0x12 <__rc2>
    4618: a0 01        	ldy	#$1
    461a: b1 14        	lda	($14),y                 ; 0x14 <__rc4>
    461c: 86 0f        	stx	$f                      ; 0xf <__data_size+0xf>
    461e: 58           	cli
    461f: aa           	tax
    4620: a5 12        	lda	$12                     ; 0x12 <__rc2>
    4622: 60           	rts

00004623 <FAR_POKE>:
    4623: 85 16        	sta	$16                     ; 0x16 <__rc6>
    4625: da           	phx
    4626: 7a           	ply
    4627: a5 12        	lda	$12                     ; 0x12 <__rc2>
    4629: a6 0f        	ldx	$f                      ; 0xf <__data_size+0xf>
    462b: 78           	sei
    462c: 84 12        	sty	$12                     ; 0x12 <__rc2>
    462e: 06 12        	asl	$12                     ; 0x12 <__rc2>
    4630: 2a           	rol
    4631: 06 12        	asl	$12                     ; 0x12 <__rc2>
    4633: 2a           	rol
    4634: 06 12        	asl	$12                     ; 0x12 <__rc2>
    4636: 2a           	rol
    4637: 85 0f        	sta	$f                      ; 0xf <__data_size+0xf>
    4639: 98           	tya
    463a: 09 e0        	ora	#$e0
    463c: 85 17        	sta	$17                     ; 0x17 <__rc7>
    463e: a5 14        	lda	$14                     ; 0x14 <__rc4>
    4640: 92 16        	sta	($16)                   ; 0x16 <__rc6>
    4642: 86 0f        	stx	$f                      ; 0xf <__data_size+0xf>
    4644: 58           	cli
    4645: 60           	rts

00004646 <FAR_POKEW>:
    4646: 85 12        	sta	$12                     ; 0x12 <__rc2>
    4648: 8a           	txa
    4649: a6 0f        	ldx	$f                      ; 0xf <__data_size+0xf>
    464b: 78           	sei
    464c: a0 1a        	ldy	#$1a
    464e: 84 0f        	sty	$f                      ; 0xf <__data_size+0xf>
    4650: 09 e0        	ora	#$e0
    4652: 85 13        	sta	$13                     ; 0x13 <__rc3>
    4654: a5 14        	lda	$14                     ; 0x14 <__rc4>
    4656: 92 12        	sta	($12)                   ; 0x12 <__rc2>
    4658: a0 01        	ldy	#$1
    465a: a5 15        	lda	$15                     ; 0x15 <__rc5>
    465c: 91 12        	sta	($12),y                 ; 0x12 <__rc2>
    465e: 86 0f        	stx	$f                      ; 0xf <__data_size+0xf>
    4660: 58           	cli
    4661: 60           	rts

00004662 <main>:
    4662: 18           	clc
    4663: a5 10        	lda	$10                     ; 0x10 <__rc0>
    4665: 69 b0        	adc	#$b0
    4667: 85 10        	sta	$10                     ; 0x10 <__rc0>
    4669: a5 11        	lda	$11                     ; 0x11 <__rc1>
    466b: 69 fe        	adc	#$fe
    466d: 85 11        	sta	$11                     ; 0x11 <__rc1>
    466f: a6 24        	ldx	$24                     ; 0x24 <__rc20>
    4671: da           	phx
    4672: a6 25        	ldx	$25                     ; 0x25 <__rc21>
    4674: da           	phx
    4675: a6 26        	ldx	$26                     ; 0x26 <__rc22>
    4677: da           	phx
    4678: a6 27        	ldx	$27                     ; 0x27 <__rc23>
    467a: da           	phx
    467b: a5 28        	lda	$28                     ; 0x28 <__rc24>
    467d: a0 0b        	ldy	#$b
    467f: 91 10        	sta	($10),y                 ; 0x10 <__rc0>
    4681: a5 29        	lda	$29                     ; 0x29 <__rc25>
    4683: 88           	dey
    4684: 91 10        	sta	($10),y                 ; 0x10 <__rc0>
    4686: a5 2a        	lda	$2a                     ; 0x2a <__rc26>
    4688: 88           	dey
    4689: 91 10        	sta	($10),y                 ; 0x10 <__rc0>
    468b: a5 2b        	lda	$2b                     ; 0x2b <__rc27>
    468d: 88           	dey
    468e: 91 10        	sta	($10),y                 ; 0x10 <__rc0>
    4690: a5 2c        	lda	$2c                     ; 0x2c <__rc28>
    4692: 88           	dey
    4693: 91 10        	sta	($10),y                 ; 0x10 <__rc0>
    4695: a5 2d        	lda	$2d                     ; 0x2d <__rc29>
    4697: 88           	dey
    4698: 91 10        	sta	($10),y                 ; 0x10 <__rc0>
    469a: a5 2e        	lda	$2e                     ; 0x2e <__rc30>
    469c: 88           	dey
    469d: 91 10        	sta	($10),y                 ; 0x10 <__rc0>
    469f: a5 2f        	lda	$2f                     ; 0x2f <__rc31>
    46a1: 88           	dey
    46a2: 91 10        	sta	($10),y                 ; 0x10 <__rc0>
    46a4: a2 99        	ldx	#$99
    46a6: 86 27        	stx	$27                     ; 0x27 <__rc23>
    46a8: a2 8e        	ldx	#$8e
    46aa: 86 28        	stx	$28                     ; 0x28 <__rc24>
    46ac: a2 82        	ldx	#$82
    46ae: 86 12        	stx	$12                     ; 0x12 <__rc2>
    46b0: a2 d5        	ldx	#$d5
    46b2: 86 13        	stx	$13                     ; 0x13 <__rc3>
    46b4: a5 12        	lda	$12                     ; 0x12 <__rc2>
    46b6: a0 18        	ldy	#$18
    46b8: 91 10        	sta	($10),y                 ; 0x10 <__rc0>
    46ba: a5 13        	lda	$13                     ; 0x13 <__rc3>
    46bc: c8           	iny
    46bd: 91 10        	sta	($10),y                 ; 0x10 <__rc0>
    46bf: a2 80        	ldx	#$80
    46c1: 86 12        	stx	$12                     ; 0x12 <__rc2>
    46c3: a2 d5        	ldx	#$d5
    46c5: 86 13        	stx	$13                     ; 0x13 <__rc3>
    46c7: a5 12        	lda	$12                     ; 0x12 <__rc2>
    46c9: a0 16        	ldy	#$16
    46cb: 91 10        	sta	($10),y                 ; 0x10 <__rc0>
    46cd: a5 13        	lda	$13                     ; 0x13 <__rc3>
    46cf: c8           	iny
    46d0: 91 10        	sta	($10),y                 ; 0x10 <__rc0>
    46d2: 64 16        	stz	$16                     ; 0x16 <__rc6>
    46d4: a2 00        	ldx	#$0
    46d6: 86 12        	stx	$12                     ; 0x12 <__rc2>
    46d8: a2 c0        	ldx	#$c0
    46da: 86 13        	stx	$13                     ; 0x13 <__rc3>
    46dc: 64 01        	stz	$1                      ; 0x1 <__data_size+0x1>
    46de: a2 3f        	ldx	#$3f
    46e0: 8e 00 d0     	stx	$d000                   ; 0xd000 <__heap_start+0x40e8>
    46e3: a2 b3        	ldx	#$b3
    46e5: 86 00        	stx	$0                      ; 0x0 <__data_size>
    46e7: 64 08        	stz	$8                      ; 0x8 <__data_size+0x8>
    46e9: a2 01        	ldx	#$1
    46eb: 86 09        	stx	$9                      ; 0x9 <__data_size+0x9>
    46ed: e8           	inx
    46ee: 86 0a        	stx	$a                      ; 0xa <__data_size+0xa>
    46f0: e8           	inx
    46f1: 86 0b        	stx	$b                      ; 0xb <__data_size+0xb>
    46f3: e8           	inx
    46f4: 86 0c        	stx	$c                      ; 0xc <__data_size+0xc>
    46f6: e8           	inx
    46f7: 86 0d        	stx	$d                      ; 0xd <__data_size+0xd>
    46f9: a2 62        	ldx	#$62
    46fb: 86 f0        	stx	$f0                     ; 0xf0 <__zp_bss_size+0xc0>
    46fd: a2 00        	ldx	#$0
    46ff: 86 f1        	stx	$f1                     ; 0xf1 <__zp_bss_size+0xc1>
    4701: a2 00        	ldx	#$0
    4703: 86 17        	stx	$17                     ; 0x17 <__rc7>
    4705: ca           	dex
    4706: 86 18        	stx	$18                     ; 0x18 <__rc8>
    4708: 8a           	txa
    4709: 0a           	asl
    470a: 0a           	asl
    470b: 18           	clc
    470c: 69 d4        	adc	#$d4
    470e: 85 19        	sta	$19                     ; 0x19 <__rc9>
    4710: a0 00        	ldy	#$0
    4712: 64 1d        	stz	$1d                     ; 0x1d <__rc13>
    4714: 64 15        	stz	$15                     ; 0x15 <__rc5>
    4716: a6 18        	ldx	$18                     ; 0x18 <__rc8>
    4718: e0 03        	cpx	#$3
    471a: a6 01        	ldx	$1                      ; 0x1 <__data_size+0x1>
    471c: 86 1b        	stx	$1b                     ; 0x1b <__zp_data_size>
    471e: a2 d0        	ldx	#$d0
    4720: 84 1a        	sty	$1a                     ; 0x1a <__rc10>
    4722: b0 02        	bcs	$4726 <main+0xc4>
    4724: a6 19        	ldx	$19                     ; 0x19 <__rc9>
    4726: 86 14        	stx	$14                     ; 0x14 <__rc4>
    4728: a5 1d        	lda	$1d                     ; 0x1d <__rc13>
    472a: 18           	clc
    472b: 65 16        	adc	$16                     ; 0x16 <__rc6>
    472d: a8           	tay
    472e: a6 15        	ldx	$15                     ; 0x15 <__rc5>
    4730: 86 1c        	stx	$1c                     ; 0x1c <__rc12>
    4732: a5 15        	lda	$15                     ; 0x15 <__rc5>
    4734: 65 14        	adc	$14                     ; 0x14 <__rc4>
    4736: 84 14        	sty	$14                     ; 0x14 <__rc4>
    4738: a0 01        	ldy	#$1
    473a: 84 01        	sty	$1                      ; 0x1 <__data_size+0x1>
    473c: 85 15        	sta	$15                     ; 0x15 <__rc5>
    473e: a5 1a        	lda	$1a                     ; 0x1a <__rc10>
    4740: 92 14        	sta	($14)                   ; 0x14 <__rc4>
    4742: 91 14        	sta	($14),y                 ; 0x14 <__rc4>
    4744: c8           	iny
    4745: 91 14        	sta	($14),y                 ; 0x14 <__rc4>
    4747: c8           	iny
    4748: a9 ff        	lda	#$ff
    474a: 91 14        	sta	($14),y                 ; 0x14 <__rc4>
    474c: a5 1d        	lda	$1d                     ; 0x1d <__rc13>
    474e: a6 1b        	ldx	$1b                     ; 0x1b <__zp_data_size>
    4750: 86 01        	stx	$1                      ; 0x1 <__data_size+0x1>
    4752: 18           	clc
    4753: 69 04        	adc	#$4
    4755: 85 1d        	sta	$1d                     ; 0x1d <__rc13>
    4757: a5 1c        	lda	$1c                     ; 0x1c <__rc12>
    4759: 69 00        	adc	#$0
    475b: e6 1a        	inc	$1a                     ; 0x1a <__rc10>
    475d: a4 1a        	ldy	$1a                     ; 0x1a <__rc10>
    475f: 85 15        	sta	$15                     ; 0x15 <__rc5>
    4761: c9 04        	cmp	#$4
    4763: d0 b1        	bne	$4716 <main+0xb4>
    4765: a5 1d        	lda	$1d                     ; 0x1d <__rc13>
    4767: f0 03        	beq	$476c <main+0x10a>
    4769: 4c 16 47     	jmp	$4716 <main+0xb4>
    476c: a6 17        	ldx	$17                     ; 0x17 <__rc7>
    476e: e8           	inx
    476f: e0 04        	cpx	#$4
    4771: f0 03        	beq	$4776 <main+0x114>
    4773: 4c 03 47     	jmp	$4703 <main+0xa1>
    4776: a9 00        	lda	#$0
    4778: a0 10        	ldy	#$10
    477a: 91 10        	sta	($10),y                 ; 0x10 <__rc0>
    477c: ad 02 d0     	lda	$d002                   ; 0xd002 <__heap_start+0x40ea>
    477f: a2 f0        	ldx	#$f0
    4781: 29 f0        	and	#$f0
    4783: 8d 02 d0     	sta	$d002                   ; 0xd002 <__heap_start+0x40ea>
    4786: ad 02 d0     	lda	$d002                   ; 0xd002 <__heap_start+0x40ea>
    4789: 29 0f        	and	#$f
    478b: 09 10        	ora	#$10
    478d: 8d 02 d0     	sta	$d002                   ; 0xd002 <__heap_start+0x40ea>
    4790: a0 02        	ldy	#$2
    4792: 8c 03 d0     	sty	$d003                   ; 0xd003 <__heap_start+0x40eb>
    4795: 86 34        	stx	$34                     ; 0x34 <_ccolor>
    4797: ad 01 d0     	lda	$d001                   ; 0xd001 <__heap_start+0x40e9>
    479a: 29 f9        	and	#$f9
    479c: 09 04        	ora	#$4
    479e: 8d 01 d0     	sta	$d001                   ; 0xd001 <__heap_start+0x40e9>
    47a1: 64 14        	stz	$14                     ; 0x14 <__rc4>
    47a3: 9c 10 d0     	stz	$d010                   ; 0xd010 <__heap_start+0x40f8>
    47a6: a2 00        	ldx	#$0
    47a8: 64 15        	stz	$15                     ; 0x15 <__rc5>
    47aa: 86 18        	stx	$18                     ; 0x18 <__rc8>
    47ac: a4 18        	ldy	$18                     ; 0x18 <__rc8>
    47ae: be 36 8c     	ldx	$8c36,y                 ; 0x8c36 <textColors>
    47b1: 86 19        	stx	$19                     ; 0x19 <__rc9>
    47b3: be 37 8c     	ldx	$8c37,y                 ; 0x8c37 <textColors+0x1>
    47b6: 86 1a        	stx	$1a                     ; 0x1a <__rc10>
    47b8: be 38 8c     	ldx	$8c38,y                 ; 0x8c38 <textColors+0x2>
    47bb: 86 1b        	stx	$1b                     ; 0x1b <__zp_data_size>
    47bd: a6 15        	ldx	$15                     ; 0x15 <__rc5>
    47bf: 8e 00 de     	stx	$de00                   ; 0xde00 <__heap_start+0x4ee8>
    47c2: 86 17        	stx	$17                     ; 0x17 <__rc7>
    47c4: 9c 01 de     	stz	$de01                   ; 0xde01 <__heap_start+0x4ee9>
    47c7: a2 04        	ldx	#$4
    47c9: 8e 02 de     	stx	$de02                   ; 0xde02 <__heap_start+0x4eea>
    47cc: 86 1d        	stx	$1d                     ; 0x1d <__rc13>
    47ce: 9c 03 de     	stz	$de03                   ; 0xde03 <__heap_start+0x4eeb>
    47d1: ad 10 de     	lda	$de10                   ; 0xde10 <__heap_start+0x4ef8>
    47d4: ac 11 de     	ldy	$de11                   ; 0xde11 <__heap_start+0x4ef9>
    47d7: 84 15        	sty	$15                     ; 0x15 <__rc5>
    47d9: ac 12 de     	ldy	$de12                   ; 0xde12 <__heap_start+0x4efa>
    47dc: ac 13 de     	ldy	$de13                   ; 0xde13 <__heap_start+0x4efb>
    47df: a2 00        	ldx	#$0
    47e1: 18           	clc
    47e2: 65 14        	adc	$14                     ; 0x14 <__rc4>
    47e4: a8           	tay
    47e5: 86 1f        	stx	$1f                     ; 0x1f <__rc15>
    47e7: a6 17        	ldx	$17                     ; 0x17 <__rc7>
    47e9: a9 d8        	lda	#$d8
    47eb: 65 15        	adc	$15                     ; 0x15 <__rc5>
    47ed: 84 16        	sty	$16                     ; 0x16 <__rc6>
    47ef: 85 17        	sta	$17                     ; 0x17 <__rc7>
    47f1: a5 1b        	lda	$1b                     ; 0x1b <__zp_data_size>
    47f3: 92 16        	sta	($16)                   ; 0x16 <__rc6>
    47f5: a0 01        	ldy	#$1
    47f7: a5 1a        	lda	$1a                     ; 0x1a <__rc10>
    47f9: 91 16        	sta	($16),y                 ; 0x16 <__rc6>
    47fb: 84 1c        	sty	$1c                     ; 0x1c <__rc12>
    47fd: c8           	iny
    47fe: a5 19        	lda	$19                     ; 0x19 <__rc9>
    4800: 91 16        	sta	($16),y                 ; 0x16 <__rc6>
    4802: 84 1e        	sty	$1e                     ; 0x1e <__rc14>
    4804: c8           	iny
    4805: a9 ff        	lda	#$ff
    4807: 91 16        	sta	($16),y                 ; 0x16 <__rc6>
    4809: 85 23        	sta	$23                     ; 0x23 <__rc19>
    480b: 84 22        	sty	$22                     ; 0x22 <__rc18>
    480d: 8e 00 de     	stx	$de00                   ; 0xde00 <__heap_start+0x4ee8>
    4810: 9c 01 de     	stz	$de01                   ; 0xde01 <__heap_start+0x4ee9>
    4813: a4 1d        	ldy	$1d                     ; 0x1d <__rc13>
    4815: 8c 02 de     	sty	$de02                   ; 0xde02 <__heap_start+0x4eea>
    4818: 9c 03 de     	stz	$de03                   ; 0xde03 <__heap_start+0x4eeb>
    481b: ad 10 de     	lda	$de10                   ; 0xde10 <__heap_start+0x4ef8>
    481e: 85 15        	sta	$15                     ; 0x15 <__rc5>
    4820: ad 11 de     	lda	$de11                   ; 0xde11 <__heap_start+0x4ef9>
    4823: 85 16        	sta	$16                     ; 0x16 <__rc6>
    4825: a9 40        	lda	#$40
    4827: a4 1f        	ldy	$1f                     ; 0x1f <__rc15>
    4829: c0 01        	cpy	#$1
    482b: 65 15        	adc	$15                     ; 0x15 <__rc5>
    482d: a8           	tay
    482e: a9 d8        	lda	#$d8
    4830: 65 16        	adc	$16                     ; 0x16 <__rc6>
    4832: 85 17        	sta	$17                     ; 0x17 <__rc7>
    4834: 84 16        	sty	$16                     ; 0x16 <__rc6>
    4836: ad 12 de     	lda	$de12                   ; 0xde12 <__heap_start+0x4efa>
    4839: ad 13 de     	lda	$de13                   ; 0xde13 <__heap_start+0x4efb>
    483c: a5 1b        	lda	$1b                     ; 0x1b <__zp_data_size>
    483e: 92 16        	sta	($16)                   ; 0x16 <__rc6>
    4840: a5 1a        	lda	$1a                     ; 0x1a <__rc10>
    4842: a4 1c        	ldy	$1c                     ; 0x1c <__rc12>
    4844: 91 16        	sta	($16),y                 ; 0x16 <__rc6>
    4846: a5 19        	lda	$19                     ; 0x19 <__rc9>
    4848: a4 1e        	ldy	$1e                     ; 0x1e <__rc14>
    484a: 91 16        	sta	($16),y                 ; 0x16 <__rc6>
    484c: a4 22        	ldy	$22                     ; 0x22 <__rc18>
    484e: a5 23        	lda	$23                     ; 0x23 <__rc19>
    4850: 91 16        	sta	($16),y                 ; 0x16 <__rc6>
    4852: e8           	inx
    4853: 86 15        	stx	$15                     ; 0x15 <__rc5>
    4855: 18           	clc
    4856: a5 18        	lda	$18                     ; 0x18 <__rc8>
    4858: 69 03        	adc	#$3
    485a: aa           	tax
    485b: c9 30        	cmp	#$30
    485d: f0 03        	beq	$4862 <main+0x200>
    485f: 4c aa 47     	jmp	$47aa <main+0x148>
    4862: a6 01        	ldx	$1                      ; 0x1 <__data_size+0x1>
    4864: 86 18        	stx	$18                     ; 0x18 <__rc8>
    4866: a2 50        	ldx	#$50
    4868: 8e 00 de     	stx	$de00                   ; 0xde00 <__heap_start+0x4ee8>
    486b: 9c 01 de     	stz	$de01                   ; 0xde01 <__heap_start+0x4ee9>
    486e: a2 1e        	ldx	#$1e
    4870: 8e 02 de     	stx	$de02                   ; 0xde02 <__heap_start+0x4eea>
    4873: 9c 03 de     	stz	$de03                   ; 0xde03 <__heap_start+0x4eeb>
    4876: ae 10 de     	ldx	$de10                   ; 0xde10 <__heap_start+0x4ef8>
    4879: ac 11 de     	ldy	$de11                   ; 0xde11 <__heap_start+0x4ef9>
    487c: ad 12 de     	lda	$de12                   ; 0xde12 <__heap_start+0x4efa>
    487f: ad 13 de     	lda	$de13                   ; 0xde13 <__heap_start+0x4efb>
    4882: a9 02        	lda	#$2
    4884: 85 01        	sta	$1                      ; 0x1 <__data_size+0x1>
    4886: e0 01        	cpx	#$1
    4888: 98           	tya
    4889: e9 00        	sbc	#$0
    488b: 50 02        	bvc	$488f <main+0x22d>
    488d: 49 80        	eor	#$80
    488f: c9 00        	cmp	#$0
    4891: 30 4c        	bmi	$48df <main+0x27d>
    4893: a9 20        	lda	#$20
    4895: 86 19        	stx	$19                     ; 0x19 <__rc9>
    4897: 86 14        	stx	$14                     ; 0x14 <__rc4>
    4899: 84 15        	sty	$15                     ; 0x15 <__rc5>
    489b: a2 00        	ldx	#$0
    489d: 86 16        	stx	$16                     ; 0x16 <__rc6>
    489f: a2 c0        	ldx	#$c0
    48a1: 86 17        	stx	$17                     ; 0x17 <__rc7>
    48a3: 92 16        	sta	($16)                   ; 0x16 <__rc6>
    48a5: e6 16        	inc	$16                     ; 0x16 <__rc6>
    48a7: d0 02        	bne	$48ab <main+0x249>
    48a9: e6 17        	inc	$17                     ; 0x17 <__rc7>
    48ab: a2 ff        	ldx	#$ff
    48ad: c6 14        	dec	$14                     ; 0x14 <__rc4>
    48af: e4 14        	cpx	$14                     ; 0x14 <__rc4>
    48b1: d0 02        	bne	$48b5 <main+0x253>
    48b3: c6 15        	dec	$15                     ; 0x15 <__rc5>
    48b5: a6 15        	ldx	$15                     ; 0x15 <__rc5>
    48b7: d0 ea        	bne	$48a3 <main+0x241>
    48b9: a6 14        	ldx	$14                     ; 0x14 <__rc4>
    48bb: d0 e6        	bne	$48a3 <main+0x241>
    48bd: a2 03        	ldx	#$3
    48bf: 86 01        	stx	$1                      ; 0x1 <__data_size+0x1>
    48c1: a6 34        	ldx	$34                     ; 0x34 <_ccolor>
    48c3: 86 14        	stx	$14                     ; 0x14 <__rc4>
    48c5: a6 19        	ldx	$19                     ; 0x19 <__rc9>
    48c7: a5 14        	lda	$14                     ; 0x14 <__rc4>
    48c9: 92 12        	sta	($12)                   ; 0x12 <__rc2>
    48cb: e6 12        	inc	$12                     ; 0x12 <__rc2>
    48cd: d0 02        	bne	$48d1 <main+0x26f>
    48cf: e6 13        	inc	$13                     ; 0x13 <__rc3>
    48d1: ca           	dex
    48d2: e0 ff        	cpx	#$ff
    48d4: d0 01        	bne	$48d7 <main+0x275>
    48d6: 88           	dey
    48d7: 98           	tya
    48d8: d0 ed        	bne	$48c7 <main+0x265>
    48da: 8a           	txa
    48db: d0 ea        	bne	$48c7 <main+0x265>
    48dd: 80 04        	bra	$48e3 <main+0x281>
    48df: a2 03        	ldx	#$3
    48e1: 86 01        	stx	$1                      ; 0x1 <__data_size+0x1>
    48e3: a6 18        	ldx	$18                     ; 0x18 <__rc8>
    48e5: 86 01        	stx	$1                      ; 0x1 <__data_size+0x1>
    48e7: 64 6a        	stz	$6a                     ; 0x6a <_col>
    48e9: 9c 14 d0     	stz	$d014                   ; 0xd014 <__heap_start+0x40fc>
    48ec: 9c 15 d0     	stz	$d015                   ; 0xd015 <__heap_start+0x40fd>
    48ef: 64 6b        	stz	$6b                     ; 0x6b <_row>
    48f1: 9c 16 d0     	stz	$d016                   ; 0xd016 <__heap_start+0x40fe>
    48f4: 9c 17 d0     	stz	$d017                   ; 0xd017 <__heap_start+0x40ff>
    48f7: a2 40        	ldx	#$40
    48f9: 8e 00 de     	stx	$de00                   ; 0xde00 <__heap_start+0x4ee8>
    48fc: a2 01        	ldx	#$1
    48fe: 8e 01 de     	stx	$de01                   ; 0xde01 <__heap_start+0x4ee9>
    4901: a2 f0        	ldx	#$f0
    4903: 8e 02 de     	stx	$de02                   ; 0xde02 <__heap_start+0x4eea>
    4906: 9c 03 de     	stz	$de03                   ; 0xde03 <__heap_start+0x4eeb>
    4909: ae 10 de     	ldx	$de10                   ; 0xde10 <__heap_start+0x4ef8>
    490c: 86 17        	stx	$17                     ; 0x17 <__rc7>
    490e: ae 11 de     	ldx	$de11                   ; 0xde11 <__heap_start+0x4ef9>
    4911: 86 12        	stx	$12                     ; 0x12 <__rc2>
    4913: ae 12 de     	ldx	$de12                   ; 0xde12 <__heap_start+0x4efa>
    4916: 86 13        	stx	$13                     ; 0x13 <__rc3>
    4918: ae 13 de     	ldx	$de13                   ; 0xde13 <__heap_start+0x4efb>
    491b: 86 14        	stx	$14                     ; 0x14 <__rc4>
    491d: a4 12        	ldy	$12                     ; 0x12 <__rc2>
    491f: 84 15        	sty	$15                     ; 0x15 <__rc5>
    4921: 06 15        	asl	$15                     ; 0x15 <__rc5>
    4923: a5 13        	lda	$13                     ; 0x13 <__rc3>
    4925: 2a           	rol
    4926: 86 16        	stx	$16                     ; 0x16 <__rc6>
    4928: 26 16        	rol	$16                     ; 0x16 <__rc6>
    492a: 06 15        	asl	$15                     ; 0x15 <__rc5>
    492c: 2a           	rol
    492d: 26 16        	rol	$16                     ; 0x16 <__rc6>
    492f: 06 15        	asl	$15                     ; 0x15 <__rc5>
    4931: 2a           	rol
    4932: 26 16        	rol	$16                     ; 0x16 <__rc6>
    4934: 85 15        	sta	$15                     ; 0x15 <__rc5>
    4936: 8d 00 de     	sta	$de00                   ; 0xde00 <__heap_start+0x4ee8>
    4939: a5 16        	lda	$16                     ; 0x16 <__rc6>
    493b: 8d 01 de     	sta	$de01                   ; 0xde01 <__heap_start+0x4ee9>
    493e: 9c 02 de     	stz	$de02                   ; 0xde02 <__heap_start+0x4eea>
    4941: a2 20        	ldx	#$20
    4943: 8e 03 de     	stx	$de03                   ; 0xde03 <__heap_start+0x4eeb>
    4946: ae 10 de     	ldx	$de10                   ; 0xde10 <__heap_start+0x4ef8>
    4949: 86 16        	stx	$16                     ; 0x16 <__rc6>
    494b: ae 11 de     	ldx	$de11                   ; 0xde11 <__heap_start+0x4ef9>
    494e: 86 18        	stx	$18                     ; 0x18 <__rc8>
    4950: ac 12 de     	ldy	$de12                   ; 0xde12 <__heap_start+0x4efa>
    4953: ae 13 de     	ldx	$de13                   ; 0xde13 <__heap_start+0x4efb>
    4956: e4 14        	cpx	$14                     ; 0x14 <__rc4>
    4958: d0 14        	bne	$496e <main+0x30c>
    495a: c4 13        	cpy	$13                     ; 0x13 <__rc3>
    495c: d0 10        	bne	$496e <main+0x30c>
    495e: a6 18        	ldx	$18                     ; 0x18 <__rc8>
    4960: e4 12        	cpx	$12                     ; 0x12 <__rc2>
    4962: d0 0a        	bne	$496e <main+0x30c>
    4964: a6 16        	ldx	$16                     ; 0x16 <__rc6>
    4966: e4 17        	cpx	$17                     ; 0x17 <__rc7>
    4968: d0 04        	bne	$496e <main+0x30c>
    496a: a6 15        	ldx	$15                     ; 0x15 <__rc5>
    496c: 80 06        	bra	$4974 <main+0x312>
    496e: a6 15        	ldx	$15                     ; 0x15 <__rc5>
    4970: e8           	inx
    4971: d0 01        	bne	$4974 <main+0x312>
    4973: 1a           	inc
    4974: 8e 00 de     	stx	$de00                   ; 0xde00 <__heap_start+0x4ee8>
    4977: 8d 01 de     	sta	$de01                   ; 0xde01 <__heap_start+0x4ee9>
    497a: 9c 02 de     	stz	$de02                   ; 0xde02 <__heap_start+0x4eea>
    497d: a2 20        	ldx	#$20
    497f: 8e 03 de     	stx	$de03                   ; 0xde03 <__heap_start+0x4eeb>
    4982: ae 10 de     	ldx	$de10                   ; 0xde10 <__heap_start+0x4ef8>
    4985: 86 12        	stx	$12                     ; 0x12 <__rc2>
    4987: ae 11 de     	ldx	$de11                   ; 0xde11 <__heap_start+0x4ef9>
    498a: 86 13        	stx	$13                     ; 0x13 <__rc3>
    498c: ae 12 de     	ldx	$de12                   ; 0xde12 <__heap_start+0x4efa>
    498f: 86 14        	stx	$14                     ; 0x14 <__rc4>
    4991: ae 13 de     	ldx	$de13                   ; 0xde13 <__heap_start+0x4efb>
    4994: 86 15        	stx	$15                     ; 0x15 <__rc5>
    4996: 38           	sec
    4997: a9 00        	lda	#$0
    4999: e5 12        	sbc	$12                     ; 0x12 <__rc2>
    499b: 85 17        	sta	$17                     ; 0x17 <__rc7>
    499d: a9 00        	lda	#$0
    499f: e5 13        	sbc	$13                     ; 0x13 <__rc3>
    49a1: aa           	tax
    49a2: a9 08        	lda	#$8
    49a4: e5 14        	sbc	$14                     ; 0x14 <__rc4>
    49a6: 85 16        	sta	$16                     ; 0x16 <__rc6>
    49a8: a9 00        	lda	#$0
    49aa: e5 15        	sbc	$15                     ; 0x15 <__rc5>
    49ac: 8e 7e 8c     	stx	$8c7e                   ; 0x8c7e <_BITMAP_BASE.0+0x1>
    49af: a4 16        	ldy	$16                     ; 0x16 <__rc6>
    49b1: 8c 7f 8c     	sty	$8c7f                   ; 0x8c7f <_BITMAP_BASE.0+0x2>
    49b4: 8d 80 8c     	sta	$8c80                   ; 0x8c80 <_BITMAP_BASE.0+0x3>
    49b7: a5 17        	lda	$17                     ; 0x17 <__rc7>
    49b9: 38           	sec
    49ba: e5 12        	sbc	$12                     ; 0x12 <__rc2>
    49bc: a8           	tay
    49bd: 8a           	txa
    49be: e5 13        	sbc	$13                     ; 0x13 <__rc3>
    49c0: 85 18        	sta	$18                     ; 0x18 <__rc8>
    49c2: a5 16        	lda	$16                     ; 0x16 <__rc6>
    49c4: e5 14        	sbc	$14                     ; 0x14 <__rc4>
    49c6: 85 15        	sta	$15                     ; 0x15 <__rc5>
    49c8: 98           	tya
    49c9: 84 16        	sty	$16                     ; 0x16 <__rc6>
    49cb: 38           	sec
    49cc: e5 12        	sbc	$12                     ; 0x12 <__rc2>
    49ce: 85 12        	sta	$12                     ; 0x12 <__rc2>
    49d0: a5 18        	lda	$18                     ; 0x18 <__rc8>
    49d2: e5 13        	sbc	$13                     ; 0x13 <__rc3>
    49d4: 85 13        	sta	$13                     ; 0x13 <__rc3>
    49d6: a4 15        	ldy	$15                     ; 0x15 <__rc5>
    49d8: a5 15        	lda	$15                     ; 0x15 <__rc5>
    49da: e5 14        	sbc	$14                     ; 0x14 <__rc4>
    49dc: a6 17        	ldx	$17                     ; 0x17 <__rc7>
    49de: 8e 7d 8c     	stx	$8c7d                   ; 0x8c7d <_BITMAP_BASE.0>
    49e1: 8e 01 d1     	stx	$d101                   ; 0xd101 <__heap_start+0x41e9>
    49e4: ae 7e 8c     	ldx	$8c7e                   ; 0x8c7e <_BITMAP_BASE.0+0x1>
    49e7: 8e 02 d1     	stx	$d102                   ; 0xd102 <__heap_start+0x41ea>
    49ea: ae 7f 8c     	ldx	$8c7f                   ; 0x8c7f <_BITMAP_BASE.0+0x2>
    49ed: 8e 03 d1     	stx	$d103                   ; 0xd103 <__heap_start+0x41eb>
    49f0: a6 16        	ldx	$16                     ; 0x16 <__rc6>
    49f2: 8e 09 d1     	stx	$d109                   ; 0xd109 <__heap_start+0x41f1>
    49f5: a6 18        	ldx	$18                     ; 0x18 <__rc8>
    49f7: 8e 0a d1     	stx	$d10a                   ; 0xd10a <__heap_start+0x41f2>
    49fa: 8c 0b d1     	sty	$d10b                   ; 0xd10b <__heap_start+0x41f3>
    49fd: a6 12        	ldx	$12                     ; 0x12 <__rc2>
    49ff: 8e 11 d1     	stx	$d111                   ; 0xd111 <__heap_start+0x41f9>
    4a02: a6 13        	ldx	$13                     ; 0x13 <__rc3>
    4a04: 8e 12 d1     	stx	$d112                   ; 0xd112 <__heap_start+0x41fa>
    4a07: 8d 13 d1     	sta	$d113                   ; 0xd113 <__heap_start+0x41fb>
    4a0a: 9c 00 d1     	stz	$d100                   ; 0xd100 <__heap_start+0x41e8>
    4a0d: 9c 08 d1     	stz	$d108                   ; 0xd108 <__heap_start+0x41f0>
    4a10: 9c 10 d1     	stz	$d110                   ; 0xd110 <__heap_start+0x41f8>
    4a13: a2 10        	ldx	#$10
    4a15: 8e 00 d2     	stx	$d200                   ; 0xd200 <__heap_start+0x42e8>
    4a18: 8e 0c d2     	stx	$d20c                   ; 0xd20c <__heap_start+0x42f4>
    4a1b: 8e 18 d2     	stx	$d218                   ; 0xd218 <__heap_start+0x4300>
    4a1e: a0 d9        	ldy	#$d9
    4a20: a2 40        	ldx	#$40
    4a22: 64 12        	stz	$12                     ; 0x12 <__rc2>
    4a24: 84 13        	sty	$13                     ; 0x13 <__rc3>
    4a26: a9 00        	lda	#$0
    4a28: 92 12        	sta	($12)                   ; 0x12 <__rc2>
    4a2a: ca           	dex
    4a2b: 18           	clc
    4a2c: a5 12        	lda	$12                     ; 0x12 <__rc2>
    4a2e: 69 08        	adc	#$8
    4a30: 85 12        	sta	$12                     ; 0x12 <__rc2>
    4a32: 98           	tya
    4a33: 69 00        	adc	#$0
    4a35: a8           	tay
    4a36: 8a           	txa
    4a37: d0 eb        	bne	$4a24 <main+0x3c2>
    4a39: a9 08        	lda	#$8
    4a3b: a2 81        	ldx	#$81
    4a3d: 86 12        	stx	$12                     ; 0x12 <__rc2>
    4a3f: a2 8c        	ldx	#$8c
    4a41: 86 13        	stx	$13                     ; 0x13 <__rc3>
    4a43: 64 14        	stz	$14                     ; 0x14 <__rc4>
    4a45: aa           	tax
    4a46: 85 24        	sta	$24                     ; 0x24 <__rc20>
    4a48: a9 00        	lda	#$0
    4a4a: 20 ec 82     	jsr	$82ec <__memset>
    4a4d: 18           	clc
    4a4e: a5 10        	lda	$10                     ; 0x10 <__rc0>
    4a50: 69 9c        	adc	#$9c
    4a52: 85 2a        	sta	$2a                     ; 0x2a <__rc26>
    4a54: a5 11        	lda	$11                     ; 0x11 <__rc1>
    4a56: 69 00        	adc	#$0
    4a58: 85 2b        	sta	$2b                     ; 0x2b <__rc27>
    4a5a: a6 2a        	ldx	$2a                     ; 0x2a <__rc26>
    4a5c: 86 fb        	stx	$fb                     ; 0xfb <__zp_bss_size+0xcb>
    4a5e: 85 fc        	sta	$fc                     ; 0xfc <__zp_bss_size+0xcc>
    4a60: a6 24        	ldx	$24                     ; 0x24 <__rc20>
    4a62: 86 fd        	stx	$fd                     ; 0xfd <__zp_bss_size+0xcd>
    4a64: 18           	clc
    4a65: a5 10        	lda	$10                     ; 0x10 <__rc0>
    4a67: 69 5c        	adc	#$5c
    4a69: 85 18        	sta	$18                     ; 0x18 <__rc8>
    4a6b: a5 11        	lda	$11                     ; 0x11 <__rc1>
    4a6d: 69 00        	adc	#$0
    4a6f: 85 19        	sta	$19                     ; 0x19 <__rc9>
    4a71: a2 69        	ldx	#$69
    4a73: 86 12        	stx	$12                     ; 0x12 <__rc2>
    4a75: a2 00        	ldx	#$0
    4a77: 86 13        	stx	$13                     ; 0x13 <__rc3>
    4a79: a0 06        	ldy	#$6
    4a7b: 20 dc ff     	jsr	$ffdc <__heap_start+0x70c4>
    4a7e: 92 18        	sta	($18)                   ; 0x18 <__rc8>
    4a80: a9 00        	lda	#$0
    4a82: 6a           	ror
    4a83: 85 12        	sta	$12                     ; 0x12 <__rc2>
    4a85: b1 2a        	lda	($2a),y                 ; 0x2a <__rc26>
    4a87: 85 12        	sta	$12                     ; 0x12 <__rc2>
    4a89: c8           	iny
    4a8a: b1 2a        	lda	($2a),y                 ; 0x2a <__rc26>
    4a8c: a6 12        	ldx	$12                     ; 0x12 <__rc2>
    4a8e: 8e 00 de     	stx	$de00                   ; 0xde00 <__heap_start+0x4ee8>
    4a91: 9c 01 de     	stz	$de01                   ; 0xde01 <__heap_start+0x4ee9>
    4a94: 8d 02 de     	sta	$de02                   ; 0xde02 <__heap_start+0x4eea>
    4a97: 9c 03 de     	stz	$de03                   ; 0xde03 <__heap_start+0x4eeb>
    4a9a: ae 10 de     	ldx	$de10                   ; 0xde10 <__heap_start+0x4ef8>
    4a9d: ac 11 de     	ldy	$de11                   ; 0xde11 <__heap_start+0x4ef9>
    4aa0: ad 12 de     	lda	$de12                   ; 0xde12 <__heap_start+0x4efa>
    4aa3: ad 13 de     	lda	$de13                   ; 0xde13 <__heap_start+0x4efb>
    4aa6: a9 00        	lda	#$0
    4aa8: 8e a4 d6     	stx	$d6a4                   ; 0xd6a4 <__heap_start+0x478c>
    4aab: 8c a5 d6     	sty	$d6a5                   ; 0xd6a5 <__heap_start+0x478d>
    4aae: a2 03        	ldx	#$3
    4ab0: 8e a6 d6     	stx	$d6a6                   ; 0xd6a6 <__heap_start+0x478e>
    4ab3: a6 fa        	ldx	$fa                     ; 0xfa <__zp_bss_size+0xca>
    4ab5: 86 1c        	stx	$1c                     ; 0x1c <__rc12>
    4ab7: a6 f8        	ldx	$f8                     ; 0xf8 <__zp_bss_size+0xc8>
    4ab9: a4 f9        	ldy	$f9                     ; 0xf9 <__zp_bss_size+0xc9>
    4abb: 86 1a        	stx	$1a                     ; 0x1a <__rc10>
    4abd: 86 12        	stx	$12                     ; 0x12 <__rc2>
    4abf: 84 1b        	sty	$1b                     ; 0x1b <__zp_data_size>
    4ac1: 84 13        	sty	$13                     ; 0x13 <__rc3>
    4ac3: 64 01        	stz	$1                      ; 0x1 <__data_size+0x1>
    4ac5: a2 0f        	ldx	#$f
    4ac7: 8e 00 d0     	stx	$d000                   ; 0xd000 <__heap_start+0x40e8>
    4aca: a2 04        	ldx	#$4
    4acc: 8e 01 d0     	stx	$d001                   ; 0xd001 <__heap_start+0x40e9>
    4acf: a2 10        	ldx	#$10
    4ad1: 8e 02 d0     	stx	$d002                   ; 0xd002 <__heap_start+0x40ea>
    4ad4: 9c 0d d0     	stz	$d00d                   ; 0xd00d <__heap_start+0x40f5>
    4ad7: 9c 0e d0     	stz	$d00e                   ; 0xd00e <__heap_start+0x40f6>
    4ada: 9c 0f d0     	stz	$d00f                   ; 0xd00f <__heap_start+0x40f7>
    4add: a2 01        	ldx	#$1
    4adf: 86 01        	stx	$1                      ; 0x1 <__data_size+0x1>
    4ae1: a2 d0        	ldx	#$d0
    4ae3: 85 1d        	sta	$1d                     ; 0x1d <__rc13>
    4ae5: 18           	clc
    4ae6: 69 00        	adc	#$0
    4ae8: 85 16        	sta	$16                     ; 0x16 <__rc6>
    4aea: 8a           	txa
    4aeb: 69 10        	adc	#$10
    4aed: 85 17        	sta	$17                     ; 0x17 <__rc7>
    4aef: a4 1d        	ldy	$1d                     ; 0x1d <__rc13>
    4af1: 84 14        	sty	$14                     ; 0x14 <__rc4>
    4af3: 86 15        	stx	$15                     ; 0x15 <__rc5>
    4af5: a4 0f        	ldy	$f                      ; 0xf <__data_size+0xf>
    4af7: 78           	sei
    4af8: a9 08        	lda	#$8
    4afa: 85 0f        	sta	$f                      ; 0xf <__data_size+0xf>
    4afc: b2 16        	lda	($16)                   ; 0x16 <__rc6>
    4afe: 84 0f        	sty	$f                      ; 0xf <__data_size+0xf>
    4b00: 58           	cli
    4b01: 92 14        	sta	($14)                   ; 0x14 <__rc4>
    4b03: a5 1d        	lda	$1d                     ; 0x1d <__rc13>
    4b05: 1a           	inc
    4b06: d0 01        	bne	$4b09 <main+0x4a7>
    4b08: e8           	inx
    4b09: e0 d3        	cpx	#$d3
    4b0b: d0 d6        	bne	$4ae3 <main+0x481>
    4b0d: c9 ff        	cmp	#$ff
    4b0f: d0 d2        	bne	$4ae3 <main+0x481>
    4b11: a2 00        	ldx	#$0
    4b13: 64 01        	stz	$1                      ; 0x1 <__data_size+0x1>
    4b15: 9c 7d 8c     	stz	$8c7d                   ; 0x8c7d <_BITMAP_BASE.0>
    4b18: a0 04        	ldy	#$4
    4b1a: 8c 7e 8c     	sty	$8c7e                   ; 0x8c7e <_BITMAP_BASE.0+0x1>
    4b1d: a9 01        	lda	#$1
    4b1f: 8d 7f 8c     	sta	$8c7f                   ; 0x8c7f <_BITMAP_BASE.0+0x2>
    4b22: 9c 80 8c     	stz	$8c80                   ; 0x8c80 <_BITMAP_BASE.0+0x3>
    4b25: 9c 01 d1     	stz	$d101                   ; 0xd101 <__heap_start+0x41e9>
    4b28: 8c 02 d1     	sty	$d102                   ; 0xd102 <__heap_start+0x41ea>
    4b2b: 8d 03 d1     	sta	$d103                   ; 0xd103 <__heap_start+0x41eb>
    4b2e: 9c 00 d1     	stz	$d100                   ; 0xd100 <__heap_start+0x41e8>
    4b31: 18           	clc
    4b32: 8a           	txa
    4b33: 69 02        	adc	#$2
    4b35: 85 14        	sta	$14                     ; 0x14 <__rc4>
    4b37: a9 00        	lda	#$0
    4b39: 69 e0        	adc	#$e0
    4b3b: bc ff 8a     	ldy	$8aff,x                 ; 0x8aff <__BLOCK_SIZE+0x6aff>
    4b3e: 84 16        	sty	$16                     ; 0x16 <__rc6>
    4b40: 85 15        	sta	$15                     ; 0x15 <__rc5>
    4b42: a4 0f        	ldy	$f                      ; 0xf <__data_size+0xf>
    4b44: 78           	sei
    4b45: a9 18        	lda	#$18
    4b47: 85 0f        	sta	$f                      ; 0xf <__data_size+0xf>
    4b49: a5 16        	lda	$16                     ; 0x16 <__rc6>
    4b4b: 92 14        	sta	($14)                   ; 0x14 <__rc4>
    4b4d: 84 0f        	sty	$f                      ; 0xf <__data_size+0xf>
    4b4f: 58           	cli
    4b50: e8           	inx
    4b51: e0 0a        	cpx	#$a
    4b53: d0 dc        	bne	$4b31 <main+0x4cf>
    4b55: 64 01        	stz	$1                      ; 0x1 <__data_size+0x1>
    4b57: 64 6e        	stz	$6e                     ; 0x6e <gMID>
    4b59: 64 6f        	stz	$6f                     ; 0x6f <gMID+0x1>
    4b5b: 64 70        	stz	$70                     ; 0x70 <gMID+0x2>
    4b5d: 64 71        	stz	$71                     ; 0x71 <gMID+0x3>
    4b5f: a2 90        	ldx	#$90
    4b61: 86 72        	stx	$72                     ; 0x72 <gMID+0x4>
    4b63: 64 73        	stz	$73                     ; 0x73 <gMID+0x5>
    4b65: 64 74        	stz	$74                     ; 0x74 <gMID+0x6>
    4b67: a5 1c        	lda	$1c                     ; 0x1c <__rc12>
    4b69: 29 fe        	and	#$fe
    4b6b: a0 00        	ldy	#$0
    4b6d: a2 01        	ldx	#$1
    4b6f: c9 06        	cmp	#$6
    4b71: f0 02        	beq	$4b75 <main+0x513>
    4b73: a2 00        	ldx	#$0
    4b75: a5 1a        	lda	$1a                     ; 0x1a <__rc10>
    4b77: e0 00        	cpx	#$0
    4b79: d0 02        	bne	$4b7d <main+0x51b>
    4b7b: a0 01        	ldy	#$1
    4b7d: 84 26        	sty	$26                     ; 0x26 <__rc22>
    4b7f: e0 00        	cpx	#$0
    4b81: d0 03        	bne	$4b86 <main+0x524>
    4b83: 4c 66 4d     	jmp	$4d66 <main+0x704>
    4b86: 18           	clc
    4b87: 69 02        	adc	#$2
    4b89: 85 14        	sta	$14                     ; 0x14 <__rc4>
    4b8b: a5 1b        	lda	$1b                     ; 0x1b <__zp_data_size>
    4b8d: 69 00        	adc	#$0
    4b8f: a0 02        	ldy	#$2
    4b91: 85 15        	sta	$15                     ; 0x15 <__rc5>
    4b93: b1 12        	lda	($12),y                 ; 0x12 <__rc2>
    4b95: aa           	tax
    4b96: 88           	dey
    4b97: b1 14        	lda	($14),y                 ; 0x14 <__rc4>
    4b99: 86 14        	stx	$14                     ; 0x14 <__rc4>
    4b9b: 85 15        	sta	$15                     ; 0x15 <__rc5>
    4b9d: b2 14        	lda	($14)                   ; 0x14 <__rc4>
    4b9f: f0 3c        	beq	$4bdd <main+0x57b>
    4ba1: 85 17        	sta	$17                     ; 0x17 <__rc7>
    4ba3: 84 16        	sty	$16                     ; 0x16 <__rc6>
    4ba5: 88           	dey
    4ba6: 91 2a        	sta	($2a),y                 ; 0x2a <__rc26>
    4ba8: a4 16        	ldy	$16                     ; 0x16 <__rc6>
    4baa: b1 14        	lda	($14),y                 ; 0x14 <__rc4>
    4bac: c8           	iny
    4bad: aa           	tax
    4bae: d0 f3        	bne	$4ba3 <main+0x541>
    4bb0: a0 01        	ldy	#$1
    4bb2: a5 17        	lda	$17                     ; 0x17 <__rc7>
    4bb4: 5a           	phy
    4bb5: fa           	plx
    4bb6: ca           	dex
    4bb7: 9d 99 8e     	sta	$8e99,x                 ; 0x8e99 <name>
    4bba: a5 1a        	lda	$1a                     ; 0x1a <__rc10>
    4bbc: 18           	clc
    4bbd: 69 02        	adc	#$2
    4bbf: 85 14        	sta	$14                     ; 0x14 <__rc4>
    4bc1: a5 1b        	lda	$1b                     ; 0x1b <__zp_data_size>
    4bc3: 69 00        	adc	#$0
    4bc5: 85 15        	sta	$15                     ; 0x15 <__rc5>
    4bc7: 84 17        	sty	$17                     ; 0x17 <__rc7>
    4bc9: a0 02        	ldy	#$2
    4bcb: b1 12        	lda	($12),y                 ; 0x12 <__rc2>
    4bcd: aa           	tax
    4bce: 88           	dey
    4bcf: b1 14        	lda	($14),y                 ; 0x14 <__rc4>
    4bd1: a4 17        	ldy	$17                     ; 0x17 <__rc7>
    4bd3: 86 14        	stx	$14                     ; 0x14 <__rc4>
    4bd5: 85 15        	sta	$15                     ; 0x15 <__rc5>
    4bd7: b1 14        	lda	($14),y                 ; 0x14 <__rc4>
    4bd9: c8           	iny
    4bda: aa           	tax
    4bdb: d0 d7        	bne	$4bb4 <main+0x552>
    4bdd: ad 99 8e     	lda	$8e99                   ; 0x8e99 <name>
    4be0: f0 37        	beq	$4c19 <main+0x5b7>
    4be2: a2 99        	ldx	#$99
    4be4: 86 14        	stx	$14                     ; 0x14 <__rc4>
    4be6: a2 8e        	ldx	#$8e
    4be8: 86 15        	stx	$15                     ; 0x15 <__rc5>
    4bea: a2 00        	ldx	#$0
    4bec: 86 12        	stx	$12                     ; 0x12 <__rc2>
    4bee: a2 00        	ldx	#$0
    4bf0: 86 13        	stx	$13                     ; 0x13 <__rc3>
    4bf2: a0 01        	ldy	#$1
    4bf4: c9 2f        	cmp	#$2f
    4bf6: d0 08        	bne	$4c00 <main+0x59e>
    4bf8: a6 14        	ldx	$14                     ; 0x14 <__rc4>
    4bfa: 86 12        	stx	$12                     ; 0x12 <__rc2>
    4bfc: a6 15        	ldx	$15                     ; 0x15 <__rc5>
    4bfe: 86 13        	stx	$13                     ; 0x13 <__rc3>
    4c00: b1 14        	lda	($14),y                 ; 0x14 <__rc4>
    4c02: e6 14        	inc	$14                     ; 0x14 <__rc4>
    4c04: d0 02        	bne	$4c08 <main+0x5a6>
    4c06: e6 15        	inc	$15                     ; 0x15 <__rc5>
    4c08: aa           	tax
    4c09: d0 e9        	bne	$4bf4 <main+0x592>
    4c0b: a6 18        	ldx	$18                     ; 0x18 <__rc8>
    4c0d: 86 2c        	stx	$2c                     ; 0x2c <__rc28>
    4c0f: a6 19        	ldx	$19                     ; 0x19 <__rc9>
    4c11: 86 2d        	stx	$2d                     ; 0x2d <__rc29>
    4c13: a5 12        	lda	$12                     ; 0x12 <__rc2>
    4c15: a4 13        	ldy	$13                     ; 0x13 <__rc3>
    4c17: 80 0b        	bra	$4c24 <main+0x5c2>
    4c19: a6 18        	ldx	$18                     ; 0x18 <__rc8>
    4c1b: 86 2c        	stx	$2c                     ; 0x2c <__rc28>
    4c1d: a6 19        	ldx	$19                     ; 0x19 <__rc9>
    4c1f: 86 2d        	stx	$2d                     ; 0x2d <__rc29>
    4c21: a9 00        	lda	#$0
    4c23: a8           	tay
    4c24: 38           	sec
    4c25: e5 27        	sbc	$27                     ; 0x27 <__rc23>
    4c27: 85 24        	sta	$24                     ; 0x24 <__rc20>
    4c29: 98           	tya
    4c2a: e5 28        	sbc	$28                     ; 0x28 <__rc24>
    4c2c: 85 29        	sta	$29                     ; 0x29 <__rc25>
    4c2e: a6 2a        	ldx	$2a                     ; 0x2a <__rc26>
    4c30: 86 12        	stx	$12                     ; 0x12 <__rc2>
    4c32: a6 2b        	ldx	$2b                     ; 0x2b <__rc27>
    4c34: 86 13        	stx	$13                     ; 0x13 <__rc3>
    4c36: 64 28        	stz	$28                     ; 0x28 <__rc24>
    4c38: a2 3c        	ldx	#$3c
    4c3a: 64 14        	stz	$14                     ; 0x14 <__rc4>
    4c3c: a9 00        	lda	#$0
    4c3e: 20 ec 82     	jsr	$82ec <__memset>
    4c41: a6 24        	ldx	$24                     ; 0x24 <__rc20>
    4c43: a5 29        	lda	$29                     ; 0x29 <__rc25>
    4c45: d0 06        	bne	$4c4d <main+0x5eb>
    4c47: 8a           	txa
    4c48: d0 03        	bne	$4c4d <main+0x5eb>
    4c4a: 4c e4 4c     	jmp	$4ce4 <main+0x682>
    4c4d: 64 12        	stz	$12                     ; 0x12 <__rc2>
    4c4f: a6 24        	ldx	$24                     ; 0x24 <__rc20>
    4c51: a4 29        	ldy	$29                     ; 0x29 <__rc25>
    4c53: 18           	clc
    4c54: a5 10        	lda	$10                     ; 0x10 <__rc0>
    4c56: 69 9c        	adc	#$9c
    4c58: 48           	pha
    4c59: a5 11        	lda	$11                     ; 0x11 <__rc1>
    4c5b: 69 00        	adc	#$0
    4c5d: 85 14        	sta	$14                     ; 0x14 <__rc4>
    4c5f: 68           	pla
    4c60: 18           	clc
    4c61: 5a           	phy
    4c62: a0 01        	ldy	#$1
    4c64: b0 02        	bcs	$4c68 <main+0x606>
    4c66: a0 00        	ldy	#$0
    4c68: 84 13        	sty	$13                     ; 0x13 <__rc3>
    4c6a: 65 28        	adc	$28                     ; 0x28 <__rc24>
    4c6c: 85 16        	sta	$16                     ; 0x16 <__rc6>
    4c6e: a5 14        	lda	$14                     ; 0x14 <__rc4>
    4c70: 65 12        	adc	$12                     ; 0x12 <__rc2>
    4c72: a4 16        	ldy	$16                     ; 0x16 <__rc6>
    4c74: 84 14        	sty	$14                     ; 0x14 <__rc4>
    4c76: 85 15        	sta	$15                     ; 0x15 <__rc5>
    4c78: a9 99        	lda	#$99
    4c7a: a4 13        	ldy	$13                     ; 0x13 <__rc3>
    4c7c: c0 01        	cpy	#$1
    4c7e: 7a           	ply
    4c7f: 65 28        	adc	$28                     ; 0x28 <__rc24>
    4c81: 85 16        	sta	$16                     ; 0x16 <__rc6>
    4c83: a9 8e        	lda	#$8e
    4c85: 65 12        	adc	$12                     ; 0x12 <__rc2>
    4c87: 85 17        	sta	$17                     ; 0x17 <__rc7>
    4c89: b2 16        	lda	($16)                   ; 0x16 <__rc6>
    4c8b: 85 13        	sta	$13                     ; 0x13 <__rc3>
    4c8d: b2 16        	lda	($16)                   ; 0x16 <__rc6>
    4c8f: 92 14        	sta	($14)                   ; 0x14 <__rc4>
    4c91: a5 13        	lda	$13                     ; 0x13 <__rc3>
    4c93: f0 18        	beq	$4cad <main+0x64b>
    4c95: ca           	dex
    4c96: e0 ff        	cpx	#$ff
    4c98: d0 01        	bne	$4c9b <main+0x639>
    4c9a: 88           	dey
    4c9b: e6 28        	inc	$28                     ; 0x28 <__rc24>
    4c9d: d0 02        	bne	$4ca1 <main+0x63f>
    4c9f: e6 12        	inc	$12                     ; 0x12 <__rc2>
    4ca1: 98           	tya
    4ca2: f0 03        	beq	$4ca7 <main+0x645>
    4ca4: 4c 53 4c     	jmp	$4c53 <main+0x5f1>
    4ca7: 8a           	txa
    4ca8: f0 3a        	beq	$4ce4 <main+0x682>
    4caa: 4c 53 4c     	jmp	$4c53 <main+0x5f1>
    4cad: ca           	dex
    4cae: e0 ff        	cpx	#$ff
    4cb0: d0 01        	bne	$4cb3 <main+0x651>
    4cb2: 88           	dey
    4cb3: 98           	tya
    4cb4: d0 03        	bne	$4cb9 <main+0x657>
    4cb6: 8a           	txa
    4cb7: f0 2b        	beq	$4ce4 <main+0x682>
    4cb9: 18           	clc
    4cba: a5 10        	lda	$10                     ; 0x10 <__rc0>
    4cbc: 69 9c        	adc	#$9c
    4cbe: 48           	pha
    4cbf: a5 11        	lda	$11                     ; 0x11 <__rc1>
    4cc1: 69 00        	adc	#$0
    4cc3: 85 13        	sta	$13                     ; 0x13 <__rc3>
    4cc5: 68           	pla
    4cc6: 18           	clc
    4cc7: 65 28        	adc	$28                     ; 0x28 <__rc24>
    4cc9: 85 14        	sta	$14                     ; 0x14 <__rc4>
    4ccb: a5 13        	lda	$13                     ; 0x13 <__rc3>
    4ccd: 65 12        	adc	$12                     ; 0x12 <__rc2>
    4ccf: 5a           	phy
    4cd0: a4 14        	ldy	$14                     ; 0x14 <__rc4>
    4cd2: 84 12        	sty	$12                     ; 0x12 <__rc2>
    4cd4: 7a           	ply
    4cd5: 85 13        	sta	$13                     ; 0x13 <__rc3>
    4cd7: e6 12        	inc	$12                     ; 0x12 <__rc2>
    4cd9: d0 02        	bne	$4cdd <main+0x67b>
    4cdb: e6 13        	inc	$13                     ; 0x13 <__rc3>
    4cdd: a9 00        	lda	#$0
    4cdf: 84 14        	sty	$14                     ; 0x14 <__rc4>
    4ce1: 20 ec 82     	jsr	$82ec <__memset>
    4ce4: 18           	clc
    4ce5: a5 10        	lda	$10                     ; 0x10 <__rc0>
    4ce7: 69 9c        	adc	#$9c
    4ce9: 85 12        	sta	$12                     ; 0x12 <__rc2>
    4ceb: a5 11        	lda	$11                     ; 0x11 <__rc1>
    4ced: 69 00        	adc	#$0
    4cef: aa           	tax
    4cf0: 85 13        	sta	$13                     ; 0x13 <__rc3>
    4cf2: 18           	clc
    4cf3: a5 24        	lda	$24                     ; 0x24 <__rc20>
    4cf5: 65 12        	adc	$12                     ; 0x12 <__rc2>
    4cf7: 85 14        	sta	$14                     ; 0x14 <__rc4>
    4cf9: 8a           	txa
    4cfa: 65 29        	adc	$29                     ; 0x29 <__rc25>
    4cfc: 85 15        	sta	$15                     ; 0x15 <__rc5>
    4cfe: a9 00        	lda	#$0
    4d00: 64 16        	stz	$16                     ; 0x16 <__rc6>
    4d02: 92 14        	sta	($14)                   ; 0x14 <__rc4>
    4d04: b2 12        	lda	($12)                   ; 0x12 <__rc2>
    4d06: a4 0f        	ldy	$f                      ; 0xf <__data_size+0xf>
    4d08: 78           	sei
    4d09: a2 18        	ldx	#$18
    4d0b: 86 0f        	stx	$f                      ; 0xf <__data_size+0xf>
    4d0d: 85 12        	sta	$12                     ; 0x12 <__rc2>
    4d0f: 8d 02 e0     	sta	$e002                   ; 0xe002 <__heap_start+0x50ea>
    4d12: 84 0f        	sty	$f                      ; 0xf <__data_size+0xf>
    4d14: 58           	cli
    4d15: a0 01        	ldy	#$1
    4d17: a6 2c        	ldx	$2c                     ; 0x2c <__rc28>
    4d19: 86 18        	stx	$18                     ; 0x18 <__rc8>
    4d1b: a6 2d        	ldx	$2d                     ; 0x2d <__rc29>
    4d1d: 86 19        	stx	$19                     ; 0x19 <__rc9>
    4d1f: 80 3b        	bra	$4d5c <main+0x6fa>
    4d21: 18           	clc
    4d22: a5 10        	lda	$10                     ; 0x10 <__rc0>
    4d24: 69 9c        	adc	#$9c
    4d26: 85 12        	sta	$12                     ; 0x12 <__rc2>
    4d28: a5 11        	lda	$11                     ; 0x11 <__rc1>
    4d2a: 69 00        	adc	#$0
    4d2c: 85 13        	sta	$13                     ; 0x13 <__rc3>
    4d2e: a5 16        	lda	$16                     ; 0x16 <__rc6>
    4d30: 18           	clc
    4d31: 65 12        	adc	$12                     ; 0x12 <__rc2>
    4d33: 85 12        	sta	$12                     ; 0x12 <__rc2>
    4d35: a5 13        	lda	$13                     ; 0x13 <__rc3>
    4d37: 69 00        	adc	#$0
    4d39: 85 13        	sta	$13                     ; 0x13 <__rc3>
    4d3b: a5 16        	lda	$16                     ; 0x16 <__rc6>
    4d3d: 18           	clc
    4d3e: 69 03        	adc	#$3
    4d40: 85 14        	sta	$14                     ; 0x14 <__rc4>
    4d42: a9 00        	lda	#$0
    4d44: 69 e0        	adc	#$e0
    4d46: 85 15        	sta	$15                     ; 0x15 <__rc5>
    4d48: b1 12        	lda	($12),y                 ; 0x12 <__rc2>
    4d4a: 85 12        	sta	$12                     ; 0x12 <__rc2>
    4d4c: a6 0f        	ldx	$f                      ; 0xf <__data_size+0xf>
    4d4e: 78           	sei
    4d4f: a9 18        	lda	#$18
    4d51: 85 0f        	sta	$f                      ; 0xf <__data_size+0xf>
    4d53: a5 12        	lda	$12                     ; 0x12 <__rc2>
    4d55: 92 14        	sta	($14)                   ; 0x14 <__rc4>
    4d57: 86 0f        	stx	$f                      ; 0xf <__data_size+0xf>
    4d59: 58           	cli
    4d5a: e6 16        	inc	$16                     ; 0x16 <__rc6>
    4d5c: a5 12        	lda	$12                     ; 0x12 <__rc2>
    4d5e: f0 06        	beq	$4d66 <main+0x704>
    4d60: a5 16        	lda	$16                     ; 0x16 <__rc6>
    4d62: c9 3b        	cmp	#$3b
    4d64: d0 bb        	bne	$4d21 <main+0x6bf>
    4d66: a5 18        	lda	$18                     ; 0x18 <__rc8>
    4d68: a0 13        	ldy	#$13
    4d6a: 91 10        	sta	($10),y                 ; 0x10 <__rc0>
    4d6c: a5 19        	lda	$19                     ; 0x19 <__rc9>
    4d6e: c8           	iny
    4d6f: 91 10        	sta	($10),y                 ; 0x10 <__rc0>
    4d71: ad c1 dd     	lda	$ddc1                   ; 0xddc1 <__heap_start+0x4ea9>
    4d74: 29 02        	and	#$2
    4d76: d0 03        	bne	$4d7b <main+0x719>
    4d78: 20 df 26     	jsr	$26df <displayImage>
    4d7b: 20 86 3d     	jsr	$3d86 <lilpause>
    4d7e: 18           	clc
    4d7f: a5 10        	lda	$10                     ; 0x10 <__rc0>
    4d81: 69 1e        	adc	#$1e
    4d83: 85 14        	sta	$14                     ; 0x14 <__rc4>
    4d85: a5 11        	lda	$11                     ; 0x11 <__rc1>
    4d87: 69 00        	adc	#$0
    4d89: 85 15        	sta	$15                     ; 0x15 <__rc5>
    4d8b: a9 00        	lda	#$0
    4d8d: 92 14        	sta	($14)                   ; 0x14 <__rc4>
    4d8f: a0 01        	ldy	#$1
    4d91: 48           	pha
    4d92: 5a           	phy
    4d93: a5 14        	lda	$14                     ; 0x14 <__rc4>
    4d95: a0 0e        	ldy	#$e
    4d97: 91 10        	sta	($10),y                 ; 0x10 <__rc0>
    4d99: a5 15        	lda	$15                     ; 0x15 <__rc5>
    4d9b: c8           	iny
    4d9c: 91 10        	sta	($10),y                 ; 0x10 <__rc0>
    4d9e: 7a           	ply
    4d9f: 68           	pla
    4da0: 91 14        	sta	($14),y                 ; 0x14 <__rc4>
    4da2: a2 00        	ldx	#$0
    4da4: 86 2e        	stx	$2e                     ; 0x2e <__rc30>
    4da6: a0 10        	ldy	#$10
    4da8: b1 10        	lda	($10),y                 ; 0x10 <__rc0>
    4daa: a0 12        	ldy	#$12
    4dac: 91 10        	sta	($10),y                 ; 0x10 <__rc0>
    4dae: a4 26        	ldy	$26                     ; 0x26 <__rc22>
    4db0: 84 26        	sty	$26                     ; 0x26 <__rc22>
    4db2: a2 00        	ldx	#$0
    4db4: 86 12        	stx	$12                     ; 0x12 <__rc2>
    4db6: a2 00        	ldx	#$0
    4db8: 86 13        	stx	$13                     ; 0x13 <__rc3>
    4dba: a6 12        	ldx	$12                     ; 0x12 <__rc2>
    4dbc: a4 13        	ldy	$13                     ; 0x13 <__rc3>
    4dbe: 86 78        	stx	$78                     ; 0x78 <theFile>
    4dc0: 84 79        	sty	$79                     ; 0x79 <theFile+0x1>
    4dc2: 20 83 2b     	jsr	$2b83 <opl3_initialize>
    4dc5: ad 01 d0     	lda	$d001                   ; 0xd001 <__heap_start+0x40e9>
    4dc8: 09 10        	ora	#$10
    4dca: 8d 01 d0     	sta	$d001                   ; 0xd001 <__heap_start+0x40e9>
    4dcd: a2 d1        	ldx	#$d1
    4dcf: 86 34        	stx	$34                     ; 0x34 <_ccolor>
    4dd1: 64 6a        	stz	$6a                     ; 0x6a <_col>
    4dd3: 9c 14 d0     	stz	$d014                   ; 0xd014 <__heap_start+0x40fc>
    4dd6: 9c 15 d0     	stz	$d015                   ; 0xd015 <__heap_start+0x40fd>
    4dd9: 64 6b        	stz	$6b                     ; 0x6b <_row>
    4ddb: 9c 16 d0     	stz	$d016                   ; 0xd016 <__heap_start+0x40fe>
    4dde: 9c 17 d0     	stz	$d017                   ; 0xd017 <__heap_start+0x40ff>
    4de1: a2 28        	ldx	#$28
    4de3: 86 12        	stx	$12                     ; 0x12 <__rc2>
    4de5: a2 8b        	ldx	#$8b
    4de7: 86 13        	stx	$13                     ; 0x13 <__rc3>
    4de9: 20 66 7f     	jsr	$7f66 <printf>
    4dec: 64 6a        	stz	$6a                     ; 0x6a <_col>
    4dee: 9c 14 d0     	stz	$d014                   ; 0xd014 <__heap_start+0x40fc>
    4df1: 9c 15 d0     	stz	$d015                   ; 0xd015 <__heap_start+0x40fd>
    4df4: a2 01        	ldx	#$1
    4df6: 86 6b        	stx	$6b                     ; 0x6b <_row>
    4df8: 8e 16 d0     	stx	$d016                   ; 0xd016 <__heap_start+0x40fe>
    4dfb: 9c 17 d0     	stz	$d017                   ; 0xd017 <__heap_start+0x40ff>
    4dfe: a2 85        	ldx	#$85
    4e00: 86 12        	stx	$12                     ; 0x12 <__rc2>
    4e02: a2 8b        	ldx	#$8b
    4e04: 86 13        	stx	$13                     ; 0x13 <__rc3>
    4e06: 20 66 7f     	jsr	$7f66 <printf>
    4e09: 20 ec 40     	jsr	$40ec <wipe_inst>
    4e0c: 64 76        	stz	$76                     ; 0x76 <chip_VT_PERC>
    4e0e: 64 77        	stz	$77                     ; 0x77 <chip_OPL3_PAIRS>
    4e10: 9c 7b 8c     	stz	$8c7b                   ; 0x8c7b <chip_enable>
    4e13: a0 12        	ldy	#$12
    4e15: a9 00        	lda	#$0
    4e17: a2 0e        	ldx	#$e
    4e19: 86 28        	stx	$28                     ; 0x28 <__rc24>
    4e1b: aa           	tax
    4e1c: 85 12        	sta	$12                     ; 0x12 <__rc2>
    4e1e: a5 2e        	lda	$2e                     ; 0x2e <__rc30>
    4e20: c9 01        	cmp	#$1
    4e22: a9 8b        	lda	#$8b
    4e24: 65 12        	adc	$12                     ; 0x12 <__rc2>
    4e26: 85 12        	sta	$12                     ; 0x12 <__rc2>
    4e28: 86 25        	stx	$25                     ; 0x25 <__rc21>
    4e2a: a9 8d        	lda	#$8d
    4e2c: 69 00        	adc	#$0
    4e2e: 85 13        	sta	$13                     ; 0x13 <__rc3>
    4e30: 64 14        	stz	$14                     ; 0x14 <__rc4>
    4e32: a6 28        	ldx	$28                     ; 0x28 <__rc24>
    4e34: a9 00        	lda	#$0
    4e36: 84 24        	sty	$24                     ; 0x24 <__rc20>
    4e38: 20 ec 82     	jsr	$82ec <__memset>
    4e3b: a5 25        	lda	$25                     ; 0x25 <__rc21>
    4e3d: a4 24        	ldy	$24                     ; 0x24 <__rc20>
    4e3f: 88           	dey
    4e40: 18           	clc
    4e41: 69 0f        	adc	#$f
    4e43: c0 00        	cpy	#$0
    4e45: d0 d4        	bne	$4e1b <main+0x7b9>
    4e47: a2 00        	ldx	#$0
    4e49: 86 2e        	stx	$2e                     ; 0x2e <__rc30>
    4e4b: a6 78        	ldx	$78                     ; 0x78 <theFile>
    4e4d: a4 79        	ldy	$79                     ; 0x79 <theFile+0x1>
    4e4f: a9 00        	lda	#$0
    4e51: 85 12        	sta	$12                     ; 0x12 <__rc2>
    4e53: a9 00        	lda	#$0
    4e55: 85 13        	sta	$13                     ; 0x13 <__rc3>
    4e57: c4 13        	cpy	$13                     ; 0x13 <__rc3>
    4e59: d0 13        	bne	$4e6e <main+0x80c>
    4e5b: 5a           	phy
    4e5c: a0 13        	ldy	#$13
    4e5e: b1 10        	lda	($10),y                 ; 0x10 <__rc0>
    4e60: 85 28        	sta	$28                     ; 0x28 <__rc24>
    4e62: c8           	iny
    4e63: b1 10        	lda	($10),y                 ; 0x10 <__rc0>
    4e65: 7a           	ply
    4e66: 85 29        	sta	$29                     ; 0x29 <__rc25>
    4e68: e4 12        	cpx	$12                     ; 0x12 <__rc2>
    4e6a: d0 0f        	bne	$4e7b <main+0x819>
    4e6c: 80 24        	bra	$4e92 <main+0x830>
    4e6e: 5a           	phy
    4e6f: a0 13        	ldy	#$13
    4e71: b1 10        	lda	($10),y                 ; 0x10 <__rc0>
    4e73: 85 28        	sta	$28                     ; 0x28 <__rc24>
    4e75: c8           	iny
    4e76: b1 10        	lda	($10),y                 ; 0x10 <__rc0>
    4e78: 7a           	ply
    4e79: 85 29        	sta	$29                     ; 0x29 <__rc25>
    4e7b: 86 12        	stx	$12                     ; 0x12 <__rc2>
    4e7d: 84 13        	sty	$13                     ; 0x13 <__rc3>
    4e7f: 20 48 68     	jsr	$6848 <fileClose>
    4e82: a2 00        	ldx	#$0
    4e84: 86 12        	stx	$12                     ; 0x12 <__rc2>
    4e86: a2 00        	ldx	#$0
    4e88: 86 13        	stx	$13                     ; 0x13 <__rc3>
    4e8a: a6 12        	ldx	$12                     ; 0x12 <__rc2>
    4e8c: a4 13        	ldy	$13                     ; 0x13 <__rc3>
    4e8e: 86 78        	stx	$78                     ; 0x78 <theFile>
    4e90: 84 79        	sty	$79                     ; 0x79 <theFile+0x1>
    4e92: a4 26        	ldy	$26                     ; 0x26 <__rc22>
    4e94: 98           	tya
    4e95: d0 03        	bne	$4e9a <main+0x838>
    4e97: 4c 36 50     	jmp	$5036 <main+0x9d4>
    4e9a: a0 12        	ldy	#$12
    4e9c: b1 10        	lda	($10),y                 ; 0x10 <__rc0>
    4e9e: 29 01        	and	#$1
    4ea0: d0 03        	bne	$4ea5 <main+0x843>
    4ea2: 4c 54 50     	jmp	$5054 <main+0x9f2>
    4ea5: a0 0c        	ldy	#$c
    4ea7: b1 10        	lda	($10),y                 ; 0x10 <__rc0>
    4ea9: 85 12        	sta	$12                     ; 0x12 <__rc2>
    4eab: c8           	iny
    4eac: b1 10        	lda	($10),y                 ; 0x10 <__rc0>
    4eae: 85 13        	sta	$13                     ; 0x13 <__rc3>
    4eb0: c8           	iny
    4eb1: b1 10        	lda	($10),y                 ; 0x10 <__rc0>
    4eb3: 85 14        	sta	$14                     ; 0x14 <__rc4>
    4eb5: c8           	iny
    4eb6: b1 10        	lda	($10),y                 ; 0x10 <__rc0>
    4eb8: 85 15        	sta	$15                     ; 0x15 <__rc5>
    4eba: 20 f8 69     	jsr	$69f8 <fetchNextPLEntry>
    4ebd: 64 6a        	stz	$6a                     ; 0x6a <_col>
    4ebf: 9c 14 d0     	stz	$d014                   ; 0xd014 <__heap_start+0x40fc>
    4ec2: 9c 15 d0     	stz	$d015                   ; 0xd015 <__heap_start+0x40fd>
    4ec5: a2 03        	ldx	#$3
    4ec7: 86 6b        	stx	$6b                     ; 0x6b <_row>
    4ec9: 8e 16 d0     	stx	$d016                   ; 0xd016 <__heap_start+0x40fe>
    4ecc: 86 24        	stx	$24                     ; 0x24 <__rc20>
    4ece: 9c 17 d0     	stz	$d017                   ; 0xd017 <__heap_start+0x40ff>
    4ed1: a2 4d        	ldx	#$4d
    4ed3: 86 2c        	stx	$2c                     ; 0x2c <__rc28>
    4ed5: a2 89        	ldx	#$89
    4ed7: 86 2d        	stx	$2d                     ; 0x2d <__rc29>
    4ed9: a2 4d        	ldx	#$4d
    4edb: 86 12        	stx	$12                     ; 0x12 <__rc2>
    4edd: a2 89        	ldx	#$89
    4edf: 86 13        	stx	$13                     ; 0x13 <__rc3>
    4ee1: 20 66 7f     	jsr	$7f66 <printf>
    4ee4: 64 6a        	stz	$6a                     ; 0x6a <_col>
    4ee6: 9c 14 d0     	stz	$d014                   ; 0xd014 <__heap_start+0x40fc>
    4ee9: 9c 15 d0     	stz	$d015                   ; 0xd015 <__heap_start+0x40fd>
    4eec: a2 04        	ldx	#$4
    4eee: 86 6b        	stx	$6b                     ; 0x6b <_row>
    4ef0: 8e 16 d0     	stx	$d016                   ; 0xd016 <__heap_start+0x40fe>
    4ef3: 9c 17 d0     	stz	$d017                   ; 0xd017 <__heap_start+0x40ff>
    4ef6: a2 4d        	ldx	#$4d
    4ef8: 86 12        	stx	$12                     ; 0x12 <__rc2>
    4efa: a2 89        	ldx	#$89
    4efc: 86 13        	stx	$13                     ; 0x13 <__rc3>
    4efe: 20 66 7f     	jsr	$7f66 <printf>
    4f01: 64 6a        	stz	$6a                     ; 0x6a <_col>
    4f03: 9c 14 d0     	stz	$d014                   ; 0xd014 <__heap_start+0x40fc>
    4f06: 9c 15 d0     	stz	$d015                   ; 0xd015 <__heap_start+0x40fd>
    4f09: a6 24        	ldx	$24                     ; 0x24 <__rc20>
    4f0b: 86 6b        	stx	$6b                     ; 0x6b <_row>
    4f0d: 8e 16 d0     	stx	$d016                   ; 0xd016 <__heap_start+0x40fe>
    4f10: 9c 17 d0     	stz	$d017                   ; 0xd017 <__heap_start+0x40ff>
    4f13: a2 70        	ldx	#$70
    4f15: 86 34        	stx	$34                     ; 0x34 <_ccolor>
    4f17: a9 99        	lda	#$99
    4f19: 92 10        	sta	($10)                   ; 0x10 <__rc0>
    4f1b: a0 01        	ldy	#$1
    4f1d: a9 8e        	lda	#$8e
    4f1f: 91 10        	sta	($10),y                 ; 0x10 <__rc0>
    4f21: a2 70        	ldx	#$70
    4f23: 86 12        	stx	$12                     ; 0x12 <__rc2>
    4f25: a2 8b        	ldx	#$8b
    4f27: 86 13        	stx	$13                     ; 0x13 <__rc3>
    4f29: 20 66 7f     	jsr	$7f66 <printf>
    4f2c: ae 99 8e     	ldx	$8e99                   ; 0x8e99 <name>
    4f2f: 64 13        	stz	$13                     ; 0x13 <__rc3>
    4f31: 64 12        	stz	$12                     ; 0x12 <__rc2>
    4f33: a4 2e        	ldy	$2e                     ; 0x2e <__rc30>
    4f35: 8a           	txa
    4f36: f0 25        	beq	$4f5d <main+0x8fb>
    4f38: 64 14        	stz	$14                     ; 0x14 <__rc4>
    4f3a: 64 15        	stz	$15                     ; 0x15 <__rc5>
    4f3c: e6 13        	inc	$13                     ; 0x13 <__rc3>
    4f3e: d0 02        	bne	$4f42 <main+0x8e0>
    4f40: e6 12        	inc	$12                     ; 0x12 <__rc2>
    4f42: a9 9a        	lda	#$9a
    4f44: c0 01        	cpy	#$1
    4f46: 65 14        	adc	$14                     ; 0x14 <__rc4>
    4f48: 85 14        	sta	$14                     ; 0x14 <__rc4>
    4f4a: a9 8e        	lda	#$8e
    4f4c: 65 15        	adc	$15                     ; 0x15 <__rc5>
    4f4e: 85 15        	sta	$15                     ; 0x15 <__rc5>
    4f50: b2 14        	lda	($14)                   ; 0x14 <__rc4>
    4f52: a6 13        	ldx	$13                     ; 0x13 <__rc3>
    4f54: 86 14        	stx	$14                     ; 0x14 <__rc4>
    4f56: a6 12        	ldx	$12                     ; 0x12 <__rc2>
    4f58: 86 15        	stx	$15                     ; 0x15 <__rc5>
    4f5a: aa           	tax
    4f5b: d0 df        	bne	$4f3c <main+0x8da>
    4f5d: a9 99        	lda	#$99
    4f5f: c0 01        	cpy	#$1
    4f61: 65 13        	adc	$13                     ; 0x13 <__rc3>
    4f63: aa           	tax
    4f64: a9 8e        	lda	#$8e
    4f66: 65 12        	adc	$12                     ; 0x12 <__rc2>
    4f68: 85 15        	sta	$15                     ; 0x15 <__rc5>
    4f6a: 18           	clc
    4f6b: 8a           	txa
    4f6c: 69 fd        	adc	#$fd
    4f6e: 85 14        	sta	$14                     ; 0x14 <__rc4>
    4f70: a5 15        	lda	$15                     ; 0x15 <__rc5>
    4f72: 69 ff        	adc	#$ff
    4f74: 85 15        	sta	$15                     ; 0x15 <__rc5>
    4f76: b2 14        	lda	($14)                   ; 0x14 <__rc4>
    4f78: d0 03        	bne	$4f7d <main+0x91b>
    4f7a: 4c 2a 54     	jmp	$542a <main+0xdc8>
    4f7d: a2 00        	ldx	#$0
    4f7f: 86 2e        	stx	$2e                     ; 0x2e <__rc30>
    4f81: c0 01        	cpy	#$1
    4f83: aa           	tax
    4f84: a9 97        	lda	#$97
    4f86: 65 13        	adc	$13                     ; 0x13 <__rc3>
    4f88: 85 14        	sta	$14                     ; 0x14 <__rc4>
    4f8a: a9 8e        	lda	#$8e
    4f8c: 65 12        	adc	$12                     ; 0x12 <__rc2>
    4f8e: 85 15        	sta	$15                     ; 0x15 <__rc5>
    4f90: 8a           	txa
    4f91: a2 47        	ldx	#$47
    4f93: 86 12        	stx	$12                     ; 0x12 <__rc2>
    4f95: a2 00        	ldx	#$0
    4f97: 86 13        	stx	$13                     ; 0x13 <__rc3>
    4f99: d2 12        	cmp	($12)                   ; 0x12 <__rc2>
    4f9b: f0 03        	beq	$4fa0 <main+0x93e>
    4f9d: 4c 38 54     	jmp	$5438 <main+0xdd6>
    4fa0: e6 12        	inc	$12                     ; 0x12 <__rc2>
    4fa2: d0 02        	bne	$4fa6 <main+0x944>
    4fa4: e6 13        	inc	$13                     ; 0x13 <__rc3>
    4fa6: b2 14        	lda	($14)                   ; 0x14 <__rc4>
    4fa8: e6 14        	inc	$14                     ; 0x14 <__rc4>
    4faa: d0 02        	bne	$4fae <main+0x94c>
    4fac: e6 15        	inc	$15                     ; 0x15 <__rc5>
    4fae: aa           	tax
    4faf: d0 e8        	bne	$4f99 <main+0x937>
    4fb1: 4c 36 54     	jmp	$5436 <main+0xdd4>
    4fb4: a4 24        	ldy	$24                     ; 0x24 <__rc20>
    4fb6: a5 24        	lda	$24                     ; 0x24 <__rc20>
    4fb8: 18           	clc
    4fb9: 69 02        	adc	#$2
    4fbb: 85 12        	sta	$12                     ; 0x12 <__rc2>
    4fbd: a9 00        	lda	#$0
    4fbf: 69 e0        	adc	#$e0
    4fc1: 85 13        	sta	$13                     ; 0x13 <__rc3>
    4fc3: a6 0f        	ldx	$f                      ; 0xf <__data_size+0xf>
    4fc5: 78           	sei
    4fc6: a5 25        	lda	$25                     ; 0x25 <__rc21>
    4fc8: 85 0f        	sta	$f                      ; 0xf <__data_size+0xf>
    4fca: b2 12        	lda	($12)                   ; 0x12 <__rc2>
    4fcc: 86 0f        	stx	$f                      ; 0xf <__data_size+0xf>
    4fce: 58           	cli
    4fcf: 91 28        	sta	($28),y                 ; 0x28 <__rc24>
    4fd1: aa           	tax
    4fd2: d0 03        	bne	$4fd7 <main+0x975>
    4fd4: 4c 71 64     	jmp	$6471 <main+0x1e0f>
    4fd7: a6 24        	ldx	$24                     ; 0x24 <__rc20>
    4fd9: e8           	inx
    4fda: 86 24        	stx	$24                     ; 0x24 <__rc20>
    4fdc: e0 3c        	cpx	#$3c
    4fde: d0 d4        	bne	$4fb4 <main+0x952>
    4fe0: 4c 6b 64     	jmp	$646b <main+0x1e09>
    4fe3: 98           	tya
    4fe4: 18           	clc
    4fe5: 69 3e        	adc	#$3e
    4fe7: 85 12        	sta	$12                     ; 0x12 <__rc2>
    4fe9: a9 00        	lda	#$0
    4feb: 69 e0        	adc	#$e0
    4fed: a6 0f        	ldx	$f                      ; 0xf <__data_size+0xf>
    4fef: 86 14        	stx	$14                     ; 0x14 <__rc4>
    4ff1: 78           	sei
    4ff2: a2 18        	ldx	#$18
    4ff4: 86 0f        	stx	$f                      ; 0xf <__data_size+0xf>
    4ff6: 85 13        	sta	$13                     ; 0x13 <__rc3>
    4ff8: b2 12        	lda	($12)                   ; 0x12 <__rc2>
    4ffa: a6 14        	ldx	$14                     ; 0x14 <__rc4>
    4ffc: 86 0f        	stx	$f                      ; 0xf <__data_size+0xf>
    4ffe: 58           	cli
    4fff: 91 2a        	sta	($2a),y                 ; 0x2a <__rc26>
    5001: aa           	tax
    5002: d0 03        	bne	$5007 <main+0x9a5>
    5004: 4c b2 63     	jmp	$63b2 <main+0x1d50>
    5007: c8           	iny
    5008: c0 78        	cpy	#$78
    500a: d0 d7        	bne	$4fe3 <main+0x981>
    500c: 4c b2 63     	jmp	$63b2 <main+0x1d50>
    500f: 8a           	txa
    5010: 18           	clc
    5011: 69 02        	adc	#$2
    5013: 85 12        	sta	$12                     ; 0x12 <__rc2>
    5015: a9 00        	lda	#$0
    5017: 69 e0        	adc	#$e0
    5019: bc e3 8a     	ldy	$8ae3,x                 ; 0x8ae3 <__BLOCK_SIZE+0x6ae3>
    501c: 84 14        	sty	$14                     ; 0x14 <__rc4>
    501e: 85 13        	sta	$13                     ; 0x13 <__rc3>
    5020: a5 2c        	lda	$2c                     ; 0x2c <__rc28>
    5022: a4 0f        	ldy	$f                      ; 0xf <__data_size+0xf>
    5024: 78           	sei
    5025: 85 0f        	sta	$f                      ; 0xf <__data_size+0xf>
    5027: a5 14        	lda	$14                     ; 0x14 <__rc4>
    5029: 92 12        	sta	($12)                   ; 0x12 <__rc2>
    502b: 84 0f        	sty	$f                      ; 0xf <__data_size+0xf>
    502d: 58           	cli
    502e: e8           	inx
    502f: e0 04        	cpx	#$4
    5031: d0 dc        	bne	$500f <main+0x9ad>
    5033: 4c a7 50     	jmp	$50a7 <main+0xa45>
    5036: a2 1b        	ldx	#$1b
    5038: 86 12        	stx	$12                     ; 0x12 <__rc2>
    503a: a2 8b        	ldx	#$8b
    503c: 86 13        	stx	$13                     ; 0x13 <__rc3>
    503e: 20 11 6b     	jsr	$6b11 <fileOpen>
    5041: a6 12        	ldx	$12                     ; 0x12 <__rc2>
    5043: 86 2c        	stx	$2c                     ; 0x2c <__rc28>
    5045: a6 13        	ldx	$13                     ; 0x13 <__rc3>
    5047: 86 2d        	stx	$2d                     ; 0x2d <__rc29>
    5049: a6 2c        	ldx	$2c                     ; 0x2c <__rc28>
    504b: a4 2d        	ldy	$2d                     ; 0x2d <__rc29>
    504d: 86 78        	stx	$78                     ; 0x78 <theFile>
    504f: 84 79        	sty	$79                     ; 0x79 <theFile+0x1>
    5051: 4c 84 54     	jmp	$5484 <main+0xe22>
    5054: a0 00        	ldy	#$0
    5056: 98           	tya
    5057: 18           	clc
    5058: 69 02        	adc	#$2
    505a: 85 12        	sta	$12                     ; 0x12 <__rc2>
    505c: a9 00        	lda	#$0
    505e: 69 e0        	adc	#$e0
    5060: a6 0f        	ldx	$f                      ; 0xf <__data_size+0xf>
    5062: 86 14        	stx	$14                     ; 0x14 <__rc4>
    5064: 78           	sei
    5065: a2 18        	ldx	#$18
    5067: 86 2c        	stx	$2c                     ; 0x2c <__rc28>
    5069: 86 0f        	stx	$f                      ; 0xf <__data_size+0xf>
    506b: 85 13        	sta	$13                     ; 0x13 <__rc3>
    506d: b2 12        	lda	($12)                   ; 0x12 <__rc2>
    506f: a6 14        	ldx	$14                     ; 0x14 <__rc4>
    5071: 86 0f        	stx	$f                      ; 0xf <__data_size+0xf>
    5073: 18           	clc
    5074: 48           	pha
    5075: a5 10        	lda	$10                     ; 0x10 <__rc0>
    5077: 69 20        	adc	#$20
    5079: 85 12        	sta	$12                     ; 0x12 <__rc2>
    507b: a5 11        	lda	$11                     ; 0x11 <__rc1>
    507d: 69 00        	adc	#$0
    507f: 85 13        	sta	$13                     ; 0x13 <__rc3>
    5081: 68           	pla
    5082: 58           	cli
    5083: 91 12        	sta	($12),y                 ; 0x12 <__rc2>
    5085: aa           	tax
    5086: f0 08        	beq	$5090 <main+0xa2e>
    5088: c8           	iny
    5089: c0 3c        	cpy	#$3c
    508b: d0 c9        	bne	$5056 <main+0x9f4>
    508d: 4c 45 64     	jmp	$6445 <main+0x1de3>
    5090: 20 ea 6f     	jsr	$6fea <fileOpenDir>
    5093: a2 00        	ldx	#$0
    5095: 86 14        	stx	$14                     ; 0x14 <__rc4>
    5097: a2 00        	ldx	#$0
    5099: 86 15        	stx	$15                     ; 0x15 <__rc5>
    509b: a6 13        	ldx	$13                     ; 0x13 <__rc3>
    509d: e4 15        	cpx	$15                     ; 0x15 <__rc5>
    509f: d0 03        	bne	$50a4 <main+0xa42>
    50a1: 4c fb 63     	jmp	$63fb <main+0x1d99>
    50a4: 20 9f 6f     	jsr	$6f9f <fileCloseDir>
    50a7: a2 00        	ldx	#$0
    50a9: a0 e0        	ldy	#$e0
    50ab: 84 14        	sty	$14                     ; 0x14 <__rc4>
    50ad: 8a           	txa
    50ae: 18           	clc
    50af: 69 3e        	adc	#$3e
    50b1: 85 12        	sta	$12                     ; 0x12 <__rc2>
    50b3: a5 2c        	lda	$2c                     ; 0x2c <__rc28>
    50b5: a4 0f        	ldy	$f                      ; 0xf <__data_size+0xf>
    50b7: 78           	sei
    50b8: 85 0f        	sta	$f                      ; 0xf <__data_size+0xf>
    50ba: a5 14        	lda	$14                     ; 0x14 <__rc4>
    50bc: 85 13        	sta	$13                     ; 0x13 <__rc3>
    50be: a9 00        	lda	#$0
    50c0: 92 12        	sta	($12)                   ; 0x12 <__rc2>
    50c2: 84 0f        	sty	$f                      ; 0xf <__data_size+0xf>
    50c4: 58           	cli
    50c5: e8           	inx
    50c6: e0 78        	cpx	#$78
    50c8: d0 e3        	bne	$50ad <main+0xa4b>
    50ca: 20 30 25     	jsr	$2530 <reprepFPR_far>
    50cd: 64 12        	stz	$12                     ; 0x12 <__rc2>
    50cf: 64 13        	stz	$13                     ; 0x13 <__rc3>
    50d1: a5 12        	lda	$12                     ; 0x12 <__rc2>
    50d3: 0a           	asl
    50d4: a6 13        	ldx	$13                     ; 0x13 <__rc3>
    50d6: 86 14        	stx	$14                     ; 0x14 <__rc4>
    50d8: 26 14        	rol	$14                     ; 0x14 <__rc4>
    50da: 18           	clc
    50db: a2 01        	ldx	#$1
    50dd: b0 02        	bcs	$50e1 <main+0xa7f>
    50df: a2 00        	ldx	#$0
    50e1: 86 19        	stx	$19                     ; 0x19 <__rc9>
    50e3: 65 12        	adc	$12                     ; 0x12 <__rc2>
    50e5: 85 1a        	sta	$1a                     ; 0x1a <__rc10>
    50e7: a5 14        	lda	$14                     ; 0x14 <__rc4>
    50e9: 65 13        	adc	$13                     ; 0x13 <__rc3>
    50eb: 85 18        	sta	$18                     ; 0x18 <__rc8>
    50ed: 64 14        	stz	$14                     ; 0x14 <__rc4>
    50ef: a5 1a        	lda	$1a                     ; 0x1a <__rc10>
    50f1: a6 19        	ldx	$19                     ; 0x19 <__rc9>
    50f3: e0 01        	cpx	#$1
    50f5: 65 14        	adc	$14                     ; 0x14 <__rc4>
    50f7: 85 15        	sta	$15                     ; 0x15 <__rc5>
    50f9: a5 18        	lda	$18                     ; 0x18 <__rc8>
    50fb: 69 00        	adc	#$0
    50fd: a8           	tay
    50fe: a9 00        	lda	#$0
    5100: 69 00        	adc	#$0
    5102: aa           	tax
    5103: 18           	clc
    5104: a5 15        	lda	$15                     ; 0x15 <__rc5>
    5106: 69 4e        	adc	#$4e
    5108: 85 16        	sta	$16                     ; 0x16 <__rc6>
    510a: 98           	tya
    510b: 69 5f        	adc	#$5f
    510d: a8           	tay
    510e: 8a           	txa
    510f: 69 03        	adc	#$3
    5111: 85 17        	sta	$17                     ; 0x17 <__rc7>
    5113: 98           	tya
    5114: 84 15        	sty	$15                     ; 0x15 <__rc5>
    5116: 06 15        	asl	$15                     ; 0x15 <__rc5>
    5118: 26 17        	rol	$17                     ; 0x17 <__rc7>
    511a: 06 15        	asl	$15                     ; 0x15 <__rc5>
    511c: 26 17        	rol	$17                     ; 0x17 <__rc7>
    511e: 06 15        	asl	$15                     ; 0x15 <__rc5>
    5120: 26 17        	rol	$17                     ; 0x17 <__rc7>
    5122: a4 17        	ldy	$17                     ; 0x17 <__rc7>
    5124: a6 0f        	ldx	$f                      ; 0xf <__data_size+0xf>
    5126: 78           	sei
    5127: 84 0f        	sty	$f                      ; 0xf <__data_size+0xf>
    5129: 09 e0        	ora	#$e0
    512b: 85 17        	sta	$17                     ; 0x17 <__rc7>
    512d: a9 00        	lda	#$0
    512f: 92 16        	sta	($16)                   ; 0x16 <__rc6>
    5131: 86 0f        	stx	$f                      ; 0xf <__data_size+0xf>
    5133: 58           	cli
    5134: a6 14        	ldx	$14                     ; 0x14 <__rc4>
    5136: e8           	inx
    5137: 86 14        	stx	$14                     ; 0x14 <__rc4>
    5139: e0 03        	cpx	#$3
    513b: f0 03        	beq	$5140 <main+0xade>
    513d: 4c ef 50     	jmp	$50ef <main+0xa8d>
    5140: a2 00        	ldx	#$0
    5142: 86 2e        	stx	$2e                     ; 0x2e <__rc30>
    5144: a6 13        	ldx	$13                     ; 0x13 <__rc3>
    5146: a4 12        	ldy	$12                     ; 0x12 <__rc2>
    5148: c8           	iny
    5149: d0 01        	bne	$514c <main+0xaea>
    514b: e8           	inx
    514c: 84 12        	sty	$12                     ; 0x12 <__rc2>
    514e: 86 13        	stx	$13                     ; 0x13 <__rc3>
    5150: 8a           	txa
    5151: f0 03        	beq	$5156 <main+0xaf4>
    5153: 4c d1 50     	jmp	$50d1 <main+0xa6f>
    5156: 84 12        	sty	$12                     ; 0x12 <__rc2>
    5158: 86 13        	stx	$13                     ; 0x13 <__rc3>
    515a: c0 04        	cpy	#$4
    515c: f0 03        	beq	$5161 <main+0xaff>
    515e: 4c d1 50     	jmp	$50d1 <main+0xa6f>
    5161: a4 0f        	ldy	$f                      ; 0xf <__data_size+0xf>
    5163: 78           	sei
    5164: a9 18        	lda	#$18
    5166: 85 0f        	sta	$f                      ; 0xf <__data_size+0xf>
    5168: a2 00        	ldx	#$0
    516a: 9c 00 e0     	stz	$e000                   ; 0xe000 <__heap_start+0x50e8>
    516d: 84 0f        	sty	$f                      ; 0xf <__data_size+0xf>
    516f: 58           	cli
    5170: a4 0f        	ldy	$f                      ; 0xf <__data_size+0xf>
    5172: 78           	sei
    5173: 85 0f        	sta	$f                      ; 0xf <__data_size+0xf>
    5175: a9 03        	lda	#$3
    5177: 8d 01 e0     	sta	$e001                   ; 0xe001 <__heap_start+0x50e9>
    517a: 84 0f        	sty	$f                      ; 0xf <__data_size+0xf>
    517c: 58           	cli
    517d: a0 1a        	ldy	#$1a
    517f: 84 15        	sty	$15                     ; 0x15 <__rc5>
    5181: 8a           	txa
    5182: 18           	clc
    5183: 69 4e        	adc	#$4e
    5185: 85 12        	sta	$12                     ; 0x12 <__rc2>
    5187: a9 00        	lda	#$0
    5189: 69 ff        	adc	#$ff
    518b: b4 30        	ldy	$30,x                   ; 0x30 <__zp_data_start>
    518d: 84 14        	sty	$14                     ; 0x14 <__rc4>
    518f: 85 13        	sta	$13                     ; 0x13 <__rc3>
    5191: a4 0f        	ldy	$f                      ; 0xf <__data_size+0xf>
    5193: 78           	sei
    5194: a5 15        	lda	$15                     ; 0x15 <__rc5>
    5196: 85 0f        	sta	$f                      ; 0xf <__data_size+0xf>
    5198: a5 14        	lda	$14                     ; 0x14 <__rc4>
    519a: 92 12        	sta	($12)                   ; 0x12 <__rc2>
    519c: 84 0f        	sty	$f                      ; 0xf <__data_size+0xf>
    519e: 58           	cli
    519f: e8           	inx
    51a0: e0 03        	cpx	#$3
    51a2: d0 dd        	bne	$5181 <main+0xb1f>
    51a4: a2 00        	ldx	#$0
    51a6: 18           	clc
    51a7: 8a           	txa
    51a8: 69 51        	adc	#$51
    51aa: 85 12        	sta	$12                     ; 0x12 <__rc2>
    51ac: a9 00        	lda	#$0
    51ae: 69 ff        	adc	#$ff
    51b0: b4 47        	ldy	$47,x                   ; 0x47 <selectableChan+0x12>
    51b2: 84 14        	sty	$14                     ; 0x14 <__rc4>
    51b4: 85 13        	sta	$13                     ; 0x13 <__rc3>
    51b6: a4 0f        	ldy	$f                      ; 0xf <__data_size+0xf>
    51b8: 78           	sei
    51b9: a5 15        	lda	$15                     ; 0x15 <__rc5>
    51bb: 85 0f        	sta	$f                      ; 0xf <__data_size+0xf>
    51bd: a5 14        	lda	$14                     ; 0x14 <__rc4>
    51bf: 92 12        	sta	($12)                   ; 0x12 <__rc2>
    51c1: 84 0f        	sty	$f                      ; 0xf <__data_size+0xf>
    51c3: 58           	cli
    51c4: e8           	inx
    51c5: e0 03        	cpx	#$3
    51c7: d0 dd        	bne	$51a6 <main+0xb44>
    51c9: a2 00        	ldx	#$0
    51cb: a0 ff        	ldy	#$ff
    51cd: 84 14        	sty	$14                     ; 0x14 <__rc4>
    51cf: a4 0f        	ldy	$f                      ; 0xf <__data_size+0xf>
    51d1: 78           	sei
    51d2: a5 15        	lda	$15                     ; 0x15 <__rc5>
    51d4: 85 0f        	sta	$f                      ; 0xf <__data_size+0xf>
    51d6: 8a           	txa
    51d7: 09 54        	ora	#$54
    51d9: 85 12        	sta	$12                     ; 0x12 <__rc2>
    51db: a5 14        	lda	$14                     ; 0x14 <__rc4>
    51dd: 85 13        	sta	$13                     ; 0x13 <__rc3>
    51df: a9 00        	lda	#$0
    51e1: 92 12        	sta	($12)                   ; 0x12 <__rc2>
    51e3: 84 0f        	sty	$f                      ; 0xf <__data_size+0xf>
    51e5: 58           	cli
    51e6: e8           	inx
    51e7: e0 03        	cpx	#$3
    51e9: d0 e4        	bne	$51cf <main+0xb6d>
    51eb: a2 57        	ldx	#$57
    51ed: a0 ff        	ldy	#$ff
    51ef: 86 12        	stx	$12                     ; 0x12 <__rc2>
    51f1: 84 13        	sty	$13                     ; 0x13 <__rc3>
    51f3: a4 15        	ldy	$15                     ; 0x15 <__rc5>
    51f5: a6 0f        	ldx	$f                      ; 0xf <__data_size+0xf>
    51f7: 78           	sei
    51f8: 84 0f        	sty	$f                      ; 0xf <__data_size+0xf>
    51fa: 92 12        	sta	($12)                   ; 0x12 <__rc2>
    51fc: 86 0f        	stx	$f                      ; 0xf <__data_size+0xf>
    51fe: 58           	cli
    51ff: e6 12        	inc	$12                     ; 0x12 <__rc2>
    5201: d0 02        	bne	$5205 <main+0xba3>
    5203: e6 13        	inc	$13                     ; 0x13 <__rc3>
    5205: a6 12        	ldx	$12                     ; 0x12 <__rc2>
    5207: e0 5a        	cpx	#$5a
    5209: d0 ea        	bne	$51f5 <main+0xb93>
    520b: 84 24        	sty	$24                     ; 0x24 <__rc20>
    520d: 20 fb 05     	jsr	$5fb <readDirectory_far>
    5210: 20 03 0b     	jsr	$b03 <sortFileList_far>
    5213: a2 a0        	ldx	#$a0
    5215: 86 34        	stx	$34                     ; 0x34 <_ccolor>
    5217: a4 0f        	ldy	$f                      ; 0xf <__data_size+0xf>
    5219: 78           	sei
    521a: a6 24        	ldx	$24                     ; 0x24 <__rc20>
    521c: 86 0f        	stx	$f                      ; 0xf <__data_size+0xf>
    521e: ad 4a ff     	lda	$ff4a                   ; 0xff4a <__heap_start+0x7032>
    5221: ae 4b ff     	ldx	$ff4b                   ; 0xff4b <__heap_start+0x7033>
    5224: 84 0f        	sty	$f                      ; 0xf <__data_size+0xf>
    5226: 58           	cli
    5227: 4c 1b 54     	jmp	$541b <main+0xdb9>
    522a: a4 0f        	ldy	$f                      ; 0xf <__data_size+0xf>
    522c: 78           	sei
    522d: a9 18        	lda	#$18
    522f: 85 0f        	sta	$f                      ; 0xf <__data_size+0xf>
    5231: ae 02 e0     	ldx	$e002                   ; 0xe002 <__heap_start+0x50ea>
    5234: 84 0f        	sty	$f                      ; 0xf <__data_size+0xf>
    5236: 58           	cli
    5237: e0 00        	cpx	#$0
    5239: d0 03        	bne	$523e <main+0xbdc>
    523b: 4c 02 54     	jmp	$5402 <main+0xda0>
    523e: e0 2f        	cpx	#$2f
    5240: d0 11        	bne	$5253 <main+0xbf1>
    5242: a6 0f        	ldx	$f                      ; 0xf <__data_size+0xf>
    5244: 78           	sei
    5245: 85 0f        	sta	$f                      ; 0xf <__data_size+0xf>
    5247: ac 03 e0     	ldy	$e003                   ; 0xe003 <__heap_start+0x50eb>
    524a: 86 0f        	stx	$f                      ; 0xf <__data_size+0xf>
    524c: 58           	cli
    524d: 98           	tya
    524e: d0 03        	bne	$5253 <main+0xbf1>
    5250: 4c 02 54     	jmp	$5402 <main+0xda0>
    5253: a2 e0        	ldx	#$e0
    5255: 86 15        	stx	$15                     ; 0x15 <__rc5>
    5257: a2 ff        	ldx	#$ff
    5259: 86 16        	stx	$16                     ; 0x16 <__rc6>
    525b: e8           	inx
    525c: a0 ff        	ldy	#$ff
    525e: 84 17        	sty	$17                     ; 0x17 <__rc7>
    5260: 80 09        	bra	$526b <main+0xc09>
    5262: 64 17        	stz	$17                     ; 0x17 <__rc7>
    5264: 86 16        	stx	$16                     ; 0x16 <__rc6>
    5266: e8           	inx
    5267: e0 3c        	cpx	#$3c
    5269: f0 23        	beq	$528e <main+0xc2c>
    526b: 8a           	txa
    526c: 18           	clc
    526d: 69 02        	adc	#$2
    526f: a4 0f        	ldy	$f                      ; 0xf <__data_size+0xf>
    5271: 84 18        	sty	$18                     ; 0x18 <__rc8>
    5273: 78           	sei
    5274: a0 18        	ldy	#$18
    5276: 84 14        	sty	$14                     ; 0x14 <__rc4>
    5278: 84 0f        	sty	$f                      ; 0xf <__data_size+0xf>
    527a: 85 12        	sta	$12                     ; 0x12 <__rc2>
    527c: a4 15        	ldy	$15                     ; 0x15 <__rc5>
    527e: 84 13        	sty	$13                     ; 0x13 <__rc3>
    5280: b2 12        	lda	($12)                   ; 0x12 <__rc2>
    5282: a4 18        	ldy	$18                     ; 0x18 <__rc8>
    5284: 84 0f        	sty	$f                      ; 0xf <__data_size+0xf>
    5286: 58           	cli
    5287: c9 2f        	cmp	#$2f
    5289: f0 d7        	beq	$5262 <main+0xc00>
    528b: a8           	tay
    528c: d0 d8        	bne	$5266 <main+0xc04>
    528e: a6 16        	ldx	$16                     ; 0x16 <__rc6>
    5290: e0 01        	cpx	#$1
    5292: a5 17        	lda	$17                     ; 0x17 <__rc7>
    5294: e9 00        	sbc	#$0
    5296: 50 02        	bvc	$529a <main+0xc38>
    5298: 49 80        	eor	#$80
    529a: aa           	tax
    529b: 10 03        	bpl	$52a0 <main+0xc3e>
    529d: 4c e3 53     	jmp	$53e3 <main+0xd81>
    52a0: 18           	clc
    52a1: a5 16        	lda	$16                     ; 0x16 <__rc6>
    52a3: 69 02        	adc	#$2
    52a5: 85 12        	sta	$12                     ; 0x12 <__rc2>
    52a7: a5 17        	lda	$17                     ; 0x17 <__rc7>
    52a9: 69 00        	adc	#$0
    52ab: a8           	tay
    52ac: a9 00        	lda	#$0
    52ae: 69 03        	adc	#$3
    52b0: 85 13        	sta	$13                     ; 0x13 <__rc3>
    52b2: a6 0f        	ldx	$f                      ; 0xf <__data_size+0xf>
    52b4: 78           	sei
    52b5: 98           	tya
    52b6: 0a           	asl
    52b7: 26 13        	rol	$13                     ; 0x13 <__rc3>
    52b9: 0a           	asl
    52ba: 26 13        	rol	$13                     ; 0x13 <__rc3>
    52bc: 0a           	asl
    52bd: a5 13        	lda	$13                     ; 0x13 <__rc3>
    52bf: 2a           	rol
    52c0: 85 0f        	sta	$f                      ; 0xf <__data_size+0xf>
    52c2: 98           	tya
    52c3: 09 e0        	ora	#$e0
    52c5: 85 13        	sta	$13                     ; 0x13 <__rc3>
    52c7: a9 00        	lda	#$0
    52c9: 92 12        	sta	($12)                   ; 0x12 <__rc2>
    52cb: 86 0f        	stx	$f                      ; 0xf <__data_size+0xf>
    52cd: 58           	cli
    52ce: 4c 02 54     	jmp	$5402 <main+0xda0>
    52d1: a0 00        	ldy	#$0
    52d3: 98           	tya
    52d4: 18           	clc
    52d5: 69 02        	adc	#$2
    52d7: 85 12        	sta	$12                     ; 0x12 <__rc2>
    52d9: a9 00        	lda	#$0
    52db: 69 e0        	adc	#$e0
    52dd: a6 0f        	ldx	$f                      ; 0xf <__data_size+0xf>
    52df: 86 14        	stx	$14                     ; 0x14 <__rc4>
    52e1: 78           	sei
    52e2: a2 18        	ldx	#$18
    52e4: 86 0f        	stx	$f                      ; 0xf <__data_size+0xf>
    52e6: 85 13        	sta	$13                     ; 0x13 <__rc3>
    52e8: b2 12        	lda	($12)                   ; 0x12 <__rc2>
    52ea: a6 14        	ldx	$14                     ; 0x14 <__rc4>
    52ec: 86 0f        	stx	$f                      ; 0xf <__data_size+0xf>
    52ee: 18           	clc
    52ef: 48           	pha
    52f0: a5 10        	lda	$10                     ; 0x10 <__rc0>
    52f2: 69 14        	adc	#$14
    52f4: 85 12        	sta	$12                     ; 0x12 <__rc2>
    52f6: a5 11        	lda	$11                     ; 0x11 <__rc1>
    52f8: 69 01        	adc	#$1
    52fa: 85 13        	sta	$13                     ; 0x13 <__rc3>
    52fc: 68           	pla
    52fd: 58           	cli
    52fe: 91 12        	sta	($12),y                 ; 0x12 <__rc2>
    5300: aa           	tax
    5301: f0 05        	beq	$5308 <main+0xca6>
    5303: c8           	iny
    5304: c0 3c        	cpy	#$3c
    5306: d0 cb        	bne	$52d3 <main+0xc71>
    5308: a0 00        	ldy	#$0
    530a: 98           	tya
    530b: 18           	clc
    530c: 69 3e        	adc	#$3e
    530e: 85 12        	sta	$12                     ; 0x12 <__rc2>
    5310: a9 00        	lda	#$0
    5312: 69 e0        	adc	#$e0
    5314: 85 13        	sta	$13                     ; 0x13 <__rc3>
    5316: a6 0f        	ldx	$f                      ; 0xf <__data_size+0xf>
    5318: 78           	sei
    5319: a9 18        	lda	#$18
    531b: 85 0f        	sta	$f                      ; 0xf <__data_size+0xf>
    531d: b2 12        	lda	($12)                   ; 0x12 <__rc2>
    531f: 86 0f        	stx	$f                      ; 0xf <__data_size+0xf>
    5321: 58           	cli
    5322: 91 2a        	sta	($2a),y                 ; 0x2a <__rc26>
    5324: aa           	tax
    5325: f0 05        	beq	$532c <main+0xcca>
    5327: c8           	iny
    5328: c0 78        	cpy	#$78
    532a: d0 de        	bne	$530a <main+0xca8>
    532c: a6 11        	ldx	$11                     ; 0x11 <__rc1>
    532e: 18           	clc
    532f: a5 10        	lda	$10                     ; 0x10 <__rc0>
    5331: 69 14        	adc	#$14
    5333: 48           	pha
    5334: a5 11        	lda	$11                     ; 0x11 <__rc1>
    5336: 69 01        	adc	#$1
    5338: 85 14        	sta	$14                     ; 0x14 <__rc4>
    533a: 68           	pla
    533b: 92 10        	sta	($10)                   ; 0x10 <__rc0>
    533d: a0 01        	ldy	#$1
    533f: a5 14        	lda	$14                     ; 0x14 <__rc4>
    5341: 91 10        	sta	($10),y                 ; 0x10 <__rc0>
    5343: 84 14        	sty	$14                     ; 0x14 <__rc4>
    5345: 18           	clc
    5346: a5 10        	lda	$10                     ; 0x10 <__rc0>
    5348: 69 02        	adc	#$2
    534a: 85 12        	sta	$12                     ; 0x12 <__rc2>
    534c: 8a           	txa
    534d: 69 00        	adc	#$0
    534f: 85 13        	sta	$13                     ; 0x13 <__rc3>
    5351: 18           	clc
    5352: a5 10        	lda	$10                     ; 0x10 <__rc0>
    5354: 69 9c        	adc	#$9c
    5356: 48           	pha
    5357: a5 11        	lda	$11                     ; 0x11 <__rc1>
    5359: 69 00        	adc	#$0
    535b: 85 15        	sta	$15                     ; 0x15 <__rc5>
    535d: 68           	pla
    535e: c8           	iny
    535f: 91 10        	sta	($10),y                 ; 0x10 <__rc0>
    5361: a4 14        	ldy	$14                     ; 0x14 <__rc4>
    5363: a5 15        	lda	$15                     ; 0x15 <__rc5>
    5365: 91 12        	sta	($12),y                 ; 0x12 <__rc2>
    5367: a6 28        	ldx	$28                     ; 0x28 <__rc24>
    5369: 86 12        	stx	$12                     ; 0x12 <__rc2>
    536b: a6 29        	ldx	$29                     ; 0x29 <__rc25>
    536d: 86 13        	stx	$13                     ; 0x13 <__rc3>
    536f: 20 f6 7f     	jsr	$7ff6 <sprintf>
    5372: 20 30 25     	jsr	$2530 <reprepFPR_far>
    5375: b2 28        	lda	($28)                   ; 0x28 <__rc24>
    5377: a6 0f        	ldx	$f                      ; 0xf <__data_size+0xf>
    5379: 78           	sei
    537a: a0 18        	ldy	#$18
    537c: 84 0f        	sty	$f                      ; 0xf <__data_size+0xf>
    537e: 8d 02 e0     	sta	$e002                   ; 0xe002 <__heap_start+0x50ea>
    5381: 86 0f        	stx	$f                      ; 0xf <__data_size+0xf>
    5383: 58           	cli
    5384: a2 00        	ldx	#$0
    5386: 80 3c        	bra	$53c4 <main+0xd62>
    5388: 18           	clc
    5389: a5 10        	lda	$10                     ; 0x10 <__rc0>
    538b: 69 5c        	adc	#$5c
    538d: 85 12        	sta	$12                     ; 0x12 <__rc2>
    538f: a5 11        	lda	$11                     ; 0x11 <__rc1>
    5391: 69 00        	adc	#$0
    5393: 85 13        	sta	$13                     ; 0x13 <__rc3>
    5395: 8a           	txa
    5396: 18           	clc
    5397: a0 00        	ldy	#$0
    5399: 84 2e        	sty	$2e                     ; 0x2e <__rc30>
    539b: 65 12        	adc	$12                     ; 0x12 <__rc2>
    539d: 85 12        	sta	$12                     ; 0x12 <__rc2>
    539f: a5 13        	lda	$13                     ; 0x13 <__rc3>
    53a1: 69 00        	adc	#$0
    53a3: 85 13        	sta	$13                     ; 0x13 <__rc3>
    53a5: 8a           	txa
    53a6: 18           	clc
    53a7: 69 03        	adc	#$3
    53a9: 85 14        	sta	$14                     ; 0x14 <__rc4>
    53ab: 98           	tya
    53ac: 69 e0        	adc	#$e0
    53ae: 85 15        	sta	$15                     ; 0x15 <__rc5>
    53b0: c8           	iny
    53b1: b1 12        	lda	($12),y                 ; 0x12 <__rc2>
    53b3: 85 12        	sta	$12                     ; 0x12 <__rc2>
    53b5: a4 0f        	ldy	$f                      ; 0xf <__data_size+0xf>
    53b7: 78           	sei
    53b8: a9 18        	lda	#$18
    53ba: 85 0f        	sta	$f                      ; 0xf <__data_size+0xf>
    53bc: a5 12        	lda	$12                     ; 0x12 <__rc2>
    53be: 92 14        	sta	($14)                   ; 0x14 <__rc4>
    53c0: 84 0f        	sty	$f                      ; 0xf <__data_size+0xf>
    53c2: 58           	cli
    53c3: e8           	inx
    53c4: a8           	tay
    53c5: f0 04        	beq	$53cb <main+0xd69>
    53c7: e0 3b        	cpx	#$3b
    53c9: d0 bd        	bne	$5388 <main+0xd26>
    53cb: 20 fb 05     	jsr	$5fb <readDirectory_far>
    53ce: 20 03 0b     	jsr	$b03 <sortFileList_far>
    53d1: a4 0f        	ldy	$f                      ; 0xf <__data_size+0xf>
    53d3: 78           	sei
    53d4: a2 1a        	ldx	#$1a
    53d6: 86 0f        	stx	$f                      ; 0xf <__data_size+0xf>
    53d8: ad 4a ff     	lda	$ff4a                   ; 0xff4a <__heap_start+0x7032>
    53db: ae 4b ff     	ldx	$ff4b                   ; 0xff4b <__heap_start+0x7033>
    53de: 84 0f        	sty	$f                      ; 0xf <__data_size+0xf>
    53e0: 58           	cli
    53e1: 80 38        	bra	$541b <main+0xdb9>
    53e3: a2 00        	ldx	#$0
    53e5: 18           	clc
    53e6: 8a           	txa
    53e7: 69 02        	adc	#$2
    53e9: 85 12        	sta	$12                     ; 0x12 <__rc2>
    53eb: a4 0f        	ldy	$f                      ; 0xf <__data_size+0xf>
    53ed: 78           	sei
    53ee: a5 14        	lda	$14                     ; 0x14 <__rc4>
    53f0: 85 0f        	sta	$f                      ; 0xf <__data_size+0xf>
    53f2: a5 15        	lda	$15                     ; 0x15 <__rc5>
    53f4: 85 13        	sta	$13                     ; 0x13 <__rc3>
    53f6: a9 00        	lda	#$0
    53f8: 92 12        	sta	($12)                   ; 0x12 <__rc2>
    53fa: 84 0f        	sty	$f                      ; 0xf <__data_size+0xf>
    53fc: 58           	cli
    53fd: e8           	inx
    53fe: e0 3c        	cpx	#$3c
    5400: d0 e3        	bne	$53e5 <main+0xd83>
    5402: 20 30 25     	jsr	$2530 <reprepFPR_far>
    5405: 20 fb 05     	jsr	$5fb <readDirectory_far>
    5408: 20 03 0b     	jsr	$b03 <sortFileList_far>
    540b: a4 0f        	ldy	$f                      ; 0xf <__data_size+0xf>
    540d: 78           	sei
    540e: a2 1a        	ldx	#$1a
    5410: 86 0f        	stx	$f                      ; 0xf <__data_size+0xf>
    5412: ad 4a ff     	lda	$ff4a                   ; 0xff4a <__heap_start+0x7032>
    5415: ae 4b ff     	ldx	$ff4b                   ; 0xff4b <__heap_start+0x7033>
    5418: 84 0f        	sty	$f                      ; 0xf <__data_size+0xf>
    541a: 58           	cli
    541b: 20 ba 10     	jsr	$10ba <displayFileList_far>
    541e: 20 07 15     	jsr	$1507 <pickFile_far>
    5421: c9 04        	cmp	#$4
    5423: b0 f9        	bcs	$541e <main+0xdbc>
    5425: 0a           	asl
    5426: aa           	tax
    5427: 7c 48 87     	jmp	($8748,x)               ; 0x8748 <__BLOCK_SIZE+0x6748>
    542a: a2 00        	ldx	#$0
    542c: 86 2e        	stx	$2e                     ; 0x2e <__rc30>
    542e: a2 47        	ldx	#$47
    5430: 86 12        	stx	$12                     ; 0x12 <__rc2>
    5432: a2 00        	ldx	#$0
    5434: 86 13        	stx	$13                     ; 0x13 <__rc3>
    5436: a9 00        	lda	#$0
    5438: d2 12        	cmp	($12)                   ; 0x12 <__rc2>
    543a: d0 2a        	bne	$5466 <main+0xe04>
    543c: a2 1b        	ldx	#$1b
    543e: 86 12        	stx	$12                     ; 0x12 <__rc2>
    5440: a2 8b        	ldx	#$8b
    5442: 86 13        	stx	$13                     ; 0x13 <__rc3>
    5444: 20 11 6b     	jsr	$6b11 <fileOpen>
    5447: a5 12        	lda	$12                     ; 0x12 <__rc2>
    5449: a0 0c        	ldy	#$c
    544b: 91 10        	sta	($10),y                 ; 0x10 <__rc0>
    544d: a5 13        	lda	$13                     ; 0x13 <__rc3>
    544f: c8           	iny
    5450: 91 10        	sta	($10),y                 ; 0x10 <__rc0>
    5452: c8           	iny
    5453: b1 10        	lda	($10),y                 ; 0x10 <__rc0>
    5455: 85 14        	sta	$14                     ; 0x14 <__rc4>
    5457: c8           	iny
    5458: b1 10        	lda	($10),y                 ; 0x10 <__rc0>
    545a: 85 15        	sta	$15                     ; 0x15 <__rc5>
    545c: 20 f8 69     	jsr	$69f8 <fetchNextPLEntry>
    545f: a2 01        	ldx	#$1
    5461: 8a           	txa
    5462: a0 12        	ldy	#$12
    5464: 91 10        	sta	($10),y                 ; 0x10 <__rc0>
    5466: a2 1b        	ldx	#$1b
    5468: 86 12        	stx	$12                     ; 0x12 <__rc2>
    546a: a2 8b        	ldx	#$8b
    546c: 86 13        	stx	$13                     ; 0x13 <__rc3>
    546e: 20 11 6b     	jsr	$6b11 <fileOpen>
    5471: a6 12        	ldx	$12                     ; 0x12 <__rc2>
    5473: 86 2c        	stx	$2c                     ; 0x2c <__rc28>
    5475: a6 13        	ldx	$13                     ; 0x13 <__rc3>
    5477: 86 2d        	stx	$2d                     ; 0x2d <__rc29>
    5479: a6 2c        	ldx	$2c                     ; 0x2c <__rc28>
    547b: a4 2d        	ldy	$2d                     ; 0x2d <__rc29>
    547d: 86 78        	stx	$78                     ; 0x78 <theFile>
    547f: 84 79        	sty	$79                     ; 0x79 <theFile+0x1>
    5481: 20 86 3d     	jsr	$3d86 <lilpause>
    5484: a2 00        	ldx	#$0
    5486: 86 12        	stx	$12                     ; 0x12 <__rc2>
    5488: a2 00        	ldx	#$0
    548a: 86 13        	stx	$13                     ; 0x13 <__rc3>
    548c: a6 2d        	ldx	$2d                     ; 0x2d <__rc29>
    548e: a9 00        	lda	#$0
    5490: e4 13        	cpx	$13                     ; 0x13 <__rc3>
    5492: d0 4f        	bne	$54e3 <main+0xe81>
    5494: a6 2c        	ldx	$2c                     ; 0x2c <__rc28>
    5496: e4 12        	cpx	$12                     ; 0x12 <__rc2>
    5498: d0 49        	bne	$54e3 <main+0xe81>
    549a: 64 6a        	stz	$6a                     ; 0x6a <_col>
    549c: 9c 14 d0     	stz	$d014                   ; 0xd014 <__heap_start+0x40fc>
    549f: 9c 15 d0     	stz	$d015                   ; 0xd015 <__heap_start+0x40fd>
    54a2: a2 02        	ldx	#$2
    54a4: 86 6b        	stx	$6b                     ; 0x6b <_row>
    54a6: 8e 16 d0     	stx	$d016                   ; 0xd016 <__heap_start+0x40fe>
    54a9: 9c 17 d0     	stz	$d017                   ; 0xd017 <__heap_start+0x40ff>
    54ac: a2 9c        	ldx	#$9c
    54ae: 86 12        	stx	$12                     ; 0x12 <__rc2>
    54b0: a2 8a        	ldx	#$8a
    54b2: 86 13        	stx	$13                     ; 0x13 <__rc3>
    54b4: 20 66 7f     	jsr	$7f66 <printf>
    54b7: a4 26        	ldy	$26                     ; 0x26 <__rc22>
    54b9: 64 62        	stz	$62                     ; 0x62 <kernelEventData>
    54bb: a2 69        	ldx	#$69
    54bd: 86 12        	stx	$12                     ; 0x12 <__rc2>
    54bf: a2 00        	ldx	#$0
    54c1: 86 13        	stx	$13                     ; 0x13 <__rc3>
    54c3: 20 00 ff     	jsr	$ff00 <__heap_start+0x6fe8>
    54c6: 92 2a        	sta	($2a)                   ; 0x2a <__rc26>
    54c8: a9 00        	lda	#$0
    54ca: 6a           	ror
    54cb: 85 12        	sta	$12                     ; 0x12 <__rc2>
    54cd: a6 62        	ldx	$62                     ; 0x62 <kernelEventData>
    54cf: e0 08        	cpx	#$8
    54d1: d0 e6        	bne	$54b9 <main+0xe57>
    54d3: a6 66        	ldx	$66                     ; 0x66 <kernelEventData+0x4>
    54d5: e0 20        	cpx	#$20
    54d7: d0 03        	bne	$54dc <main+0xe7a>
    54d9: 4c 94 4e     	jmp	$4e94 <main+0x832>
    54dc: e0 94        	cpx	#$94
    54de: d0 d9        	bne	$54b9 <main+0xe57>
    54e0: 4c 94 4e     	jmp	$4e94 <main+0x832>
    54e3: 48           	pha
    54e4: a5 28        	lda	$28                     ; 0x28 <__rc24>
    54e6: a0 13        	ldy	#$13
    54e8: 91 10        	sta	($10),y                 ; 0x10 <__rc0>
    54ea: a5 29        	lda	$29                     ; 0x29 <__rc25>
    54ec: c8           	iny
    54ed: 91 10        	sta	($10),y                 ; 0x10 <__rc0>
    54ef: 68           	pla
    54f0: 9c 6b 8c     	stz	$8c6b                   ; 0x8c6b <gd3Location>
    54f3: 9c 6c 8c     	stz	$8c6c                   ; 0x8c6c <gd3Location+0x1>
    54f6: 9c 6d 8c     	stz	$8c6d                   ; 0x8c6d <gd3Location+0x2>
    54f9: 9c 6e 8c     	stz	$8c6e                   ; 0x8c6e <gd3Location+0x3>
    54fc: 9c 6a 8c     	stz	$8c6a                   ; 0x8c6a <oneLoop>
    54ff: 64 28        	stz	$28                     ; 0x28 <__rc24>
    5501: 64 29        	stz	$29                     ; 0x29 <__rc25>
    5503: 64 26        	stz	$26                     ; 0x26 <__rc22>
    5505: 64 24        	stz	$24                     ; 0x24 <__rc20>
    5507: 64 25        	stz	$25                     ; 0x25 <__rc21>
    5509: 4c 7c 56     	jmp	$567c <main+0x101a>
    550c: 18           	clc
    550d: a5 10        	lda	$10                     ; 0x10 <__rc0>
    550f: 69 9c        	adc	#$9c
    5511: 48           	pha
    5512: a5 11        	lda	$11                     ; 0x11 <__rc1>
    5514: 69 00        	adc	#$0
    5516: aa           	tax
    5517: 68           	pla
    5518: 85 12        	sta	$12                     ; 0x12 <__rc2>
    551a: 86 13        	stx	$13                     ; 0x13 <__rc3>
    551c: 18           	clc
    551d: 69 08        	adc	#$8
    551f: 85 14        	sta	$14                     ; 0x14 <__rc4>
    5521: 8a           	txa
    5522: 69 00        	adc	#$0
    5524: 85 15        	sta	$15                     ; 0x15 <__rc5>
    5526: a0 08        	ldy	#$8
    5528: b1 12        	lda	($12),y                 ; 0x12 <__rc2>
    552a: 85 24        	sta	$24                     ; 0x24 <__rc20>
    552c: a4 16        	ldy	$16                     ; 0x16 <__rc6>
    552e: b1 14        	lda	($14),y                 ; 0x14 <__rc4>
    5530: c9 01        	cmp	#$1
    5532: f0 03        	beq	$5537 <main+0xed5>
    5534: 4c 5b 56     	jmp	$565b <main+0xff9>
    5537: 85 25        	sta	$25                     ; 0x25 <__rc21>
    5539: a4 24        	ldy	$24                     ; 0x24 <__rc20>
    553b: c0 50        	cpy	#$50
    553d: 4c 5f 56     	jmp	$565f <main+0xffd>
    5540: a5 28        	lda	$28                     ; 0x28 <__rc24>
    5542: f0 03        	beq	$5547 <main+0xee5>
    5544: 4c 71 56     	jmp	$5671 <main+0x100f>
    5547: a9 34        	lda	#$34
    5549: 18           	clc
    554a: a0 04        	ldy	#$4
    554c: 71 2a        	adc	($2a),y                 ; 0x2a <__rc26>
    554e: a6 29        	ldx	$29                     ; 0x29 <__rc25>
    5550: 86 12        	stx	$12                     ; 0x12 <__rc2>
    5552: 85 28        	sta	$28                     ; 0x28 <__rc24>
    5554: 4c 71 56     	jmp	$5671 <main+0x100f>
    5557: 18           	clc
    5558: a5 10        	lda	$10                     ; 0x10 <__rc0>
    555a: 69 9c        	adc	#$9c
    555c: aa           	tax
    555d: a0 01        	ldy	#$1
    555f: b0 02        	bcs	$5563 <main+0xf01>
    5561: a0 00        	ldy	#$0
    5563: 84 1a        	sty	$1a                     ; 0x1a <__rc10>
    5565: 18           	clc
    5566: a5 10        	lda	$10                     ; 0x10 <__rc0>
    5568: 69 9c        	adc	#$9c
    556a: 48           	pha
    556b: a5 11        	lda	$11                     ; 0x11 <__rc1>
    556d: 69 00        	adc	#$0
    556f: a8           	tay
    5570: 68           	pla
    5571: 85 12        	sta	$12                     ; 0x12 <__rc2>
    5573: 84 13        	sty	$13                     ; 0x13 <__rc3>
    5575: 18           	clc
    5576: 69 04        	adc	#$4
    5578: 85 14        	sta	$14                     ; 0x14 <__rc4>
    557a: 98           	tya
    557b: 69 00        	adc	#$0
    557d: 18           	clc
    557e: 48           	pha
    557f: a5 10        	lda	$10                     ; 0x10 <__rc0>
    5581: 69 9c        	adc	#$9c
    5583: 85 1b        	sta	$1b                     ; 0x1b <__zp_data_size>
    5585: a5 11        	lda	$11                     ; 0x11 <__rc1>
    5587: 69 00        	adc	#$0
    5589: 85 1c        	sta	$1c                     ; 0x1c <__rc12>
    558b: 68           	pla
    558c: 85 15        	sta	$15                     ; 0x15 <__rc5>
    558e: a0 04        	ldy	#$4
    5590: b1 12        	lda	($12),y                 ; 0x12 <__rc2>
    5592: 8d 6b 8c     	sta	$8c6b                   ; 0x8c6b <gd3Location>
    5595: a4 16        	ldy	$16                     ; 0x16 <__rc6>
    5597: b1 14        	lda	($14),y                 ; 0x14 <__rc4>
    5599: 84 17        	sty	$17                     ; 0x17 <__rc7>
    559b: 8d 6c 8c     	sta	$8c6c                   ; 0x8c6c <gd3Location+0x1>
    559e: a0 02        	ldy	#$2
    55a0: b1 14        	lda	($14),y                 ; 0x14 <__rc4>
    55a2: 84 19        	sty	$19                     ; 0x19 <__rc9>
    55a4: 8d 6d 8c     	sta	$8c6d                   ; 0x8c6d <gd3Location+0x2>
    55a7: c8           	iny
    55a8: b1 14        	lda	($14),y                 ; 0x14 <__rc4>
    55aa: 84 18        	sty	$18                     ; 0x18 <__rc8>
    55ac: 8d 6e 8c     	sta	$8c6e                   ; 0x8c6e <gd3Location+0x3>
    55af: 18           	clc
    55b0: a5 1b        	lda	$1b                     ; 0x1b <__zp_data_size>
    55b2: 69 08        	adc	#$8
    55b4: 85 14        	sta	$14                     ; 0x14 <__rc4>
    55b6: a5 1c        	lda	$1c                     ; 0x1c <__rc12>
    55b8: 69 00        	adc	#$0
    55ba: a4 1a        	ldy	$1a                     ; 0x1a <__rc10>
    55bc: c0 01        	cpy	#$1
    55be: 48           	pha
    55bf: a5 11        	lda	$11                     ; 0x11 <__rc1>
    55c1: 69 00        	adc	#$0
    55c3: 85 1a        	sta	$1a                     ; 0x1a <__rc10>
    55c5: 68           	pla
    55c6: 85 15        	sta	$15                     ; 0x15 <__rc5>
    55c8: a0 08        	ldy	#$8
    55ca: b1 12        	lda	($12),y                 ; 0x12 <__rc2>
    55cc: 8d 6f 8c     	sta	$8c6f                   ; 0x8c6f <totalWait>
    55cf: a4 17        	ldy	$17                     ; 0x17 <__rc7>
    55d1: b1 14        	lda	($14),y                 ; 0x14 <__rc4>
    55d3: 8d 70 8c     	sta	$8c70                   ; 0x8c70 <totalWait+0x1>
    55d6: a4 19        	ldy	$19                     ; 0x19 <__rc9>
    55d8: b1 14        	lda	($14),y                 ; 0x14 <__rc4>
    55da: 8d 71 8c     	sta	$8c71                   ; 0x8c71 <totalWait+0x2>
    55dd: a4 18        	ldy	$18                     ; 0x18 <__rc8>
    55df: b1 14        	lda	($14),y                 ; 0x14 <__rc4>
    55e1: 8d 72 8c     	sta	$8c72                   ; 0x8c72 <totalWait+0x3>
    55e4: 18           	clc
    55e5: 8a           	txa
    55e6: 69 0c        	adc	#$c
    55e8: 85 14        	sta	$14                     ; 0x14 <__rc4>
    55ea: a5 1a        	lda	$1a                     ; 0x1a <__rc10>
    55ec: 69 00        	adc	#$0
    55ee: 85 15        	sta	$15                     ; 0x15 <__rc5>
    55f0: a0 0c        	ldy	#$c
    55f2: b1 12        	lda	($12),y                 ; 0x12 <__rc2>
    55f4: 8d 73 8c     	sta	$8c73                   ; 0x8c73 <loopBackTo>
    55f7: a4 17        	ldy	$17                     ; 0x17 <__rc7>
    55f9: b1 14        	lda	($14),y                 ; 0x14 <__rc4>
    55fb: a6 29        	ldx	$29                     ; 0x29 <__rc25>
    55fd: 86 12        	stx	$12                     ; 0x12 <__rc2>
    55ff: 8d 74 8c     	sta	$8c74                   ; 0x8c74 <loopBackTo+0x1>
    5602: a4 19        	ldy	$19                     ; 0x19 <__rc9>
    5604: b1 14        	lda	($14),y                 ; 0x14 <__rc4>
    5606: 8d 75 8c     	sta	$8c75                   ; 0x8c75 <loopBackTo+0x2>
    5609: a4 18        	ldy	$18                     ; 0x18 <__rc8>
    560b: b1 14        	lda	($14),y                 ; 0x14 <__rc4>
    560d: 8d 76 8c     	sta	$8c76                   ; 0x8c76 <loopBackTo+0x3>
    5610: 4c 71 56     	jmp	$5671 <main+0x100f>
    5613: b2 2a        	lda	($2a)                   ; 0x2a <__rc26>
    5615: d0 10        	bne	$5627 <main+0xfc5>
    5617: b1 2a        	lda	($2a),y                 ; 0x2a <__rc26>
    5619: d0 0c        	bne	$5627 <main+0xfc5>
    561b: a0 02        	ldy	#$2
    561d: b1 2a        	lda	($2a),y                 ; 0x2a <__rc26>
    561f: d0 06        	bne	$5627 <main+0xfc5>
    5621: a0 03        	ldy	#$3
    5623: b1 2a        	lda	($2a),y                 ; 0x2a <__rc26>
    5625: f0 08        	beq	$562f <main+0xfcd>
    5627: a2 05        	ldx	#$5
    5629: 8e 82 d5     	stx	$d582                   ; 0xd582 <__heap_start+0x466a>
    562c: 9c 81 d5     	stz	$d581                   ; 0xd581 <__heap_start+0x4669>
    562f: a0 0c        	ldy	#$c
    5631: b1 2a        	lda	($2a),y                 ; 0x2a <__rc26>
    5633: d0 12        	bne	$5647 <main+0xfe5>
    5635: a0 0d        	ldy	#$d
    5637: b1 2a        	lda	($2a),y                 ; 0x2a <__rc26>
    5639: d0 0c        	bne	$5647 <main+0xfe5>
    563b: a0 0e        	ldy	#$e
    563d: b1 2a        	lda	($2a),y                 ; 0x2a <__rc26>
    563f: d0 06        	bne	$5647 <main+0xfe5>
    5641: a0 0f        	ldy	#$f
    5643: b1 2a        	lda	($2a),y                 ; 0x2a <__rc26>
    5645: f0 0e        	beq	$5655 <main+0xff3>
    5647: a2 05        	ldx	#$5
    5649: 8e 82 d5     	stx	$d582                   ; 0xd582 <__heap_start+0x466a>
    564c: a0 01        	ldy	#$1
    564e: a2 01        	ldx	#$1
    5650: 86 26        	stx	$26                     ; 0x26 <__rc22>
    5652: 8c 81 d5     	sty	$d581                   ; 0xd581 <__heap_start+0x4669>
    5655: a6 29        	ldx	$29                     ; 0x29 <__rc25>
    5657: 86 12        	stx	$12                     ; 0x12 <__rc2>
    5659: 80 16        	bra	$5671 <main+0x100f>
    565b: 85 25        	sta	$25                     ; 0x25 <__rc21>
    565d: c9 01        	cmp	#$1
    565f: a2 40        	ldx	#$40
    5661: 86 28        	stx	$28                     ; 0x28 <__rc24>
    5663: a6 29        	ldx	$29                     ; 0x29 <__rc25>
    5665: 86 12        	stx	$12                     ; 0x12 <__rc2>
    5667: 90 08        	bcc	$5671 <main+0x100f>
    5669: 64 28        	stz	$28                     ; 0x28 <__rc24>
    566b: 80 04        	bra	$5671 <main+0x100f>
    566d: a2 01        	ldx	#$1
    566f: 86 16        	stx	$16                     ; 0x16 <__rc6>
    5671: a6 12        	ldx	$12                     ; 0x12 <__rc2>
    5673: e8           	inx
    5674: a9 00        	lda	#$0
    5676: 86 29        	stx	$29                     ; 0x29 <__rc25>
    5678: e0 08        	cpx	#$8
    567a: f0 28        	beq	$56a4 <main+0x1042>
    567c: a6 2a        	ldx	$2a                     ; 0x2a <__rc26>
    567e: 86 12        	stx	$12                     ; 0x12 <__rc2>
    5680: a6 2b        	ldx	$2b                     ; 0x2b <__rc27>
    5682: 86 13        	stx	$13                     ; 0x13 <__rc3>
    5684: a6 2c        	ldx	$2c                     ; 0x2c <__rc28>
    5686: 86 14        	stx	$14                     ; 0x14 <__rc4>
    5688: a6 2d        	ldx	$2d                     ; 0x2d <__rc29>
    568a: 86 15        	stx	$15                     ; 0x15 <__rc5>
    568c: aa           	tax
    568d: a9 10        	lda	#$10
    568f: 20 45 6c     	jsr	$6c45 <fileRead>
    5692: a6 29        	ldx	$29                     ; 0x29 <__rc25>
    5694: 86 12        	stx	$12                     ; 0x12 <__rc2>
    5696: e0 06        	cpx	#$6
    5698: b0 d3        	bcs	$566d <main+0x100b>
    569a: 8a           	txa
    569b: 0a           	asl
    569c: aa           	tax
    569d: a0 01        	ldy	#$1
    569f: 84 16        	sty	$16                     ; 0x16 <__rc6>
    56a1: 7c 50 87     	jmp	($8750,x)               ; 0x8750 <__BLOCK_SIZE+0x6750>
    56a4: 64 6a        	stz	$6a                     ; 0x6a <_col>
    56a6: 9c 14 d0     	stz	$d014                   ; 0xd014 <__heap_start+0x40fc>
    56a9: 9c 15 d0     	stz	$d015                   ; 0xd015 <__heap_start+0x40fd>
    56ac: a2 02        	ldx	#$2
    56ae: 86 6b        	stx	$6b                     ; 0x6b <_row>
    56b0: 8e 16 d0     	stx	$d016                   ; 0xd016 <__heap_start+0x40fe>
    56b3: 9c 17 d0     	stz	$d017                   ; 0xd017 <__heap_start+0x40ff>
    56b6: a2 70        	ldx	#$70
    56b8: 86 34        	stx	$34                     ; 0x34 <_ccolor>
    56ba: a5 26        	lda	$26                     ; 0x26 <__rc22>
    56bc: f0 08        	beq	$56c6 <main+0x1064>
    56be: a2 90        	ldx	#$90
    56c0: 86 12        	stx	$12                     ; 0x12 <__rc2>
    56c2: a2 8a        	ldx	#$8a
    56c4: 80 06        	bra	$56cc <main+0x106a>
    56c6: a2 06        	ldx	#$6
    56c8: 86 12        	stx	$12                     ; 0x12 <__rc2>
    56ca: a2 8a        	ldx	#$8a
    56cc: 86 13        	stx	$13                     ; 0x13 <__rc3>
    56ce: a6 10        	ldx	$10                     ; 0x10 <__rc0>
    56d0: a5 24        	lda	$24                     ; 0x24 <__rc20>
    56d2: 92 10        	sta	($10)                   ; 0x10 <__rc0>
    56d4: a5 25        	lda	$25                     ; 0x25 <__rc21>
    56d6: a4 16        	ldy	$16                     ; 0x16 <__rc6>
    56d8: 91 10        	sta	($10),y                 ; 0x10 <__rc0>
    56da: 18           	clc
    56db: 8a           	txa
    56dc: 69 02        	adc	#$2
    56de: aa           	tax
    56df: a5 11        	lda	$11                     ; 0x11 <__rc1>
    56e1: 69 00        	adc	#$0
    56e3: 86 14        	stx	$14                     ; 0x14 <__rc4>
    56e5: 85 15        	sta	$15                     ; 0x15 <__rc5>
    56e7: a5 12        	lda	$12                     ; 0x12 <__rc2>
    56e9: a0 02        	ldy	#$2
    56eb: 91 10        	sta	($10),y                 ; 0x10 <__rc0>
    56ed: a5 13        	lda	$13                     ; 0x13 <__rc3>
    56ef: a4 16        	ldy	$16                     ; 0x16 <__rc6>
    56f1: 91 14        	sta	($14),y                 ; 0x14 <__rc4>
    56f3: a2 f7        	ldx	#$f7
    56f5: 86 12        	stx	$12                     ; 0x12 <__rc2>
    56f7: a2 89        	ldx	#$89
    56f9: 86 13        	stx	$13                     ; 0x13 <__rc3>
    56fb: 20 66 7f     	jsr	$7f66 <printf>
    56fe: 64 6a        	stz	$6a                     ; 0x6a <_col>
    5700: 9c 14 d0     	stz	$d014                   ; 0xd014 <__heap_start+0x40fc>
    5703: 9c 15 d0     	stz	$d015                   ; 0xd015 <__heap_start+0x40fd>
    5706: a2 03        	ldx	#$3
    5708: 86 6b        	stx	$6b                     ; 0x6b <_row>
    570a: 8e 16 d0     	stx	$d016                   ; 0xd016 <__heap_start+0x40fe>
    570d: 86 24        	stx	$24                     ; 0x24 <__rc20>
    570f: 9c 17 d0     	stz	$d017                   ; 0xd017 <__heap_start+0x40ff>
    5712: a2 4d        	ldx	#$4d
    5714: 86 12        	stx	$12                     ; 0x12 <__rc2>
    5716: a2 89        	ldx	#$89
    5718: 86 13        	stx	$13                     ; 0x13 <__rc3>
    571a: 20 66 7f     	jsr	$7f66 <printf>
    571d: 64 6a        	stz	$6a                     ; 0x6a <_col>
    571f: 9c 14 d0     	stz	$d014                   ; 0xd014 <__heap_start+0x40fc>
    5722: 9c 15 d0     	stz	$d015                   ; 0xd015 <__heap_start+0x40fd>
    5725: a6 24        	ldx	$24                     ; 0x24 <__rc20>
    5727: 86 6b        	stx	$6b                     ; 0x6b <_row>
    5729: 8e 16 d0     	stx	$d016                   ; 0xd016 <__heap_start+0x40fe>
    572c: 9c 17 d0     	stz	$d017                   ; 0xd017 <__heap_start+0x40ff>
    572f: a2 70        	ldx	#$70
    5731: 86 34        	stx	$34                     ; 0x34 <_ccolor>
    5733: 86 25        	stx	$25                     ; 0x25 <__rc21>
    5735: a2 5b        	ldx	#$5b
    5737: 86 12        	stx	$12                     ; 0x12 <__rc2>
    5739: a2 8b        	ldx	#$8b
    573b: 86 13        	stx	$13                     ; 0x13 <__rc3>
    573d: 20 66 7f     	jsr	$7f66 <printf>
    5740: b2 2c        	lda	($2c)                   ; 0x2c <__rc28>
    5742: 85 f3        	sta	$f3                     ; 0xf3 <__zp_bss_size+0xc3>
    5744: a6 28        	ldx	$28                     ; 0x28 <__rc24>
    5746: 86 f4        	stx	$f4                     ; 0xf4 <__zp_bss_size+0xc4>
    5748: 64 f5        	stz	$f5                     ; 0xf5 <__zp_bss_size+0xc5>
    574a: 64 f6        	stz	$f6                     ; 0xf6 <__zp_bss_size+0xc6>
    574c: 64 f7        	stz	$f7                     ; 0xf7 <__zp_bss_size+0xc7>
    574e: a2 69        	ldx	#$69
    5750: 86 12        	stx	$12                     ; 0x12 <__rc2>
    5752: a2 00        	ldx	#$0
    5754: 86 13        	stx	$13                     ; 0x13 <__rc3>
    5756: a0 13        	ldy	#$13
    5758: b1 10        	lda	($10),y                 ; 0x10 <__rc0>
    575a: 85 14        	sta	$14                     ; 0x14 <__rc4>
    575c: c8           	iny
    575d: b1 10        	lda	($10),y                 ; 0x10 <__rc0>
    575f: 85 15        	sta	$15                     ; 0x15 <__rc5>
    5761: 20 74 ff     	jsr	$ff74 <__heap_start+0x705c>
    5764: 92 14        	sta	($14)                   ; 0x14 <__rc4>
    5766: a9 00        	lda	#$0
    5768: 6a           	ror
    5769: 85 12        	sta	$12                     ; 0x12 <__rc2>
    576b: a6 2c        	ldx	$2c                     ; 0x2c <__rc28>
    576d: 86 12        	stx	$12                     ; 0x12 <__rc2>
    576f: a6 2d        	ldx	$2d                     ; 0x2d <__rc29>
    5771: 86 13        	stx	$13                     ; 0x13 <__rc3>
    5773: 20 e2 3d     	jsr	$3de2 <copyToRAM>
    5776: 64 6a        	stz	$6a                     ; 0x6a <_col>
    5778: 9c 14 d0     	stz	$d014                   ; 0xd014 <__heap_start+0x40fc>
    577b: 9c 15 d0     	stz	$d015                   ; 0xd015 <__heap_start+0x40fd>
    577e: a6 24        	ldx	$24                     ; 0x24 <__rc20>
    5780: 86 6b        	stx	$6b                     ; 0x6b <_row>
    5782: 8e 16 d0     	stx	$d016                   ; 0xd016 <__heap_start+0x40fe>
    5785: 9c 17 d0     	stz	$d017                   ; 0xd017 <__heap_start+0x40ff>
    5788: a6 25        	ldx	$25                     ; 0x25 <__rc21>
    578a: 86 34        	stx	$34                     ; 0x34 <_ccolor>
    578c: a2 c6        	ldx	#$c6
    578e: 86 12        	stx	$12                     ; 0x12 <__rc2>
    5790: a2 89        	ldx	#$89
    5792: 86 13        	stx	$13                     ; 0x13 <__rc3>
    5794: 20 66 7f     	jsr	$7f66 <printf>
    5797: 64 5e        	stz	$5e                     ; 0x5e <needle>
    5799: 64 5f        	stz	$5f                     ; 0x5f <needle+0x1>
    579b: a2 10        	ldx	#$10
    579d: 86 60        	stx	$60                     ; 0x60 <needle+0x2>
    579f: 64 61        	stz	$61                     ; 0x61 <needle+0x3>
    57a1: ae 73 8c     	ldx	$8c73                   ; 0x8c73 <loopBackTo>
    57a4: 86 16        	stx	$16                     ; 0x16 <__rc6>
    57a6: ad 74 8c     	lda	$8c74                   ; 0x8c74 <loopBackTo+0x1>
    57a9: ac 75 8c     	ldy	$8c75                   ; 0x8c75 <loopBackTo+0x2>
    57ac: ae 76 8c     	ldx	$8c76                   ; 0x8c76 <loopBackTo+0x3>
    57af: d0 0b        	bne	$57bc <main+0x115a>
    57b1: c0 00        	cpy	#$0
    57b3: d0 07        	bne	$57bc <main+0x115a>
    57b5: c9 00        	cmp	#$0
    57b7: d0 03        	bne	$57bc <main+0x115a>
    57b9: 4c 19 67     	jmp	$6719 <main+0x20b7>
    57bc: 84 12        	sty	$12                     ; 0x12 <__rc2>
    57be: 85 13        	sta	$13                     ; 0x13 <__rc3>
    57c0: 86 15        	stx	$15                     ; 0x15 <__rc5>
    57c2: 38           	sec
    57c3: a5 16        	lda	$16                     ; 0x16 <__rc6>
    57c5: e5 28        	sbc	$28                     ; 0x28 <__rc24>
    57c7: aa           	tax
    57c8: a5 13        	lda	$13                     ; 0x13 <__rc3>
    57ca: e9 00        	sbc	#$0
    57cc: a8           	tay
    57cd: a5 12        	lda	$12                     ; 0x12 <__rc2>
    57cf: e9 00        	sbc	#$0
    57d1: 85 13        	sta	$13                     ; 0x13 <__rc3>
    57d3: a5 15        	lda	$15                     ; 0x15 <__rc5>
    57d5: e9 00        	sbc	#$0
    57d7: 85 15        	sta	$15                     ; 0x15 <__rc5>
    57d9: 18           	clc
    57da: 8a           	txa
    57db: 69 00        	adc	#$0
    57dd: 85 12        	sta	$12                     ; 0x12 <__rc2>
    57df: 98           	tya
    57e0: 69 00        	adc	#$0
    57e2: 85 14        	sta	$14                     ; 0x14 <__rc4>
    57e4: a5 13        	lda	$13                     ; 0x13 <__rc3>
    57e6: 69 10        	adc	#$10
    57e8: 85 13        	sta	$13                     ; 0x13 <__rc3>
    57ea: a5 15        	lda	$15                     ; 0x15 <__rc5>
    57ec: 69 00        	adc	#$0
    57ee: a6 12        	ldx	$12                     ; 0x12 <__rc2>
    57f0: 8e 73 8c     	stx	$8c73                   ; 0x8c73 <loopBackTo>
    57f3: a6 14        	ldx	$14                     ; 0x14 <__rc4>
    57f5: 8e 74 8c     	stx	$8c74                   ; 0x8c74 <loopBackTo+0x1>
    57f8: a6 13        	ldx	$13                     ; 0x13 <__rc3>
    57fa: 8e 75 8c     	stx	$8c75                   ; 0x8c75 <loopBackTo+0x2>
    57fd: 8d 76 8c     	sta	$8c76                   ; 0x8c76 <loopBackTo+0x3>
    5800: ae 6b 8c     	ldx	$8c6b                   ; 0x8c6b <gd3Location>
    5803: 86 16        	stx	$16                     ; 0x16 <__rc6>
    5805: ae 6c 8c     	ldx	$8c6c                   ; 0x8c6c <gd3Location+0x1>
    5808: ac 6d 8c     	ldy	$8c6d                   ; 0x8c6d <gd3Location+0x2>
    580b: ad 6e 8c     	lda	$8c6e                   ; 0x8c6e <gd3Location+0x3>
    580e: d0 0b        	bne	$581b <main+0x11b9>
    5810: c0 00        	cpy	#$0
    5812: d0 07        	bne	$581b <main+0x11b9>
    5814: e0 00        	cpx	#$0
    5816: d0 03        	bne	$581b <main+0x11b9>
    5818: 4c 25 67     	jmp	$6725 <main+0x20c3>
    581b: 86 12        	stx	$12                     ; 0x12 <__rc2>
    581d: 85 14        	sta	$14                     ; 0x14 <__rc4>
    581f: 38           	sec
    5820: a5 16        	lda	$16                     ; 0x16 <__rc6>
    5822: e5 28        	sbc	$28                     ; 0x28 <__rc24>
    5824: aa           	tax
    5825: a5 12        	lda	$12                     ; 0x12 <__rc2>
    5827: e9 00        	sbc	#$0
    5829: 85 12        	sta	$12                     ; 0x12 <__rc2>
    582b: 98           	tya
    582c: e9 00        	sbc	#$0
    582e: a8           	tay
    582f: a5 14        	lda	$14                     ; 0x14 <__rc4>
    5831: e9 00        	sbc	#$0
    5833: 85 14        	sta	$14                     ; 0x14 <__rc4>
    5835: 18           	clc
    5836: 8a           	txa
    5837: 69 14        	adc	#$14
    5839: 85 13        	sta	$13                     ; 0x13 <__rc3>
    583b: a5 12        	lda	$12                     ; 0x12 <__rc2>
    583d: 69 00        	adc	#$0
    583f: 85 12        	sta	$12                     ; 0x12 <__rc2>
    5841: 98           	tya
    5842: 69 10        	adc	#$10
    5844: 85 15        	sta	$15                     ; 0x15 <__rc5>
    5846: a5 14        	lda	$14                     ; 0x14 <__rc4>
    5848: 69 00        	adc	#$0
    584a: a6 13        	ldx	$13                     ; 0x13 <__rc3>
    584c: 8e 6b 8c     	stx	$8c6b                   ; 0x8c6b <gd3Location>
    584f: a6 12        	ldx	$12                     ; 0x12 <__rc2>
    5851: 8e 6c 8c     	stx	$8c6c                   ; 0x8c6c <gd3Location+0x1>
    5854: a6 15        	ldx	$15                     ; 0x15 <__rc5>
    5856: 8e 6d 8c     	stx	$8c6d                   ; 0x8c6d <gd3Location+0x2>
    5859: 8d 6e 8c     	sta	$8c6e                   ; 0x8c6e <gd3Location+0x3>
    585c: 9c 77 8c     	stz	$8c77                   ; 0x8c77 <samplesSoFar>
    585f: 9c 78 8c     	stz	$8c78                   ; 0x8c78 <samplesSoFar+0x1>
    5862: 9c 79 8c     	stz	$8c79                   ; 0x8c79 <samplesSoFar+0x2>
    5865: 9c 7a 8c     	stz	$8c7a                   ; 0x8c7a <samplesSoFar+0x3>
    5868: a6 2c        	ldx	$2c                     ; 0x2c <__rc28>
    586a: 86 12        	stx	$12                     ; 0x12 <__rc2>
    586c: a6 2d        	ldx	$2d                     ; 0x2d <__rc29>
    586e: 86 13        	stx	$13                     ; 0x13 <__rc3>
    5870: 20 48 68     	jsr	$6848 <fileClose>
    5873: 64 28        	stz	$28                     ; 0x28 <__rc24>
    5875: 64 6a        	stz	$6a                     ; 0x6a <_col>
    5877: 9c 14 d0     	stz	$d014                   ; 0xd014 <__heap_start+0x40fc>
    587a: 9c 15 d0     	stz	$d015                   ; 0xd015 <__heap_start+0x40fd>
    587d: a2 03        	ldx	#$3
    587f: 86 6b        	stx	$6b                     ; 0x6b <_row>
    5881: 8e 16 d0     	stx	$d016                   ; 0xd016 <__heap_start+0x40fe>
    5884: 86 24        	stx	$24                     ; 0x24 <__rc20>
    5886: 9c 17 d0     	stz	$d017                   ; 0xd017 <__heap_start+0x40ff>
    5889: a2 4d        	ldx	#$4d
    588b: 86 2c        	stx	$2c                     ; 0x2c <__rc28>
    588d: a2 89        	ldx	#$89
    588f: 86 2d        	stx	$2d                     ; 0x2d <__rc29>
    5891: a2 4d        	ldx	#$4d
    5893: 86 12        	stx	$12                     ; 0x12 <__rc2>
    5895: a2 89        	ldx	#$89
    5897: 86 13        	stx	$13                     ; 0x13 <__rc3>
    5899: 20 66 7f     	jsr	$7f66 <printf>
    589c: 64 6a        	stz	$6a                     ; 0x6a <_col>
    589e: 9c 14 d0     	stz	$d014                   ; 0xd014 <__heap_start+0x40fc>
    58a1: 9c 15 d0     	stz	$d015                   ; 0xd015 <__heap_start+0x40fd>
    58a4: a2 04        	ldx	#$4
    58a6: 86 6b        	stx	$6b                     ; 0x6b <_row>
    58a8: 8e 16 d0     	stx	$d016                   ; 0xd016 <__heap_start+0x40fe>
    58ab: 9c 17 d0     	stz	$d017                   ; 0xd017 <__heap_start+0x40ff>
    58ae: a2 4d        	ldx	#$4d
    58b0: 86 12        	stx	$12                     ; 0x12 <__rc2>
    58b2: a2 89        	ldx	#$89
    58b4: 86 13        	stx	$13                     ; 0x13 <__rc3>
    58b6: 20 66 7f     	jsr	$7f66 <printf>
    58b9: 64 6a        	stz	$6a                     ; 0x6a <_col>
    58bb: 9c 14 d0     	stz	$d014                   ; 0xd014 <__heap_start+0x40fc>
    58be: 9c 15 d0     	stz	$d015                   ; 0xd015 <__heap_start+0x40fd>
    58c1: a2 05        	ldx	#$5
    58c3: 86 6b        	stx	$6b                     ; 0x6b <_row>
    58c5: 8e 16 d0     	stx	$d016                   ; 0xd016 <__heap_start+0x40fe>
    58c8: 9c 17 d0     	stz	$d017                   ; 0xd017 <__heap_start+0x40ff>
    58cb: a2 4d        	ldx	#$4d
    58cd: 86 12        	stx	$12                     ; 0x12 <__rc2>
    58cf: a2 89        	ldx	#$89
    58d1: 86 13        	stx	$13                     ; 0x13 <__rc3>
    58d3: 20 66 7f     	jsr	$7f66 <printf>
    58d6: 64 6a        	stz	$6a                     ; 0x6a <_col>
    58d8: 9c 14 d0     	stz	$d014                   ; 0xd014 <__heap_start+0x40fc>
    58db: 9c 15 d0     	stz	$d015                   ; 0xd015 <__heap_start+0x40fd>
    58de: a2 06        	ldx	#$6
    58e0: 86 6b        	stx	$6b                     ; 0x6b <_row>
    58e2: 8e 16 d0     	stx	$d016                   ; 0xd016 <__heap_start+0x40fe>
    58e5: 9c 17 d0     	stz	$d017                   ; 0xd017 <__heap_start+0x40ff>
    58e8: a2 4d        	ldx	#$4d
    58ea: 86 12        	stx	$12                     ; 0x12 <__rc2>
    58ec: a2 89        	ldx	#$89
    58ee: 86 13        	stx	$13                     ; 0x13 <__rc3>
    58f0: 20 66 7f     	jsr	$7f66 <printf>
    58f3: 64 6a        	stz	$6a                     ; 0x6a <_col>
    58f5: 9c 14 d0     	stz	$d014                   ; 0xd014 <__heap_start+0x40fc>
    58f8: 9c 15 d0     	stz	$d015                   ; 0xd015 <__heap_start+0x40fd>
    58fb: a2 07        	ldx	#$7
    58fd: 86 6b        	stx	$6b                     ; 0x6b <_row>
    58ff: 8e 16 d0     	stx	$d016                   ; 0xd016 <__heap_start+0x40fe>
    5902: 9c 17 d0     	stz	$d017                   ; 0xd017 <__heap_start+0x40ff>
    5905: a2 4d        	ldx	#$4d
    5907: 86 12        	stx	$12                     ; 0x12 <__rc2>
    5909: a2 89        	ldx	#$89
    590b: 86 13        	stx	$13                     ; 0x13 <__rc3>
    590d: 20 66 7f     	jsr	$7f66 <printf>
    5910: 64 6a        	stz	$6a                     ; 0x6a <_col>
    5912: 9c 14 d0     	stz	$d014                   ; 0xd014 <__heap_start+0x40fc>
    5915: 9c 15 d0     	stz	$d015                   ; 0xd015 <__heap_start+0x40fd>
    5918: a2 08        	ldx	#$8
    591a: 86 6b        	stx	$6b                     ; 0x6b <_row>
    591c: 8e 16 d0     	stx	$d016                   ; 0xd016 <__heap_start+0x40fe>
    591f: 9c 17 d0     	stz	$d017                   ; 0xd017 <__heap_start+0x40ff>
    5922: a2 4d        	ldx	#$4d
    5924: 86 12        	stx	$12                     ; 0x12 <__rc2>
    5926: a2 89        	ldx	#$89
    5928: 86 13        	stx	$13                     ; 0x13 <__rc3>
    592a: 20 66 7f     	jsr	$7f66 <printf>
    592d: 64 6a        	stz	$6a                     ; 0x6a <_col>
    592f: 9c 14 d0     	stz	$d014                   ; 0xd014 <__heap_start+0x40fc>
    5932: 9c 15 d0     	stz	$d015                   ; 0xd015 <__heap_start+0x40fd>
    5935: a6 24        	ldx	$24                     ; 0x24 <__rc20>
    5937: 86 6b        	stx	$6b                     ; 0x6b <_row>
    5939: 8e 16 d0     	stx	$d016                   ; 0xd016 <__heap_start+0x40fe>
    593c: 9c 17 d0     	stz	$d017                   ; 0xd017 <__heap_start+0x40ff>
    593f: a2 70        	ldx	#$70
    5941: 86 34        	stx	$34                     ; 0x34 <_ccolor>
    5943: a9 99        	lda	#$99
    5945: 92 10        	sta	($10)                   ; 0x10 <__rc0>
    5947: a0 01        	ldy	#$1
    5949: a9 8e        	lda	#$8e
    594b: 91 10        	sta	($10),y                 ; 0x10 <__rc0>
    594d: 84 24        	sty	$24                     ; 0x24 <__rc20>
    594f: a2 b0        	ldx	#$b0
    5951: 86 12        	stx	$12                     ; 0x12 <__rc2>
    5953: a2 8b        	ldx	#$8b
    5955: 86 13        	stx	$13                     ; 0x13 <__rc3>
    5957: 20 66 7f     	jsr	$7f66 <printf>
    595a: 20 d6 3f     	jsr	$3fd6 <textUI>
    595d: a4 24        	ldy	$24                     ; 0x24 <__rc20>
    595f: 84 7a        	sty	$7a                     ; 0x7a <comeRightTrough>
    5961: 38           	sec
    5962: 5a           	phy
    5963: a9 01        	lda	#$1
    5965: a0 15        	ldy	#$15
    5967: 91 10        	sta	($10),y                 ; 0x10 <__rc0>
    5969: 64 12        	stz	$12                     ; 0x12 <__rc2>
    596b: 3a           	dec
    596c: a0 11        	ldy	#$11
    596e: 91 10        	sta	($10),y                 ; 0x10 <__rc0>
    5970: 7a           	ply
    5971: ad 60 d6     	lda	$d660                   ; 0xd660 <__heap_start+0x4748>
    5974: 29 10        	and	#$10
    5976: aa           	tax
    5977: a5 7a        	lda	$7a                     ; 0x7a <comeRightTrough>
    5979: 29 01        	and	#$1
    597b: 85 12        	sta	$12                     ; 0x12 <__rc2>
    597d: 8a           	txa
    597e: d0 09        	bne	$5989 <main+0x1327>
    5980: a9 00        	lda	#$0
    5982: a6 12        	ldx	$12                     ; 0x12 <__rc2>
    5984: d0 0c        	bne	$5992 <main+0x1330>
    5986: 4c ee 5b     	jmp	$5bee <main+0x158c>
    5989: a5 12        	lda	$12                     ; 0x12 <__rc2>
    598b: d0 05        	bne	$5992 <main+0x1330>
    598d: a2 10        	ldx	#$10
    598f: 8e 60 d6     	stx	$d660                   ; 0xd660 <__heap_start+0x4748>
    5992: ae 66 8c     	ldx	$8c66                   ; 0x8c66 <tooBigWait>
    5995: 86 16        	stx	$16                     ; 0x16 <__rc6>
    5997: ad 67 8c     	lda	$8c67                   ; 0x8c67 <tooBigWait+0x1>
    599a: ac 68 8c     	ldy	$8c68                   ; 0x8c68 <tooBigWait+0x2>
    599d: ae 69 8c     	ldx	$8c69                   ; 0x8c69 <tooBigWait+0x3>
    59a0: d0 0e        	bne	$59b0 <main+0x134e>
    59a2: c0 00        	cpy	#$0
    59a4: d0 0a        	bne	$59b0 <main+0x134e>
    59a6: c9 00        	cmp	#$0
    59a8: d0 06        	bne	$59b0 <main+0x134e>
    59aa: e6 16        	inc	$16                     ; 0x16 <__rc6>
    59ac: c6 16        	dec	$16                     ; 0x16 <__rc6>
    59ae: f0 0b        	beq	$59bb <main+0x1359>
    59b0: 85 13        	sta	$13                     ; 0x13 <__rc3>
    59b2: a5 7a        	lda	$7a                     ; 0x7a <comeRightTrough>
    59b4: 29 01        	and	#$1
    59b6: d0 03        	bne	$59bb <main+0x1359>
    59b8: 4c 2e 5a     	jmp	$5a2e <main+0x13cc>
    59bb: 64 7a        	stz	$7a                     ; 0x7a <comeRightTrough>
    59bd: ae 7a 8c     	ldx	$8c7a                   ; 0x8c7a <samplesSoFar+0x3>
    59c0: ec 72 8c     	cpx	$8c72                   ; 0x8c72 <totalWait+0x3>
    59c3: f0 03        	beq	$59c8 <main+0x1366>
    59c5: 4c 57 5a     	jmp	$5a57 <main+0x13f5>
    59c8: ae 79 8c     	ldx	$8c79                   ; 0x8c79 <samplesSoFar+0x2>
    59cb: ac 71 8c     	ldy	$8c71                   ; 0x8c71 <totalWait+0x2>
    59ce: 84 12        	sty	$12                     ; 0x12 <__rc2>
    59d0: e4 12        	cpx	$12                     ; 0x12 <__rc2>
    59d2: d0 14        	bne	$59e8 <main+0x1386>
    59d4: ae 78 8c     	ldx	$8c78                   ; 0x8c78 <samplesSoFar+0x1>
    59d7: ac 70 8c     	ldy	$8c70                   ; 0x8c70 <totalWait+0x1>
    59da: 84 12        	sty	$12                     ; 0x12 <__rc2>
    59dc: e4 12        	cpx	$12                     ; 0x12 <__rc2>
    59de: d0 08        	bne	$59e8 <main+0x1386>
    59e0: ae 77 8c     	ldx	$8c77                   ; 0x8c77 <samplesSoFar>
    59e3: ac 6f 8c     	ldy	$8c6f                   ; 0x8c6f <totalWait>
    59e6: 84 12        	sty	$12                     ; 0x12 <__rc2>
    59e8: e4 12        	cpx	$12                     ; 0x12 <__rc2>
    59ea: 90 03        	bcc	$59ef <main+0x138d>
    59ec: 4c 5f 5a     	jmp	$5a5f <main+0x13fd>
    59ef: a6 5e        	ldx	$5e                     ; 0x5e <needle>
    59f1: 86 15        	stx	$15                     ; 0x15 <__rc5>
    59f3: a6 5f        	ldx	$5f                     ; 0x5f <needle+0x1>
    59f5: 86 16        	stx	$16                     ; 0x16 <__rc6>
    59f7: a6 60        	ldx	$60                     ; 0x60 <needle+0x2>
    59f9: a4 61        	ldy	$61                     ; 0x61 <needle+0x3>
    59fb: ad 6b 8c     	lda	$8c6b                   ; 0x8c6b <gd3Location>
    59fe: 85 12        	sta	$12                     ; 0x12 <__rc2>
    5a00: ad 6c 8c     	lda	$8c6c                   ; 0x8c6c <gd3Location+0x1>
    5a03: 85 13        	sta	$13                     ; 0x13 <__rc3>
    5a05: ad 6d 8c     	lda	$8c6d                   ; 0x8c6d <gd3Location+0x2>
    5a08: 85 14        	sta	$14                     ; 0x14 <__rc4>
    5a0a: ad 6e 8c     	lda	$8c6e                   ; 0x8c6e <gd3Location+0x3>
    5a0d: cc 6e 8c     	cpy	$8c6e                   ; 0x8c6e <gd3Location+0x3>
    5a10: f0 03        	beq	$5a15 <main+0x13b3>
    5a12: 4c 4d 5b     	jmp	$5b4d <main+0x14eb>
    5a15: e4 14        	cpx	$14                     ; 0x14 <__rc4>
    5a17: f0 03        	beq	$5a1c <main+0x13ba>
    5a19: 4c f0 61     	jmp	$61f0 <main+0x1b8e>
    5a1c: 85 17        	sta	$17                     ; 0x17 <__rc7>
    5a1e: a5 16        	lda	$16                     ; 0x16 <__rc6>
    5a20: c5 13        	cmp	$13                     ; 0x13 <__rc3>
    5a22: f0 03        	beq	$5a27 <main+0x13c5>
    5a24: 4c 04 62     	jmp	$6204 <main+0x1ba2>
    5a27: a5 15        	lda	$15                     ; 0x15 <__rc5>
    5a29: c5 12        	cmp	$12                     ; 0x12 <__rc2>
    5a2b: 4c 06 62     	jmp	$6206 <main+0x1ba4>
    5a2e: 84 14        	sty	$14                     ; 0x14 <__rc4>
    5a30: a9 02        	lda	#$2
    5a32: 8d 50 d6     	sta	$d650                   ; 0xd650 <__heap_start+0x4738>
    5a35: e0 01        	cpx	#$1
    5a37: f0 03        	beq	$5a3c <main+0x13da>
    5a39: 4c 1f 5b     	jmp	$5b1f <main+0x14bd>
    5a3c: a2 ff        	ldx	#$ff
    5a3e: a5 13        	lda	$13                     ; 0x13 <__rc3>
    5a40: e6 14        	inc	$14                     ; 0x14 <__rc4>
    5a42: c6 14        	dec	$14                     ; 0x14 <__rc4>
    5a44: f0 03        	beq	$5a49 <main+0x13e7>
    5a46: 4c 58 5b     	jmp	$5b58 <main+0x14f6>
    5a49: c9 00        	cmp	#$0
    5a4b: f0 03        	beq	$5a50 <main+0x13ee>
    5a4d: 4c fa 61     	jmp	$61fa <main+0x1b98>
    5a50: a5 16        	lda	$16                     ; 0x16 <__rc6>
    5a52: c9 00        	cmp	#$0
    5a54: 4c 23 5b     	jmp	$5b23 <main+0x14c1>
    5a57: ec 72 8c     	cpx	$8c72                   ; 0x8c72 <totalWait+0x3>
    5a5a: b0 03        	bcs	$5a5f <main+0x13fd>
    5a5c: 4c ef 59     	jmp	$59ef <main+0x138d>
    5a5f: ae 6b 8c     	ldx	$8c6b                   ; 0x8c6b <gd3Location>
    5a62: 86 12        	stx	$12                     ; 0x12 <__rc2>
    5a64: ac 6c 8c     	ldy	$8c6c                   ; 0x8c6c <gd3Location+0x1>
    5a67: ad 6d 8c     	lda	$8c6d                   ; 0x8c6d <gd3Location+0x2>
    5a6a: ae 6e 8c     	ldx	$8c6e                   ; 0x8c6e <gd3Location+0x3>
    5a6d: 84 13        	sty	$13                     ; 0x13 <__rc3>
    5a6f: 85 14        	sta	$14                     ; 0x14 <__rc4>
    5a71: 8a           	txa
    5a72: aa           	tax
    5a73: d0 0f        	bne	$5a84 <main+0x1422>
    5a75: a5 14        	lda	$14                     ; 0x14 <__rc4>
    5a77: d0 0b        	bne	$5a84 <main+0x1422>
    5a79: a5 13        	lda	$13                     ; 0x13 <__rc3>
    5a7b: d0 07        	bne	$5a84 <main+0x1422>
    5a7d: a5 12        	lda	$12                     ; 0x12 <__rc2>
    5a7f: d0 03        	bne	$5a84 <main+0x1422>
    5a81: 4c 3d 62     	jmp	$623d <main+0x1bdb>
    5a84: ae 73 8c     	ldx	$8c73                   ; 0x8c73 <loopBackTo>
    5a87: 86 14        	stx	$14                     ; 0x14 <__rc4>
    5a89: ad 74 8c     	lda	$8c74                   ; 0x8c74 <loopBackTo+0x1>
    5a8c: ac 75 8c     	ldy	$8c75                   ; 0x8c75 <loopBackTo+0x2>
    5a8f: ae 76 8c     	ldx	$8c76                   ; 0x8c76 <loopBackTo+0x3>
    5a92: d0 03        	bne	$5a97 <main+0x1435>
    5a94: 4c 10 62     	jmp	$6210 <main+0x1bae>
    5a97: 85 16        	sta	$16                     ; 0x16 <__rc6>
    5a99: ad 6a 8c     	lda	$8c6a                   ; 0x8c6a <oneLoop>
    5a9c: 29 01        	and	#$1
    5a9e: f0 03        	beq	$5aa3 <main+0x1441>
    5aa0: 4c cd 62     	jmp	$62cd <main+0x1c6b>
    5aa3: a5 14        	lda	$14                     ; 0x14 <__rc4>
    5aa5: 85 15        	sta	$15                     ; 0x15 <__rc5>
    5aa7: 84 12        	sty	$12                     ; 0x12 <__rc2>
    5aa9: 86 13        	stx	$13                     ; 0x13 <__rc3>
    5aab: 9c 77 8c     	stz	$8c77                   ; 0x8c77 <samplesSoFar>
    5aae: 9c 78 8c     	stz	$8c78                   ; 0x8c78 <samplesSoFar+0x1>
    5ab1: 9c 79 8c     	stz	$8c79                   ; 0x8c79 <samplesSoFar+0x2>
    5ab4: 9c 7a 8c     	stz	$8c7a                   ; 0x8c7a <samplesSoFar+0x3>
    5ab7: a9 01        	lda	#$1
    5ab9: 8d 6a 8c     	sta	$8c6a                   ; 0x8c6a <oneLoop>
    5abc: a6 12        	ldx	$12                     ; 0x12 <__rc2>
    5abe: a4 13        	ldy	$13                     ; 0x13 <__rc3>
    5ac0: a5 15        	lda	$15                     ; 0x15 <__rc5>
    5ac2: 86 12        	stx	$12                     ; 0x12 <__rc2>
    5ac4: 5a           	phy
    5ac5: a4 16        	ldy	$16                     ; 0x16 <__rc6>
    5ac7: 84 13        	sty	$13                     ; 0x13 <__rc3>
    5ac9: 7a           	ply
    5aca: 84 14        	sty	$14                     ; 0x14 <__rc4>
    5acc: 1a           	inc
    5acd: d0 0a        	bne	$5ad9 <main+0x1477>
    5acf: e6 13        	inc	$13                     ; 0x13 <__rc3>
    5ad1: d0 06        	bne	$5ad9 <main+0x1477>
    5ad3: e6 12        	inc	$12                     ; 0x12 <__rc2>
    5ad5: d0 02        	bne	$5ad9 <main+0x1477>
    5ad7: e6 14        	inc	$14                     ; 0x14 <__rc4>
    5ad9: 85 5e        	sta	$5e                     ; 0x5e <needle>
    5adb: a5 13        	lda	$13                     ; 0x13 <__rc3>
    5add: 85 5f        	sta	$5f                     ; 0x5f <needle+0x1>
    5adf: a5 12        	lda	$12                     ; 0x12 <__rc2>
    5ae1: 85 60        	sta	$60                     ; 0x60 <needle+0x2>
    5ae3: a5 14        	lda	$14                     ; 0x14 <__rc4>
    5ae5: 85 61        	sta	$61                     ; 0x61 <needle+0x3>
    5ae7: 86 12        	stx	$12                     ; 0x12 <__rc2>
    5ae9: 84 13        	sty	$13                     ; 0x13 <__rc3>
    5aeb: a6 16        	ldx	$16                     ; 0x16 <__rc6>
    5aed: a5 15        	lda	$15                     ; 0x15 <__rc5>
    5aef: 20 b5 05     	jsr	$5b5 <PEEK24>
    5af2: 18           	clc
    5af3: 69 60        	adc	#$60
    5af5: c9 c8        	cmp	#$c8
    5af7: 90 03        	bcc	$5afc <main+0x149a>
    5af9: 4c e8 5b     	jmp	$5be8 <main+0x1586>
    5afc: aa           	tax
    5afd: bc 5c 87     	ldy	$875c,x                 ; 0x875c <__BLOCK_SIZE+0x675c>
    5b00: bd 24 88     	lda	$8824,x                 ; 0x8824 <__BLOCK_SIZE+0x6824>
    5b03: aa           	tax
    5b04: 84 12        	sty	$12                     ; 0x12 <__rc2>
    5b06: 86 13        	stx	$13                     ; 0x13 <__rc3>
    5b08: a0 01        	ldy	#$1
    5b0a: 6c 12 00     	jmp	($12)                   ; 0x12 <__rc2>
    5b0d: a5 5e        	lda	$5e                     ; 0x5e <needle>
    5b0f: a6 5f        	ldx	$5f                     ; 0x5f <needle+0x1>
    5b11: 86 12        	stx	$12                     ; 0x12 <__rc2>
    5b13: a4 60        	ldy	$60                     ; 0x60 <needle+0x2>
    5b15: a6 61        	ldx	$61                     ; 0x61 <needle+0x3>
    5b17: 86 13        	stx	$13                     ; 0x13 <__rc3>
    5b19: 18           	clc
    5b1a: 69 02        	adc	#$2
    5b1c: 4c cc 5b     	jmp	$5bcc <main+0x156a>
    5b1f: e0 01        	cpx	#$1
    5b21: a2 ff        	ldx	#$ff
    5b23: a5 13        	lda	$13                     ; 0x13 <__rc3>
    5b25: b0 35        	bcs	$5b5c <main+0x14fa>
    5b27: a6 16        	ldx	$16                     ; 0x16 <__rc6>
    5b29: 8e 55 d6     	stx	$d655                   ; 0xd655 <__heap_start+0x473d>
    5b2c: 8d 56 d6     	sta	$d656                   ; 0xd656 <__heap_start+0x473e>
    5b2f: 8c 57 d6     	sty	$d657                   ; 0xd657 <__heap_start+0x473f>
    5b32: 9c 54 d6     	stz	$d654                   ; 0xd654 <__heap_start+0x473c>
    5b35: a0 02        	ldy	#$2
    5b37: 8c 50 d6     	sty	$d650                   ; 0xd650 <__heap_start+0x4738>
    5b3a: a2 89        	ldx	#$89
    5b3c: 8e 50 d6     	stx	$d650                   ; 0xd650 <__heap_start+0x4738>
    5b3f: 9c 66 8c     	stz	$8c66                   ; 0x8c66 <tooBigWait>
    5b42: 9c 67 8c     	stz	$8c67                   ; 0x8c67 <tooBigWait+0x1>
    5b45: 9c 68 8c     	stz	$8c68                   ; 0x8c68 <tooBigWait+0x2>
    5b48: 9c 69 8c     	stz	$8c69                   ; 0x8c69 <tooBigWait+0x3>
    5b4b: 80 58        	bra	$5ba5 <main+0x1543>
    5b4d: cc 6e 8c     	cpy	$8c6e                   ; 0x8c6e <gd3Location+0x3>
    5b50: 90 03        	bcc	$5b55 <main+0x14f3>
    5b52: 4c 72 5a     	jmp	$5a72 <main+0x1410>
    5b55: 4c c0 5a     	jmp	$5ac0 <main+0x145e>
    5b58: c0 00        	cpy	#$0
    5b5a: 90 cb        	bcc	$5b27 <main+0x14c5>
    5b5c: 8e 55 d6     	stx	$d655                   ; 0xd655 <__heap_start+0x473d>
    5b5f: 8e 56 d6     	stx	$d656                   ; 0xd656 <__heap_start+0x473e>
    5b62: 8e 57 d6     	stx	$d657                   ; 0xd657 <__heap_start+0x473f>
    5b65: 9c 54 d6     	stz	$d654                   ; 0xd654 <__heap_start+0x473c>
    5b68: a0 02        	ldy	#$2
    5b6a: 8c 50 d6     	sty	$d650                   ; 0xd650 <__heap_start+0x4738>
    5b6d: a2 89        	ldx	#$89
    5b6f: 8e 50 d6     	stx	$d650                   ; 0xd650 <__heap_start+0x4738>
    5b72: ad 66 8c     	lda	$8c66                   ; 0x8c66 <tooBigWait>
    5b75: ae 67 8c     	ldx	$8c67                   ; 0x8c67 <tooBigWait+0x1>
    5b78: 86 12        	stx	$12                     ; 0x12 <__rc2>
    5b7a: ae 68 8c     	ldx	$8c68                   ; 0x8c68 <tooBigWait+0x2>
    5b7d: ac 69 8c     	ldy	$8c69                   ; 0x8c69 <tooBigWait+0x3>
    5b80: 84 13        	sty	$13                     ; 0x13 <__rc3>
    5b82: 18           	clc
    5b83: 69 01        	adc	#$1
    5b85: a8           	tay
    5b86: a5 12        	lda	$12                     ; 0x12 <__rc2>
    5b88: 69 00        	adc	#$0
    5b8a: 85 12        	sta	$12                     ; 0x12 <__rc2>
    5b8c: 8a           	txa
    5b8d: 69 00        	adc	#$0
    5b8f: 85 14        	sta	$14                     ; 0x14 <__rc4>
    5b91: a5 13        	lda	$13                     ; 0x13 <__rc3>
    5b93: 69 ff        	adc	#$ff
    5b95: 8c 66 8c     	sty	$8c66                   ; 0x8c66 <tooBigWait>
    5b98: a6 12        	ldx	$12                     ; 0x12 <__rc2>
    5b9a: 8e 67 8c     	stx	$8c67                   ; 0x8c67 <tooBigWait+0x1>
    5b9d: a6 14        	ldx	$14                     ; 0x14 <__rc4>
    5b9f: 8e 68 8c     	stx	$8c68                   ; 0x8c68 <tooBigWait+0x2>
    5ba2: 8d 69 8c     	sta	$8c69                   ; 0x8c69 <tooBigWait+0x3>
    5ba5: a6 28        	ldx	$28                     ; 0x28 <__rc24>
    5ba7: a0 01        	ldy	#$1
    5ba9: 4c 7d 61     	jmp	$617d <main+0x1b1b>
    5bac: a5 5e        	lda	$5e                     ; 0x5e <needle>
    5bae: a6 5f        	ldx	$5f                     ; 0x5f <needle+0x1>
    5bb0: 86 12        	stx	$12                     ; 0x12 <__rc2>
    5bb2: a4 60        	ldy	$60                     ; 0x60 <needle+0x2>
    5bb4: a6 61        	ldx	$61                     ; 0x61 <needle+0x3>
    5bb6: 86 13        	stx	$13                     ; 0x13 <__rc3>
    5bb8: 18           	clc
    5bb9: 69 04        	adc	#$4
    5bbb: 80 0f        	bra	$5bcc <main+0x156a>
    5bbd: a5 5e        	lda	$5e                     ; 0x5e <needle>
    5bbf: a6 5f        	ldx	$5f                     ; 0x5f <needle+0x1>
    5bc1: 86 12        	stx	$12                     ; 0x12 <__rc2>
    5bc3: a4 60        	ldy	$60                     ; 0x60 <needle+0x2>
    5bc5: a6 61        	ldx	$61                     ; 0x61 <needle+0x3>
    5bc7: 86 13        	stx	$13                     ; 0x13 <__rc3>
    5bc9: 18           	clc
    5bca: 69 03        	adc	#$3
    5bcc: aa           	tax
    5bcd: a5 12        	lda	$12                     ; 0x12 <__rc2>
    5bcf: 69 00        	adc	#$0
    5bd1: 85 12        	sta	$12                     ; 0x12 <__rc2>
    5bd3: 98           	tya
    5bd4: 69 00        	adc	#$0
    5bd6: 85 14        	sta	$14                     ; 0x14 <__rc4>
    5bd8: a5 13        	lda	$13                     ; 0x13 <__rc3>
    5bda: 69 00        	adc	#$0
    5bdc: 86 5e        	stx	$5e                     ; 0x5e <needle>
    5bde: a6 12        	ldx	$12                     ; 0x12 <__rc2>
    5be0: 86 5f        	stx	$5f                     ; 0x5f <needle+0x1>
    5be2: a6 14        	ldx	$14                     ; 0x14 <__rc4>
    5be4: 86 60        	stx	$60                     ; 0x60 <needle+0x2>
    5be6: 85 61        	sta	$61                     ; 0x61 <needle+0x3>
    5be8: a0 01        	ldy	#$1
    5bea: 84 7a        	sty	$7a                     ; 0x7a <comeRightTrough>
    5bec: a9 00        	lda	#$0
    5bee: a2 00        	ldx	#$0
    5bf0: e6 28        	inc	$28                     ; 0x28 <__rc24>
    5bf2: c6 28        	dec	$28                     ; 0x28 <__rc24>
    5bf4: d0 03        	bne	$5bf9 <main+0x1597>
    5bf6: 4c 7d 61     	jmp	$617d <main+0x1b1b>
    5bf9: a2 01        	ldx	#$1
    5bfb: c9 fe        	cmp	#$fe
    5bfd: f0 03        	beq	$5c02 <main+0x15a0>
    5bff: 4c 7d 61     	jmp	$617d <main+0x1b1b>
    5c02: 84 24        	sty	$24                     ; 0x24 <__rc20>
    5c04: 20 db 2b     	jsr	$2bdb <opl3_quietAll>
    5c07: 20 7e 40     	jsr	$407e <axes_info>
    5c0a: 20 17 41     	jsr	$4117 <show_all_inst>
    5c0d: 64 75        	stz	$75                     ; 0x75 <playChan>
    5c0f: a6 24        	ldx	$24                     ; 0x24 <__rc20>
    5c11: 8e 00 d1     	stx	$d100                   ; 0xd100 <__heap_start+0x41e8>
    5c14: 64 6a        	stz	$6a                     ; 0x6a <_col>
    5c16: 9c 14 d0     	stz	$d014                   ; 0xd014 <__heap_start+0x40fc>
    5c19: 9c 15 d0     	stz	$d015                   ; 0xd015 <__heap_start+0x40fd>
    5c1c: a2 1c        	ldx	#$1c
    5c1e: 86 6b        	stx	$6b                     ; 0x6b <_row>
    5c20: 8e 16 d0     	stx	$d016                   ; 0xd016 <__heap_start+0x40fe>
    5c23: 86 24        	stx	$24                     ; 0x24 <__rc20>
    5c25: 9c 17 d0     	stz	$d017                   ; 0xd017 <__heap_start+0x40ff>
    5c28: a2 4d        	ldx	#$4d
    5c2a: 86 12        	stx	$12                     ; 0x12 <__rc2>
    5c2c: a2 89        	ldx	#$89
    5c2e: 86 13        	stx	$13                     ; 0x13 <__rc3>
    5c30: 20 66 7f     	jsr	$7f66 <printf>
    5c33: 64 6a        	stz	$6a                     ; 0x6a <_col>
    5c35: 9c 14 d0     	stz	$d014                   ; 0xd014 <__heap_start+0x40fc>
    5c38: 9c 15 d0     	stz	$d015                   ; 0xd015 <__heap_start+0x40fd>
    5c3b: a6 24        	ldx	$24                     ; 0x24 <__rc20>
    5c3d: 86 6b        	stx	$6b                     ; 0x6b <_row>
    5c3f: 8e 16 d0     	stx	$d016                   ; 0xd016 <__heap_start+0x40fe>
    5c42: 9c 17 d0     	stz	$d017                   ; 0xd017 <__heap_start+0x40ff>
    5c45: a2 76        	ldx	#$76
    5c47: 86 34        	stx	$34                     ; 0x34 <_ccolor>
    5c49: a2 a4        	ldx	#$a4
    5c4b: 86 12        	stx	$12                     ; 0x12 <__rc2>
    5c4d: a2 89        	ldx	#$89
    5c4f: 86 13        	stx	$13                     ; 0x13 <__rc3>
    5c51: 20 66 7f     	jsr	$7f66 <printf>
    5c54: a2 f0        	ldx	#$f0
    5c56: 86 34        	stx	$34                     ; 0x34 <_ccolor>
    5c58: a2 e8        	ldx	#$e8
    5c5a: 86 12        	stx	$12                     ; 0x12 <__rc2>
    5c5c: a2 89        	ldx	#$89
    5c5e: 86 13        	stx	$13                     ; 0x13 <__rc3>
    5c60: 20 66 7f     	jsr	$7f66 <printf>
    5c63: a2 f1        	ldx	#$f1
    5c65: 86 34        	stx	$34                     ; 0x34 <_ccolor>
    5c67: a5 75        	lda	$75                     ; 0x75 <playChan>
    5c69: 4c 3a 5e     	jmp	$5e3a <main+0x17d8>
    5c6c: a5 75        	lda	$75                     ; 0x75 <playChan>
    5c6e: d0 03        	bne	$5c73 <main+0x1611>
    5c70: 4c 51 5e     	jmp	$5e51 <main+0x17ef>
    5c73: a8           	tay
    5c74: 88           	dey
    5c75: b6 35        	ldx	$35,y                   ; 0x35 <selectableChan>
    5c77: e0 00        	cpx	#$0
    5c79: d0 0e        	bne	$5c89 <main+0x1627>
    5c7b: c0 00        	cpy	#$0
    5c7d: d0 03        	bne	$5c82 <main+0x1620>
    5c7f: 4c 51 5e     	jmp	$5e51 <main+0x17ef>
    5c82: 88           	dey
    5c83: b6 35        	ldx	$35,y                   ; 0x35 <selectableChan>
    5c85: e0 01        	cpx	#$1
    5c87: d0 ee        	bne	$5c77 <main+0x1615>
    5c89: a2 f0        	ldx	#$f0
    5c8b: 86 34        	stx	$34                     ; 0x34 <_ccolor>
    5c8d: 84 24        	sty	$24                     ; 0x24 <__rc20>
    5c8f: 20 0b 42     	jsr	$420b <show_inst>
    5c92: a2 f1        	ldx	#$f1
    5c94: 86 34        	stx	$34                     ; 0x34 <_ccolor>
    5c96: a5 24        	lda	$24                     ; 0x24 <__rc20>
    5c98: 85 75        	sta	$75                     ; 0x75 <playChan>
    5c9a: 20 0b 42     	jsr	$420b <show_inst>
    5c9d: 20 db 2b     	jsr	$2bdb <opl3_quietAll>
    5ca0: a9 e0        	lda	#$e0
    5ca2: 25 76        	and	$76                     ; 0x76 <chip_VT_PERC>
    5ca4: a2 bd        	ldx	#$bd
    5ca6: 8e 80 d5     	stx	$d580                   ; 0xd580 <__heap_start+0x4668>
    5ca9: 8d 81 d5     	sta	$d581                   ; 0xd581 <__heap_start+0x4669>
    5cac: a5 75        	lda	$75                     ; 0x75 <playChan>
    5cae: 20 7c 2f     	jsr	$2f7c <opl3_set4OPS>
    5cb1: a6 66        	ldx	$66                     ; 0x66 <kernelEventData+0x4>
    5cb3: e0 b7        	cpx	#$b7
    5cb5: f0 03        	beq	$5cba <main+0x1658>
    5cb7: 4c 51 5e     	jmp	$5e51 <main+0x17ef>
    5cba: a6 75        	ldx	$75                     ; 0x75 <playChan>
    5cbc: e0 11        	cpx	#$11
    5cbe: d0 03        	bne	$5cc3 <main+0x1661>
    5cc0: 4c 51 5e     	jmp	$5e51 <main+0x17ef>
    5cc3: 86 13        	stx	$13                     ; 0x13 <__rc3>
    5cc5: 8a           	txa
    5cc6: e8           	inx
    5cc7: 48           	pha
    5cc8: b5 35        	lda	$35,x                   ; 0x35 <selectableChan>
    5cca: aa           	tax
    5ccb: 68           	pla
    5ccc: 18           	clc
    5ccd: 69 02        	adc	#$2
    5ccf: a8           	tay
    5cd0: 84 24        	sty	$24                     ; 0x24 <__rc20>
    5cd2: 8a           	txa
    5cd3: f0 03        	beq	$5cd8 <main+0x1676>
    5cd5: 4c 9f 5d     	jmp	$5d9f <main+0x173d>
    5cd8: a6 24        	ldx	$24                     ; 0x24 <__rc20>
    5cda: e0 12        	cpx	#$12
    5cdc: d0 03        	bne	$5ce1 <main+0x167f>
    5cde: 4c 51 5e     	jmp	$5e51 <main+0x17ef>
    5ce1: b6 35        	ldx	$35,y                   ; 0x35 <selectableChan>
    5ce3: c8           	iny
    5ce4: e0 01        	cpx	#$1
    5ce6: d0 e8        	bne	$5cd0 <main+0x166e>
    5ce8: 4c a1 5d     	jmp	$5da1 <main+0x173f>
    5ceb: 85 27        	sta	$27                     ; 0x27 <__rc23>
    5ced: 18           	clc
    5cee: 69 05        	adc	#$5
    5cf0: a8           	tay
    5cf1: 64 2c        	stz	$2c                     ; 0x2c <__rc28>
    5cf3: a9 00        	lda	#$0
    5cf5: 69 00        	adc	#$0
    5cf7: 18           	clc
    5cf8: 48           	pha
    5cf9: a5 10        	lda	$10                     ; 0x10 <__rc0>
    5cfb: 69 1a        	adc	#$1a
    5cfd: 85 2e        	sta	$2e                     ; 0x2e <__rc30>
    5cff: a5 11        	lda	$11                     ; 0x11 <__rc1>
    5d01: 69 00        	adc	#$0
    5d03: 85 2f        	sta	$2f                     ; 0x2f <__rc31>
    5d05: 68           	pla
    5d06: a6 2e        	ldx	$2e                     ; 0x2e <__rc30>
    5d08: 86 14        	stx	$14                     ; 0x14 <__rc4>
    5d0a: a6 2f        	ldx	$2f                     ; 0x2f <__rc31>
    5d0c: 86 15        	stx	$15                     ; 0x15 <__rc5>
    5d0e: a2 0c        	ldx	#$c
    5d10: 86 12        	stx	$12                     ; 0x12 <__rc2>
    5d12: 64 13        	stz	$13                     ; 0x13 <__rc3>
    5d14: aa           	tax
    5d15: 98           	tya
    5d16: 20 c5 83     	jsr	$83c5 <__udivmodhi4>
    5d19: a4 29        	ldy	$29                     ; 0x29 <__rc25>
    5d1b: 85 17        	sta	$17                     ; 0x17 <__rc7>
    5d1d: b2 2e        	lda	($2e)                   ; 0x2e <__rc30>
    5d1f: 85 12        	sta	$12                     ; 0x12 <__rc2>
    5d21: b1 2e        	lda	($2e),y                 ; 0x2e <__rc30>
    5d23: 06 12        	asl	$12                     ; 0x12 <__rc2>
    5d25: 2a           	rol
    5d26: 85 13        	sta	$13                     ; 0x13 <__rc3>
    5d28: a9 1e        	lda	#$1e
    5d2a: 18           	clc
    5d2b: a2 00        	ldx	#$0
    5d2d: 86 2e        	stx	$2e                     ; 0x2e <__rc30>
    5d2f: 65 12        	adc	$12                     ; 0x12 <__rc2>
    5d31: 85 14        	sta	$14                     ; 0x14 <__rc4>
    5d33: a9 8c        	lda	#$8c
    5d35: 65 13        	adc	$13                     ; 0x13 <__rc3>
    5d37: 85 15        	sta	$15                     ; 0x15 <__rc5>
    5d39: a6 24        	ldx	$24                     ; 0x24 <__rc20>
    5d3b: e0 09        	cpx	#$9
    5d3d: b0 03        	bcs	$5d42 <main+0x16e0>
    5d3f: 4c ad 5d     	jmp	$5dad <main+0x174b>
    5d42: 86 16        	stx	$16                     ; 0x16 <__rc6>
    5d44: a2 09        	ldx	#$9
    5d46: 84 13        	sty	$13                     ; 0x13 <__rc3>
    5d48: a0 01        	ldy	#$1
    5d4a: 84 12        	sty	$12                     ; 0x12 <__rc2>
    5d4c: a4 13        	ldy	$13                     ; 0x13 <__rc3>
    5d4e: 86 13        	stx	$13                     ; 0x13 <__rc3>
    5d50: a6 16        	ldx	$16                     ; 0x16 <__rc6>
    5d52: 80 5d        	bra	$5db1 <main+0x174f>
    5d54: a5 29        	lda	$29                     ; 0x29 <__rc25>
    5d56: 85 6f        	sta	$6f                     ; 0x6f <gMID+0x1>
    5d58: 85 71        	sta	$71                     ; 0x71 <gMID+0x3>
    5d5a: 84 72        	sty	$72                     ; 0x72 <gMID+0x4>
    5d5c: a4 12        	ldy	$12                     ; 0x12 <__rc2>
    5d5e: 84 26        	sty	$26                     ; 0x26 <__rc22>
    5d60: 4c 68 60     	jmp	$6068 <main+0x1a06>
    5d63: a6 29        	ldx	$29                     ; 0x29 <__rc25>
    5d65: 86 6f        	stx	$6f                     ; 0x6f <gMID+0x1>
    5d67: 64 71        	stz	$71                     ; 0x71 <gMID+0x3>
    5d69: a6 14        	ldx	$14                     ; 0x14 <__rc4>
    5d6b: 86 72        	stx	$72                     ; 0x72 <gMID+0x4>
    5d6d: 4c 66 60     	jmp	$6066 <main+0x1a04>
    5d70: a5 14        	lda	$14                     ; 0x14 <__rc4>
    5d72: 10 03        	bpl	$5d77 <main+0x1715>
    5d74: 4c 68 60     	jmp	$6068 <main+0x1a06>
    5d77: 84 74        	sty	$74                     ; 0x74 <gMID+0x6>
    5d79: 64 6f        	stz	$6f                     ; 0x6f <gMID+0x1>
    5d7b: a5 29        	lda	$29                     ; 0x29 <__rc25>
    5d7d: 85 70        	sta	$70                     ; 0x70 <gMID+0x2>
    5d7f: a9 f0        	lda	#$f0
    5d81: 25 72        	and	$72                     ; 0x72 <gMID+0x4>
    5d83: c9 80        	cmp	#$80
    5d85: f0 07        	beq	$5d8e <main+0x172c>
    5d87: c9 90        	cmp	#$90
    5d89: f0 03        	beq	$5d8e <main+0x172c>
    5d8b: 4c 68 60     	jmp	$6068 <main+0x1a06>
    5d8e: a5 29        	lda	$29                     ; 0x29 <__rc25>
    5d90: 85 71        	sta	$71                     ; 0x71 <gMID+0x3>
    5d92: 4c 68 60     	jmp	$6068 <main+0x1a06>
    5d95: a2 01        	ldx	#$1
    5d97: 4c 8c 60     	jmp	$608c <main+0x1a2a>
    5d9a: a2 00        	ldx	#$0
    5d9c: 4c 11 60     	jmp	$6011 <main+0x19af>
    5d9f: c6 24        	dec	$24                     ; 0x24 <__rc20>
    5da1: a6 24        	ldx	$24                     ; 0x24 <__rc20>
    5da3: e0 ff        	cpx	#$ff
    5da5: d0 03        	bne	$5daa <main+0x1748>
    5da7: 4c 51 5e     	jmp	$5e51 <main+0x17ef>
    5daa: 4c 29 5e     	jmp	$5e29 <main+0x17c7>
    5dad: 64 12        	stz	$12                     ; 0x12 <__rc2>
    5daf: 64 13        	stz	$13                     ; 0x13 <__rc3>
    5db1: b2 14        	lda	($14)                   ; 0x14 <__rc4>
    5db3: 85 19        	sta	$19                     ; 0x19 <__rc9>
    5db5: b1 14        	lda	($14),y                 ; 0x14 <__rc4>
    5db7: 85 18        	sta	$18                     ; 0x18 <__rc8>
    5db9: 18           	clc
    5dba: a5 17        	lda	$17                     ; 0x17 <__rc7>
    5dbc: 69 3e        	adc	#$3e
    5dbe: 85 16        	sta	$16                     ; 0x16 <__rc6>
    5dc0: 8a           	txa
    5dc1: 38           	sec
    5dc2: e5 13        	sbc	$13                     ; 0x13 <__rc3>
    5dc4: a8           	tay
    5dc5: a9 00        	lda	#$0
    5dc7: e5 2c        	sbc	$2c                     ; 0x2c <__rc28>
    5dc9: 05 12        	ora	$12                     ; 0x12 <__rc2>
    5dcb: 85 12        	sta	$12                     ; 0x12 <__rc2>
    5dcd: 98           	tya
    5dce: 09 a0        	ora	#$a0
    5dd0: 85 1a        	sta	$1a                     ; 0x1a <__rc10>
    5dd2: a5 12        	lda	$12                     ; 0x12 <__rc2>
    5dd4: c9 01        	cmp	#$1
    5dd6: d0 08        	bne	$5de0 <main+0x177e>
    5dd8: 86 1b        	stx	$1b                     ; 0x1b <__zp_data_size>
    5dda: 84 17        	sty	$17                     ; 0x17 <__rc7>
    5ddc: c0 00        	cpy	#$0
    5dde: 80 06        	bra	$5de6 <main+0x1784>
    5de0: 86 1b        	stx	$1b                     ; 0x1b <__zp_data_size>
    5de2: 84 17        	sty	$17                     ; 0x17 <__rc7>
    5de4: c9 01        	cmp	#$1
    5de6: a0 16        	ldy	#$16
    5de8: b1 10        	lda	($10),y                 ; 0x10 <__rc0>
    5dea: 85 12        	sta	$12                     ; 0x12 <__rc2>
    5dec: c8           	iny
    5ded: b1 10        	lda	($10),y                 ; 0x10 <__rc0>
    5def: 85 13        	sta	$13                     ; 0x13 <__rc3>
    5df1: 90 0b        	bcc	$5dfe <main+0x179c>
    5df3: a0 18        	ldy	#$18
    5df5: b1 10        	lda	($10),y                 ; 0x10 <__rc0>
    5df7: 85 12        	sta	$12                     ; 0x12 <__rc2>
    5df9: c8           	iny
    5dfa: b1 10        	lda	($10),y                 ; 0x10 <__rc0>
    5dfc: 85 13        	sta	$13                     ; 0x13 <__rc3>
    5dfe: a5 1a        	lda	$1a                     ; 0x1a <__rc10>
    5e00: 92 12        	sta	($12)                   ; 0x12 <__rc2>
    5e02: a5 19        	lda	$19                     ; 0x19 <__rc9>
    5e04: 8d 81 d5     	sta	$d581                   ; 0xd581 <__heap_start+0x4669>
    5e07: a5 18        	lda	$18                     ; 0x18 <__rc8>
    5e09: 29 03        	and	#$3
    5e0b: 85 14        	sta	$14                     ; 0x14 <__rc4>
    5e0d: a5 16        	lda	$16                     ; 0x16 <__rc6>
    5e0f: 0a           	asl
    5e10: 0a           	asl
    5e11: 05 14        	ora	$14                     ; 0x14 <__rc4>
    5e13: 09 20        	ora	#$20
    5e15: aa           	tax
    5e16: a5 17        	lda	$17                     ; 0x17 <__rc7>
    5e18: 09 b0        	ora	#$b0
    5e1a: 92 12        	sta	($12)                   ; 0x12 <__rc2>
    5e1c: 8e 81 d5     	stx	$d581                   ; 0xd581 <__heap_start+0x4669>
    5e1f: a5 27        	lda	$27                     ; 0x27 <__rc23>
    5e21: a6 1b        	ldx	$1b                     ; 0x1b <__zp_data_size>
    5e23: 9d 4c 00     	sta	$4c,x                   ; 0x4c <polyOPL3Buffer>
    5e26: 4c f1 5e     	jmp	$5ef1 <main+0x188f>
    5e29: a2 f0        	ldx	#$f0
    5e2b: 86 34        	stx	$34                     ; 0x34 <_ccolor>
    5e2d: a5 13        	lda	$13                     ; 0x13 <__rc3>
    5e2f: 20 0b 42     	jsr	$420b <show_inst>
    5e32: a2 f1        	ldx	#$f1
    5e34: 86 34        	stx	$34                     ; 0x34 <_ccolor>
    5e36: a5 24        	lda	$24                     ; 0x24 <__rc20>
    5e38: 85 75        	sta	$75                     ; 0x75 <playChan>
    5e3a: 20 0b 42     	jsr	$420b <show_inst>
    5e3d: 20 db 2b     	jsr	$2bdb <opl3_quietAll>
    5e40: a9 e0        	lda	#$e0
    5e42: 25 76        	and	$76                     ; 0x76 <chip_VT_PERC>
    5e44: a2 bd        	ldx	#$bd
    5e46: 8e 80 d5     	stx	$d580                   ; 0xd580 <__heap_start+0x4668>
    5e49: 8d 81 d5     	sta	$d581                   ; 0xd581 <__heap_start+0x4669>
    5e4c: a5 75        	lda	$75                     ; 0x75 <playChan>
    5e4e: 20 7c 2f     	jsr	$2f7c <opl3_set4OPS>
    5e51: ad a0 dd     	lda	$dda0                   ; 0xdda0 <__heap_start+0x4e88>
    5e54: 29 02        	and	#$2
    5e56: f0 03        	beq	$5e5b <main+0x17f9>
    5e58: 4c 9e 60     	jmp	$609e <main+0x1a3c>
    5e5b: ae a2 dd     	ldx	$dda2                   ; 0xdda2 <__heap_start+0x4e8a>
    5e5e: 86 28        	stx	$28                     ; 0x28 <__rc24>
    5e60: ad a3 dd     	lda	$dda3                   ; 0xdda3 <__heap_start+0x4e8b>
    5e63: 29 0f        	and	#$f
    5e65: 85 2d        	sta	$2d                     ; 0x2d <__rc29>
    5e67: a5 2d        	lda	$2d                     ; 0x2d <__rc29>
    5e69: d0 07        	bne	$5e72 <main+0x1810>
    5e6b: a5 28        	lda	$28                     ; 0x28 <__rc24>
    5e6d: d0 03        	bne	$5e72 <main+0x1810>
    5e6f: 4c 9e 60     	jmp	$609e <main+0x1a3c>
    5e72: a0 00        	ldy	#$0
    5e74: a2 00        	ldx	#$0
    5e76: 84 12        	sty	$12                     ; 0x12 <__rc2>
    5e78: ac a1 dd     	ldy	$dda1                   ; 0xdda1 <__heap_start+0x4e89>
    5e7b: 84 6e        	sty	$6e                     ; 0x6e <gMID>
    5e7d: a9 01        	lda	#$1
    5e7f: 5a           	phy
    5e80: a4 12        	ldy	$12                     ; 0x12 <__rc2>
    5e82: 84 26        	sty	$26                     ; 0x26 <__rc22>
    5e84: 7a           	ply
    5e85: c0 fe        	cpy	#$fe
    5e87: d0 03        	bne	$5e8c <main+0x182a>
    5e89: 4c 68 60     	jmp	$6068 <main+0x1a06>
    5e8c: 85 29        	sta	$29                     ; 0x29 <__rc25>
    5e8e: 86 25        	stx	$25                     ; 0x25 <__rc21>
    5e90: a6 70        	ldx	$70                     ; 0x70 <gMID+0x2>
    5e92: f0 38        	beq	$5ecc <main+0x186a>
    5e94: 64 70        	stz	$70                     ; 0x70 <gMID+0x2>
    5e96: a6 71        	ldx	$71                     ; 0x71 <gMID+0x3>
    5e98: a5 74        	lda	$74                     ; 0x74 <gMID+0x6>
    5e9a: e0 00        	cpx	#$0
    5e9c: d0 03        	bne	$5ea1 <main+0x183f>
    5e9e: 4c f7 5e     	jmp	$5ef7 <main+0x1895>
    5ea1: aa           	tax
    5ea2: d0 03        	bne	$5ea7 <main+0x1845>
    5ea4: 4c 0a 60     	jmp	$600a <main+0x19a8>
    5ea7: a2 00        	ldx	#$0
    5ea9: 80 08        	bra	$5eb3 <main+0x1851>
    5eab: e6 24        	inc	$24                     ; 0x24 <__rc20>
    5ead: a6 24        	ldx	$24                     ; 0x24 <__rc20>
    5eaf: e0 12        	cpx	#$12
    5eb1: f0 3e        	beq	$5ef1 <main+0x188f>
    5eb3: 86 24        	stx	$24                     ; 0x24 <__rc20>
    5eb5: 48           	pha
    5eb6: b5 4c        	lda	$4c,x                   ; 0x4c <polyOPL3Buffer>
    5eb8: aa           	tax
    5eb9: 68           	pla
    5eba: e0 00        	cpx	#$0
    5ebc: d0 ed        	bne	$5eab <main+0x1849>
    5ebe: a6 24        	ldx	$24                     ; 0x24 <__rc20>
    5ec0: 48           	pha
    5ec1: b5 35        	lda	$35,x                   ; 0x35 <selectableChan>
    5ec3: aa           	tax
    5ec4: 68           	pla
    5ec5: e0 00        	cpx	#$0
    5ec7: f0 e2        	beq	$5eab <main+0x1849>
    5ec9: 4c eb 5c     	jmp	$5ceb <main+0x1689>
    5ecc: 84 14        	sty	$14                     ; 0x14 <__rc4>
    5ece: a6 6f        	ldx	$6f                     ; 0x6f <gMID+0x1>
    5ed0: d0 03        	bne	$5ed5 <main+0x1873>
    5ed2: 4c 60 5f     	jmp	$5f60 <main+0x18fe>
    5ed5: 18           	clc
    5ed6: 98           	tya
    5ed7: 69 ec        	adc	#$ec
    5ed9: a6 71        	ldx	$71                     ; 0x71 <gMID+0x3>
    5edb: d0 03        	bne	$5ee0 <main+0x187e>
    5edd: 4c 7d 60     	jmp	$607d <main+0x1a1b>
    5ee0: a6 01        	ldx	$1                      ; 0x1 <__data_size+0x1>
    5ee2: 86 15        	stx	$15                     ; 0x15 <__rc5>
    5ee4: a4 29        	ldy	$29                     ; 0x29 <__rc25>
    5ee6: 84 01        	sty	$1                      ; 0x1 <__data_size+0x1>
    5ee8: 64 12        	stz	$12                     ; 0x12 <__rc2>
    5eea: a2 ff        	ldx	#$ff
    5eec: 64 16        	stz	$16                     ; 0x16 <__rc6>
    5eee: 4c 27 60     	jmp	$6027 <main+0x19c5>
    5ef1: a6 4b        	ldx	$4b                     ; 0x4b <chipAct.0>
    5ef3: e8           	inx
    5ef4: 4c 08 60     	jmp	$6008 <main+0x19a6>
    5ef7: a2 00        	ldx	#$0
    5ef9: b4 4c        	ldy	$4c,x                   ; 0x4c <polyOPL3Buffer>
    5efb: 85 12        	sta	$12                     ; 0x12 <__rc2>
    5efd: c4 12        	cpy	$12                     ; 0x12 <__rc2>
    5eff: f0 07        	beq	$5f08 <main+0x18a6>
    5f01: e8           	inx
    5f02: e0 12        	cpx	#$12
    5f04: d0 f3        	bne	$5ef9 <main+0x1897>
    5f06: a2 ff        	ldx	#$ff
    5f08: 86 29        	stx	$29                     ; 0x29 <__rc25>
    5f0a: 18           	clc
    5f0b: 69 05        	adc	#$5
    5f0d: 64 2c        	stz	$2c                     ; 0x2c <__rc28>
    5f0f: a8           	tay
    5f10: a9 00        	lda	#$0
    5f12: 69 00        	adc	#$0
    5f14: 18           	clc
    5f15: 48           	pha
    5f16: a5 10        	lda	$10                     ; 0x10 <__rc0>
    5f18: 69 1c        	adc	#$1c
    5f1a: 85 2e        	sta	$2e                     ; 0x2e <__rc30>
    5f1c: a5 11        	lda	$11                     ; 0x11 <__rc1>
    5f1e: 69 00        	adc	#$0
    5f20: 85 2f        	sta	$2f                     ; 0x2f <__rc31>
    5f22: 68           	pla
    5f23: a6 2e        	ldx	$2e                     ; 0x2e <__rc30>
    5f25: 86 14        	stx	$14                     ; 0x14 <__rc4>
    5f27: a6 2f        	ldx	$2f                     ; 0x2f <__rc31>
    5f29: 86 15        	stx	$15                     ; 0x15 <__rc5>
    5f2b: a2 0c        	ldx	#$c
    5f2d: 86 12        	stx	$12                     ; 0x12 <__rc2>
    5f2f: 64 13        	stz	$13                     ; 0x13 <__rc3>
    5f31: aa           	tax
    5f32: 98           	tya
    5f33: 20 c5 83     	jsr	$83c5 <__udivmodhi4>
    5f36: 85 16        	sta	$16                     ; 0x16 <__rc6>
    5f38: b2 2e        	lda	($2e)                   ; 0x2e <__rc30>
    5f3a: 85 12        	sta	$12                     ; 0x12 <__rc2>
    5f3c: a0 01        	ldy	#$1
    5f3e: b1 2e        	lda	($2e),y                 ; 0x2e <__rc30>
    5f40: 06 12        	asl	$12                     ; 0x12 <__rc2>
    5f42: 2a           	rol
    5f43: 85 13        	sta	$13                     ; 0x13 <__rc3>
    5f45: a9 1e        	lda	#$1e
    5f47: 18           	clc
    5f48: 65 12        	adc	$12                     ; 0x12 <__rc2>
    5f4a: 85 14        	sta	$14                     ; 0x14 <__rc4>
    5f4c: a9 8c        	lda	#$8c
    5f4e: 65 13        	adc	$13                     ; 0x13 <__rc3>
    5f50: 85 15        	sta	$15                     ; 0x15 <__rc5>
    5f52: a6 29        	ldx	$29                     ; 0x29 <__rc25>
    5f54: e0 09        	cpx	#$9
    5f56: 90 1e        	bcc	$5f76 <main+0x1914>
    5f58: a2 09        	ldx	#$9
    5f5a: 84 12        	sty	$12                     ; 0x12 <__rc2>
    5f5c: 86 13        	stx	$13                     ; 0x13 <__rc3>
    5f5e: 80 1a        	bra	$5f7a <main+0x1918>
    5f60: 98           	tya
    5f61: 29 f0        	and	#$f0
    5f63: c9 80        	cmp	#$80
    5f65: d0 03        	bne	$5f6a <main+0x1908>
    5f67: 4c 63 5d     	jmp	$5d63 <main+0x1701>
    5f6a: a6 25        	ldx	$25                     ; 0x25 <__rc21>
    5f6c: c9 90        	cmp	#$90
    5f6e: f0 03        	beq	$5f73 <main+0x1911>
    5f70: 4c 70 5d     	jmp	$5d70 <main+0x170e>
    5f73: 4c 54 5d     	jmp	$5d54 <main+0x16f2>
    5f76: 64 12        	stz	$12                     ; 0x12 <__rc2>
    5f78: 64 13        	stz	$13                     ; 0x13 <__rc3>
    5f7a: b2 14        	lda	($14)                   ; 0x14 <__rc4>
    5f7c: 85 18        	sta	$18                     ; 0x18 <__rc8>
    5f7e: b1 14        	lda	($14),y                 ; 0x14 <__rc4>
    5f80: aa           	tax
    5f81: 18           	clc
    5f82: a5 16        	lda	$16                     ; 0x16 <__rc6>
    5f84: 69 3e        	adc	#$3e
    5f86: 85 16        	sta	$16                     ; 0x16 <__rc6>
    5f88: a5 29        	lda	$29                     ; 0x29 <__rc25>
    5f8a: 38           	sec
    5f8b: e5 13        	sbc	$13                     ; 0x13 <__rc3>
    5f8d: a8           	tay
    5f8e: a9 00        	lda	#$0
    5f90: e5 2c        	sbc	$2c                     ; 0x2c <__rc28>
    5f92: 05 12        	ora	$12                     ; 0x12 <__rc2>
    5f94: 85 12        	sta	$12                     ; 0x12 <__rc2>
    5f96: 98           	tya
    5f97: 09 a0        	ora	#$a0
    5f99: 85 19        	sta	$19                     ; 0x19 <__rc9>
    5f9b: a5 12        	lda	$12                     ; 0x12 <__rc2>
    5f9d: c9 01        	cmp	#$1
    5f9f: d0 06        	bne	$5fa7 <main+0x1945>
    5fa1: 84 17        	sty	$17                     ; 0x17 <__rc7>
    5fa3: c0 00        	cpy	#$0
    5fa5: 80 04        	bra	$5fab <main+0x1949>
    5fa7: 84 17        	sty	$17                     ; 0x17 <__rc7>
    5fa9: c9 01        	cmp	#$1
    5fab: a0 16        	ldy	#$16
    5fad: b1 10        	lda	($10),y                 ; 0x10 <__rc0>
    5faf: 85 12        	sta	$12                     ; 0x12 <__rc2>
    5fb1: c8           	iny
    5fb2: b1 10        	lda	($10),y                 ; 0x10 <__rc0>
    5fb4: 85 13        	sta	$13                     ; 0x13 <__rc3>
    5fb6: 90 0b        	bcc	$5fc3 <main+0x1961>
    5fb8: a0 18        	ldy	#$18
    5fba: b1 10        	lda	($10),y                 ; 0x10 <__rc0>
    5fbc: 85 12        	sta	$12                     ; 0x12 <__rc2>
    5fbe: c8           	iny
    5fbf: b1 10        	lda	($10),y                 ; 0x10 <__rc0>
    5fc1: 85 13        	sta	$13                     ; 0x13 <__rc3>
    5fc3: a5 19        	lda	$19                     ; 0x19 <__rc9>
    5fc5: 92 12        	sta	($12)                   ; 0x12 <__rc2>
    5fc7: a5 18        	lda	$18                     ; 0x18 <__rc8>
    5fc9: 8d 81 d5     	sta	$d581                   ; 0xd581 <__heap_start+0x4669>
    5fcc: 8a           	txa
    5fcd: 29 03        	and	#$3
    5fcf: 85 14        	sta	$14                     ; 0x14 <__rc4>
    5fd1: a5 16        	lda	$16                     ; 0x16 <__rc6>
    5fd3: 0a           	asl
    5fd4: 0a           	asl
    5fd5: 05 14        	ora	$14                     ; 0x14 <__rc4>
    5fd7: aa           	tax
    5fd8: a5 17        	lda	$17                     ; 0x17 <__rc7>
    5fda: 09 b0        	ora	#$b0
    5fdc: 92 12        	sta	($12)                   ; 0x12 <__rc2>
    5fde: 8e 81 d5     	stx	$d581                   ; 0xd581 <__heap_start+0x4669>
    5fe1: a5 29        	lda	$29                     ; 0x29 <__rc25>
    5fe3: 10 06        	bpl	$5feb <main+0x1989>
    5fe5: a2 ff        	ldx	#$ff
    5fe7: 86 12        	stx	$12                     ; 0x12 <__rc2>
    5fe9: 80 02        	bra	$5fed <main+0x198b>
    5feb: 64 12        	stz	$12                     ; 0x12 <__rc2>
    5fed: a9 4c        	lda	#$4c
    5fef: 18           	clc
    5ff0: a2 00        	ldx	#$0
    5ff2: 86 2e        	stx	$2e                     ; 0x2e <__rc30>
    5ff4: 65 29        	adc	$29                     ; 0x29 <__rc25>
    5ff6: aa           	tax
    5ff7: a9 00        	lda	#$0
    5ff9: 65 12        	adc	$12                     ; 0x12 <__rc2>
    5ffb: 86 12        	stx	$12                     ; 0x12 <__rc2>
    5ffd: 85 13        	sta	$13                     ; 0x13 <__rc3>
    5fff: a9 00        	lda	#$0
    6001: 92 12        	sta	($12)                   ; 0x12 <__rc2>
    6003: a6 4b        	ldx	$4b                     ; 0x4b <chipAct.0>
    6005: f0 03        	beq	$600a <main+0x19a8>
    6007: ca           	dex
    6008: 86 4b        	stx	$4b                     ; 0x4b <chipAct.0>
    600a: a6 74        	ldx	$74                     ; 0x74 <gMID+0x6>
    600c: 86 73        	stx	$73                     ; 0x73 <gMID+0x5>
    600e: 4c 66 60     	jmp	$6066 <main+0x1a04>
    6011: 06 13        	asl	$13                     ; 0x13 <__rc3>
    6013: 86 13        	stx	$13                     ; 0x13 <__rc3>
    6015: 26 13        	rol	$13                     ; 0x13 <__rc3>
    6017: a6 01        	ldx	$1                      ; 0x1 <__data_size+0x1>
    6019: 86 15        	stx	$15                     ; 0x15 <__rc5>
    601b: a4 29        	ldy	$29                     ; 0x29 <__rc25>
    601d: 84 01        	sty	$1                      ; 0x1 <__data_size+0x1>
    601f: a6 13        	ldx	$13                     ; 0x13 <__rc3>
    6021: 48           	pha
    6022: a5 13        	lda	$13                     ; 0x13 <__rc3>
    6024: 85 16        	sta	$16                     ; 0x16 <__rc6>
    6026: 68           	pla
    6027: 0a           	asl
    6028: 26 12        	rol	$12                     ; 0x12 <__rc2>
    602a: 0a           	asl
    602b: 85 13        	sta	$13                     ; 0x13 <__rc3>
    602d: 26 12        	rol	$12                     ; 0x12 <__rc2>
    602f: 18           	clc
    6030: a9 00        	lda	#$0
    6032: 85 2e        	sta	$2e                     ; 0x2e <__rc30>
    6034: a9 00        	lda	#$0
    6036: 65 13        	adc	$13                     ; 0x13 <__rc3>
    6038: 85 13        	sta	$13                     ; 0x13 <__rc3>
    603a: a9 d0        	lda	#$d0
    603c: 65 12        	adc	$12                     ; 0x12 <__rc2>
    603e: 5a           	phy
    603f: a4 13        	ldy	$13                     ; 0x13 <__rc3>
    6041: 84 12        	sty	$12                     ; 0x12 <__rc2>
    6043: 7a           	ply
    6044: 85 13        	sta	$13                     ; 0x13 <__rc3>
    6046: a5 16        	lda	$16                     ; 0x16 <__rc6>
    6048: 91 12        	sta	($12),y                 ; 0x12 <__rc2>
    604a: 8a           	txa
    604b: 92 12        	sta	($12)                   ; 0x12 <__rc2>
    604d: 84 16        	sty	$16                     ; 0x16 <__rc6>
    604f: a0 02        	ldy	#$2
    6051: 91 12        	sta	($12),y                 ; 0x12 <__rc2>
    6053: c8           	iny
    6054: a9 ff        	lda	#$ff
    6056: 91 12        	sta	($12),y                 ; 0x12 <__rc2>
    6058: a6 15        	ldx	$15                     ; 0x15 <__rc5>
    605a: 86 01        	stx	$1                      ; 0x1 <__data_size+0x1>
    605c: a6 6e        	ldx	$6e                     ; 0x6e <gMID>
    605e: 86 74        	stx	$74                     ; 0x74 <gMID+0x6>
    6060: 64 6f        	stz	$6f                     ; 0x6f <gMID+0x1>
    6062: a6 16        	ldx	$16                     ; 0x16 <__rc6>
    6064: 86 70        	stx	$70                     ; 0x70 <gMID+0x2>
    6066: a6 25        	ldx	$25                     ; 0x25 <__rc21>
    6068: e6 26        	inc	$26                     ; 0x26 <__rc22>
    606a: d0 01        	bne	$606d <main+0x1a0b>
    606c: e8           	inx
    606d: a4 26        	ldy	$26                     ; 0x26 <__rc22>
    606f: e4 2d        	cpx	$2d                     ; 0x2d <__rc29>
    6071: f0 03        	beq	$6076 <main+0x1a14>
    6073: 4c 76 5e     	jmp	$5e76 <main+0x1814>
    6076: c4 28        	cpy	$28                     ; 0x28 <__rc24>
    6078: f0 24        	beq	$609e <main+0x1a3c>
    607a: 4c 76 5e     	jmp	$5e76 <main+0x1814>
    607d: aa           	tax
    607e: 64 12        	stz	$12                     ; 0x12 <__rc2>
    6080: bc c5 8b     	ldy	$8bc5,x                 ; 0x8bc5 <__BLOCK_SIZE+0x6bc5>
    6083: a2 00        	ldx	#$0
    6085: c0 00        	cpy	#$0
    6087: f0 03        	beq	$608c <main+0x1a2a>
    6089: 4c 95 5d     	jmp	$5d95 <main+0x1733>
    608c: 86 13        	stx	$13                     ; 0x13 <__rc3>
    608e: 46 13        	lsr	$13                     ; 0x13 <__rc3>
    6090: 64 13        	stz	$13                     ; 0x13 <__rc3>
    6092: 66 13        	ror	$13                     ; 0x13 <__rc3>
    6094: 30 03        	bmi	$6099 <main+0x1a37>
    6096: 4c 9a 5d     	jmp	$5d9a <main+0x1738>
    6099: a2 ff        	ldx	#$ff
    609b: 4c 11 60     	jmp	$6011 <main+0x19af>
    609e: 64 62        	stz	$62                     ; 0x62 <kernelEventData>
    60a0: a2 69        	ldx	#$69
    60a2: 86 12        	stx	$12                     ; 0x12 <__rc2>
    60a4: a2 00        	ldx	#$0
    60a6: 86 13        	stx	$13                     ; 0x13 <__rc3>
    60a8: 20 00 ff     	jsr	$ff00 <__heap_start+0x6fe8>
    60ab: 92 2a        	sta	($2a)                   ; 0x2a <__rc26>
    60ad: a9 00        	lda	#$0
    60af: 6a           	ror
    60b0: 85 12        	sta	$12                     ; 0x12 <__rc2>
    60b2: a6 62        	ldx	$62                     ; 0x62 <kernelEventData>
    60b4: e0 08        	cpx	#$8
    60b6: f0 03        	beq	$60bb <main+0x1a59>
    60b8: 4c 51 5e     	jmp	$5e51 <main+0x17ef>
    60bb: a6 66        	ldx	$66                     ; 0x66 <kernelEventData+0x4>
    60bd: e0 b6        	cpx	#$b6
    60bf: d0 03        	bne	$60c4 <main+0x1a62>
    60c1: 4c 6c 5c     	jmp	$5c6c <main+0x160a>
    60c4: e0 20        	cpx	#$20
    60c6: f0 03        	beq	$60cb <main+0x1a69>
    60c8: 4c b3 5c     	jmp	$5cb3 <main+0x1651>
    60cb: a5 75        	lda	$75                     ; 0x75 <playChan>
    60cd: 20 0b 42     	jsr	$420b <show_inst>
    60d0: a2 d6        	ldx	#$d6
    60d2: 86 12        	stx	$12                     ; 0x12 <__rc2>
    60d4: a2 89        	ldx	#$89
    60d6: 86 13        	stx	$13                     ; 0x13 <__rc3>
    60d8: 20 66 7f     	jsr	$7f66 <printf>
    60db: 20 db 2b     	jsr	$2bdb <opl3_quietAll>
    60de: a9 e0        	lda	#$e0
    60e0: 25 76        	and	$76                     ; 0x76 <chip_VT_PERC>
    60e2: a2 bd        	ldx	#$bd
    60e4: 8e 80 d5     	stx	$d580                   ; 0xd580 <__heap_start+0x4668>
    60e7: 8d 81 d5     	sta	$d581                   ; 0xd581 <__heap_start+0x4669>
    60ea: a6 77        	ldx	$77                     ; 0x77 <chip_OPL3_PAIRS>
    60ec: a0 04        	ldy	#$4
    60ee: 8c 82 d5     	sty	$d582                   ; 0xd582 <__heap_start+0x466a>
    60f1: 8e 81 d5     	stx	$d581                   ; 0xd581 <__heap_start+0x4669>
    60f4: a2 00        	ldx	#$0
    60f6: 8a           	txa
    60f7: 20 14 2c     	jsr	$2c14 <opl3_setInstrumentAllChannels>
    60fa: a9 00        	lda	#$0
    60fc: aa           	tax
    60fd: 85 16        	sta	$16                     ; 0x16 <__rc6>
    60ff: a8           	tay
    6100: b9 96 8d     	lda	$8d96,y                 ; 0x8d96 <opl3_instrument_defs+0xb>
    6103: a8           	tay
    6104: e0 09        	cpx	#$9
    6106: 5a           	phy
    6107: a0 18        	ldy	#$18
    6109: b1 10        	lda	($10),y                 ; 0x10 <__rc0>
    610b: 85 12        	sta	$12                     ; 0x12 <__rc2>
    610d: c8           	iny
    610e: b1 10        	lda	($10),y                 ; 0x10 <__rc0>
    6110: 7a           	ply
    6111: 85 13        	sta	$13                     ; 0x13 <__rc3>
    6113: b0 0d        	bcs	$6122 <main+0x1ac0>
    6115: 5a           	phy
    6116: a0 16        	ldy	#$16
    6118: b1 10        	lda	($10),y                 ; 0x10 <__rc0>
    611a: 85 12        	sta	$12                     ; 0x12 <__rc2>
    611c: c8           	iny
    611d: b1 10        	lda	($10),y                 ; 0x10 <__rc0>
    611f: 7a           	ply
    6120: 85 13        	sta	$13                     ; 0x13 <__rc3>
    6122: 8a           	txa
    6123: 09 a0        	ora	#$a0
    6125: 92 12        	sta	($12)                   ; 0x12 <__rc2>
    6127: 8c 81 d5     	sty	$d581                   ; 0xd581 <__heap_start+0x4669>
    612a: e0 07        	cpx	#$7
    612c: f0 26        	beq	$6154 <main+0x1af2>
    612e: a5 16        	lda	$16                     ; 0x16 <__rc6>
    6130: e0 08        	cpx	#$8
    6132: d0 04        	bne	$6138 <main+0x1ad6>
    6134: a4 76        	ldy	$76                     ; 0x76 <chip_VT_PERC>
    6136: d0 11        	bne	$6149 <main+0x1ae7>
    6138: a8           	tay
    6139: a9 df        	lda	#$df
    613b: 39 97 8d     	and	$8d97,y                 ; 0x8d97 <opl3_instrument_defs+0xc>
    613e: a8           	tay
    613f: 8a           	txa
    6140: 09 b0        	ora	#$b0
    6142: 92 12        	sta	($12)                   ; 0x12 <__rc2>
    6144: a5 16        	lda	$16                     ; 0x16 <__rc6>
    6146: 8c 81 d5     	sty	$d581                   ; 0xd581 <__heap_start+0x4669>
    6149: e8           	inx
    614a: 18           	clc
    614b: 69 0f        	adc	#$f
    614d: e0 12        	cpx	#$12
    614f: f0 0d        	beq	$615e <main+0x1afc>
    6151: 4c fd 60     	jmp	$60fd <main+0x1a9b>
    6154: a4 76        	ldy	$76                     ; 0x76 <chip_VT_PERC>
    6156: a5 16        	lda	$16                     ; 0x16 <__rc6>
    6158: c0 00        	cpy	#$0
    615a: f0 dc        	beq	$6138 <main+0x1ad6>
    615c: 80 eb        	bra	$6149 <main+0x1ae7>
    615e: 9c 00 d1     	stz	$d100                   ; 0xd100 <__heap_start+0x41e8>
    6161: 20 d6 3f     	jsr	$3fd6 <textUI>
    6164: a2 00        	ldx	#$0
    6166: a0 01        	ldy	#$1
    6168: 5a           	phy
    6169: a0 15        	ldy	#$15
    616b: b1 10        	lda	($10),y                 ; 0x10 <__rc0>
    616d: 7a           	ply
    616e: 85 12        	sta	$12                     ; 0x12 <__rc2>
    6170: a5 12        	lda	$12                     ; 0x12 <__rc2>
    6172: f0 09        	beq	$617d <main+0x1b1b>
    6174: 84 28        	sty	$28                     ; 0x28 <__rc24>
    6176: 20 ec 40     	jsr	$40ec <wipe_inst>
    6179: a4 28        	ldy	$28                     ; 0x28 <__rc24>
    617b: a2 00        	ldx	#$0
    617d: 86 28        	stx	$28                     ; 0x28 <__rc24>
    617f: 64 62        	stz	$62                     ; 0x62 <kernelEventData>
    6181: a2 69        	ldx	#$69
    6183: 86 12        	stx	$12                     ; 0x12 <__rc2>
    6185: a2 00        	ldx	#$0
    6187: 86 13        	stx	$13                     ; 0x13 <__rc3>
    6189: 20 00 ff     	jsr	$ff00 <__heap_start+0x6fe8>
    618c: 92 2a        	sta	($2a)                   ; 0x2a <__rc26>
    618e: a9 00        	lda	#$0
    6190: 6a           	ror
    6191: 85 12        	sta	$12                     ; 0x12 <__rc2>
    6193: a6 62        	ldx	$62                     ; 0x62 <kernelEventData>
    6195: e0 08        	cpx	#$8
    6197: f0 03        	beq	$619c <main+0x1b3a>
    6199: 4c 71 59     	jmp	$5971 <main+0x130f>
    619c: a5 66        	lda	$66                     ; 0x66 <kernelEventData+0x4>
    619e: 38           	sec
    619f: aa           	tax
    61a0: e9 93        	sbc	#$93
    61a2: 50 02        	bvc	$61a6 <main+0x1b44>
    61a4: 49 80        	eor	#$80
    61a6: c9 00        	cmp	#$0
    61a8: 30 0b        	bmi	$61b5 <main+0x1b53>
    61aa: e0 20        	cpx	#$20
    61ac: d0 1e        	bne	$61cc <main+0x1b6a>
    61ae: a2 01        	ldx	#$1
    61b0: 86 28        	stx	$28                     ; 0x28 <__rc24>
    61b2: 4c 71 59     	jmp	$5971 <main+0x130f>
    61b5: a0 01        	ldy	#$1
    61b7: e0 83        	cpx	#$83
    61b9: d0 03        	bne	$61be <main+0x1b5c>
    61bb: 4c d2 62     	jmp	$62d2 <main+0x1c70>
    61be: e0 87        	cpx	#$87
    61c0: f0 61        	beq	$6223 <main+0x1bc1>
    61c2: e0 92        	cpx	#$92
    61c4: f0 03        	beq	$61c9 <main+0x1b67>
    61c6: 4c 71 59     	jmp	$5971 <main+0x130f>
    61c9: 4c 94 66     	jmp	$6694 <main+0x2032>
    61cc: e0 93        	cpx	#$93
    61ce: f0 03        	beq	$61d3 <main+0x1b71>
    61d0: 4c 71 59     	jmp	$5971 <main+0x130f>
    61d3: 4c cd 62     	jmp	$62cd <main+0x1c6b>
    61d6: e6 5e        	inc	$5e                     ; 0x5e <needle>
    61d8: f0 03        	beq	$61dd <main+0x1b7b>
    61da: 4c e8 5b     	jmp	$5be8 <main+0x1586>
    61dd: e6 5f        	inc	$5f                     ; 0x5f <needle+0x1>
    61df: f0 03        	beq	$61e4 <main+0x1b82>
    61e1: 4c e8 5b     	jmp	$5be8 <main+0x1586>
    61e4: e6 60        	inc	$60                     ; 0x60 <needle+0x2>
    61e6: f0 03        	beq	$61eb <main+0x1b89>
    61e8: 4c e8 5b     	jmp	$5be8 <main+0x1586>
    61eb: e6 61        	inc	$61                     ; 0x61 <needle+0x3>
    61ed: 4c e8 5b     	jmp	$5be8 <main+0x1586>
    61f0: e4 14        	cpx	$14                     ; 0x14 <__rc4>
    61f2: 90 03        	bcc	$61f7 <main+0x1b95>
    61f4: 4c 72 5a     	jmp	$5a72 <main+0x1410>
    61f7: 4c c0 5a     	jmp	$5ac0 <main+0x145e>
    61fa: c9 00        	cmp	#$0
    61fc: b0 03        	bcs	$6201 <main+0x1b9f>
    61fe: 4c 27 5b     	jmp	$5b27 <main+0x14c5>
    6201: 4c 5c 5b     	jmp	$5b5c <main+0x14fa>
    6204: c5 13        	cmp	$13                     ; 0x13 <__rc3>
    6206: a5 17        	lda	$17                     ; 0x17 <__rc7>
    6208: 90 03        	bcc	$620d <main+0x1bab>
    620a: 4c 72 5a     	jmp	$5a72 <main+0x1410>
    620d: 4c c0 5a     	jmp	$5ac0 <main+0x145e>
    6210: c0 00        	cpy	#$0
    6212: f0 03        	beq	$6217 <main+0x1bb5>
    6214: 4c 97 5a     	jmp	$5a97 <main+0x1435>
    6217: 4c 35 68     	jmp	$6835 <main+0x21d3>
    621a: a0 11        	ldy	#$11
    621c: 91 10        	sta	($10),y                 ; 0x10 <__rc0>
    621e: a4 24        	ldy	$24                     ; 0x24 <__rc20>
    6220: 4c 71 59     	jmp	$5971 <main+0x130f>
    6223: a2 01        	ldx	#$1
    6225: 86 24        	stx	$24                     ; 0x24 <__rc20>
    6227: a0 11        	ldy	#$11
    6229: b1 10        	lda	($10),y                 ; 0x10 <__rc0>
    622b: 29 01        	and	#$1
    622d: 85 14        	sta	$14                     ; 0x14 <__rc4>
    622f: 48           	pha
    6230: a0 15        	ldy	#$15
    6232: 91 10        	sta	($10),y                 ; 0x10 <__rc0>
    6234: 68           	pla
    6235: d0 03        	bne	$623a <main+0x1bd8>
    6237: 4c 58 64     	jmp	$6458 <main+0x1df6>
    623a: 4c 4e 64     	jmp	$644e <main+0x1dec>
    623d: a6 5e        	ldx	$5e                     ; 0x5e <needle>
    623f: 86 15        	stx	$15                     ; 0x15 <__rc5>
    6241: a6 5f        	ldx	$5f                     ; 0x5f <needle+0x1>
    6243: 86 16        	stx	$16                     ; 0x16 <__rc6>
    6245: a6 60        	ldx	$60                     ; 0x60 <needle+0x2>
    6247: a4 61        	ldy	$61                     ; 0x61 <needle+0x3>
    6249: 4c c0 5a     	jmp	$5ac0 <main+0x145e>
    624c: a6 5e        	ldx	$5e                     ; 0x5e <needle>
    624e: 86 14        	stx	$14                     ; 0x14 <__rc4>
    6250: a5 5f        	lda	$5f                     ; 0x5f <needle+0x1>
    6252: a4 60        	ldy	$60                     ; 0x60 <needle+0x2>
    6254: a6 61        	ldx	$61                     ; 0x61 <needle+0x3>
    6256: e6 5e        	inc	$5e                     ; 0x5e <needle>
    6258: d0 03        	bne	$625d <main+0x1bfb>
    625a: 4c 76 64     	jmp	$6476 <main+0x1e14>
    625d: 84 12        	sty	$12                     ; 0x12 <__rc2>
    625f: 86 13        	stx	$13                     ; 0x13 <__rc3>
    6261: aa           	tax
    6262: a5 14        	lda	$14                     ; 0x14 <__rc4>
    6264: 20 b5 05     	jsr	$5b5 <PEEK24>
    6267: 85 24        	sta	$24                     ; 0x24 <__rc20>
    6269: a6 5e        	ldx	$5e                     ; 0x5e <needle>
    626b: 86 14        	stx	$14                     ; 0x14 <__rc4>
    626d: a5 5f        	lda	$5f                     ; 0x5f <needle+0x1>
    626f: a4 60        	ldy	$60                     ; 0x60 <needle+0x2>
    6271: a6 61        	ldx	$61                     ; 0x61 <needle+0x3>
    6273: e6 5e        	inc	$5e                     ; 0x5e <needle>
    6275: d0 03        	bne	$627a <main+0x1c18>
    6277: 4c 80 64     	jmp	$6480 <main+0x1e1e>
    627a: 84 12        	sty	$12                     ; 0x12 <__rc2>
    627c: 86 13        	stx	$13                     ; 0x13 <__rc3>
    627e: aa           	tax
    627f: a5 14        	lda	$14                     ; 0x14 <__rc4>
    6281: 20 b5 05     	jsr	$5b5 <PEEK24>
    6284: aa           	tax
    6285: a5 24        	lda	$24                     ; 0x24 <__rc20>
    6287: 8d 80 d5     	sta	$d580                   ; 0xd580 <__heap_start+0x4668>
    628a: 8e 81 d5     	stx	$d581                   ; 0xd581 <__heap_start+0x4669>
    628d: 64 12        	stz	$12                     ; 0x12 <__rc2>
    628f: 64 24        	stz	$24                     ; 0x24 <__rc20>
    6291: 48           	pha
    6292: a0 11        	ldy	#$11
    6294: b1 10        	lda	($10),y                 ; 0x10 <__rc0>
    6296: 85 13        	sta	$13                     ; 0x13 <__rc3>
    6298: 68           	pla
    6299: 20 ba 37     	jsr	$37ba <opl3_shadow>
    629c: aa           	tax
    629d: f0 03        	beq	$62a2 <main+0x1c40>
    629f: 4c 64 64     	jmp	$6464 <main+0x1e02>
    62a2: a0 01        	ldy	#$1
    62a4: 84 7a        	sty	$7a                     ; 0x7a <comeRightTrough>
    62a6: a5 24        	lda	$24                     ; 0x24 <__rc20>
    62a8: 4c ee 5b     	jmp	$5bee <main+0x158c>
    62ab: 85 12        	sta	$12                     ; 0x12 <__rc2>
    62ad: 98           	tya
    62ae: 69 00        	adc	#$0
    62b0: 85 14        	sta	$14                     ; 0x14 <__rc4>
    62b2: a5 13        	lda	$13                     ; 0x13 <__rc3>
    62b4: 69 00        	adc	#$0
    62b6: 8e 77 8c     	stx	$8c77                   ; 0x8c77 <samplesSoFar>
    62b9: a6 12        	ldx	$12                     ; 0x12 <__rc2>
    62bb: 8e 78 8c     	stx	$8c78                   ; 0x8c78 <samplesSoFar+0x1>
    62be: a6 14        	ldx	$14                     ; 0x14 <__rc4>
    62c0: 8e 79 8c     	stx	$8c79                   ; 0x8c79 <samplesSoFar+0x2>
    62c3: 8d 7a 8c     	sta	$8c7a                   ; 0x8c7a <samplesSoFar+0x3>
    62c6: a9 00        	lda	#$0
    62c8: a0 01        	ldy	#$1
    62ca: 4c ee 5b     	jmp	$5bee <main+0x158c>
    62cd: a0 01        	ldy	#$1
    62cf: 4c b0 4d     	jmp	$4db0 <main+0x74e>
    62d2: 64 6a        	stz	$6a                     ; 0x6a <_col>
    62d4: 9c 14 d0     	stz	$d014                   ; 0xd014 <__heap_start+0x40fc>
    62d7: 9c 15 d0     	stz	$d015                   ; 0xd015 <__heap_start+0x40fd>
    62da: 64 6b        	stz	$6b                     ; 0x6b <_row>
    62dc: 9c 16 d0     	stz	$d016                   ; 0xd016 <__heap_start+0x40fe>
    62df: 9c 17 d0     	stz	$d017                   ; 0xd017 <__heap_start+0x40ff>
    62e2: a2 4d        	ldx	#$4d
    62e4: 86 2c        	stx	$2c                     ; 0x2c <__rc28>
    62e6: a2 89        	ldx	#$89
    62e8: 86 2d        	stx	$2d                     ; 0x2d <__rc29>
    62ea: a2 4d        	ldx	#$4d
    62ec: 86 12        	stx	$12                     ; 0x12 <__rc2>
    62ee: a2 89        	ldx	#$89
    62f0: 86 13        	stx	$13                     ; 0x13 <__rc3>
    62f2: 20 66 7f     	jsr	$7f66 <printf>
    62f5: 64 6a        	stz	$6a                     ; 0x6a <_col>
    62f7: 9c 14 d0     	stz	$d014                   ; 0xd014 <__heap_start+0x40fc>
    62fa: 9c 15 d0     	stz	$d015                   ; 0xd015 <__heap_start+0x40fd>
    62fd: a2 01        	ldx	#$1
    62ff: 86 6b        	stx	$6b                     ; 0x6b <_row>
    6301: 8e 16 d0     	stx	$d016                   ; 0xd016 <__heap_start+0x40fe>
    6304: 9c 17 d0     	stz	$d017                   ; 0xd017 <__heap_start+0x40ff>
    6307: a2 4d        	ldx	#$4d
    6309: 86 12        	stx	$12                     ; 0x12 <__rc2>
    630b: a2 89        	ldx	#$89
    630d: 86 13        	stx	$13                     ; 0x13 <__rc3>
    630f: 20 66 7f     	jsr	$7f66 <printf>
    6312: 64 6a        	stz	$6a                     ; 0x6a <_col>
    6314: 9c 14 d0     	stz	$d014                   ; 0xd014 <__heap_start+0x40fc>
    6317: 9c 15 d0     	stz	$d015                   ; 0xd015 <__heap_start+0x40fd>
    631a: a2 02        	ldx	#$2
    631c: 86 6b        	stx	$6b                     ; 0x6b <_row>
    631e: 8e 16 d0     	stx	$d016                   ; 0xd016 <__heap_start+0x40fe>
    6321: 9c 17 d0     	stz	$d017                   ; 0xd017 <__heap_start+0x40ff>
    6324: a2 4d        	ldx	#$4d
    6326: 86 12        	stx	$12                     ; 0x12 <__rc2>
    6328: a2 89        	ldx	#$89
    632a: 86 13        	stx	$13                     ; 0x13 <__rc3>
    632c: 20 66 7f     	jsr	$7f66 <printf>
    632f: 64 6a        	stz	$6a                     ; 0x6a <_col>
    6331: 9c 14 d0     	stz	$d014                   ; 0xd014 <__heap_start+0x40fc>
    6334: 9c 15 d0     	stz	$d015                   ; 0xd015 <__heap_start+0x40fd>
    6337: a2 03        	ldx	#$3
    6339: 86 6b        	stx	$6b                     ; 0x6b <_row>
    633b: 8e 16 d0     	stx	$d016                   ; 0xd016 <__heap_start+0x40fe>
    633e: 9c 17 d0     	stz	$d017                   ; 0xd017 <__heap_start+0x40ff>
    6341: a2 4d        	ldx	#$4d
    6343: 86 12        	stx	$12                     ; 0x12 <__rc2>
    6345: a2 89        	ldx	#$89
    6347: 86 13        	stx	$13                     ; 0x13 <__rc3>
    6349: 20 66 7f     	jsr	$7f66 <printf>
    634c: 64 6a        	stz	$6a                     ; 0x6a <_col>
    634e: 9c 14 d0     	stz	$d014                   ; 0xd014 <__heap_start+0x40fc>
    6351: 9c 15 d0     	stz	$d015                   ; 0xd015 <__heap_start+0x40fd>
    6354: a2 27        	ldx	#$27
    6356: 86 6b        	stx	$6b                     ; 0x6b <_row>
    6358: 8e 16 d0     	stx	$d016                   ; 0xd016 <__heap_start+0x40fe>
    635b: 9c 17 d0     	stz	$d017                   ; 0xd017 <__heap_start+0x40ff>
    635e: a2 4d        	ldx	#$4d
    6360: 86 12        	stx	$12                     ; 0x12 <__rc2>
    6362: a2 89        	ldx	#$89
    6364: 86 13        	stx	$13                     ; 0x13 <__rc3>
    6366: 20 66 7f     	jsr	$7f66 <printf>
    6369: a0 12        	ldy	#$12
    636b: b1 10        	lda	($10),y                 ; 0x10 <__rc0>
    636d: 29 01        	and	#$1
    636f: a0 01        	ldy	#$1
    6371: 48           	pha
    6372: 5a           	phy
    6373: a0 10        	ldy	#$10
    6375: b1 10        	lda	($10),y                 ; 0x10 <__rc0>
    6377: a0 12        	ldy	#$12
    6379: 91 10        	sta	($10),y                 ; 0x10 <__rc0>
    637b: 7a           	ply
    637c: 68           	pla
    637d: d0 03        	bne	$6382 <main+0x1d20>
    637f: 4c b0 4d     	jmp	$4db0 <main+0x74e>
    6382: a0 0c        	ldy	#$c
    6384: b1 10        	lda	($10),y                 ; 0x10 <__rc0>
    6386: 85 12        	sta	$12                     ; 0x12 <__rc2>
    6388: c8           	iny
    6389: b1 10        	lda	($10),y                 ; 0x10 <__rc0>
    638b: 85 13        	sta	$13                     ; 0x13 <__rc3>
    638d: 20 48 68     	jsr	$6848 <fileClose>
    6390: a2 00        	ldx	#$0
    6392: 86 12        	stx	$12                     ; 0x12 <__rc2>
    6394: a2 00        	ldx	#$0
    6396: 86 13        	stx	$13                     ; 0x13 <__rc3>
    6398: a5 12        	lda	$12                     ; 0x12 <__rc2>
    639a: a0 0c        	ldy	#$c
    639c: 91 10        	sta	($10),y                 ; 0x10 <__rc0>
    639e: a5 13        	lda	$13                     ; 0x13 <__rc3>
    63a0: c8           	iny
    63a1: 91 10        	sta	($10),y                 ; 0x10 <__rc0>
    63a3: a0 01        	ldy	#$1
    63a5: 5a           	phy
    63a6: a0 10        	ldy	#$10
    63a8: b1 10        	lda	($10),y                 ; 0x10 <__rc0>
    63aa: a0 12        	ldy	#$12
    63ac: 91 10        	sta	($10),y                 ; 0x10 <__rc0>
    63ae: 7a           	ply
    63af: 4c b0 4d     	jmp	$4db0 <main+0x74e>
    63b2: a6 11        	ldx	$11                     ; 0x11 <__rc1>
    63b4: 18           	clc
    63b5: a5 10        	lda	$10                     ; 0x10 <__rc0>
    63b7: 69 5c        	adc	#$5c
    63b9: 48           	pha
    63ba: a5 11        	lda	$11                     ; 0x11 <__rc1>
    63bc: 69 00        	adc	#$0
    63be: 85 14        	sta	$14                     ; 0x14 <__rc4>
    63c0: 68           	pla
    63c1: 92 10        	sta	($10)                   ; 0x10 <__rc0>
    63c3: a0 01        	ldy	#$1
    63c5: a5 14        	lda	$14                     ; 0x14 <__rc4>
    63c7: 91 10        	sta	($10),y                 ; 0x10 <__rc0>
    63c9: 84 14        	sty	$14                     ; 0x14 <__rc4>
    63cb: 18           	clc
    63cc: a5 10        	lda	$10                     ; 0x10 <__rc0>
    63ce: 69 02        	adc	#$2
    63d0: 85 12        	sta	$12                     ; 0x12 <__rc2>
    63d2: 8a           	txa
    63d3: 69 00        	adc	#$0
    63d5: 85 13        	sta	$13                     ; 0x13 <__rc3>
    63d7: 18           	clc
    63d8: a5 10        	lda	$10                     ; 0x10 <__rc0>
    63da: 69 9c        	adc	#$9c
    63dc: 48           	pha
    63dd: a5 11        	lda	$11                     ; 0x11 <__rc1>
    63df: 69 00        	adc	#$0
    63e1: 85 15        	sta	$15                     ; 0x15 <__rc5>
    63e3: 68           	pla
    63e4: c8           	iny
    63e5: 91 10        	sta	($10),y                 ; 0x10 <__rc0>
    63e7: a4 14        	ldy	$14                     ; 0x14 <__rc4>
    63e9: a5 15        	lda	$15                     ; 0x15 <__rc5>
    63eb: 91 12        	sta	($12),y                 ; 0x12 <__rc2>
    63ed: a2 99        	ldx	#$99
    63ef: 86 12        	stx	$12                     ; 0x12 <__rc2>
    63f1: a2 8e        	ldx	#$8e
    63f3: 86 13        	stx	$13                     ; 0x13 <__rc3>
    63f5: 20 f6 7f     	jsr	$7ff6 <sprintf>
    63f8: 4c bd 4e     	jmp	$4ebd <main+0x85b>
    63fb: a6 12        	ldx	$12                     ; 0x12 <__rc2>
    63fd: e4 14        	cpx	$14                     ; 0x14 <__rc4>
    63ff: f0 03        	beq	$6404 <main+0x1da2>
    6401: 4c a4 50     	jmp	$50a4 <main+0xa42>
    6404: a2 00        	ldx	#$0
    6406: 4c 0f 50     	jmp	$500f <main+0x9ad>
    6409: a4 0f        	ldy	$f                      ; 0xf <__data_size+0xf>
    640b: 78           	sei
    640c: a2 18        	ldx	#$18
    640e: 86 0f        	stx	$f                      ; 0xf <__data_size+0xf>
    6410: 86 12        	stx	$12                     ; 0x12 <__rc2>
    6412: ae 00 e0     	ldx	$e000                   ; 0xe000 <__heap_start+0x50e8>
    6415: 84 0f        	sty	$f                      ; 0xf <__data_size+0xf>
    6417: 58           	cli
    6418: a5 0f        	lda	$f                      ; 0xf <__data_size+0xf>
    641a: 78           	sei
    641b: a4 12        	ldy	$12                     ; 0x12 <__rc2>
    641d: 84 0f        	sty	$f                      ; 0xf <__data_size+0xf>
    641f: a4 12        	ldy	$12                     ; 0x12 <__rc2>
    6421: 84 25        	sty	$25                     ; 0x25 <__rc21>
    6423: ac 01 e0     	ldy	$e001                   ; 0xe001 <__heap_start+0x50e9>
    6426: 85 0f        	sta	$f                      ; 0xf <__data_size+0xf>
    6428: 58           	cli
    6429: 86 6a        	stx	$6a                     ; 0x6a <_col>
    642b: 8e 14 d0     	stx	$d014                   ; 0xd014 <__heap_start+0x40fc>
    642e: 64 24        	stz	$24                     ; 0x24 <__rc20>
    6430: 9c 15 d0     	stz	$d015                   ; 0xd015 <__heap_start+0x40fd>
    6433: 84 6b        	sty	$6b                     ; 0x6b <_row>
    6435: 8c 16 d0     	sty	$d016                   ; 0xd016 <__heap_start+0x40fe>
    6438: 9c 17 d0     	stz	$d017                   ; 0xd017 <__heap_start+0x40ff>
    643b: 20 46 26     	jsr	$2646 <wipeArea_far>
    643e: a6 25        	ldx	$25                     ; 0x25 <__rc21>
    6440: 86 14        	stx	$14                     ; 0x14 <__rc4>
    6442: 4c b4 4f     	jmp	$4fb4 <main+0x952>
    6445: a9 00        	lda	#$0
    6447: a0 3b        	ldy	#$3b
    6449: 91 12        	sta	($12),y                 ; 0x12 <__rc2>
    644b: 4c 90 50     	jmp	$5090 <main+0xa2e>
    644e: 20 ec 40     	jsr	$40ec <wipe_inst>
    6451: 64 12        	stz	$12                     ; 0x12 <__rc2>
    6453: a9 00        	lda	#$0
    6455: 4c 1a 62     	jmp	$621a <main+0x1bb8>
    6458: 20 7e 40     	jsr	$407e <axes_info>
    645b: 20 17 41     	jsr	$4117 <show_all_inst>
    645e: a2 01        	ldx	#$1
    6460: 8a           	txa
    6461: 4c 1a 62     	jmp	$621a <main+0x1bb8>
    6464: a2 fe        	ldx	#$fe
    6466: 86 24        	stx	$24                     ; 0x24 <__rc20>
    6468: 4c a2 62     	jmp	$62a2 <main+0x1c40>
    646b: a9 00        	lda	#$0
    646d: a0 3b        	ldy	#$3b
    646f: 91 28        	sta	($28),y                 ; 0x28 <__rc24>
    6471: a0 00        	ldy	#$0
    6473: 4c e3 4f     	jmp	$4fe3 <main+0x981>
    6476: e6 5f        	inc	$5f                     ; 0x5f <needle+0x1>
    6478: f0 03        	beq	$647d <main+0x1e1b>
    647a: 4c 5d 62     	jmp	$625d <main+0x1bfb>
    647d: 4c 31 67     	jmp	$6731 <main+0x20cf>
    6480: e6 5f        	inc	$5f                     ; 0x5f <needle+0x1>
    6482: f0 03        	beq	$6487 <main+0x1e25>
    6484: 4c 7a 62     	jmp	$627a <main+0x1c18>
    6487: 4c 3d 67     	jmp	$673d <main+0x20db>
    648a: a0 01        	ldy	#$1
    648c: 84 7a        	sty	$7a                     ; 0x7a <comeRightTrough>
    648e: 4c ee 5b     	jmp	$5bee <main+0x158c>
    6491: a6 5e        	ldx	$5e                     ; 0x5e <needle>
    6493: 86 14        	stx	$14                     ; 0x14 <__rc4>
    6495: a5 5f        	lda	$5f                     ; 0x5f <needle+0x1>
    6497: a4 60        	ldy	$60                     ; 0x60 <needle+0x2>
    6499: a6 61        	ldx	$61                     ; 0x61 <needle+0x3>
    649b: e6 5e        	inc	$5e                     ; 0x5e <needle>
    649d: d0 03        	bne	$64a2 <main+0x1e40>
    649f: 4c 49 67     	jmp	$6749 <main+0x20e7>
    64a2: 84 12        	sty	$12                     ; 0x12 <__rc2>
    64a4: 86 13        	stx	$13                     ; 0x13 <__rc3>
    64a6: aa           	tax
    64a7: a5 14        	lda	$14                     ; 0x14 <__rc4>
    64a9: 20 b5 05     	jsr	$5b5 <PEEK24>
    64ac: 85 24        	sta	$24                     ; 0x24 <__rc20>
    64ae: a6 5e        	ldx	$5e                     ; 0x5e <needle>
    64b0: 86 14        	stx	$14                     ; 0x14 <__rc4>
    64b2: a5 5f        	lda	$5f                     ; 0x5f <needle+0x1>
    64b4: a4 60        	ldy	$60                     ; 0x60 <needle+0x2>
    64b6: a6 61        	ldx	$61                     ; 0x61 <needle+0x3>
    64b8: e6 5e        	inc	$5e                     ; 0x5e <needle>
    64ba: d0 03        	bne	$64bf <main+0x1e5d>
    64bc: 4c 5c 67     	jmp	$675c <main+0x20fa>
    64bf: 84 12        	sty	$12                     ; 0x12 <__rc2>
    64c1: 86 13        	stx	$13                     ; 0x13 <__rc3>
    64c3: aa           	tax
    64c4: a5 14        	lda	$14                     ; 0x14 <__rc4>
    64c6: 20 b5 05     	jsr	$5b5 <PEEK24>
    64c9: aa           	tax
    64ca: a5 24        	lda	$24                     ; 0x24 <__rc20>
    64cc: 8d 82 d5     	sta	$d582                   ; 0xd582 <__heap_start+0x466a>
    64cf: 8e 81 d5     	stx	$d581                   ; 0xd581 <__heap_start+0x4669>
    64d2: a0 01        	ldy	#$1
    64d4: 84 12        	sty	$12                     ; 0x12 <__rc2>
    64d6: 48           	pha
    64d7: a0 11        	ldy	#$11
    64d9: b1 10        	lda	($10),y                 ; 0x10 <__rc0>
    64db: 85 13        	sta	$13                     ; 0x13 <__rc3>
    64dd: 68           	pla
    64de: 20 ba 37     	jsr	$37ba <opl3_shadow>
    64e1: aa           	tax
    64e2: d0 03        	bne	$64e7 <main+0x1e85>
    64e4: 4c 30 68     	jmp	$6830 <main+0x21ce>
    64e7: 4c 14 67     	jmp	$6714 <main+0x20b2>
    64ea: a6 5e        	ldx	$5e                     ; 0x5e <needle>
    64ec: 86 14        	stx	$14                     ; 0x14 <__rc4>
    64ee: a5 5f        	lda	$5f                     ; 0x5f <needle+0x1>
    64f0: a4 60        	ldy	$60                     ; 0x60 <needle+0x2>
    64f2: a6 61        	ldx	$61                     ; 0x61 <needle+0x3>
    64f4: e6 5e        	inc	$5e                     ; 0x5e <needle>
    64f6: d0 03        	bne	$64fb <main+0x1e99>
    64f8: 4c 6f 67     	jmp	$676f <main+0x210d>
    64fb: 84 12        	sty	$12                     ; 0x12 <__rc2>
    64fd: 86 13        	stx	$13                     ; 0x13 <__rc3>
    64ff: aa           	tax
    6500: a5 14        	lda	$14                     ; 0x14 <__rc4>
    6502: 20 b5 05     	jsr	$5b5 <PEEK24>
    6505: 85 24        	sta	$24                     ; 0x24 <__rc20>
    6507: a6 5e        	ldx	$5e                     ; 0x5e <needle>
    6509: 86 14        	stx	$14                     ; 0x14 <__rc4>
    650b: a5 5f        	lda	$5f                     ; 0x5f <needle+0x1>
    650d: a4 60        	ldy	$60                     ; 0x60 <needle+0x2>
    650f: a6 61        	ldx	$61                     ; 0x61 <needle+0x3>
    6511: e6 5e        	inc	$5e                     ; 0x5e <needle>
    6513: d0 03        	bne	$6518 <main+0x1eb6>
    6515: 4c 82 67     	jmp	$6782 <main+0x2120>
    6518: 84 12        	sty	$12                     ; 0x12 <__rc2>
    651a: 86 13        	stx	$13                     ; 0x13 <__rc3>
    651c: aa           	tax
    651d: a5 14        	lda	$14                     ; 0x14 <__rc4>
    651f: 20 b5 05     	jsr	$5b5 <PEEK24>
    6522: 85 26        	sta	$26                     ; 0x26 <__rc22>
    6524: a5 24        	lda	$24                     ; 0x24 <__rc20>
    6526: 18           	clc
    6527: 6d 77 8c     	adc	$8c77                   ; 0x8c77 <samplesSoFar>
    652a: a8           	tay
    652b: a5 26        	lda	$26                     ; 0x26 <__rc22>
    652d: 6d 78 8c     	adc	$8c78                   ; 0x8c78 <samplesSoFar+0x1>
    6530: 85 13        	sta	$13                     ; 0x13 <__rc3>
    6532: a9 00        	lda	#$0
    6534: 6d 79 8c     	adc	$8c79                   ; 0x8c79 <samplesSoFar+0x2>
    6537: aa           	tax
    6538: a9 00        	lda	#$0
    653a: 6d 7a 8c     	adc	$8c7a                   ; 0x8c7a <samplesSoFar+0x3>
    653d: 8c 77 8c     	sty	$8c77                   ; 0x8c77 <samplesSoFar>
    6540: a4 13        	ldy	$13                     ; 0x13 <__rc3>
    6542: 8c 78 8c     	sty	$8c78                   ; 0x8c78 <samplesSoFar+0x1>
    6545: 8e 79 8c     	stx	$8c79                   ; 0x8c79 <samplesSoFar+0x2>
    6548: 8d 7a 8c     	sta	$8c7a                   ; 0x8c7a <samplesSoFar+0x3>
    654b: 64 12        	stz	$12                     ; 0x12 <__rc2>
    654d: 64 13        	stz	$13                     ; 0x13 <__rc3>
    654f: a2 3a        	ldx	#$3a
    6551: 86 14        	stx	$14                     ; 0x14 <__rc4>
    6553: a2 02        	ldx	#$2
    6555: 86 15        	stx	$15                     ; 0x15 <__rc5>
    6557: 86 27        	stx	$27                     ; 0x27 <__rc23>
    6559: 64 16        	stz	$16                     ; 0x16 <__rc6>
    655b: 64 17        	stz	$17                     ; 0x17 <__rc7>
    655d: a6 26        	ldx	$26                     ; 0x26 <__rc22>
    655f: a5 24        	lda	$24                     ; 0x24 <__rc20>
    6561: 20 9c 84     	jsr	$849c <__mulsi3>
    6564: a8           	tay
    6565: 8a           	txa
    6566: a6 12        	ldx	$12                     ; 0x12 <__rc2>
    6568: 84 15        	sty	$15                     ; 0x15 <__rc5>
    656a: 8c 66 8c     	sty	$8c66                   ; 0x8c66 <tooBigWait>
    656d: 85 14        	sta	$14                     ; 0x14 <__rc4>
    656f: 8d 67 8c     	sta	$8c67                   ; 0x8c67 <tooBigWait+0x1>
    6572: a5 12        	lda	$12                     ; 0x12 <__rc2>
    6574: 8e 68 8c     	stx	$8c68                   ; 0x8c68 <tooBigWait+0x2>
    6577: a6 13        	ldx	$13                     ; 0x13 <__rc3>
    6579: 8e 69 8c     	stx	$8c69                   ; 0x8c69 <tooBigWait+0x3>
    657c: a6 27        	ldx	$27                     ; 0x27 <__rc23>
    657e: 8e 50 d6     	stx	$d650                   ; 0xd650 <__heap_start+0x4738>
    6581: a4 26        	ldy	$26                     ; 0x26 <__rc22>
    6583: c0 72        	cpy	#$72
    6585: f0 03        	beq	$658a <main+0x1f28>
    6587: 4c c4 67     	jmp	$67c4 <main+0x2162>
    658a: 4c 95 67     	jmp	$6795 <main+0x2133>
    658d: a5 5e        	lda	$5e                     ; 0x5e <needle>
    658f: a6 5f        	ldx	$5f                     ; 0x5f <needle+0x1>
    6591: 86 15        	stx	$15                     ; 0x15 <__rc5>
    6593: a6 60        	ldx	$60                     ; 0x60 <needle+0x2>
    6595: 86 16        	stx	$16                     ; 0x16 <__rc6>
    6597: a6 61        	ldx	$61                     ; 0x61 <needle+0x3>
    6599: 86 13        	stx	$13                     ; 0x13 <__rc3>
    659b: 18           	clc
    659c: 69 02        	adc	#$2
    659e: 85 14        	sta	$14                     ; 0x14 <__rc4>
    65a0: a5 15        	lda	$15                     ; 0x15 <__rc5>
    65a2: 69 00        	adc	#$0
    65a4: aa           	tax
    65a5: a5 16        	lda	$16                     ; 0x16 <__rc6>
    65a7: 69 00        	adc	#$0
    65a9: a8           	tay
    65aa: a5 13        	lda	$13                     ; 0x13 <__rc3>
    65ac: 69 00        	adc	#$0
    65ae: 85 13        	sta	$13                     ; 0x13 <__rc3>
    65b0: a5 14        	lda	$14                     ; 0x14 <__rc4>
    65b2: 85 5e        	sta	$5e                     ; 0x5e <needle>
    65b4: 86 5f        	stx	$5f                     ; 0x5f <needle+0x1>
    65b6: 98           	tya
    65b7: 84 60        	sty	$60                     ; 0x60 <needle+0x2>
    65b9: a4 13        	ldy	$13                     ; 0x13 <__rc3>
    65bb: 84 61        	sty	$61                     ; 0x61 <needle+0x3>
    65bd: 85 12        	sta	$12                     ; 0x12 <__rc2>
    65bf: a5 14        	lda	$14                     ; 0x14 <__rc4>
    65c1: 20 b5 05     	jsr	$5b5 <PEEK24>
    65c4: a5 5e        	lda	$5e                     ; 0x5e <needle>
    65c6: a6 5f        	ldx	$5f                     ; 0x5f <needle+0x1>
    65c8: a4 60        	ldy	$60                     ; 0x60 <needle+0x2>
    65ca: 84 12        	sty	$12                     ; 0x12 <__rc2>
    65cc: a4 61        	ldy	$61                     ; 0x61 <needle+0x3>
    65ce: 1a           	inc
    65cf: d0 03        	bne	$65d4 <main+0x1f72>
    65d1: 4c 1f 68     	jmp	$681f <main+0x21bd>
    65d4: 84 13        	sty	$13                     ; 0x13 <__rc3>
    65d6: 20 b5 05     	jsr	$5b5 <PEEK24>
    65d9: a5 5e        	lda	$5e                     ; 0x5e <needle>
    65db: a6 5f        	ldx	$5f                     ; 0x5f <needle+0x1>
    65dd: a4 60        	ldy	$60                     ; 0x60 <needle+0x2>
    65df: 84 13        	sty	$13                     ; 0x13 <__rc3>
    65e1: a4 61        	ldy	$61                     ; 0x61 <needle+0x3>
    65e3: 18           	clc
    65e4: 69 02        	adc	#$2
    65e6: 85 14        	sta	$14                     ; 0x14 <__rc4>
    65e8: 8a           	txa
    65e9: 69 00        	adc	#$0
    65eb: aa           	tax
    65ec: a5 13        	lda	$13                     ; 0x13 <__rc3>
    65ee: 69 00        	adc	#$0
    65f0: 85 12        	sta	$12                     ; 0x12 <__rc2>
    65f2: 98           	tya
    65f3: 69 00        	adc	#$0
    65f5: 85 13        	sta	$13                     ; 0x13 <__rc3>
    65f7: a5 14        	lda	$14                     ; 0x14 <__rc4>
    65f9: 20 b5 05     	jsr	$5b5 <PEEK24>
    65fc: a5 5e        	lda	$5e                     ; 0x5e <needle>
    65fe: a6 5f        	ldx	$5f                     ; 0x5f <needle+0x1>
    6600: a4 60        	ldy	$60                     ; 0x60 <needle+0x2>
    6602: 84 13        	sty	$13                     ; 0x13 <__rc3>
    6604: a4 61        	ldy	$61                     ; 0x61 <needle+0x3>
    6606: 18           	clc
    6607: 69 03        	adc	#$3
    6609: 85 14        	sta	$14                     ; 0x14 <__rc4>
    660b: 8a           	txa
    660c: 69 00        	adc	#$0
    660e: aa           	tax
    660f: a5 13        	lda	$13                     ; 0x13 <__rc3>
    6611: 69 00        	adc	#$0
    6613: 85 12        	sta	$12                     ; 0x12 <__rc2>
    6615: 98           	tya
    6616: 69 00        	adc	#$0
    6618: 85 13        	sta	$13                     ; 0x13 <__rc3>
    661a: a5 14        	lda	$14                     ; 0x14 <__rc4>
    661c: 20 b5 05     	jsr	$5b5 <PEEK24>
    661f: 4c c6 62     	jmp	$62c6 <main+0x1c64>
    6622: a0 02        	ldy	#$2
    6624: 8c 50 d6     	sty	$d650                   ; 0xd650 <__heap_start+0x4738>
    6627: a2 66        	ldx	#$66
    6629: 8e 55 d6     	stx	$d655                   ; 0xd655 <__heap_start+0x473d>
    662c: 8e 56 d6     	stx	$d656                   ; 0xd656 <__heap_start+0x473e>
    662f: a2 06        	ldx	#$6
    6631: 8e 57 d6     	stx	$d657                   ; 0xd657 <__heap_start+0x473f>
    6634: 9c 54 d6     	stz	$d654                   ; 0xd654 <__heap_start+0x473c>
    6637: 8c 50 d6     	sty	$d650                   ; 0xd650 <__heap_start+0x4738>
    663a: a2 89        	ldx	#$89
    663c: 8e 50 d6     	stx	$d650                   ; 0xd650 <__heap_start+0x4738>
    663f: ad 77 8c     	lda	$8c77                   ; 0x8c77 <samplesSoFar>
    6642: ae 78 8c     	ldx	$8c78                   ; 0x8c78 <samplesSoFar+0x1>
    6645: 86 12        	stx	$12                     ; 0x12 <__rc2>
    6647: ac 79 8c     	ldy	$8c79                   ; 0x8c79 <samplesSoFar+0x2>
    664a: ae 7a 8c     	ldx	$8c7a                   ; 0x8c7a <samplesSoFar+0x3>
    664d: 86 13        	stx	$13                     ; 0x13 <__rc3>
    664f: 18           	clc
    6650: 69 df        	adc	#$df
    6652: aa           	tax
    6653: a5 12        	lda	$12                     ; 0x12 <__rc2>
    6655: 69 02        	adc	#$2
    6657: 4c ab 62     	jmp	$62ab <main+0x1c49>
    665a: a0 02        	ldy	#$2
    665c: 8c 50 d6     	sty	$d650                   ; 0xd650 <__heap_start+0x4738>
    665f: a2 15        	ldx	#$15
    6661: 8e 55 d6     	stx	$d655                   ; 0xd655 <__heap_start+0x473d>
    6664: a2 ae        	ldx	#$ae
    6666: 8e 56 d6     	stx	$d656                   ; 0xd656 <__heap_start+0x473e>
    6669: a2 07        	ldx	#$7
    666b: 8e 57 d6     	stx	$d657                   ; 0xd657 <__heap_start+0x473f>
    666e: 9c 54 d6     	stz	$d654                   ; 0xd654 <__heap_start+0x473c>
    6671: 8c 50 d6     	sty	$d650                   ; 0xd650 <__heap_start+0x4738>
    6674: a2 89        	ldx	#$89
    6676: 8e 50 d6     	stx	$d650                   ; 0xd650 <__heap_start+0x4738>
    6679: ad 77 8c     	lda	$8c77                   ; 0x8c77 <samplesSoFar>
    667c: ae 78 8c     	ldx	$8c78                   ; 0x8c78 <samplesSoFar+0x1>
    667f: 86 12        	stx	$12                     ; 0x12 <__rc2>
    6681: ac 79 8c     	ldy	$8c79                   ; 0x8c79 <samplesSoFar+0x2>
    6684: ae 7a 8c     	ldx	$8c7a                   ; 0x8c7a <samplesSoFar+0x3>
    6687: 86 13        	stx	$13                     ; 0x13 <__rc3>
    6689: 18           	clc
    668a: 69 72        	adc	#$72
    668c: aa           	tax
    668d: a5 12        	lda	$12                     ; 0x12 <__rc2>
    668f: 69 03        	adc	#$3
    6691: 4c ab 62     	jmp	$62ab <main+0x1c49>
    6694: 20 db 2b     	jsr	$2bdb <opl3_quietAll>
    6697: a0 12        	ldy	#$12
    6699: b1 10        	lda	($10),y                 ; 0x10 <__rc0>
    669b: 29 01        	and	#$1
    669d: f0 0e        	beq	$66ad <main+0x204b>
    669f: a0 0c        	ldy	#$c
    66a1: b1 10        	lda	($10),y                 ; 0x10 <__rc0>
    66a3: 85 12        	sta	$12                     ; 0x12 <__rc2>
    66a5: c8           	iny
    66a6: b1 10        	lda	($10),y                 ; 0x10 <__rc0>
    66a8: 85 13        	sta	$13                     ; 0x13 <__rc3>
    66aa: 20 48 68     	jsr	$6848 <fileClose>
    66ad: 20 83 2b     	jsr	$2b83 <opl3_initialize>
    66b0: 78           	sei
    66b1: a2 07        	ldx	#$7
    66b3: 86 0f        	stx	$f                      ; 0xf <__data_size+0xf>
    66b5: a2 de        	ldx	#$de
    66b7: 8e a2 d6     	stx	$d6a2                   ; 0xd6a2 <__heap_start+0x478a>
    66ba: a2 ad        	ldx	#$ad
    66bc: 8e a3 d6     	stx	$d6a3                   ; 0xd6a3 <__heap_start+0x478b>
    66bf: a2 f0        	ldx	#$f0
    66c1: 8e a0 d6     	stx	$d6a0                   ; 0xd6a0 <__heap_start+0x4788>
    66c4: 9c a0 d6     	stz	$d6a0                   ; 0xd6a0 <__heap_start+0x4788>
    66c7: 6c fc ff     	jmp	($fffc)                 ; 0xfffc <__heap_start+0x70e4>
    66ca: a2 00        	ldx	#$0
    66cc: 8a           	txa
    66cd: 85 20        	sta	$20                     ; 0x20 <__rc16>
    66cf: a0 04        	ldy	#$4
    66d1: b1 10        	lda	($10),y                 ; 0x10 <__rc0>
    66d3: 85 2f        	sta	$2f                     ; 0x2f <__rc31>
    66d5: c8           	iny
    66d6: b1 10        	lda	($10),y                 ; 0x10 <__rc0>
    66d8: 85 2e        	sta	$2e                     ; 0x2e <__rc30>
    66da: c8           	iny
    66db: b1 10        	lda	($10),y                 ; 0x10 <__rc0>
    66dd: 85 2d        	sta	$2d                     ; 0x2d <__rc29>
    66df: c8           	iny
    66e0: b1 10        	lda	($10),y                 ; 0x10 <__rc0>
    66e2: 85 2c        	sta	$2c                     ; 0x2c <__rc28>
    66e4: c8           	iny
    66e5: b1 10        	lda	($10),y                 ; 0x10 <__rc0>
    66e7: 85 2b        	sta	$2b                     ; 0x2b <__rc27>
    66e9: c8           	iny
    66ea: b1 10        	lda	($10),y                 ; 0x10 <__rc0>
    66ec: 85 2a        	sta	$2a                     ; 0x2a <__rc26>
    66ee: c8           	iny
    66ef: b1 10        	lda	($10),y                 ; 0x10 <__rc0>
    66f1: 85 29        	sta	$29                     ; 0x29 <__rc25>
    66f3: c8           	iny
    66f4: b1 10        	lda	($10),y                 ; 0x10 <__rc0>
    66f6: 85 28        	sta	$28                     ; 0x28 <__rc24>
    66f8: 7a           	ply
    66f9: 84 27        	sty	$27                     ; 0x27 <__rc23>
    66fb: 7a           	ply
    66fc: 84 26        	sty	$26                     ; 0x26 <__rc22>
    66fe: 7a           	ply
    66ff: 84 25        	sty	$25                     ; 0x25 <__rc21>
    6701: 7a           	ply
    6702: 84 24        	sty	$24                     ; 0x24 <__rc20>
    6704: 18           	clc
    6705: a5 10        	lda	$10                     ; 0x10 <__rc0>
    6707: 69 50        	adc	#$50
    6709: 85 10        	sta	$10                     ; 0x10 <__rc0>
    670b: a5 11        	lda	$11                     ; 0x11 <__rc1>
    670d: 69 01        	adc	#$1
    670f: 85 11        	sta	$11                     ; 0x11 <__rc1>
    6711: a5 20        	lda	$20                     ; 0x20 <__rc16>
    6713: 60           	rts
    6714: a9 fe        	lda	#$fe
    6716: 4c 8a 64     	jmp	$648a <main+0x1e28>
    6719: e6 16        	inc	$16                     ; 0x16 <__rc6>
    671b: c6 16        	dec	$16                     ; 0x16 <__rc6>
    671d: f0 03        	beq	$6722 <main+0x20c0>
    671f: 4c bc 57     	jmp	$57bc <main+0x115a>
    6722: 4c 00 58     	jmp	$5800 <main+0x119e>
    6725: e6 16        	inc	$16                     ; 0x16 <__rc6>
    6727: c6 16        	dec	$16                     ; 0x16 <__rc6>
    6729: f0 03        	beq	$672e <main+0x20cc>
    672b: 4c 1b 58     	jmp	$581b <main+0x11b9>
    672e: 4c 5c 58     	jmp	$585c <main+0x11fa>
    6731: e6 60        	inc	$60                     ; 0x60 <needle+0x2>
    6733: f0 03        	beq	$6738 <main+0x20d6>
    6735: 4c 5d 62     	jmp	$625d <main+0x1bfb>
    6738: e6 61        	inc	$61                     ; 0x61 <needle+0x3>
    673a: 4c 5d 62     	jmp	$625d <main+0x1bfb>
    673d: e6 60        	inc	$60                     ; 0x60 <needle+0x2>
    673f: f0 03        	beq	$6744 <main+0x20e2>
    6741: 4c 7a 62     	jmp	$627a <main+0x1c18>
    6744: e6 61        	inc	$61                     ; 0x61 <needle+0x3>
    6746: 4c 7a 62     	jmp	$627a <main+0x1c18>
    6749: e6 5f        	inc	$5f                     ; 0x5f <needle+0x1>
    674b: f0 03        	beq	$6750 <main+0x20ee>
    674d: 4c a2 64     	jmp	$64a2 <main+0x1e40>
    6750: e6 60        	inc	$60                     ; 0x60 <needle+0x2>
    6752: f0 03        	beq	$6757 <main+0x20f5>
    6754: 4c a2 64     	jmp	$64a2 <main+0x1e40>
    6757: e6 61        	inc	$61                     ; 0x61 <needle+0x3>
    6759: 4c a2 64     	jmp	$64a2 <main+0x1e40>
    675c: e6 5f        	inc	$5f                     ; 0x5f <needle+0x1>
    675e: f0 03        	beq	$6763 <main+0x2101>
    6760: 4c bf 64     	jmp	$64bf <main+0x1e5d>
    6763: e6 60        	inc	$60                     ; 0x60 <needle+0x2>
    6765: f0 03        	beq	$676a <main+0x2108>
    6767: 4c bf 64     	jmp	$64bf <main+0x1e5d>
    676a: e6 61        	inc	$61                     ; 0x61 <needle+0x3>
    676c: 4c bf 64     	jmp	$64bf <main+0x1e5d>
    676f: e6 5f        	inc	$5f                     ; 0x5f <needle+0x1>
    6771: f0 03        	beq	$6776 <main+0x2114>
    6773: 4c fb 64     	jmp	$64fb <main+0x1e99>
    6776: e6 60        	inc	$60                     ; 0x60 <needle+0x2>
    6778: f0 03        	beq	$677d <main+0x211b>
    677a: 4c fb 64     	jmp	$64fb <main+0x1e99>
    677d: e6 61        	inc	$61                     ; 0x61 <needle+0x3>
    677f: 4c fb 64     	jmp	$64fb <main+0x1e99>
    6782: e6 5f        	inc	$5f                     ; 0x5f <needle+0x1>
    6784: f0 03        	beq	$6789 <main+0x2127>
    6786: 4c 18 65     	jmp	$6518 <main+0x1eb6>
    6789: e6 60        	inc	$60                     ; 0x60 <needle+0x2>
    678b: f0 03        	beq	$6790 <main+0x212e>
    678d: 4c 18 65     	jmp	$6518 <main+0x1eb6>
    6790: e6 61        	inc	$61                     ; 0x61 <needle+0x3>
    6792: 4c 18 65     	jmp	$6518 <main+0x1eb6>
    6795: a4 24        	ldy	$24                     ; 0x24 <__rc20>
    6797: c0 fa        	cpy	#$fa
    6799: b0 2d        	bcs	$67c8 <main+0x2166>
    679b: a6 15        	ldx	$15                     ; 0x15 <__rc5>
    679d: 8e 55 d6     	stx	$d655                   ; 0xd655 <__heap_start+0x473d>
    67a0: a6 14        	ldx	$14                     ; 0x14 <__rc4>
    67a2: 8e 56 d6     	stx	$d656                   ; 0xd656 <__heap_start+0x473e>
    67a5: 8d 57 d6     	sta	$d657                   ; 0xd657 <__heap_start+0x473f>
    67a8: 9c 54 d6     	stz	$d654                   ; 0xd654 <__heap_start+0x473c>
    67ab: a0 02        	ldy	#$2
    67ad: 8c 50 d6     	sty	$d650                   ; 0xd650 <__heap_start+0x4738>
    67b0: a2 89        	ldx	#$89
    67b2: 8e 50 d6     	stx	$d650                   ; 0xd650 <__heap_start+0x4738>
    67b5: 9c 66 8c     	stz	$8c66                   ; 0x8c66 <tooBigWait>
    67b8: 9c 67 8c     	stz	$8c67                   ; 0x8c67 <tooBigWait+0x1>
    67bb: 9c 68 8c     	stz	$8c68                   ; 0x8c68 <tooBigWait+0x2>
    67be: 9c 69 8c     	stz	$8c69                   ; 0x8c69 <tooBigWait+0x3>
    67c1: 4c c6 62     	jmp	$62c6 <main+0x1c64>
    67c4: c0 72        	cpy	#$72
    67c6: 90 d3        	bcc	$679b <main+0x2139>
    67c8: a0 01        	ldy	#$1
    67ca: a2 ff        	ldx	#$ff
    67cc: 8e 55 d6     	stx	$d655                   ; 0xd655 <__heap_start+0x473d>
    67cf: 8e 56 d6     	stx	$d656                   ; 0xd656 <__heap_start+0x473e>
    67d2: 8e 57 d6     	stx	$d657                   ; 0xd657 <__heap_start+0x473f>
    67d5: 9c 54 d6     	stz	$d654                   ; 0xd654 <__heap_start+0x473c>
    67d8: a9 02        	lda	#$2
    67da: 8d 50 d6     	sta	$d650                   ; 0xd650 <__heap_start+0x4738>
    67dd: a2 89        	ldx	#$89
    67df: 8e 50 d6     	stx	$d650                   ; 0xd650 <__heap_start+0x4738>
    67e2: ae 66 8c     	ldx	$8c66                   ; 0x8c66 <tooBigWait>
    67e5: 86 14        	stx	$14                     ; 0x14 <__rc4>
    67e7: ae 67 8c     	ldx	$8c67                   ; 0x8c67 <tooBigWait+0x1>
    67ea: 86 12        	stx	$12                     ; 0x12 <__rc2>
    67ec: ae 68 8c     	ldx	$8c68                   ; 0x8c68 <tooBigWait+0x2>
    67ef: ad 69 8c     	lda	$8c69                   ; 0x8c69 <tooBigWait+0x3>
    67f2: 85 13        	sta	$13                     ; 0x13 <__rc3>
    67f4: 18           	clc
    67f5: a5 14        	lda	$14                     ; 0x14 <__rc4>
    67f7: 69 01        	adc	#$1
    67f9: 85 15        	sta	$15                     ; 0x15 <__rc5>
    67fb: a5 12        	lda	$12                     ; 0x12 <__rc2>
    67fd: 69 00        	adc	#$0
    67ff: 85 12        	sta	$12                     ; 0x12 <__rc2>
    6801: 8a           	txa
    6802: 69 00        	adc	#$0
    6804: 85 14        	sta	$14                     ; 0x14 <__rc4>
    6806: a5 13        	lda	$13                     ; 0x13 <__rc3>
    6808: 69 ff        	adc	#$ff
    680a: a6 15        	ldx	$15                     ; 0x15 <__rc5>
    680c: 8e 66 8c     	stx	$8c66                   ; 0x8c66 <tooBigWait>
    680f: a6 12        	ldx	$12                     ; 0x12 <__rc2>
    6811: 8e 67 8c     	stx	$8c67                   ; 0x8c67 <tooBigWait+0x1>
    6814: a6 14        	ldx	$14                     ; 0x14 <__rc4>
    6816: 8e 68 8c     	stx	$8c68                   ; 0x8c68 <tooBigWait+0x2>
    6819: 8d 69 8c     	sta	$8c69                   ; 0x8c69 <tooBigWait+0x3>
    681c: 4c ec 5b     	jmp	$5bec <main+0x158a>
    681f: e8           	inx
    6820: f0 03        	beq	$6825 <main+0x21c3>
    6822: 4c d4 65     	jmp	$65d4 <main+0x1f72>
    6825: e6 12        	inc	$12                     ; 0x12 <__rc2>
    6827: f0 03        	beq	$682c <main+0x21ca>
    6829: 4c d4 65     	jmp	$65d4 <main+0x1f72>
    682c: c8           	iny
    682d: 4c d4 65     	jmp	$65d4 <main+0x1f72>
    6830: a9 00        	lda	#$0
    6832: 4c 8a 64     	jmp	$648a <main+0x1e28>
    6835: c9 00        	cmp	#$0
    6837: f0 03        	beq	$683c <main+0x21da>
    6839: 4c 97 5a     	jmp	$5a97 <main+0x1435>
    683c: e6 14        	inc	$14                     ; 0x14 <__rc4>
    683e: c6 14        	dec	$14                     ; 0x14 <__rc4>
    6840: d0 03        	bne	$6845 <main+0x21e3>
    6842: 4c cd 62     	jmp	$62cd <main+0x1c6b>
    6845: 4c 97 5a     	jmp	$5a97 <main+0x1435>

00006848 <fileClose>:
    6848: a6 12        	ldx	$12                     ; 0x12 <__rc2>
    684a: 86 14        	stx	$14                     ; 0x14 <__rc4>
    684c: a6 13        	ldx	$13                     ; 0x13 <__rc3>
    684e: 86 15        	stx	$15                     ; 0x15 <__rc5>
    6850: a2 00        	ldx	#$0
    6852: a0 10        	ldy	#$10
    6854: a9 18        	lda	#$18
    6856: 86 12        	stx	$12                     ; 0x12 <__rc2>
    6858: 84 13        	sty	$13                     ; 0x13 <__rc3>
    685a: 18           	clc
    685b: 65 12        	adc	$12                     ; 0x12 <__rc2>
    685d: a2 00        	ldx	#$0
    685f: 86 1a        	stx	$1a                     ; 0x1a <__rc10>
    6861: 85 16        	sta	$16                     ; 0x16 <__rc6>
    6863: a9 8f        	lda	#$8f
    6865: 65 13        	adc	$13                     ; 0x13 <__rc3>
    6867: 85 17        	sta	$17                     ; 0x17 <__rc7>
    6869: b2 14        	lda	($14)                   ; 0x14 <__rc4>
    686b: 85 f3        	sta	$f3                     ; 0xf3 <__zp_bss_size+0xc3>
    686d: a2 80        	ldx	#$80
    686f: a0 00        	ldy	#$0
    6871: 86 12        	stx	$12                     ; 0x12 <__rc2>
    6873: 84 13        	sty	$13                     ; 0x13 <__rc3>
    6875: a2 69        	ldx	#$69
    6877: 86 18        	stx	$18                     ; 0x18 <__rc8>
    6879: a2 00        	ldx	#$0
    687b: 86 19        	stx	$19                     ; 0x19 <__rc9>
    687d: a5 14        	lda	$14                     ; 0x14 <__rc4>
    687f: 18           	clc
    6880: 69 fe        	adc	#$fe
    6882: 85 1b        	sta	$1b                     ; 0x1b <__zp_data_size>
    6884: a5 15        	lda	$15                     ; 0x15 <__rc5>
    6886: 69 ff        	adc	#$ff
    6888: a6 1b        	ldx	$1b                     ; 0x1b <__zp_data_size>
    688a: 86 7b        	stx	$7b                     ; 0x7b <__zp_bss_size+0x4b>
    688c: aa           	tax
    688d: 85 7c        	sta	$7c                     ; 0x7c <__zp_bss_size+0x4c>
    688f: 20 68 ff     	jsr	$ff68 <__heap_start+0x7050>
    6892: 92 12        	sta	($12)                   ; 0x12 <__rc2>
    6894: a9 00        	lda	#$0
    6896: 6a           	ror
    6897: 85 18        	sta	$18                     ; 0x18 <__rc8>
    6899: b2 7b        	lda	($7b)                   ; 0x7b <__zp_bss_size+0x4b>
    689b: 85 18        	sta	$18                     ; 0x18 <__rc8>
    689d: a0 01        	ldy	#$1
    689f: b1 7b        	lda	($7b),y                 ; 0x7b <__zp_bss_size+0x4b>
    68a1: 85 7d        	sta	$7d                     ; 0x7d <__zp_bss_size+0x4d>
    68a3: a9 fe        	lda	#$fe
    68a5: 32 7b        	and	($7b)                   ; 0x7b <__zp_bss_size+0x4b>
    68a7: 85 7e        	sta	$7e                     ; 0x7e <__zp_bss_size+0x4e>
    68a9: a4 1b        	ldy	$1b                     ; 0x1b <__zp_data_size>
    68ab: 84 19        	sty	$19                     ; 0x19 <__rc9>
    68ad: a5 1b        	lda	$1b                     ; 0x1b <__zp_data_size>
    68af: a4 1a        	ldy	$1a                     ; 0x1a <__rc10>
    68b1: c0 01        	cpy	#$1
    68b3: 65 7e        	adc	$7e                     ; 0x7e <__zp_bss_size+0x4e>
    68b5: 85 12        	sta	$12                     ; 0x12 <__rc2>
    68b7: 8a           	txa
    68b8: 86 1a        	stx	$1a                     ; 0x1a <__rc10>
    68ba: 65 7d        	adc	$7d                     ; 0x7d <__zp_bss_size+0x4d>
    68bc: c5 17        	cmp	$17                     ; 0x17 <__rc7>
    68be: d0 10        	bne	$68d0 <fileClose+0x88>
    68c0: a6 12        	ldx	$12                     ; 0x12 <__rc2>
    68c2: e4 16        	cpx	$16                     ; 0x16 <__rc6>
    68c4: d0 0a        	bne	$68d0 <fileClose+0x88>
    68c6: a2 00        	ldx	#$0
    68c8: 86 12        	stx	$12                     ; 0x12 <__rc2>
    68ca: a2 00        	ldx	#$0
    68cc: 86 13        	stx	$13                     ; 0x13 <__rc3>
    68ce: 80 02        	bra	$68d2 <fileClose+0x8a>
    68d0: 85 13        	sta	$13                     ; 0x13 <__rc3>
    68d2: a5 18        	lda	$18                     ; 0x18 <__rc8>
    68d4: 29 01        	and	#$1
    68d6: d0 03        	bne	$68db <fileClose+0x93>
    68d8: 4c 56 69     	jmp	$6956 <fileClose+0x10e>
    68db: a5 14        	lda	$14                     ; 0x14 <__rc4>
    68dd: 18           	clc
    68de: 69 fc        	adc	#$fc
    68e0: 85 14        	sta	$14                     ; 0x14 <__rc4>
    68e2: a5 15        	lda	$15                     ; 0x15 <__rc5>
    68e4: 69 ff        	adc	#$ff
    68e6: 85 15        	sta	$15                     ; 0x15 <__rc5>
    68e8: a0 01        	ldy	#$1
    68ea: 38           	sec
    68eb: a9 00        	lda	#$0
    68ed: f2 14        	sbc	($14)                   ; 0x14 <__rc4>
    68ef: 85 18        	sta	$18                     ; 0x18 <__rc8>
    68f1: a9 00        	lda	#$0
    68f3: f1 14        	sbc	($14),y                 ; 0x14 <__rc4>
    68f5: 85 14        	sta	$14                     ; 0x14 <__rc4>
    68f7: a5 19        	lda	$19                     ; 0x19 <__rc9>
    68f9: 18           	clc
    68fa: 65 18        	adc	$18                     ; 0x18 <__rc8>
    68fc: 85 7b        	sta	$7b                     ; 0x7b <__zp_bss_size+0x4b>
    68fe: a5 1a        	lda	$1a                     ; 0x1a <__rc10>
    6900: 65 14        	adc	$14                     ; 0x14 <__rc4>
    6902: 85 7c        	sta	$7c                     ; 0x7c <__zp_bss_size+0x4c>
    6904: b1 7b        	lda	($7b),y                 ; 0x7b <__zp_bss_size+0x4b>
    6906: 85 84        	sta	$84                     ; 0x84 <__zp_bss_size+0x54>
    6908: a9 fe        	lda	#$fe
    690a: 32 7b        	and	($7b)                   ; 0x7b <__zp_bss_size+0x4b>
    690c: 85 7f        	sta	$7f                     ; 0x7f <__zp_bss_size+0x4f>
    690e: a6 7d        	ldx	$7d                     ; 0x7d <__zp_bss_size+0x4d>
    6910: 86 85        	stx	$85                     ; 0x85 <__zp_bss_size+0x55>
    6912: a6 7e        	ldx	$7e                     ; 0x7e <__zp_bss_size+0x4e>
    6914: 86 86        	stx	$86                     ; 0x86 <__zp_bss_size+0x56>
    6916: a6 12        	ldx	$12                     ; 0x12 <__rc2>
    6918: 86 82        	stx	$82                     ; 0x82 <__zp_bss_size+0x52>
    691a: a6 13        	ldx	$13                     ; 0x13 <__rc3>
    691c: 86 83        	stx	$83                     ; 0x83 <__zp_bss_size+0x53>
    691e: a6 7b        	ldx	$7b                     ; 0x7b <__zp_bss_size+0x4b>
    6920: 86 12        	stx	$12                     ; 0x12 <__rc2>
    6922: a6 7c        	ldx	$7c                     ; 0x7c <__zp_bss_size+0x4c>
    6924: 86 13        	stx	$13                     ; 0x13 <__rc3>
    6926: a6 16        	ldx	$16                     ; 0x16 <__rc6>
    6928: 86 7d        	stx	$7d                     ; 0x7d <__zp_bss_size+0x4d>
    692a: a6 17        	ldx	$17                     ; 0x17 <__rc7>
    692c: 86 7e        	stx	$7e                     ; 0x7e <__zp_bss_size+0x4e>
    692e: 20 88 04     	jsr	$488 <_ZN12_GLOBAL__N_19FreeChunk6removeEv>
    6931: a6 7e        	ldx	$7e                     ; 0x7e <__zp_bss_size+0x4e>
    6933: 86 17        	stx	$17                     ; 0x17 <__rc7>
    6935: a6 7d        	ldx	$7d                     ; 0x7d <__zp_bss_size+0x4d>
    6937: 86 16        	stx	$16                     ; 0x16 <__rc6>
    6939: a6 82        	ldx	$82                     ; 0x82 <__zp_bss_size+0x52>
    693b: 86 12        	stx	$12                     ; 0x12 <__rc2>
    693d: a6 83        	ldx	$83                     ; 0x83 <__zp_bss_size+0x53>
    693f: 86 13        	stx	$13                     ; 0x13 <__rc3>
    6941: 18           	clc
    6942: a5 7f        	lda	$7f                     ; 0x7f <__zp_bss_size+0x4f>
    6944: a6 86        	ldx	$86                     ; 0x86 <__zp_bss_size+0x56>
    6946: 86 14        	stx	$14                     ; 0x14 <__rc4>
    6948: 65 14        	adc	$14                     ; 0x14 <__rc4>
    694a: 85 7e        	sta	$7e                     ; 0x7e <__zp_bss_size+0x4e>
    694c: a5 84        	lda	$84                     ; 0x84 <__zp_bss_size+0x54>
    694e: a6 85        	ldx	$85                     ; 0x85 <__zp_bss_size+0x55>
    6950: 86 14        	stx	$14                     ; 0x14 <__rc4>
    6952: 65 14        	adc	$14                     ; 0x14 <__rc4>
    6954: 85 7d        	sta	$7d                     ; 0x7d <__zp_bss_size+0x4d>
    6956: a2 00        	ldx	#$0
    6958: 86 14        	stx	$14                     ; 0x14 <__rc4>
    695a: a2 00        	ldx	#$0
    695c: 86 15        	stx	$15                     ; 0x15 <__rc5>
    695e: a6 13        	ldx	$13                     ; 0x13 <__rc3>
    6960: e4 15        	cpx	$15                     ; 0x15 <__rc5>
    6962: d0 0d        	bne	$6971 <fileClose+0x129>
    6964: a6 12        	ldx	$12                     ; 0x12 <__rc2>
    6966: e4 14        	cpx	$14                     ; 0x14 <__rc4>
    6968: d0 07        	bne	$6971 <fileClose+0x129>
    696a: a2 01        	ldx	#$1
    696c: 8e 12 8f     	stx	$8f12                   ; 0x8f12 <_ZN12_GLOBAL__N_19last_freeE>
    696f: 80 51        	bra	$69c2 <fileClose+0x17a>
    6971: b2 12        	lda	($12)                   ; 0x12 <__rc2>
    6973: 85 18        	sta	$18                     ; 0x18 <__rc8>
    6975: a0 01        	ldy	#$1
    6977: b1 12        	lda	($12),y                 ; 0x12 <__rc2>
    6979: a8           	tay
    697a: a9 fe        	lda	#$fe
    697c: 32 12        	and	($12)                   ; 0x12 <__rc2>
    697e: 18           	clc
    697f: 85 82        	sta	$82                     ; 0x82 <__zp_bss_size+0x52>
    6981: 65 12        	adc	$12                     ; 0x12 <__rc2>
    6983: 85 14        	sta	$14                     ; 0x14 <__rc4>
    6985: 98           	tya
    6986: 84 7f        	sty	$7f                     ; 0x7f <__zp_bss_size+0x4f>
    6988: 65 13        	adc	$13                     ; 0x13 <__rc3>
    698a: c5 17        	cmp	$17                     ; 0x17 <__rc7>
    698c: d0 1b        	bne	$69a9 <fileClose+0x161>
    698e: a6 14        	ldx	$14                     ; 0x14 <__rc4>
    6990: e4 16        	cpx	$16                     ; 0x16 <__rc6>
    6992: d0 15        	bne	$69a9 <fileClose+0x161>
    6994: ad 12 8f     	lda	$8f12                   ; 0x8f12 <_ZN12_GLOBAL__N_19last_freeE>
    6997: 29 01        	and	#$1
    6999: d0 16        	bne	$69b1 <fileClose+0x169>
    699b: a5 18        	lda	$18                     ; 0x18 <__rc8>
    699d: 09 01        	ora	#$1
    699f: 92 12        	sta	($12)                   ; 0x12 <__rc2>
    69a1: a0 01        	ldy	#$1
    69a3: a5 7f        	lda	$7f                     ; 0x7f <__zp_bss_size+0x4f>
    69a5: 91 12        	sta	($12),y                 ; 0x12 <__rc2>
    69a7: 80 19        	bra	$69c2 <fileClose+0x17a>
    69a9: 85 15        	sta	$15                     ; 0x15 <__rc5>
    69ab: a9 01        	lda	#$1
    69ad: 32 14        	and	($14)                   ; 0x14 <__rc4>
    69af: f0 ea        	beq	$699b <fileClose+0x153>
    69b1: 20 88 04     	jsr	$488 <_ZN12_GLOBAL__N_19FreeChunk6removeEv>
    69b4: 18           	clc
    69b5: a6 82        	ldx	$82                     ; 0x82 <__zp_bss_size+0x52>
    69b7: 8a           	txa
    69b8: 65 7e        	adc	$7e                     ; 0x7e <__zp_bss_size+0x4e>
    69ba: 85 7e        	sta	$7e                     ; 0x7e <__zp_bss_size+0x4e>
    69bc: a5 7f        	lda	$7f                     ; 0x7f <__zp_bss_size+0x4f>
    69be: 65 7d        	adc	$7d                     ; 0x7d <__zp_bss_size+0x4d>
    69c0: 85 7d        	sta	$7d                     ; 0x7d <__zp_bss_size+0x4d>
    69c2: a6 7b        	ldx	$7b                     ; 0x7b <__zp_bss_size+0x4b>
    69c4: 86 12        	stx	$12                     ; 0x12 <__rc2>
    69c6: a6 7c        	ldx	$7c                     ; 0x7c <__zp_bss_size+0x4c>
    69c8: 86 13        	stx	$13                     ; 0x13 <__rc3>
    69ca: a6 7d        	ldx	$7d                     ; 0x7d <__zp_bss_size+0x4d>
    69cc: a5 7e        	lda	$7e                     ; 0x7e <__zp_bss_size+0x4e>
    69ce: 20 34 03     	jsr	$334 <_ZN12_GLOBAL__N_19FreeChunk6insertEPvj>
    69d1: a2 81        	ldx	#$81
    69d3: a0 00        	ldy	#$0
    69d5: 86 12        	stx	$12                     ; 0x12 <__rc2>
    69d7: 84 13        	sty	$13                     ; 0x13 <__rc3>
    69d9: a2 69        	ldx	#$69
    69db: 86 14        	stx	$14                     ; 0x14 <__rc4>
    69dd: a2 00        	ldx	#$0
    69df: 86 15        	stx	$15                     ; 0x15 <__rc5>
    69e1: 64 62        	stz	$62                     ; 0x62 <kernelEventData>
    69e3: 20 00 ff     	jsr	$ff00 <__heap_start+0x6fe8>
    69e6: 92 12        	sta	($12)                   ; 0x12 <__rc2>
    69e8: a9 00        	lda	#$0
    69ea: 6a           	ror
    69eb: 85 14        	sta	$14                     ; 0x14 <__rc4>
    69ed: a6 62        	ldx	$62                     ; 0x62 <kernelEventData>
    69ef: e0 38        	cpx	#$38
    69f1: f0 04        	beq	$69f7 <fileClose+0x1af>
    69f3: e0 32        	cpx	#$32
    69f5: d0 ea        	bne	$69e1 <fileClose+0x199>
    69f7: 60           	rts

000069f8 <fetchNextPLEntry>:
    69f8: a6 12        	ldx	$12                     ; 0x12 <__rc2>
    69fa: 86 7d        	stx	$7d                     ; 0x7d <__zp_bss_size+0x4d>
    69fc: a6 13        	ldx	$13                     ; 0x13 <__rc3>
    69fe: 86 7e        	stx	$7e                     ; 0x7e <__zp_bss_size+0x4e>
    6a00: a6 14        	ldx	$14                     ; 0x14 <__rc4>
    6a02: 86 81        	stx	$81                     ; 0x81 <__zp_bss_size+0x51>
    6a04: a6 15        	ldx	$15                     ; 0x15 <__rc5>
    6a06: 86 82        	stx	$82                     ; 0x82 <__zp_bss_size+0x52>
    6a08: a2 00        	ldx	#$0
    6a0a: 86 12        	stx	$12                     ; 0x12 <__rc2>
    6a0c: a2 00        	ldx	#$0
    6a0e: 86 13        	stx	$13                     ; 0x13 <__rc3>
    6a10: a6 7e        	ldx	$7e                     ; 0x7e <__zp_bss_size+0x4e>
    6a12: e4 13        	cpx	$13                     ; 0x13 <__rc3>
    6a14: d0 09        	bne	$6a1f <fetchNextPLEntry+0x27>
    6a16: a6 7d        	ldx	$7d                     ; 0x7d <__zp_bss_size+0x4d>
    6a18: e4 12        	cpx	$12                     ; 0x12 <__rc2>
    6a1a: d0 03        	bne	$6a1f <fetchNextPLEntry+0x27>
    6a1c: 4c dd 6a     	jmp	$6add <fetchNextPLEntry+0xe5>
    6a1f: a2 99        	ldx	#$99
    6a21: 86 12        	stx	$12                     ; 0x12 <__rc2>
    6a23: a2 8e        	ldx	#$8e
    6a25: 86 13        	stx	$13                     ; 0x13 <__rc3>
    6a27: a2 78        	ldx	#$78
    6a29: 64 14        	stz	$14                     ; 0x14 <__rc4>
    6a2b: a9 00        	lda	#$0
    6a2d: 20 ec 82     	jsr	$82ec <__memset>
    6a30: a2 01        	ldx	#$1
    6a32: 86 83        	stx	$83                     ; 0x83 <__zp_bss_size+0x53>
    6a34: a2 84        	ldx	#$84
    6a36: a0 00        	ldy	#$0
    6a38: 86 12        	stx	$12                     ; 0x12 <__rc2>
    6a3a: 84 13        	sty	$13                     ; 0x13 <__rc3>
    6a3c: 64 80        	stz	$80                     ; 0x80 <__zp_bss_size+0x50>
    6a3e: 64 7f        	stz	$7f                     ; 0x7f <__zp_bss_size+0x4f>
    6a40: a6 12        	ldx	$12                     ; 0x12 <__rc2>
    6a42: 86 7b        	stx	$7b                     ; 0x7b <__zp_bss_size+0x4b>
    6a44: a6 13        	ldx	$13                     ; 0x13 <__rc3>
    6a46: 86 7c        	stx	$7c                     ; 0x7c <__zp_bss_size+0x4c>
    6a48: a6 7d        	ldx	$7d                     ; 0x7d <__zp_bss_size+0x4d>
    6a4a: 86 14        	stx	$14                     ; 0x14 <__rc4>
    6a4c: a6 7e        	ldx	$7e                     ; 0x7e <__zp_bss_size+0x4e>
    6a4e: 86 15        	stx	$15                     ; 0x15 <__rc5>
    6a50: a2 00        	ldx	#$0
    6a52: a5 83        	lda	$83                     ; 0x83 <__zp_bss_size+0x53>
    6a54: 20 45 6c     	jsr	$6c45 <fileRead>
    6a57: e0 00        	cpx	#$0
    6a59: d0 24        	bne	$6a7f <fetchNextPLEntry+0x87>
    6a5b: c9 01        	cmp	#$1
    6a5d: d0 20        	bne	$6a7f <fetchNextPLEntry+0x87>
    6a5f: a4 84        	ldy	$84                     ; 0x84 <__zp_bss_size+0x54>
    6a61: a6 7b        	ldx	$7b                     ; 0x7b <__zp_bss_size+0x4b>
    6a63: 86 12        	stx	$12                     ; 0x12 <__rc2>
    6a65: a6 7c        	ldx	$7c                     ; 0x7c <__zp_bss_size+0x4c>
    6a67: 86 13        	stx	$13                     ; 0x13 <__rc3>
    6a69: c0 0a        	cpy	#$a
    6a6b: f0 d3        	beq	$6a40 <fetchNextPLEntry+0x48>
    6a6d: c0 0d        	cpy	#$d
    6a6f: f0 0e        	beq	$6a7f <fetchNextPLEntry+0x87>
    6a71: a5 7f        	lda	$7f                     ; 0x7f <__zp_bss_size+0x4f>
    6a73: f0 03        	beq	$6a78 <fetchNextPLEntry+0x80>
    6a75: 4c de 6a     	jmp	$6ade <fetchNextPLEntry+0xe6>
    6a78: a6 80        	ldx	$80                     ; 0x80 <__zp_bss_size+0x50>
    6a7a: e0 77        	cpx	#$77
    6a7c: 4c e2 6a     	jmp	$6ae2 <fetchNextPLEntry+0xea>
    6a7f: a5 7f        	lda	$7f                     ; 0x7f <__zp_bss_size+0x4f>
    6a81: d0 0a        	bne	$6a8d <fetchNextPLEntry+0x95>
    6a83: a5 80        	lda	$80                     ; 0x80 <__zp_bss_size+0x50>
    6a85: d0 06        	bne	$6a8d <fetchNextPLEntry+0x95>
    6a87: a6 84        	ldx	$84                     ; 0x84 <__zp_bss_size+0x54>
    6a89: e0 0d        	cpx	#$d
    6a8b: d0 11        	bne	$6a9e <fetchNextPLEntry+0xa6>
    6a8d: a9 99        	lda	#$99
    6a8f: 18           	clc
    6a90: 65 80        	adc	$80                     ; 0x80 <__zp_bss_size+0x50>
    6a92: 85 12        	sta	$12                     ; 0x12 <__rc2>
    6a94: a9 8e        	lda	#$8e
    6a96: 65 7f        	adc	$7f                     ; 0x7f <__zp_bss_size+0x4f>
    6a98: 85 13        	sta	$13                     ; 0x13 <__rc3>
    6a9a: a9 00        	lda	#$0
    6a9c: 92 12        	sta	($12)                   ; 0x12 <__rc2>
    6a9e: 20 86 3d     	jsr	$3d86 <lilpause>
    6aa1: a0 01        	ldy	#$1
    6aa3: b1 81        	lda	($81),y                 ; 0x81 <__zp_bss_size+0x51>
    6aa5: c9 02        	cmp	#$2
    6aa7: d0 34        	bne	$6add <fetchNextPLEntry+0xe5>
    6aa9: b2 81        	lda	($81)                   ; 0x81 <__zp_bss_size+0x51>
    6aab: c9 1a        	cmp	#$1a
    6aad: d0 2e        	bne	$6add <fetchNextPLEntry+0xe5>
    6aaf: b2 7d        	lda	($7d)                   ; 0x7d <__zp_bss_size+0x4d>
    6ab1: 85 f3        	sta	$f3                     ; 0xf3 <__zp_bss_size+0xc3>
    6ab3: 64 f4        	stz	$f4                     ; 0xf4 <__zp_bss_size+0xc4>
    6ab5: 64 f5        	stz	$f5                     ; 0xf5 <__zp_bss_size+0xc5>
    6ab7: 64 f6        	stz	$f6                     ; 0xf6 <__zp_bss_size+0xc6>
    6ab9: 64 f7        	stz	$f7                     ; 0xf7 <__zp_bss_size+0xc7>
    6abb: a2 85        	ldx	#$85
    6abd: a0 00        	ldy	#$0
    6abf: 86 12        	stx	$12                     ; 0x12 <__rc2>
    6ac1: 84 13        	sty	$13                     ; 0x13 <__rc3>
    6ac3: a2 69        	ldx	#$69
    6ac5: 86 14        	stx	$14                     ; 0x14 <__rc4>
    6ac7: a2 00        	ldx	#$0
    6ac9: 86 15        	stx	$15                     ; 0x15 <__rc5>
    6acb: 20 74 ff     	jsr	$ff74 <__heap_start+0x705c>
    6ace: 92 12        	sta	($12)                   ; 0x12 <__rc2>
    6ad0: a9 00        	lda	#$0
    6ad2: 6a           	ror
    6ad3: 85 14        	sta	$14                     ; 0x14 <__rc4>
    6ad5: a9 00        	lda	#$0
    6ad7: 92 81        	sta	($81)                   ; 0x81 <__zp_bss_size+0x51>
    6ad9: a0 01        	ldy	#$1
    6adb: 91 81        	sta	($81),y                 ; 0x81 <__zp_bss_size+0x51>
    6add: 60           	rts
    6ade: a6 7f        	ldx	$7f                     ; 0x7f <__zp_bss_size+0x4f>
    6ae0: e0 00        	cpx	#$0
    6ae2: a6 7b        	ldx	$7b                     ; 0x7b <__zp_bss_size+0x4b>
    6ae4: 86 12        	stx	$12                     ; 0x12 <__rc2>
    6ae6: a6 7c        	ldx	$7c                     ; 0x7c <__zp_bss_size+0x4c>
    6ae8: 86 13        	stx	$13                     ; 0x13 <__rc3>
    6aea: 90 03        	bcc	$6aef <fetchNextPLEntry+0xf7>
    6aec: 4c 40 6a     	jmp	$6a40 <fetchNextPLEntry+0x48>
    6aef: 84 16        	sty	$16                     ; 0x16 <__rc6>
    6af1: a6 80        	ldx	$80                     ; 0x80 <__zp_bss_size+0x50>
    6af3: a4 7f        	ldy	$7f                     ; 0x7f <__zp_bss_size+0x4f>
    6af5: e8           	inx
    6af6: d0 01        	bne	$6af9 <fetchNextPLEntry+0x101>
    6af8: c8           	iny
    6af9: 18           	clc
    6afa: a9 99        	lda	#$99
    6afc: 65 80        	adc	$80                     ; 0x80 <__zp_bss_size+0x50>
    6afe: 85 14        	sta	$14                     ; 0x14 <__rc4>
    6b00: a9 8e        	lda	#$8e
    6b02: 65 7f        	adc	$7f                     ; 0x7f <__zp_bss_size+0x4f>
    6b04: 85 15        	sta	$15                     ; 0x15 <__rc5>
    6b06: a5 16        	lda	$16                     ; 0x16 <__rc6>
    6b08: 92 14        	sta	($14)                   ; 0x14 <__rc4>
    6b0a: 86 80        	stx	$80                     ; 0x80 <__zp_bss_size+0x50>
    6b0c: 84 7f        	sty	$7f                     ; 0x7f <__zp_bss_size+0x4f>
    6b0e: 4c 40 6a     	jmp	$6a40 <fetchNextPLEntry+0x48>

00006b11 <fileOpen>:
    6b11: ac 99 8e     	ldy	$8e99                   ; 0x8e99 <name>
    6b14: 64 18        	stz	$18                     ; 0x18 <__rc8>
    6b16: a2 99        	ldx	#$99
    6b18: 86 14        	stx	$14                     ; 0x14 <__rc4>
    6b1a: a2 8e        	ldx	#$8e
    6b1c: 86 15        	stx	$15                     ; 0x15 <__rc5>
    6b1e: 98           	tya
    6b1f: f0 36        	beq	$6b57 <fileOpen+0x46>
    6b21: 84 1a        	sty	$1a                     ; 0x1a <__rc10>
    6b23: a2 9b        	ldx	#$9b
    6b25: 86 16        	stx	$16                     ; 0x16 <__rc6>
    6b27: a2 8e        	ldx	#$8e
    6b29: 86 17        	stx	$17                     ; 0x17 <__rc7>
    6b2b: 64 19        	stz	$19                     ; 0x19 <__rc9>
    6b2d: a6 19        	ldx	$19                     ; 0x19 <__rc9>
    6b2f: a4 18        	ldy	$18                     ; 0x18 <__rc8>
    6b31: c8           	iny
    6b32: d0 01        	bne	$6b35 <fileOpen+0x24>
    6b34: e8           	inx
    6b35: a9 9a        	lda	#$9a
    6b37: 18           	clc
    6b38: 65 18        	adc	$18                     ; 0x18 <__rc8>
    6b3a: 85 18        	sta	$18                     ; 0x18 <__rc8>
    6b3c: a9 8e        	lda	#$8e
    6b3e: 65 19        	adc	$19                     ; 0x19 <__rc9>
    6b40: 85 19        	sta	$19                     ; 0x19 <__rc9>
    6b42: b2 18        	lda	($18)                   ; 0x18 <__rc8>
    6b44: 84 18        	sty	$18                     ; 0x18 <__rc8>
    6b46: 86 19        	stx	$19                     ; 0x19 <__rc9>
    6b48: d0 e3        	bne	$6b2d <fileOpen+0x1c>
    6b4a: 8a           	txa
    6b4b: d0 0e        	bne	$6b5b <fileOpen+0x4a>
    6b4d: c0 02        	cpy	#$2
    6b4f: b0 0e        	bcs	$6b5f <fileOpen+0x4e>
    6b51: 64 19        	stz	$19                     ; 0x19 <__rc9>
    6b53: 64 18        	stz	$18                     ; 0x18 <__rc8>
    6b55: 80 36        	bra	$6b8d <fileOpen+0x7c>
    6b57: 64 19        	stz	$19                     ; 0x19 <__rc9>
    6b59: 80 32        	bra	$6b8d <fileOpen+0x7c>
    6b5b: e0 00        	cpx	#$0
    6b5d: 90 f2        	bcc	$6b51 <fileOpen+0x40>
    6b5f: 64 18        	stz	$18                     ; 0x18 <__rc8>
    6b61: ae 9a 8e     	ldx	$8e9a                   ; 0x8e9a <name+0x1>
    6b64: 64 19        	stz	$19                     ; 0x19 <__rc9>
    6b66: e0 3a        	cpx	#$3a
    6b68: d0 23        	bne	$6b8d <fileOpen+0x7c>
    6b6a: a5 1a        	lda	$1a                     ; 0x1a <__rc10>
    6b6c: c9 30        	cmp	#$30
    6b6e: 90 09        	bcc	$6b79 <fileOpen+0x68>
    6b70: c9 38        	cmp	#$38
    6b72: b0 05        	bcs	$6b79 <fileOpen+0x68>
    6b74: 18           	clc
    6b75: 69 d0        	adc	#$d0
    6b77: 85 19        	sta	$19                     ; 0x19 <__rc9>
    6b79: a2 9b        	ldx	#$9b
    6b7b: 86 14        	stx	$14                     ; 0x14 <__rc4>
    6b7d: a2 8e        	ldx	#$8e
    6b7f: 86 15        	stx	$15                     ; 0x15 <__rc5>
    6b81: 80 0a        	bra	$6b8d <fileOpen+0x7c>
    6b83: a2 02        	ldx	#$2
    6b85: e6 12        	inc	$12                     ; 0x12 <__rc2>
    6b87: d0 02        	bne	$6b8b <fileOpen+0x7a>
    6b89: e6 13        	inc	$13                     ; 0x13 <__rc3>
    6b8b: 86 18        	stx	$18                     ; 0x18 <__rc8>
    6b8d: b2 12        	lda	($12)                   ; 0x12 <__rc2>
    6b8f: c9 61        	cmp	#$61
    6b91: f0 f0        	beq	$6b83 <fileOpen+0x72>
    6b93: a2 01        	ldx	#$1
    6b95: c9 77        	cmp	#$77
    6b97: f0 ec        	beq	$6b85 <fileOpen+0x74>
    6b99: aa           	tax
    6b9a: f0 04        	beq	$6ba0 <fileOpen+0x8f>
    6b9c: a6 18        	ldx	$18                     ; 0x18 <__rc8>
    6b9e: 80 e5        	bra	$6b85 <fileOpen+0x74>
    6ba0: a6 14        	ldx	$14                     ; 0x14 <__rc4>
    6ba2: a4 15        	ldy	$15                     ; 0x15 <__rc5>
    6ba4: 86 fb        	stx	$fb                     ; 0xfb <__zp_bss_size+0xcb>
    6ba6: 84 fc        	sty	$fc                     ; 0xfc <__zp_bss_size+0xcc>
    6ba8: b2 14        	lda	($14)                   ; 0x14 <__rc4>
    6baa: f0 2b        	beq	$6bd7 <fileOpen+0xc6>
    6bac: 64 13        	stz	$13                     ; 0x13 <__rc3>
    6bae: a0 01        	ldy	#$1
    6bb0: a9 00        	lda	#$0
    6bb2: 64 12        	stz	$12                     ; 0x12 <__rc2>
    6bb4: a6 13        	ldx	$13                     ; 0x13 <__rc3>
    6bb6: e6 13        	inc	$13                     ; 0x13 <__rc3>
    6bb8: d0 02        	bne	$6bbc <fileOpen+0xab>
    6bba: e6 12        	inc	$12                     ; 0x12 <__rc2>
    6bbc: 18           	clc
    6bbd: 85 17        	sta	$17                     ; 0x17 <__rc7>
    6bbf: 8a           	txa
    6bc0: 65 14        	adc	$14                     ; 0x14 <__rc4>
    6bc2: 85 16        	sta	$16                     ; 0x16 <__rc6>
    6bc4: a5 17        	lda	$17                     ; 0x17 <__rc7>
    6bc6: 65 15        	adc	$15                     ; 0x15 <__rc5>
    6bc8: 85 17        	sta	$17                     ; 0x17 <__rc7>
    6bca: b1 16        	lda	($16),y                 ; 0x16 <__rc6>
    6bcc: aa           	tax
    6bcd: a5 12        	lda	$12                     ; 0x12 <__rc2>
    6bcf: e0 00        	cpx	#$0
    6bd1: d0 e1        	bne	$6bb4 <fileOpen+0xa3>
    6bd3: a6 13        	ldx	$13                     ; 0x13 <__rc3>
    6bd5: 80 02        	bra	$6bd9 <fileOpen+0xc8>
    6bd7: a2 00        	ldx	#$0
    6bd9: 86 fd        	stx	$fd                     ; 0xfd <__zp_bss_size+0xcd>
    6bdb: a6 19        	ldx	$19                     ; 0x19 <__rc9>
    6bdd: 86 f3        	stx	$f3                     ; 0xf3 <__zp_bss_size+0xc3>
    6bdf: a6 18        	ldx	$18                     ; 0x18 <__rc8>
    6be1: 86 f5        	stx	$f5                     ; 0xf5 <__zp_bss_size+0xc5>
    6be3: a2 7b        	ldx	#$7b
    6be5: a0 00        	ldy	#$0
    6be7: 86 12        	stx	$12                     ; 0x12 <__rc2>
    6be9: 84 13        	sty	$13                     ; 0x13 <__rc3>
    6beb: a2 69        	ldx	#$69
    6bed: 86 14        	stx	$14                     ; 0x14 <__rc4>
    6bef: a2 00        	ldx	#$0
    6bf1: 86 15        	stx	$15                     ; 0x15 <__rc5>
    6bf3: 20 5c ff     	jsr	$ff5c <__heap_start+0x7044>
    6bf6: 92 12        	sta	($12)                   ; 0x12 <__rc2>
    6bf8: a9 00        	lda	#$0
    6bfa: 6a           	ror
    6bfb: 85 14        	sta	$14                     ; 0x14 <__rc4>
    6bfd: a6 69        	ldx	$69                     ; 0x69 <kernelError>
    6bff: a0 00        	ldy	#$0
    6c01: 84 12        	sty	$12                     ; 0x12 <__rc2>
    6c03: a0 00        	ldy	#$0
    6c05: 84 13        	sty	$13                     ; 0x13 <__rc3>
    6c07: 8a           	txa
    6c08: f0 01        	beq	$6c0b <fileOpen+0xfa>
    6c0a: 60           	rts
    6c0b: a6 7b        	ldx	$7b                     ; 0x7b <__zp_bss_size+0x4b>
    6c0d: 86 7d        	stx	$7d                     ; 0x7d <__zp_bss_size+0x4d>
    6c0f: a2 7c        	ldx	#$7c
    6c11: a0 00        	ldy	#$0
    6c13: 86 14        	stx	$14                     ; 0x14 <__rc4>
    6c15: 84 15        	sty	$15                     ; 0x15 <__rc5>
    6c17: a2 69        	ldx	#$69
    6c19: 86 16        	stx	$16                     ; 0x16 <__rc6>
    6c1b: a2 00        	ldx	#$0
    6c1d: 86 17        	stx	$17                     ; 0x17 <__rc7>
    6c1f: 64 62        	stz	$62                     ; 0x62 <kernelEventData>
    6c21: 20 00 ff     	jsr	$ff00 <__heap_start+0x6fe8>
    6c24: 92 14        	sta	($14)                   ; 0x14 <__rc4>
    6c26: a9 00        	lda	#$0
    6c28: 6a           	ror
    6c29: 85 16        	sta	$16                     ; 0x16 <__rc6>
    6c2b: a6 62        	ldx	$62                     ; 0x62 <kernelEventData>
    6c2d: e0 28        	cpx	#$28
    6c2f: f0 d9        	beq	$6c0a <fileOpen+0xf9>
    6c31: e0 38        	cpx	#$38
    6c33: f0 d5        	beq	$6c0a <fileOpen+0xf9>
    6c35: e0 2a        	cpx	#$2a
    6c37: d0 e6        	bne	$6c1f <fileOpen+0x10e>
    6c39: a9 01        	lda	#$1
    6c3b: a2 00        	ldx	#$0
    6c3d: 20 d8 80     	jsr	$80d8 <malloc>
    6c40: a5 7d        	lda	$7d                     ; 0x7d <__zp_bss_size+0x4d>
    6c42: 92 12        	sta	($12)                   ; 0x12 <__rc2>
    6c44: 60           	rts

00006c45 <fileRead>:
    6c45: 85 16        	sta	$16                     ; 0x16 <__rc6>
    6c47: 86 17        	stx	$17                     ; 0x17 <__rc7>
    6c49: 64 18        	stz	$18                     ; 0x18 <__rc8>
    6c4b: a6 12        	ldx	$12                     ; 0x12 <__rc2>
    6c4d: 86 19        	stx	$19                     ; 0x19 <__rc9>
    6c4f: a6 13        	ldx	$13                     ; 0x13 <__rc3>
    6c51: 86 1a        	stx	$1a                     ; 0x1a <__rc10>
    6c53: a2 00        	ldx	#$0
    6c55: 86 1b        	stx	$1b                     ; 0x1b <__zp_data_size>
    6c57: a2 8f        	ldx	#$8f
    6c59: 86 8d        	stx	$8d                     ; 0x8d <__zp_bss_size+0x5d>
    6c5b: a2 00        	ldx	#$0
    6c5d: 86 8e        	stx	$8e                     ; 0x8e <__zp_bss_size+0x5e>
    6c5f: a9 90        	lda	#$90
    6c61: 85 23        	sta	$23                     ; 0x23 <__rc19>
    6c63: 64 12        	stz	$12                     ; 0x12 <__rc2>
    6c65: a9 00        	lda	#$0
    6c67: 85 86        	sta	$86                     ; 0x86 <__zp_bss_size+0x56>
    6c69: a9 91        	lda	#$91
    6c6b: 85 87        	sta	$87                     ; 0x87 <__zp_bss_size+0x57>
    6c6d: a9 00        	lda	#$0
    6c6f: 85 88        	sta	$88                     ; 0x88 <__zp_bss_size+0x58>
    6c71: a9 92        	lda	#$92
    6c73: 85 89        	sta	$89                     ; 0x89 <__zp_bss_size+0x59>
    6c75: a9 00        	lda	#$0
    6c77: 85 8a        	sta	$8a                     ; 0x8a <__zp_bss_size+0x5a>
    6c79: a9 93        	lda	#$93
    6c7b: 85 8b        	sta	$8b                     ; 0x8b <__zp_bss_size+0x5b>
    6c7d: a9 00        	lda	#$0
    6c7f: 85 8c        	sta	$8c                     ; 0x8c <__zp_bss_size+0x5c>
    6c81: b2 14        	lda	($14)                   ; 0x14 <__rc4>
    6c83: a8           	tay
    6c84: a6 19        	ldx	$19                     ; 0x19 <__rc9>
    6c86: 86 13        	stx	$13                     ; 0x13 <__rc3>
    6c88: a5 19        	lda	$19                     ; 0x19 <__rc9>
    6c8a: a6 1b        	ldx	$1b                     ; 0x1b <__zp_data_size>
    6c8c: e0 01        	cpx	#$1
    6c8e: 65 18        	adc	$18                     ; 0x18 <__rc8>
    6c90: aa           	tax
    6c91: a5 1a        	lda	$1a                     ; 0x1a <__rc10>
    6c93: 85 22        	sta	$22                     ; 0x22 <__rc18>
    6c95: a5 1a        	lda	$1a                     ; 0x1a <__rc10>
    6c97: 65 12        	adc	$12                     ; 0x12 <__rc2>
    6c99: c0 00        	cpy	#$0
    6c9b: d0 03        	bne	$6ca0 <fileRead+0x5b>
    6c9d: 4c 2c 6d     	jmp	$6d2c <fileRead+0xe7>
    6ca0: 85 1e        	sta	$1e                     ; 0x1e <__rc14>
    6ca2: a5 16        	lda	$16                     ; 0x16 <__rc6>
    6ca4: 38           	sec
    6ca5: e5 18        	sbc	$18                     ; 0x18 <__rc8>
    6ca7: 84 f3        	sty	$f3                     ; 0xf3 <__zp_bss_size+0xc3>
    6ca9: 85 f4        	sta	$f4                     ; 0xf4 <__zp_bss_size+0xc4>
    6cab: a5 87        	lda	$87                     ; 0x87 <__zp_bss_size+0x57>
    6cad: 85 1a        	sta	$1a                     ; 0x1a <__rc10>
    6caf: a5 88        	lda	$88                     ; 0x88 <__zp_bss_size+0x58>
    6cb1: 85 1b        	sta	$1b                     ; 0x1b <__zp_data_size>
    6cb3: a9 69        	lda	#$69
    6cb5: 85 1c        	sta	$1c                     ; 0x1c <__rc12>
    6cb7: a9 00        	lda	#$0
    6cb9: 85 1d        	sta	$1d                     ; 0x1d <__rc13>
    6cbb: 20 60 ff     	jsr	$ff60 <__heap_start+0x7048>
    6cbe: 92 1a        	sta	($1a)                   ; 0x1a <__rc10>
    6cc0: a9 00        	lda	#$0
    6cc2: 6a           	ror
    6cc3: 85 1c        	sta	$1c                     ; 0x1c <__rc12>
    6cc5: a4 69        	ldy	$69                     ; 0x69 <kernelError>
    6cc7: a9 ff        	lda	#$ff
    6cc9: 85 19        	sta	$19                     ; 0x19 <__rc9>
    6ccb: 98           	tya
    6ccc: f0 03        	beq	$6cd1 <fileRead+0x8c>
    6cce: 4c a9 6d     	jmp	$6da9 <fileRead+0x164>
    6cd1: 64 62        	stz	$62                     ; 0x62 <kernelEventData>
    6cd3: a5 89        	lda	$89                     ; 0x89 <__zp_bss_size+0x59>
    6cd5: 85 1a        	sta	$1a                     ; 0x1a <__rc10>
    6cd7: a5 8a        	lda	$8a                     ; 0x8a <__zp_bss_size+0x5a>
    6cd9: 85 1b        	sta	$1b                     ; 0x1b <__zp_data_size>
    6cdb: a9 69        	lda	#$69
    6cdd: 85 1c        	sta	$1c                     ; 0x1c <__rc12>
    6cdf: a9 00        	lda	#$0
    6ce1: 85 1d        	sta	$1d                     ; 0x1d <__rc13>
    6ce3: 20 00 ff     	jsr	$ff00 <__heap_start+0x6fe8>
    6ce6: 92 1a        	sta	($1a)                   ; 0x1a <__rc10>
    6ce8: a9 00        	lda	#$0
    6cea: 6a           	ror
    6ceb: 85 1c        	sta	$1c                     ; 0x1c <__rc12>
    6ced: a5 62        	lda	$62                     ; 0x62 <kernelEventData>
    6cef: c9 38        	cmp	#$38
    6cf1: d0 03        	bne	$6cf6 <fileRead+0xb1>
    6cf3: 4c a9 6d     	jmp	$6da9 <fileRead+0x164>
    6cf6: c9 30        	cmp	#$30
    6cf8: d0 03        	bne	$6cfd <fileRead+0xb8>
    6cfa: 4c b1 6d     	jmp	$6db1 <fileRead+0x16c>
    6cfd: c9 2c        	cmp	#$2c
    6cff: d0 d0        	bne	$6cd1 <fileRead+0x8c>
    6d01: 86 fb        	stx	$fb                     ; 0xfb <__zp_bss_size+0xcb>
    6d03: a4 1e        	ldy	$1e                     ; 0x1e <__rc14>
    6d05: 84 fc        	sty	$fc                     ; 0xfc <__zp_bss_size+0xcc>
    6d07: a5 68        	lda	$68                     ; 0x68 <kernelEventData+0x6>
    6d09: 85 fd        	sta	$fd                     ; 0xfd <__zp_bss_size+0xcd>
    6d0b: a5 8b        	lda	$8b                     ; 0x8b <__zp_bss_size+0x5b>
    6d0d: 85 1a        	sta	$1a                     ; 0x1a <__rc10>
    6d0f: a5 8c        	lda	$8c                     ; 0x8c <__zp_bss_size+0x5c>
    6d11: 85 1b        	sta	$1b                     ; 0x1b <__zp_data_size>
    6d13: a9 69        	lda	#$69
    6d15: 85 1c        	sta	$1c                     ; 0x1c <__rc12>
    6d17: a9 00        	lda	#$0
    6d19: 85 1d        	sta	$1d                     ; 0x1d <__rc13>
    6d1b: 20 04 ff     	jsr	$ff04 <__heap_start+0x6fec>
    6d1e: 92 1a        	sta	($1a)                   ; 0x1a <__rc10>
    6d20: a9 00        	lda	#$0
    6d22: 6a           	ror
    6d23: 85 1c        	sta	$1c                     ; 0x1c <__rc12>
    6d25: a5 68        	lda	$68                     ; 0x68 <kernelEventData+0x6>
    6d27: d0 4d        	bne	$6d76 <fileRead+0x131>
    6d29: 4c ba 6d     	jmp	$6dba <fileRead+0x175>
    6d2c: 86 1a        	stx	$1a                     ; 0x1a <__rc10>
    6d2e: 85 1b        	sta	$1b                     ; 0x1b <__zp_data_size>
    6d30: 80 0a        	bra	$6d3c <fileRead+0xf7>
    6d32: a5 62        	lda	$62                     ; 0x62 <kernelEventData>
    6d34: c9 08        	cmp	#$8
    6d36: d0 04        	bne	$6d3c <fileRead+0xf7>
    6d38: a5 68        	lda	$68                     ; 0x68 <kernelEventData+0x6>
    6d3a: f0 34        	beq	$6d70 <fileRead+0x12b>
    6d3c: 64 62        	stz	$62                     ; 0x62 <kernelEventData>
    6d3e: a6 8d        	ldx	$8d                     ; 0x8d <__zp_bss_size+0x5d>
    6d40: 86 1e        	stx	$1e                     ; 0x1e <__rc14>
    6d42: a6 8e        	ldx	$8e                     ; 0x8e <__zp_bss_size+0x5e>
    6d44: 86 1f        	stx	$1f                     ; 0x1f <__rc15>
    6d46: a9 69        	lda	#$69
    6d48: 85 1c        	sta	$1c                     ; 0x1c <__rc12>
    6d4a: a9 00        	lda	#$0
    6d4c: 85 1d        	sta	$1d                     ; 0x1d <__rc13>
    6d4e: 20 00 ff     	jsr	$ff00 <__heap_start+0x6fe8>
    6d51: 92 1e        	sta	($1e)                   ; 0x1e <__rc14>
    6d53: a9 00        	lda	#$0
    6d55: 6a           	ror
    6d56: 85 1c        	sta	$1c                     ; 0x1c <__rc12>
    6d58: a5 69        	lda	$69                     ; 0x69 <kernelError>
    6d5a: f0 d6        	beq	$6d32 <fileRead+0xed>
    6d5c: a6 23        	ldx	$23                     ; 0x23 <__rc19>
    6d5e: 86 1e        	stx	$1e                     ; 0x1e <__rc14>
    6d60: a5 86        	lda	$86                     ; 0x86 <__zp_bss_size+0x56>
    6d62: 85 1f        	sta	$1f                     ; 0x1f <__rc15>
    6d64: 20 0c ff     	jsr	$ff0c <__heap_start+0x6ff4>
    6d67: 92 1e        	sta	($1e)                   ; 0x1e <__rc14>
    6d69: a9 00        	lda	#$0
    6d6b: 6a           	ror
    6d6c: 85 1c        	sta	$1c                     ; 0x1c <__rc12>
    6d6e: 80 cc        	bra	$6d3c <fileRead+0xf7>
    6d70: a5 67        	lda	$67                     ; 0x67 <kernelEventData+0x5>
    6d72: 92 1a        	sta	($1a)                   ; 0x1a <__rc10>
    6d74: a9 01        	lda	#$1
    6d76: a0 00        	ldy	#$0
    6d78: 18           	clc
    6d79: b8           	clv
    6d7a: a2 01        	ldx	#$1
    6d7c: 70 02        	bvs	$6d80 <fileRead+0x13b>
    6d7e: a2 00        	ldx	#$0
    6d80: 86 1b        	stx	$1b                     ; 0x1b <__zp_data_size>
    6d82: 65 18        	adc	$18                     ; 0x18 <__rc8>
    6d84: 85 1c        	sta	$1c                     ; 0x1c <__rc12>
    6d86: 98           	tya
    6d87: 65 12        	adc	$12                     ; 0x12 <__rc2>
    6d89: aa           	tax
    6d8a: c5 17        	cmp	$17                     ; 0x17 <__rc7>
    6d8c: d0 06        	bne	$6d94 <fileRead+0x14f>
    6d8e: a4 1c        	ldy	$1c                     ; 0x1c <__rc12>
    6d90: c4 16        	cpy	$16                     ; 0x16 <__rc6>
    6d92: 80 04        	bra	$6d98 <fileRead+0x153>
    6d94: e4 17        	cpx	$17                     ; 0x17 <__rc7>
    6d96: a4 1c        	ldy	$1c                     ; 0x1c <__rc12>
    6d98: 84 18        	sty	$18                     ; 0x18 <__rc8>
    6d9a: 85 12        	sta	$12                     ; 0x12 <__rc2>
    6d9c: a4 13        	ldy	$13                     ; 0x13 <__rc3>
    6d9e: 84 19        	sty	$19                     ; 0x19 <__rc9>
    6da0: a4 22        	ldy	$22                     ; 0x22 <__rc18>
    6da2: 84 1a        	sty	$1a                     ; 0x1a <__rc10>
    6da4: b0 11        	bcs	$6db7 <fileRead+0x172>
    6da6: 4c 81 6c     	jmp	$6c81 <fileRead+0x3c>
    6da9: a2 ff        	ldx	#$ff
    6dab: a4 19        	ldy	$19                     ; 0x19 <__rc9>
    6dad: 84 1c        	sty	$1c                     ; 0x1c <__rc12>
    6daf: 80 06        	bra	$6db7 <fileRead+0x172>
    6db1: a6 18        	ldx	$18                     ; 0x18 <__rc8>
    6db3: 86 1c        	stx	$1c                     ; 0x1c <__rc12>
    6db5: a6 12        	ldx	$12                     ; 0x12 <__rc2>
    6db7: a5 1c        	lda	$1c                     ; 0x1c <__rc12>
    6db9: 60           	rts
    6dba: a9 00        	lda	#$0
    6dbc: a0 01        	ldy	#$1
    6dbe: 80 b8        	bra	$6d78 <fileRead+0x133>

00006dc0 <textGotoXY>:
    6dc0: 85 6a        	sta	$6a                     ; 0x6a <_col>
    6dc2: 8d 14 d0     	sta	$d014                   ; 0xd014 <__heap_start+0x40fc>
    6dc5: 9c 15 d0     	stz	$d015                   ; 0xd015 <__heap_start+0x40fd>
    6dc8: 86 6b        	stx	$6b                     ; 0x6b <_row>
    6dca: 8e 16 d0     	stx	$d016                   ; 0xd016 <__heap_start+0x40fe>
    6dcd: 9c 17 d0     	stz	$d017                   ; 0xd017 <__heap_start+0x40ff>
    6dd0: 60           	rts

00006dd1 <textPrint>:
    6dd1: a6 01        	ldx	$1                      ; 0x1 <__data_size+0x1>
    6dd3: 86 dd        	stx	$dd                     ; 0xdd <__zp_bss_size+0xad>
    6dd5: a6 6b        	ldx	$6b                     ; 0x6b <_row>
    6dd7: a0 50        	ldy	#$50
    6dd9: 8c 00 de     	sty	$de00                   ; 0xde00 <__heap_start+0x4ee8>
    6ddc: 9c 01 de     	stz	$de01                   ; 0xde01 <__heap_start+0x4ee9>
    6ddf: 8e 02 de     	stx	$de02                   ; 0xde02 <__heap_start+0x4eea>
    6de2: 9c 03 de     	stz	$de03                   ; 0xde03 <__heap_start+0x4eeb>
    6de5: ae 10 de     	ldx	$de10                   ; 0xde10 <__heap_start+0x4ef8>
    6de8: ad 11 de     	lda	$de11                   ; 0xde11 <__heap_start+0x4ef9>
    6deb: 85 15        	sta	$15                     ; 0x15 <__rc5>
    6ded: ad 12 de     	lda	$de12                   ; 0xde12 <__heap_start+0x4efa>
    6df0: 85 1c        	sta	$1c                     ; 0x1c <__rc12>
    6df2: ad 13 de     	lda	$de13                   ; 0xde13 <__heap_start+0x4efb>
    6df5: 85 1d        	sta	$1d                     ; 0x1d <__rc13>
    6df7: 9c 08 de     	stz	$de08                   ; 0xde08 <__heap_start+0x4ef0>
    6dfa: a9 c0        	lda	#$c0
    6dfc: 8d 09 de     	sta	$de09                   ; 0xde09 <__heap_start+0x4ef1>
    6dff: 9c 0a de     	stz	$de0a                   ; 0xde0a <__heap_start+0x4ef2>
    6e02: 9c 0b de     	stz	$de0b                   ; 0xde0b <__heap_start+0x4ef3>
    6e05: 8e 0c de     	stx	$de0c                   ; 0xde0c <__heap_start+0x4ef4>
    6e08: 64 14        	stz	$14                     ; 0x14 <__rc4>
    6e0a: a2 00        	ldx	#$0
    6e0c: 86 16        	stx	$16                     ; 0x16 <__rc6>
    6e0e: a2 c0        	ldx	#$c0
    6e10: 86 17        	stx	$17                     ; 0x17 <__rc7>
    6e12: a2 11        	ldx	#$11
    6e14: 86 18        	stx	$18                     ; 0x18 <__rc8>
    6e16: a2 c9        	ldx	#$c9
    6e18: 86 19        	stx	$19                     ; 0x19 <__rc9>
    6e1a: a2 10        	ldx	#$10
    6e1c: 86 1a        	stx	$1a                     ; 0x1a <__rc10>
    6e1e: a2 c9        	ldx	#$c9
    6e20: 86 1b        	stx	$1b                     ; 0x1b <__zp_data_size>
    6e22: a6 15        	ldx	$15                     ; 0x15 <__rc5>
    6e24: 8e 0d de     	stx	$de0d                   ; 0xde0d <__heap_start+0x4ef5>
    6e27: a6 1c        	ldx	$1c                     ; 0x1c <__rc12>
    6e29: 8e 0e de     	stx	$de0e                   ; 0xde0e <__heap_start+0x4ef6>
    6e2c: a6 1d        	ldx	$1d                     ; 0x1d <__rc13>
    6e2e: 8e 0f de     	stx	$de0f                   ; 0xde0f <__heap_start+0x4ef7>
    6e31: ae 18 de     	ldx	$de18                   ; 0xde18 <__heap_start+0x4f00>
    6e34: 86 1c        	stx	$1c                     ; 0x1c <__rc12>
    6e36: ad 19 de     	lda	$de19                   ; 0xde19 <__heap_start+0x4f01>
    6e39: ae 1a de     	ldx	$de1a                   ; 0xde1a <__heap_start+0x4f02>
    6e3c: ae 1b de     	ldx	$de1b                   ; 0xde1b <__heap_start+0x4f03>
    6e3f: 85 1d        	sta	$1d                     ; 0x1d <__rc13>
    6e41: 64 15        	stz	$15                     ; 0x15 <__rc5>
    6e43: a2 20        	ldx	#$20
    6e45: 86 df        	stx	$df                     ; 0xdf <__zp_bss_size+0xaf>
    6e47: 80 13        	bra	$6e5c <textPrint+0x8b>
    6e49: a5 1c        	lda	$1c                     ; 0x1c <__rc12>
    6e4b: 18           	clc
    6e4c: 69 50        	adc	#$50
    6e4e: 85 1c        	sta	$1c                     ; 0x1c <__rc12>
    6e50: a5 1d        	lda	$1d                     ; 0x1d <__rc13>
    6e52: 69 00        	adc	#$0
    6e54: 85 1d        	sta	$1d                     ; 0x1d <__rc13>
    6e56: e6 14        	inc	$14                     ; 0x14 <__rc4>
    6e58: d0 02        	bne	$6e5c <textPrint+0x8b>
    6e5a: e6 15        	inc	$15                     ; 0x15 <__rc5>
    6e5c: a5 12        	lda	$12                     ; 0x12 <__rc2>
    6e5e: 18           	clc
    6e5f: 65 14        	adc	$14                     ; 0x14 <__rc4>
    6e61: 85 1e        	sta	$1e                     ; 0x1e <__rc14>
    6e63: a5 13        	lda	$13                     ; 0x13 <__rc3>
    6e65: 65 15        	adc	$15                     ; 0x15 <__rc5>
    6e67: 85 1f        	sta	$1f                     ; 0x1f <__rc15>
    6e69: b2 1e        	lda	($1e)                   ; 0x1e <__rc14>
    6e6b: c9 0a        	cmp	#$a
    6e6d: f0 2a        	beq	$6e99 <textPrint+0xc8>
    6e6f: c9 0d        	cmp	#$d
    6e71: f0 26        	beq	$6e99 <textPrint+0xc8>
    6e73: aa           	tax
    6e74: d0 03        	bne	$6e79 <textPrint+0xa8>
    6e76: 4c 88 6f     	jmp	$6f88 <textPrint+0x1b7>
    6e79: a2 03        	ldx	#$3
    6e7b: 86 01        	stx	$1                      ; 0x1 <__data_size+0x1>
    6e7d: a5 34        	lda	$34                     ; 0x34 <_ccolor>
    6e7f: 84 22        	sty	$22                     ; 0x22 <__rc18>
    6e81: a4 6a        	ldy	$6a                     ; 0x6a <_col>
    6e83: 91 1c        	sta	($1c),y                 ; 0x1c <__rc12>
    6e85: ca           	dex
    6e86: 86 01        	stx	$1                      ; 0x1 <__data_size+0x1>
    6e88: b2 1e        	lda	($1e)                   ; 0x1e <__rc14>
    6e8a: a4 6a        	ldy	$6a                     ; 0x6a <_col>
    6e8c: 91 1c        	sta	($1c),y                 ; 0x1c <__rc12>
    6e8e: a4 22        	ldy	$22                     ; 0x22 <__rc18>
    6e90: a6 6a        	ldx	$6a                     ; 0x6a <_col>
    6e92: e8           	inx
    6e93: e6 6a        	inc	$6a                     ; 0x6a <_col>
    6e95: e0 50        	cpx	#$50
    6e97: d0 bd        	bne	$6e56 <textPrint+0x85>
    6e99: 64 6a        	stz	$6a                     ; 0x6a <_col>
    6e9b: a6 6b        	ldx	$6b                     ; 0x6b <_row>
    6e9d: e8           	inx
    6e9e: e6 6b        	inc	$6b                     ; 0x6b <_row>
    6ea0: e0 1e        	cpx	#$1e
    6ea2: f0 03        	beq	$6ea7 <textPrint+0xd6>
    6ea4: 4c 49 6e     	jmp	$6e49 <textPrint+0x78>
    6ea7: a2 50        	ldx	#$50
    6ea9: 86 de        	stx	$de                     ; 0xde <__zp_bss_size+0xae>
    6eab: a2 03        	ldx	#$3
    6ead: 86 01        	stx	$1                      ; 0x1 <__data_size+0x1>
    6eaf: a2 01        	ldx	#$1
    6eb1: 86 1c        	stx	$1c                     ; 0x1c <__rc12>
    6eb3: a2 09        	ldx	#$9
    6eb5: a9 10        	lda	#$10
    6eb7: a0 00        	ldy	#$0
    6eb9: 84 1e        	sty	$1e                     ; 0x1e <__rc14>
    6ebb: a0 c0        	ldy	#$c0
    6ebd: 84 1f        	sty	$1f                     ; 0x1f <__rc15>
    6ebf: 85 1d        	sta	$1d                     ; 0x1d <__rc13>
    6ec1: a4 de        	ldy	$de                     ; 0xde <__zp_bss_size+0xae>
    6ec3: b1 1e        	lda	($1e),y                 ; 0x1e <__rc14>
    6ec5: 92 1e        	sta	($1e)                   ; 0x1e <__rc14>
    6ec7: a9 ff        	lda	#$ff
    6ec9: c6 1d        	dec	$1d                     ; 0x1d <__rc13>
    6ecb: c5 1d        	cmp	$1d                     ; 0x1d <__rc13>
    6ecd: d0 01        	bne	$6ed0 <textPrint+0xff>
    6ecf: ca           	dex
    6ed0: e6 1e        	inc	$1e                     ; 0x1e <__rc14>
    6ed2: d0 02        	bne	$6ed6 <textPrint+0x105>
    6ed4: e6 1f        	inc	$1f                     ; 0x1f <__rc15>
    6ed6: 8a           	txa
    6ed7: d0 ea        	bne	$6ec3 <textPrint+0xf2>
    6ed9: a5 1d        	lda	$1d                     ; 0x1d <__rc13>
    6edb: d0 e6        	bne	$6ec3 <textPrint+0xf2>
    6edd: a2 50        	ldx	#$50
    6edf: 86 de        	stx	$de                     ; 0xde <__zp_bss_size+0xae>
    6ee1: a2 02        	ldx	#$2
    6ee3: 86 01        	stx	$1                      ; 0x1 <__data_size+0x1>
    6ee5: a2 00        	ldx	#$0
    6ee7: a5 1c        	lda	$1c                     ; 0x1c <__rc12>
    6ee9: d0 c6        	bne	$6eb1 <textPrint+0xe0>
    6eeb: a2 03        	ldx	#$3
    6eed: 86 01        	stx	$1                      ; 0x1 <__data_size+0x1>
    6eef: a5 34        	lda	$34                     ; 0x34 <_ccolor>
    6ef1: a2 50        	ldx	#$50
    6ef3: a0 11        	ldy	#$11
    6ef5: 84 1c        	sty	$1c                     ; 0x1c <__rc12>
    6ef7: a0 c9        	ldy	#$c9
    6ef9: 84 1d        	sty	$1d                     ; 0x1d <__rc13>
    6efb: a0 10        	ldy	#$10
    6efd: 84 1e        	sty	$1e                     ; 0x1e <__rc14>
    6eff: a0 c9        	ldy	#$c9
    6f01: 84 1f        	sty	$1f                     ; 0x1f <__rc15>
    6f03: a4 1e        	ldy	$1e                     ; 0x1e <__rc14>
    6f05: 84 22        	sty	$22                     ; 0x22 <__rc18>
    6f07: a4 1f        	ldy	$1f                     ; 0x1f <__rc15>
    6f09: 84 23        	sty	$23                     ; 0x23 <__rc19>
    6f0b: a4 1c        	ldy	$1c                     ; 0x1c <__rc12>
    6f0d: 84 1e        	sty	$1e                     ; 0x1e <__rc14>
    6f0f: a4 1d        	ldy	$1d                     ; 0x1d <__rc13>
    6f11: 84 1f        	sty	$1f                     ; 0x1f <__rc15>
    6f13: 92 22        	sta	($22)                   ; 0x22 <__rc18>
    6f15: e6 1c        	inc	$1c                     ; 0x1c <__rc12>
    6f17: d0 02        	bne	$6f1b <textPrint+0x14a>
    6f19: e6 1d        	inc	$1d                     ; 0x1d <__rc13>
    6f1b: ca           	dex
    6f1c: d0 e5        	bne	$6f03 <textPrint+0x132>
    6f1e: a2 02        	ldx	#$2
    6f20: 86 01        	stx	$1                      ; 0x1 <__data_size+0x1>
    6f22: a2 50        	ldx	#$50
    6f24: a0 11        	ldy	#$11
    6f26: 84 1c        	sty	$1c                     ; 0x1c <__rc12>
    6f28: a0 c9        	ldy	#$c9
    6f2a: 84 1d        	sty	$1d                     ; 0x1d <__rc13>
    6f2c: a0 10        	ldy	#$10
    6f2e: 84 1e        	sty	$1e                     ; 0x1e <__rc14>
    6f30: a0 c9        	ldy	#$c9
    6f32: 84 1f        	sty	$1f                     ; 0x1f <__rc15>
    6f34: a5 df        	lda	$df                     ; 0xdf <__zp_bss_size+0xaf>
    6f36: a4 1e        	ldy	$1e                     ; 0x1e <__rc14>
    6f38: 84 22        	sty	$22                     ; 0x22 <__rc18>
    6f3a: a4 1f        	ldy	$1f                     ; 0x1f <__rc15>
    6f3c: 84 23        	sty	$23                     ; 0x23 <__rc19>
    6f3e: a4 1c        	ldy	$1c                     ; 0x1c <__rc12>
    6f40: 84 1e        	sty	$1e                     ; 0x1e <__rc14>
    6f42: a4 1d        	ldy	$1d                     ; 0x1d <__rc13>
    6f44: 84 1f        	sty	$1f                     ; 0x1f <__rc15>
    6f46: 92 22        	sta	($22)                   ; 0x22 <__rc18>
    6f48: e6 1c        	inc	$1c                     ; 0x1c <__rc12>
    6f4a: d0 02        	bne	$6f4e <textPrint+0x17d>
    6f4c: e6 1d        	inc	$1d                     ; 0x1d <__rc13>
    6f4e: ca           	dex
    6f4f: d0 e5        	bne	$6f36 <textPrint+0x165>
    6f51: a2 20        	ldx	#$20
    6f53: 86 df        	stx	$df                     ; 0xdf <__zp_bss_size+0xaf>
    6f55: c6 6b        	dec	$6b                     ; 0x6b <_row>
    6f57: 9c 08 de     	stz	$de08                   ; 0xde08 <__heap_start+0x4ef0>
    6f5a: a2 c0        	ldx	#$c0
    6f5c: 8e 09 de     	stx	$de09                   ; 0xde09 <__heap_start+0x4ef1>
    6f5f: 9c 0a de     	stz	$de0a                   ; 0xde0a <__heap_start+0x4ef2>
    6f62: 9c 0b de     	stz	$de0b                   ; 0xde0b <__heap_start+0x4ef3>
    6f65: a2 1d        	ldx	#$1d
    6f67: 8e 0c de     	stx	$de0c                   ; 0xde0c <__heap_start+0x4ef4>
    6f6a: 9c 0d de     	stz	$de0d                   ; 0xde0d <__heap_start+0x4ef5>
    6f6d: 9c 0e de     	stz	$de0e                   ; 0xde0e <__heap_start+0x4ef6>
    6f70: 9c 0f de     	stz	$de0f                   ; 0xde0f <__heap_start+0x4ef7>
    6f73: ae 18 de     	ldx	$de18                   ; 0xde18 <__heap_start+0x4f00>
    6f76: ac 19 de     	ldy	$de19                   ; 0xde19 <__heap_start+0x4f01>
    6f79: ad 1a de     	lda	$de1a                   ; 0xde1a <__heap_start+0x4f02>
    6f7c: ad 1b de     	lda	$de1b                   ; 0xde1b <__heap_start+0x4f03>
    6f7f: 86 1c        	stx	$1c                     ; 0x1c <__rc12>
    6f81: 84 1d        	sty	$1d                     ; 0x1d <__rc13>
    6f83: a4 de        	ldy	$de                     ; 0xde <__zp_bss_size+0xae>
    6f85: 4c 56 6e     	jmp	$6e56 <textPrint+0x85>
    6f88: a6 dd        	ldx	$dd                     ; 0xdd <__zp_bss_size+0xad>
    6f8a: 86 01        	stx	$1                      ; 0x1 <__data_size+0x1>
    6f8c: a6 6a        	ldx	$6a                     ; 0x6a <_col>
    6f8e: a4 6b        	ldy	$6b                     ; 0x6b <_row>
    6f90: 8e 14 d0     	stx	$d014                   ; 0xd014 <__heap_start+0x40fc>
    6f93: 9c 15 d0     	stz	$d015                   ; 0xd015 <__heap_start+0x40fd>
    6f96: 84 6b        	sty	$6b                     ; 0x6b <_row>
    6f98: 8c 16 d0     	sty	$d016                   ; 0xd016 <__heap_start+0x40fe>
    6f9b: 9c 17 d0     	stz	$d017                   ; 0xd017 <__heap_start+0x40ff>
    6f9e: 60           	rts

00006f9f <fileCloseDir>:
    6f9f: a2 7c        	ldx	#$7c
    6fa1: a0 00        	ldy	#$0
    6fa3: 86 14        	stx	$14                     ; 0x14 <__rc4>
    6fa5: 84 15        	sty	$15                     ; 0x15 <__rc5>
    6fa7: a2 7b        	ldx	#$7b
    6fa9: a0 00        	ldy	#$0
    6fab: b2 12        	lda	($12)                   ; 0x12 <__rc2>
    6fad: f0 20        	beq	$6fcf <fileCloseDir+0x30>
    6faf: 85 f3        	sta	$f3                     ; 0xf3 <__zp_bss_size+0xc3>
    6fb1: 86 16        	stx	$16                     ; 0x16 <__rc6>
    6fb3: 84 17        	sty	$17                     ; 0x17 <__rc7>
    6fb5: a9 69        	lda	#$69
    6fb7: 85 18        	sta	$18                     ; 0x18 <__rc8>
    6fb9: a9 00        	lda	#$0
    6fbb: 85 19        	sta	$19                     ; 0x19 <__rc9>
    6fbd: 20 80 ff     	jsr	$ff80 <__heap_start+0x7068>
    6fc0: 92 16        	sta	($16)                   ; 0x16 <__rc6>
    6fc2: a9 00        	lda	#$0
    6fc4: 6a           	ror
    6fc5: 85 18        	sta	$18                     ; 0x18 <__rc8>
    6fc7: a5 69        	lda	$69                     ; 0x69 <kernelError>
    6fc9: d0 04        	bne	$6fcf <fileCloseDir+0x30>
    6fcb: a9 00        	lda	#$0
    6fcd: 92 12        	sta	($12)                   ; 0x12 <__rc2>
    6fcf: 64 62        	stz	$62                     ; 0x62 <kernelEventData>
    6fd1: a9 69        	lda	#$69
    6fd3: 85 16        	sta	$16                     ; 0x16 <__rc6>
    6fd5: a9 00        	lda	#$0
    6fd7: 85 17        	sta	$17                     ; 0x17 <__rc7>
    6fd9: 20 00 ff     	jsr	$ff00 <__heap_start+0x6fe8>
    6fdc: 92 14        	sta	($14)                   ; 0x14 <__rc4>
    6fde: a9 00        	lda	#$0
    6fe0: 6a           	ror
    6fe1: 85 16        	sta	$16                     ; 0x16 <__rc6>
    6fe3: a5 62        	lda	$62                     ; 0x62 <kernelEventData>
    6fe5: c9 46        	cmp	#$46
    6fe7: d0 c2        	bne	$6fab <fileCloseDir+0xc>
    6fe9: 60           	rts

00006fea <fileOpenDir>:
    6fea: b2 12        	lda	($12)                   ; 0x12 <__rc2>
    6fec: a0 00        	ldy	#$0
    6fee: aa           	tax
    6fef: d0 03        	bne	$6ff4 <fileOpenDir+0xa>
    6ff1: 4c 50 70     	jmp	$7050 <fileOpenDir+0x66>
    6ff4: 85 16        	sta	$16                     ; 0x16 <__rc6>
    6ff6: a2 00        	ldx	#$0
    6ff8: 86 14        	stx	$14                     ; 0x14 <__rc4>
    6ffa: 98           	tya
    6ffb: c8           	iny
    6ffc: d0 01        	bne	$6fff <fileOpenDir+0x15>
    6ffe: e8           	inx
    6fff: 18           	clc
    7000: 65 12        	adc	$12                     ; 0x12 <__rc2>
    7002: 85 18        	sta	$18                     ; 0x18 <__rc8>
    7004: a5 14        	lda	$14                     ; 0x14 <__rc4>
    7006: 65 13        	adc	$13                     ; 0x13 <__rc3>
    7008: 84 17        	sty	$17                     ; 0x17 <__rc7>
    700a: a4 18        	ldy	$18                     ; 0x18 <__rc8>
    700c: 84 14        	sty	$14                     ; 0x14 <__rc4>
    700e: 85 15        	sta	$15                     ; 0x15 <__rc5>
    7010: a0 01        	ldy	#$1
    7012: b1 14        	lda	($14),y                 ; 0x14 <__rc4>
    7014: a4 17        	ldy	$17                     ; 0x17 <__rc7>
    7016: c9 00        	cmp	#$0
    7018: d0 de        	bne	$6ff8 <fileOpenDir+0xe>
    701a: 8a           	txa
    701b: d0 06        	bne	$7023 <fileOpenDir+0x39>
    701d: c0 02        	cpy	#$2
    701f: b0 06        	bcs	$7027 <fileOpenDir+0x3d>
    7021: 80 2b        	bra	$704e <fileOpenDir+0x64>
    7023: e0 00        	cpx	#$0
    7025: 90 27        	bcc	$704e <fileOpenDir+0x64>
    7027: a0 01        	ldy	#$1
    7029: b1 12        	lda	($12),y                 ; 0x12 <__rc2>
    702b: c9 3a        	cmp	#$3a
    702d: d0 1f        	bne	$704e <fileOpenDir+0x64>
    702f: a5 16        	lda	$16                     ; 0x16 <__rc6>
    7031: c9 30        	cmp	#$30
    7033: a0 00        	ldy	#$0
    7035: 90 08        	bcc	$703f <fileOpenDir+0x55>
    7037: c9 38        	cmp	#$38
    7039: b0 04        	bcs	$703f <fileOpenDir+0x55>
    703b: 18           	clc
    703c: 69 d0        	adc	#$d0
    703e: a8           	tay
    703f: a5 12        	lda	$12                     ; 0x12 <__rc2>
    7041: 18           	clc
    7042: 69 02        	adc	#$2
    7044: 85 12        	sta	$12                     ; 0x12 <__rc2>
    7046: a5 13        	lda	$13                     ; 0x13 <__rc3>
    7048: 69 00        	adc	#$0
    704a: 85 13        	sta	$13                     ; 0x13 <__rc3>
    704c: 80 02        	bra	$7050 <fileOpenDir+0x66>
    704e: a0 00        	ldy	#$0
    7050: a2 00        	ldx	#$0
    7052: 86 14        	stx	$14                     ; 0x14 <__rc4>
    7054: a2 00        	ldx	#$0
    7056: 86 15        	stx	$15                     ; 0x15 <__rc5>
    7058: be 81 8c     	ldx	$8c81,y                 ; 0x8c81 <_dirStream>
    705b: f0 03        	beq	$7060 <fileOpenDir+0x76>
    705d: 4c c2 70     	jmp	$70c2 <fileOpenDir+0xd8>
    7060: 84 1a        	sty	$1a                     ; 0x1a <__rc10>
    7062: 84 f3        	sty	$f3                     ; 0xf3 <__zp_bss_size+0xc3>
    7064: a6 12        	ldx	$12                     ; 0x12 <__rc2>
    7066: a4 13        	ldy	$13                     ; 0x13 <__rc3>
    7068: 86 fb        	stx	$fb                     ; 0xfb <__zp_bss_size+0xcb>
    706a: 84 fc        	sty	$fc                     ; 0xfc <__zp_bss_size+0xcc>
    706c: b2 12        	lda	($12)                   ; 0x12 <__rc2>
    706e: f0 30        	beq	$70a0 <fileOpenDir+0xb6>
    7070: 64 16        	stz	$16                     ; 0x16 <__rc6>
    7072: a0 01        	ldy	#$1
    7074: a9 00        	lda	#$0
    7076: aa           	tax
    7077: 5a           	phy
    7078: a4 16        	ldy	$16                     ; 0x16 <__rc6>
    707a: 84 17        	sty	$17                     ; 0x17 <__rc7>
    707c: 7a           	ply
    707d: e6 16        	inc	$16                     ; 0x16 <__rc6>
    707f: d0 01        	bne	$7082 <fileOpenDir+0x98>
    7081: e8           	inx
    7082: 18           	clc
    7083: 85 19        	sta	$19                     ; 0x19 <__rc9>
    7085: a5 17        	lda	$17                     ; 0x17 <__rc7>
    7087: 65 12        	adc	$12                     ; 0x12 <__rc2>
    7089: 85 18        	sta	$18                     ; 0x18 <__rc8>
    708b: a5 19        	lda	$19                     ; 0x19 <__rc9>
    708d: 65 13        	adc	$13                     ; 0x13 <__rc3>
    708f: 85 19        	sta	$19                     ; 0x19 <__rc9>
    7091: b1 18        	lda	($18),y                 ; 0x18 <__rc8>
    7093: 85 17        	sta	$17                     ; 0x17 <__rc7>
    7095: 8a           	txa
    7096: e6 17        	inc	$17                     ; 0x17 <__rc7>
    7098: c6 17        	dec	$17                     ; 0x17 <__rc7>
    709a: d0 db        	bne	$7077 <fileOpenDir+0x8d>
    709c: a6 16        	ldx	$16                     ; 0x16 <__rc6>
    709e: 80 02        	bra	$70a2 <fileOpenDir+0xb8>
    70a0: a2 00        	ldx	#$0
    70a2: 86 fd        	stx	$fd                     ; 0xfd <__zp_bss_size+0xcd>
    70a4: a2 7b        	ldx	#$7b
    70a6: a0 00        	ldy	#$0
    70a8: 86 12        	stx	$12                     ; 0x12 <__rc2>
    70aa: 84 13        	sty	$13                     ; 0x13 <__rc3>
    70ac: a2 69        	ldx	#$69
    70ae: 86 16        	stx	$16                     ; 0x16 <__rc6>
    70b0: a2 00        	ldx	#$0
    70b2: 86 17        	stx	$17                     ; 0x17 <__rc7>
    70b4: 20 78 ff     	jsr	$ff78 <__heap_start+0x7060>
    70b7: 92 12        	sta	($12)                   ; 0x12 <__rc2>
    70b9: a9 00        	lda	#$0
    70bb: 6a           	ror
    70bc: 85 16        	sta	$16                     ; 0x16 <__rc6>
    70be: a6 69        	ldx	$69                     ; 0x69 <kernelError>
    70c0: f0 09        	beq	$70cb <fileOpenDir+0xe1>
    70c2: a2 00        	ldx	#$0
    70c4: 86 12        	stx	$12                     ; 0x12 <__rc2>
    70c6: a2 00        	ldx	#$0
    70c8: 86 13        	stx	$13                     ; 0x13 <__rc3>
    70ca: 60           	rts
    70cb: a9 81        	lda	#$81
    70cd: 18           	clc
    70ce: 65 1a        	adc	$1a                     ; 0x1a <__rc10>
    70d0: 85 12        	sta	$12                     ; 0x12 <__rc2>
    70d2: a9 8c        	lda	#$8c
    70d4: 69 00        	adc	#$0
    70d6: 85 13        	sta	$13                     ; 0x13 <__rc3>
    70d8: a6 7b        	ldx	$7b                     ; 0x7b <__zp_bss_size+0x4b>
    70da: 86 1b        	stx	$1b                     ; 0x1b <__zp_data_size>
    70dc: a2 7c        	ldx	#$7c
    70de: a0 00        	ldy	#$0
    70e0: 86 16        	stx	$16                     ; 0x16 <__rc6>
    70e2: 84 17        	sty	$17                     ; 0x17 <__rc7>
    70e4: a2 69        	ldx	#$69
    70e6: 86 18        	stx	$18                     ; 0x18 <__rc8>
    70e8: a2 00        	ldx	#$0
    70ea: 86 19        	stx	$19                     ; 0x19 <__rc9>
    70ec: 64 62        	stz	$62                     ; 0x62 <kernelEventData>
    70ee: 20 00 ff     	jsr	$ff00 <__heap_start+0x6fe8>
    70f1: 92 16        	sta	($16)                   ; 0x16 <__rc6>
    70f3: a9 00        	lda	#$0
    70f5: 6a           	ror
    70f6: 85 18        	sta	$18                     ; 0x18 <__rc8>
    70f8: a6 62        	ldx	$62                     ; 0x62 <kernelEventData>
    70fa: e0 48        	cpx	#$48
    70fc: f0 c4        	beq	$70c2 <fileOpenDir+0xd8>
    70fe: e0 3c        	cpx	#$3c
    7100: d0 ea        	bne	$70ec <fileOpenDir+0x102>
    7102: a6 1a        	ldx	$1a                     ; 0x1a <__rc10>
    7104: a5 1b        	lda	$1b                     ; 0x1b <__zp_data_size>
    7106: 9d 81 8c     	sta	$8c81,x                 ; 0x8c81 <_dirStream>
    7109: 60           	rts

0000710a <fileReadDir>:
    710a: b2 12        	lda	($12)                   ; 0x12 <__rc2>
    710c: 85 f3        	sta	$f3                     ; 0xf3 <__zp_bss_size+0xc3>
    710e: a2 7b        	ldx	#$7b
    7110: a0 00        	ldy	#$0
    7112: 86 14        	stx	$14                     ; 0x14 <__rc4>
    7114: 84 15        	sty	$15                     ; 0x15 <__rc5>
    7116: a2 69        	ldx	#$69
    7118: 86 16        	stx	$16                     ; 0x16 <__rc6>
    711a: a2 00        	ldx	#$0
    711c: 86 17        	stx	$17                     ; 0x17 <__rc7>
    711e: 20 7c ff     	jsr	$ff7c <__heap_start+0x7064>
    7121: 92 14        	sta	($14)                   ; 0x14 <__rc4>
    7123: a9 00        	lda	#$0
    7125: 6a           	ror
    7126: 85 16        	sta	$16                     ; 0x16 <__rc6>
    7128: a6 69        	ldx	$69                     ; 0x69 <kernelError>
    712a: a0 00        	ldy	#$0
    712c: 84 14        	sty	$14                     ; 0x14 <__rc4>
    712e: a0 00        	ldy	#$0
    7130: 84 15        	sty	$15                     ; 0x15 <__rc5>
    7132: 8a           	txa
    7133: f0 09        	beq	$713e <fileReadDir+0x34>
    7135: a6 14        	ldx	$14                     ; 0x14 <__rc4>
    7137: 86 12        	stx	$12                     ; 0x12 <__rc2>
    7139: a6 15        	ldx	$15                     ; 0x15 <__rc5>
    713b: 86 13        	stx	$13                     ; 0x13 <__rc3>
    713d: 60           	rts
    713e: a2 7c        	ldx	#$7c
    7140: a0 00        	ldy	#$0
    7142: 86 16        	stx	$16                     ; 0x16 <__rc6>
    7144: 84 17        	sty	$17                     ; 0x17 <__rc7>
    7146: a2 7e        	ldx	#$7e
    7148: 86 1c        	stx	$1c                     ; 0x1c <__rc12>
    714a: a0 00        	ldy	#$0
    714c: 80 20        	bra	$716e <fileReadDir+0x64>
    714e: b2 12        	lda	($12)                   ; 0x12 <__rc2>
    7150: 85 f3        	sta	$f3                     ; 0xf3 <__zp_bss_size+0xc3>
    7152: a6 1c        	ldx	$1c                     ; 0x1c <__rc12>
    7154: 86 18        	stx	$18                     ; 0x18 <__rc8>
    7156: 84 19        	sty	$19                     ; 0x19 <__rc9>
    7158: a2 69        	ldx	#$69
    715a: 86 1a        	stx	$1a                     ; 0x1a <__rc10>
    715c: a2 00        	ldx	#$0
    715e: 86 1b        	stx	$1b                     ; 0x1b <__zp_data_size>
    7160: 20 7c ff     	jsr	$ff7c <__heap_start+0x7064>
    7163: 92 18        	sta	($18)                   ; 0x18 <__rc8>
    7165: a9 00        	lda	#$0
    7167: 6a           	ror
    7168: 85 1a        	sta	$1a                     ; 0x1a <__rc10>
    716a: a6 69        	ldx	$69                     ; 0x69 <kernelError>
    716c: d0 c7        	bne	$7135 <fileReadDir+0x2b>
    716e: 64 62        	stz	$62                     ; 0x62 <kernelEventData>
    7170: a9 69        	lda	#$69
    7172: 85 18        	sta	$18                     ; 0x18 <__rc8>
    7174: a9 00        	lda	#$0
    7176: 85 19        	sta	$19                     ; 0x19 <__rc9>
    7178: 20 00 ff     	jsr	$ff00 <__heap_start+0x6fe8>
    717b: 92 16        	sta	($16)                   ; 0x16 <__rc6>
    717d: a9 00        	lda	#$0
    717f: 6a           	ror
    7180: 85 18        	sta	$18                     ; 0x18 <__rc8>
    7182: a9 c2        	lda	#$c2
    7184: 18           	clc
    7185: 65 62        	adc	$62                     ; 0x62 <kernelEventData>
    7187: c9 0b        	cmp	#$b
    7189: b0 e3        	bcs	$716e <fileReadDir+0x64>
    718b: 0a           	asl
    718c: aa           	tax
    718d: 7c ec 88     	jmp	($88ec,x)               ; 0x88ec <__BLOCK_SIZE+0x68ec>
    7190: 9c 89 8c     	stz	$8c89                   ; 0x8c89 <fileReadDir.fileDirEntS>
    7193: a2 02        	ldx	#$2
    7195: 80 2d        	bra	$71c4 <fileReadDir+0xba>
    7197: a2 89        	ldx	#$89
    7199: a0 8c        	ldy	#$8c
    719b: 86 fb        	stx	$fb                     ; 0xfb <__zp_bss_size+0xcb>
    719d: 84 fc        	sty	$fc                     ; 0xfc <__zp_bss_size+0xcc>
    719f: a2 01        	ldx	#$1
    71a1: 86 fd        	stx	$fd                     ; 0xfd <__zp_bss_size+0xcd>
    71a3: a0 7d        	ldy	#$7d
    71a5: a9 00        	lda	#$0
    71a7: 84 12        	sty	$12                     ; 0x12 <__rc2>
    71a9: 85 13        	sta	$13                     ; 0x13 <__rc3>
    71ab: a0 69        	ldy	#$69
    71ad: 84 14        	sty	$14                     ; 0x14 <__rc4>
    71af: a0 00        	ldy	#$0
    71b1: 84 15        	sty	$15                     ; 0x15 <__rc5>
    71b3: 20 08 ff     	jsr	$ff08 <__heap_start+0x6ff0>
    71b6: 92 12        	sta	($12)                   ; 0x12 <__rc2>
    71b8: a9 00        	lda	#$0
    71ba: 6a           	ror
    71bb: 85 14        	sta	$14                     ; 0x14 <__rc4>
    71bd: ac 89 8c     	ldy	$8c89                   ; 0x8c89 <fileReadDir.fileDirEntS>
    71c0: f0 02        	beq	$71c4 <fileReadDir+0xba>
    71c2: a2 00        	ldx	#$0
    71c4: 8e 8a 8c     	stx	$8c8a                   ; 0x8c8a <fileReadDir.fileDirEntS+0x1>
    71c7: a6 67        	ldx	$67                     ; 0x67 <kernelEventData+0x5>
    71c9: f0 24        	beq	$71ef <fileReadDir+0xe5>
    71cb: a0 8b        	ldy	#$8b
    71cd: a9 8c        	lda	#$8c
    71cf: 84 fb        	sty	$fb                     ; 0xfb <__zp_bss_size+0xcb>
    71d1: 85 fc        	sta	$fc                     ; 0xfc <__zp_bss_size+0xcc>
    71d3: 86 fd        	stx	$fd                     ; 0xfd <__zp_bss_size+0xcd>
    71d5: a0 7f        	ldy	#$7f
    71d7: a9 00        	lda	#$0
    71d9: 84 12        	sty	$12                     ; 0x12 <__rc2>
    71db: 85 13        	sta	$13                     ; 0x13 <__rc3>
    71dd: a0 69        	ldy	#$69
    71df: 84 14        	sty	$14                     ; 0x14 <__rc4>
    71e1: a0 00        	ldy	#$0
    71e3: 84 15        	sty	$15                     ; 0x15 <__rc5>
    71e5: 20 04 ff     	jsr	$ff04 <__heap_start+0x6fec>
    71e8: 92 12        	sta	($12)                   ; 0x12 <__rc2>
    71ea: a9 00        	lda	#$0
    71ec: 6a           	ror
    71ed: 85 14        	sta	$14                     ; 0x14 <__rc4>
    71ef: 9e 8b 8c     	stz	$8c8b,x                 ; 0x8c8b <fileReadDir.fileDirEntS+0x2>
    71f2: a2 89        	ldx	#$89
    71f4: 86 14        	stx	$14                     ; 0x14 <__rc4>
    71f6: a2 8c        	ldx	#$8c
    71f8: 86 15        	stx	$15                     ; 0x15 <__rc5>
    71fa: 4c 35 71     	jmp	$7135 <fileReadDir+0x2b>

000071fd <exit>:
    71fd: 20 33 03     	jsr	$333 <_fini>
    7200: 80 fe        	bra	$7200 <exit+0x3>

00007202 <_ZN12_GLOBAL__N_15printEPKcP6Status>:
    7202: a6 14        	ldx	$14                     ; 0x14 <__rc4>
    7204: 86 9e        	stx	$9e                     ; 0x9e <__zp_bss_size+0x6e>
    7206: a6 15        	ldx	$15                     ; 0x15 <__rc5>
    7208: 86 9f        	stx	$9f                     ; 0x9f <__zp_bss_size+0x6f>
    720a: a6 12        	ldx	$12                     ; 0x12 <__rc2>
    720c: 86 14        	stx	$14                     ; 0x14 <__rc4>
    720e: a6 13        	ldx	$13                     ; 0x13 <__rc3>
    7210: 86 15        	stx	$15                     ; 0x15 <__rc5>
    7212: e6 14        	inc	$14                     ; 0x14 <__rc4>
    7214: d0 02        	bne	$7218 <_ZN12_GLOBAL__N_15printEPKcP6Status+0x16>
    7216: e6 15        	inc	$15                     ; 0x15 <__rc5>
    7218: a0 01        	ldy	#$1
    721a: b1 12        	lda	($12),y                 ; 0x12 <__rc2>
    721c: c9 25        	cmp	#$25
    721e: d0 23        	bne	$7243 <_ZN12_GLOBAL__N_15printEPKcP6Status+0x41>
    7220: a9 25        	lda	#$25
    7222: a6 12        	ldx	$12                     ; 0x12 <__rc2>
    7224: 86 a0        	stx	$a0                     ; 0xa0 <__zp_bss_size+0x70>
    7226: a6 13        	ldx	$13                     ; 0x13 <__rc3>
    7228: 86 a1        	stx	$a1                     ; 0xa1 <__zp_bss_size+0x71>
    722a: a6 9e        	ldx	$9e                     ; 0x9e <__zp_bss_size+0x6e>
    722c: 86 12        	stx	$12                     ; 0x12 <__rc2>
    722e: a6 9f        	ldx	$9f                     ; 0x9f <__zp_bss_size+0x6f>
    7230: 86 13        	stx	$13                     ; 0x13 <__rc3>
    7232: 20 78 7d     	jsr	$7d78 <_ZN12_GLOBAL__N_13putEcP6Status>
    7235: a5 a0        	lda	$a0                     ; 0xa0 <__zp_bss_size+0x70>
    7237: 18           	clc
    7238: 69 02        	adc	#$2
    723a: 85 12        	sta	$12                     ; 0x12 <__rc2>
    723c: a5 a1        	lda	$a1                     ; 0xa1 <__zp_bss_size+0x71>
    723e: 69 00        	adc	#$0
    7240: 85 13        	sta	$13                     ; 0x13 <__rc3>
    7242: 60           	rts
    7243: a6 9e        	ldx	$9e                     ; 0x9e <__zp_bss_size+0x6e>
    7245: a5 9e        	lda	$9e                     ; 0x9e <__zp_bss_size+0x6e>
    7247: 86 17        	stx	$17                     ; 0x17 <__rc7>
    7249: 18           	clc
    724a: 69 0b        	adc	#$b
    724c: 85 18        	sta	$18                     ; 0x18 <__rc8>
    724e: a5 9f        	lda	$9f                     ; 0x9f <__zp_bss_size+0x6f>
    7250: 69 00        	adc	#$0
    7252: a2 10        	ldx	#$10
    7254: 86 a5        	stx	$a5                     ; 0xa5 <__zp_bss_size+0x75>
    7256: 85 19        	sta	$19                     ; 0x19 <__rc9>
    7258: a0 0b        	ldy	#$b
    725a: a9 00        	lda	#$0
    725c: 91 9e        	sta	($9e),y                 ; 0x9e <__zp_bss_size+0x6e>
    725e: 18           	clc
    725f: a5 17        	lda	$17                     ; 0x17 <__rc7>
    7261: 69 0d        	adc	#$d
    7263: a8           	tay
    7264: a5 9f        	lda	$9f                     ; 0x9f <__zp_bss_size+0x6f>
    7266: 69 00        	adc	#$0
    7268: a2 02        	ldx	#$2
    726a: 86 1f        	stx	$1f                     ; 0x1f <__rc15>
    726c: 84 16        	sty	$16                     ; 0x16 <__rc6>
    726e: a0 0d        	ldy	#$d
    7270: 85 17        	sta	$17                     ; 0x17 <__rc7>
    7272: a9 ff        	lda	#$ff
    7274: 91 9e        	sta	($9e),y                 ; 0x9e <__zp_bss_size+0x6e>
    7276: a0 01        	ldy	#$1
    7278: 91 16        	sta	($16),y                 ; 0x16 <__rc6>
    727a: 18           	clc
    727b: a2 00        	ldx	#$0
    727d: 86 cb        	stx	$cb                     ; 0xcb <__zp_bss_size+0x9b>
    727f: a6 9e        	ldx	$9e                     ; 0x9e <__zp_bss_size+0x6e>
    7281: 86 16        	stx	$16                     ; 0x16 <__rc6>
    7283: a6 9f        	ldx	$9f                     ; 0x9f <__zp_bss_size+0x6f>
    7285: 86 17        	stx	$17                     ; 0x17 <__rc7>
    7287: e6 16        	inc	$16                     ; 0x16 <__rc6>
    7289: d0 02        	bne	$728d <_ZN12_GLOBAL__N_15printEPKcP6Status+0x8b>
    728b: e6 17        	inc	$17                     ; 0x17 <__rc7>
    728d: a9 00        	lda	#$0
    728f: 91 9e        	sta	($9e),y                 ; 0x9e <__zp_bss_size+0x6e>
    7291: 91 16        	sta	($16),y                 ; 0x16 <__rc6>
    7293: 92 9e        	sta	($9e)                   ; 0x9e <__zp_bss_size+0x6e>
    7295: 91 18        	sta	($18),y                 ; 0x18 <__rc8>
    7297: 64 a4        	stz	$a4                     ; 0xa4 <__zp_bss_size+0x74>
    7299: 80 33        	bra	$72ce <_ZN12_GLOBAL__N_15printEPKcP6Status+0xcc>
    729b: a2 02        	ldx	#$2
    729d: 80 15        	bra	$72b4 <_ZN12_GLOBAL__N_15printEPKcP6Status+0xb2>
    729f: e0 20        	cpx	#$20
    72a1: f0 15        	beq	$72b8 <_ZN12_GLOBAL__N_15printEPKcP6Status+0xb6>
    72a3: 86 19        	stx	$19                     ; 0x19 <__rc9>
    72a5: e0 23        	cpx	#$23
    72a7: f0 03        	beq	$72ac <_ZN12_GLOBAL__N_15printEPKcP6Status+0xaa>
    72a9: 4c 1d 73     	jmp	$731d <_ZN12_GLOBAL__N_15printEPKcP6Status+0x11b>
    72ac: a5 a4        	lda	$a4                     ; 0xa4 <__zp_bss_size+0x74>
    72ae: a2 04        	ldx	#$4
    72b0: 80 02        	bra	$72b4 <_ZN12_GLOBAL__N_15printEPKcP6Status+0xb2>
    72b2: a2 10        	ldx	#$10
    72b4: 86 18        	stx	$18                     ; 0x18 <__rc8>
    72b6: 80 06        	bra	$72be <_ZN12_GLOBAL__N_15printEPKcP6Status+0xbc>
    72b8: a2 08        	ldx	#$8
    72ba: 86 18        	stx	$18                     ; 0x18 <__rc8>
    72bc: a5 a4        	lda	$a4                     ; 0xa4 <__zp_bss_size+0x74>
    72be: 05 18        	ora	$18                     ; 0x18 <__rc8>
    72c0: 85 a4        	sta	$a4                     ; 0xa4 <__zp_bss_size+0x74>
    72c2: 91 9e        	sta	($9e),y                 ; 0x9e <__zp_bss_size+0x6e>
    72c4: a9 00        	lda	#$0
    72c6: 91 16        	sta	($16),y                 ; 0x16 <__rc6>
    72c8: e6 14        	inc	$14                     ; 0x14 <__rc4>
    72ca: d0 02        	bne	$72ce <_ZN12_GLOBAL__N_15printEPKcP6Status+0xcc>
    72cc: e6 15        	inc	$15                     ; 0x15 <__rc5>
    72ce: b2 14        	lda	($14)                   ; 0x14 <__rc4>
    72d0: 18           	clc
    72d1: aa           	tax
    72d2: 69 d6        	adc	#$d6
    72d4: c9 07        	cmp	#$7
    72d6: b0 c7        	bcs	$729f <_ZN12_GLOBAL__N_15printEPKcP6Status+0x9d>
    72d8: 86 19        	stx	$19                     ; 0x19 <__rc9>
    72da: 0a           	asl
    72db: aa           	tax
    72dc: a9 01        	lda	#$1
    72de: 85 18        	sta	$18                     ; 0x18 <__rc8>
    72e0: a5 a4        	lda	$a4                     ; 0xa4 <__zp_bss_size+0x74>
    72e2: 7c 02 89     	jmp	($8902,x)               ; 0x8902 <__BLOCK_SIZE+0x6902>
    72e5: a0 11        	ldy	#$11
    72e7: a5 9e        	lda	$9e                     ; 0x9e <__zp_bss_size+0x6e>
    72e9: 18           	clc
    72ea: 69 11        	adc	#$11
    72ec: 85 16        	sta	$16                     ; 0x16 <__rc6>
    72ee: a5 9f        	lda	$9f                     ; 0x9f <__zp_bss_size+0x6f>
    72f0: 69 00        	adc	#$0
    72f2: 85 17        	sta	$17                     ; 0x17 <__rc7>
    72f4: b1 9e        	lda	($9e),y                 ; 0x9e <__zp_bss_size+0x6e>
    72f6: 85 18        	sta	$18                     ; 0x18 <__rc8>
    72f8: 18           	clc
    72f9: 69 02        	adc	#$2
    72fb: 91 9e        	sta	($9e),y                 ; 0x9e <__zp_bss_size+0x6e>
    72fd: a0 01        	ldy	#$1
    72ff: b1 16        	lda	($16),y                 ; 0x16 <__rc6>
    7301: 85 19        	sta	$19                     ; 0x19 <__rc9>
    7303: 69 00        	adc	#$0
    7305: 91 16        	sta	($16),y                 ; 0x16 <__rc6>
    7307: b2 18        	lda	($18)                   ; 0x18 <__rc8>
    7309: 85 17        	sta	$17                     ; 0x17 <__rc7>
    730b: b1 18        	lda	($18),y                 ; 0x18 <__rc8>
    730d: 85 16        	sta	$16                     ; 0x16 <__rc6>
    730f: 10 03        	bpl	$7314 <_ZN12_GLOBAL__N_15printEPKcP6Status+0x112>
    7311: 4c b2 73     	jmp	$73b2 <_ZN12_GLOBAL__N_15printEPKcP6Status+0x1b0>
    7314: a6 17        	ldx	$17                     ; 0x17 <__rc7>
    7316: 86 1b        	stx	$1b                     ; 0x1b <__zp_data_size>
    7318: 85 1a        	sta	$1a                     ; 0x1a <__rc10>
    731a: 4c db 73     	jmp	$73db <_ZN12_GLOBAL__N_15printEPKcP6Status+0x1d9>
    731d: 18           	clc
    731e: a5 19        	lda	$19                     ; 0x19 <__rc9>
    7320: 69 d0        	adc	#$d0
    7322: c9 0a        	cmp	#$a
    7324: 90 03        	bcc	$7329 <_ZN12_GLOBAL__N_15printEPKcP6Status+0x127>
    7326: 4c 8c 73     	jmp	$738c <_ZN12_GLOBAL__N_15printEPKcP6Status+0x18a>
    7329: a6 19        	ldx	$19                     ; 0x19 <__rc9>
    732b: 86 16        	stx	$16                     ; 0x16 <__rc6>
    732d: 64 18        	stz	$18                     ; 0x18 <__rc8>
    732f: a0 01        	ldy	#$1
    7331: 64 17        	stz	$17                     ; 0x17 <__rc7>
    7333: 64 19        	stz	$19                     ; 0x19 <__rc9>
    7335: 06 18        	asl	$18                     ; 0x18 <__rc8>
    7337: 26 19        	rol	$19                     ; 0x19 <__rc9>
    7339: a5 18        	lda	$18                     ; 0x18 <__rc8>
    733b: 0a           	asl
    733c: aa           	tax
    733d: a5 19        	lda	$19                     ; 0x19 <__rc9>
    733f: 2a           	rol
    7340: 86 1a        	stx	$1a                     ; 0x1a <__rc10>
    7342: 06 1a        	asl	$1a                     ; 0x1a <__rc10>
    7344: 2a           	rol
    7345: aa           	tax
    7346: a9 00        	lda	#$0
    7348: 85 1b        	sta	$1b                     ; 0x1b <__zp_data_size>
    734a: a5 1a        	lda	$1a                     ; 0x1a <__rc10>
    734c: 5a           	phy
    734d: a4 1b        	ldy	$1b                     ; 0x1b <__zp_data_size>
    734f: c0 01        	cpy	#$1
    7351: 7a           	ply
    7352: 65 18        	adc	$18                     ; 0x18 <__rc8>
    7354: 85 18        	sta	$18                     ; 0x18 <__rc8>
    7356: 8a           	txa
    7357: 65 19        	adc	$19                     ; 0x19 <__rc9>
    7359: 85 19        	sta	$19                     ; 0x19 <__rc9>
    735b: a5 18        	lda	$18                     ; 0x18 <__rc8>
    735d: a6 1b        	ldx	$1b                     ; 0x1b <__zp_data_size>
    735f: e0 01        	cpx	#$1
    7361: 65 16        	adc	$16                     ; 0x16 <__rc6>
    7363: 85 16        	sta	$16                     ; 0x16 <__rc6>
    7365: a5 19        	lda	$19                     ; 0x19 <__rc9>
    7367: 65 17        	adc	$17                     ; 0x17 <__rc7>
    7369: aa           	tax
    736a: 18           	clc
    736b: a5 16        	lda	$16                     ; 0x16 <__rc6>
    736d: 69 d0        	adc	#$d0
    736f: 85 18        	sta	$18                     ; 0x18 <__rc8>
    7371: 8a           	txa
    7372: 69 ff        	adc	#$ff
    7374: 85 19        	sta	$19                     ; 0x19 <__rc9>
    7376: b1 14        	lda	($14),y                 ; 0x14 <__rc4>
    7378: 85 16        	sta	$16                     ; 0x16 <__rc6>
    737a: 18           	clc
    737b: 69 d0        	adc	#$d0
    737d: e6 14        	inc	$14                     ; 0x14 <__rc4>
    737f: d0 02        	bne	$7383 <_ZN12_GLOBAL__N_15printEPKcP6Status+0x181>
    7381: e6 15        	inc	$15                     ; 0x15 <__rc5>
    7383: c9 0a        	cmp	#$a
    7385: 64 17        	stz	$17                     ; 0x17 <__rc7>
    7387: b0 07        	bcs	$7390 <_ZN12_GLOBAL__N_15printEPKcP6Status+0x18e>
    7389: 4c 35 73     	jmp	$7335 <_ZN12_GLOBAL__N_15printEPKcP6Status+0x133>
    738c: 64 18        	stz	$18                     ; 0x18 <__rc8>
    738e: 64 19        	stz	$19                     ; 0x19 <__rc9>
    7390: a5 9e        	lda	$9e                     ; 0x9e <__zp_bss_size+0x6e>
    7392: 18           	clc
    7393: 69 0b        	adc	#$b
    7395: 85 16        	sta	$16                     ; 0x16 <__rc6>
    7397: a5 9f        	lda	$9f                     ; 0x9f <__zp_bss_size+0x6f>
    7399: 69 00        	adc	#$0
    739b: 85 17        	sta	$17                     ; 0x17 <__rc7>
    739d: a0 0b        	ldy	#$b
    739f: a5 18        	lda	$18                     ; 0x18 <__rc8>
    73a1: 91 9e        	sta	($9e),y                 ; 0x9e <__zp_bss_size+0x6e>
    73a3: a6 18        	ldx	$18                     ; 0x18 <__rc8>
    73a5: a0 01        	ldy	#$1
    73a7: a5 19        	lda	$19                     ; 0x19 <__rc9>
    73a9: 91 16        	sta	($16),y                 ; 0x16 <__rc6>
    73ab: 86 16        	stx	$16                     ; 0x16 <__rc6>
    73ad: 85 17        	sta	$17                     ; 0x17 <__rc7>
    73af: 4c 04 74     	jmp	$7404 <_ZN12_GLOBAL__N_15printEPKcP6Status+0x202>
    73b2: a5 a4        	lda	$a4                     ; 0xa4 <__zp_bss_size+0x74>
    73b4: 09 01        	ora	#$1
    73b6: aa           	tax
    73b7: a5 9e        	lda	$9e                     ; 0x9e <__zp_bss_size+0x6e>
    73b9: 85 18        	sta	$18                     ; 0x18 <__rc8>
    73bb: a5 9f        	lda	$9f                     ; 0x9f <__zp_bss_size+0x6f>
    73bd: 85 19        	sta	$19                     ; 0x19 <__rc9>
    73bf: 38           	sec
    73c0: a9 00        	lda	#$0
    73c2: e5 17        	sbc	$17                     ; 0x17 <__rc7>
    73c4: 85 1b        	sta	$1b                     ; 0x1b <__zp_data_size>
    73c6: a9 00        	lda	#$0
    73c8: e5 16        	sbc	$16                     ; 0x16 <__rc6>
    73ca: 85 1a        	sta	$1a                     ; 0x1a <__rc10>
    73cc: e6 18        	inc	$18                     ; 0x18 <__rc8>
    73ce: d0 02        	bne	$73d2 <_ZN12_GLOBAL__N_15printEPKcP6Status+0x1d0>
    73d0: e6 19        	inc	$19                     ; 0x19 <__rc9>
    73d2: 8a           	txa
    73d3: 86 a4        	stx	$a4                     ; 0xa4 <__zp_bss_size+0x74>
    73d5: 91 9e        	sta	($9e),y                 ; 0x9e <__zp_bss_size+0x6e>
    73d7: a9 00        	lda	#$0
    73d9: 91 18        	sta	($18),y                 ; 0x18 <__rc8>
    73db: a2 01        	ldx	#$1
    73dd: a5 9e        	lda	$9e                     ; 0x9e <__zp_bss_size+0x6e>
    73df: 18           	clc
    73e0: 69 0b        	adc	#$b
    73e2: 85 16        	sta	$16                     ; 0x16 <__rc6>
    73e4: a5 9f        	lda	$9f                     ; 0x9f <__zp_bss_size+0x6f>
    73e6: 69 00        	adc	#$0
    73e8: 85 17        	sta	$17                     ; 0x17 <__rc7>
    73ea: a0 0b        	ldy	#$b
    73ec: a5 1b        	lda	$1b                     ; 0x1b <__zp_data_size>
    73ee: 91 9e        	sta	($9e),y                 ; 0x9e <__zp_bss_size+0x6e>
    73f0: 85 18        	sta	$18                     ; 0x18 <__rc8>
    73f2: a5 1a        	lda	$1a                     ; 0x1a <__rc10>
    73f4: a0 01        	ldy	#$1
    73f6: 91 16        	sta	($16),y                 ; 0x16 <__rc6>
    73f8: a6 18        	ldx	$18                     ; 0x18 <__rc8>
    73fa: 86 16        	stx	$16                     ; 0x16 <__rc6>
    73fc: 85 17        	sta	$17                     ; 0x17 <__rc7>
    73fe: e6 14        	inc	$14                     ; 0x14 <__rc4>
    7400: d0 02        	bne	$7404 <_ZN12_GLOBAL__N_15printEPKcP6Status+0x202>
    7402: e6 15        	inc	$15                     ; 0x15 <__rc5>
    7404: b2 14        	lda	($14)                   ; 0x14 <__rc4>
    7406: a2 ff        	ldx	#$ff
    7408: c9 2e        	cmp	#$2e
    740a: f0 03        	beq	$740f <_ZN12_GLOBAL__N_15printEPKcP6Status+0x20d>
    740c: 4c 94 74     	jmp	$7494 <_ZN12_GLOBAL__N_15printEPKcP6Status+0x292>
    740f: a6 14        	ldx	$14                     ; 0x14 <__rc4>
    7411: 86 18        	stx	$18                     ; 0x18 <__rc8>
    7413: a6 15        	ldx	$15                     ; 0x15 <__rc5>
    7415: 86 19        	stx	$19                     ; 0x19 <__rc9>
    7417: e6 18        	inc	$18                     ; 0x18 <__rc8>
    7419: d0 02        	bne	$741d <_ZN12_GLOBAL__N_15printEPKcP6Status+0x21b>
    741b: e6 19        	inc	$19                     ; 0x19 <__rc9>
    741d: a0 01        	ldy	#$1
    741f: b1 14        	lda	($14),y                 ; 0x14 <__rc4>
    7421: c9 2a        	cmp	#$2a
    7423: f0 03        	beq	$7428 <_ZN12_GLOBAL__N_15printEPKcP6Status+0x226>
    7425: 4c 9b 74     	jmp	$749b <_ZN12_GLOBAL__N_15printEPKcP6Status+0x299>
    7428: 84 19        	sty	$19                     ; 0x19 <__rc9>
    742a: a0 11        	ldy	#$11
    742c: b1 9e        	lda	($9e),y                 ; 0x9e <__zp_bss_size+0x6e>
    742e: 85 18        	sta	$18                     ; 0x18 <__rc8>
    7430: 18           	clc
    7431: 69 02        	adc	#$2
    7433: a2 01        	ldx	#$1
    7435: b0 02        	bcs	$7439 <_ZN12_GLOBAL__N_15printEPKcP6Status+0x237>
    7437: a2 00        	ldx	#$0
    7439: 86 1d        	stx	$1d                     ; 0x1d <__rc13>
    743b: 91 9e        	sta	($9e),y                 ; 0x9e <__zp_bss_size+0x6e>
    743d: a5 9e        	lda	$9e                     ; 0x9e <__zp_bss_size+0x6e>
    743f: 18           	clc
    7440: 69 11        	adc	#$11
    7442: 85 1a        	sta	$1a                     ; 0x1a <__rc10>
    7444: a5 9f        	lda	$9f                     ; 0x9f <__zp_bss_size+0x6f>
    7446: 69 00        	adc	#$0
    7448: 85 1b        	sta	$1b                     ; 0x1b <__zp_data_size>
    744a: a4 19        	ldy	$19                     ; 0x19 <__rc9>
    744c: b1 1a        	lda	($1a),y                 ; 0x1a <__rc10>
    744e: 85 19        	sta	$19                     ; 0x19 <__rc9>
    7450: a6 1d        	ldx	$1d                     ; 0x1d <__rc13>
    7452: e0 01        	cpx	#$1
    7454: 69 00        	adc	#$0
    7456: 91 1a        	sta	($1a),y                 ; 0x1a <__rc10>
    7458: b2 18        	lda	($18)                   ; 0x18 <__rc8>
    745a: 85 1b        	sta	$1b                     ; 0x1b <__zp_data_size>
    745c: 18           	clc
    745d: a5 9e        	lda	$9e                     ; 0x9e <__zp_bss_size+0x6e>
    745f: 69 0d        	adc	#$d
    7461: 85 1a        	sta	$1a                     ; 0x1a <__rc10>
    7463: a5 9f        	lda	$9f                     ; 0x9f <__zp_bss_size+0x6f>
    7465: 69 00        	adc	#$0
    7467: aa           	tax
    7468: b1 18        	lda	($18),y                 ; 0x18 <__rc8>
    746a: 84 1d        	sty	$1d                     ; 0x1d <__rc13>
    746c: 85 1c        	sta	$1c                     ; 0x1c <__rc12>
    746e: a4 1a        	ldy	$1a                     ; 0x1a <__rc10>
    7470: 84 18        	sty	$18                     ; 0x18 <__rc8>
    7472: 86 19        	stx	$19                     ; 0x19 <__rc9>
    7474: a5 1b        	lda	$1b                     ; 0x1b <__zp_data_size>
    7476: 85 1a        	sta	$1a                     ; 0x1a <__rc10>
    7478: a0 0d        	ldy	#$d
    747a: 91 9e        	sta	($9e),y                 ; 0x9e <__zp_bss_size+0x6e>
    747c: a5 1c        	lda	$1c                     ; 0x1c <__rc12>
    747e: 85 1e        	sta	$1e                     ; 0x1e <__rc14>
    7480: a4 1d        	ldy	$1d                     ; 0x1d <__rc13>
    7482: 91 18        	sta	($18),y                 ; 0x18 <__rc8>
    7484: a5 14        	lda	$14                     ; 0x14 <__rc4>
    7486: 18           	clc
    7487: 69 02        	adc	#$2
    7489: 85 18        	sta	$18                     ; 0x18 <__rc8>
    748b: a5 15        	lda	$15                     ; 0x15 <__rc5>
    748d: 69 00        	adc	#$0
    748f: 85 19        	sta	$19                     ; 0x19 <__rc9>
    7491: 4c 6f 75     	jmp	$756f <_ZN12_GLOBAL__N_15printEPKcP6Status+0x36d>
    7494: 86 1a        	stx	$1a                     ; 0x1a <__rc10>
    7496: 86 1b        	stx	$1b                     ; 0x1b <__zp_data_size>
    7498: 4c 99 75     	jmp	$7599 <_ZN12_GLOBAL__N_15printEPKcP6Status+0x397>
    749b: 18           	clc
    749c: 85 1c        	sta	$1c                     ; 0x1c <__rc12>
    749e: 69 d0        	adc	#$d0
    74a0: c9 0a        	cmp	#$a
    74a2: 90 03        	bcc	$74a7 <_ZN12_GLOBAL__N_15printEPKcP6Status+0x2a5>
    74a4: 4c 54 75     	jmp	$7554 <_ZN12_GLOBAL__N_15printEPKcP6Status+0x352>
    74a7: 64 1b        	stz	$1b                     ; 0x1b <__zp_data_size>
    74a9: 64 22        	stz	$22                     ; 0x22 <__rc18>
    74ab: 64 1e        	stz	$1e                     ; 0x1e <__rc14>
    74ad: a2 01        	ldx	#$1
    74af: 64 1a        	stz	$1a                     ; 0x1a <__rc10>
    74b1: 5a           	phy
    74b2: a4 1a        	ldy	$1a                     ; 0x1a <__rc10>
    74b4: 84 18        	sty	$18                     ; 0x18 <__rc8>
    74b6: 86 19        	stx	$19                     ; 0x19 <__rc9>
    74b8: a5 22        	lda	$22                     ; 0x22 <__rc18>
    74ba: 0a           	asl
    74bb: 85 1d        	sta	$1d                     ; 0x1d <__rc13>
    74bd: 26 1e        	rol	$1e                     ; 0x1e <__rc14>
    74bf: 0a           	asl
    74c0: a4 1e        	ldy	$1e                     ; 0x1e <__rc14>
    74c2: 84 22        	sty	$22                     ; 0x22 <__rc18>
    74c4: 26 22        	rol	$22                     ; 0x22 <__rc18>
    74c6: 0a           	asl
    74c7: 26 22        	rol	$22                     ; 0x22 <__rc18>
    74c9: 18           	clc
    74ca: a0 01        	ldy	#$1
    74cc: b0 02        	bcs	$74d0 <_ZN12_GLOBAL__N_15printEPKcP6Status+0x2ce>
    74ce: a0 00        	ldy	#$0
    74d0: 84 23        	sty	$23                     ; 0x23 <__rc19>
    74d2: 65 1d        	adc	$1d                     ; 0x1d <__rc13>
    74d4: 85 a0        	sta	$a0                     ; 0xa0 <__zp_bss_size+0x70>
    74d6: a5 22        	lda	$22                     ; 0x22 <__rc18>
    74d8: 65 1e        	adc	$1e                     ; 0x1e <__rc14>
    74da: 85 1d        	sta	$1d                     ; 0x1d <__rc13>
    74dc: a4 23        	ldy	$23                     ; 0x23 <__rc19>
    74de: c0 01        	cpy	#$1
    74e0: a5 a0        	lda	$a0                     ; 0xa0 <__zp_bss_size+0x70>
    74e2: 65 1c        	adc	$1c                     ; 0x1c <__rc12>
    74e4: 85 1c        	sta	$1c                     ; 0x1c <__rc12>
    74e6: a5 1d        	lda	$1d                     ; 0x1d <__rc13>
    74e8: 65 1b        	adc	$1b                     ; 0x1b <__zp_data_size>
    74ea: 85 1b        	sta	$1b                     ; 0x1b <__zp_data_size>
    74ec: 18           	clc
    74ed: a5 1c        	lda	$1c                     ; 0x1c <__rc12>
    74ef: 69 d0        	adc	#$d0
    74f1: 85 1c        	sta	$1c                     ; 0x1c <__rc12>
    74f3: a5 1b        	lda	$1b                     ; 0x1b <__zp_data_size>
    74f5: 69 ff        	adc	#$ff
    74f7: 85 1e        	sta	$1e                     ; 0x1e <__rc14>
    74f9: a4 1c        	ldy	$1c                     ; 0x1c <__rc12>
    74fb: 84 22        	sty	$22                     ; 0x22 <__rc18>
    74fd: e8           	inx
    74fe: d0 02        	bne	$7502 <_ZN12_GLOBAL__N_15printEPKcP6Status+0x300>
    7500: e6 1a        	inc	$1a                     ; 0x1a <__rc10>
    7502: a5 14        	lda	$14                     ; 0x14 <__rc4>
    7504: a4 23        	ldy	$23                     ; 0x23 <__rc19>
    7506: c0 01        	cpy	#$1
    7508: 7a           	ply
    7509: 65 19        	adc	$19                     ; 0x19 <__rc9>
    750b: 85 1c        	sta	$1c                     ; 0x1c <__rc12>
    750d: a5 15        	lda	$15                     ; 0x15 <__rc5>
    750f: 65 18        	adc	$18                     ; 0x18 <__rc8>
    7511: 85 1d        	sta	$1d                     ; 0x1d <__rc13>
    7513: b1 1c        	lda	($1c),y                 ; 0x1c <__rc12>
    7515: 85 1c        	sta	$1c                     ; 0x1c <__rc12>
    7517: 18           	clc
    7518: 69 d0        	adc	#$d0
    751a: c9 0a        	cmp	#$a
    751c: 64 1b        	stz	$1b                     ; 0x1b <__zp_data_size>
    751e: b0 03        	bcs	$7523 <_ZN12_GLOBAL__N_15printEPKcP6Status+0x321>
    7520: 4c b1 74     	jmp	$74b1 <_ZN12_GLOBAL__N_15printEPKcP6Status+0x2af>
    7523: a5 14        	lda	$14                     ; 0x14 <__rc4>
    7525: 18           	clc
    7526: 65 19        	adc	$19                     ; 0x19 <__rc9>
    7528: aa           	tax
    7529: a5 15        	lda	$15                     ; 0x15 <__rc5>
    752b: 65 18        	adc	$18                     ; 0x18 <__rc8>
    752d: 86 18        	stx	$18                     ; 0x18 <__rc8>
    752f: 85 19        	sta	$19                     ; 0x19 <__rc9>
    7531: a5 9e        	lda	$9e                     ; 0x9e <__zp_bss_size+0x6e>
    7533: 18           	clc
    7534: 69 0d        	adc	#$d
    7536: 85 14        	sta	$14                     ; 0x14 <__rc4>
    7538: a5 9f        	lda	$9f                     ; 0x9f <__zp_bss_size+0x6f>
    753a: 69 00        	adc	#$0
    753c: a0 0d        	ldy	#$d
    753e: 85 15        	sta	$15                     ; 0x15 <__rc5>
    7540: a5 22        	lda	$22                     ; 0x22 <__rc18>
    7542: 85 1a        	sta	$1a                     ; 0x1a <__rc10>
    7544: 91 9e        	sta	($9e),y                 ; 0x9e <__zp_bss_size+0x6e>
    7546: a0 01        	ldy	#$1
    7548: a5 1e        	lda	$1e                     ; 0x1e <__rc14>
    754a: 91 14        	sta	($14),y                 ; 0x14 <__rc4>
    754c: e6 18        	inc	$18                     ; 0x18 <__rc8>
    754e: d0 1f        	bne	$756f <_ZN12_GLOBAL__N_15printEPKcP6Status+0x36d>
    7550: e6 19        	inc	$19                     ; 0x19 <__rc9>
    7552: 80 1b        	bra	$756f <_ZN12_GLOBAL__N_15printEPKcP6Status+0x36d>
    7554: a0 0d        	ldy	#$d
    7556: a5 9e        	lda	$9e                     ; 0x9e <__zp_bss_size+0x6e>
    7558: 18           	clc
    7559: 69 0d        	adc	#$d
    755b: 85 14        	sta	$14                     ; 0x14 <__rc4>
    755d: a5 9f        	lda	$9f                     ; 0x9f <__zp_bss_size+0x6f>
    755f: 69 00        	adc	#$0
    7561: 85 15        	sta	$15                     ; 0x15 <__rc5>
    7563: a9 00        	lda	#$0
    7565: 91 9e        	sta	($9e),y                 ; 0x9e <__zp_bss_size+0x6e>
    7567: a0 01        	ldy	#$1
    7569: 64 1a        	stz	$1a                     ; 0x1a <__rc10>
    756b: 91 14        	sta	($14),y                 ; 0x14 <__rc4>
    756d: 64 1e        	stz	$1e                     ; 0x1e <__rc14>
    756f: a5 a4        	lda	$a4                     ; 0xa4 <__zp_bss_size+0x74>
    7571: 29 ef        	and	#$ef
    7573: a6 9e        	ldx	$9e                     ; 0x9e <__zp_bss_size+0x6e>
    7575: 86 14        	stx	$14                     ; 0x14 <__rc4>
    7577: a6 9f        	ldx	$9f                     ; 0x9f <__zp_bss_size+0x6f>
    7579: 86 15        	stx	$15                     ; 0x15 <__rc5>
    757b: e6 14        	inc	$14                     ; 0x14 <__rc4>
    757d: d0 02        	bne	$7581 <_ZN12_GLOBAL__N_15printEPKcP6Status+0x37f>
    757f: e6 15        	inc	$15                     ; 0x15 <__rc5>
    7581: a0 01        	ldy	#$1
    7583: 85 a4        	sta	$a4                     ; 0xa4 <__zp_bss_size+0x74>
    7585: 91 9e        	sta	($9e),y                 ; 0x9e <__zp_bss_size+0x6e>
    7587: a9 00        	lda	#$0
    7589: 91 14        	sta	($14),y                 ; 0x14 <__rc4>
    758b: b2 18        	lda	($18)                   ; 0x18 <__rc8>
    758d: a6 1e        	ldx	$1e                     ; 0x1e <__rc14>
    758f: 86 1b        	stx	$1b                     ; 0x1b <__zp_data_size>
    7591: a6 18        	ldx	$18                     ; 0x18 <__rc8>
    7593: 86 14        	stx	$14                     ; 0x14 <__rc4>
    7595: a6 19        	ldx	$19                     ; 0x19 <__rc9>
    7597: 86 15        	stx	$15                     ; 0x15 <__rc5>
    7599: a6 14        	ldx	$14                     ; 0x14 <__rc4>
    759b: 86 18        	stx	$18                     ; 0x18 <__rc8>
    759d: a6 15        	ldx	$15                     ; 0x15 <__rc5>
    759f: 86 19        	stx	$19                     ; 0x19 <__rc9>
    75a1: e6 18        	inc	$18                     ; 0x18 <__rc8>
    75a3: d0 02        	bne	$75a7 <_ZN12_GLOBAL__N_15printEPKcP6Status+0x3a5>
    75a5: e6 19        	inc	$19                     ; 0x19 <__rc9>
    75a7: 38           	sec
    75a8: aa           	tax
    75a9: e9 6c        	sbc	#$6c
    75ab: 50 02        	bvc	$75af <_ZN12_GLOBAL__N_15printEPKcP6Status+0x3ad>
    75ad: 49 80        	eor	#$80
    75af: a8           	tay
    75b0: 10 20        	bpl	$75d2 <_ZN12_GLOBAL__N_15printEPKcP6Status+0x3d0>
    75b2: e0 4c        	cpx	#$4c
    75b4: f0 3a        	beq	$75f0 <_ZN12_GLOBAL__N_15printEPKcP6Status+0x3ee>
    75b6: 8a           	txa
    75b7: e0 68        	cpx	#$68
    75b9: d0 03        	bne	$75be <_ZN12_GLOBAL__N_15printEPKcP6Status+0x3bc>
    75bb: 4c 86 76     	jmp	$7686 <_ZN12_GLOBAL__N_15printEPKcP6Status+0x484>
    75be: a0 08        	ldy	#$8
    75c0: a6 1f        	ldx	$1f                     ; 0x1f <__rc15>
    75c2: c9 6a        	cmp	#$6a
    75c4: d0 26        	bne	$75ec <_ZN12_GLOBAL__N_15printEPKcP6Status+0x3ea>
    75c6: a6 18        	ldx	$18                     ; 0x18 <__rc8>
    75c8: 86 14        	stx	$14                     ; 0x14 <__rc4>
    75ca: a6 19        	ldx	$19                     ; 0x19 <__rc9>
    75cc: 86 15        	stx	$15                     ; 0x15 <__rc5>
    75ce: a2 08        	ldx	#$8
    75d0: 80 46        	bra	$7618 <_ZN12_GLOBAL__N_15printEPKcP6Status+0x416>
    75d2: e0 6c        	cpx	#$6c
    75d4: d0 03        	bne	$75d9 <_ZN12_GLOBAL__N_15printEPKcP6Status+0x3d7>
    75d6: 4c 68 76     	jmp	$7668 <_ZN12_GLOBAL__N_15printEPKcP6Status+0x466>
    75d9: 8a           	txa
    75da: e0 74        	cpx	#$74
    75dc: f0 2e        	beq	$760c <_ZN12_GLOBAL__N_15printEPKcP6Status+0x40a>
    75de: a6 1f        	ldx	$1f                     ; 0x1f <__rc15>
    75e0: c9 7a        	cmp	#$7a
    75e2: d0 08        	bne	$75ec <_ZN12_GLOBAL__N_15printEPKcP6Status+0x3ea>
    75e4: a4 18        	ldy	$18                     ; 0x18 <__rc8>
    75e6: 84 14        	sty	$14                     ; 0x14 <__rc4>
    75e8: a4 19        	ldy	$19                     ; 0x19 <__rc9>
    75ea: 84 15        	sty	$15                     ; 0x15 <__rc5>
    75ec: a0 02        	ldy	#$2
    75ee: 80 28        	bra	$7618 <_ZN12_GLOBAL__N_15printEPKcP6Status+0x416>
    75f0: a5 a4        	lda	$a4                     ; 0xa4 <__zp_bss_size+0x74>
    75f2: 09 40        	ora	#$40
    75f4: a6 9e        	ldx	$9e                     ; 0x9e <__zp_bss_size+0x6e>
    75f6: 86 14        	stx	$14                     ; 0x14 <__rc4>
    75f8: a6 9f        	ldx	$9f                     ; 0x9f <__zp_bss_size+0x6f>
    75fa: 86 15        	stx	$15                     ; 0x15 <__rc5>
    75fc: e6 14        	inc	$14                     ; 0x14 <__rc4>
    75fe: d0 02        	bne	$7602 <_ZN12_GLOBAL__N_15printEPKcP6Status+0x400>
    7600: e6 15        	inc	$15                     ; 0x15 <__rc5>
    7602: a0 01        	ldy	#$1
    7604: 85 a4        	sta	$a4                     ; 0xa4 <__zp_bss_size+0x74>
    7606: 91 9e        	sta	($9e),y                 ; 0x9e <__zp_bss_size+0x6e>
    7608: a9 00        	lda	#$0
    760a: 91 14        	sta	($14),y                 ; 0x14 <__rc4>
    760c: a6 18        	ldx	$18                     ; 0x18 <__rc8>
    760e: 86 14        	stx	$14                     ; 0x14 <__rc4>
    7610: a6 19        	ldx	$19                     ; 0x19 <__rc9>
    7612: 86 15        	stx	$15                     ; 0x15 <__rc5>
    7614: a0 02        	ldy	#$2
    7616: a6 1f        	ldx	$1f                     ; 0x1f <__rc15>
    7618: b2 14        	lda	($14)                   ; 0x14 <__rc4>
    761a: 5a           	phy
    761b: a4 14        	ldy	$14                     ; 0x14 <__rc4>
    761d: 84 18        	sty	$18                     ; 0x18 <__rc8>
    761f: a4 15        	ldy	$15                     ; 0x15 <__rc5>
    7621: 84 19        	sty	$19                     ; 0x19 <__rc9>
    7623: 7a           	ply
    7624: 86 a0        	stx	$a0                     ; 0xa0 <__zp_bss_size+0x70>
    7626: 5a           	phy
    7627: fa           	plx
    7628: 18           	clc
    7629: a8           	tay
    762a: 69 9d        	adc	#$9d
    762c: c9 16        	cmp	#$16
    762e: 86 a6        	stx	$a6                     ; 0xa6 <__zp_bss_size+0x76>
    7630: 90 03        	bcc	$7635 <_ZN12_GLOBAL__N_15printEPKcP6Status+0x433>
    7632: 4c a5 76     	jmp	$76a5 <_ZN12_GLOBAL__N_15printEPKcP6Status+0x4a3>
    7635: 0a           	asl
    7636: aa           	tax
    7637: 7c 10 89     	jmp	($8910,x)               ; 0x8910 <__BLOCK_SIZE+0x6910>
    763a: a5 1b        	lda	$1b                     ; 0x1b <__zp_data_size>
    763c: 85 cc        	sta	$cc                     ; 0xcc <__zp_bss_size+0x9c>
    763e: a4 1a        	ldy	$1a                     ; 0x1a <__rc10>
    7640: 84 cd        	sty	$cd                     ; 0xcd <__zp_bss_size+0x9d>
    7642: a6 16        	ldx	$16                     ; 0x16 <__rc6>
    7644: 86 cf        	stx	$cf                     ; 0xcf <__zp_bss_size+0x9f>
    7646: a6 17        	ldx	$17                     ; 0x17 <__rc7>
    7648: 86 ce        	stx	$ce                     ; 0xce <__zp_bss_size+0x9e>
    764a: a6 18        	ldx	$18                     ; 0x18 <__rc8>
    764c: 86 12        	stx	$12                     ; 0x12 <__rc2>
    764e: a6 19        	ldx	$19                     ; 0x19 <__rc9>
    7650: 86 13        	stx	$13                     ; 0x13 <__rc3>
    7652: a6 12        	ldx	$12                     ; 0x12 <__rc2>
    7654: 86 c9        	stx	$c9                     ; 0xc9 <__zp_bss_size+0x99>
    7656: a6 13        	ldx	$13                     ; 0x13 <__rc3>
    7658: 86 ca        	stx	$ca                     ; 0xca <__zp_bss_size+0x9a>
    765a: a9 0a        	lda	#$a
    765c: aa           	tax
    765d: 86 a5        	stx	$a5                     ; 0xa5 <__zp_bss_size+0x75>
    765f: 92 9e        	sta	($9e)                   ; 0x9e <__zp_bss_size+0x6e>
    7661: a2 00        	ldx	#$0
    7663: 86 d0        	stx	$d0                     ; 0xd0 <__zp_bss_size+0xa0>
    7665: 4c b0 78     	jmp	$78b0 <_ZN12_GLOBAL__N_15printEPKcP6Status+0x6ae>
    7668: a0 01        	ldy	#$1
    766a: b1 14        	lda	($14),y                 ; 0x14 <__rc4>
    766c: a2 04        	ldx	#$4
    766e: c9 6c        	cmp	#$6c
    7670: d0 2e        	bne	$76a0 <_ZN12_GLOBAL__N_15printEPKcP6Status+0x49e>
    7672: a5 14        	lda	$14                     ; 0x14 <__rc4>
    7674: 18           	clc
    7675: 69 02        	adc	#$2
    7677: 85 14        	sta	$14                     ; 0x14 <__rc4>
    7679: a5 15        	lda	$15                     ; 0x15 <__rc5>
    767b: 69 00        	adc	#$0
    767d: 85 15        	sta	$15                     ; 0x15 <__rc5>
    767f: a2 08        	ldx	#$8
    7681: a0 08        	ldy	#$8
    7683: 4c 18 76     	jmp	$7618 <_ZN12_GLOBAL__N_15printEPKcP6Status+0x416>
    7686: a0 01        	ldy	#$1
    7688: b1 14        	lda	($14),y                 ; 0x14 <__rc4>
    768a: a2 02        	ldx	#$2
    768c: c9 68        	cmp	#$68
    768e: d0 10        	bne	$76a0 <_ZN12_GLOBAL__N_15printEPKcP6Status+0x49e>
    7690: a5 14        	lda	$14                     ; 0x14 <__rc4>
    7692: 18           	clc
    7693: 69 02        	adc	#$2
    7695: 85 14        	sta	$14                     ; 0x14 <__rc4>
    7697: a5 15        	lda	$15                     ; 0x15 <__rc5>
    7699: 69 00        	adc	#$0
    769b: 85 15        	sta	$15                     ; 0x15 <__rc5>
    769d: 4c 16 76     	jmp	$7616 <_ZN12_GLOBAL__N_15printEPKcP6Status+0x414>
    76a0: 86 a0        	stx	$a0                     ; 0xa0 <__zp_bss_size+0x70>
    76a2: 4c 28 76     	jmp	$7628 <_ZN12_GLOBAL__N_15printEPKcP6Status+0x426>
    76a5: c0 58        	cpy	#$58
    76a7: f0 03        	beq	$76ac <_ZN12_GLOBAL__N_15printEPKcP6Status+0x4aa>
    76a9: 4c 45 7d     	jmp	$7d45 <_ZN12_GLOBAL__N_15printEPKcP6Status+0xb43>
    76ac: a5 1b        	lda	$1b                     ; 0x1b <__zp_data_size>
    76ae: 85 cc        	sta	$cc                     ; 0xcc <__zp_bss_size+0x9c>
    76b0: a4 1a        	ldy	$1a                     ; 0x1a <__rc10>
    76b2: 84 cd        	sty	$cd                     ; 0xcd <__zp_bss_size+0x9d>
    76b4: a6 16        	ldx	$16                     ; 0x16 <__rc6>
    76b6: 86 cf        	stx	$cf                     ; 0xcf <__zp_bss_size+0x9f>
    76b8: a6 17        	ldx	$17                     ; 0x17 <__rc7>
    76ba: 86 ce        	stx	$ce                     ; 0xce <__zp_bss_size+0x9e>
    76bc: a6 18        	ldx	$18                     ; 0x18 <__rc8>
    76be: 86 12        	stx	$12                     ; 0x12 <__rc2>
    76c0: a6 19        	ldx	$19                     ; 0x19 <__rc9>
    76c2: 86 13        	stx	$13                     ; 0x13 <__rc3>
    76c4: a6 12        	ldx	$12                     ; 0x12 <__rc2>
    76c6: 86 c9        	stx	$c9                     ; 0xc9 <__zp_bss_size+0x99>
    76c8: a6 13        	ldx	$13                     ; 0x13 <__rc3>
    76ca: 86 ca        	stx	$ca                     ; 0xca <__zp_bss_size+0x9a>
    76cc: a9 10        	lda	#$10
    76ce: 4c 90 78     	jmp	$7890 <_ZN12_GLOBAL__N_15printEPKcP6Status+0x68e>
    76d1: a5 1b        	lda	$1b                     ; 0x1b <__zp_data_size>
    76d3: 85 cc        	sta	$cc                     ; 0xcc <__zp_bss_size+0x9c>
    76d5: a4 1a        	ldy	$1a                     ; 0x1a <__rc10>
    76d7: 84 cd        	sty	$cd                     ; 0xcd <__zp_bss_size+0x9d>
    76d9: a6 16        	ldx	$16                     ; 0x16 <__rc6>
    76db: 86 cf        	stx	$cf                     ; 0xcf <__zp_bss_size+0x9f>
    76dd: a6 17        	ldx	$17                     ; 0x17 <__rc7>
    76df: 86 ce        	stx	$ce                     ; 0xce <__zp_bss_size+0x9e>
    76e1: a6 18        	ldx	$18                     ; 0x18 <__rc8>
    76e3: 86 12        	stx	$12                     ; 0x12 <__rc2>
    76e5: a6 19        	ldx	$19                     ; 0x19 <__rc9>
    76e7: 86 13        	stx	$13                     ; 0x13 <__rc3>
    76e9: a6 12        	ldx	$12                     ; 0x12 <__rc2>
    76eb: 86 c9        	stx	$c9                     ; 0xc9 <__zp_bss_size+0x99>
    76ed: a6 13        	ldx	$13                     ; 0x13 <__rc3>
    76ef: 86 ca        	stx	$ca                     ; 0xca <__zp_bss_size+0x9a>
    76f1: a9 10        	lda	#$10
    76f3: 92 9e        	sta	($9e)                   ; 0x9e <__zp_bss_size+0x6e>
    76f5: a5 a4        	lda	$a4                     ; 0xa4 <__zp_bss_size+0x74>
    76f7: 09 84        	ora	#$84
    76f9: 80 28        	bra	$7723 <_ZN12_GLOBAL__N_15printEPKcP6Status+0x521>
    76fb: a5 1b        	lda	$1b                     ; 0x1b <__zp_data_size>
    76fd: 85 cc        	sta	$cc                     ; 0xcc <__zp_bss_size+0x9c>
    76ff: a4 1a        	ldy	$1a                     ; 0x1a <__rc10>
    7701: 84 cd        	sty	$cd                     ; 0xcd <__zp_bss_size+0x9d>
    7703: a6 16        	ldx	$16                     ; 0x16 <__rc6>
    7705: 86 cf        	stx	$cf                     ; 0xcf <__zp_bss_size+0x9f>
    7707: a6 17        	ldx	$17                     ; 0x17 <__rc7>
    7709: 86 ce        	stx	$ce                     ; 0xce <__zp_bss_size+0x9e>
    770b: a6 18        	ldx	$18                     ; 0x18 <__rc8>
    770d: 86 12        	stx	$12                     ; 0x12 <__rc2>
    770f: a6 19        	ldx	$19                     ; 0x19 <__rc9>
    7711: 86 13        	stx	$13                     ; 0x13 <__rc3>
    7713: a6 12        	ldx	$12                     ; 0x12 <__rc2>
    7715: 86 c9        	stx	$c9                     ; 0xc9 <__zp_bss_size+0x99>
    7717: a6 13        	ldx	$13                     ; 0x13 <__rc3>
    7719: 86 ca        	stx	$ca                     ; 0xca <__zp_bss_size+0x9a>
    771b: a9 10        	lda	#$10
    771d: 92 9e        	sta	($9e)                   ; 0x9e <__zp_bss_size+0x6e>
    771f: a5 a4        	lda	$a4                     ; 0xa4 <__zp_bss_size+0x74>
    7721: 09 80        	ora	#$80
    7723: 85 14        	sta	$14                     ; 0x14 <__rc4>
    7725: a9 00        	lda	#$0
    7727: 09 01        	ora	#$1
    7729: aa           	tax
    772a: a4 9e        	ldy	$9e                     ; 0x9e <__zp_bss_size+0x6e>
    772c: 84 12        	sty	$12                     ; 0x12 <__rc2>
    772e: a4 9f        	ldy	$9f                     ; 0x9f <__zp_bss_size+0x6f>
    7730: 84 13        	sty	$13                     ; 0x13 <__rc3>
    7732: e6 12        	inc	$12                     ; 0x12 <__rc2>
    7734: d0 02        	bne	$7738 <_ZN12_GLOBAL__N_15printEPKcP6Status+0x536>
    7736: e6 13        	inc	$13                     ; 0x13 <__rc3>
    7738: a0 01        	ldy	#$1
    773a: a5 14        	lda	$14                     ; 0x14 <__rc4>
    773c: 85 a4        	sta	$a4                     ; 0xa4 <__zp_bss_size+0x74>
    773e: 4c a9 78     	jmp	$78a9 <_ZN12_GLOBAL__N_15printEPKcP6Status+0x6a7>
    7741: a4 9e        	ldy	$9e                     ; 0x9e <__zp_bss_size+0x6e>
    7743: a5 9e        	lda	$9e                     ; 0x9e <__zp_bss_size+0x6e>
    7745: 84 16        	sty	$16                     ; 0x16 <__rc6>
    7747: 18           	clc
    7748: 69 11        	adc	#$11
    774a: 85 12        	sta	$12                     ; 0x12 <__rc2>
    774c: a5 9f        	lda	$9f                     ; 0x9f <__zp_bss_size+0x6f>
    774e: 69 00        	adc	#$0
    7750: 85 13        	sta	$13                     ; 0x13 <__rc3>
    7752: a0 11        	ldy	#$11
    7754: b1 9e        	lda	($9e),y                 ; 0x9e <__zp_bss_size+0x6e>
    7756: 85 14        	sta	$14                     ; 0x14 <__rc4>
    7758: 18           	clc
    7759: 69 02        	adc	#$2
    775b: 91 9e        	sta	($9e),y                 ; 0x9e <__zp_bss_size+0x6e>
    775d: a0 01        	ldy	#$1
    775f: b1 12        	lda	($12),y                 ; 0x12 <__rc2>
    7761: 85 15        	sta	$15                     ; 0x15 <__rc5>
    7763: 69 00        	adc	#$0
    7765: 18           	clc
    7766: 91 12        	sta	($12),y                 ; 0x12 <__rc2>
    7768: b2 14        	lda	($14)                   ; 0x14 <__rc4>
    776a: 85 12        	sta	$12                     ; 0x12 <__rc2>
    776c: b1 14        	lda	($14),y                 ; 0x14 <__rc4>
    776e: 84 17        	sty	$17                     ; 0x17 <__rc7>
    7770: 85 13        	sta	$13                     ; 0x13 <__rc3>
    7772: a5 16        	lda	$16                     ; 0x16 <__rc6>
    7774: 69 05        	adc	#$5
    7776: 85 14        	sta	$14                     ; 0x14 <__rc4>
    7778: a5 9f        	lda	$9f                     ; 0x9f <__zp_bss_size+0x6f>
    777a: 69 00        	adc	#$0
    777c: 85 15        	sta	$15                     ; 0x15 <__rc5>
    777e: a0 05        	ldy	#$5
    7780: b1 9e        	lda	($9e),y                 ; 0x9e <__zp_bss_size+0x6e>
    7782: 85 16        	sta	$16                     ; 0x16 <__rc6>
    7784: a4 17        	ldy	$17                     ; 0x17 <__rc7>
    7786: b1 14        	lda	($14),y                 ; 0x14 <__rc4>
    7788: 85 14        	sta	$14                     ; 0x14 <__rc4>
    778a: a5 16        	lda	$16                     ; 0x16 <__rc6>
    778c: 92 12        	sta	($12)                   ; 0x12 <__rc2>
    778e: a5 14        	lda	$14                     ; 0x14 <__rc4>
    7790: 91 12        	sta	($12),y                 ; 0x12 <__rc2>
    7792: e6 18        	inc	$18                     ; 0x18 <__rc8>
    7794: d0 02        	bne	$7798 <_ZN12_GLOBAL__N_15printEPKcP6Status+0x596>
    7796: e6 19        	inc	$19                     ; 0x19 <__rc9>
    7798: a6 18        	ldx	$18                     ; 0x18 <__rc8>
    779a: 86 12        	stx	$12                     ; 0x12 <__rc2>
    779c: a6 19        	ldx	$19                     ; 0x19 <__rc9>
    779e: 4c 68 78     	jmp	$7868 <_ZN12_GLOBAL__N_15printEPKcP6Status+0x666>
    77a1: a0 11        	ldy	#$11
    77a3: a5 9e        	lda	$9e                     ; 0x9e <__zp_bss_size+0x6e>
    77a5: 18           	clc
    77a6: 69 11        	adc	#$11
    77a8: 85 12        	sta	$12                     ; 0x12 <__rc2>
    77aa: a5 9f        	lda	$9f                     ; 0x9f <__zp_bss_size+0x6f>
    77ac: 69 00        	adc	#$0
    77ae: 85 13        	sta	$13                     ; 0x13 <__rc3>
    77b0: b1 9e        	lda	($9e),y                 ; 0x9e <__zp_bss_size+0x6e>
    77b2: aa           	tax
    77b3: 84 17        	sty	$17                     ; 0x17 <__rc7>
    77b5: a0 01        	ldy	#$1
    77b7: b1 12        	lda	($12),y                 ; 0x12 <__rc2>
    77b9: 86 14        	stx	$14                     ; 0x14 <__rc4>
    77bb: 85 15        	sta	$15                     ; 0x15 <__rc5>
    77bd: a8           	tay
    77be: 18           	clc
    77bf: 8a           	txa
    77c0: 69 02        	adc	#$2
    77c2: 85 16        	sta	$16                     ; 0x16 <__rc6>
    77c4: 98           	tya
    77c5: 69 00        	adc	#$0
    77c7: 85 1a        	sta	$1a                     ; 0x1a <__rc10>
    77c9: a5 16        	lda	$16                     ; 0x16 <__rc6>
    77cb: a4 17        	ldy	$17                     ; 0x17 <__rc7>
    77cd: 91 9e        	sta	($9e),y                 ; 0x9e <__zp_bss_size+0x6e>
    77cf: a0 01        	ldy	#$1
    77d1: a5 1a        	lda	$1a                     ; 0x1a <__rc10>
    77d3: 91 12        	sta	($12),y                 ; 0x12 <__rc2>
    77d5: b2 14        	lda	($14)                   ; 0x14 <__rc4>
    77d7: 85 12        	sta	$12                     ; 0x12 <__rc2>
    77d9: b1 14        	lda	($14),y                 ; 0x14 <__rc4>
    77db: 85 13        	sta	$13                     ; 0x13 <__rc3>
    77dd: 4c 49 78     	jmp	$7849 <_ZN12_GLOBAL__N_15printEPKcP6Status+0x647>
    77e0: a5 1b        	lda	$1b                     ; 0x1b <__zp_data_size>
    77e2: 85 cc        	sta	$cc                     ; 0xcc <__zp_bss_size+0x9c>
    77e4: a4 1a        	ldy	$1a                     ; 0x1a <__rc10>
    77e6: 84 cd        	sty	$cd                     ; 0xcd <__zp_bss_size+0x9d>
    77e8: a6 16        	ldx	$16                     ; 0x16 <__rc6>
    77ea: 86 cf        	stx	$cf                     ; 0xcf <__zp_bss_size+0x9f>
    77ec: a6 17        	ldx	$17                     ; 0x17 <__rc7>
    77ee: 86 ce        	stx	$ce                     ; 0xce <__zp_bss_size+0x9e>
    77f0: a6 18        	ldx	$18                     ; 0x18 <__rc8>
    77f2: 86 12        	stx	$12                     ; 0x12 <__rc2>
    77f4: a6 19        	ldx	$19                     ; 0x19 <__rc9>
    77f6: 86 13        	stx	$13                     ; 0x13 <__rc3>
    77f8: a6 12        	ldx	$12                     ; 0x12 <__rc2>
    77fa: 86 c9        	stx	$c9                     ; 0xc9 <__zp_bss_size+0x99>
    77fc: a6 13        	ldx	$13                     ; 0x13 <__rc3>
    77fe: 86 ca        	stx	$ca                     ; 0xca <__zp_bss_size+0x9a>
    7800: a9 08        	lda	#$8
    7802: 4c 8d 78     	jmp	$788d <_ZN12_GLOBAL__N_15printEPKcP6Status+0x68b>
    7805: a0 11        	ldy	#$11
    7807: a5 9e        	lda	$9e                     ; 0x9e <__zp_bss_size+0x6e>
    7809: 18           	clc
    780a: 69 11        	adc	#$11
    780c: 85 12        	sta	$12                     ; 0x12 <__rc2>
    780e: a5 9f        	lda	$9f                     ; 0x9f <__zp_bss_size+0x6f>
    7810: 69 00        	adc	#$0
    7812: 85 13        	sta	$13                     ; 0x13 <__rc3>
    7814: b1 9e        	lda	($9e),y                 ; 0x9e <__zp_bss_size+0x6e>
    7816: aa           	tax
    7817: 84 17        	sty	$17                     ; 0x17 <__rc7>
    7819: a0 01        	ldy	#$1
    781b: b1 12        	lda	($12),y                 ; 0x12 <__rc2>
    781d: 84 1a        	sty	$1a                     ; 0x1a <__rc10>
    781f: 86 14        	stx	$14                     ; 0x14 <__rc4>
    7821: 85 15        	sta	$15                     ; 0x15 <__rc5>
    7823: a8           	tay
    7824: 18           	clc
    7825: 8a           	txa
    7826: 69 02        	adc	#$2
    7828: 85 16        	sta	$16                     ; 0x16 <__rc6>
    782a: 98           	tya
    782b: 69 00        	adc	#$0
    782d: 85 1b        	sta	$1b                     ; 0x1b <__zp_data_size>
    782f: a5 16        	lda	$16                     ; 0x16 <__rc6>
    7831: a4 17        	ldy	$17                     ; 0x17 <__rc7>
    7833: 91 9e        	sta	($9e),y                 ; 0x9e <__zp_bss_size+0x6e>
    7835: a4 1a        	ldy	$1a                     ; 0x1a <__rc10>
    7837: a5 1b        	lda	$1b                     ; 0x1b <__zp_data_size>
    7839: 91 12        	sta	($12),y                 ; 0x12 <__rc2>
    783b: b2 14        	lda	($14)                   ; 0x14 <__rc4>
    783d: 85 a9        	sta	$a9                     ; 0xa9 <__zp_bss_size+0x79>
    783f: 64 aa        	stz	$aa                     ; 0xaa <__zp_bss_size+0x7a>
    7841: a2 a9        	ldx	#$a9
    7843: a0 00        	ldy	#$0
    7845: 86 12        	stx	$12                     ; 0x12 <__rc2>
    7847: 84 13        	sty	$13                     ; 0x13 <__rc3>
    7849: a6 18        	ldx	$18                     ; 0x18 <__rc8>
    784b: 86 a0        	stx	$a0                     ; 0xa0 <__zp_bss_size+0x70>
    784d: a6 19        	ldx	$19                     ; 0x19 <__rc9>
    784f: 86 a1        	stx	$a1                     ; 0xa1 <__zp_bss_size+0x71>
    7851: a6 9e        	ldx	$9e                     ; 0x9e <__zp_bss_size+0x6e>
    7853: 86 14        	stx	$14                     ; 0x14 <__rc4>
    7855: a6 9f        	ldx	$9f                     ; 0x9f <__zp_bss_size+0x6f>
    7857: 86 15        	stx	$15                     ; 0x15 <__rc5>
    7859: 20 57 7e     	jsr	$7e57 <_ZN12_GLOBAL__N_112print_stringEPKcP6Status>
    785c: e6 a0        	inc	$a0                     ; 0xa0 <__zp_bss_size+0x70>
    785e: d0 02        	bne	$7862 <_ZN12_GLOBAL__N_15printEPKcP6Status+0x660>
    7860: e6 a1        	inc	$a1                     ; 0xa1 <__zp_bss_size+0x71>
    7862: a6 a0        	ldx	$a0                     ; 0xa0 <__zp_bss_size+0x70>
    7864: 86 12        	stx	$12                     ; 0x12 <__rc2>
    7866: a6 a1        	ldx	$a1                     ; 0xa1 <__zp_bss_size+0x71>
    7868: 86 13        	stx	$13                     ; 0x13 <__rc3>
    786a: 60           	rts
    786b: a5 1b        	lda	$1b                     ; 0x1b <__zp_data_size>
    786d: 85 cc        	sta	$cc                     ; 0xcc <__zp_bss_size+0x9c>
    786f: a4 1a        	ldy	$1a                     ; 0x1a <__rc10>
    7871: 84 cd        	sty	$cd                     ; 0xcd <__zp_bss_size+0x9d>
    7873: a6 16        	ldx	$16                     ; 0x16 <__rc6>
    7875: 86 cf        	stx	$cf                     ; 0xcf <__zp_bss_size+0x9f>
    7877: a6 17        	ldx	$17                     ; 0x17 <__rc7>
    7879: 86 ce        	stx	$ce                     ; 0xce <__zp_bss_size+0x9e>
    787b: a6 18        	ldx	$18                     ; 0x18 <__rc8>
    787d: 86 12        	stx	$12                     ; 0x12 <__rc2>
    787f: a6 19        	ldx	$19                     ; 0x19 <__rc9>
    7881: 86 13        	stx	$13                     ; 0x13 <__rc3>
    7883: a6 12        	ldx	$12                     ; 0x12 <__rc2>
    7885: 86 c9        	stx	$c9                     ; 0xc9 <__zp_bss_size+0x99>
    7887: a6 13        	ldx	$13                     ; 0x13 <__rc3>
    7889: 86 ca        	stx	$ca                     ; 0xca <__zp_bss_size+0x9a>
    788b: a9 0a        	lda	#$a
    788d: aa           	tax
    788e: 86 a5        	stx	$a5                     ; 0xa5 <__zp_bss_size+0x75>
    7890: 92 9e        	sta	($9e)                   ; 0x9e <__zp_bss_size+0x6e>
    7892: a9 00        	lda	#$0
    7894: 09 01        	ora	#$1
    7896: aa           	tax
    7897: a4 9e        	ldy	$9e                     ; 0x9e <__zp_bss_size+0x6e>
    7899: 84 12        	sty	$12                     ; 0x12 <__rc2>
    789b: a4 9f        	ldy	$9f                     ; 0x9f <__zp_bss_size+0x6f>
    789d: 84 13        	sty	$13                     ; 0x13 <__rc3>
    789f: e6 12        	inc	$12                     ; 0x12 <__rc2>
    78a1: d0 02        	bne	$78a5 <_ZN12_GLOBAL__N_15printEPKcP6Status+0x6a3>
    78a3: e6 13        	inc	$13                     ; 0x13 <__rc3>
    78a5: a0 01        	ldy	#$1
    78a7: a5 a4        	lda	$a4                     ; 0xa4 <__zp_bss_size+0x74>
    78a9: 91 9e        	sta	($9e),y                 ; 0x9e <__zp_bss_size+0x6e>
    78ab: 8a           	txa
    78ac: 86 d0        	stx	$d0                     ; 0xd0 <__zp_bss_size+0xa0>
    78ae: 91 12        	sta	($12),y                 ; 0x12 <__rc2>
    78b0: a2 c0        	ldx	#$c0
    78b2: a0 00        	ldy	#$0
    78b4: 86 12        	stx	$12                     ; 0x12 <__rc2>
    78b6: 84 13        	sty	$13                     ; 0x13 <__rc3>
    78b8: e6 12        	inc	$12                     ; 0x12 <__rc2>
    78ba: d0 02        	bne	$78be <_ZN12_GLOBAL__N_15printEPKcP6Status+0x6bc>
    78bc: e6 13        	inc	$13                     ; 0x13 <__rc3>
    78be: a0 11        	ldy	#$11
    78c0: a2 00        	ldx	#$0
    78c2: a5 9e        	lda	$9e                     ; 0x9e <__zp_bss_size+0x6e>
    78c4: 18           	clc
    78c5: 69 11        	adc	#$11
    78c7: 85 a2        	sta	$a2                     ; 0xa2 <__zp_bss_size+0x72>
    78c9: a5 9f        	lda	$9f                     ; 0x9f <__zp_bss_size+0x6f>
    78cb: 69 00        	adc	#$0
    78cd: 85 a3        	sta	$a3                     ; 0xa3 <__zp_bss_size+0x73>
    78cf: b1 9e        	lda	($9e),y                 ; 0x9e <__zp_bss_size+0x6e>
    78d1: 85 a1        	sta	$a1                     ; 0xa1 <__zp_bss_size+0x71>
    78d3: a0 01        	ldy	#$1
    78d5: b1 a2        	lda	($a2),y                 ; 0xa2 <__zp_bss_size+0x72>
    78d7: a4 a1        	ldy	$a1                     ; 0xa1 <__zp_bss_size+0x71>
    78d9: 84 14        	sty	$14                     ; 0x14 <__rc4>
    78db: 85 15        	sta	$15                     ; 0x15 <__rc5>
    78dd: 85 a8        	sta	$a8                     ; 0xa8 <__zp_bss_size+0x78>
    78df: 64 a7        	stz	$a7                     ; 0xa7 <__zp_bss_size+0x77>
    78e1: a5 a6        	lda	$a6                     ; 0xa6 <__zp_bss_size+0x76>
    78e3: a4 a6        	ldy	$a6                     ; 0xa6 <__zp_bss_size+0x76>
    78e5: 84 d1        	sty	$d1                     ; 0xd1 <__zp_bss_size+0xa1>
    78e7: 20 c0 82     	jsr	$82c0 <memcpy>
    78ea: a2 00        	ldx	#$0
    78ec: 86 18        	stx	$18                     ; 0x18 <__rc8>
    78ee: 18           	clc
    78ef: a5 a1        	lda	$a1                     ; 0xa1 <__zp_bss_size+0x71>
    78f1: 65 a0        	adc	$a0                     ; 0xa0 <__zp_bss_size+0x70>
    78f3: aa           	tax
    78f4: a5 a8        	lda	$a8                     ; 0xa8 <__zp_bss_size+0x78>
    78f6: 69 00        	adc	#$0
    78f8: 85 12        	sta	$12                     ; 0x12 <__rc2>
    78fa: a0 11        	ldy	#$11
    78fc: 8a           	txa
    78fd: 91 9e        	sta	($9e),y                 ; 0x9e <__zp_bss_size+0x6e>
    78ff: a5 12        	lda	$12                     ; 0x12 <__rc2>
    7901: a0 01        	ldy	#$1
    7903: 91 a2        	sta	($a2),y                 ; 0xa2 <__zp_bss_size+0x72>
    7905: a5 d0        	lda	$d0                     ; 0xd0 <__zp_bss_size+0xa0>
    7907: 29 01        	and	#$1
    7909: d0 4f        	bne	$795a <_ZN12_GLOBAL__N_15printEPKcP6Status+0x758>
    790b: a6 d1        	ldx	$d1                     ; 0xd1 <__zp_bss_size+0xa1>
    790d: b4 c0        	ldy	$c0,x                   ; 0xc0 <__zp_bss_size+0x90>
    790f: a6 ce        	ldx	$ce                     ; 0xce <__zp_bss_size+0x9e>
    7911: 86 12        	stx	$12                     ; 0x12 <__rc2>
    7913: a6 cf        	ldx	$cf                     ; 0xcf <__zp_bss_size+0x9f>
    7915: 86 13        	stx	$13                     ; 0x13 <__rc3>
    7917: a6 cd        	ldx	$cd                     ; 0xcd <__zp_bss_size+0x9d>
    7919: 86 a0        	stx	$a0                     ; 0xa0 <__zp_bss_size+0x70>
    791b: a6 cc        	ldx	$cc                     ; 0xcc <__zp_bss_size+0x9c>
    791d: 86 a1        	stx	$a1                     ; 0xa1 <__zp_bss_size+0x71>
    791f: 98           	tya
    7920: 10 48        	bpl	$796a <_ZN12_GLOBAL__N_15printEPKcP6Status+0x768>
    7922: a2 00        	ldx	#$0
    7924: 64 14        	stz	$14                     ; 0x14 <__rc4>
    7926: 38           	sec
    7927: a9 00        	lda	#$0
    7929: f5 c1        	sbc	$c1,x                   ; 0xc1 <__zp_bss_size+0x91>
    792b: a0 01        	ldy	#$1
    792d: 84 16        	sty	$16                     ; 0x16 <__rc6>
    792f: 88           	dey
    7930: b0 02        	bcs	$7934 <_ZN12_GLOBAL__N_15printEPKcP6Status+0x732>
    7932: a0 01        	ldy	#$1
    7934: 38           	sec
    7935: e5 14        	sbc	$14                     ; 0x14 <__rc4>
    7937: 85 15        	sta	$15                     ; 0x15 <__rc5>
    7939: 64 14        	stz	$14                     ; 0x14 <__rc4>
    793b: b0 04        	bcs	$7941 <_ZN12_GLOBAL__N_15printEPKcP6Status+0x73f>
    793d: a5 16        	lda	$16                     ; 0x16 <__rc6>
    793f: 85 14        	sta	$14                     ; 0x14 <__rc4>
    7941: 98           	tya
    7942: 05 14        	ora	$14                     ; 0x14 <__rc4>
    7944: 85 14        	sta	$14                     ; 0x14 <__rc4>
    7946: a5 15        	lda	$15                     ; 0x15 <__rc5>
    7948: 9d c1 00     	sta	$c1,x                   ; 0xc1 <__zp_bss_size+0x91>
    794b: e8           	inx
    794c: 86 15        	stx	$15                     ; 0x15 <__rc5>
    794e: a4 a6        	ldy	$a6                     ; 0xa6 <__zp_bss_size+0x76>
    7950: c4 15        	cpy	$15                     ; 0x15 <__rc5>
    7952: d0 d2        	bne	$7926 <_ZN12_GLOBAL__N_15printEPKcP6Status+0x724>
    7954: a2 01        	ldx	#$1
    7956: 86 18        	stx	$18                     ; 0x18 <__rc8>
    7958: 80 10        	bra	$796a <_ZN12_GLOBAL__N_15printEPKcP6Status+0x768>
    795a: a6 ce        	ldx	$ce                     ; 0xce <__zp_bss_size+0x9e>
    795c: 86 12        	stx	$12                     ; 0x12 <__rc2>
    795e: a6 cf        	ldx	$cf                     ; 0xcf <__zp_bss_size+0x9f>
    7960: 86 13        	stx	$13                     ; 0x13 <__rc3>
    7962: a6 cd        	ldx	$cd                     ; 0xcd <__zp_bss_size+0x9d>
    7964: 86 a0        	stx	$a0                     ; 0xa0 <__zp_bss_size+0x70>
    7966: a6 cc        	ldx	$cc                     ; 0xcc <__zp_bss_size+0x9c>
    7968: 86 a1        	stx	$a1                     ; 0xa1 <__zp_bss_size+0x71>
    796a: a5 a6        	lda	$a6                     ; 0xa6 <__zp_bss_size+0x76>
    796c: 0a           	asl
    796d: 0a           	asl
    796e: 0a           	asl
    796f: 85 14        	sta	$14                     ; 0x14 <__rc4>
    7971: a0 00        	ldy	#$0
    7973: 98           	tya
    7974: f0 50        	beq	$79c6 <_ZN12_GLOBAL__N_15printEPKcP6Status+0x7c4>
    7976: 84 17        	sty	$17                     ; 0x17 <__rc7>
    7978: 88           	dey
    7979: 84 19        	sty	$19                     ; 0x19 <__rc9>
    797b: a2 00        	ldx	#$0
    797d: 64 15        	stz	$15                     ; 0x15 <__rc5>
    797f: 80 0d        	bra	$798e <_ZN12_GLOBAL__N_15printEPKcP6Status+0x78c>
    7981: a4 15        	ldy	$15                     ; 0x15 <__rc5>
    7983: 99 ab 00     	sta	$ab,y                   ; 0xab <__zp_bss_size+0x7b>
    7986: a4 19        	ldy	$19                     ; 0x19 <__rc9>
    7988: c4 15        	cpy	$15                     ; 0x15 <__rc5>
    798a: f0 46        	beq	$79d2 <_ZN12_GLOBAL__N_15printEPKcP6Status+0x7d0>
    798c: e6 15        	inc	$15                     ; 0x15 <__rc5>
    798e: a4 15        	ldy	$15                     ; 0x15 <__rc5>
    7990: b9 ab 00     	lda	$ab,y                   ; 0xab <__zp_bss_size+0x7b>
    7993: 0a           	asl
    7994: e0 00        	cpx	#$0
    7996: f0 02        	beq	$799a <_ZN12_GLOBAL__N_15printEPKcP6Status+0x798>
    7998: 09 01        	ora	#$1
    799a: a4 a5        	ldy	$a5                     ; 0xa5 <__zp_bss_size+0x75>
    799c: 84 16        	sty	$16                     ; 0x16 <__rc6>
    799e: c5 16        	cmp	$16                     ; 0x16 <__rc6>
    79a0: a2 01        	ldx	#$1
    79a2: b0 02        	bcs	$79a6 <_ZN12_GLOBAL__N_15printEPKcP6Status+0x7a4>
    79a4: a2 00        	ldx	#$0
    79a6: 90 d9        	bcc	$7981 <_ZN12_GLOBAL__N_15printEPKcP6Status+0x77f>
    79a8: 84 16        	sty	$16                     ; 0x16 <__rc6>
    79aa: 38           	sec
    79ab: e5 16        	sbc	$16                     ; 0x16 <__rc6>
    79ad: a4 15        	ldy	$15                     ; 0x15 <__rc5>
    79af: 99 ab 00     	sta	$ab,y                   ; 0xab <__zp_bss_size+0x7b>
    79b2: a4 19        	ldy	$19                     ; 0x19 <__rc9>
    79b4: c4 15        	cpy	$15                     ; 0x15 <__rc5>
    79b6: d0 d4        	bne	$798c <_ZN12_GLOBAL__N_15printEPKcP6Status+0x78a>
    79b8: a4 17        	ldy	$17                     ; 0x17 <__rc7>
    79ba: a6 17        	ldx	$17                     ; 0x17 <__rc7>
    79bc: e8           	inx
    79bd: a9 01        	lda	#$1
    79bf: 99 ab 00     	sta	$ab,y                   ; 0xab <__zp_bss_size+0x7b>
    79c2: da           	phx
    79c3: 7a           	ply
    79c4: 80 0e        	bra	$79d4 <_ZN12_GLOBAL__N_15printEPKcP6Status+0x7d2>
    79c6: a6 a6        	ldx	$a6                     ; 0xa6 <__zp_bss_size+0x76>
    79c8: b5 c0        	lda	$c0,x                   ; 0xc0 <__zp_bss_size+0x90>
    79ca: aa           	tax
    79cb: a0 00        	ldy	#$0
    79cd: 8a           	txa
    79ce: 30 36        	bmi	$7a06 <_ZN12_GLOBAL__N_15printEPKcP6Status+0x804>
    79d0: 80 3e        	bra	$7a10 <_ZN12_GLOBAL__N_15printEPKcP6Status+0x80e>
    79d2: a4 17        	ldy	$17                     ; 0x17 <__rc7>
    79d4: a6 a6        	ldx	$a6                     ; 0xa6 <__zp_bss_size+0x76>
    79d6: b5 c0        	lda	$c0,x                   ; 0xc0 <__zp_bss_size+0x90>
    79d8: aa           	tax
    79d9: 10 35        	bpl	$7a10 <_ZN12_GLOBAL__N_15printEPKcP6Status+0x80e>
    79db: 98           	tya
    79dc: f0 26        	beq	$7a04 <_ZN12_GLOBAL__N_15printEPKcP6Status+0x802>
    79de: 84 16        	sty	$16                     ; 0x16 <__rc6>
    79e0: a2 00        	ldx	#$0
    79e2: a4 a5        	ldy	$a5                     ; 0xa5 <__zp_bss_size+0x75>
    79e4: b5 ab        	lda	$ab,x                   ; 0xab <__zp_bss_size+0x7b>
    79e6: 1a           	inc
    79e7: f6 ab        	inc	$ab,x                   ; 0xab <__zp_bss_size+0x7b>
    79e9: 84 15        	sty	$15                     ; 0x15 <__rc5>
    79eb: c5 15        	cmp	$15                     ; 0x15 <__rc5>
    79ed: 90 4e        	bcc	$7a3d <_ZN12_GLOBAL__N_15printEPKcP6Status+0x83b>
    79ef: 84 15        	sty	$15                     ; 0x15 <__rc5>
    79f1: 38           	sec
    79f2: e5 15        	sbc	$15                     ; 0x15 <__rc5>
    79f4: 9d ab 00     	sta	$ab,x                   ; 0xab <__zp_bss_size+0x7b>
    79f7: e8           	inx
    79f8: 86 15        	stx	$15                     ; 0x15 <__rc5>
    79fa: a5 16        	lda	$16                     ; 0x16 <__rc6>
    79fc: c5 15        	cmp	$15                     ; 0x15 <__rc5>
    79fe: d0 e4        	bne	$79e4 <_ZN12_GLOBAL__N_15printEPKcP6Status+0x7e2>
    7a00: a4 16        	ldy	$16                     ; 0x16 <__rc6>
    7a02: 80 02        	bra	$7a06 <_ZN12_GLOBAL__N_15printEPKcP6Status+0x804>
    7a04: a0 00        	ldy	#$0
    7a06: 5a           	phy
    7a07: fa           	plx
    7a08: e8           	inx
    7a09: a9 01        	lda	#$1
    7a0b: 99 ab 00     	sta	$ab,y                   ; 0xab <__zp_bss_size+0x7b>
    7a0e: da           	phx
    7a0f: 7a           	ply
    7a10: 84 19        	sty	$19                     ; 0x19 <__rc9>
    7a12: 64 15        	stz	$15                     ; 0x15 <__rc5>
    7a14: a2 00        	ldx	#$0
    7a16: a4 a6        	ldy	$a6                     ; 0xa6 <__zp_bss_size+0x76>
    7a18: b5 c1        	lda	$c1,x                   ; 0xc1 <__zp_bss_size+0x91>
    7a1a: 0a           	asl
    7a1b: 64 16        	stz	$16                     ; 0x16 <__rc6>
    7a1d: 26 16        	rol	$16                     ; 0x16 <__rc6>
    7a1f: 05 15        	ora	$15                     ; 0x15 <__rc5>
    7a21: 9d c1 00     	sta	$c1,x                   ; 0xc1 <__zp_bss_size+0x91>
    7a24: e8           	inx
    7a25: 86 17        	stx	$17                     ; 0x17 <__rc7>
    7a27: a5 16        	lda	$16                     ; 0x16 <__rc6>
    7a29: 85 15        	sta	$15                     ; 0x15 <__rc5>
    7a2b: c4 17        	cpy	$17                     ; 0x17 <__rc7>
    7a2d: d0 e9        	bne	$7a18 <_ZN12_GLOBAL__N_15printEPKcP6Status+0x816>
    7a2f: a6 a7        	ldx	$a7                     ; 0xa7 <__zp_bss_size+0x77>
    7a31: e8           	inx
    7a32: 86 a7        	stx	$a7                     ; 0xa7 <__zp_bss_size+0x77>
    7a34: e4 14        	cpx	$14                     ; 0x14 <__rc4>
    7a36: a4 19        	ldy	$19                     ; 0x19 <__rc9>
    7a38: b0 07        	bcs	$7a41 <_ZN12_GLOBAL__N_15printEPKcP6Status+0x83f>
    7a3a: 4c 73 79     	jmp	$7973 <_ZN12_GLOBAL__N_15printEPKcP6Status+0x771>
    7a3d: a4 16        	ldy	$16                     ; 0x16 <__rc6>
    7a3f: 80 cf        	bra	$7a10 <_ZN12_GLOBAL__N_15printEPKcP6Status+0x80e>
    7a41: a5 a4        	lda	$a4                     ; 0xa4 <__zp_bss_size+0x74>
    7a43: a6 a1        	ldx	$a1                     ; 0xa1 <__zp_bss_size+0x71>
    7a45: 10 06        	bpl	$7a4d <_ZN12_GLOBAL__N_15printEPKcP6Status+0x84b>
    7a47: a2 01        	ldx	#$1
    7a49: 64 a1        	stz	$a1                     ; 0xa1 <__zp_bss_size+0x71>
    7a4b: 86 a0        	stx	$a0                     ; 0xa0 <__zp_bss_size+0x70>
    7a4d: 29 04        	and	#$4
    7a4f: f0 29        	beq	$7a7a <_ZN12_GLOBAL__N_15printEPKcP6Status+0x878>
    7a51: a6 a5        	ldx	$a5                     ; 0xa5 <__zp_bss_size+0x75>
    7a53: e0 10        	cpx	#$10
    7a55: f0 12        	beq	$7a69 <_ZN12_GLOBAL__N_15printEPKcP6Status+0x867>
    7a57: e0 08        	cpx	#$8
    7a59: d0 1f        	bne	$7a7a <_ZN12_GLOBAL__N_15printEPKcP6Status+0x878>
    7a5b: a2 00        	ldx	#$0
    7a5d: e4 a1        	cpx	$a1                     ; 0xa1 <__zp_bss_size+0x71>
    7a5f: f0 03        	beq	$7a64 <_ZN12_GLOBAL__N_15printEPKcP6Status+0x862>
    7a61: 4c 46 7d     	jmp	$7d46 <_ZN12_GLOBAL__N_15printEPKcP6Status+0xb44>
    7a64: c4 a0        	cpy	$a0                     ; 0xa0 <__zp_bss_size+0x70>
    7a66: 4c 48 7d     	jmp	$7d48 <_ZN12_GLOBAL__N_15printEPKcP6Status+0xb46>
    7a69: 98           	tya
    7a6a: f0 0e        	beq	$7a7a <_ZN12_GLOBAL__N_15printEPKcP6Status+0x878>
    7a6c: a5 a4        	lda	$a4                     ; 0xa4 <__zp_bss_size+0x74>
    7a6e: 29 80        	and	#$80
    7a70: d0 03        	bne	$7a75 <_ZN12_GLOBAL__N_15printEPKcP6Status+0x873>
    7a72: 4c 5b 7d     	jmp	$7d5b <_ZN12_GLOBAL__N_15printEPKcP6Status+0xb59>
    7a75: a2 78        	ldx	#$78
    7a77: 4c 5d 7d     	jmp	$7d5d <_ZN12_GLOBAL__N_15printEPKcP6Status+0xb5b>
    7a7a: a5 a4        	lda	$a4                     ; 0xa4 <__zp_bss_size+0x74>
    7a7c: a2 2d        	ldx	#$2d
    7a7e: e6 18        	inc	$18                     ; 0x18 <__rc8>
    7a80: c6 18        	dec	$18                     ; 0x18 <__rc8>
    7a82: d0 1a        	bne	$7a9e <_ZN12_GLOBAL__N_15printEPKcP6Status+0x89c>
    7a84: 85 14        	sta	$14                     ; 0x14 <__rc4>
    7a86: 29 02        	and	#$2
    7a88: a2 2b        	ldx	#$2b
    7a8a: c9 00        	cmp	#$0
    7a8c: d0 10        	bne	$7a9e <_ZN12_GLOBAL__N_15printEPKcP6Status+0x89c>
    7a8e: a5 14        	lda	$14                     ; 0x14 <__rc4>
    7a90: 29 08        	and	#$8
    7a92: d0 08        	bne	$7a9c <_ZN12_GLOBAL__N_15printEPKcP6Status+0x89a>
    7a94: a2 01        	ldx	#$1
    7a96: 86 a7        	stx	$a7                     ; 0xa7 <__zp_bss_size+0x77>
    7a98: a9 00        	lda	#$0
    7a9a: 80 0a        	bra	$7aa6 <_ZN12_GLOBAL__N_15printEPKcP6Status+0x8a4>
    7a9c: a2 20        	ldx	#$20
    7a9e: 86 a6        	stx	$a6                     ; 0xa6 <__zp_bss_size+0x76>
    7aa0: a2 00        	ldx	#$0
    7aa2: 86 a7        	stx	$a7                     ; 0xa7 <__zp_bss_size+0x77>
    7aa4: a9 01        	lda	#$1
    7aa6: a6 a1        	ldx	$a1                     ; 0xa1 <__zp_bss_size+0x71>
    7aa8: d0 08        	bne	$7ab2 <_ZN12_GLOBAL__N_15printEPKcP6Status+0x8b0>
    7aaa: a6 a0        	ldx	$a0                     ; 0xa0 <__zp_bss_size+0x70>
    7aac: 84 14        	sty	$14                     ; 0x14 <__rc4>
    7aae: e4 14        	cpx	$14                     ; 0x14 <__rc4>
    7ab0: 80 04        	bra	$7ab6 <_ZN12_GLOBAL__N_15printEPKcP6Status+0x8b4>
    7ab2: a6 a1        	ldx	$a1                     ; 0xa1 <__zp_bss_size+0x71>
    7ab4: e0 00        	cpx	#$0
    7ab6: a6 a0        	ldx	$a0                     ; 0xa0 <__zp_bss_size+0x70>
    7ab8: 86 14        	stx	$14                     ; 0x14 <__rc4>
    7aba: a6 a1        	ldx	$a1                     ; 0xa1 <__zp_bss_size+0x71>
    7abc: 86 15        	stx	$15                     ; 0x15 <__rc5>
    7abe: b0 04        	bcs	$7ac4 <_ZN12_GLOBAL__N_15printEPKcP6Status+0x8c2>
    7ac0: 84 14        	sty	$14                     ; 0x14 <__rc4>
    7ac2: 64 15        	stz	$15                     ; 0x15 <__rc5>
    7ac4: 18           	clc
    7ac5: aa           	tax
    7ac6: 65 14        	adc	$14                     ; 0x14 <__rc4>
    7ac8: 85 18        	sta	$18                     ; 0x18 <__rc8>
    7aca: 85 16        	sta	$16                     ; 0x16 <__rc6>
    7acc: a5 15        	lda	$15                     ; 0x15 <__rc5>
    7ace: 69 00        	adc	#$0
    7ad0: 85 17        	sta	$17                     ; 0x17 <__rc7>
    7ad2: 84 a3        	sty	$a3                     ; 0xa3 <__zp_bss_size+0x73>
    7ad4: c5 12        	cmp	$12                     ; 0x12 <__rc2>
    7ad6: d0 06        	bne	$7ade <_ZN12_GLOBAL__N_15printEPKcP6Status+0x8dc>
    7ad8: a4 18        	ldy	$18                     ; 0x18 <__rc8>
    7ada: c4 13        	cpy	$13                     ; 0x13 <__rc3>
    7adc: 80 02        	bra	$7ae0 <_ZN12_GLOBAL__N_15printEPKcP6Status+0x8de>
    7ade: c5 12        	cmp	$12                     ; 0x12 <__rc2>
    7ae0: 64 a2        	stz	$a2                     ; 0xa2 <__zp_bss_size+0x72>
    7ae2: 90 05        	bcc	$7ae9 <_ZN12_GLOBAL__N_15printEPKcP6Status+0x8e7>
    7ae4: 64 a4        	stz	$a4                     ; 0xa4 <__zp_bss_size+0x74>
    7ae6: 4c 3a 7b     	jmp	$7b3a <_ZN12_GLOBAL__N_15printEPKcP6Status+0x938>
    7ae9: a5 a4        	lda	$a4                     ; 0xa4 <__zp_bss_size+0x74>
    7aeb: 29 11        	and	#$11
    7aed: f0 0f        	beq	$7afe <_ZN12_GLOBAL__N_15printEPKcP6Status+0x8fc>
    7aef: a5 13        	lda	$13                     ; 0x13 <__rc3>
    7af1: 38           	sec
    7af2: e5 16        	sbc	$16                     ; 0x16 <__rc6>
    7af4: 85 a2        	sta	$a2                     ; 0xa2 <__zp_bss_size+0x72>
    7af6: a5 12        	lda	$12                     ; 0x12 <__rc2>
    7af8: e5 17        	sbc	$17                     ; 0x17 <__rc7>
    7afa: 85 a4        	sta	$a4                     ; 0xa4 <__zp_bss_size+0x74>
    7afc: 80 3c        	bra	$7b3a <_ZN12_GLOBAL__N_15printEPKcP6Status+0x938>
    7afe: 8a           	txa
    7aff: 38           	sec
    7b00: e5 13        	sbc	$13                     ; 0x13 <__rc3>
    7b02: aa           	tax
    7b03: a9 00        	lda	#$0
    7b05: e5 12        	sbc	$12                     ; 0x12 <__rc2>
    7b07: 85 12        	sta	$12                     ; 0x12 <__rc2>
    7b09: 18           	clc
    7b0a: 8a           	txa
    7b0b: 65 14        	adc	$14                     ; 0x14 <__rc4>
    7b0d: 85 a2        	sta	$a2                     ; 0xa2 <__zp_bss_size+0x72>
    7b0f: a5 12        	lda	$12                     ; 0x12 <__rc2>
    7b11: 65 15        	adc	$15                     ; 0x15 <__rc5>
    7b13: 85 a4        	sta	$a4                     ; 0xa4 <__zp_bss_size+0x74>
    7b15: a2 20        	ldx	#$20
    7b17: 86 a8        	stx	$a8                     ; 0xa8 <__zp_bss_size+0x78>
    7b19: a6 9e        	ldx	$9e                     ; 0x9e <__zp_bss_size+0x6e>
    7b1b: 86 12        	stx	$12                     ; 0x12 <__rc2>
    7b1d: a6 9f        	ldx	$9f                     ; 0x9f <__zp_bss_size+0x6f>
    7b1f: 86 13        	stx	$13                     ; 0x13 <__rc3>
    7b21: a5 a8        	lda	$a8                     ; 0xa8 <__zp_bss_size+0x78>
    7b23: 20 78 7d     	jsr	$7d78 <_ZN12_GLOBAL__N_13putEcP6Status>
    7b26: a6 a4        	ldx	$a4                     ; 0xa4 <__zp_bss_size+0x74>
    7b28: e6 a2        	inc	$a2                     ; 0xa2 <__zp_bss_size+0x72>
    7b2a: d0 01        	bne	$7b2d <_ZN12_GLOBAL__N_15printEPKcP6Status+0x92b>
    7b2c: e8           	inx
    7b2d: 86 a4        	stx	$a4                     ; 0xa4 <__zp_bss_size+0x74>
    7b2f: 8a           	txa
    7b30: d0 e7        	bne	$7b19 <_ZN12_GLOBAL__N_15printEPKcP6Status+0x917>
    7b32: a5 a2        	lda	$a2                     ; 0xa2 <__zp_bss_size+0x72>
    7b34: d0 e3        	bne	$7b19 <_ZN12_GLOBAL__N_15printEPKcP6Status+0x917>
    7b36: 64 a4        	stz	$a4                     ; 0xa4 <__zp_bss_size+0x74>
    7b38: 64 a2        	stz	$a2                     ; 0xa2 <__zp_bss_size+0x72>
    7b3a: a5 a7        	lda	$a7                     ; 0xa7 <__zp_bss_size+0x77>
    7b3c: d0 0d        	bne	$7b4b <_ZN12_GLOBAL__N_15printEPKcP6Status+0x949>
    7b3e: a6 9e        	ldx	$9e                     ; 0x9e <__zp_bss_size+0x6e>
    7b40: 86 12        	stx	$12                     ; 0x12 <__rc2>
    7b42: a6 9f        	ldx	$9f                     ; 0x9f <__zp_bss_size+0x6f>
    7b44: 86 13        	stx	$13                     ; 0x13 <__rc3>
    7b46: a5 a6        	lda	$a6                     ; 0xa6 <__zp_bss_size+0x76>
    7b48: 20 78 7d     	jsr	$7d78 <_ZN12_GLOBAL__N_13putEcP6Status>
    7b4b: a6 cb        	ldx	$cb                     ; 0xcb <__zp_bss_size+0x9b>
    7b4d: f0 0d        	beq	$7b5c <_ZN12_GLOBAL__N_15printEPKcP6Status+0x95a>
    7b4f: a6 9e        	ldx	$9e                     ; 0x9e <__zp_bss_size+0x6e>
    7b51: 86 12        	stx	$12                     ; 0x12 <__rc2>
    7b53: a6 9f        	ldx	$9f                     ; 0x9f <__zp_bss_size+0x6f>
    7b55: 86 13        	stx	$13                     ; 0x13 <__rc3>
    7b57: a5 a5        	lda	$a5                     ; 0xa5 <__zp_bss_size+0x75>
    7b59: 20 78 7d     	jsr	$7d78 <_ZN12_GLOBAL__N_13putEcP6Status>
    7b5c: a0 01        	ldy	#$1
    7b5e: b1 9e        	lda	($9e),y                 ; 0x9e <__zp_bss_size+0x6e>
    7b60: aa           	tax
    7b61: 29 10        	and	#$10
    7b63: f0 3a        	beq	$7b9f <_ZN12_GLOBAL__N_15printEPKcP6Status+0x99d>
    7b65: 8a           	txa
    7b66: 29 01        	and	#$1
    7b68: a6 a3        	ldx	$a3                     ; 0xa3 <__zp_bss_size+0x73>
    7b6a: a8           	tay
    7b6b: d0 34        	bne	$7ba1 <_ZN12_GLOBAL__N_15printEPKcP6Status+0x99f>
    7b6d: a5 a4        	lda	$a4                     ; 0xa4 <__zp_bss_size+0x74>
    7b6f: d0 07        	bne	$7b78 <_ZN12_GLOBAL__N_15printEPKcP6Status+0x976>
    7b71: a5 a2        	lda	$a2                     ; 0xa2 <__zp_bss_size+0x72>
    7b73: d0 03        	bne	$7b78 <_ZN12_GLOBAL__N_15printEPKcP6Status+0x976>
    7b75: 4c 71 7d     	jmp	$7d71 <_ZN12_GLOBAL__N_15printEPKcP6Status+0xb6f>
    7b78: a2 30        	ldx	#$30
    7b7a: 86 a5        	stx	$a5                     ; 0xa5 <__zp_bss_size+0x75>
    7b7c: a6 9e        	ldx	$9e                     ; 0x9e <__zp_bss_size+0x6e>
    7b7e: 86 12        	stx	$12                     ; 0x12 <__rc2>
    7b80: a6 9f        	ldx	$9f                     ; 0x9f <__zp_bss_size+0x6f>
    7b82: 86 13        	stx	$13                     ; 0x13 <__rc3>
    7b84: a5 a5        	lda	$a5                     ; 0xa5 <__zp_bss_size+0x75>
    7b86: 20 78 7d     	jsr	$7d78 <_ZN12_GLOBAL__N_13putEcP6Status>
    7b89: a2 ff        	ldx	#$ff
    7b8b: c6 a2        	dec	$a2                     ; 0xa2 <__zp_bss_size+0x72>
    7b8d: e4 a2        	cpx	$a2                     ; 0xa2 <__zp_bss_size+0x72>
    7b8f: d0 02        	bne	$7b93 <_ZN12_GLOBAL__N_15printEPKcP6Status+0x991>
    7b91: c6 a4        	dec	$a4                     ; 0xa4 <__zp_bss_size+0x74>
    7b93: a5 a4        	lda	$a4                     ; 0xa4 <__zp_bss_size+0x74>
    7b95: d0 e5        	bne	$7b7c <_ZN12_GLOBAL__N_15printEPKcP6Status+0x97a>
    7b97: a5 a2        	lda	$a2                     ; 0xa2 <__zp_bss_size+0x72>
    7b99: d0 e1        	bne	$7b7c <_ZN12_GLOBAL__N_15printEPKcP6Status+0x97a>
    7b9b: 64 a2        	stz	$a2                     ; 0xa2 <__zp_bss_size+0x72>
    7b9d: 64 a4        	stz	$a4                     ; 0xa4 <__zp_bss_size+0x74>
    7b9f: a6 a3        	ldx	$a3                     ; 0xa3 <__zp_bss_size+0x73>
    7ba1: a0 00        	ldy	#$0
    7ba3: c4 a1        	cpy	$a1                     ; 0xa1 <__zp_bss_size+0x71>
    7ba5: d0 06        	bne	$7bad <_ZN12_GLOBAL__N_15printEPKcP6Status+0x9ab>
    7ba7: e4 a0        	cpx	$a0                     ; 0xa0 <__zp_bss_size+0x70>
    7ba9: 90 06        	bcc	$7bb1 <_ZN12_GLOBAL__N_15printEPKcP6Status+0x9af>
    7bab: 80 33        	bra	$7be0 <_ZN12_GLOBAL__N_15printEPKcP6Status+0x9de>
    7bad: c4 a1        	cpy	$a1                     ; 0xa1 <__zp_bss_size+0x71>
    7baf: b0 2f        	bcs	$7be0 <_ZN12_GLOBAL__N_15printEPKcP6Status+0x9de>
    7bb1: a2 30        	ldx	#$30
    7bb3: 86 a5        	stx	$a5                     ; 0xa5 <__zp_bss_size+0x75>
    7bb5: a2 ff        	ldx	#$ff
    7bb7: c6 a0        	dec	$a0                     ; 0xa0 <__zp_bss_size+0x70>
    7bb9: e4 a0        	cpx	$a0                     ; 0xa0 <__zp_bss_size+0x70>
    7bbb: d0 02        	bne	$7bbf <_ZN12_GLOBAL__N_15printEPKcP6Status+0x9bd>
    7bbd: c6 a1        	dec	$a1                     ; 0xa1 <__zp_bss_size+0x71>
    7bbf: a6 9e        	ldx	$9e                     ; 0x9e <__zp_bss_size+0x6e>
    7bc1: 86 12        	stx	$12                     ; 0x12 <__rc2>
    7bc3: a6 9f        	ldx	$9f                     ; 0x9f <__zp_bss_size+0x6f>
    7bc5: 86 13        	stx	$13                     ; 0x13 <__rc3>
    7bc7: a5 a5        	lda	$a5                     ; 0xa5 <__zp_bss_size+0x75>
    7bc9: 20 78 7d     	jsr	$7d78 <_ZN12_GLOBAL__N_13putEcP6Status>
    7bcc: a2 00        	ldx	#$0
    7bce: e4 a1        	cpx	$a1                     ; 0xa1 <__zp_bss_size+0x71>
    7bd0: d0 08        	bne	$7bda <_ZN12_GLOBAL__N_15printEPKcP6Status+0x9d8>
    7bd2: a6 a3        	ldx	$a3                     ; 0xa3 <__zp_bss_size+0x73>
    7bd4: e4 a0        	cpx	$a0                     ; 0xa0 <__zp_bss_size+0x70>
    7bd6: 90 dd        	bcc	$7bb5 <_ZN12_GLOBAL__N_15printEPKcP6Status+0x9b3>
    7bd8: 80 06        	bra	$7be0 <_ZN12_GLOBAL__N_15printEPKcP6Status+0x9de>
    7bda: e4 a1        	cpx	$a1                     ; 0xa1 <__zp_bss_size+0x71>
    7bdc: a6 a3        	ldx	$a3                     ; 0xa3 <__zp_bss_size+0x73>
    7bde: 90 d5        	bcc	$7bb5 <_ZN12_GLOBAL__N_15printEPKcP6Status+0x9b3>
    7be0: a4 a2        	ldy	$a2                     ; 0xa2 <__zp_bss_size+0x72>
    7be2: 84 a3        	sty	$a3                     ; 0xa3 <__zp_bss_size+0x73>
    7be4: 8a           	txa
    7be5: d0 03        	bne	$7bea <_ZN12_GLOBAL__N_15printEPKcP6Status+0x9e8>
    7be7: 4c 7a 7c     	jmp	$7c7a <_ZN12_GLOBAL__N_15printEPKcP6Status+0xa78>
    7bea: ca           	dex
    7beb: d0 03        	bne	$7bf0 <_ZN12_GLOBAL__N_15printEPKcP6Status+0x9ee>
    7bed: 4c 4b 7c     	jmp	$7c4b <_ZN12_GLOBAL__N_15printEPKcP6Status+0xa49>
    7bf0: 86 a2        	stx	$a2                     ; 0xa2 <__zp_bss_size+0x72>
    7bf2: a9 a9        	lda	#$a9
    7bf4: 18           	clc
    7bf5: 65 a2        	adc	$a2                     ; 0xa2 <__zp_bss_size+0x72>
    7bf7: aa           	tax
    7bf8: a9 00        	lda	#$0
    7bfa: 69 00        	adc	#$0
    7bfc: 85 12        	sta	$12                     ; 0x12 <__rc2>
    7bfe: 18           	clc
    7bff: 8a           	txa
    7c00: 69 02        	adc	#$2
    7c02: 85 a0        	sta	$a0                     ; 0xa0 <__zp_bss_size+0x70>
    7c04: a5 12        	lda	$12                     ; 0x12 <__rc2>
    7c06: 69 00        	adc	#$0
    7c08: 85 a1        	sta	$a1                     ; 0xa1 <__zp_bss_size+0x71>
    7c0a: 80 35        	bra	$7c41 <_ZN12_GLOBAL__N_15printEPKcP6Status+0xa3f>
    7c0c: 85 13        	sta	$13                     ; 0x13 <__rc3>
    7c0e: a9 80        	lda	#$80
    7c10: a0 01        	ldy	#$1
    7c12: 31 9e        	and	($9e),y                 ; 0x9e <__zp_bss_size+0x6e>
    7c14: f0 04        	beq	$7c1a <_ZN12_GLOBAL__N_15printEPKcP6Status+0xa18>
    7c16: a2 61        	ldx	#$61
    7c18: 80 02        	bra	$7c1c <_ZN12_GLOBAL__N_15printEPKcP6Status+0xa1a>
    7c1a: a2 41        	ldx	#$41
    7c1c: 86 12        	stx	$12                     ; 0x12 <__rc2>
    7c1e: 18           	clc
    7c1f: a5 13        	lda	$13                     ; 0x13 <__rc3>
    7c21: 65 12        	adc	$12                     ; 0x12 <__rc2>
    7c23: 18           	clc
    7c24: 69 f6        	adc	#$f6
    7c26: a6 9e        	ldx	$9e                     ; 0x9e <__zp_bss_size+0x6e>
    7c28: 86 12        	stx	$12                     ; 0x12 <__rc2>
    7c2a: a6 9f        	ldx	$9f                     ; 0x9f <__zp_bss_size+0x6f>
    7c2c: 86 13        	stx	$13                     ; 0x13 <__rc3>
    7c2e: 20 78 7d     	jsr	$7d78 <_ZN12_GLOBAL__N_13putEcP6Status>
    7c31: c6 a2        	dec	$a2                     ; 0xa2 <__zp_bss_size+0x72>
    7c33: a2 ff        	ldx	#$ff
    7c35: c6 a0        	dec	$a0                     ; 0xa0 <__zp_bss_size+0x70>
    7c37: e4 a0        	cpx	$a0                     ; 0xa0 <__zp_bss_size+0x70>
    7c39: d0 02        	bne	$7c3d <_ZN12_GLOBAL__N_15printEPKcP6Status+0xa3b>
    7c3b: c6 a1        	dec	$a1                     ; 0xa1 <__zp_bss_size+0x71>
    7c3d: a5 a2        	lda	$a2                     ; 0xa2 <__zp_bss_size+0x72>
    7c3f: f0 0a        	beq	$7c4b <_ZN12_GLOBAL__N_15printEPKcP6Status+0xa49>
    7c41: b2 a0        	lda	($a0)                   ; 0xa0 <__zp_bss_size+0x70>
    7c43: c9 0a        	cmp	#$a
    7c45: b0 c5        	bcs	$7c0c <_ZN12_GLOBAL__N_15printEPKcP6Status+0xa0a>
    7c47: 09 30        	ora	#$30
    7c49: 80 db        	bra	$7c26 <_ZN12_GLOBAL__N_15printEPKcP6Status+0xa24>
    7c4b: a5 ab        	lda	$ab                     ; 0xab <__zp_bss_size+0x7b>
    7c4d: c9 0a        	cmp	#$a
    7c4f: b0 04        	bcs	$7c55 <_ZN12_GLOBAL__N_15printEPKcP6Status+0xa53>
    7c51: 09 30        	ora	#$30
    7c53: 80 1a        	bra	$7c6f <_ZN12_GLOBAL__N_15printEPKcP6Status+0xa6d>
    7c55: 85 13        	sta	$13                     ; 0x13 <__rc3>
    7c57: a0 01        	ldy	#$1
    7c59: a9 80        	lda	#$80
    7c5b: 31 9e        	and	($9e),y                 ; 0x9e <__zp_bss_size+0x6e>
    7c5d: f0 04        	beq	$7c63 <_ZN12_GLOBAL__N_15printEPKcP6Status+0xa61>
    7c5f: a2 61        	ldx	#$61
    7c61: 80 02        	bra	$7c65 <_ZN12_GLOBAL__N_15printEPKcP6Status+0xa63>
    7c63: a2 41        	ldx	#$41
    7c65: 86 12        	stx	$12                     ; 0x12 <__rc2>
    7c67: a5 13        	lda	$13                     ; 0x13 <__rc3>
    7c69: 18           	clc
    7c6a: 65 12        	adc	$12                     ; 0x12 <__rc2>
    7c6c: 18           	clc
    7c6d: 69 f6        	adc	#$f6
    7c6f: a6 9e        	ldx	$9e                     ; 0x9e <__zp_bss_size+0x6e>
    7c71: 86 12        	stx	$12                     ; 0x12 <__rc2>
    7c73: a6 9f        	ldx	$9f                     ; 0x9f <__zp_bss_size+0x6f>
    7c75: 86 13        	stx	$13                     ; 0x13 <__rc3>
    7c77: 20 78 7d     	jsr	$7d78 <_ZN12_GLOBAL__N_13putEcP6Status>
    7c7a: a0 01        	ldy	#$1
    7c7c: 98           	tya
    7c7d: 31 9e        	and	($9e),y                 ; 0x9e <__zp_bss_size+0x6e>
    7c7f: f0 2b        	beq	$7cac <_ZN12_GLOBAL__N_15printEPKcP6Status+0xaaa>
    7c81: a5 a4        	lda	$a4                     ; 0xa4 <__zp_bss_size+0x74>
    7c83: d0 04        	bne	$7c89 <_ZN12_GLOBAL__N_15printEPKcP6Status+0xa87>
    7c85: a5 a3        	lda	$a3                     ; 0xa3 <__zp_bss_size+0x73>
    7c87: f0 23        	beq	$7cac <_ZN12_GLOBAL__N_15printEPKcP6Status+0xaaa>
    7c89: a2 20        	ldx	#$20
    7c8b: 86 a0        	stx	$a0                     ; 0xa0 <__zp_bss_size+0x70>
    7c8d: a6 9e        	ldx	$9e                     ; 0x9e <__zp_bss_size+0x6e>
    7c8f: 86 12        	stx	$12                     ; 0x12 <__rc2>
    7c91: a6 9f        	ldx	$9f                     ; 0x9f <__zp_bss_size+0x6f>
    7c93: 86 13        	stx	$13                     ; 0x13 <__rc3>
    7c95: a5 a0        	lda	$a0                     ; 0xa0 <__zp_bss_size+0x70>
    7c97: 20 78 7d     	jsr	$7d78 <_ZN12_GLOBAL__N_13putEcP6Status>
    7c9a: a2 ff        	ldx	#$ff
    7c9c: c6 a3        	dec	$a3                     ; 0xa3 <__zp_bss_size+0x73>
    7c9e: e4 a3        	cpx	$a3                     ; 0xa3 <__zp_bss_size+0x73>
    7ca0: d0 02        	bne	$7ca4 <_ZN12_GLOBAL__N_15printEPKcP6Status+0xaa2>
    7ca2: c6 a4        	dec	$a4                     ; 0xa4 <__zp_bss_size+0x74>
    7ca4: a5 a4        	lda	$a4                     ; 0xa4 <__zp_bss_size+0x74>
    7ca6: d0 e5        	bne	$7c8d <_ZN12_GLOBAL__N_15printEPKcP6Status+0xa8b>
    7ca8: a5 a3        	lda	$a3                     ; 0xa3 <__zp_bss_size+0x73>
    7caa: d0 e1        	bne	$7c8d <_ZN12_GLOBAL__N_15printEPKcP6Status+0xa8b>
    7cac: a4 9e        	ldy	$9e                     ; 0x9e <__zp_bss_size+0x6e>
    7cae: 18           	clc
    7caf: a5 9e        	lda	$9e                     ; 0x9e <__zp_bss_size+0x6e>
    7cb1: 84 14        	sty	$14                     ; 0x14 <__rc4>
    7cb3: 69 05        	adc	#$5
    7cb5: 85 12        	sta	$12                     ; 0x12 <__rc2>
    7cb7: a5 9f        	lda	$9f                     ; 0x9f <__zp_bss_size+0x6f>
    7cb9: 69 00        	adc	#$0
    7cbb: 18           	clc
    7cbc: 85 13        	sta	$13                     ; 0x13 <__rc3>
    7cbe: a0 01        	ldy	#$1
    7cc0: a5 14        	lda	$14                     ; 0x14 <__rc4>
    7cc2: 69 03        	adc	#$3
    7cc4: 85 14        	sta	$14                     ; 0x14 <__rc4>
    7cc6: a5 9f        	lda	$9f                     ; 0x9f <__zp_bss_size+0x6f>
    7cc8: 69 00        	adc	#$0
    7cca: aa           	tax
    7ccb: b1 12        	lda	($12),y                 ; 0x12 <__rc2>
    7ccd: 84 17        	sty	$17                     ; 0x17 <__rc7>
    7ccf: 85 15        	sta	$15                     ; 0x15 <__rc5>
    7cd1: a4 14        	ldy	$14                     ; 0x14 <__rc4>
    7cd3: 84 12        	sty	$12                     ; 0x12 <__rc2>
    7cd5: 86 13        	stx	$13                     ; 0x13 <__rc3>
    7cd7: a0 03        	ldy	#$3
    7cd9: b1 9e        	lda	($9e),y                 ; 0x9e <__zp_bss_size+0x6e>
    7cdb: 85 16        	sta	$16                     ; 0x16 <__rc6>
    7cdd: a4 17        	ldy	$17                     ; 0x17 <__rc7>
    7cdf: b1 12        	lda	($12),y                 ; 0x12 <__rc2>
    7ce1: 85 17        	sta	$17                     ; 0x17 <__rc7>
    7ce3: 85 12        	sta	$12                     ; 0x12 <__rc2>
    7ce5: a4 15        	ldy	$15                     ; 0x15 <__rc5>
    7ce7: c4 12        	cpy	$12                     ; 0x12 <__rc2>
    7ce9: d0 0c        	bne	$7cf7 <_ZN12_GLOBAL__N_15printEPKcP6Status+0xaf5>
    7ceb: a6 16        	ldx	$16                     ; 0x16 <__rc6>
    7ced: a0 05        	ldy	#$5
    7cef: b1 9e        	lda	($9e),y                 ; 0x9e <__zp_bss_size+0x6e>
    7cf1: 86 12        	stx	$12                     ; 0x12 <__rc2>
    7cf3: c5 12        	cmp	$12                     ; 0x12 <__rc2>
    7cf5: 80 08        	bra	$7cff <_ZN12_GLOBAL__N_15printEPKcP6Status+0xafd>
    7cf7: 84 13        	sty	$13                     ; 0x13 <__rc3>
    7cf9: 85 12        	sta	$12                     ; 0x12 <__rc2>
    7cfb: a6 13        	ldx	$13                     ; 0x13 <__rc3>
    7cfd: e4 12        	cpx	$12                     ; 0x12 <__rc2>
    7cff: a6 c9        	ldx	$c9                     ; 0xc9 <__zp_bss_size+0x99>
    7d01: 86 12        	stx	$12                     ; 0x12 <__rc2>
    7d03: a6 ca        	ldx	$ca                     ; 0xca <__zp_bss_size+0x9a>
    7d05: 86 13        	stx	$13                     ; 0x13 <__rc3>
    7d07: 90 36        	bcc	$7d3f <_ZN12_GLOBAL__N_15printEPKcP6Status+0xb3d>
    7d09: a6 16        	ldx	$16                     ; 0x16 <__rc6>
    7d0b: a5 17        	lda	$17                     ; 0x17 <__rc7>
    7d0d: d0 03        	bne	$7d12 <_ZN12_GLOBAL__N_15printEPKcP6Status+0xb10>
    7d0f: 8a           	txa
    7d10: f0 2d        	beq	$7d3f <_ZN12_GLOBAL__N_15printEPKcP6Status+0xb3d>
    7d12: a5 9e        	lda	$9e                     ; 0x9e <__zp_bss_size+0x6e>
    7d14: 18           	clc
    7d15: 69 09        	adc	#$9
    7d17: 85 14        	sta	$14                     ; 0x14 <__rc4>
    7d19: a5 9f        	lda	$9f                     ; 0x9f <__zp_bss_size+0x6f>
    7d1b: 69 00        	adc	#$0
    7d1d: a0 09        	ldy	#$9
    7d1f: 85 15        	sta	$15                     ; 0x15 <__rc5>
    7d21: 18           	clc
    7d22: a5 16        	lda	$16                     ; 0x16 <__rc6>
    7d24: 71 9e        	adc	($9e),y                 ; 0x9e <__zp_bss_size+0x6e>
    7d26: aa           	tax
    7d27: a0 01        	ldy	#$1
    7d29: a5 17        	lda	$17                     ; 0x17 <__rc7>
    7d2b: 71 14        	adc	($14),y                 ; 0x14 <__rc4>
    7d2d: 86 14        	stx	$14                     ; 0x14 <__rc4>
    7d2f: 85 15        	sta	$15                     ; 0x15 <__rc5>
    7d31: a2 ff        	ldx	#$ff
    7d33: c6 14        	dec	$14                     ; 0x14 <__rc4>
    7d35: e4 14        	cpx	$14                     ; 0x14 <__rc4>
    7d37: d0 02        	bne	$7d3b <_ZN12_GLOBAL__N_15printEPKcP6Status+0xb39>
    7d39: c6 15        	dec	$15                     ; 0x15 <__rc5>
    7d3b: a9 00        	lda	#$0
    7d3d: 92 14        	sta	($14)                   ; 0x14 <__rc4>
    7d3f: e6 12        	inc	$12                     ; 0x12 <__rc2>
    7d41: d0 02        	bne	$7d45 <_ZN12_GLOBAL__N_15printEPKcP6Status+0xb43>
    7d43: e6 13        	inc	$13                     ; 0x13 <__rc3>
    7d45: 60           	rts
    7d46: e4 a1        	cpx	$a1                     ; 0xa1 <__zp_bss_size+0x71>
    7d48: a5 a4        	lda	$a4                     ; 0xa4 <__zp_bss_size+0x74>
    7d4a: b0 03        	bcs	$7d4f <_ZN12_GLOBAL__N_15printEPKcP6Status+0xb4d>
    7d4c: 4c 7c 7a     	jmp	$7a7c <_ZN12_GLOBAL__N_15printEPKcP6Status+0x87a>
    7d4f: 84 a0        	sty	$a0                     ; 0xa0 <__zp_bss_size+0x70>
    7d51: e6 a0        	inc	$a0                     ; 0xa0 <__zp_bss_size+0x70>
    7d53: d0 01        	bne	$7d56 <_ZN12_GLOBAL__N_15printEPKcP6Status+0xb54>
    7d55: e8           	inx
    7d56: 86 a1        	stx	$a1                     ; 0xa1 <__zp_bss_size+0x71>
    7d58: 4c 7c 7a     	jmp	$7a7c <_ZN12_GLOBAL__N_15printEPKcP6Status+0x87a>
    7d5b: a2 58        	ldx	#$58
    7d5d: 86 a5        	stx	$a5                     ; 0xa5 <__zp_bss_size+0x75>
    7d5f: 38           	sec
    7d60: a2 01        	ldx	#$1
    7d62: 86 cb        	stx	$cb                     ; 0xcb <__zp_bss_size+0x9b>
    7d64: a2 30        	ldx	#$30
    7d66: 86 a6        	stx	$a6                     ; 0xa6 <__zp_bss_size+0x76>
    7d68: a9 02        	lda	#$2
    7d6a: a2 00        	ldx	#$0
    7d6c: 86 a7        	stx	$a7                     ; 0xa7 <__zp_bss_size+0x77>
    7d6e: 4c a6 7a     	jmp	$7aa6 <_ZN12_GLOBAL__N_15printEPKcP6Status+0x8a4>
    7d71: 64 a2        	stz	$a2                     ; 0xa2 <__zp_bss_size+0x72>
    7d73: 64 a4        	stz	$a4                     ; 0xa4 <__zp_bss_size+0x74>
    7d75: 4c a1 7b     	jmp	$7ba1 <_ZN12_GLOBAL__N_15printEPKcP6Status+0x99f>

00007d78 <_ZN12_GLOBAL__N_13putEcP6Status>:
    7d78: 85 18        	sta	$18                     ; 0x18 <__rc8>
    7d7a: a6 13        	ldx	$13                     ; 0x13 <__rc3>
    7d7c: 18           	clc
    7d7d: a5 12        	lda	$12                     ; 0x12 <__rc2>
    7d7f: 69 05        	adc	#$5
    7d81: a8           	tay
    7d82: a5 13        	lda	$13                     ; 0x13 <__rc3>
    7d84: 86 15        	stx	$15                     ; 0x15 <__rc5>
    7d86: 69 00        	adc	#$0
    7d88: 18           	clc
    7d89: 84 16        	sty	$16                     ; 0x16 <__rc6>
    7d8b: a0 05        	ldy	#$5
    7d8d: 85 17        	sta	$17                     ; 0x17 <__rc7>
    7d8f: b1 12        	lda	($12),y                 ; 0x12 <__rc2>
    7d91: aa           	tax
    7d92: a5 12        	lda	$12                     ; 0x12 <__rc2>
    7d94: 69 03        	adc	#$3
    7d96: 85 14        	sta	$14                     ; 0x14 <__rc4>
    7d98: a5 15        	lda	$15                     ; 0x15 <__rc5>
    7d9a: 69 00        	adc	#$0
    7d9c: 85 15        	sta	$15                     ; 0x15 <__rc5>
    7d9e: a0 01        	ldy	#$1
    7da0: b1 16        	lda	($16),y                 ; 0x16 <__rc6>
    7da2: d1 14        	cmp	($14),y                 ; 0x14 <__rc4>
    7da4: d0 11        	bne	$7db7 <_ZN12_GLOBAL__N_13putEcP6Status+0x3f>
    7da6: a0 03        	ldy	#$3
    7da8: 85 17        	sta	$17                     ; 0x17 <__rc7>
    7daa: b1 12        	lda	($12),y                 ; 0x12 <__rc2>
    7dac: 85 14        	sta	$14                     ; 0x14 <__rc4>
    7dae: 86 16        	stx	$16                     ; 0x16 <__rc6>
    7db0: e4 14        	cpx	$14                     ; 0x14 <__rc4>
    7db2: 90 0e        	bcc	$7dc2 <_ZN12_GLOBAL__N_13putEcP6Status+0x4a>
    7db4: 4c 2b 7e     	jmp	$7e2b <_ZN12_GLOBAL__N_13putEcP6Status+0xb3>
    7db7: 86 16        	stx	$16                     ; 0x16 <__rc6>
    7db9: d1 14        	cmp	($14),y                 ; 0x14 <__rc4>
    7dbb: 85 17        	sta	$17                     ; 0x17 <__rc7>
    7dbd: 90 03        	bcc	$7dc2 <_ZN12_GLOBAL__N_13putEcP6Status+0x4a>
    7dbf: 4c 2b 7e     	jmp	$7e2b <_ZN12_GLOBAL__N_13putEcP6Status+0xb3>
    7dc2: a5 12        	lda	$12                     ; 0x12 <__rc2>
    7dc4: 18           	clc
    7dc5: 69 0f        	adc	#$f
    7dc7: 85 14        	sta	$14                     ; 0x14 <__rc4>
    7dc9: a5 13        	lda	$13                     ; 0x13 <__rc3>
    7dcb: 69 00        	adc	#$0
    7dcd: 85 15        	sta	$15                     ; 0x15 <__rc5>
    7dcf: a0 01        	ldy	#$1
    7dd1: b1 14        	lda	($14),y                 ; 0x14 <__rc4>
    7dd3: a2 00        	ldx	#$0
    7dd5: 86 14        	stx	$14                     ; 0x14 <__rc4>
    7dd7: a2 00        	ldx	#$0
    7dd9: 86 15        	stx	$15                     ; 0x15 <__rc5>
    7ddb: c5 15        	cmp	$15                     ; 0x15 <__rc5>
    7ddd: d0 2d        	bne	$7e0c <_ZN12_GLOBAL__N_13putEcP6Status+0x94>
    7ddf: a0 0f        	ldy	#$f
    7de1: b1 12        	lda	($12),y                 ; 0x12 <__rc2>
    7de3: c5 14        	cmp	$14                     ; 0x14 <__rc4>
    7de5: d0 25        	bne	$7e0c <_ZN12_GLOBAL__N_13putEcP6Status+0x94>
    7de7: a5 12        	lda	$12                     ; 0x12 <__rc2>
    7de9: 18           	clc
    7dea: 69 09        	adc	#$9
    7dec: 85 14        	sta	$14                     ; 0x14 <__rc4>
    7dee: a5 13        	lda	$13                     ; 0x13 <__rc3>
    7df0: 69 00        	adc	#$0
    7df2: a0 09        	ldy	#$9
    7df4: 85 15        	sta	$15                     ; 0x15 <__rc5>
    7df6: 18           	clc
    7df7: a5 16        	lda	$16                     ; 0x16 <__rc6>
    7df9: 71 12        	adc	($12),y                 ; 0x12 <__rc2>
    7dfb: aa           	tax
    7dfc: a0 01        	ldy	#$1
    7dfe: a5 17        	lda	$17                     ; 0x17 <__rc7>
    7e00: 71 14        	adc	($14),y                 ; 0x14 <__rc4>
    7e02: 86 14        	stx	$14                     ; 0x14 <__rc4>
    7e04: 85 15        	sta	$15                     ; 0x15 <__rc5>
    7e06: a5 18        	lda	$18                     ; 0x18 <__rc8>
    7e08: 92 14        	sta	($14)                   ; 0x14 <__rc4>
    7e0a: 80 1f        	bra	$7e2b <_ZN12_GLOBAL__N_13putEcP6Status+0xb3>
    7e0c: a6 12        	ldx	$12                     ; 0x12 <__rc2>
    7e0e: 86 db        	stx	$db                     ; 0xdb <__zp_bss_size+0xab>
    7e10: a6 13        	ldx	$13                     ; 0x13 <__rc3>
    7e12: 86 dc        	stx	$dc                     ; 0xdc <__zp_bss_size+0xac>
    7e14: a5 18        	lda	$18                     ; 0x18 <__rc8>
    7e16: 85 6c        	sta	$6c                     ; 0x6c <__putchar.s>
    7e18: a2 6c        	ldx	#$6c
    7e1a: 86 12        	stx	$12                     ; 0x12 <__rc2>
    7e1c: a2 00        	ldx	#$0
    7e1e: 86 13        	stx	$13                     ; 0x13 <__rc3>
    7e20: 20 d1 6d     	jsr	$6dd1 <textPrint>
    7e23: a6 db        	ldx	$db                     ; 0xdb <__zp_bss_size+0xab>
    7e25: 86 12        	stx	$12                     ; 0x12 <__rc2>
    7e27: a6 dc        	ldx	$dc                     ; 0xdc <__zp_bss_size+0xac>
    7e29: 86 13        	stx	$13                     ; 0x13 <__rc3>
    7e2b: a0 05        	ldy	#$5
    7e2d: a5 12        	lda	$12                     ; 0x12 <__rc2>
    7e2f: 18           	clc
    7e30: 69 05        	adc	#$5
    7e32: 85 14        	sta	$14                     ; 0x14 <__rc4>
    7e34: a5 13        	lda	$13                     ; 0x13 <__rc3>
    7e36: 69 00        	adc	#$0
    7e38: 85 15        	sta	$15                     ; 0x15 <__rc5>
    7e3a: b1 12        	lda	($12),y                 ; 0x12 <__rc2>
    7e3c: aa           	tax
    7e3d: 84 16        	sty	$16                     ; 0x16 <__rc6>
    7e3f: a0 01        	ldy	#$1
    7e41: b1 14        	lda	($14),y                 ; 0x14 <__rc4>
    7e43: 84 17        	sty	$17                     ; 0x17 <__rc7>
    7e45: e8           	inx
    7e46: d0 01        	bne	$7e49 <_ZN12_GLOBAL__N_13putEcP6Status+0xd1>
    7e48: 1a           	inc
    7e49: 85 18        	sta	$18                     ; 0x18 <__rc8>
    7e4b: 8a           	txa
    7e4c: a4 16        	ldy	$16                     ; 0x16 <__rc6>
    7e4e: 91 12        	sta	($12),y                 ; 0x12 <__rc2>
    7e50: a4 17        	ldy	$17                     ; 0x17 <__rc7>
    7e52: a5 18        	lda	$18                     ; 0x18 <__rc8>
    7e54: 91 14        	sta	($14),y                 ; 0x14 <__rc4>
    7e56: 60           	rts

00007e57 <_ZN12_GLOBAL__N_112print_stringEPKcP6Status>:
    7e57: a6 12        	ldx	$12                     ; 0x12 <__rc2>
    7e59: 86 d2        	stx	$d2                     ; 0xd2 <__zp_bss_size+0xa2>
    7e5b: a6 13        	ldx	$13                     ; 0x13 <__rc3>
    7e5d: 86 d3        	stx	$d3                     ; 0xd3 <__zp_bss_size+0xa3>
    7e5f: a6 14        	ldx	$14                     ; 0x14 <__rc4>
    7e61: 86 d4        	stx	$d4                     ; 0xd4 <__zp_bss_size+0xa4>
    7e63: a6 15        	ldx	$15                     ; 0x15 <__rc5>
    7e65: 86 d5        	stx	$d5                     ; 0xd5 <__zp_bss_size+0xa5>
    7e67: a5 d4        	lda	$d4                     ; 0xd4 <__zp_bss_size+0xa4>
    7e69: 18           	clc
    7e6a: 69 0d        	adc	#$d
    7e6c: 85 12        	sta	$12                     ; 0x12 <__rc2>
    7e6e: a5 d5        	lda	$d5                     ; 0xd5 <__zp_bss_size+0xa5>
    7e70: 69 00        	adc	#$0
    7e72: 85 13        	sta	$13                     ; 0x13 <__rc3>
    7e74: a0 01        	ldy	#$1
    7e76: b1 12        	lda	($12),y                 ; 0x12 <__rc2>
    7e78: 30 14        	bmi	$7e8e <_ZN12_GLOBAL__N_112print_stringEPKcP6Status+0x37>
    7e7a: a0 0d        	ldy	#$d
    7e7c: aa           	tax
    7e7d: b1 d4        	lda	($d4),y                 ; 0xd4 <__zp_bss_size+0xa4>
    7e7f: 86 d7        	stx	$d7                     ; 0xd7 <__zp_bss_size+0xa7>
    7e81: e0 00        	cpx	#$0
    7e83: d0 0e        	bne	$7e93 <_ZN12_GLOBAL__N_112print_stringEPKcP6Status+0x3c>
    7e85: aa           	tax
    7e86: d0 0b        	bne	$7e93 <_ZN12_GLOBAL__N_112print_stringEPKcP6Status+0x3c>
    7e88: 64 d6        	stz	$d6                     ; 0xd6 <__zp_bss_size+0xa6>
    7e8a: 64 d7        	stz	$d7                     ; 0xd7 <__zp_bss_size+0xa7>
    7e8c: 80 36        	bra	$7ec4 <_ZN12_GLOBAL__N_112print_stringEPKcP6Status+0x6d>
    7e8e: a9 ff        	lda	#$ff
    7e90: aa           	tax
    7e91: 86 d7        	stx	$d7                     ; 0xd7 <__zp_bss_size+0xa7>
    7e93: 85 d6        	sta	$d6                     ; 0xd6 <__zp_bss_size+0xa6>
    7e95: 64 12        	stz	$12                     ; 0x12 <__rc2>
    7e97: a4 d2        	ldy	$d2                     ; 0xd2 <__zp_bss_size+0xa2>
    7e99: a6 d3        	ldx	$d3                     ; 0xd3 <__zp_bss_size+0xa3>
    7e9b: 86 16        	stx	$16                     ; 0x16 <__rc6>
    7e9d: 64 13        	stz	$13                     ; 0x13 <__rc3>
    7e9f: 98           	tya
    7ea0: 18           	clc
    7ea1: 65 12        	adc	$12                     ; 0x12 <__rc2>
    7ea3: 85 14        	sta	$14                     ; 0x14 <__rc4>
    7ea5: a5 d3        	lda	$d3                     ; 0xd3 <__zp_bss_size+0xa3>
    7ea7: 65 13        	adc	$13                     ; 0x13 <__rc3>
    7ea9: 85 15        	sta	$15                     ; 0x15 <__rc5>
    7eab: b2 14        	lda	($14)                   ; 0x14 <__rc4>
    7ead: d0 03        	bne	$7eb2 <_ZN12_GLOBAL__N_112print_stringEPKcP6Status+0x5b>
    7eaf: 4c 5b 7f     	jmp	$7f5b <_ZN12_GLOBAL__N_112print_stringEPKcP6Status+0x104>
    7eb2: e6 12        	inc	$12                     ; 0x12 <__rc2>
    7eb4: d0 02        	bne	$7eb8 <_ZN12_GLOBAL__N_112print_stringEPKcP6Status+0x61>
    7eb6: e6 13        	inc	$13                     ; 0x13 <__rc3>
    7eb8: a6 d7        	ldx	$d7                     ; 0xd7 <__zp_bss_size+0xa7>
    7eba: e4 13        	cpx	$13                     ; 0x13 <__rc3>
    7ebc: d0 e1        	bne	$7e9f <_ZN12_GLOBAL__N_112print_stringEPKcP6Status+0x48>
    7ebe: a6 d6        	ldx	$d6                     ; 0xd6 <__zp_bss_size+0xa6>
    7ec0: e4 12        	cpx	$12                     ; 0x12 <__rc2>
    7ec2: d0 db        	bne	$7e9f <_ZN12_GLOBAL__N_112print_stringEPKcP6Status+0x48>
    7ec4: a0 01        	ldy	#$1
    7ec6: b1 d4        	lda	($d4),y                 ; 0xd4 <__zp_bss_size+0xa4>
    7ec8: 29 01        	and	#$1
    7eca: f0 03        	beq	$7ecf <_ZN12_GLOBAL__N_112print_stringEPKcP6Status+0x78>
    7ecc: 4c 2d 7f     	jmp	$7f2d <_ZN12_GLOBAL__N_112print_stringEPKcP6Status+0xd6>
    7ecf: a5 d4        	lda	$d4                     ; 0xd4 <__zp_bss_size+0xa4>
    7ed1: 18           	clc
    7ed2: 69 0b        	adc	#$b
    7ed4: 85 14        	sta	$14                     ; 0x14 <__rc4>
    7ed6: a5 d5        	lda	$d5                     ; 0xd5 <__zp_bss_size+0xa5>
    7ed8: 69 00        	adc	#$0
    7eda: 85 15        	sta	$15                     ; 0x15 <__rc5>
    7edc: 84 12        	sty	$12                     ; 0x12 <__rc2>
    7ede: a0 0b        	ldy	#$b
    7ee0: b1 d4        	lda	($d4),y                 ; 0xd4 <__zp_bss_size+0xa4>
    7ee2: 85 13        	sta	$13                     ; 0x13 <__rc3>
    7ee4: a4 12        	ldy	$12                     ; 0x12 <__rc2>
    7ee6: b1 14        	lda	($14),y                 ; 0x14 <__rc4>
    7ee8: 85 12        	sta	$12                     ; 0x12 <__rc2>
    7eea: a6 d7        	ldx	$d7                     ; 0xd7 <__zp_bss_size+0xa7>
    7eec: e4 12        	cpx	$12                     ; 0x12 <__rc2>
    7eee: d0 08        	bne	$7ef8 <_ZN12_GLOBAL__N_112print_stringEPKcP6Status+0xa1>
    7ef0: a6 d6        	ldx	$d6                     ; 0xd6 <__zp_bss_size+0xa6>
    7ef2: e4 13        	cpx	$13                     ; 0x13 <__rc3>
    7ef4: 90 06        	bcc	$7efc <_ZN12_GLOBAL__N_112print_stringEPKcP6Status+0xa5>
    7ef6: 80 35        	bra	$7f2d <_ZN12_GLOBAL__N_112print_stringEPKcP6Status+0xd6>
    7ef8: e4 12        	cpx	$12                     ; 0x12 <__rc2>
    7efa: b0 31        	bcs	$7f2d <_ZN12_GLOBAL__N_112print_stringEPKcP6Status+0xd6>
    7efc: 38           	sec
    7efd: a5 d6        	lda	$d6                     ; 0xd6 <__zp_bss_size+0xa6>
    7eff: e5 13        	sbc	$13                     ; 0x13 <__rc3>
    7f01: a8           	tay
    7f02: a5 d7        	lda	$d7                     ; 0xd7 <__zp_bss_size+0xa7>
    7f04: e5 12        	sbc	$12                     ; 0x12 <__rc2>
    7f06: 85 d9        	sta	$d9                     ; 0xd9 <__zp_bss_size+0xa9>
    7f08: a2 20        	ldx	#$20
    7f0a: 86 da        	stx	$da                     ; 0xda <__zp_bss_size+0xaa>
    7f0c: a6 d4        	ldx	$d4                     ; 0xd4 <__zp_bss_size+0xa4>
    7f0e: 86 12        	stx	$12                     ; 0x12 <__rc2>
    7f10: a6 d5        	ldx	$d5                     ; 0xd5 <__zp_bss_size+0xa5>
    7f12: 86 13        	stx	$13                     ; 0x13 <__rc3>
    7f14: 84 d8        	sty	$d8                     ; 0xd8 <__zp_bss_size+0xa8>
    7f16: a5 da        	lda	$da                     ; 0xda <__zp_bss_size+0xaa>
    7f18: 20 78 7d     	jsr	$7d78 <_ZN12_GLOBAL__N_13putEcP6Status>
    7f1b: a6 d9        	ldx	$d9                     ; 0xd9 <__zp_bss_size+0xa9>
    7f1d: e6 d8        	inc	$d8                     ; 0xd8 <__zp_bss_size+0xa8>
    7f1f: d0 01        	bne	$7f22 <_ZN12_GLOBAL__N_112print_stringEPKcP6Status+0xcb>
    7f21: e8           	inx
    7f22: 86 d9        	stx	$d9                     ; 0xd9 <__zp_bss_size+0xa9>
    7f24: a4 d8        	ldy	$d8                     ; 0xd8 <__zp_bss_size+0xa8>
    7f26: 8a           	txa
    7f27: d0 e3        	bne	$7f0c <_ZN12_GLOBAL__N_112print_stringEPKcP6Status+0xb5>
    7f29: a5 d8        	lda	$d8                     ; 0xd8 <__zp_bss_size+0xa8>
    7f2b: d0 df        	bne	$7f0c <_ZN12_GLOBAL__N_112print_stringEPKcP6Status+0xb5>
    7f2d: a5 d7        	lda	$d7                     ; 0xd7 <__zp_bss_size+0xa7>
    7f2f: d0 04        	bne	$7f35 <_ZN12_GLOBAL__N_112print_stringEPKcP6Status+0xde>
    7f31: a5 d6        	lda	$d6                     ; 0xd6 <__zp_bss_size+0xa6>
    7f33: f0 25        	beq	$7f5a <_ZN12_GLOBAL__N_112print_stringEPKcP6Status+0x103>
    7f35: a2 ff        	ldx	#$ff
    7f37: c6 d6        	dec	$d6                     ; 0xd6 <__zp_bss_size+0xa6>
    7f39: e4 d6        	cpx	$d6                     ; 0xd6 <__zp_bss_size+0xa6>
    7f3b: d0 02        	bne	$7f3f <_ZN12_GLOBAL__N_112print_stringEPKcP6Status+0xe8>
    7f3d: c6 d7        	dec	$d7                     ; 0xd7 <__zp_bss_size+0xa7>
    7f3f: b2 d2        	lda	($d2)                   ; 0xd2 <__zp_bss_size+0xa2>
    7f41: e6 d2        	inc	$d2                     ; 0xd2 <__zp_bss_size+0xa2>
    7f43: d0 02        	bne	$7f47 <_ZN12_GLOBAL__N_112print_stringEPKcP6Status+0xf0>
    7f45: e6 d3        	inc	$d3                     ; 0xd3 <__zp_bss_size+0xa3>
    7f47: a6 d4        	ldx	$d4                     ; 0xd4 <__zp_bss_size+0xa4>
    7f49: 86 12        	stx	$12                     ; 0x12 <__rc2>
    7f4b: a6 d5        	ldx	$d5                     ; 0xd5 <__zp_bss_size+0xa5>
    7f4d: 86 13        	stx	$13                     ; 0x13 <__rc3>
    7f4f: 20 78 7d     	jsr	$7d78 <_ZN12_GLOBAL__N_13putEcP6Status>
    7f52: a5 d7        	lda	$d7                     ; 0xd7 <__zp_bss_size+0xa7>
    7f54: d0 df        	bne	$7f35 <_ZN12_GLOBAL__N_112print_stringEPKcP6Status+0xde>
    7f56: a5 d6        	lda	$d6                     ; 0xd6 <__zp_bss_size+0xa6>
    7f58: d0 db        	bne	$7f35 <_ZN12_GLOBAL__N_112print_stringEPKcP6Status+0xde>
    7f5a: 60           	rts
    7f5b: a6 12        	ldx	$12                     ; 0x12 <__rc2>
    7f5d: 86 d6        	stx	$d6                     ; 0xd6 <__zp_bss_size+0xa6>
    7f5f: a6 13        	ldx	$13                     ; 0x13 <__rc3>
    7f61: 86 d7        	stx	$d7                     ; 0xd7 <__zp_bss_size+0xa7>
    7f63: 4c c4 7e     	jmp	$7ec4 <_ZN12_GLOBAL__N_112print_stringEPKcP6Status+0x6d>

00007f66 <printf>:
    7f66: 18           	clc
    7f67: a6 10        	ldx	$10                     ; 0x10 <__rc0>
    7f69: a4 11        	ldy	$11                     ; 0x11 <__rc1>
    7f6b: 86 9c        	stx	$9c                     ; 0x9c <__zp_bss_size+0x6c>
    7f6d: 84 9d        	sty	$9d                     ; 0x9d <__zp_bss_size+0x6d>
    7f6f: a6 9c        	ldx	$9c                     ; 0x9c <__zp_bss_size+0x6c>
    7f71: a4 9d        	ldy	$9d                     ; 0x9d <__zp_bss_size+0x6d>
    7f73: 86 87        	stx	$87                     ; 0x87 <__zp_bss_size+0x57>
    7f75: 84 88        	sty	$88                     ; 0x88 <__zp_bss_size+0x58>
    7f77: a2 ff        	ldx	#$ff
    7f79: 86 8c        	stx	$8c                     ; 0x8c <__zp_bss_size+0x5c>
    7f7b: 86 8d        	stx	$8d                     ; 0x8d <__zp_bss_size+0x5d>
    7f7d: 64 8e        	stz	$8e                     ; 0x8e <__zp_bss_size+0x5e>
    7f7f: 64 8f        	stz	$8f                     ; 0x8f <__zp_bss_size+0x5f>
    7f81: e8           	inx
    7f82: 86 14        	stx	$14                     ; 0x14 <__rc4>
    7f84: a2 00        	ldx	#$0
    7f86: 86 15        	stx	$15                     ; 0x15 <__rc5>
    7f88: a6 14        	ldx	$14                     ; 0x14 <__rc4>
    7f8a: a4 15        	ldy	$15                     ; 0x15 <__rc5>
    7f8c: 86 92        	stx	$92                     ; 0x92 <__zp_bss_size+0x62>
    7f8e: 84 93        	sty	$93                     ; 0x93 <__zp_bss_size+0x63>
    7f90: a2 02        	ldx	#$2
    7f92: 86 98        	stx	$98                     ; 0x98 <__zp_bss_size+0x68>
    7f94: 64 99        	stz	$99                     ; 0x99 <__zp_bss_size+0x69>
    7f96: a6 87        	ldx	$87                     ; 0x87 <__zp_bss_size+0x57>
    7f98: a4 88        	ldy	$88                     ; 0x88 <__zp_bss_size+0x58>
    7f9a: 86 9a        	stx	$9a                     ; 0x9a <__zp_bss_size+0x6a>
    7f9c: 84 9b        	sty	$9b                     ; 0x9b <__zp_bss_size+0x6b>
    7f9e: a2 89        	ldx	#$89
    7fa0: 86 85        	stx	$85                     ; 0x85 <__zp_bss_size+0x55>
    7fa2: a2 00        	ldx	#$0
    7fa4: 86 86        	stx	$86                     ; 0x86 <__zp_bss_size+0x56>
    7fa6: a6 12        	ldx	$12                     ; 0x12 <__rc2>
    7fa8: 86 83        	stx	$83                     ; 0x83 <__zp_bss_size+0x53>
    7faa: a6 13        	ldx	$13                     ; 0x13 <__rc3>
    7fac: 86 84        	stx	$84                     ; 0x84 <__zp_bss_size+0x54>
    7fae: b2 12        	lda	($12)                   ; 0x12 <__rc2>
    7fb0: c9 25        	cmp	#$25
    7fb2: f0 26        	beq	$7fda <printf+0x74>
    7fb4: aa           	tax
    7fb5: f0 3e        	beq	$7ff5 <printf+0x8f>
    7fb7: 85 6c        	sta	$6c                     ; 0x6c <__putchar.s>
    7fb9: a2 6c        	ldx	#$6c
    7fbb: 86 12        	stx	$12                     ; 0x12 <__rc2>
    7fbd: a2 00        	ldx	#$0
    7fbf: 86 13        	stx	$13                     ; 0x13 <__rc3>
    7fc1: 20 d1 6d     	jsr	$6dd1 <textPrint>
    7fc4: e6 83        	inc	$83                     ; 0x83 <__zp_bss_size+0x53>
    7fc6: d0 02        	bne	$7fca <printf+0x64>
    7fc8: e6 84        	inc	$84                     ; 0x84 <__zp_bss_size+0x54>
    7fca: e6 8e        	inc	$8e                     ; 0x8e <__zp_bss_size+0x5e>
    7fcc: d0 02        	bne	$7fd0 <printf+0x6a>
    7fce: e6 8f        	inc	$8f                     ; 0x8f <__zp_bss_size+0x5f>
    7fd0: a6 83        	ldx	$83                     ; 0x83 <__zp_bss_size+0x53>
    7fd2: 86 12        	stx	$12                     ; 0x12 <__rc2>
    7fd4: a6 84        	ldx	$84                     ; 0x84 <__zp_bss_size+0x54>
    7fd6: 86 13        	stx	$13                     ; 0x13 <__rc3>
    7fd8: 80 cc        	bra	$7fa6 <printf+0x40>
    7fda: a6 85        	ldx	$85                     ; 0x85 <__zp_bss_size+0x55>
    7fdc: 86 14        	stx	$14                     ; 0x14 <__rc4>
    7fde: a6 86        	ldx	$86                     ; 0x86 <__zp_bss_size+0x56>
    7fe0: 86 15        	stx	$15                     ; 0x15 <__rc5>
    7fe2: 20 02 72     	jsr	$7202 <_ZN12_GLOBAL__N_15printEPKcP6Status>
    7fe5: a6 13        	ldx	$13                     ; 0x13 <__rc3>
    7fe7: e4 84        	cpx	$84                     ; 0x84 <__zp_bss_size+0x54>
    7fe9: d0 bb        	bne	$7fa6 <printf+0x40>
    7feb: a6 12        	ldx	$12                     ; 0x12 <__rc2>
    7fed: e4 83        	cpx	$83                     ; 0x83 <__zp_bss_size+0x53>
    7fef: d0 b5        	bne	$7fa6 <printf+0x40>
    7ff1: b2 83        	lda	($83)                   ; 0x83 <__zp_bss_size+0x53>
    7ff3: 80 c2        	bra	$7fb7 <printf+0x51>
    7ff5: 60           	rts

00007ff6 <sprintf>:
    7ff6: a6 12        	ldx	$12                     ; 0x12 <__rc2>
    7ff8: 86 7b        	stx	$7b                     ; 0x7b <__zp_bss_size+0x4b>
    7ffa: a6 13        	ldx	$13                     ; 0x13 <__rc3>
    7ffc: 86 7c        	stx	$7c                     ; 0x7c <__zp_bss_size+0x4c>
    7ffe: 18           	clc
    7fff: a6 10        	ldx	$10                     ; 0x10 <__rc0>
    8001: a4 11        	ldy	$11                     ; 0x11 <__rc1>
    8003: 86 96        	stx	$96                     ; 0x96 <__zp_bss_size+0x66>
    8005: 84 97        	sty	$97                     ; 0x97 <__zp_bss_size+0x67>
    8007: a6 96        	ldx	$96                     ; 0x96 <__zp_bss_size+0x66>
    8009: a4 97        	ldy	$97                     ; 0x97 <__zp_bss_size+0x67>
    800b: 86 81        	stx	$81                     ; 0x81 <__zp_bss_size+0x51>
    800d: 84 82        	sty	$82                     ; 0x82 <__zp_bss_size+0x52>
    800f: a2 ff        	ldx	#$ff
    8011: 86 86        	stx	$86                     ; 0x86 <__zp_bss_size+0x56>
    8013: 86 87        	stx	$87                     ; 0x87 <__zp_bss_size+0x57>
    8015: 64 88        	stz	$88                     ; 0x88 <__zp_bss_size+0x58>
    8017: 64 89        	stz	$89                     ; 0x89 <__zp_bss_size+0x59>
    8019: a6 7b        	ldx	$7b                     ; 0x7b <__zp_bss_size+0x4b>
    801b: a4 7c        	ldy	$7c                     ; 0x7c <__zp_bss_size+0x4c>
    801d: 86 8c        	stx	$8c                     ; 0x8c <__zp_bss_size+0x5c>
    801f: 84 8d        	sty	$8d                     ; 0x8d <__zp_bss_size+0x5d>
    8021: a2 00        	ldx	#$0
    8023: 86 12        	stx	$12                     ; 0x12 <__rc2>
    8025: a2 00        	ldx	#$0
    8027: 86 13        	stx	$13                     ; 0x13 <__rc3>
    8029: a6 12        	ldx	$12                     ; 0x12 <__rc2>
    802b: a4 13        	ldy	$13                     ; 0x13 <__rc3>
    802d: 86 92        	stx	$92                     ; 0x92 <__zp_bss_size+0x62>
    802f: 84 93        	sty	$93                     ; 0x93 <__zp_bss_size+0x63>
    8031: a6 81        	ldx	$81                     ; 0x81 <__zp_bss_size+0x51>
    8033: a4 82        	ldy	$82                     ; 0x82 <__zp_bss_size+0x52>
    8035: 86 94        	stx	$94                     ; 0x94 <__zp_bss_size+0x64>
    8037: 84 95        	sty	$95                     ; 0x95 <__zp_bss_size+0x65>
    8039: a2 9e        	ldx	#$9e
    803b: 86 12        	stx	$12                     ; 0x12 <__rc2>
    803d: a2 89        	ldx	#$89
    803f: 86 13        	stx	$13                     ; 0x13 <__rc3>
    8041: a2 83        	ldx	#$83
    8043: 86 7f        	stx	$7f                     ; 0x7f <__zp_bss_size+0x4f>
    8045: a2 00        	ldx	#$0
    8047: 86 80        	stx	$80                     ; 0x80 <__zp_bss_size+0x50>
    8049: 80 17        	bra	$8062 <sprintf+0x6c>
    804b: a6 7f        	ldx	$7f                     ; 0x7f <__zp_bss_size+0x4f>
    804d: 86 14        	stx	$14                     ; 0x14 <__rc4>
    804f: a6 80        	ldx	$80                     ; 0x80 <__zp_bss_size+0x50>
    8051: 86 15        	stx	$15                     ; 0x15 <__rc5>
    8053: 20 02 72     	jsr	$7202 <_ZN12_GLOBAL__N_15printEPKcP6Status>
    8056: a6 13        	ldx	$13                     ; 0x13 <__rc3>
    8058: e4 7e        	cpx	$7e                     ; 0x7e <__zp_bss_size+0x4e>
    805a: d0 06        	bne	$8062 <sprintf+0x6c>
    805c: a6 12        	ldx	$12                     ; 0x12 <__rc2>
    805e: e4 7d        	cpx	$7d                     ; 0x7d <__zp_bss_size+0x4d>
    8060: f0 11        	beq	$8073 <sprintf+0x7d>
    8062: a6 12        	ldx	$12                     ; 0x12 <__rc2>
    8064: 86 7d        	stx	$7d                     ; 0x7d <__zp_bss_size+0x4d>
    8066: a6 13        	ldx	$13                     ; 0x13 <__rc3>
    8068: 86 7e        	stx	$7e                     ; 0x7e <__zp_bss_size+0x4e>
    806a: b2 12        	lda	($12)                   ; 0x12 <__rc2>
    806c: c9 25        	cmp	#$25
    806e: f0 db        	beq	$804b <sprintf+0x55>
    8070: aa           	tax
    8071: f0 43        	beq	$80b6 <sprintf+0xc0>
    8073: a6 88        	ldx	$88                     ; 0x88 <__zp_bss_size+0x58>
    8075: 86 12        	stx	$12                     ; 0x12 <__rc2>
    8077: a4 89        	ldy	$89                     ; 0x89 <__zp_bss_size+0x59>
    8079: 84 13        	sty	$13                     ; 0x13 <__rc3>
    807b: c0 ff        	cpy	#$ff
    807d: d0 04        	bne	$8083 <sprintf+0x8d>
    807f: e0 ff        	cpx	#$ff
    8081: f0 15        	beq	$8098 <sprintf+0xa2>
    8083: b2 7d        	lda	($7d)                   ; 0x7d <__zp_bss_size+0x4d>
    8085: 85 16        	sta	$16                     ; 0x16 <__rc6>
    8087: a5 7b        	lda	$7b                     ; 0x7b <__zp_bss_size+0x4b>
    8089: 18           	clc
    808a: 65 12        	adc	$12                     ; 0x12 <__rc2>
    808c: 85 14        	sta	$14                     ; 0x14 <__rc4>
    808e: a5 7c        	lda	$7c                     ; 0x7c <__zp_bss_size+0x4c>
    8090: 65 13        	adc	$13                     ; 0x13 <__rc3>
    8092: 85 15        	sta	$15                     ; 0x15 <__rc5>
    8094: a5 16        	lda	$16                     ; 0x16 <__rc6>
    8096: 92 14        	sta	($14)                   ; 0x14 <__rc4>
    8098: e6 12        	inc	$12                     ; 0x12 <__rc2>
    809a: d0 02        	bne	$809e <sprintf+0xa8>
    809c: e6 13        	inc	$13                     ; 0x13 <__rc3>
    809e: a6 12        	ldx	$12                     ; 0x12 <__rc2>
    80a0: a4 13        	ldy	$13                     ; 0x13 <__rc3>
    80a2: 86 88        	stx	$88                     ; 0x88 <__zp_bss_size+0x58>
    80a4: 84 89        	sty	$89                     ; 0x89 <__zp_bss_size+0x59>
    80a6: e6 7d        	inc	$7d                     ; 0x7d <__zp_bss_size+0x4d>
    80a8: d0 02        	bne	$80ac <sprintf+0xb6>
    80aa: e6 7e        	inc	$7e                     ; 0x7e <__zp_bss_size+0x4e>
    80ac: a6 7d        	ldx	$7d                     ; 0x7d <__zp_bss_size+0x4d>
    80ae: 86 12        	stx	$12                     ; 0x12 <__rc2>
    80b0: a6 7e        	ldx	$7e                     ; 0x7e <__zp_bss_size+0x4e>
    80b2: 86 13        	stx	$13                     ; 0x13 <__rc3>
    80b4: 80 ac        	bra	$8062 <sprintf+0x6c>
    80b6: a6 88        	ldx	$88                     ; 0x88 <__zp_bss_size+0x58>
    80b8: 86 12        	stx	$12                     ; 0x12 <__rc2>
    80ba: a4 89        	ldy	$89                     ; 0x89 <__zp_bss_size+0x59>
    80bc: 84 13        	sty	$13                     ; 0x13 <__rc3>
    80be: c0 ff        	cpy	#$ff
    80c0: d0 04        	bne	$80c6 <sprintf+0xd0>
    80c2: e0 ff        	cpx	#$ff
    80c4: f0 11        	beq	$80d7 <sprintf+0xe1>
    80c6: a5 7b        	lda	$7b                     ; 0x7b <__zp_bss_size+0x4b>
    80c8: 18           	clc
    80c9: 65 12        	adc	$12                     ; 0x12 <__rc2>
    80cb: 85 12        	sta	$12                     ; 0x12 <__rc2>
    80cd: a5 7c        	lda	$7c                     ; 0x7c <__zp_bss_size+0x4c>
    80cf: 65 13        	adc	$13                     ; 0x13 <__rc3>
    80d1: 85 13        	sta	$13                     ; 0x13 <__rc3>
    80d3: a9 00        	lda	#$0
    80d5: 92 12        	sta	($12)                   ; 0x12 <__rc2>
    80d7: 60           	rts

000080d8 <malloc>:
    80d8: a8           	tay
    80d9: 8a           	txa
    80da: a2 00        	ldx	#$0
    80dc: 86 12        	stx	$12                     ; 0x12 <__rc2>
    80de: a2 00        	ldx	#$0
    80e0: 86 13        	stx	$13                     ; 0x13 <__rc3>
    80e2: aa           	tax
    80e3: d0 07        	bne	$80ec <malloc+0x14>
    80e5: c0 00        	cpy	#$0
    80e7: d0 03        	bne	$80ec <malloc+0x14>
    80e9: 4c f0 81     	jmp	$81f0 <malloc+0x118>
    80ec: 84 16        	sty	$16                     ; 0x16 <__rc6>
    80ee: aa           	tax
    80ef: d0 0e        	bne	$80ff <malloc+0x27>
    80f1: a6 16        	ldx	$16                     ; 0x16 <__rc6>
    80f3: e0 07        	cpx	#$7
    80f5: b0 0c        	bcs	$8103 <malloc+0x2b>
    80f7: a2 08        	ldx	#$8
    80f9: 86 7f        	stx	$7f                     ; 0x7f <__zp_bss_size+0x4f>
    80fb: a9 00        	lda	#$0
    80fd: 80 31        	bra	$8130 <malloc+0x58>
    80ff: c9 00        	cmp	#$0
    8101: 90 f4        	bcc	$80f7 <malloc+0x1f>
    8103: a8           	tay
    8104: a5 16        	lda	$16                     ; 0x16 <__rc6>
    8106: 29 01        	and	#$1
    8108: a2 02        	ldx	#$2
    810a: 64 14        	stz	$14                     ; 0x14 <__rc4>
    810c: c9 00        	cmp	#$0
    810e: f0 02        	beq	$8112 <malloc+0x3a>
    8110: a2 03        	ldx	#$3
    8112: 86 15        	stx	$15                     ; 0x15 <__rc5>
    8114: 18           	clc
    8115: a5 16        	lda	$16                     ; 0x16 <__rc6>
    8117: 65 15        	adc	$15                     ; 0x15 <__rc5>
    8119: aa           	tax
    811a: 98           	tya
    811b: 65 14        	adc	$14                     ; 0x14 <__rc4>
    811d: 90 03        	bcc	$8122 <malloc+0x4a>
    811f: 4c f0 81     	jmp	$81f0 <malloc+0x118>
    8122: 86 14        	stx	$14                     ; 0x14 <__rc4>
    8124: 86 7f        	stx	$7f                     ; 0x7f <__zp_bss_size+0x4f>
    8126: aa           	tax
    8127: d0 07        	bne	$8130 <malloc+0x58>
    8129: a6 14        	ldx	$14                     ; 0x14 <__rc4>
    812b: d0 03        	bne	$8130 <malloc+0x58>
    812d: 4c f0 81     	jmp	$81f0 <malloc+0x118>
    8130: 85 7e        	sta	$7e                     ; 0x7e <__zp_bss_size+0x4e>
    8132: ad 11 8f     	lda	$8f11                   ; 0x8f11 <_ZN12_GLOBAL__N_111initializedE>
    8135: 29 01        	and	#$1
    8137: d0 3d        	bne	$8176 <malloc+0x9e>
    8139: a9 00        	lda	#$0
    813b: a2 10        	ldx	#$10
    813d: a0 18        	ldy	#$18
    813f: 84 14        	sty	$14                     ; 0x14 <__rc4>
    8141: a0 8f        	ldy	#$8f
    8143: 84 15        	sty	$15                     ; 0x15 <__rc5>
    8145: a4 12        	ldy	$12                     ; 0x12 <__rc2>
    8147: 84 80        	sty	$80                     ; 0x80 <__zp_bss_size+0x50>
    8149: a4 13        	ldy	$13                     ; 0x13 <__rc3>
    814b: 84 81        	sty	$81                     ; 0x81 <__zp_bss_size+0x51>
    814d: a0 18        	ldy	#$18
    814f: 84 12        	sty	$12                     ; 0x12 <__rc2>
    8151: a0 8f        	ldy	#$8f
    8153: 84 13        	sty	$13                     ; 0x13 <__rc3>
    8155: 20 34 03     	jsr	$334 <_ZN12_GLOBAL__N_19FreeChunk6insertEPvj>
    8158: a6 80        	ldx	$80                     ; 0x80 <__zp_bss_size+0x50>
    815a: 86 12        	stx	$12                     ; 0x12 <__rc2>
    815c: a6 81        	ldx	$81                     ; 0x81 <__zp_bss_size+0x51>
    815e: 86 13        	stx	$13                     ; 0x13 <__rc3>
    8160: ae 19 8f     	ldx	$8f19                   ; 0x8f19 <__heap_start+0x1>
    8163: a9 fe        	lda	#$fe
    8165: 2d 18 8f     	and	$8f18                   ; 0x8f18 <__heap_start>
    8168: 8d 18 8f     	sta	$8f18                   ; 0x8f18 <__heap_start>
    816b: 8e 19 8f     	stx	$8f19                   ; 0x8f19 <__heap_start+0x1>
    816e: a2 01        	ldx	#$1
    8170: 8e 12 8f     	stx	$8f12                   ; 0x8f12 <_ZN12_GLOBAL__N_19last_freeE>
    8173: 8e 11 8f     	stx	$8f11                   ; 0x8f11 <_ZN12_GLOBAL__N_111initializedE>
    8176: ae 15 8f     	ldx	$8f15                   ; 0x8f15 <_ZN12_GLOBAL__N_19free_listE>
    8179: 86 16        	stx	$16                     ; 0x16 <__rc6>
    817b: ac 16 8f     	ldy	$8f16                   ; 0x8f16 <_ZN12_GLOBAL__N_19free_listE+0x1>
    817e: 84 17        	sty	$17                     ; 0x17 <__rc7>
    8180: a9 00        	lda	#$0
    8182: 85 14        	sta	$14                     ; 0x14 <__rc4>
    8184: a9 00        	lda	#$0
    8186: 85 15        	sta	$15                     ; 0x15 <__rc5>
    8188: c4 15        	cpy	$15                     ; 0x15 <__rc5>
    818a: d0 07        	bne	$8193 <malloc+0xbb>
    818c: e4 14        	cpx	$14                     ; 0x14 <__rc4>
    818e: d0 03        	bne	$8193 <malloc+0xbb>
    8190: 4c f0 81     	jmp	$81f0 <malloc+0x118>
    8193: a2 00        	ldx	#$0
    8195: a0 10        	ldy	#$10
    8197: 86 14        	stx	$14                     ; 0x14 <__rc4>
    8199: 84 15        	sty	$15                     ; 0x15 <__rc5>
    819b: 18           	clc
    819c: a9 18        	lda	#$18
    819e: 65 14        	adc	$14                     ; 0x14 <__rc4>
    81a0: 85 18        	sta	$18                     ; 0x18 <__rc8>
    81a2: a9 8f        	lda	#$8f
    81a4: 65 15        	adc	$15                     ; 0x15 <__rc5>
    81a6: 85 82        	sta	$82                     ; 0x82 <__zp_bss_size+0x52>
    81a8: a0 01        	ldy	#$1
    81aa: a6 7e        	ldx	$7e                     ; 0x7e <__zp_bss_size+0x4e>
    81ac: 86 19        	stx	$19                     ; 0x19 <__rc9>
    81ae: a6 16        	ldx	$16                     ; 0x16 <__rc6>
    81b0: 86 14        	stx	$14                     ; 0x14 <__rc4>
    81b2: a6 17        	ldx	$17                     ; 0x17 <__rc7>
    81b4: 86 15        	stx	$15                     ; 0x15 <__rc5>
    81b6: b1 14        	lda	($14),y                 ; 0x14 <__rc4>
    81b8: c5 19        	cmp	$19                     ; 0x19 <__rc9>
    81ba: d0 0e        	bne	$81ca <malloc+0xf2>
    81bc: b2 14        	lda	($14)                   ; 0x14 <__rc4>
    81be: 29 fe        	and	#$fe
    81c0: a6 7f        	ldx	$7f                     ; 0x7f <__zp_bss_size+0x4f>
    81c2: 86 1a        	stx	$1a                     ; 0x1a <__rc10>
    81c4: c5 1a        	cmp	$1a                     ; 0x1a <__rc10>
    81c6: b0 29        	bcs	$81f1 <malloc+0x119>
    81c8: 80 04        	bra	$81ce <malloc+0xf6>
    81ca: c5 19        	cmp	$19                     ; 0x19 <__rc9>
    81cc: b0 23        	bcs	$81f1 <malloc+0x119>
    81ce: a5 14        	lda	$14                     ; 0x14 <__rc4>
    81d0: 18           	clc
    81d1: 69 02        	adc	#$2
    81d3: 85 1a        	sta	$1a                     ; 0x1a <__rc10>
    81d5: a5 15        	lda	$15                     ; 0x15 <__rc5>
    81d7: 69 00        	adc	#$0
    81d9: 85 1b        	sta	$1b                     ; 0x1b <__zp_data_size>
    81db: a0 02        	ldy	#$2
    81dd: b1 14        	lda	($14),y                 ; 0x14 <__rc4>
    81df: 85 14        	sta	$14                     ; 0x14 <__rc4>
    81e1: 88           	dey
    81e2: b1 1a        	lda	($1a),y                 ; 0x1a <__rc10>
    81e4: 85 15        	sta	$15                     ; 0x15 <__rc5>
    81e6: c5 17        	cmp	$17                     ; 0x17 <__rc7>
    81e8: d0 cc        	bne	$81b6 <malloc+0xde>
    81ea: a5 14        	lda	$14                     ; 0x14 <__rc4>
    81ec: c5 16        	cmp	$16                     ; 0x16 <__rc6>
    81ee: d0 c6        	bne	$81b6 <malloc+0xde>
    81f0: 60           	rts
    81f1: a6 18        	ldx	$18                     ; 0x18 <__rc8>
    81f3: 86 83        	stx	$83                     ; 0x83 <__zp_bss_size+0x53>
    81f5: a6 14        	ldx	$14                     ; 0x14 <__rc4>
    81f7: 86 12        	stx	$12                     ; 0x12 <__rc2>
    81f9: a6 15        	ldx	$15                     ; 0x15 <__rc5>
    81fb: 86 13        	stx	$13                     ; 0x13 <__rc3>
    81fd: a6 14        	ldx	$14                     ; 0x14 <__rc4>
    81ff: 86 80        	stx	$80                     ; 0x80 <__zp_bss_size+0x50>
    8201: a6 15        	ldx	$15                     ; 0x15 <__rc5>
    8203: 86 81        	stx	$81                     ; 0x81 <__zp_bss_size+0x51>
    8205: 20 88 04     	jsr	$488 <_ZN12_GLOBAL__N_19FreeChunk6removeEv>
    8208: a6 80        	ldx	$80                     ; 0x80 <__zp_bss_size+0x50>
    820a: 86 12        	stx	$12                     ; 0x12 <__rc2>
    820c: a6 81        	ldx	$81                     ; 0x81 <__zp_bss_size+0x51>
    820e: 86 13        	stx	$13                     ; 0x13 <__rc3>
    8210: a0 01        	ldy	#$1
    8212: b1 12        	lda	($12),y                 ; 0x12 <__rc2>
    8214: 85 15        	sta	$15                     ; 0x15 <__rc5>
    8216: a9 fe        	lda	#$fe
    8218: 32 12        	and	($12)                   ; 0x12 <__rc2>
    821a: 38           	sec
    821b: a6 7f        	ldx	$7f                     ; 0x7f <__zp_bss_size+0x4f>
    821d: 86 14        	stx	$14                     ; 0x14 <__rc4>
    821f: 85 17        	sta	$17                     ; 0x17 <__rc7>
    8221: e5 14        	sbc	$14                     ; 0x14 <__rc4>
    8223: a8           	tay
    8224: a6 7e        	ldx	$7e                     ; 0x7e <__zp_bss_size+0x4e>
    8226: 86 14        	stx	$14                     ; 0x14 <__rc4>
    8228: a5 15        	lda	$15                     ; 0x15 <__rc5>
    822a: 85 16        	sta	$16                     ; 0x16 <__rc6>
    822c: e5 14        	sbc	$14                     ; 0x14 <__rc4>
    822e: d0 06        	bne	$8236 <malloc+0x15e>
    8230: 85 18        	sta	$18                     ; 0x18 <__rc8>
    8232: c0 08        	cpy	#$8
    8234: 80 04        	bra	$823a <malloc+0x162>
    8236: 85 18        	sta	$18                     ; 0x18 <__rc8>
    8238: c9 00        	cmp	#$0
    823a: a6 83        	ldx	$83                     ; 0x83 <__zp_bss_size+0x53>
    823c: 86 14        	stx	$14                     ; 0x14 <__rc4>
    823e: a6 82        	ldx	$82                     ; 0x82 <__zp_bss_size+0x52>
    8240: 86 15        	stx	$15                     ; 0x15 <__rc5>
    8242: a5 17        	lda	$17                     ; 0x17 <__rc7>
    8244: 90 43        	bcc	$8289 <malloc+0x1b1>
    8246: 18           	clc
    8247: a6 7f        	ldx	$7f                     ; 0x7f <__zp_bss_size+0x4f>
    8249: 86 7f        	stx	$7f                     ; 0x7f <__zp_bss_size+0x4f>
    824b: 8a           	txa
    824c: 65 12        	adc	$12                     ; 0x12 <__rc2>
    824e: 85 12        	sta	$12                     ; 0x12 <__rc2>
    8250: a6 7e        	ldx	$7e                     ; 0x7e <__zp_bss_size+0x4e>
    8252: 86 7e        	stx	$7e                     ; 0x7e <__zp_bss_size+0x4e>
    8254: a5 7e        	lda	$7e                     ; 0x7e <__zp_bss_size+0x4e>
    8256: 65 13        	adc	$13                     ; 0x13 <__rc3>
    8258: 85 13        	sta	$13                     ; 0x13 <__rc3>
    825a: a6 18        	ldx	$18                     ; 0x18 <__rc8>
    825c: 98           	tya
    825d: 20 34 03     	jsr	$334 <_ZN12_GLOBAL__N_19FreeChunk6insertEPvj>
    8260: a6 80        	ldx	$80                     ; 0x80 <__zp_bss_size+0x50>
    8262: 86 12        	stx	$12                     ; 0x12 <__rc2>
    8264: a6 81        	ldx	$81                     ; 0x81 <__zp_bss_size+0x51>
    8266: 86 13        	stx	$13                     ; 0x13 <__rc3>
    8268: a5 7f        	lda	$7f                     ; 0x7f <__zp_bss_size+0x4f>
    826a: 29 fe        	and	#$fe
    826c: 85 14        	sta	$14                     ; 0x14 <__rc4>
    826e: a0 01        	ldy	#$1
    8270: 98           	tya
    8271: 32 12        	and	($12)                   ; 0x12 <__rc2>
    8273: 05 14        	ora	$14                     ; 0x14 <__rc4>
    8275: 92 12        	sta	($12)                   ; 0x12 <__rc2>
    8277: a5 7e        	lda	$7e                     ; 0x7e <__zp_bss_size+0x4e>
    8279: 91 12        	sta	($12),y                 ; 0x12 <__rc2>
    827b: a5 14        	lda	$14                     ; 0x14 <__rc4>
    827d: a6 7e        	ldx	$7e                     ; 0x7e <__zp_bss_size+0x4e>
    827f: 86 16        	stx	$16                     ; 0x16 <__rc6>
    8281: a6 83        	ldx	$83                     ; 0x83 <__zp_bss_size+0x53>
    8283: 86 14        	stx	$14                     ; 0x14 <__rc4>
    8285: a6 82        	ldx	$82                     ; 0x82 <__zp_bss_size+0x52>
    8287: 86 15        	stx	$15                     ; 0x15 <__rc5>
    8289: 18           	clc
    828a: 65 12        	adc	$12                     ; 0x12 <__rc2>
    828c: a8           	tay
    828d: a5 16        	lda	$16                     ; 0x16 <__rc6>
    828f: 65 13        	adc	$13                     ; 0x13 <__rc3>
    8291: c5 15        	cmp	$15                     ; 0x15 <__rc5>
    8293: d0 09        	bne	$829e <malloc+0x1c6>
    8295: c4 14        	cpy	$14                     ; 0x14 <__rc4>
    8297: d0 05        	bne	$829e <malloc+0x1c6>
    8299: 9c 12 8f     	stz	$8f12                   ; 0x8f12 <_ZN12_GLOBAL__N_19last_freeE>
    829c: 80 14        	bra	$82b2 <malloc+0x1da>
    829e: 84 14        	sty	$14                     ; 0x14 <__rc4>
    82a0: 85 15        	sta	$15                     ; 0x15 <__rc5>
    82a2: a0 01        	ldy	#$1
    82a4: b1 14        	lda	($14),y                 ; 0x14 <__rc4>
    82a6: 85 16        	sta	$16                     ; 0x16 <__rc6>
    82a8: a9 fe        	lda	#$fe
    82aa: 32 14        	and	($14)                   ; 0x14 <__rc4>
    82ac: 92 14        	sta	($14)                   ; 0x14 <__rc4>
    82ae: a5 16        	lda	$16                     ; 0x16 <__rc6>
    82b0: 91 14        	sta	($14),y                 ; 0x14 <__rc4>
    82b2: a5 12        	lda	$12                     ; 0x12 <__rc2>
    82b4: 18           	clc
    82b5: 69 02        	adc	#$2
    82b7: 85 12        	sta	$12                     ; 0x12 <__rc2>
    82b9: a5 13        	lda	$13                     ; 0x13 <__rc3>
    82bb: 69 00        	adc	#$0
    82bd: 85 13        	sta	$13                     ; 0x13 <__rc3>
    82bf: 60           	rts

000082c0 <memcpy>:
    82c0: a8           	tay
    82c1: 8a           	txa
    82c2: d0 03        	bne	$82c7 <memcpy+0x7>
    82c4: 98           	tya
    82c5: f0 24        	beq	$82eb <memcpy+0x2b>
    82c7: a5 12        	lda	$12                     ; 0x12 <__rc2>
    82c9: 85 16        	sta	$16                     ; 0x16 <__rc6>
    82cb: a5 13        	lda	$13                     ; 0x13 <__rc3>
    82cd: 85 17        	sta	$17                     ; 0x17 <__rc7>
    82cf: b2 14        	lda	($14)                   ; 0x14 <__rc4>
    82d1: 92 16        	sta	($16)                   ; 0x16 <__rc6>
    82d3: e6 16        	inc	$16                     ; 0x16 <__rc6>
    82d5: d0 02        	bne	$82d9 <memcpy+0x19>
    82d7: e6 17        	inc	$17                     ; 0x17 <__rc7>
    82d9: e6 14        	inc	$14                     ; 0x14 <__rc4>
    82db: d0 02        	bne	$82df <memcpy+0x1f>
    82dd: e6 15        	inc	$15                     ; 0x15 <__rc5>
    82df: 88           	dey
    82e0: c0 ff        	cpy	#$ff
    82e2: d0 01        	bne	$82e5 <memcpy+0x25>
    82e4: ca           	dex
    82e5: 8a           	txa
    82e6: d0 e7        	bne	$82cf <memcpy+0xf>
    82e8: 98           	tya
    82e9: d0 e4        	bne	$82cf <memcpy+0xf>
    82eb: 60           	rts

000082ec <__memset>:
    82ec: a4 14        	ldy	$14                     ; 0x14 <__rc4>
    82ee: d0 04        	bne	$82f4 <__memset+0x8>
    82f0: e0 00        	cpx	#$0
    82f2: f0 17        	beq	$830b <__memset+0x1f>
    82f4: 92 12        	sta	($12)                   ; 0x12 <__rc2>
    82f6: e6 12        	inc	$12                     ; 0x12 <__rc2>
    82f8: d0 02        	bne	$82fc <__memset+0x10>
    82fa: e6 13        	inc	$13                     ; 0x13 <__rc3>
    82fc: ca           	dex
    82fd: e0 ff        	cpx	#$ff
    82ff: d0 02        	bne	$8303 <__memset+0x17>
    8301: c6 14        	dec	$14                     ; 0x14 <__rc4>
    8303: a4 14        	ldy	$14                     ; 0x14 <__rc4>
    8305: d0 ed        	bne	$82f4 <__memset+0x8>
    8307: e0 00        	cpx	#$0
    8309: d0 e9        	bne	$82f4 <__memset+0x8>
    830b: 60           	rts

0000830c <__udivhi3>:
    830c: 64 14        	stz	$14                     ; 0x14 <__rc4>
    830e: a4 13        	ldy	$13                     ; 0x13 <__rc3>
    8310: d0 04        	bne	$8316 <__udivhi3+0xa>
    8312: a4 12        	ldy	$12                     ; 0x12 <__rc2>
    8314: f0 0c        	beq	$8322 <__udivhi3+0x16>
    8316: 85 17        	sta	$17                     ; 0x17 <__rc7>
    8318: da           	phx
    8319: 7a           	ply
    831a: e4 13        	cpx	$13                     ; 0x13 <__rc3>
    831c: d0 09        	bne	$8327 <__udivhi3+0x1b>
    831e: c5 12        	cmp	$12                     ; 0x12 <__rc2>
    8320: b0 09        	bcs	$832b <__udivhi3+0x1f>
    8322: 64 19        	stz	$19                     ; 0x19 <__rc9>
    8324: 4c c0 83     	jmp	$83c0 <__udivhi3+0xb4>
    8327: c4 13        	cpy	$13                     ; 0x13 <__rc3>
    8329: 90 f7        	bcc	$8322 <__udivhi3+0x16>
    832b: a9 01        	lda	#$1
    832d: 85 19        	sta	$19                     ; 0x19 <__rc9>
    832f: a5 13        	lda	$13                     ; 0x13 <__rc3>
    8331: 10 03        	bpl	$8336 <__udivhi3+0x2a>
    8333: 4c c0 83     	jmp	$83c0 <__udivhi3+0xb4>
    8336: a2 00        	ldx	#$0
    8338: a5 12        	lda	$12                     ; 0x12 <__rc2>
    833a: 85 15        	sta	$15                     ; 0x15 <__rc5>
    833c: a5 13        	lda	$13                     ; 0x13 <__rc3>
    833e: 85 16        	sta	$16                     ; 0x16 <__rc6>
    8340: 06 15        	asl	$15                     ; 0x15 <__rc5>
    8342: 26 16        	rol	$16                     ; 0x16 <__rc6>
    8344: c4 16        	cpy	$16                     ; 0x16 <__rc6>
    8346: d0 0c        	bne	$8354 <__udivhi3+0x48>
    8348: 84 18        	sty	$18                     ; 0x18 <__rc8>
    834a: a4 17        	ldy	$17                     ; 0x17 <__rc7>
    834c: c4 15        	cpy	$15                     ; 0x15 <__rc5>
    834e: a4 18        	ldy	$18                     ; 0x18 <__rc8>
    8350: 90 13        	bcc	$8365 <__udivhi3+0x59>
    8352: 80 04        	bra	$8358 <__udivhi3+0x4c>
    8354: c4 16        	cpy	$16                     ; 0x16 <__rc6>
    8356: 90 0d        	bcc	$8365 <__udivhi3+0x59>
    8358: e8           	inx
    8359: a5 15        	lda	$15                     ; 0x15 <__rc5>
    835b: 85 12        	sta	$12                     ; 0x12 <__rc2>
    835d: a5 16        	lda	$16                     ; 0x16 <__rc6>
    835f: 85 13        	sta	$13                     ; 0x13 <__rc3>
    8361: 10 dd        	bpl	$8340 <__udivhi3+0x34>
    8363: 80 08        	bra	$836d <__udivhi3+0x61>
    8365: a5 12        	lda	$12                     ; 0x12 <__rc2>
    8367: 85 15        	sta	$15                     ; 0x15 <__rc5>
    8369: a5 13        	lda	$13                     ; 0x13 <__rc3>
    836b: 85 16        	sta	$16                     ; 0x16 <__rc6>
    836d: 8a           	txa
    836e: f0 50        	beq	$83c0 <__udivhi3+0xb4>
    8370: 38           	sec
    8371: a5 17        	lda	$17                     ; 0x17 <__rc7>
    8373: e5 15        	sbc	$15                     ; 0x15 <__rc5>
    8375: 85 12        	sta	$12                     ; 0x12 <__rc2>
    8377: 98           	tya
    8378: e5 16        	sbc	$16                     ; 0x16 <__rc6>
    837a: 85 13        	sta	$13                     ; 0x13 <__rc3>
    837c: a9 01        	lda	#$1
    837e: 85 19        	sta	$19                     ; 0x19 <__rc9>
    8380: 64 14        	stz	$14                     ; 0x14 <__rc4>
    8382: 46 16        	lsr	$16                     ; 0x16 <__rc6>
    8384: 66 15        	ror	$15                     ; 0x15 <__rc5>
    8386: 06 19        	asl	$19                     ; 0x19 <__rc9>
    8388: a0 01        	ldy	#$1
    838a: b0 02        	bcs	$838e <__udivhi3+0x82>
    838c: a0 00        	ldy	#$0
    838e: 84 17        	sty	$17                     ; 0x17 <__rc7>
    8390: a4 13        	ldy	$13                     ; 0x13 <__rc3>
    8392: c4 16        	cpy	$16                     ; 0x16 <__rc6>
    8394: d0 24        	bne	$83ba <__udivhi3+0xae>
    8396: a4 12        	ldy	$12                     ; 0x12 <__rc2>
    8398: c4 15        	cpy	$15                     ; 0x15 <__rc5>
    839a: 90 13        	bcc	$83af <__udivhi3+0xa3>
    839c: a5 19        	lda	$19                     ; 0x19 <__rc9>
    839e: 09 01        	ora	#$1
    83a0: 85 19        	sta	$19                     ; 0x19 <__rc9>
    83a2: 38           	sec
    83a3: a5 12        	lda	$12                     ; 0x12 <__rc2>
    83a5: e5 15        	sbc	$15                     ; 0x15 <__rc5>
    83a7: 85 12        	sta	$12                     ; 0x12 <__rc2>
    83a9: a5 13        	lda	$13                     ; 0x13 <__rc3>
    83ab: e5 16        	sbc	$16                     ; 0x16 <__rc6>
    83ad: 85 13        	sta	$13                     ; 0x13 <__rc3>
    83af: a4 17        	ldy	$17                     ; 0x17 <__rc7>
    83b1: c0 01        	cpy	#$1
    83b3: 26 14        	rol	$14                     ; 0x14 <__rc4>
    83b5: ca           	dex
    83b6: d0 ca        	bne	$8382 <__udivhi3+0x76>
    83b8: 80 06        	bra	$83c0 <__udivhi3+0xb4>
    83ba: c4 16        	cpy	$16                     ; 0x16 <__rc6>
    83bc: b0 de        	bcs	$839c <__udivhi3+0x90>
    83be: 80 ef        	bra	$83af <__udivhi3+0xa3>
    83c0: a6 14        	ldx	$14                     ; 0x14 <__rc4>
    83c2: a5 19        	lda	$19                     ; 0x19 <__rc9>
    83c4: 60           	rts

000083c5 <__udivmodhi4>:
    83c5: 86 1a        	stx	$1a                     ; 0x1a <__rc10>
    83c7: 64 16        	stz	$16                     ; 0x16 <__rc6>
    83c9: a4 13        	ldy	$13                     ; 0x13 <__rc3>
    83cb: d0 04        	bne	$83d1 <__udivmodhi4+0xc>
    83cd: a4 12        	ldy	$12                     ; 0x12 <__rc2>
    83cf: f0 08        	beq	$83d9 <__udivmodhi4+0x14>
    83d1: e4 13        	cpx	$13                     ; 0x13 <__rc3>
    83d3: d0 0f        	bne	$83e4 <__udivmodhi4+0x1f>
    83d5: c5 12        	cmp	$12                     ; 0x12 <__rc2>
    83d7: b0 0f        	bcs	$83e8 <__udivmodhi4+0x23>
    83d9: a6 1a        	ldx	$1a                     ; 0x1a <__rc10>
    83db: 86 12        	stx	$12                     ; 0x12 <__rc2>
    83dd: 64 13        	stz	$13                     ; 0x13 <__rc3>
    83df: 85 19        	sta	$19                     ; 0x19 <__rc9>
    83e1: 4c 8d 84     	jmp	$848d <__udivmodhi4+0xc8>
    83e4: e4 13        	cpx	$13                     ; 0x13 <__rc3>
    83e6: 90 f1        	bcc	$83d9 <__udivmodhi4+0x14>
    83e8: a4 13        	ldy	$13                     ; 0x13 <__rc3>
    83ea: 10 03        	bpl	$83ef <__udivmodhi4+0x2a>
    83ec: 4c 7b 84     	jmp	$847b <__udivmodhi4+0xb6>
    83ef: a2 00        	ldx	#$0
    83f1: a4 12        	ldy	$12                     ; 0x12 <__rc2>
    83f3: 84 17        	sty	$17                     ; 0x17 <__rc7>
    83f5: a4 13        	ldy	$13                     ; 0x13 <__rc3>
    83f7: 84 18        	sty	$18                     ; 0x18 <__rc8>
    83f9: 06 17        	asl	$17                     ; 0x17 <__rc7>
    83fb: 26 18        	rol	$18                     ; 0x18 <__rc8>
    83fd: a4 1a        	ldy	$1a                     ; 0x1a <__rc10>
    83ff: c4 18        	cpy	$18                     ; 0x18 <__rc8>
    8401: d0 06        	bne	$8409 <__udivmodhi4+0x44>
    8403: c5 17        	cmp	$17                     ; 0x17 <__rc7>
    8405: 90 15        	bcc	$841c <__udivmodhi4+0x57>
    8407: 80 06        	bra	$840f <__udivmodhi4+0x4a>
    8409: a4 1a        	ldy	$1a                     ; 0x1a <__rc10>
    840b: c4 18        	cpy	$18                     ; 0x18 <__rc8>
    840d: 90 0d        	bcc	$841c <__udivmodhi4+0x57>
    840f: e8           	inx
    8410: a4 17        	ldy	$17                     ; 0x17 <__rc7>
    8412: 84 12        	sty	$12                     ; 0x12 <__rc2>
    8414: a4 18        	ldy	$18                     ; 0x18 <__rc8>
    8416: 84 13        	sty	$13                     ; 0x13 <__rc3>
    8418: 10 df        	bpl	$83f9 <__udivmodhi4+0x34>
    841a: 80 08        	bra	$8424 <__udivmodhi4+0x5f>
    841c: a4 12        	ldy	$12                     ; 0x12 <__rc2>
    841e: 84 17        	sty	$17                     ; 0x17 <__rc7>
    8420: a4 13        	ldy	$13                     ; 0x13 <__rc3>
    8422: 84 18        	sty	$18                     ; 0x18 <__rc8>
    8424: 38           	sec
    8425: e5 17        	sbc	$17                     ; 0x17 <__rc7>
    8427: a8           	tay
    8428: a5 1a        	lda	$1a                     ; 0x1a <__rc10>
    842a: e5 18        	sbc	$18                     ; 0x18 <__rc8>
    842c: 85 12        	sta	$12                     ; 0x12 <__rc2>
    842e: a9 01        	lda	#$1
    8430: 85 13        	sta	$13                     ; 0x13 <__rc3>
    8432: 8a           	txa
    8433: d0 03        	bne	$8438 <__udivmodhi4+0x73>
    8435: 4c 8b 84     	jmp	$848b <__udivmodhi4+0xc6>
    8438: 64 16        	stz	$16                     ; 0x16 <__rc6>
    843a: 84 19        	sty	$19                     ; 0x19 <__rc9>
    843c: 46 18        	lsr	$18                     ; 0x18 <__rc8>
    843e: 66 17        	ror	$17                     ; 0x17 <__rc7>
    8440: 06 13        	asl	$13                     ; 0x13 <__rc3>
    8442: a0 01        	ldy	#$1
    8444: b0 02        	bcs	$8448 <__udivmodhi4+0x83>
    8446: a0 00        	ldy	#$0
    8448: 84 1a        	sty	$1a                     ; 0x1a <__rc10>
    844a: a4 12        	ldy	$12                     ; 0x12 <__rc2>
    844c: c4 18        	cpy	$18                     ; 0x18 <__rc8>
    844e: d0 25        	bne	$8475 <__udivmodhi4+0xb0>
    8450: a4 19        	ldy	$19                     ; 0x19 <__rc9>
    8452: c4 17        	cpy	$17                     ; 0x17 <__rc7>
    8454: 90 14        	bcc	$846a <__udivmodhi4+0xa5>
    8456: a5 13        	lda	$13                     ; 0x13 <__rc3>
    8458: 09 01        	ora	#$1
    845a: 85 13        	sta	$13                     ; 0x13 <__rc3>
    845c: 38           	sec
    845d: a5 19        	lda	$19                     ; 0x19 <__rc9>
    845f: e5 17        	sbc	$17                     ; 0x17 <__rc7>
    8461: a8           	tay
    8462: a5 12        	lda	$12                     ; 0x12 <__rc2>
    8464: e5 18        	sbc	$18                     ; 0x18 <__rc8>
    8466: 85 12        	sta	$12                     ; 0x12 <__rc2>
    8468: 84 19        	sty	$19                     ; 0x19 <__rc9>
    846a: a4 1a        	ldy	$1a                     ; 0x1a <__rc10>
    846c: c0 01        	cpy	#$1
    846e: 26 16        	rol	$16                     ; 0x16 <__rc6>
    8470: ca           	dex
    8471: d0 c9        	bne	$843c <__udivmodhi4+0x77>
    8473: 80 18        	bra	$848d <__udivmodhi4+0xc8>
    8475: c4 18        	cpy	$18                     ; 0x18 <__rc8>
    8477: b0 dd        	bcs	$8456 <__udivmodhi4+0x91>
    8479: 80 ef        	bra	$846a <__udivmodhi4+0xa5>
    847b: 38           	sec
    847c: e5 12        	sbc	$12                     ; 0x12 <__rc2>
    847e: 85 19        	sta	$19                     ; 0x19 <__rc9>
    8480: 8a           	txa
    8481: e5 13        	sbc	$13                     ; 0x13 <__rc3>
    8483: 85 12        	sta	$12                     ; 0x12 <__rc2>
    8485: a9 01        	lda	#$1
    8487: 85 13        	sta	$13                     ; 0x13 <__rc3>
    8489: 80 02        	bra	$848d <__udivmodhi4+0xc8>
    848b: 84 19        	sty	$19                     ; 0x19 <__rc9>
    848d: a5 19        	lda	$19                     ; 0x19 <__rc9>
    848f: 92 14        	sta	($14)                   ; 0x14 <__rc4>
    8491: a0 01        	ldy	#$1
    8493: a5 12        	lda	$12                     ; 0x12 <__rc2>
    8495: 91 14        	sta	($14),y                 ; 0x14 <__rc4>
    8497: a6 16        	ldx	$16                     ; 0x16 <__rc6>
    8499: a5 13        	lda	$13                     ; 0x13 <__rc3>
    849b: 60           	rts

0000849c <__mulsi3>:
    849c: a4 17        	ldy	$17                     ; 0x17 <__rc7>
    849e: d0 0f        	bne	$84af <__mulsi3+0x13>
    84a0: a4 16        	ldy	$16                     ; 0x16 <__rc6>
    84a2: d0 0b        	bne	$84af <__mulsi3+0x13>
    84a4: a4 15        	ldy	$15                     ; 0x15 <__rc5>
    84a6: d0 07        	bne	$84af <__mulsi3+0x13>
    84a8: a4 14        	ldy	$14                     ; 0x14 <__rc4>
    84aa: d0 03        	bne	$84af <__mulsi3+0x13>
    84ac: 4c 03 85     	jmp	$8503 <__mulsi3+0x67>
    84af: 85 18        	sta	$18                     ; 0x18 <__rc8>
    84b1: 86 19        	stx	$19                     ; 0x19 <__rc9>
    84b3: a0 00        	ldy	#$0
    84b5: a2 00        	ldx	#$0
    84b7: 64 1a        	stz	$1a                     ; 0x1a <__rc10>
    84b9: 98           	tya
    84ba: 46 17        	lsr	$17                     ; 0x17 <__rc7>
    84bc: 66 16        	ror	$16                     ; 0x16 <__rc6>
    84be: 66 15        	ror	$15                     ; 0x15 <__rc5>
    84c0: 66 14        	ror	$14                     ; 0x14 <__rc4>
    84c2: 90 15        	bcc	$84d9 <__mulsi3+0x3d>
    84c4: 85 1b        	sta	$1b                     ; 0x1b <__zp_data_size>
    84c6: 98           	tya
    84c7: 18           	clc
    84c8: 65 18        	adc	$18                     ; 0x18 <__rc8>
    84ca: a8           	tay
    84cb: 8a           	txa
    84cc: 65 19        	adc	$19                     ; 0x19 <__rc9>
    84ce: aa           	tax
    84cf: a5 1a        	lda	$1a                     ; 0x1a <__rc10>
    84d1: 65 12        	adc	$12                     ; 0x12 <__rc2>
    84d3: 85 1a        	sta	$1a                     ; 0x1a <__rc10>
    84d5: a5 1b        	lda	$1b                     ; 0x1b <__zp_data_size>
    84d7: 65 13        	adc	$13                     ; 0x13 <__rc3>
    84d9: 06 18        	asl	$18                     ; 0x18 <__rc8>
    84db: 26 19        	rol	$19                     ; 0x19 <__rc9>
    84dd: 26 12        	rol	$12                     ; 0x12 <__rc2>
    84df: 26 13        	rol	$13                     ; 0x13 <__rc3>
    84e1: e6 17        	inc	$17                     ; 0x17 <__rc7>
    84e3: c6 17        	dec	$17                     ; 0x17 <__rc7>
    84e5: d0 d3        	bne	$84ba <__mulsi3+0x1e>
    84e7: e6 16        	inc	$16                     ; 0x16 <__rc6>
    84e9: c6 16        	dec	$16                     ; 0x16 <__rc6>
    84eb: d0 cd        	bne	$84ba <__mulsi3+0x1e>
    84ed: e6 15        	inc	$15                     ; 0x15 <__rc5>
    84ef: c6 15        	dec	$15                     ; 0x15 <__rc5>
    84f1: d0 c7        	bne	$84ba <__mulsi3+0x1e>
    84f3: e6 14        	inc	$14                     ; 0x14 <__rc4>
    84f5: c6 14        	dec	$14                     ; 0x14 <__rc4>
    84f7: d0 c1        	bne	$84ba <__mulsi3+0x1e>
    84f9: 5a           	phy
    84fa: a4 1a        	ldy	$1a                     ; 0x1a <__rc10>
    84fc: 84 12        	sty	$12                     ; 0x12 <__rc2>
    84fe: 7a           	ply
    84ff: 85 13        	sta	$13                     ; 0x13 <__rc3>
    8501: 98           	tya
    8502: 60           	rts
    8503: a0 00        	ldy	#$0
    8505: a2 00        	ldx	#$0
    8507: 64 1a        	stz	$1a                     ; 0x1a <__rc10>
    8509: 98           	tya
    850a: 80 ed        	bra	$84f9 <__mulsi3+0x5d>
