
hackGfx.elf:	file format elf32-mos

SYMBOL TABLE:
00000000 l    df *ABS*	00000000 zero-bss.c
00000000 l    df *ABS*	00000000 zero-zp-bss.c
00000000 l    df *ABS*	00000000 copy-zp-data.c
00000000 l    df *ABS*	00000000 ld-temp.o
00000071 l     O .zp.bss	00000007 kernelEventData
00000030 l     O .zp.data	00000030 textColors
00000061 l     O .zp.bss	00000001 _col
00000062 l     O .zp.bss	00000001 _row
00000063 l     O .zp.bss	00000001 _active
00000064 l     O .zp.bss	00000001 _color
00004962 l     O .bss	0000000c _BITMAP_BASE
00000065 l     O .zp.bss	00000001 _tileSize.1
00000066 l     O .zp.bss	00000001 _tileSize.2
00000078 l     O .zp.bss	00000001 kernelError
0000440e l     F .text	000000a5 __umodhi3
0000261d l     F .text	000002dc bitmapClear
0000496e l     O .bss	00000002 theFile
0000346a l     F .text	00000d72 printf
000041dc l     F .text	000001e6 malloc
0000007e l     O .zp.bss	00000004 gd3Location
0000007d l     O .zp.bss	00000001 oneLoop
00002afe l     F .text	00000179 fileRead
00000082 l     O .zp.bss	00000004 totalWait
00000086 l     O .zp.bss	00000004 loopBackTo
00003083 l     F .text	000001f4 copyToRAM
0000008a l     O .zp.bss	00000004 needle
0000008e l     O .zp.bss	00000004 samplesSoFar
00004a7f l     O .bss	00000002 _ZN12_GLOBAL__N_19free_sizeE
00004a81 l     O .bss	00000002 _ZN12_GLOBAL__N_19free_listE
00004a7e l     O .bss	00000001 _ZN12_GLOBAL__N_19last_freeE
00000092 l     O .zp.bss	00000001 comeRightTrough
000028f9 l     F .text	00000205 textPrint
00000070 l     O .zp.bss	00000001 tileAnim.1
0000006f l     O .zp.bss	00000001 wantSound
00000060 l     O .zp.data	00000001 wantText
00000079 l     O .zp.bss	00000004 tooBigWait
0000006c l     O .zp.bss	00000002 tm_xf1
0000006e l     O .zp.bss	00000001 tm_x1
00002c77 l     F .text	0000040c opl3_shadow
000044b3 l     F .text	00000070 __mulsi3
00000069 l     O .zp.bss	00000002 tm_xf
0000006b l     O .zp.bss	00000001 tm_x
00004970 l     O .bss	0000010e opl3_instrument_defs
0000327c l     F .text	000000df _ZN12_GLOBAL__N_13putEcP6Status
00000067 l     O .zp.bss	00000002 __putchar.s
0000335b l     F .text	0000010f _ZN12_GLOBAL__N_112print_stringEPKcP6Status
00000093 l     O .zp.bss	00000001 _ZN12_GLOBAL__N_111initializedE
0000034a l     F .text	00000153 _ZN12_GLOBAL__N_19FreeChunk6insertEPvj
0000049e l     F .text	000000f0 _ZN12_GLOBAL__N_19FreeChunk6removeEv
00000611 g     F .text	0000200c main
00010080 g       .pal	00000000 pal_end
00010000 g       .pal	00000000 pal_start
0003b400 g       .tile3	00000000 tile3_start
0003b900 g       .tile3	00000000 tile3_end
000005cb g       .text	00000000 PEEK24
000005ed g       .text	00000000 POKE24
00000014 g       *ABS*	00000000 __rc4
00000012 g       *ABS*	00000000 __rc2
00000346 g       .text	00000000 __after_main
00000332 g       .text	00000000 __do_init_stack
00000340 g       .text	00000000 __do_copy_zp_data
000005b4 g     F .text	00000017 __copy_zp_data
0000033a g       .text	00000000 __do_zero_bss
0000058e g     F .text	00000013 __zero_bss
0000033d g       .text	00000000 __do_zero_zp_bss
000005a1 g     F .text	00000013 __zero_zp_bss
00003277 g     F .text	00000005 exit
00000349 g       .text	00000000 _fini
000043ee  w    F .text	00000020 __memset
00001000  w      *ABS*	00000000 __heap_default_limit
00004a84 g       .noinit	00000000 __heap_start
000043c2  w    F .text	0000002c memcpy
00000010 g       *ABS*	00000000 __rc0
00000016 g       *ABS*	00000000 __rc6
00000018 g       *ABS*	00000000 __rc8
0000001a g       *ABS*	00000000 __rc10
0000001c g       *ABS*	00000000 __rc12
0000001e g       *ABS*	00000000 __rc14
00000020 g       *ABS*	00000000 __rc16
00000022 g       *ABS*	00000000 __rc18
00000024 g       *ABS*	00000000 __rc20
00000026 g       *ABS*	00000000 __rc22
00000028 g       *ABS*	00000000 __rc24
0000002a g       *ABS*	00000000 __rc26
0000002c g       *ABS*	00000000 __rc28
0000002e g       *ABS*	00000000 __rc30
0000002f g       *ABS*	00000000 __rc31
00000300 g       *ABS*	00000000 __f256_start
0000a000 g       *ABS*	00000000 __stack
0000a000 g       *ABS*	00000000 __SLOT_ADDR
0800a000 g       *ABS*	00000000 __block8_lma
00002000 g       *ABS*	00000000 __BLOCK_SIZE
0900a000 g       *ABS*	00000000 __block9_lma
0a00a000 g       *ABS*	00000000 __block10_lma
0b00a000 g       *ABS*	00000000 __block11_lma
0c00a000 g       *ABS*	00000000 __block12_lma
0d00a000 g       *ABS*	00000000 __block13_lma
0e00a000 g       *ABS*	00000000 __block14_lma
0f00a000 g       *ABS*	00000000 __block15_lma
1000a000 g       *ABS*	00000000 __block16_lma
1100a000 g       *ABS*	00000000 __block17_lma
1200a000 g       *ABS*	00000000 __block18_lma
1300a000 g       *ABS*	00000000 __block19_lma
1400a000 g       *ABS*	00000000 __block20_lma
1500a000 g       *ABS*	00000000 __block21_lma
1600a000 g       *ABS*	00000000 __block22_lma
1700a000 g       *ABS*	00000000 __block23_lma
00010000 g       *ABS*	00000000 __pal_lma
00000080 g       *ABS*	00000000 __pal_size
0003b400 g       *ABS*	00000000 __tile3_lma
00000500 g       *ABS*	00000000 __tile3_size
00004962 g       .bss	00000000 __bss_start
00010080 g       .pal	00000000 end_pal
0003b900 g       .tile3	00000000 end_tile3
00000332 g       .text	00000000 _start
0000002d g       *ABS*	00000000 __rc29
0000002b g       *ABS*	00000000 __rc27
00000029 g       *ABS*	00000000 __rc25
00000027 g       *ABS*	00000000 __rc23
00000025 g       *ABS*	00000000 __rc21
00000023 g       *ABS*	00000000 __rc19
00000021 g       *ABS*	00000000 __rc17
0000001f g       *ABS*	00000000 __rc15
0000001d g       *ABS*	00000000 __rc13
0000001b g       *ABS*	00000000 __rc11
00000019 g       *ABS*	00000000 __rc9
00000017 g       *ABS*	00000000 __rc7
00000015 g       *ABS*	00000000 __rc5
00000013 g       *ABS*	00000000 __rc3
00000011 g       *ABS*	00000000 __rc1
00000030 g       .zp.data	00000000 __zp_data_start
00000300 g       *ABS*	00000000 __zp_data_load_start
00000031 g       *ABS*	00000000 __zp_data_size
00000061 g       .zp.bss	00000000 __zp_bss_start
00000033 g       *ABS*	00000000 __zp_bss_size
00000332 g       .text	00000000 _init
00004523 g       .text	00000000 __init_array_start
00004523 g       .text	00000000 __init_array_end
00004523 g       .text	00000000 __fini_array_start
00004523 g       .text	00000000 __fini_array_end
00004962 g       .data	00000000 __data_start
00004962 g       .data	00000000 __data_end
00004962 g       *ABS*	00000000 __data_load_start
00000000 g       *ABS*	00000000 __data_size
00004a83 g       .bss	00000000 __bss_end
00000121 g       *ABS*	00000000 __bss_size
00004a83 g       .noinit	00000000 end_block8
00004a83 g       .noinit	00000000 end_block9
00004a83 g       .noinit	00000000 end_block10
00004a83 g       .noinit	00000000 end_block11
00004a83 g       .noinit	00000000 end_block12
00004a83 g       .noinit	00000000 end_block13
00004a83 g       .noinit	00000000 end_block14
00004a83 g       .noinit	00000000 end_block15
00004a83 g       .noinit	00000000 end_block16
00004a83 g       .noinit	00000000 end_block17
00004a83 g       .noinit	00000000 end_block18
00004a83 g       .noinit	00000000 end_block19
00004a83 g       .noinit	00000000 end_block20
00004a83 g       .noinit	00000000 end_block21
00004a83 g       .noinit	00000000 end_block22
00004a83 g       .noinit	00000000 end_block23

Disassembly of section .text:

00000332 <_start>:
     332: a9 00        	lda	#$0
     334: 85 10        	sta	$10                     ; 0x10 <__rc0>
     336: a9 a0        	lda	#$a0
     338: 85 11        	sta	$11                     ; 0x11 <__rc1>

0000033a <__do_zero_bss>:
     33a: 20 8e 05     	jsr	$58e <__zero_bss>

0000033d <__do_zero_zp_bss>:
     33d: 20 a1 05     	jsr	$5a1 <__zero_zp_bss>

00000340 <__do_copy_zp_data>:
     340: 20 b4 05     	jsr	$5b4 <__copy_zp_data>
     343: 20 11 06     	jsr	$611 <main>

00000346 <__after_main>:
     346: 4c 77 32     	jmp	$3277 <exit>

00000349 <_fini>:
     349: 60           	rts

0000034a <_ZN12_GLOBAL__N_19FreeChunk6insertEPvj>:
     34a: 85 16        	sta	$16                     ; 0x16 <__rc6>
     34c: 29 fe        	and	#$fe
     34e: 85 14        	sta	$14                     ; 0x14 <__rc4>
     350: a0 01        	ldy	#$1
     352: 98           	tya
     353: 32 12        	and	($12)                   ; 0x12 <__rc2>
     355: 05 14        	ora	$14                     ; 0x14 <__rc4>
     357: 92 12        	sta	($12)                   ; 0x12 <__rc2>
     359: a5 12        	lda	$12                     ; 0x12 <__rc2>
     35b: 18           	clc
     35c: 65 14        	adc	$14                     ; 0x14 <__rc4>
     35e: 85 15        	sta	$15                     ; 0x15 <__rc5>
     360: 8a           	txa
     361: 65 13        	adc	$13                     ; 0x13 <__rc3>
     363: 85 14        	sta	$14                     ; 0x14 <__rc4>
     365: 18           	clc
     366: a5 15        	lda	$15                     ; 0x15 <__rc5>
     368: 69 fe        	adc	#$fe
     36a: 85 17        	sta	$17                     ; 0x17 <__rc7>
     36c: a5 14        	lda	$14                     ; 0x14 <__rc4>
     36e: 69 ff        	adc	#$ff
     370: 85 15        	sta	$15                     ; 0x15 <__rc5>
     372: a5 17        	lda	$17                     ; 0x17 <__rc7>
     374: 85 14        	sta	$14                     ; 0x14 <__rc4>
     376: 8a           	txa
     377: 91 12        	sta	($12),y                 ; 0x12 <__rc2>
     379: a5 16        	lda	$16                     ; 0x16 <__rc6>
     37b: 92 14        	sta	($14)                   ; 0x14 <__rc4>
     37d: 8a           	txa
     37e: 91 14        	sta	($14),y                 ; 0x14 <__rc4>
     380: a2 01        	ldx	#$1
     382: 86 18        	stx	$18                     ; 0x18 <__rc8>
     384: b1 12        	lda	($12),y                 ; 0x12 <__rc2>
     386: 85 14        	sta	$14                     ; 0x14 <__rc4>
     388: a9 fe        	lda	#$fe
     38a: 32 12        	and	($12)                   ; 0x12 <__rc2>
     38c: 18           	clc
     38d: 6d 7f 4a     	adc	$4a7f                   ; 0x4a7f <_ZN12_GLOBAL__N_19free_sizeE>
     390: aa           	tax
     391: a5 14        	lda	$14                     ; 0x14 <__rc4>
     393: 6d 80 4a     	adc	$4a80                   ; 0x4a80 <_ZN12_GLOBAL__N_19free_sizeE+0x1>
     396: a8           	tay
     397: 18           	clc
     398: 8a           	txa
     399: 69 fe        	adc	#$fe
     39b: aa           	tax
     39c: 98           	tya
     39d: 69 ff        	adc	#$ff
     39f: 8e 7f 4a     	stx	$4a7f                   ; 0x4a7f <_ZN12_GLOBAL__N_19free_sizeE>
     3a2: 8d 80 4a     	sta	$4a80                   ; 0x4a80 <_ZN12_GLOBAL__N_19free_sizeE+0x1>
     3a5: ae 81 4a     	ldx	$4a81                   ; 0x4a81 <_ZN12_GLOBAL__N_19free_listE>
     3a8: 86 16        	stx	$16                     ; 0x16 <__rc6>
     3aa: ac 82 4a     	ldy	$4a82                   ; 0x4a82 <_ZN12_GLOBAL__N_19free_listE+0x1>
     3ad: a2 00        	ldx	#$0
     3af: 86 14        	stx	$14                     ; 0x14 <__rc4>
     3b1: a2 00        	ldx	#$0
     3b3: 86 15        	stx	$15                     ; 0x15 <__rc5>
     3b5: 84 17        	sty	$17                     ; 0x17 <__rc7>
     3b7: c4 15        	cpy	$15                     ; 0x15 <__rc5>
     3b9: d0 3e        	bne	$3f9 <_ZN12_GLOBAL__N_19FreeChunk6insertEPvj+0xaf>
     3bb: a6 16        	ldx	$16                     ; 0x16 <__rc6>
     3bd: e4 14        	cpx	$14                     ; 0x14 <__rc4>
     3bf: d0 38        	bne	$3f9 <_ZN12_GLOBAL__N_19FreeChunk6insertEPvj+0xaf>
     3c1: a0 04        	ldy	#$4
     3c3: a5 12        	lda	$12                     ; 0x12 <__rc2>
     3c5: 18           	clc
     3c6: 69 04        	adc	#$4
     3c8: 85 14        	sta	$14                     ; 0x14 <__rc4>
     3ca: a5 13        	lda	$13                     ; 0x13 <__rc3>
     3cc: 69 00        	adc	#$0
     3ce: 18           	clc
     3cf: 85 15        	sta	$15                     ; 0x15 <__rc5>
     3d1: a5 12        	lda	$12                     ; 0x12 <__rc2>
     3d3: 91 12        	sta	($12),y                 ; 0x12 <__rc2>
     3d5: a0 02        	ldy	#$2
     3d7: 85 17        	sta	$17                     ; 0x17 <__rc7>
     3d9: 69 02        	adc	#$2
     3db: 85 16        	sta	$16                     ; 0x16 <__rc6>
     3dd: a5 17        	lda	$17                     ; 0x17 <__rc7>
     3df: 91 12        	sta	($12),y                 ; 0x12 <__rc2>
     3e1: a5 13        	lda	$13                     ; 0x13 <__rc3>
     3e3: 69 00        	adc	#$0
     3e5: 85 17        	sta	$17                     ; 0x17 <__rc7>
     3e7: 88           	dey
     3e8: a5 13        	lda	$13                     ; 0x13 <__rc3>
     3ea: 91 14        	sta	($14),y                 ; 0x14 <__rc4>
     3ec: 91 16        	sta	($16),y                 ; 0x16 <__rc6>
     3ee: a6 12        	ldx	$12                     ; 0x12 <__rc2>
     3f0: 8e 81 4a     	stx	$4a81                   ; 0x4a81 <_ZN12_GLOBAL__N_19free_listE>
     3f3: a6 13        	ldx	$13                     ; 0x13 <__rc3>
     3f5: 8e 82 4a     	stx	$4a82                   ; 0x4a82 <_ZN12_GLOBAL__N_19free_listE+0x1>
     3f8: 60           	rts
     3f9: a6 12        	ldx	$12                     ; 0x12 <__rc2>
     3fb: a5 12        	lda	$12                     ; 0x12 <__rc2>
     3fd: 18           	clc
     3fe: 69 02        	adc	#$2
     400: 85 14        	sta	$14                     ; 0x14 <__rc4>
     402: a4 16        	ldy	$16                     ; 0x16 <__rc6>
     404: a5 13        	lda	$13                     ; 0x13 <__rc3>
     406: 69 00        	adc	#$0
     408: 85 15        	sta	$15                     ; 0x15 <__rc5>
     40a: 84 19        	sty	$19                     ; 0x19 <__rc9>
     40c: a4 17        	ldy	$17                     ; 0x17 <__rc7>
     40e: 84 1a        	sty	$1a                     ; 0x1a <__rc10>
     410: a0 02        	ldy	#$2
     412: a5 19        	lda	$19                     ; 0x19 <__rc9>
     414: 91 12        	sta	($12),y                 ; 0x12 <__rc2>
     416: 84 1d        	sty	$1d                     ; 0x1d <__rc13>
     418: a4 18        	ldy	$18                     ; 0x18 <__rc8>
     41a: a5 1a        	lda	$1a                     ; 0x1a <__rc10>
     41c: 91 14        	sta	($14),y                 ; 0x14 <__rc4>
     41e: 84 1e        	sty	$1e                     ; 0x1e <__rc14>
     420: 18           	clc
     421: a5 19        	lda	$19                     ; 0x19 <__rc9>
     423: 69 04        	adc	#$4
     425: 85 18        	sta	$18                     ; 0x18 <__rc8>
     427: a5 1a        	lda	$1a                     ; 0x1a <__rc10>
     429: 69 00        	adc	#$0
     42b: 85 19        	sta	$19                     ; 0x19 <__rc9>
     42d: 8a           	txa
     42e: 18           	clc
     42f: 69 04        	adc	#$4
     431: 85 1a        	sta	$1a                     ; 0x1a <__rc10>
     433: a5 13        	lda	$13                     ; 0x13 <__rc3>
     435: 69 00        	adc	#$0
     437: 85 1b        	sta	$1b                     ; 0x1b <__rc11>
     439: a0 04        	ldy	#$4
     43b: b1 16        	lda	($16),y                 ; 0x16 <__rc6>
     43d: 85 16        	sta	$16                     ; 0x16 <__rc6>
     43f: 85 22        	sta	$22                     ; 0x22 <__rc18>
     441: a4 1e        	ldy	$1e                     ; 0x1e <__rc14>
     443: b1 18        	lda	($18),y                 ; 0x18 <__rc8>
     445: 85 17        	sta	$17                     ; 0x17 <__rc7>
     447: 85 19        	sta	$19                     ; 0x19 <__rc9>
     449: a0 04        	ldy	#$4
     44b: a5 22        	lda	$22                     ; 0x22 <__rc18>
     44d: 91 12        	sta	($12),y                 ; 0x12 <__rc2>
     44f: 84 1f        	sty	$1f                     ; 0x1f <__rc15>
     451: a4 1e        	ldy	$1e                     ; 0x1e <__rc14>
     453: a5 19        	lda	$19                     ; 0x19 <__rc9>
     455: 91 1a        	sta	($1a),y                 ; 0x1a <__rc10>
     457: 84 1a        	sty	$1a                     ; 0x1a <__rc10>
     459: 18           	clc
     45a: a5 22        	lda	$22                     ; 0x22 <__rc18>
     45c: 69 02        	adc	#$2
     45e: 85 18        	sta	$18                     ; 0x18 <__rc8>
     460: a5 19        	lda	$19                     ; 0x19 <__rc9>
     462: 69 00        	adc	#$0
     464: 85 19        	sta	$19                     ; 0x19 <__rc9>
     466: 8a           	txa
     467: a4 1d        	ldy	$1d                     ; 0x1d <__rc13>
     469: 91 16        	sta	($16),y                 ; 0x16 <__rc6>
     46b: a5 13        	lda	$13                     ; 0x13 <__rc3>
     46d: a4 1a        	ldy	$1a                     ; 0x1a <__rc10>
     46f: 91 18        	sta	($18),y                 ; 0x18 <__rc8>
     471: a4 1d        	ldy	$1d                     ; 0x1d <__rc13>
     473: b1 12        	lda	($12),y                 ; 0x12 <__rc2>
     475: 85 16        	sta	$16                     ; 0x16 <__rc6>
     477: 85 19        	sta	$19                     ; 0x19 <__rc9>
     479: a4 1a        	ldy	$1a                     ; 0x1a <__rc10>
     47b: b1 14        	lda	($14),y                 ; 0x14 <__rc4>
     47d: 84 18        	sty	$18                     ; 0x18 <__rc8>
     47f: 85 17        	sta	$17                     ; 0x17 <__rc7>
     481: 85 14        	sta	$14                     ; 0x14 <__rc4>
     483: 8a           	txa
     484: a4 1f        	ldy	$1f                     ; 0x1f <__rc15>
     486: 91 16        	sta	($16),y                 ; 0x16 <__rc6>
     488: 18           	clc
     489: a5 19        	lda	$19                     ; 0x19 <__rc9>
     48b: 69 04        	adc	#$4
     48d: a8           	tay
     48e: a5 14        	lda	$14                     ; 0x14 <__rc4>
     490: 69 00        	adc	#$0
     492: 84 14        	sty	$14                     ; 0x14 <__rc4>
     494: 85 15        	sta	$15                     ; 0x15 <__rc5>
     496: a5 13        	lda	$13                     ; 0x13 <__rc3>
     498: a4 18        	ldy	$18                     ; 0x18 <__rc8>
     49a: 91 14        	sta	($14),y                 ; 0x14 <__rc4>
     49c: 60           	rts
     49d: 00           	brk

0000049e <_ZN12_GLOBAL__N_19FreeChunk6removeEv>:
     49e: a0 01        	ldy	#$1
     4a0: a9 fe        	lda	#$fe
     4a2: 32 12        	and	($12)                   ; 0x12 <__rc2>
     4a4: 85 14        	sta	$14                     ; 0x14 <__rc4>
     4a6: ad 7f 4a     	lda	$4a7f                   ; 0x4a7f <_ZN12_GLOBAL__N_19free_sizeE>
     4a9: ae 80 4a     	ldx	$4a80                   ; 0x4a80 <_ZN12_GLOBAL__N_19free_sizeE+0x1>
     4ac: 38           	sec
     4ad: e5 14        	sbc	$14                     ; 0x14 <__rc4>
     4af: 85 17        	sta	$17                     ; 0x17 <__rc7>
     4b1: 8a           	txa
     4b2: f1 12        	sbc	($12),y                 ; 0x12 <__rc2>
     4b4: 85 14        	sta	$14                     ; 0x14 <__rc4>
     4b6: a2 01        	ldx	#$1
     4b8: 86 16        	stx	$16                     ; 0x16 <__rc6>
     4ba: 18           	clc
     4bb: a5 17        	lda	$17                     ; 0x17 <__rc7>
     4bd: 69 02        	adc	#$2
     4bf: 85 15        	sta	$15                     ; 0x15 <__rc5>
     4c1: a5 14        	lda	$14                     ; 0x14 <__rc4>
     4c3: 69 00        	adc	#$0
     4c5: a6 15        	ldx	$15                     ; 0x15 <__rc5>
     4c7: 8e 7f 4a     	stx	$4a7f                   ; 0x4a7f <_ZN12_GLOBAL__N_19free_sizeE>
     4ca: 8d 80 4a     	sta	$4a80                   ; 0x4a80 <_ZN12_GLOBAL__N_19free_sizeE+0x1>
     4cd: a5 12        	lda	$12                     ; 0x12 <__rc2>
     4cf: 18           	clc
     4d0: 69 02        	adc	#$2
     4d2: 85 14        	sta	$14                     ; 0x14 <__rc4>
     4d4: a5 13        	lda	$13                     ; 0x13 <__rc3>
     4d6: 69 00        	adc	#$0
     4d8: c8           	iny
     4d9: 85 15        	sta	$15                     ; 0x15 <__rc5>
     4db: b1 12        	lda	($12),y                 ; 0x12 <__rc2>
     4dd: aa           	tax
     4de: a4 16        	ldy	$16                     ; 0x16 <__rc6>
     4e0: b1 14        	lda	($14),y                 ; 0x14 <__rc4>
     4e2: 85 19        	sta	$19                     ; 0x19 <__rc9>
     4e4: c5 13        	cmp	$13                     ; 0x13 <__rc3>
     4e6: d0 0f        	bne	$4f7 <_ZN12_GLOBAL__N_19FreeChunk6removeEv+0x59>
     4e8: e4 12        	cpx	$12                     ; 0x12 <__rc2>
     4ea: d0 0b        	bne	$4f7 <_ZN12_GLOBAL__N_19FreeChunk6removeEv+0x59>
     4ec: a2 00        	ldx	#$0
     4ee: 86 14        	stx	$14                     ; 0x14 <__rc4>
     4f0: a2 00        	ldx	#$0
     4f2: 86 15        	stx	$15                     ; 0x15 <__rc5>
     4f4: 4c 83 05     	jmp	$583 <_ZN12_GLOBAL__N_19FreeChunk6removeEv+0xe5>
     4f7: 86 18        	stx	$18                     ; 0x18 <__rc8>
     4f9: a6 12        	ldx	$12                     ; 0x12 <__rc2>
     4fb: a5 12        	lda	$12                     ; 0x12 <__rc2>
     4fd: 86 1c        	stx	$1c                     ; 0x1c <__rc12>
     4ff: 18           	clc
     500: 69 04        	adc	#$4
     502: 85 14        	sta	$14                     ; 0x14 <__rc4>
     504: a5 13        	lda	$13                     ; 0x13 <__rc3>
     506: 69 00        	adc	#$0
     508: a0 04        	ldy	#$4
     50a: 85 15        	sta	$15                     ; 0x15 <__rc5>
     50c: b1 12        	lda	($12),y                 ; 0x12 <__rc2>
     50e: 85 1d        	sta	$1d                     ; 0x1d <__rc13>
     510: a2 04        	ldx	#$4
     512: 86 1a        	stx	$1a                     ; 0x1a <__rc10>
     514: 18           	clc
     515: 69 02        	adc	#$2
     517: 85 16        	sta	$16                     ; 0x16 <__rc6>
     519: a0 01        	ldy	#$1
     51b: b1 14        	lda	($14),y                 ; 0x14 <__rc4>
     51d: aa           	tax
     51e: 84 1e        	sty	$1e                     ; 0x1e <__rc14>
     520: 69 00        	adc	#$0
     522: a4 16        	ldy	$16                     ; 0x16 <__rc6>
     524: 84 14        	sty	$14                     ; 0x14 <__rc4>
     526: 85 15        	sta	$15                     ; 0x15 <__rc5>
     528: a4 1d        	ldy	$1d                     ; 0x1d <__rc13>
     52a: 84 16        	sty	$16                     ; 0x16 <__rc6>
     52c: 86 17        	stx	$17                     ; 0x17 <__rc7>
     52e: a5 18        	lda	$18                     ; 0x18 <__rc8>
     530: a0 02        	ldy	#$2
     532: 91 16        	sta	($16),y                 ; 0x16 <__rc6>
     534: 84 16        	sty	$16                     ; 0x16 <__rc6>
     536: a5 19        	lda	$19                     ; 0x19 <__rc9>
     538: a4 1e        	ldy	$1e                     ; 0x1e <__rc14>
     53a: 91 14        	sta	($14),y                 ; 0x14 <__rc4>
     53c: 18           	clc
     53d: a5 1c        	lda	$1c                     ; 0x1c <__rc12>
     53f: 69 02        	adc	#$2
     541: 85 14        	sta	$14                     ; 0x14 <__rc4>
     543: a5 13        	lda	$13                     ; 0x13 <__rc3>
     545: 69 00        	adc	#$0
     547: 85 15        	sta	$15                     ; 0x15 <__rc5>
     549: a4 16        	ldy	$16                     ; 0x16 <__rc6>
     54b: b1 12        	lda	($12),y                 ; 0x12 <__rc2>
     54d: 85 16        	sta	$16                     ; 0x16 <__rc6>
     54f: a4 1e        	ldy	$1e                     ; 0x1e <__rc14>
     551: b1 14        	lda	($14),y                 ; 0x14 <__rc4>
     553: 84 18        	sty	$18                     ; 0x18 <__rc8>
     555: a4 16        	ldy	$16                     ; 0x16 <__rc6>
     557: 84 14        	sty	$14                     ; 0x14 <__rc4>
     559: 85 15        	sta	$15                     ; 0x15 <__rc5>
     55b: 85 17        	sta	$17                     ; 0x17 <__rc7>
     55d: a4 1a        	ldy	$1a                     ; 0x1a <__rc10>
     55f: a5 1d        	lda	$1d                     ; 0x1d <__rc13>
     561: 91 14        	sta	($14),y                 ; 0x14 <__rc4>
     563: 18           	clc
     564: a5 16        	lda	$16                     ; 0x16 <__rc6>
     566: 69 04        	adc	#$4
     568: 85 16        	sta	$16                     ; 0x16 <__rc6>
     56a: a5 17        	lda	$17                     ; 0x17 <__rc7>
     56c: 69 00        	adc	#$0
     56e: 85 17        	sta	$17                     ; 0x17 <__rc7>
     570: 8a           	txa
     571: a4 18        	ldy	$18                     ; 0x18 <__rc8>
     573: 91 16        	sta	($16),y                 ; 0x16 <__rc6>
     575: ae 82 4a     	ldx	$4a82                   ; 0x4a82 <_ZN12_GLOBAL__N_19free_listE+0x1>
     578: e4 13        	cpx	$13                     ; 0x13 <__rc3>
     57a: d0 11        	bne	$58d <_ZN12_GLOBAL__N_19FreeChunk6removeEv+0xef>
     57c: ae 81 4a     	ldx	$4a81                   ; 0x4a81 <_ZN12_GLOBAL__N_19free_listE>
     57f: e4 12        	cpx	$12                     ; 0x12 <__rc2>
     581: d0 0a        	bne	$58d <_ZN12_GLOBAL__N_19FreeChunk6removeEv+0xef>
     583: a6 14        	ldx	$14                     ; 0x14 <__rc4>
     585: a4 15        	ldy	$15                     ; 0x15 <__rc5>
     587: 8e 81 4a     	stx	$4a81                   ; 0x4a81 <_ZN12_GLOBAL__N_19free_listE>
     58a: 8c 82 4a     	sty	$4a82                   ; 0x4a82 <_ZN12_GLOBAL__N_19free_listE+0x1>
     58d: 60           	rts

0000058e <__zero_bss>:
     58e: a2 21        	ldx	#$21
     590: a0 01        	ldy	#$1
     592: a9 62        	lda	#$62
     594: 85 12        	sta	$12                     ; 0x12 <__rc2>
     596: a9 49        	lda	#$49
     598: 85 13        	sta	$13                     ; 0x13 <__rc3>
     59a: a9 00        	lda	#$0
     59c: 84 14        	sty	$14                     ; 0x14 <__rc4>
     59e: 4c ee 43     	jmp	$43ee <__memset>

000005a1 <__zero_zp_bss>:
     5a1: a2 33        	ldx	#$33
     5a3: a0 00        	ldy	#$0
     5a5: a9 61        	lda	#$61
     5a7: 85 12        	sta	$12                     ; 0x12 <__rc2>
     5a9: a9 00        	lda	#$0
     5ab: 85 13        	sta	$13                     ; 0x13 <__rc3>
     5ad: a9 00        	lda	#$0
     5af: 84 14        	sty	$14                     ; 0x14 <__rc4>
     5b1: 4c ee 43     	jmp	$43ee <__memset>

000005b4 <__copy_zp_data>:
     5b4: a9 31        	lda	#$31
     5b6: a2 00        	ldx	#$0
     5b8: a0 30        	ldy	#$30
     5ba: 84 12        	sty	$12                     ; 0x12 <__rc2>
     5bc: a0 00        	ldy	#$0
     5be: 84 13        	sty	$13                     ; 0x13 <__rc3>
     5c0: a0 00        	ldy	#$0
     5c2: 84 14        	sty	$14                     ; 0x14 <__rc4>
     5c4: a0 03        	ldy	#$3
     5c6: 84 15        	sty	$15                     ; 0x15 <__rc5>
     5c8: 4c c2 43     	jmp	$43c2 <memcpy>

000005cb <PEEK24>:
     5cb: 85 05        	sta	$5                      ; 0x5 <__data_size+0x5>
     5cd: 86 06        	stx	$6                      ; 0x6 <__data_size+0x6>
     5cf: a5 12        	lda	$12                     ; 0x12 <__rc2>
     5d1: 85 07        	sta	$7                      ; 0x7 <__data_size+0x7>
     5d3: a6 00        	ldx	$0                      ; 0x0 <__data_size>
     5d5: a4 01        	ldy	$1                      ; 0x1 <__data_size+0x1>
     5d7: 8a           	txa
     5d8: 09 08        	ora	#$8
     5da: 08           	php
     5db: 78           	sei
     5dc: 85 00        	sta	$0                      ; 0x0 <__data_size>
     5de: 98           	tya
     5df: 09 30        	ora	#$30
     5e1: 85 01        	sta	$1                      ; 0x1 <__data_size+0x1>
     5e3: a7 05        	smb	$2,$5                   ; 0x5 <__data_size+0x5>
     5e5: 86 00        	stx	$0                      ; 0x0 <__data_size>
     5e7: 84 01        	sty	$1                      ; 0x1 <__data_size+0x1>
     5e9: 28           	plp
     5ea: a2 00        	ldx	#$0
     5ec: 60           	rts

000005ed <POKE24>:
     5ed: 85 05        	sta	$5                      ; 0x5 <__data_size+0x5>
     5ef: 86 06        	stx	$6                      ; 0x6 <__data_size+0x6>
     5f1: a5 12        	lda	$12                     ; 0x12 <__rc2>
     5f3: 85 07        	sta	$7                      ; 0x7 <__data_size+0x7>
     5f5: a6 00        	ldx	$0                      ; 0x0 <__data_size>
     5f7: a4 01        	ldy	$1                      ; 0x1 <__data_size+0x1>
     5f9: 8a           	txa
     5fa: 09 08        	ora	#$8
     5fc: 08           	php
     5fd: 78           	sei
     5fe: 85 00        	sta	$0                      ; 0x0 <__data_size>
     600: 98           	tya
     601: 09 48        	ora	#$48
     603: 85 01        	sta	$1                      ; 0x1 <__data_size+0x1>
     605: a5 14        	lda	$14                     ; 0x14 <__rc4>
     607: 87 05        	smb	$0,$5                   ; 0x5 <__data_size+0x5>
     609: 86 00        	stx	$0                      ; 0x0 <__data_size>
     60b: 84 01        	sty	$1                      ; 0x1 <__data_size+0x1>
     60d: 28           	plp
     60e: a2 00        	ldx	#$0
     610: 60           	rts

00000611 <main>:
     611: 18           	clc
     612: a5 10        	lda	$10                     ; 0x10 <__rc0>
     614: 69 dd        	adc	#$dd
     616: 85 10        	sta	$10                     ; 0x10 <__rc0>
     618: a5 11        	lda	$11                     ; 0x11 <__rc1>
     61a: 69 ff        	adc	#$ff
     61c: 85 11        	sta	$11                     ; 0x11 <__rc1>
     61e: a6 24        	ldx	$24                     ; 0x24 <__rc20>
     620: da           	phx
     621: a6 25        	ldx	$25                     ; 0x25 <__rc21>
     623: da           	phx
     624: a6 26        	ldx	$26                     ; 0x26 <__rc22>
     626: da           	phx
     627: a6 27        	ldx	$27                     ; 0x27 <__rc23>
     629: da           	phx
     62a: a5 28        	lda	$28                     ; 0x28 <__rc24>
     62c: a0 07        	ldy	#$7
     62e: 91 10        	sta	($10),y                 ; 0x10 <__rc0>
     630: a5 29        	lda	$29                     ; 0x29 <__rc25>
     632: 88           	dey
     633: 91 10        	sta	($10),y                 ; 0x10 <__rc0>
     635: a5 2a        	lda	$2a                     ; 0x2a <__rc26>
     637: 88           	dey
     638: 91 10        	sta	($10),y                 ; 0x10 <__rc0>
     63a: a5 2b        	lda	$2b                     ; 0x2b <__rc27>
     63c: 88           	dey
     63d: 91 10        	sta	($10),y                 ; 0x10 <__rc0>
     63f: a5 2c        	lda	$2c                     ; 0x2c <__rc28>
     641: 88           	dey
     642: 91 10        	sta	($10),y                 ; 0x10 <__rc0>
     644: a5 2d        	lda	$2d                     ; 0x2d <__rc29>
     646: 88           	dey
     647: 91 10        	sta	($10),y                 ; 0x10 <__rc0>
     649: a5 2e        	lda	$2e                     ; 0x2e <__rc30>
     64b: 88           	dey
     64c: 91 10        	sta	($10),y                 ; 0x10 <__rc0>
     64e: a5 2f        	lda	$2f                     ; 0x2f <__rc31>
     650: 88           	dey
     651: 91 10        	sta	($10),y                 ; 0x10 <__rc0>
     653: 64 1a        	stz	$1a                     ; 0x1a <__rc10>
     655: a2 00        	ldx	#$0
     657: 86 18        	stx	$18                     ; 0x18 <__rc8>
     659: a2 d0        	ldx	#$d0
     65b: 86 19        	stx	$19                     ; 0x19 <__rc9>
     65d: a2 00        	ldx	#$0
     65f: 86 14        	stx	$14                     ; 0x14 <__rc4>
     661: a2 d8        	ldx	#$d8
     663: 86 15        	stx	$15                     ; 0x15 <__rc5>
     665: a2 00        	ldx	#$0
     667: a0 10        	ldy	#$10
     669: a9 84        	lda	#$84
     66b: 86 12        	stx	$12                     ; 0x12 <__rc2>
     66d: 84 13        	sty	$13                     ; 0x13 <__rc3>
     66f: 18           	clc
     670: 65 12        	adc	$12                     ; 0x12 <__rc2>
     672: a0 09        	ldy	#$9
     674: 91 10        	sta	($10),y                 ; 0x10 <__rc0>
     676: a9 4a        	lda	#$4a
     678: 65 13        	adc	$13                     ; 0x13 <__rc3>
     67a: 88           	dey
     67b: 91 10        	sta	($10),y                 ; 0x10 <__rc0>
     67d: a2 00        	ldx	#$0
     67f: 86 16        	stx	$16                     ; 0x16 <__rc6>
     681: a2 d4        	ldx	#$d4
     683: 86 17        	stx	$17                     ; 0x17 <__rc7>
     685: a2 00        	ldx	#$0
     687: 86 12        	stx	$12                     ; 0x12 <__rc2>
     689: a2 dc        	ldx	#$dc
     68b: 86 13        	stx	$13                     ; 0x13 <__rc3>
     68d: a2 00        	ldx	#$0
     68f: 86 1c        	stx	$1c                     ; 0x1c <__rc12>
     691: a2 c0        	ldx	#$c0
     693: 86 1d        	stx	$1d                     ; 0x1d <__rc13>
     695: 64 01        	stz	$1                      ; 0x1 <__data_size+0x1>
     697: a2 3f        	ldx	#$3f
     699: 8e 00 d0     	stx	$d000                   ; 0xd000 <__heap_start+0x857c>
     69c: a2 b3        	ldx	#$b3
     69e: 86 00        	stx	$0                      ; 0x0 <__data_size>
     6a0: 64 08        	stz	$8                      ; 0x8 <__data_size+0x8>
     6a2: a2 01        	ldx	#$1
     6a4: 86 09        	stx	$9                      ; 0x9 <__data_size+0x9>
     6a6: e8           	inx
     6a7: 86 0a        	stx	$a                      ; 0xa <__data_size+0xa>
     6a9: e8           	inx
     6aa: 86 0b        	stx	$b                      ; 0xb <__data_size+0xb>
     6ac: e8           	inx
     6ad: 86 0c        	stx	$c                      ; 0xc <__data_size+0xc>
     6af: e8           	inx
     6b0: 86 0d        	stx	$d                      ; 0xd <__data_size+0xd>
     6b2: a2 71        	ldx	#$71
     6b4: a9 00        	lda	#$0
     6b6: 86 f0        	stx	$f0                     ; 0xf0 <__pal_size+0x70>
     6b8: 85 f1        	sta	$f1                     ; 0xf1 <__pal_size+0x71>
     6ba: a6 01        	ldx	$1                      ; 0x1 <__data_size+0x1>
     6bc: a0 01        	ldy	#$1
     6be: 84 01        	sty	$1                      ; 0x1 <__data_size+0x1>
     6c0: a5 1a        	lda	$1a                     ; 0x1a <__rc10>
     6c2: 92 18        	sta	($18)                   ; 0x18 <__rc8>
     6c4: 91 18        	sta	($18),y                 ; 0x18 <__rc8>
     6c6: c8           	iny
     6c7: 91 18        	sta	($18),y                 ; 0x18 <__rc8>
     6c9: c8           	iny
     6ca: a9 ff        	lda	#$ff
     6cc: 91 18        	sta	($18),y                 ; 0x18 <__rc8>
     6ce: 86 01        	stx	$1                      ; 0x1 <__data_size+0x1>
     6d0: a5 18        	lda	$18                     ; 0x18 <__rc8>
     6d2: 18           	clc
     6d3: 69 04        	adc	#$4
     6d5: 85 18        	sta	$18                     ; 0x18 <__rc8>
     6d7: a5 19        	lda	$19                     ; 0x19 <__rc9>
     6d9: 69 00        	adc	#$0
     6db: e6 1a        	inc	$1a                     ; 0x1a <__rc10>
     6dd: 85 19        	sta	$19                     ; 0x19 <__rc9>
     6df: d0 d9        	bne	$6ba <main+0xa9>
     6e1: a9 00        	lda	#$0
     6e3: a6 01        	ldx	$1                      ; 0x1 <__data_size+0x1>
     6e5: a0 01        	ldy	#$1
     6e7: 84 01        	sty	$1                      ; 0x1 <__data_size+0x1>
     6e9: 92 16        	sta	($16)                   ; 0x16 <__rc6>
     6eb: 91 16        	sta	($16),y                 ; 0x16 <__rc6>
     6ed: c8           	iny
     6ee: 91 16        	sta	($16),y                 ; 0x16 <__rc6>
     6f0: c8           	iny
     6f1: 85 18        	sta	$18                     ; 0x18 <__rc8>
     6f3: a9 ff        	lda	#$ff
     6f5: 91 16        	sta	($16),y                 ; 0x16 <__rc6>
     6f7: 86 01        	stx	$1                      ; 0x1 <__data_size+0x1>
     6f9: a5 16        	lda	$16                     ; 0x16 <__rc6>
     6fb: 18           	clc
     6fc: 69 04        	adc	#$4
     6fe: 85 16        	sta	$16                     ; 0x16 <__rc6>
     700: a5 17        	lda	$17                     ; 0x17 <__rc7>
     702: 69 00        	adc	#$0
     704: e6 18        	inc	$18                     ; 0x18 <__rc8>
     706: 85 17        	sta	$17                     ; 0x17 <__rc7>
     708: a5 18        	lda	$18                     ; 0x18 <__rc8>
     70a: d0 d7        	bne	$6e3 <main+0xd2>
     70c: a9 00        	lda	#$0
     70e: a6 01        	ldx	$1                      ; 0x1 <__data_size+0x1>
     710: a0 01        	ldy	#$1
     712: 84 01        	sty	$1                      ; 0x1 <__data_size+0x1>
     714: 92 14        	sta	($14)                   ; 0x14 <__rc4>
     716: 91 14        	sta	($14),y                 ; 0x14 <__rc4>
     718: c8           	iny
     719: 91 14        	sta	($14),y                 ; 0x14 <__rc4>
     71b: c8           	iny
     71c: 85 16        	sta	$16                     ; 0x16 <__rc6>
     71e: a9 ff        	lda	#$ff
     720: 91 14        	sta	($14),y                 ; 0x14 <__rc4>
     722: 86 01        	stx	$1                      ; 0x1 <__data_size+0x1>
     724: a5 14        	lda	$14                     ; 0x14 <__rc4>
     726: 18           	clc
     727: 69 04        	adc	#$4
     729: 85 14        	sta	$14                     ; 0x14 <__rc4>
     72b: a5 15        	lda	$15                     ; 0x15 <__rc5>
     72d: 69 00        	adc	#$0
     72f: e6 16        	inc	$16                     ; 0x16 <__rc6>
     731: 85 15        	sta	$15                     ; 0x15 <__rc5>
     733: a5 16        	lda	$16                     ; 0x16 <__rc6>
     735: d0 d7        	bne	$70e <main+0xfd>
     737: a9 00        	lda	#$0
     739: a6 01        	ldx	$1                      ; 0x1 <__data_size+0x1>
     73b: a0 01        	ldy	#$1
     73d: 84 01        	sty	$1                      ; 0x1 <__data_size+0x1>
     73f: 92 12        	sta	($12)                   ; 0x12 <__rc2>
     741: 91 12        	sta	($12),y                 ; 0x12 <__rc2>
     743: c8           	iny
     744: 91 12        	sta	($12),y                 ; 0x12 <__rc2>
     746: c8           	iny
     747: 85 14        	sta	$14                     ; 0x14 <__rc4>
     749: a9 ff        	lda	#$ff
     74b: 91 12        	sta	($12),y                 ; 0x12 <__rc2>
     74d: 86 01        	stx	$1                      ; 0x1 <__data_size+0x1>
     74f: a5 12        	lda	$12                     ; 0x12 <__rc2>
     751: 18           	clc
     752: 69 04        	adc	#$4
     754: 85 12        	sta	$12                     ; 0x12 <__rc2>
     756: a5 13        	lda	$13                     ; 0x13 <__rc3>
     758: 69 00        	adc	#$0
     75a: e6 14        	inc	$14                     ; 0x14 <__rc4>
     75c: 85 13        	sta	$13                     ; 0x13 <__rc3>
     75e: a5 14        	lda	$14                     ; 0x14 <__rc4>
     760: d0 d7        	bne	$739 <main+0x128>
     762: ad 02 d0     	lda	$d002                   ; 0xd002 <__heap_start+0x857e>
     765: 29 f0        	and	#$f0
     767: 8d 02 d0     	sta	$d002                   ; 0xd002 <__heap_start+0x857e>
     76a: ad 02 d0     	lda	$d002                   ; 0xd002 <__heap_start+0x857e>
     76d: 29 0f        	and	#$f
     76f: 09 10        	ora	#$10
     771: 8d 02 d0     	sta	$d002                   ; 0xd002 <__heap_start+0x857e>
     774: a2 02        	ldx	#$2
     776: 8e 03 d0     	stx	$d003                   ; 0xd003 <__heap_start+0x857f>
     779: ad 01 d0     	lda	$d001                   ; 0xd001 <__heap_start+0x857d>
     77c: 29 f9        	and	#$f9
     77e: 09 04        	ora	#$4
     780: 8d 01 d0     	sta	$d001                   ; 0xd001 <__heap_start+0x857d>
     783: 64 12        	stz	$12                     ; 0x12 <__rc2>
     785: 9c 10 d0     	stz	$d010                   ; 0xd010 <__heap_start+0x858c>
     788: a2 00        	ldx	#$0
     78a: 64 13        	stz	$13                     ; 0x13 <__rc3>
     78c: 86 16        	stx	$16                     ; 0x16 <__rc6>
     78e: a4 16        	ldy	$16                     ; 0x16 <__rc6>
     790: b6 30        	ldx	$30,y                   ; 0x30 <textColors>
     792: 86 17        	stx	$17                     ; 0x17 <__rc7>
     794: b6 31        	ldx	$31,y                   ; 0x31 <textColors+0x1>
     796: 86 18        	stx	$18                     ; 0x18 <__rc8>
     798: b6 32        	ldx	$32,y                   ; 0x32 <textColors+0x2>
     79a: 86 19        	stx	$19                     ; 0x19 <__rc9>
     79c: a6 13        	ldx	$13                     ; 0x13 <__rc3>
     79e: 8e 00 de     	stx	$de00                   ; 0xde00 <__heap_start+0x937c>
     7a1: 86 15        	stx	$15                     ; 0x15 <__rc5>
     7a3: 9c 01 de     	stz	$de01                   ; 0xde01 <__heap_start+0x937d>
     7a6: a2 04        	ldx	#$4
     7a8: 8e 02 de     	stx	$de02                   ; 0xde02 <__heap_start+0x937e>
     7ab: 86 1b        	stx	$1b                     ; 0x1b <__rc11>
     7ad: 9c 03 de     	stz	$de03                   ; 0xde03 <__heap_start+0x937f>
     7b0: ad 10 de     	lda	$de10                   ; 0xde10 <__heap_start+0x938c>
     7b3: ac 11 de     	ldy	$de11                   ; 0xde11 <__heap_start+0x938d>
     7b6: 84 13        	sty	$13                     ; 0x13 <__rc3>
     7b8: ac 12 de     	ldy	$de12                   ; 0xde12 <__heap_start+0x938e>
     7bb: ac 13 de     	ldy	$de13                   ; 0xde13 <__heap_start+0x938f>
     7be: a2 00        	ldx	#$0
     7c0: 18           	clc
     7c1: 65 12        	adc	$12                     ; 0x12 <__rc2>
     7c3: a8           	tay
     7c4: 86 1f        	stx	$1f                     ; 0x1f <__rc15>
     7c6: a6 15        	ldx	$15                     ; 0x15 <__rc5>
     7c8: a9 d8        	lda	#$d8
     7ca: 65 13        	adc	$13                     ; 0x13 <__rc3>
     7cc: 84 14        	sty	$14                     ; 0x14 <__rc4>
     7ce: 85 15        	sta	$15                     ; 0x15 <__rc5>
     7d0: a5 19        	lda	$19                     ; 0x19 <__rc9>
     7d2: 92 14        	sta	($14)                   ; 0x14 <__rc4>
     7d4: a0 01        	ldy	#$1
     7d6: a5 18        	lda	$18                     ; 0x18 <__rc8>
     7d8: 91 14        	sta	($14),y                 ; 0x14 <__rc4>
     7da: 84 1a        	sty	$1a                     ; 0x1a <__rc10>
     7dc: c8           	iny
     7dd: a5 17        	lda	$17                     ; 0x17 <__rc7>
     7df: 91 14        	sta	($14),y                 ; 0x14 <__rc4>
     7e1: 84 1e        	sty	$1e                     ; 0x1e <__rc14>
     7e3: c8           	iny
     7e4: a9 ff        	lda	#$ff
     7e6: 91 14        	sta	($14),y                 ; 0x14 <__rc4>
     7e8: 85 23        	sta	$23                     ; 0x23 <__rc19>
     7ea: 84 22        	sty	$22                     ; 0x22 <__rc18>
     7ec: 8e 00 de     	stx	$de00                   ; 0xde00 <__heap_start+0x937c>
     7ef: 9c 01 de     	stz	$de01                   ; 0xde01 <__heap_start+0x937d>
     7f2: a4 1b        	ldy	$1b                     ; 0x1b <__rc11>
     7f4: 8c 02 de     	sty	$de02                   ; 0xde02 <__heap_start+0x937e>
     7f7: 9c 03 de     	stz	$de03                   ; 0xde03 <__heap_start+0x937f>
     7fa: ad 10 de     	lda	$de10                   ; 0xde10 <__heap_start+0x938c>
     7fd: 85 13        	sta	$13                     ; 0x13 <__rc3>
     7ff: ad 11 de     	lda	$de11                   ; 0xde11 <__heap_start+0x938d>
     802: 85 14        	sta	$14                     ; 0x14 <__rc4>
     804: a9 40        	lda	#$40
     806: a4 1f        	ldy	$1f                     ; 0x1f <__rc15>
     808: c0 01        	cpy	#$1
     80a: 65 13        	adc	$13                     ; 0x13 <__rc3>
     80c: a8           	tay
     80d: a9 d8        	lda	#$d8
     80f: 65 14        	adc	$14                     ; 0x14 <__rc4>
     811: 85 15        	sta	$15                     ; 0x15 <__rc5>
     813: 84 14        	sty	$14                     ; 0x14 <__rc4>
     815: ad 12 de     	lda	$de12                   ; 0xde12 <__heap_start+0x938e>
     818: ad 13 de     	lda	$de13                   ; 0xde13 <__heap_start+0x938f>
     81b: a5 19        	lda	$19                     ; 0x19 <__rc9>
     81d: 92 14        	sta	($14)                   ; 0x14 <__rc4>
     81f: a5 18        	lda	$18                     ; 0x18 <__rc8>
     821: a4 1a        	ldy	$1a                     ; 0x1a <__rc10>
     823: 91 14        	sta	($14),y                 ; 0x14 <__rc4>
     825: a5 17        	lda	$17                     ; 0x17 <__rc7>
     827: a4 1e        	ldy	$1e                     ; 0x1e <__rc14>
     829: 91 14        	sta	($14),y                 ; 0x14 <__rc4>
     82b: a4 22        	ldy	$22                     ; 0x22 <__rc18>
     82d: a5 23        	lda	$23                     ; 0x23 <__rc19>
     82f: 91 14        	sta	($14),y                 ; 0x14 <__rc4>
     831: e8           	inx
     832: 86 13        	stx	$13                     ; 0x13 <__rc3>
     834: 18           	clc
     835: a5 16        	lda	$16                     ; 0x16 <__rc6>
     837: 69 03        	adc	#$3
     839: aa           	tax
     83a: c9 30        	cmp	#$30
     83c: f0 03        	beq	$841 <main+0x230>
     83e: 4c 8c 07     	jmp	$78c <main+0x17b>
     841: a6 01        	ldx	$1                      ; 0x1 <__data_size+0x1>
     843: 86 16        	stx	$16                     ; 0x16 <__rc6>
     845: a2 50        	ldx	#$50
     847: 8e 00 de     	stx	$de00                   ; 0xde00 <__heap_start+0x937c>
     84a: 9c 01 de     	stz	$de01                   ; 0xde01 <__heap_start+0x937d>
     84d: a2 1e        	ldx	#$1e
     84f: 8e 02 de     	stx	$de02                   ; 0xde02 <__heap_start+0x937e>
     852: 9c 03 de     	stz	$de03                   ; 0xde03 <__heap_start+0x937f>
     855: ae 10 de     	ldx	$de10                   ; 0xde10 <__heap_start+0x938c>
     858: ac 11 de     	ldy	$de11                   ; 0xde11 <__heap_start+0x938d>
     85b: ad 12 de     	lda	$de12                   ; 0xde12 <__heap_start+0x938e>
     85e: ad 13 de     	lda	$de13                   ; 0xde13 <__heap_start+0x938f>
     861: a9 02        	lda	#$2
     863: 85 01        	sta	$1                      ; 0x1 <__data_size+0x1>
     865: e0 01        	cpx	#$1
     867: 98           	tya
     868: e9 00        	sbc	#$0
     86a: 50 02        	bvc	$86e <main+0x25d>
     86c: 49 80        	eor	#$80
     86e: c9 00        	cmp	#$0
     870: 10 03        	bpl	$875 <main+0x264>
     872: 4c cd 08     	jmp	$8cd <main+0x2bc>
     875: a9 20        	lda	#$20
     877: 86 17        	stx	$17                     ; 0x17 <__rc7>
     879: 86 12        	stx	$12                     ; 0x12 <__rc2>
     87b: 84 13        	sty	$13                     ; 0x13 <__rc3>
     87d: a2 00        	ldx	#$0
     87f: 86 14        	stx	$14                     ; 0x14 <__rc4>
     881: a2 c0        	ldx	#$c0
     883: 86 15        	stx	$15                     ; 0x15 <__rc5>
     885: 80 04        	bra	$88b <main+0x27a>
     887: a6 13        	ldx	$13                     ; 0x13 <__rc3>
     889: f0 14        	beq	$89f <main+0x28e>
     88b: 92 14        	sta	($14)                   ; 0x14 <__rc4>
     88d: e6 14        	inc	$14                     ; 0x14 <__rc4>
     88f: d0 02        	bne	$893 <main+0x282>
     891: e6 15        	inc	$15                     ; 0x15 <__rc5>
     893: a2 ff        	ldx	#$ff
     895: c6 12        	dec	$12                     ; 0x12 <__rc2>
     897: e4 12        	cpx	$12                     ; 0x12 <__rc2>
     899: d0 ec        	bne	$887 <main+0x276>
     89b: c6 13        	dec	$13                     ; 0x13 <__rc3>
     89d: 80 e8        	bra	$887 <main+0x276>
     89f: a6 12        	ldx	$12                     ; 0x12 <__rc2>
     8a1: d0 e8        	bne	$88b <main+0x27a>
     8a3: a2 03        	ldx	#$3
     8a5: 86 01        	stx	$1                      ; 0x1 <__data_size+0x1>
     8a7: a6 17        	ldx	$17                     ; 0x17 <__rc7>
     8a9: a9 00        	lda	#$0
     8ab: 85 12        	sta	$12                     ; 0x12 <__rc2>
     8ad: a9 c0        	lda	#$c0
     8af: 85 13        	sta	$13                     ; 0x13 <__rc3>
     8b1: 80 03        	bra	$8b6 <main+0x2a5>
     8b3: 98           	tya
     8b4: f0 12        	beq	$8c8 <main+0x2b7>
     8b6: a9 f0        	lda	#$f0
     8b8: 92 12        	sta	($12)                   ; 0x12 <__rc2>
     8ba: e6 12        	inc	$12                     ; 0x12 <__rc2>
     8bc: d0 02        	bne	$8c0 <main+0x2af>
     8be: e6 13        	inc	$13                     ; 0x13 <__rc3>
     8c0: ca           	dex
     8c1: e0 ff        	cpx	#$ff
     8c3: d0 ee        	bne	$8b3 <main+0x2a2>
     8c5: 88           	dey
     8c6: 80 eb        	bra	$8b3 <main+0x2a2>
     8c8: 8a           	txa
     8c9: d0 eb        	bne	$8b6 <main+0x2a5>
     8cb: 80 04        	bra	$8d1 <main+0x2c0>
     8cd: a2 03        	ldx	#$3
     8cf: 86 01        	stx	$1                      ; 0x1 <__data_size+0x1>
     8d1: a6 16        	ldx	$16                     ; 0x16 <__rc6>
     8d3: 86 01        	stx	$1                      ; 0x1 <__data_size+0x1>
     8d5: 64 61        	stz	$61                     ; 0x61 <_col>
     8d7: 9c 14 d0     	stz	$d014                   ; 0xd014 <__heap_start+0x8590>
     8da: 9c 15 d0     	stz	$d015                   ; 0xd015 <__heap_start+0x8591>
     8dd: 64 62        	stz	$62                     ; 0x62 <_row>
     8df: 9c 16 d0     	stz	$d016                   ; 0xd016 <__heap_start+0x8592>
     8e2: 9c 17 d0     	stz	$d017                   ; 0xd017 <__heap_start+0x8593>
     8e5: a2 40        	ldx	#$40
     8e7: 8e 00 de     	stx	$de00                   ; 0xde00 <__heap_start+0x937c>
     8ea: a0 01        	ldy	#$1
     8ec: 8c 01 de     	sty	$de01                   ; 0xde01 <__heap_start+0x937d>
     8ef: a2 f0        	ldx	#$f0
     8f1: 8e 02 de     	stx	$de02                   ; 0xde02 <__heap_start+0x937e>
     8f4: 9c 03 de     	stz	$de03                   ; 0xde03 <__heap_start+0x937f>
     8f7: ae 10 de     	ldx	$de10                   ; 0xde10 <__heap_start+0x938c>
     8fa: 86 17        	stx	$17                     ; 0x17 <__rc7>
     8fc: ae 11 de     	ldx	$de11                   ; 0xde11 <__heap_start+0x938d>
     8ff: 86 12        	stx	$12                     ; 0x12 <__rc2>
     901: ae 12 de     	ldx	$de12                   ; 0xde12 <__heap_start+0x938e>
     904: 86 13        	stx	$13                     ; 0x13 <__rc3>
     906: ae 13 de     	ldx	$de13                   ; 0xde13 <__heap_start+0x938f>
     909: 86 14        	stx	$14                     ; 0x14 <__rc4>
     90b: 64 63        	stz	$63                     ; 0x63 <_active>
     90d: 84 64        	sty	$64                     ; 0x64 <_color>
     90f: a4 12        	ldy	$12                     ; 0x12 <__rc2>
     911: 84 15        	sty	$15                     ; 0x15 <__rc5>
     913: 06 15        	asl	$15                     ; 0x15 <__rc5>
     915: a5 13        	lda	$13                     ; 0x13 <__rc3>
     917: 2a           	rol
     918: 86 16        	stx	$16                     ; 0x16 <__rc6>
     91a: 26 16        	rol	$16                     ; 0x16 <__rc6>
     91c: 06 15        	asl	$15                     ; 0x15 <__rc5>
     91e: 2a           	rol
     91f: 26 16        	rol	$16                     ; 0x16 <__rc6>
     921: 06 15        	asl	$15                     ; 0x15 <__rc5>
     923: 2a           	rol
     924: 26 16        	rol	$16                     ; 0x16 <__rc6>
     926: 85 15        	sta	$15                     ; 0x15 <__rc5>
     928: 8d 00 de     	sta	$de00                   ; 0xde00 <__heap_start+0x937c>
     92b: a5 16        	lda	$16                     ; 0x16 <__rc6>
     92d: 8d 01 de     	sta	$de01                   ; 0xde01 <__heap_start+0x937d>
     930: 9c 02 de     	stz	$de02                   ; 0xde02 <__heap_start+0x937e>
     933: a2 20        	ldx	#$20
     935: 8e 03 de     	stx	$de03                   ; 0xde03 <__heap_start+0x937f>
     938: ae 10 de     	ldx	$de10                   ; 0xde10 <__heap_start+0x938c>
     93b: 86 16        	stx	$16                     ; 0x16 <__rc6>
     93d: ae 11 de     	ldx	$de11                   ; 0xde11 <__heap_start+0x938d>
     940: 86 18        	stx	$18                     ; 0x18 <__rc8>
     942: ac 12 de     	ldy	$de12                   ; 0xde12 <__heap_start+0x938e>
     945: ae 13 de     	ldx	$de13                   ; 0xde13 <__heap_start+0x938f>
     948: e4 14        	cpx	$14                     ; 0x14 <__rc4>
     94a: d0 14        	bne	$960 <main+0x34f>
     94c: c4 13        	cpy	$13                     ; 0x13 <__rc3>
     94e: d0 10        	bne	$960 <main+0x34f>
     950: a6 18        	ldx	$18                     ; 0x18 <__rc8>
     952: e4 12        	cpx	$12                     ; 0x12 <__rc2>
     954: d0 0a        	bne	$960 <main+0x34f>
     956: a6 16        	ldx	$16                     ; 0x16 <__rc6>
     958: e4 17        	cpx	$17                     ; 0x17 <__rc7>
     95a: d0 04        	bne	$960 <main+0x34f>
     95c: a6 15        	ldx	$15                     ; 0x15 <__rc5>
     95e: 80 06        	bra	$966 <main+0x355>
     960: a6 15        	ldx	$15                     ; 0x15 <__rc5>
     962: e8           	inx
     963: d0 01        	bne	$966 <main+0x355>
     965: 1a           	inc
     966: 8e 00 de     	stx	$de00                   ; 0xde00 <__heap_start+0x937c>
     969: 8d 01 de     	sta	$de01                   ; 0xde01 <__heap_start+0x937d>
     96c: 9c 02 de     	stz	$de02                   ; 0xde02 <__heap_start+0x937e>
     96f: a2 20        	ldx	#$20
     971: 8e 03 de     	stx	$de03                   ; 0xde03 <__heap_start+0x937f>
     974: ae 10 de     	ldx	$de10                   ; 0xde10 <__heap_start+0x938c>
     977: 86 12        	stx	$12                     ; 0x12 <__rc2>
     979: ae 11 de     	ldx	$de11                   ; 0xde11 <__heap_start+0x938d>
     97c: 86 13        	stx	$13                     ; 0x13 <__rc3>
     97e: ae 12 de     	ldx	$de12                   ; 0xde12 <__heap_start+0x938e>
     981: 86 14        	stx	$14                     ; 0x14 <__rc4>
     983: ae 13 de     	ldx	$de13                   ; 0xde13 <__heap_start+0x938f>
     986: 86 15        	stx	$15                     ; 0x15 <__rc5>
     988: a9 00        	lda	#$0
     98a: 38           	sec
     98b: e5 12        	sbc	$12                     ; 0x12 <__rc2>
     98d: 85 1a        	sta	$1a                     ; 0x1a <__rc10>
     98f: a9 00        	lda	#$0
     991: e5 13        	sbc	$13                     ; 0x13 <__rc3>
     993: aa           	tax
     994: a9 08        	lda	#$8
     996: e5 14        	sbc	$14                     ; 0x14 <__rc4>
     998: 85 19        	sta	$19                     ; 0x19 <__rc9>
     99a: a9 00        	lda	#$0
     99c: e5 15        	sbc	$15                     ; 0x15 <__rc5>
     99e: 85 16        	sta	$16                     ; 0x16 <__rc6>
     9a0: da           	phx
     9a1: 7a           	ply
     9a2: 8e 63 49     	stx	$4963                   ; 0x4963 <__bss_start+0x1>
     9a5: a6 19        	ldx	$19                     ; 0x19 <__rc9>
     9a7: 8e 64 49     	stx	$4964                   ; 0x4964 <__bss_start+0x2>
     9aa: 8d 65 49     	sta	$4965                   ; 0x4965 <__bss_start+0x3>
     9ad: 38           	sec
     9ae: a5 1a        	lda	$1a                     ; 0x1a <__rc10>
     9b0: e5 12        	sbc	$12                     ; 0x12 <__rc2>
     9b2: 85 17        	sta	$17                     ; 0x17 <__rc7>
     9b4: 98           	tya
     9b5: e5 13        	sbc	$13                     ; 0x13 <__rc3>
     9b7: 85 18        	sta	$18                     ; 0x18 <__rc8>
     9b9: a5 19        	lda	$19                     ; 0x19 <__rc9>
     9bb: e5 14        	sbc	$14                     ; 0x14 <__rc4>
     9bd: a8           	tay
     9be: a5 16        	lda	$16                     ; 0x16 <__rc6>
     9c0: e5 15        	sbc	$15                     ; 0x15 <__rc5>
     9c2: 85 16        	sta	$16                     ; 0x16 <__rc6>
     9c4: 38           	sec
     9c5: a6 17        	ldx	$17                     ; 0x17 <__rc7>
     9c7: 8e 66 49     	stx	$4966                   ; 0x4966 <__bss_start+0x4>
     9ca: a6 18        	ldx	$18                     ; 0x18 <__rc8>
     9cc: 8e 67 49     	stx	$4967                   ; 0x4967 <__bss_start+0x5>
     9cf: 8c 68 49     	sty	$4968                   ; 0x4968 <__bss_start+0x6>
     9d2: 8d 69 49     	sta	$4969                   ; 0x4969 <__bss_start+0x7>
     9d5: a5 17        	lda	$17                     ; 0x17 <__rc7>
     9d7: e5 12        	sbc	$12                     ; 0x12 <__rc2>
     9d9: 85 17        	sta	$17                     ; 0x17 <__rc7>
     9db: a5 18        	lda	$18                     ; 0x18 <__rc8>
     9dd: e5 13        	sbc	$13                     ; 0x13 <__rc3>
     9df: 85 13        	sta	$13                     ; 0x13 <__rc3>
     9e1: 98           	tya
     9e2: e5 14        	sbc	$14                     ; 0x14 <__rc4>
     9e4: aa           	tax
     9e5: a5 16        	lda	$16                     ; 0x16 <__rc6>
     9e7: e5 15        	sbc	$15                     ; 0x15 <__rc5>
     9e9: 85 12        	sta	$12                     ; 0x12 <__rc2>
     9eb: a5 17        	lda	$17                     ; 0x17 <__rc7>
     9ed: 8d 6a 49     	sta	$496a                   ; 0x496a <__bss_start+0x8>
     9f0: a5 13        	lda	$13                     ; 0x13 <__rc3>
     9f2: 8d 6b 49     	sta	$496b                   ; 0x496b <__bss_start+0x9>
     9f5: a4 1a        	ldy	$1a                     ; 0x1a <__rc10>
     9f7: 8c 62 49     	sty	$4962                   ; 0x4962 <__bss_start>
     9fa: 8e 6c 49     	stx	$496c                   ; 0x496c <__bss_start+0xa>
     9fd: a6 12        	ldx	$12                     ; 0x12 <__rc2>
     9ff: 8e 6d 49     	stx	$496d                   ; 0x496d <__bss_start+0xb>
     a02: 8c 01 d1     	sty	$d101                   ; 0xd101 <__heap_start+0x867d>
     a05: ae 63 49     	ldx	$4963                   ; 0x4963 <__bss_start+0x1>
     a08: 8e 02 d1     	stx	$d102                   ; 0xd102 <__heap_start+0x867e>
     a0b: ae 64 49     	ldx	$4964                   ; 0x4964 <__bss_start+0x2>
     a0e: 8e 03 d1     	stx	$d103                   ; 0xd103 <__heap_start+0x867f>
     a11: ae 66 49     	ldx	$4966                   ; 0x4966 <__bss_start+0x4>
     a14: 8e 09 d1     	stx	$d109                   ; 0xd109 <__heap_start+0x8685>
     a17: ae 67 49     	ldx	$4967                   ; 0x4967 <__bss_start+0x5>
     a1a: 8e 0a d1     	stx	$d10a                   ; 0xd10a <__heap_start+0x8686>
     a1d: ae 68 49     	ldx	$4968                   ; 0x4968 <__bss_start+0x6>
     a20: 8e 0b d1     	stx	$d10b                   ; 0xd10b <__heap_start+0x8687>
     a23: ae 6a 49     	ldx	$496a                   ; 0x496a <__bss_start+0x8>
     a26: 8e 11 d1     	stx	$d111                   ; 0xd111 <__heap_start+0x868d>
     a29: ae 6b 49     	ldx	$496b                   ; 0x496b <__bss_start+0x9>
     a2c: 8e 12 d1     	stx	$d112                   ; 0xd112 <__heap_start+0x868e>
     a2f: ae 6c 49     	ldx	$496c                   ; 0x496c <__bss_start+0xa>
     a32: 8e 13 d1     	stx	$d113                   ; 0xd113 <__heap_start+0x868f>
     a35: 9c 00 d1     	stz	$d100                   ; 0xd100 <__heap_start+0x867c>
     a38: 9c 08 d1     	stz	$d108                   ; 0xd108 <__heap_start+0x8684>
     a3b: 9c 10 d1     	stz	$d110                   ; 0xd110 <__heap_start+0x868c>
     a3e: a2 01        	ldx	#$1
     a40: 86 65        	stx	$65                     ; 0x65 <_tileSize.1>
     a42: 86 66        	stx	$66                     ; 0x66 <_tileSize.2>
     a44: a2 10        	ldx	#$10
     a46: 8e 00 d2     	stx	$d200                   ; 0xd200 <__heap_start+0x877c>
     a49: a5 65        	lda	$65                     ; 0x65 <_tileSize.1>
     a4b: 29 01        	and	#$1
     a4d: a0 10        	ldy	#$10
     a4f: c9 00        	cmp	#$0
     a51: d0 02        	bne	$a55 <main+0x444>
     a53: a0 00        	ldy	#$0
     a55: 8c 0c d2     	sty	$d20c                   ; 0xd20c <__heap_start+0x8788>
     a58: a5 66        	lda	$66                     ; 0x66 <_tileSize.2>
     a5a: 29 01        	and	#$1
     a5c: d0 02        	bne	$a60 <main+0x44f>
     a5e: a2 00        	ldx	#$0
     a60: 8e 18 d2     	stx	$d218                   ; 0xd218 <__heap_start+0x8794>
     a63: a0 d9        	ldy	#$d9
     a65: a2 40        	ldx	#$40
     a67: 64 12        	stz	$12                     ; 0x12 <__rc2>
     a69: 84 13        	sty	$13                     ; 0x13 <__rc3>
     a6b: a9 00        	lda	#$0
     a6d: 92 12        	sta	($12)                   ; 0x12 <__rc2>
     a6f: a5 12        	lda	$12                     ; 0x12 <__rc2>
     a71: ca           	dex
     a72: 18           	clc
     a73: 69 08        	adc	#$8
     a75: 85 12        	sta	$12                     ; 0x12 <__rc2>
     a77: 98           	tya
     a78: 69 00        	adc	#$0
     a7a: a8           	tay
     a7b: 8a           	txa
     a7c: d0 eb        	bne	$a69 <main+0x458>
     a7e: 18           	clc
     a7f: a5 10        	lda	$10                     ; 0x10 <__rc0>
     a81: 69 12        	adc	#$12
     a83: 85 18        	sta	$18                     ; 0x18 <__rc8>
     a85: a5 11        	lda	$11                     ; 0x11 <__rc1>
     a87: 69 00        	adc	#$0
     a89: 85 19        	sta	$19                     ; 0x19 <__rc9>
     a8b: a6 18        	ldx	$18                     ; 0x18 <__rc8>
     a8d: 86 fb        	stx	$fb                     ; 0xfb <__pal_size+0x7b>
     a8f: 85 fc        	sta	$fc                     ; 0xfc <__pal_size+0x7c>
     a91: a2 08        	ldx	#$8
     a93: 86 fd        	stx	$fd                     ; 0xfd <__pal_size+0x7d>
     a95: 18           	clc
     a96: a5 10        	lda	$10                     ; 0x10 <__rc0>
     a98: 69 22        	adc	#$22
     a9a: 85 16        	sta	$16                     ; 0x16 <__rc6>
     a9c: a5 11        	lda	$11                     ; 0x11 <__rc1>
     a9e: 69 00        	adc	#$0
     aa0: 85 17        	sta	$17                     ; 0x17 <__rc7>
     aa2: a2 78        	ldx	#$78
     aa4: 86 12        	stx	$12                     ; 0x12 <__rc2>
     aa6: a2 00        	ldx	#$0
     aa8: 86 13        	stx	$13                     ; 0x13 <__rc3>
     aaa: a0 06        	ldy	#$6
     aac: 5a           	phy
     aad: a5 16        	lda	$16                     ; 0x16 <__rc6>
     aaf: a0 0a        	ldy	#$a
     ab1: 91 10        	sta	($10),y                 ; 0x10 <__rc0>
     ab3: a5 17        	lda	$17                     ; 0x17 <__rc7>
     ab5: c8           	iny
     ab6: 91 10        	sta	($10),y                 ; 0x10 <__rc0>
     ab8: 7a           	ply
     ab9: 20 dc ff     	jsr	$ffdc <__heap_start+0xb558>
     abc: 92 16        	sta	($16)                   ; 0x16 <__rc6>
     abe: a9 00        	lda	#$0
     ac0: 6a           	ror
     ac1: 85 12        	sta	$12                     ; 0x12 <__rc2>
     ac3: b1 18        	lda	($18),y                 ; 0x18 <__rc8>
     ac5: 85 13        	sta	$13                     ; 0x13 <__rc3>
     ac7: a2 06        	ldx	#$6
     ac9: 86 12        	stx	$12                     ; 0x12 <__rc2>
     acb: a0 07        	ldy	#$7
     acd: b1 18        	lda	($18),y                 ; 0x18 <__rc8>
     acf: a6 13        	ldx	$13                     ; 0x13 <__rc3>
     ad1: 8e 00 de     	stx	$de00                   ; 0xde00 <__heap_start+0x937c>
     ad4: 9c 01 de     	stz	$de01                   ; 0xde01 <__heap_start+0x937d>
     ad7: 8d 02 de     	sta	$de02                   ; 0xde02 <__heap_start+0x937e>
     ada: 9c 03 de     	stz	$de03                   ; 0xde03 <__heap_start+0x937f>
     add: ae 10 de     	ldx	$de10                   ; 0xde10 <__heap_start+0x938c>
     ae0: ac 11 de     	ldy	$de11                   ; 0xde11 <__heap_start+0x938d>
     ae3: ad 12 de     	lda	$de12                   ; 0xde12 <__heap_start+0x938e>
     ae6: ad 13 de     	lda	$de13                   ; 0xde13 <__heap_start+0x938f>
     ae9: 8e a4 d6     	stx	$d6a4                   ; 0xd6a4 <__heap_start+0x8c20>
     aec: 8c a5 d6     	sty	$d6a5                   ; 0xd6a5 <__heap_start+0x8c21>
     aef: a2 03        	ldx	#$3
     af1: 8e a6 d6     	stx	$d6a6                   ; 0xd6a6 <__heap_start+0x8c22>
     af4: a0 00        	ldy	#$0
     af6: 64 01        	stz	$1                      ; 0x1 <__data_size+0x1>
     af8: a2 5f        	ldx	#$5f
     afa: 8e 00 d0     	stx	$d000                   ; 0xd000 <__heap_start+0x857c>
     afd: 9c 01 d0     	stz	$d001                   ; 0xd001 <__heap_start+0x857d>
     b00: a2 50        	ldx	#$50
     b02: 8e 02 d0     	stx	$d002                   ; 0xd002 <__heap_start+0x857e>
     b05: a6 12        	ldx	$12                     ; 0x12 <__rc2>
     b07: 8e 03 d0     	stx	$d003                   ; 0xd003 <__heap_start+0x857f>
     b0a: a2 01        	ldx	#$1
     b0c: 86 01        	stx	$1                      ; 0x1 <__data_size+0x1>
     b0e: a2 d0        	ldx	#$d0
     b10: 18           	clc
     b11: 84 16        	sty	$16                     ; 0x16 <__rc6>
     b13: 98           	tya
     b14: 69 00        	adc	#$0
     b16: 85 14        	sta	$14                     ; 0x14 <__rc4>
     b18: 8a           	txa
     b19: 69 10        	adc	#$10
     b1b: 85 15        	sta	$15                     ; 0x15 <__rc5>
     b1d: 84 12        	sty	$12                     ; 0x12 <__rc2>
     b1f: 86 13        	stx	$13                     ; 0x13 <__rc3>
     b21: a4 0f        	ldy	$f                      ; 0xf <__data_size+0xf>
     b23: 78           	sei
     b24: a9 08        	lda	#$8
     b26: 85 0f        	sta	$f                      ; 0xf <__data_size+0xf>
     b28: b2 14        	lda	($14)                   ; 0x14 <__rc4>
     b2a: 84 0f        	sty	$f                      ; 0xf <__data_size+0xf>
     b2c: 58           	cli
     b2d: 92 12        	sta	($12)                   ; 0x12 <__rc2>
     b2f: a4 16        	ldy	$16                     ; 0x16 <__rc6>
     b31: c8           	iny
     b32: f0 06        	beq	$b3a <main+0x529>
     b34: e0 d3        	cpx	#$d3
     b36: d0 d8        	bne	$b10 <main+0x4ff>
     b38: 80 05        	bra	$b3f <main+0x52e>
     b3a: e8           	inx
     b3b: e0 d3        	cpx	#$d3
     b3d: d0 d1        	bne	$b10 <main+0x4ff>
     b3f: c0 ff        	cpy	#$ff
     b41: d0 cd        	bne	$b10 <main+0x4ff>
     b43: a0 00        	ldy	#$0
     b45: 64 01        	stz	$1                      ; 0x1 <__data_size+0x1>
     b47: 9c 0d d0     	stz	$d00d                   ; 0xd00d <__heap_start+0x8589>
     b4a: 9c 0e d0     	stz	$d00e                   ; 0xd00e <__heap_start+0x858a>
     b4d: 9c 0f d0     	stz	$d00f                   ; 0xd00f <__heap_start+0x858b>
     b50: a2 02        	ldx	#$2
     b52: 86 01        	stx	$1                      ; 0x1 <__data_size+0x1>
     b54: a2 50        	ldx	#$50
     b56: 64 12        	stz	$12                     ; 0x12 <__rc2>
     b58: 64 16        	stz	$16                     ; 0x16 <__rc6>
     b5a: 64 14        	stz	$14                     ; 0x14 <__rc4>
     b5c: a9 c0        	lda	#$c0
     b5e: 85 13        	sta	$13                     ; 0x13 <__rc3>
     b60: 85 15        	sta	$15                     ; 0x15 <__rc5>
     b62: a9 20        	lda	#$20
     b64: 85 17        	sta	$17                     ; 0x17 <__rc7>
     b66: 80 03        	bra	$b6b <main+0x55a>
     b68: 8a           	txa
     b69: f0 0d        	beq	$b78 <main+0x567>
     b6b: a5 17        	lda	$17                     ; 0x17 <__rc7>
     b6d: 92 14        	sta	($14)                   ; 0x14 <__rc4>
     b6f: ca           	dex
     b70: e6 14        	inc	$14                     ; 0x14 <__rc4>
     b72: d0 f4        	bne	$b68 <main+0x557>
     b74: e6 15        	inc	$15                     ; 0x15 <__rc5>
     b76: 80 f0        	bra	$b68 <main+0x557>
     b78: c8           	iny
     b79: f0 06        	beq	$b81 <main+0x570>
     b7b: a5 12        	lda	$12                     ; 0x12 <__rc2>
     b7d: d0 0c        	bne	$b8b <main+0x57a>
     b7f: 80 06        	bra	$b87 <main+0x576>
     b81: e6 12        	inc	$12                     ; 0x12 <__rc2>
     b83: a5 12        	lda	$12                     ; 0x12 <__rc2>
     b85: d0 04        	bne	$b8b <main+0x57a>
     b87: c0 3d        	cpy	#$3d
     b89: f0 16        	beq	$ba1 <main+0x590>
     b8b: 18           	clc
     b8c: a5 16        	lda	$16                     ; 0x16 <__rc6>
     b8e: 69 50        	adc	#$50
     b90: aa           	tax
     b91: a5 13        	lda	$13                     ; 0x13 <__rc3>
     b93: 69 00        	adc	#$0
     b95: 86 16        	stx	$16                     ; 0x16 <__rc6>
     b97: 86 14        	stx	$14                     ; 0x14 <__rc4>
     b99: 85 13        	sta	$13                     ; 0x13 <__rc3>
     b9b: 85 15        	sta	$15                     ; 0x15 <__rc5>
     b9d: a2 50        	ldx	#$50
     b9f: 80 ca        	bra	$b6b <main+0x55a>
     ba1: a2 03        	ldx	#$3
     ba3: 86 01        	stx	$1                      ; 0x1 <__data_size+0x1>
     ba5: 64 14        	stz	$14                     ; 0x14 <__rc4>
     ba7: a2 50        	ldx	#$50
     ba9: 64 12        	stz	$12                     ; 0x12 <__rc2>
     bab: a0 00        	ldy	#$0
     bad: 64 16        	stz	$16                     ; 0x16 <__rc6>
     baf: a9 c0        	lda	#$c0
     bb1: 85 13        	sta	$13                     ; 0x13 <__rc3>
     bb3: 85 15        	sta	$15                     ; 0x15 <__rc5>
     bb5: 80 03        	bra	$bba <main+0x5a9>
     bb7: 8a           	txa
     bb8: f0 0d        	beq	$bc7 <main+0x5b6>
     bba: a9 00        	lda	#$0
     bbc: 92 14        	sta	($14)                   ; 0x14 <__rc4>
     bbe: ca           	dex
     bbf: e6 14        	inc	$14                     ; 0x14 <__rc4>
     bc1: d0 f4        	bne	$bb7 <main+0x5a6>
     bc3: e6 15        	inc	$15                     ; 0x15 <__rc5>
     bc5: 80 f0        	bra	$bb7 <main+0x5a6>
     bc7: c8           	iny
     bc8: f0 06        	beq	$bd0 <main+0x5bf>
     bca: a5 12        	lda	$12                     ; 0x12 <__rc2>
     bcc: d0 0c        	bne	$bda <main+0x5c9>
     bce: 80 06        	bra	$bd6 <main+0x5c5>
     bd0: e6 12        	inc	$12                     ; 0x12 <__rc2>
     bd2: a5 12        	lda	$12                     ; 0x12 <__rc2>
     bd4: d0 04        	bne	$bda <main+0x5c9>
     bd6: c0 3d        	cpy	#$3d
     bd8: f0 16        	beq	$bf0 <main+0x5df>
     bda: 18           	clc
     bdb: a5 16        	lda	$16                     ; 0x16 <__rc6>
     bdd: 69 50        	adc	#$50
     bdf: aa           	tax
     be0: a5 13        	lda	$13                     ; 0x13 <__rc3>
     be2: 69 00        	adc	#$0
     be4: 86 16        	stx	$16                     ; 0x16 <__rc6>
     be6: 86 14        	stx	$14                     ; 0x14 <__rc4>
     be8: 85 13        	sta	$13                     ; 0x13 <__rc3>
     bea: 85 15        	sta	$15                     ; 0x15 <__rc5>
     bec: a2 50        	ldx	#$50
     bee: 80 ca        	bra	$bba <main+0x5a9>
     bf0: 64 01        	stz	$1                      ; 0x1 <__data_size+0x1>
     bf2: a2 1f        	ldx	#$1f
     bf4: 8e 20 d6     	stx	$d620                   ; 0xd620 <__heap_start+0x8b9c>
     bf7: a2 2a        	ldx	#$2a
     bf9: 8e 21 d6     	stx	$d621                   ; 0xd621 <__heap_start+0x8b9d>
     bfc: a2 01        	ldx	#$1
     bfe: 8e 22 d6     	stx	$d622                   ; 0xd622 <__heap_start+0x8b9e>
     c01: ad 22 d6     	lda	$d622                   ; 0xd622 <__heap_start+0x8b9e>
     c04: 29 01        	and	#$1
     c06: d0 f9        	bne	$c01 <main+0x5f0>
     c08: a2 19        	ldx	#$19
     c0a: 8e 20 d6     	stx	$d620                   ; 0xd620 <__heap_start+0x8b9c>
     c0d: a2 d5        	ldx	#$d5
     c0f: 8e 21 d6     	stx	$d621                   ; 0xd621 <__heap_start+0x8b9d>
     c12: a2 01        	ldx	#$1
     c14: 8e 22 d6     	stx	$d622                   ; 0xd622 <__heap_start+0x8b9e>
     c17: ad 22 d6     	lda	$d622                   ; 0xd622 <__heap_start+0x8b9e>
     c1a: 29 01        	and	#$1
     c1c: d0 f9        	bne	$c17 <main+0x606>
     c1e: a5 1c        	lda	$1c                     ; 0x1c <__rc12>
     c20: a0 0c        	ldy	#$c
     c22: 91 10        	sta	($10),y                 ; 0x10 <__rc0>
     c24: a5 1d        	lda	$1d                     ; 0x1d <__rc13>
     c26: c8           	iny
     c27: 91 10        	sta	($10),y                 ; 0x10 <__rc0>
     c29: a5 18        	lda	$18                     ; 0x18 <__rc8>
     c2b: a0 10        	ldy	#$10
     c2d: 91 10        	sta	($10),y                 ; 0x10 <__rc0>
     c2f: a5 19        	lda	$19                     ; 0x19 <__rc9>
     c31: c8           	iny
     c32: 91 10        	sta	($10),y                 ; 0x10 <__rc0>
     c34: a0 01        	ldy	#$1
     c36: 84 65        	sty	$65                     ; 0x65 <_tileSize.1>
     c38: 9c 0d d2     	stz	$d20d                   ; 0xd20d <__heap_start+0x8789>
     c3b: 9c 0e d2     	stz	$d20e                   ; 0xd20e <__heap_start+0x878a>
     c3e: a2 02        	ldx	#$2
     c40: 8e 0f d2     	stx	$d20f                   ; 0xd20f <__heap_start+0x878b>
     c43: a2 50        	ldx	#$50
     c45: 8e 10 d2     	stx	$d210                   ; 0xd210 <__heap_start+0x878c>
     c48: 86 12        	stx	$12                     ; 0x12 <__rc2>
     c4a: 9c 11 d2     	stz	$d211                   ; 0xd211 <__heap_start+0x878d>
     c4d: a2 1f        	ldx	#$1f
     c4f: 8e 12 d2     	stx	$d212                   ; 0xd212 <__heap_start+0x878e>
     c52: 86 13        	stx	$13                     ; 0x13 <__rc3>
     c54: 9c 13 d2     	stz	$d213                   ; 0xd213 <__heap_start+0x878f>
     c57: 9c 14 d2     	stz	$d214                   ; 0xd214 <__heap_start+0x8790>
     c5a: 9c 15 d2     	stz	$d215                   ; 0xd215 <__heap_start+0x8791>
     c5d: 9c 16 d2     	stz	$d216                   ; 0xd216 <__heap_start+0x8792>
     c60: 9c 17 d2     	stz	$d217                   ; 0xd217 <__heap_start+0x8793>
     c63: 84 66        	sty	$66                     ; 0x66 <_tileSize.2>
     c65: 9c 19 d2     	stz	$d219                   ; 0xd219 <__heap_start+0x8795>
     c68: a9 bf        	lda	#$bf
     c6a: 8d 1a d2     	sta	$d21a                   ; 0xd21a <__heap_start+0x8796>
     c6d: a9 03        	lda	#$3
     c6f: 8d 1b d2     	sta	$d21b                   ; 0xd21b <__heap_start+0x8797>
     c72: a6 12        	ldx	$12                     ; 0x12 <__rc2>
     c74: 8e 1c d2     	stx	$d21c                   ; 0xd21c <__heap_start+0x8798>
     c77: 9c 1d d2     	stz	$d21d                   ; 0xd21d <__heap_start+0x8799>
     c7a: a6 13        	ldx	$13                     ; 0x13 <__rc3>
     c7c: 8e 1e d2     	stx	$d21e                   ; 0xd21e <__heap_start+0x879a>
     c7f: 84 16        	sty	$16                     ; 0x16 <__rc6>
     c81: 9c 1f d2     	stz	$d21f                   ; 0xd21f <__heap_start+0x879b>
     c84: 9c 20 d2     	stz	$d220                   ; 0xd220 <__heap_start+0x879c>
     c87: 9c 21 d2     	stz	$d221                   ; 0xd221 <__heap_start+0x879d>
     c8a: 9c 22 d2     	stz	$d222                   ; 0xd222 <__heap_start+0x879e>
     c8d: 9c 23 d2     	stz	$d223                   ; 0xd223 <__heap_start+0x879f>
     c90: 9c 80 d2     	stz	$d280                   ; 0xd280 <__heap_start+0x87fc>
     c93: a2 b4        	ldx	#$b4
     c95: 8e 81 d2     	stx	$d281                   ; 0xd281 <__heap_start+0x87fd>
     c98: 8d 82 d2     	sta	$d282                   ; 0xd282 <__heap_start+0x87fe>
     c9b: 9c 83 d2     	stz	$d283                   ; 0xd283 <__heap_start+0x87ff>
     c9e: a2 14        	ldx	#$14
     ca0: 86 27        	stx	$27                     ; 0x27 <__rc23>
     ca2: a9 00        	lda	#$0
     ca4: aa           	tax
     ca5: 85 12        	sta	$12                     ; 0x12 <__rc2>
     ca7: 8a           	txa
     ca8: a0 0f        	ldy	#$f
     caa: 91 10        	sta	($10),y                 ; 0x10 <__rc0>
     cac: 4a           	lsr
     cad: 48           	pha
     cae: a5 12        	lda	$12                     ; 0x12 <__rc2>
     cb0: 88           	dey
     cb1: 91 10        	sta	($10),y                 ; 0x10 <__rc0>
     cb3: 68           	pla
     cb4: 66 12        	ror	$12                     ; 0x12 <__rc2>
     cb6: 64 13        	stz	$13                     ; 0x13 <__rc3>
     cb8: 66 13        	ror	$13                     ; 0x13 <__rc3>
     cba: 4a           	lsr
     cbb: 66 12        	ror	$12                     ; 0x12 <__rc2>
     cbd: 66 13        	ror	$13                     ; 0x13 <__rc3>
     cbf: 4a           	lsr
     cc0: 66 12        	ror	$12                     ; 0x12 <__rc2>
     cc2: 66 13        	ror	$13                     ; 0x13 <__rc3>
     cc4: a5 13        	lda	$13                     ; 0x13 <__rc3>
     cc6: 0a           	asl
     cc7: a6 12        	ldx	$12                     ; 0x12 <__rc2>
     cc9: 86 14        	stx	$14                     ; 0x14 <__rc4>
     ccb: 26 14        	rol	$14                     ; 0x14 <__rc4>
     ccd: 0a           	asl
     cce: 26 14        	rol	$14                     ; 0x14 <__rc4>
     cd0: 18           	clc
     cd1: a2 01        	ldx	#$1
     cd3: b0 02        	bcs	$cd7 <main+0x6c6>
     cd5: a2 00        	ldx	#$0
     cd7: 86 28        	stx	$28                     ; 0x28 <__rc24>
     cd9: 65 13        	adc	$13                     ; 0x13 <__rc3>
     cdb: 85 2c        	sta	$2c                     ; 0x2c <__rc28>
     cdd: a8           	tay
     cde: a5 14        	lda	$14                     ; 0x14 <__rc4>
     ce0: 65 12        	adc	$12                     ; 0x12 <__rc2>
     ce2: aa           	tax
     ce3: 85 2d        	sta	$2d                     ; 0x2d <__rc29>
     ce5: 18           	clc
     ce6: 98           	tya
     ce7: 69 a0        	adc	#$a0
     ce9: 85 2e        	sta	$2e                     ; 0x2e <__rc30>
     ceb: 8a           	txa
     cec: 69 00        	adc	#$0
     cee: 85 2f        	sta	$2f                     ; 0x2f <__rc31>
     cf0: 64 12        	stz	$12                     ; 0x12 <__rc2>
     cf2: a6 12        	ldx	$12                     ; 0x12 <__rc2>
     cf4: a5 12        	lda	$12                     ; 0x12 <__rc2>
     cf6: a4 28        	ldy	$28                     ; 0x28 <__rc24>
     cf8: c0 01        	cpy	#$1
     cfa: 65 2c        	adc	$2c                     ; 0x2c <__rc28>
     cfc: 85 26        	sta	$26                     ; 0x26 <__rc22>
     cfe: a9 bf        	lda	#$bf
     d00: 65 2d        	adc	$2d                     ; 0x2d <__rc29>
     d02: 85 2a        	sta	$2a                     ; 0x2a <__rc26>
     d04: a9 03        	lda	#$3
     d06: 69 00        	adc	#$0
     d08: 85 2b        	sta	$2b                     ; 0x2b <__rc27>
     d0a: a4 16        	ldy	$16                     ; 0x16 <__rc6>
     d0c: 8c a6 d6     	sty	$d6a6                   ; 0xd6a6 <__heap_start+0x8c22>
     d0f: 86 29        	stx	$29                     ; 0x29 <__rc25>
     d11: ad a4 d6     	lda	$d6a4                   ; 0xd6a4 <__heap_start+0x8c20>
     d14: ae a5 d6     	ldx	$d6a5                   ; 0xd6a5 <__heap_start+0x8c21>
     d17: 5a           	phy
     d18: a4 27        	ldy	$27                     ; 0x27 <__rc23>
     d1a: 84 12        	sty	$12                     ; 0x12 <__rc2>
     d1c: 7a           	ply
     d1d: 64 13        	stz	$13                     ; 0x13 <__rc3>
     d1f: 84 24        	sty	$24                     ; 0x24 <__rc20>
     d21: 20 0e 44     	jsr	$440e <__umodhi3>
     d24: 85 14        	sta	$14                     ; 0x14 <__rc4>
     d26: 86 15        	stx	$15                     ; 0x15 <__rc5>
     d28: a5 2a        	lda	$2a                     ; 0x2a <__rc26>
     d2a: 85 12        	sta	$12                     ; 0x12 <__rc2>
     d2c: 06 12        	asl	$12                     ; 0x12 <__rc2>
     d2e: 26 2b        	rol	$2b                     ; 0x2b <__rc27>
     d30: 06 12        	asl	$12                     ; 0x12 <__rc2>
     d32: 26 2b        	rol	$2b                     ; 0x2b <__rc27>
     d34: 06 12        	asl	$12                     ; 0x12 <__rc2>
     d36: 26 2b        	rol	$2b                     ; 0x2b <__rc27>
     d38: a4 2b        	ldy	$2b                     ; 0x2b <__rc27>
     d3a: a6 0f        	ldx	$f                      ; 0xf <__data_size+0xf>
     d3c: 78           	sei
     d3d: 84 0f        	sty	$f                      ; 0xf <__data_size+0xf>
     d3f: 09 e0        	ora	#$e0
     d41: a4 26        	ldy	$26                     ; 0x26 <__rc22>
     d43: 84 12        	sty	$12                     ; 0x12 <__rc2>
     d45: 85 13        	sta	$13                     ; 0x13 <__rc3>
     d47: a5 14        	lda	$14                     ; 0x14 <__rc4>
     d49: 92 12        	sta	($12)                   ; 0x12 <__rc2>
     d4b: a4 24        	ldy	$24                     ; 0x24 <__rc20>
     d4d: a5 15        	lda	$15                     ; 0x15 <__rc5>
     d4f: 91 12        	sta	($12),y                 ; 0x12 <__rc2>
     d51: 86 0f        	stx	$f                      ; 0xf <__data_size+0xf>
     d53: 58           	cli
     d54: a5 29        	lda	$29                     ; 0x29 <__rc25>
     d56: a6 28        	ldx	$28                     ; 0x28 <__rc24>
     d58: e0 01        	cpx	#$1
     d5a: 65 2e        	adc	$2e                     ; 0x2e <__rc30>
     d5c: 85 13        	sta	$13                     ; 0x13 <__rc3>
     d5e: a9 bf        	lda	#$bf
     d60: 65 2f        	adc	$2f                     ; 0x2f <__rc31>
     d62: 85 14        	sta	$14                     ; 0x14 <__rc4>
     d64: a9 03        	lda	#$3
     d66: 69 00        	adc	#$0
     d68: a6 14        	ldx	$14                     ; 0x14 <__rc4>
     d6a: 86 12        	stx	$12                     ; 0x12 <__rc2>
     d6c: 06 12        	asl	$12                     ; 0x12 <__rc2>
     d6e: 2a           	rol
     d6f: 06 12        	asl	$12                     ; 0x12 <__rc2>
     d71: 2a           	rol
     d72: 06 12        	asl	$12                     ; 0x12 <__rc2>
     d74: 2a           	rol
     d75: a6 0f        	ldx	$f                      ; 0xf <__data_size+0xf>
     d77: 78           	sei
     d78: 85 0f        	sta	$f                      ; 0xf <__data_size+0xf>
     d7a: a5 13        	lda	$13                     ; 0x13 <__rc3>
     d7c: 85 12        	sta	$12                     ; 0x12 <__rc2>
     d7e: a5 14        	lda	$14                     ; 0x14 <__rc4>
     d80: 09 e0        	ora	#$e0
     d82: 85 13        	sta	$13                     ; 0x13 <__rc3>
     d84: a9 00        	lda	#$0
     d86: 92 12        	sta	($12)                   ; 0x12 <__rc2>
     d88: 84 16        	sty	$16                     ; 0x16 <__rc6>
     d8a: 91 12        	sta	($12),y                 ; 0x12 <__rc2>
     d8c: 86 0f        	stx	$f                      ; 0xf <__data_size+0xf>
     d8e: 58           	cli
     d8f: 18           	clc
     d90: a5 29        	lda	$29                     ; 0x29 <__rc25>
     d92: 69 02        	adc	#$2
     d94: 85 12        	sta	$12                     ; 0x12 <__rc2>
     d96: c9 50        	cmp	#$50
     d98: f0 03        	beq	$d9d <main+0x78c>
     d9a: 4c f2 0c     	jmp	$cf2 <main+0x6e1>
     d9d: a2 14        	ldx	#$14
     d9f: 86 27        	stx	$27                     ; 0x27 <__rc23>
     da1: 18           	clc
     da2: a0 0e        	ldy	#$e
     da4: b1 10        	lda	($10),y                 ; 0x10 <__rc0>
     da6: 85 14        	sta	$14                     ; 0x14 <__rc4>
     da8: 69 02        	adc	#$2
     daa: a8           	tay
     dab: 5a           	phy
     dac: a0 0f        	ldy	#$f
     dae: b1 10        	lda	($10),y                 ; 0x10 <__rc0>
     db0: 7a           	ply
     db1: aa           	tax
     db2: 69 00        	adc	#$0
     db4: 85 12        	sta	$12                     ; 0x12 <__rc2>
     db6: 8a           	txa
     db7: d0 06        	bne	$dbf <main+0x7ae>
     db9: a6 14        	ldx	$14                     ; 0x14 <__rc4>
     dbb: e0 1d        	cpx	#$1d
     dbd: 80 02        	bra	$dc1 <main+0x7b0>
     dbf: e0 00        	cpx	#$0
     dc1: 98           	tya
     dc2: a6 12        	ldx	$12                     ; 0x12 <__rc2>
     dc4: b0 03        	bcs	$dc9 <main+0x7b8>
     dc6: 4c a5 0c     	jmp	$ca5 <main+0x694>
     dc9: a2 01        	ldx	#$1
     dcb: 86 28        	stx	$28                     ; 0x28 <__rc24>
     dcd: ca           	dex
     dce: 8a           	txa
     dcf: 48           	pha
     dd0: a0 10        	ldy	#$10
     dd2: b1 10        	lda	($10),y                 ; 0x10 <__rc0>
     dd4: 85 22        	sta	$22                     ; 0x22 <__rc18>
     dd6: c8           	iny
     dd7: b1 10        	lda	($10),y                 ; 0x10 <__rc0>
     dd9: 85 23        	sta	$23                     ; 0x23 <__rc19>
     ddb: 68           	pla
     ddc: 85 19        	sta	$19                     ; 0x19 <__rc9>
     dde: 4a           	lsr
     ddf: 86 18        	stx	$18                     ; 0x18 <__rc8>
     de1: 86 12        	stx	$12                     ; 0x12 <__rc2>
     de3: 66 12        	ror	$12                     ; 0x12 <__rc2>
     de5: 64 13        	stz	$13                     ; 0x13 <__rc3>
     de7: 66 13        	ror	$13                     ; 0x13 <__rc3>
     de9: 4a           	lsr
     dea: 66 12        	ror	$12                     ; 0x12 <__rc2>
     dec: 66 13        	ror	$13                     ; 0x13 <__rc3>
     dee: 4a           	lsr
     def: 66 12        	ror	$12                     ; 0x12 <__rc2>
     df1: 66 13        	ror	$13                     ; 0x13 <__rc3>
     df3: a5 13        	lda	$13                     ; 0x13 <__rc3>
     df5: 0a           	asl
     df6: a6 12        	ldx	$12                     ; 0x12 <__rc2>
     df8: 86 14        	stx	$14                     ; 0x14 <__rc4>
     dfa: 26 14        	rol	$14                     ; 0x14 <__rc4>
     dfc: 0a           	asl
     dfd: 26 14        	rol	$14                     ; 0x14 <__rc4>
     dff: 18           	clc
     e00: a2 01        	ldx	#$1
     e02: b0 02        	bcs	$e06 <main+0x7f5>
     e04: a2 00        	ldx	#$0
     e06: 86 1c        	stx	$1c                     ; 0x1c <__rc12>
     e08: 65 13        	adc	$13                     ; 0x13 <__rc3>
     e0a: aa           	tax
     e0b: a5 14        	lda	$14                     ; 0x14 <__rc4>
     e0d: 65 12        	adc	$12                     ; 0x12 <__rc2>
     e0f: 85 15        	sta	$15                     ; 0x15 <__rc5>
     e11: 18           	clc
     e12: 8a           	txa
     e13: 69 a0        	adc	#$a0
     e15: 85 12        	sta	$12                     ; 0x12 <__rc2>
     e17: a5 15        	lda	$15                     ; 0x15 <__rc5>
     e19: 69 00        	adc	#$0
     e1b: 85 13        	sta	$13                     ; 0x13 <__rc3>
     e1d: 86 1a        	stx	$1a                     ; 0x1a <__rc10>
     e1f: 86 14        	stx	$14                     ; 0x14 <__rc4>
     e21: a6 15        	ldx	$15                     ; 0x15 <__rc5>
     e23: 86 1b        	stx	$1b                     ; 0x1b <__rc11>
     e25: 64 1d        	stz	$1d                     ; 0x1d <__rc13>
     e27: 18           	clc
     e28: a5 1d        	lda	$1d                     ; 0x1d <__rc13>
     e2a: 69 50        	adc	#$50
     e2c: 85 1e        	sta	$1e                     ; 0x1e <__rc14>
     e2e: a6 1c        	ldx	$1c                     ; 0x1c <__rc12>
     e30: e0 01        	cpx	#$1
     e32: 65 14        	adc	$14                     ; 0x14 <__rc4>
     e34: 85 24        	sta	$24                     ; 0x24 <__rc20>
     e36: a9 bf        	lda	#$bf
     e38: 65 15        	adc	$15                     ; 0x15 <__rc5>
     e3a: 85 25        	sta	$25                     ; 0x25 <__rc21>
     e3c: a9 03        	lda	#$3
     e3e: 69 00        	adc	#$0
     e40: 85 26        	sta	$26                     ; 0x26 <__rc22>
     e42: a5 1a        	lda	$1a                     ; 0x1a <__rc10>
     e44: a6 1c        	ldx	$1c                     ; 0x1c <__rc12>
     e46: e0 01        	cpx	#$1
     e48: 65 1d        	adc	$1d                     ; 0x1d <__rc13>
     e4a: 85 16        	sta	$16                     ; 0x16 <__rc6>
     e4c: a5 1b        	lda	$1b                     ; 0x1b <__rc11>
     e4e: 69 00        	adc	#$0
     e50: a8           	tay
     e51: a9 00        	lda	#$0
     e53: 69 00        	adc	#$0
     e55: aa           	tax
     e56: 18           	clc
     e57: a5 16        	lda	$16                     ; 0x16 <__rc6>
     e59: 69 00        	adc	#$0
     e5b: 85 17        	sta	$17                     ; 0x17 <__rc7>
     e5d: 98           	tya
     e5e: 69 bf        	adc	#$bf
     e60: a8           	tay
     e61: 8a           	txa
     e62: 69 03        	adc	#$3
     e64: 85 27        	sta	$27                     ; 0x27 <__rc23>
     e66: 98           	tya
     e67: 84 16        	sty	$16                     ; 0x16 <__rc6>
     e69: 06 16        	asl	$16                     ; 0x16 <__rc6>
     e6b: 26 27        	rol	$27                     ; 0x27 <__rc23>
     e6d: 06 16        	asl	$16                     ; 0x16 <__rc6>
     e6f: 26 27        	rol	$27                     ; 0x27 <__rc23>
     e71: 06 16        	asl	$16                     ; 0x16 <__rc6>
     e73: 26 27        	rol	$27                     ; 0x27 <__rc23>
     e75: a4 27        	ldy	$27                     ; 0x27 <__rc23>
     e77: a6 0f        	ldx	$f                      ; 0xf <__data_size+0xf>
     e79: 78           	sei
     e7a: 84 0f        	sty	$f                      ; 0xf <__data_size+0xf>
     e7c: a4 17        	ldy	$17                     ; 0x17 <__rc7>
     e7e: 84 16        	sty	$16                     ; 0x16 <__rc6>
     e80: 09 e0        	ora	#$e0
     e82: 85 17        	sta	$17                     ; 0x17 <__rc7>
     e84: b2 16        	lda	($16)                   ; 0x16 <__rc6>
     e86: 85 27        	sta	$27                     ; 0x27 <__rc23>
     e88: 86 0f        	stx	$f                      ; 0xf <__data_size+0xf>
     e8a: 58           	cli
     e8b: a5 25        	lda	$25                     ; 0x25 <__rc21>
     e8d: 85 16        	sta	$16                     ; 0x16 <__rc6>
     e8f: 06 16        	asl	$16                     ; 0x16 <__rc6>
     e91: 26 26        	rol	$26                     ; 0x26 <__rc22>
     e93: 06 16        	asl	$16                     ; 0x16 <__rc6>
     e95: 26 26        	rol	$26                     ; 0x26 <__rc22>
     e97: 06 16        	asl	$16                     ; 0x16 <__rc6>
     e99: 26 26        	rol	$26                     ; 0x26 <__rc22>
     e9b: a4 26        	ldy	$26                     ; 0x26 <__rc22>
     e9d: a6 0f        	ldx	$f                      ; 0xf <__data_size+0xf>
     e9f: 78           	sei
     ea0: 84 0f        	sty	$f                      ; 0xf <__data_size+0xf>
     ea2: a4 28        	ldy	$28                     ; 0x28 <__rc24>
     ea4: 09 e0        	ora	#$e0
     ea6: 5a           	phy
     ea7: a4 24        	ldy	$24                     ; 0x24 <__rc20>
     ea9: 84 16        	sty	$16                     ; 0x16 <__rc6>
     eab: 7a           	ply
     eac: 85 17        	sta	$17                     ; 0x17 <__rc7>
     eae: a5 27        	lda	$27                     ; 0x27 <__rc23>
     eb0: 92 16        	sta	($16)                   ; 0x16 <__rc6>
     eb2: a9 00        	lda	#$0
     eb4: 91 16        	sta	($16),y                 ; 0x16 <__rc6>
     eb6: 84 24        	sty	$24                     ; 0x24 <__rc20>
     eb8: 86 0f        	stx	$f                      ; 0xf <__data_size+0xf>
     eba: 58           	cli
     ebb: a5 1e        	lda	$1e                     ; 0x1e <__rc14>
     ebd: a6 1c        	ldx	$1c                     ; 0x1c <__rc12>
     ebf: e0 01        	cpx	#$1
     ec1: 65 12        	adc	$12                     ; 0x12 <__rc2>
     ec3: 85 17        	sta	$17                     ; 0x17 <__rc7>
     ec5: a9 bf        	lda	#$bf
     ec7: 65 13        	adc	$13                     ; 0x13 <__rc3>
     ec9: a8           	tay
     eca: a9 03        	lda	#$3
     ecc: 69 00        	adc	#$0
     ece: 84 16        	sty	$16                     ; 0x16 <__rc6>
     ed0: 06 16        	asl	$16                     ; 0x16 <__rc6>
     ed2: 2a           	rol
     ed3: 06 16        	asl	$16                     ; 0x16 <__rc6>
     ed5: 2a           	rol
     ed6: 06 16        	asl	$16                     ; 0x16 <__rc6>
     ed8: 2a           	rol
     ed9: a6 0f        	ldx	$f                      ; 0xf <__data_size+0xf>
     edb: 78           	sei
     edc: 85 0f        	sta	$f                      ; 0xf <__data_size+0xf>
     ede: a5 17        	lda	$17                     ; 0x17 <__rc7>
     ee0: 85 16        	sta	$16                     ; 0x16 <__rc6>
     ee2: 98           	tya
     ee3: 09 e0        	ora	#$e0
     ee5: 85 17        	sta	$17                     ; 0x17 <__rc7>
     ee7: a9 00        	lda	#$0
     ee9: 92 16        	sta	($16)                   ; 0x16 <__rc6>
     eeb: a0 01        	ldy	#$1
     eed: 84 28        	sty	$28                     ; 0x28 <__rc24>
     eef: a4 24        	ldy	$24                     ; 0x24 <__rc20>
     ef1: 91 16        	sta	($16),y                 ; 0x16 <__rc6>
     ef3: 86 0f        	stx	$f                      ; 0xf <__data_size+0xf>
     ef5: 58           	cli
     ef6: 18           	clc
     ef7: a5 1d        	lda	$1d                     ; 0x1d <__rc13>
     ef9: 69 02        	adc	#$2
     efb: 85 1d        	sta	$1d                     ; 0x1d <__rc13>
     efd: c9 50        	cmp	#$50
     eff: f0 03        	beq	$f04 <main+0x8f3>
     f01: 4c 27 0e     	jmp	$e27 <main+0x816>
     f04: 18           	clc
     f05: a5 18        	lda	$18                     ; 0x18 <__rc8>
     f07: 69 02        	adc	#$2
     f09: 85 12        	sta	$12                     ; 0x12 <__rc2>
     f0b: a5 19        	lda	$19                     ; 0x19 <__rc9>
     f0d: 69 00        	adc	#$0
     f0f: a6 19        	ldx	$19                     ; 0x19 <__rc9>
     f11: d0 0b        	bne	$f1e <main+0x90d>
     f13: a4 18        	ldy	$18                     ; 0x18 <__rc8>
     f15: c0 1d        	cpy	#$1d
     f17: a6 12        	ldx	$12                     ; 0x12 <__rc2>
     f19: b0 0e        	bcs	$f29 <main+0x918>
     f1b: 4c dc 0d     	jmp	$ddc <main+0x7cb>
     f1e: a6 19        	ldx	$19                     ; 0x19 <__rc9>
     f20: e0 00        	cpx	#$0
     f22: a6 12        	ldx	$12                     ; 0x12 <__rc2>
     f24: b0 03        	bcs	$f29 <main+0x918>
     f26: 4c dc 0d     	jmp	$ddc <main+0x7cb>
     f29: a5 22        	lda	$22                     ; 0x22 <__rc18>
     f2b: a0 10        	ldy	#$10
     f2d: 91 10        	sta	($10),y                 ; 0x10 <__rc0>
     f2f: a5 23        	lda	$23                     ; 0x23 <__rc19>
     f31: c8           	iny
     f32: 91 10        	sta	($10),y                 ; 0x10 <__rc0>
     f34: a2 14        	ldx	#$14
     f36: 86 25        	stx	$25                     ; 0x25 <__rc21>
     f38: 64 12        	stz	$12                     ; 0x12 <__rc2>
     f3a: a9 00        	lda	#$0
     f3c: a0 0f        	ldy	#$f
     f3e: 91 10        	sta	($10),y                 ; 0x10 <__rc0>
     f40: 4a           	lsr
     f41: 48           	pha
     f42: a5 12        	lda	$12                     ; 0x12 <__rc2>
     f44: 88           	dey
     f45: 91 10        	sta	($10),y                 ; 0x10 <__rc0>
     f47: 68           	pla
     f48: 66 12        	ror	$12                     ; 0x12 <__rc2>
     f4a: 64 13        	stz	$13                     ; 0x13 <__rc3>
     f4c: 66 13        	ror	$13                     ; 0x13 <__rc3>
     f4e: 4a           	lsr
     f4f: 66 12        	ror	$12                     ; 0x12 <__rc2>
     f51: 66 13        	ror	$13                     ; 0x13 <__rc3>
     f53: 4a           	lsr
     f54: 66 12        	ror	$12                     ; 0x12 <__rc2>
     f56: 66 13        	ror	$13                     ; 0x13 <__rc3>
     f58: a5 13        	lda	$13                     ; 0x13 <__rc3>
     f5a: 0a           	asl
     f5b: a6 12        	ldx	$12                     ; 0x12 <__rc2>
     f5d: 86 14        	stx	$14                     ; 0x14 <__rc4>
     f5f: 26 14        	rol	$14                     ; 0x14 <__rc4>
     f61: 0a           	asl
     f62: 26 14        	rol	$14                     ; 0x14 <__rc4>
     f64: 18           	clc
     f65: a2 01        	ldx	#$1
     f67: b0 02        	bcs	$f6b <main+0x95a>
     f69: a2 00        	ldx	#$0
     f6b: 86 28        	stx	$28                     ; 0x28 <__rc24>
     f6d: 65 13        	adc	$13                     ; 0x13 <__rc3>
     f6f: 85 2c        	sta	$2c                     ; 0x2c <__rc28>
     f71: a8           	tay
     f72: a5 14        	lda	$14                     ; 0x14 <__rc4>
     f74: 65 12        	adc	$12                     ; 0x12 <__rc2>
     f76: aa           	tax
     f77: 85 2d        	sta	$2d                     ; 0x2d <__rc29>
     f79: 18           	clc
     f7a: 98           	tya
     f7b: 69 a0        	adc	#$a0
     f7d: 85 2e        	sta	$2e                     ; 0x2e <__rc30>
     f7f: 8a           	txa
     f80: 69 00        	adc	#$0
     f82: 85 2f        	sta	$2f                     ; 0x2f <__rc31>
     f84: 64 12        	stz	$12                     ; 0x12 <__rc2>
     f86: a4 12        	ldy	$12                     ; 0x12 <__rc2>
     f88: a5 12        	lda	$12                     ; 0x12 <__rc2>
     f8a: a6 28        	ldx	$28                     ; 0x28 <__rc24>
     f8c: e0 01        	cpx	#$1
     f8e: 65 2c        	adc	$2c                     ; 0x2c <__rc28>
     f90: 85 13        	sta	$13                     ; 0x13 <__rc3>
     f92: a9 00        	lda	#$0
     f94: 65 2d        	adc	$2d                     ; 0x2d <__rc29>
     f96: 85 15        	sta	$15                     ; 0x15 <__rc5>
     f98: 84 29        	sty	$29                     ; 0x29 <__rc25>
     f9a: a9 02        	lda	#$2
     f9c: 69 00        	adc	#$0
     f9e: a6 0f        	ldx	$f                      ; 0xf <__data_size+0xf>
     fa0: 78           	sei
     fa1: a4 15        	ldy	$15                     ; 0x15 <__rc5>
     fa3: 84 12        	sty	$12                     ; 0x12 <__rc2>
     fa5: 06 12        	asl	$12                     ; 0x12 <__rc2>
     fa7: 2a           	rol
     fa8: 06 12        	asl	$12                     ; 0x12 <__rc2>
     faa: 2a           	rol
     fab: 06 12        	asl	$12                     ; 0x12 <__rc2>
     fad: 2a           	rol
     fae: 85 0f        	sta	$f                      ; 0xf <__data_size+0xf>
     fb0: a5 15        	lda	$15                     ; 0x15 <__rc5>
     fb2: 09 e0        	ora	#$e0
     fb4: a4 13        	ldy	$13                     ; 0x13 <__rc3>
     fb6: 84 12        	sty	$12                     ; 0x12 <__rc2>
     fb8: 85 13        	sta	$13                     ; 0x13 <__rc3>
     fba: a9 00        	lda	#$0
     fbc: 92 12        	sta	($12)                   ; 0x12 <__rc2>
     fbe: a0 01        	ldy	#$1
     fc0: 91 12        	sta	($12),y                 ; 0x12 <__rc2>
     fc2: 64 13        	stz	$13                     ; 0x13 <__rc3>
     fc4: 86 0f        	stx	$f                      ; 0xf <__data_size+0xf>
     fc6: 58           	cli
     fc7: a5 29        	lda	$29                     ; 0x29 <__rc25>
     fc9: a6 28        	ldx	$28                     ; 0x28 <__rc24>
     fcb: e0 01        	cpx	#$1
     fcd: 65 2e        	adc	$2e                     ; 0x2e <__rc30>
     fcf: 85 27        	sta	$27                     ; 0x27 <__rc23>
     fd1: a9 00        	lda	#$0
     fd3: 65 2f        	adc	$2f                     ; 0x2f <__rc31>
     fd5: 85 26        	sta	$26                     ; 0x26 <__rc22>
     fd7: a9 02        	lda	#$2
     fd9: 69 00        	adc	#$0
     fdb: 85 2a        	sta	$2a                     ; 0x2a <__rc26>
     fdd: 8c a6 d6     	sty	$d6a6                   ; 0xd6a6 <__heap_start+0x8c22>
     fe0: ad a4 d6     	lda	$d6a4                   ; 0xd6a4 <__heap_start+0x8c20>
     fe3: ae a5 d6     	ldx	$d6a5                   ; 0xd6a5 <__heap_start+0x8c21>
     fe6: 5a           	phy
     fe7: a4 25        	ldy	$25                     ; 0x25 <__rc21>
     fe9: 84 12        	sty	$12                     ; 0x12 <__rc2>
     feb: 7a           	ply
     fec: 84 24        	sty	$24                     ; 0x24 <__rc20>
     fee: 20 0e 44     	jsr	$440e <__umodhi3>
     ff1: 85 14        	sta	$14                     ; 0x14 <__rc4>
     ff3: 86 15        	stx	$15                     ; 0x15 <__rc5>
     ff5: a5 26        	lda	$26                     ; 0x26 <__rc22>
     ff7: 85 12        	sta	$12                     ; 0x12 <__rc2>
     ff9: 06 12        	asl	$12                     ; 0x12 <__rc2>
     ffb: 26 2a        	rol	$2a                     ; 0x2a <__rc26>
     ffd: 06 12        	asl	$12                     ; 0x12 <__rc2>
     fff: 26 2a        	rol	$2a                     ; 0x2a <__rc26>
    1001: 06 12        	asl	$12                     ; 0x12 <__rc2>
    1003: 26 2a        	rol	$2a                     ; 0x2a <__rc26>
    1005: a4 2a        	ldy	$2a                     ; 0x2a <__rc26>
    1007: a6 0f        	ldx	$f                      ; 0xf <__data_size+0xf>
    1009: 78           	sei
    100a: 84 0f        	sty	$f                      ; 0xf <__data_size+0xf>
    100c: a4 27        	ldy	$27                     ; 0x27 <__rc23>
    100e: 84 12        	sty	$12                     ; 0x12 <__rc2>
    1010: 09 e0        	ora	#$e0
    1012: 85 13        	sta	$13                     ; 0x13 <__rc3>
    1014: a5 14        	lda	$14                     ; 0x14 <__rc4>
    1016: 92 12        	sta	($12)                   ; 0x12 <__rc2>
    1018: a4 24        	ldy	$24                     ; 0x24 <__rc20>
    101a: a5 15        	lda	$15                     ; 0x15 <__rc5>
    101c: 91 12        	sta	($12),y                 ; 0x12 <__rc2>
    101e: 86 0f        	stx	$f                      ; 0xf <__data_size+0xf>
    1020: 58           	cli
    1021: 18           	clc
    1022: a5 29        	lda	$29                     ; 0x29 <__rc25>
    1024: 69 02        	adc	#$2
    1026: 85 12        	sta	$12                     ; 0x12 <__rc2>
    1028: c9 50        	cmp	#$50
    102a: f0 03        	beq	$102f <main+0xa1e>
    102c: 4c 86 0f     	jmp	$f86 <main+0x975>
    102f: a2 14        	ldx	#$14
    1031: 86 25        	stx	$25                     ; 0x25 <__rc21>
    1033: 18           	clc
    1034: a0 0e        	ldy	#$e
    1036: b1 10        	lda	($10),y                 ; 0x10 <__rc0>
    1038: a8           	tay
    1039: 69 02        	adc	#$2
    103b: 85 14        	sta	$14                     ; 0x14 <__rc4>
    103d: 5a           	phy
    103e: a0 0f        	ldy	#$f
    1040: b1 10        	lda	($10),y                 ; 0x10 <__rc0>
    1042: 7a           	ply
    1043: aa           	tax
    1044: 69 00        	adc	#$0
    1046: e0 00        	cpx	#$0
    1048: d0 04        	bne	$104e <main+0xa3d>
    104a: c0 1d        	cpy	#$1d
    104c: 80 02        	bra	$1050 <main+0xa3f>
    104e: e0 00        	cpx	#$0
    1050: a6 14        	ldx	$14                     ; 0x14 <__rc4>
    1052: 86 12        	stx	$12                     ; 0x12 <__rc2>
    1054: b0 03        	bcs	$1059 <main+0xa48>
    1056: 4c 3c 0f     	jmp	$f3c <main+0x92b>
    1059: a0 01        	ldy	#$1
    105b: a2 00        	ldx	#$0
    105d: 8a           	txa
    105e: 48           	pha
    105f: 5a           	phy
    1060: a0 10        	ldy	#$10
    1062: b1 10        	lda	($10),y                 ; 0x10 <__rc0>
    1064: 85 28        	sta	$28                     ; 0x28 <__rc24>
    1066: c8           	iny
    1067: b1 10        	lda	($10),y                 ; 0x10 <__rc0>
    1069: 7a           	ply
    106a: 85 29        	sta	$29                     ; 0x29 <__rc25>
    106c: 68           	pla
    106d: 85 19        	sta	$19                     ; 0x19 <__rc9>
    106f: 4a           	lsr
    1070: 86 18        	stx	$18                     ; 0x18 <__rc8>
    1072: 86 12        	stx	$12                     ; 0x12 <__rc2>
    1074: 66 12        	ror	$12                     ; 0x12 <__rc2>
    1076: 64 13        	stz	$13                     ; 0x13 <__rc3>
    1078: 66 13        	ror	$13                     ; 0x13 <__rc3>
    107a: 4a           	lsr
    107b: 66 12        	ror	$12                     ; 0x12 <__rc2>
    107d: 66 13        	ror	$13                     ; 0x13 <__rc3>
    107f: 4a           	lsr
    1080: 66 12        	ror	$12                     ; 0x12 <__rc2>
    1082: a6 12        	ldx	$12                     ; 0x12 <__rc2>
    1084: 86 14        	stx	$14                     ; 0x14 <__rc4>
    1086: 66 13        	ror	$13                     ; 0x13 <__rc3>
    1088: a5 13        	lda	$13                     ; 0x13 <__rc3>
    108a: 0a           	asl
    108b: 26 12        	rol	$12                     ; 0x12 <__rc2>
    108d: 0a           	asl
    108e: 26 12        	rol	$12                     ; 0x12 <__rc2>
    1090: a6 12        	ldx	$12                     ; 0x12 <__rc2>
    1092: 86 15        	stx	$15                     ; 0x15 <__rc5>
    1094: 18           	clc
    1095: a2 01        	ldx	#$1
    1097: b0 02        	bcs	$109b <main+0xa8a>
    1099: a2 00        	ldx	#$0
    109b: 86 1a        	stx	$1a                     ; 0x1a <__rc10>
    109d: 65 13        	adc	$13                     ; 0x13 <__rc3>
    109f: 85 12        	sta	$12                     ; 0x12 <__rc2>
    10a1: 85 16        	sta	$16                     ; 0x16 <__rc6>
    10a3: a5 15        	lda	$15                     ; 0x15 <__rc5>
    10a5: 65 14        	adc	$14                     ; 0x14 <__rc4>
    10a7: aa           	tax
    10a8: 85 13        	sta	$13                     ; 0x13 <__rc3>
    10aa: 18           	clc
    10ab: a5 16        	lda	$16                     ; 0x16 <__rc6>
    10ad: 69 a0        	adc	#$a0
    10af: 85 14        	sta	$14                     ; 0x14 <__rc4>
    10b1: 8a           	txa
    10b2: 69 00        	adc	#$0
    10b4: 85 15        	sta	$15                     ; 0x15 <__rc5>
    10b6: 64 1b        	stz	$1b                     ; 0x1b <__rc11>
    10b8: 18           	clc
    10b9: a5 1b        	lda	$1b                     ; 0x1b <__rc11>
    10bb: 69 50        	adc	#$50
    10bd: 85 1c        	sta	$1c                     ; 0x1c <__rc12>
    10bf: 5a           	phy
    10c0: a6 1a        	ldx	$1a                     ; 0x1a <__rc10>
    10c2: e0 01        	cpx	#$1
    10c4: 65 12        	adc	$12                     ; 0x12 <__rc2>
    10c6: 85 17        	sta	$17                     ; 0x17 <__rc7>
    10c8: a9 00        	lda	#$0
    10ca: 65 13        	adc	$13                     ; 0x13 <__rc3>
    10cc: 85 1d        	sta	$1d                     ; 0x1d <__rc13>
    10ce: a9 02        	lda	#$2
    10d0: 69 00        	adc	#$0
    10d2: a6 0f        	ldx	$f                      ; 0xf <__data_size+0xf>
    10d4: 78           	sei
    10d5: a4 1d        	ldy	$1d                     ; 0x1d <__rc13>
    10d7: 84 16        	sty	$16                     ; 0x16 <__rc6>
    10d9: 06 16        	asl	$16                     ; 0x16 <__rc6>
    10db: 2a           	rol
    10dc: 06 16        	asl	$16                     ; 0x16 <__rc6>
    10de: 2a           	rol
    10df: 06 16        	asl	$16                     ; 0x16 <__rc6>
    10e1: 2a           	rol
    10e2: 85 0f        	sta	$f                      ; 0xf <__data_size+0xf>
    10e4: a5 1d        	lda	$1d                     ; 0x1d <__rc13>
    10e6: 09 e0        	ora	#$e0
    10e8: a4 17        	ldy	$17                     ; 0x17 <__rc7>
    10ea: 84 16        	sty	$16                     ; 0x16 <__rc6>
    10ec: 7a           	ply
    10ed: 85 17        	sta	$17                     ; 0x17 <__rc7>
    10ef: a9 00        	lda	#$0
    10f1: 92 16        	sta	($16)                   ; 0x16 <__rc6>
    10f3: 91 16        	sta	($16),y                 ; 0x16 <__rc6>
    10f5: 86 0f        	stx	$f                      ; 0xf <__data_size+0xf>
    10f7: a5 1c        	lda	$1c                     ; 0x1c <__rc12>
    10f9: a6 1a        	ldx	$1a                     ; 0x1a <__rc10>
    10fb: e0 01        	cpx	#$1
    10fd: 65 14        	adc	$14                     ; 0x14 <__rc4>
    10ff: 85 1c        	sta	$1c                     ; 0x1c <__rc12>
    1101: a9 00        	lda	#$0
    1103: 65 15        	adc	$15                     ; 0x15 <__rc5>
    1105: 85 1d        	sta	$1d                     ; 0x1d <__rc13>
    1107: a9 02        	lda	#$2
    1109: 69 00        	adc	#$0
    110b: 85 1e        	sta	$1e                     ; 0x1e <__rc14>
    110d: a5 1b        	lda	$1b                     ; 0x1b <__rc11>
    110f: a6 1a        	ldx	$1a                     ; 0x1a <__rc10>
    1111: e0 01        	cpx	#$1
    1113: 65 14        	adc	$14                     ; 0x14 <__rc4>
    1115: 85 17        	sta	$17                     ; 0x17 <__rc7>
    1117: a9 00        	lda	#$0
    1119: 65 15        	adc	$15                     ; 0x15 <__rc5>
    111b: 85 1f        	sta	$1f                     ; 0x1f <__rc15>
    111d: a9 02        	lda	#$2
    111f: 69 00        	adc	#$0
    1121: a6 1f        	ldx	$1f                     ; 0x1f <__rc15>
    1123: 86 16        	stx	$16                     ; 0x16 <__rc6>
    1125: 06 16        	asl	$16                     ; 0x16 <__rc6>
    1127: 2a           	rol
    1128: 06 16        	asl	$16                     ; 0x16 <__rc6>
    112a: 2a           	rol
    112b: 06 16        	asl	$16                     ; 0x16 <__rc6>
    112d: 2a           	rol
    112e: 58           	cli
    112f: a6 0f        	ldx	$f                      ; 0xf <__data_size+0xf>
    1131: 78           	sei
    1132: 85 0f        	sta	$f                      ; 0xf <__data_size+0xf>
    1134: a5 17        	lda	$17                     ; 0x17 <__rc7>
    1136: 85 16        	sta	$16                     ; 0x16 <__rc6>
    1138: a5 1f        	lda	$1f                     ; 0x1f <__rc15>
    113a: 09 e0        	ora	#$e0
    113c: 85 17        	sta	$17                     ; 0x17 <__rc7>
    113e: b2 16        	lda	($16)                   ; 0x16 <__rc6>
    1140: 85 1f        	sta	$1f                     ; 0x1f <__rc15>
    1142: 86 0f        	stx	$f                      ; 0xf <__data_size+0xf>
    1144: 58           	cli
    1145: a5 1d        	lda	$1d                     ; 0x1d <__rc13>
    1147: 85 16        	sta	$16                     ; 0x16 <__rc6>
    1149: 06 16        	asl	$16                     ; 0x16 <__rc6>
    114b: 26 1e        	rol	$1e                     ; 0x1e <__rc14>
    114d: 06 16        	asl	$16                     ; 0x16 <__rc6>
    114f: 26 1e        	rol	$1e                     ; 0x1e <__rc14>
    1151: 06 16        	asl	$16                     ; 0x16 <__rc6>
    1153: 26 1e        	rol	$1e                     ; 0x1e <__rc14>
    1155: 84 16        	sty	$16                     ; 0x16 <__rc6>
    1157: a4 1e        	ldy	$1e                     ; 0x1e <__rc14>
    1159: a6 0f        	ldx	$f                      ; 0xf <__data_size+0xf>
    115b: 78           	sei
    115c: 84 0f        	sty	$f                      ; 0xf <__data_size+0xf>
    115e: a4 16        	ldy	$16                     ; 0x16 <__rc6>
    1160: 48           	pha
    1161: a5 1c        	lda	$1c                     ; 0x1c <__rc12>
    1163: 85 16        	sta	$16                     ; 0x16 <__rc6>
    1165: 68           	pla
    1166: 09 e0        	ora	#$e0
    1168: 85 17        	sta	$17                     ; 0x17 <__rc7>
    116a: a5 1f        	lda	$1f                     ; 0x1f <__rc15>
    116c: 92 16        	sta	($16)                   ; 0x16 <__rc6>
    116e: a9 00        	lda	#$0
    1170: 91 16        	sta	($16),y                 ; 0x16 <__rc6>
    1172: 86 0f        	stx	$f                      ; 0xf <__data_size+0xf>
    1174: 58           	cli
    1175: 18           	clc
    1176: a5 1b        	lda	$1b                     ; 0x1b <__rc11>
    1178: 69 02        	adc	#$2
    117a: 85 1b        	sta	$1b                     ; 0x1b <__rc11>
    117c: c9 50        	cmp	#$50
    117e: f0 03        	beq	$1183 <main+0xb72>
    1180: 4c b8 10     	jmp	$10b8 <main+0xaa7>
    1183: a5 18        	lda	$18                     ; 0x18 <__rc8>
    1185: 18           	clc
    1186: 69 02        	adc	#$2
    1188: 85 12        	sta	$12                     ; 0x12 <__rc2>
    118a: a5 19        	lda	$19                     ; 0x19 <__rc9>
    118c: 69 00        	adc	#$0
    118e: a6 19        	ldx	$19                     ; 0x19 <__rc9>
    1190: d0 0b        	bne	$119d <main+0xb8c>
    1192: a6 18        	ldx	$18                     ; 0x18 <__rc8>
    1194: e0 1d        	cpx	#$1d
    1196: a6 12        	ldx	$12                     ; 0x12 <__rc2>
    1198: b0 0e        	bcs	$11a8 <main+0xb97>
    119a: 4c 6d 10     	jmp	$106d <main+0xa5c>
    119d: a6 19        	ldx	$19                     ; 0x19 <__rc9>
    119f: e0 00        	cpx	#$0
    11a1: a6 12        	ldx	$12                     ; 0x12 <__rc2>
    11a3: b0 03        	bcs	$11a8 <main+0xb97>
    11a5: 4c 6d 10     	jmp	$106d <main+0xa5c>
    11a8: a2 40        	ldx	#$40
    11aa: 8e 14 d2     	stx	$d214                   ; 0xd214 <__heap_start+0x8790>
    11ad: a2 01        	ldx	#$1
    11af: 8e 15 d2     	stx	$d215                   ; 0xd215 <__heap_start+0x8791>
    11b2: 9c 16 d2     	stz	$d216                   ; 0xd216 <__heap_start+0x8792>
    11b5: 9c 17 d2     	stz	$d217                   ; 0xd217 <__heap_start+0x8793>
    11b8: 9c 20 d2     	stz	$d220                   ; 0xd220 <__heap_start+0x879c>
    11bb: 9c 21 d2     	stz	$d221                   ; 0xd221 <__heap_start+0x879d>
    11be: 9c 22 d2     	stz	$d222                   ; 0xd222 <__heap_start+0x879e>
    11c1: 9c 23 d2     	stz	$d223                   ; 0xd223 <__heap_start+0x879f>
    11c4: a5 66        	lda	$66                     ; 0x66 <_tileSize.2>
    11c6: 29 01        	and	#$1
    11c8: a2 11        	ldx	#$11
    11ca: a0 11        	ldy	#$11
    11cc: c9 00        	cmp	#$0
    11ce: d0 02        	bne	$11d2 <main+0xbc1>
    11d0: a0 01        	ldy	#$1
    11d2: 8c 18 d2     	sty	$d218                   ; 0xd218 <__heap_start+0x8794>
    11d5: a5 65        	lda	$65                     ; 0x65 <_tileSize.1>
    11d7: 29 01        	and	#$1
    11d9: d0 02        	bne	$11dd <main+0xbcc>
    11db: a2 01        	ldx	#$1
    11dd: 8e 0c d2     	stx	$d20c                   ; 0xd20c <__heap_start+0x8788>
    11e0: a2 10        	ldx	#$10
    11e2: 8e 00 d2     	stx	$d200                   ; 0xd200 <__heap_start+0x877c>
    11e5: 64 63        	stz	$63                     ; 0x63 <_active>
    11e7: 20 1d 26     	jsr	$261d <bitmapClear>
    11ea: a2 01        	ldx	#$1
    11ec: 86 63        	stx	$63                     ; 0x63 <_active>
    11ee: 20 1d 26     	jsr	$261d <bitmapClear>
    11f1: a2 02        	ldx	#$2
    11f3: 86 63        	stx	$63                     ; 0x63 <_active>
    11f5: 86 24        	stx	$24                     ; 0x24 <__rc20>
    11f7: 20 1d 26     	jsr	$261d <bitmapClear>
    11fa: 9c 00 d1     	stz	$d100                   ; 0xd100 <__heap_start+0x867c>
    11fd: 9c 08 d1     	stz	$d108                   ; 0xd108 <__heap_start+0x8684>
    1200: 9c 10 d1     	stz	$d110                   ; 0xd110 <__heap_start+0x868c>
    1203: ad 01 d0     	lda	$d001                   ; 0xd001 <__heap_start+0x857d>
    1206: 29 ef        	and	#$ef
    1208: 8d 01 d0     	sta	$d001                   ; 0xd001 <__heap_start+0x857d>
    120b: a6 01        	ldx	$1                      ; 0x1 <__data_size+0x1>
    120d: 86 16        	stx	$16                     ; 0x16 <__rc6>
    120f: a2 50        	ldx	#$50
    1211: 8e 00 de     	stx	$de00                   ; 0xde00 <__heap_start+0x937c>
    1214: 9c 01 de     	stz	$de01                   ; 0xde01 <__heap_start+0x937d>
    1217: a2 1e        	ldx	#$1e
    1219: 8e 02 de     	stx	$de02                   ; 0xde02 <__heap_start+0x937e>
    121c: 9c 03 de     	stz	$de03                   ; 0xde03 <__heap_start+0x937f>
    121f: ae 10 de     	ldx	$de10                   ; 0xde10 <__heap_start+0x938c>
    1222: ac 11 de     	ldy	$de11                   ; 0xde11 <__heap_start+0x938d>
    1225: ad 12 de     	lda	$de12                   ; 0xde12 <__heap_start+0x938e>
    1228: ad 13 de     	lda	$de13                   ; 0xde13 <__heap_start+0x938f>
    122b: a5 24        	lda	$24                     ; 0x24 <__rc20>
    122d: 85 01        	sta	$1                      ; 0x1 <__data_size+0x1>
    122f: e0 01        	cpx	#$1
    1231: 98           	tya
    1232: e9 00        	sbc	#$0
    1234: 50 02        	bvc	$1238 <main+0xc27>
    1236: 49 80        	eor	#$80
    1238: 48           	pha
    1239: 5a           	phy
    123a: a0 0c        	ldy	#$c
    123c: b1 10        	lda	($10),y                 ; 0x10 <__rc0>
    123e: 85 18        	sta	$18                     ; 0x18 <__rc8>
    1240: c8           	iny
    1241: b1 10        	lda	($10),y                 ; 0x10 <__rc0>
    1243: 7a           	ply
    1244: 85 19        	sta	$19                     ; 0x19 <__rc9>
    1246: 68           	pla
    1247: 30 50        	bmi	$1299 <main+0xc88>
    1249: a9 20        	lda	#$20
    124b: 86 17        	stx	$17                     ; 0x17 <__rc7>
    124d: 86 12        	stx	$12                     ; 0x12 <__rc2>
    124f: 84 13        	sty	$13                     ; 0x13 <__rc3>
    1251: a6 18        	ldx	$18                     ; 0x18 <__rc8>
    1253: 86 14        	stx	$14                     ; 0x14 <__rc4>
    1255: a6 19        	ldx	$19                     ; 0x19 <__rc9>
    1257: 86 15        	stx	$15                     ; 0x15 <__rc5>
    1259: 80 04        	bra	$125f <main+0xc4e>
    125b: a6 13        	ldx	$13                     ; 0x13 <__rc3>
    125d: f0 14        	beq	$1273 <main+0xc62>
    125f: 92 14        	sta	($14)                   ; 0x14 <__rc4>
    1261: e6 14        	inc	$14                     ; 0x14 <__rc4>
    1263: d0 02        	bne	$1267 <main+0xc56>
    1265: e6 15        	inc	$15                     ; 0x15 <__rc5>
    1267: a2 ff        	ldx	#$ff
    1269: c6 12        	dec	$12                     ; 0x12 <__rc2>
    126b: e4 12        	cpx	$12                     ; 0x12 <__rc2>
    126d: d0 ec        	bne	$125b <main+0xc4a>
    126f: c6 13        	dec	$13                     ; 0x13 <__rc3>
    1271: 80 e8        	bra	$125b <main+0xc4a>
    1273: a6 12        	ldx	$12                     ; 0x12 <__rc2>
    1275: d0 e8        	bne	$125f <main+0xc4e>
    1277: a2 03        	ldx	#$3
    1279: 86 01        	stx	$1                      ; 0x1 <__data_size+0x1>
    127b: a6 17        	ldx	$17                     ; 0x17 <__rc7>
    127d: 80 03        	bra	$1282 <main+0xc71>
    127f: 98           	tya
    1280: f0 12        	beq	$1294 <main+0xc83>
    1282: a9 f0        	lda	#$f0
    1284: 92 18        	sta	($18)                   ; 0x18 <__rc8>
    1286: e6 18        	inc	$18                     ; 0x18 <__rc8>
    1288: d0 02        	bne	$128c <main+0xc7b>
    128a: e6 19        	inc	$19                     ; 0x19 <__rc9>
    128c: ca           	dex
    128d: e0 ff        	cpx	#$ff
    128f: d0 ee        	bne	$127f <main+0xc6e>
    1291: 88           	dey
    1292: 80 eb        	bra	$127f <main+0xc6e>
    1294: 8a           	txa
    1295: d0 eb        	bne	$1282 <main+0xc71>
    1297: 80 04        	bra	$129d <main+0xc8c>
    1299: a2 03        	ldx	#$3
    129b: 86 01        	stx	$1                      ; 0x1 <__data_size+0x1>
    129d: a6 16        	ldx	$16                     ; 0x16 <__rc6>
    129f: 86 01        	stx	$1                      ; 0x1 <__data_size+0x1>
    12a1: 64 61        	stz	$61                     ; 0x61 <_col>
    12a3: 9c 14 d0     	stz	$d014                   ; 0xd014 <__heap_start+0x8590>
    12a6: 9c 15 d0     	stz	$d015                   ; 0xd015 <__heap_start+0x8591>
    12a9: 64 62        	stz	$62                     ; 0x62 <_row>
    12ab: 9c 16 d0     	stz	$d016                   ; 0xd016 <__heap_start+0x8592>
    12ae: 9c 17 d0     	stz	$d017                   ; 0xd017 <__heap_start+0x8593>
    12b1: a2 01        	ldx	#$1
    12b3: 8e 80 d5     	stx	$d580                   ; 0xd580 <__heap_start+0x8afc>
    12b6: a0 20        	ldy	#$20
    12b8: 8c 81 d5     	sty	$d581                   ; 0xd581 <__heap_start+0x8afd>
    12bb: a0 02        	ldy	#$2
    12bd: 8c 80 d5     	sty	$d580                   ; 0xd580 <__heap_start+0x8afc>
    12c0: 9c 81 d5     	stz	$d581                   ; 0xd581 <__heap_start+0x8afd>
    12c3: c8           	iny
    12c4: 8c 80 d5     	sty	$d580                   ; 0xd580 <__heap_start+0x8afc>
    12c7: 9c 81 d5     	stz	$d581                   ; 0xd581 <__heap_start+0x8afd>
    12ca: c8           	iny
    12cb: 8c 82 d5     	sty	$d582                   ; 0xd582 <__heap_start+0x8afe>
    12ce: 9c 81 d5     	stz	$d581                   ; 0xd581 <__heap_start+0x8afd>
    12d1: c8           	iny
    12d2: 8c 82 d5     	sty	$d582                   ; 0xd582 <__heap_start+0x8afe>
    12d5: 8e 81 d5     	stx	$d581                   ; 0xd581 <__heap_start+0x8afd>
    12d8: a2 08        	ldx	#$8
    12da: 8e 80 d5     	stx	$d580                   ; 0xd580 <__heap_start+0x8afc>
    12dd: 9c 81 d5     	stz	$d581                   ; 0xd581 <__heap_start+0x8afd>
    12e0: a2 bd        	ldx	#$bd
    12e2: 8e 80 d5     	stx	$d580                   ; 0xd580 <__heap_start+0x8afc>
    12e5: 9c 81 d5     	stz	$d581                   ; 0xd581 <__heap_start+0x8afd>
    12e8: a2 c0        	ldx	#$c0
    12ea: 8e 80 d5     	stx	$d580                   ; 0xd580 <__heap_start+0x8afc>
    12ed: 8a           	txa
    12ee: a2 30        	ldx	#$30
    12f0: 8e 81 d5     	stx	$d581                   ; 0xd581 <__heap_start+0x8afd>
    12f3: a0 c1        	ldy	#$c1
    12f5: 8c 80 d5     	sty	$d580                   ; 0xd580 <__heap_start+0x8afc>
    12f8: 84 13        	sty	$13                     ; 0x13 <__rc3>
    12fa: 8e 81 d5     	stx	$d581                   ; 0xd581 <__heap_start+0x8afd>
    12fd: c8           	iny
    12fe: 8c 80 d5     	sty	$d580                   ; 0xd580 <__heap_start+0x8afc>
    1301: 84 14        	sty	$14                     ; 0x14 <__rc4>
    1303: 8e 81 d5     	stx	$d581                   ; 0xd581 <__heap_start+0x8afd>
    1306: c8           	iny
    1307: 8c 80 d5     	sty	$d580                   ; 0xd580 <__heap_start+0x8afc>
    130a: 84 15        	sty	$15                     ; 0x15 <__rc5>
    130c: 8e 81 d5     	stx	$d581                   ; 0xd581 <__heap_start+0x8afd>
    130f: c8           	iny
    1310: 8c 80 d5     	sty	$d580                   ; 0xd580 <__heap_start+0x8afc>
    1313: 84 16        	sty	$16                     ; 0x16 <__rc6>
    1315: 8e 81 d5     	stx	$d581                   ; 0xd581 <__heap_start+0x8afd>
    1318: c8           	iny
    1319: 8c 80 d5     	sty	$d580                   ; 0xd580 <__heap_start+0x8afc>
    131c: 84 17        	sty	$17                     ; 0x17 <__rc7>
    131e: 8e 81 d5     	stx	$d581                   ; 0xd581 <__heap_start+0x8afd>
    1321: c8           	iny
    1322: 8c 80 d5     	sty	$d580                   ; 0xd580 <__heap_start+0x8afc>
    1325: 84 18        	sty	$18                     ; 0x18 <__rc8>
    1327: 8e 81 d5     	stx	$d581                   ; 0xd581 <__heap_start+0x8afd>
    132a: c8           	iny
    132b: 8c 80 d5     	sty	$d580                   ; 0xd580 <__heap_start+0x8afc>
    132e: 84 19        	sty	$19                     ; 0x19 <__rc9>
    1330: 8e 81 d5     	stx	$d581                   ; 0xd581 <__heap_start+0x8afd>
    1333: c8           	iny
    1334: 8c 80 d5     	sty	$d580                   ; 0xd580 <__heap_start+0x8afc>
    1337: 8e 81 d5     	stx	$d581                   ; 0xd581 <__heap_start+0x8afd>
    133a: 8d 82 d5     	sta	$d582                   ; 0xd582 <__heap_start+0x8afe>
    133d: 8e 81 d5     	stx	$d581                   ; 0xd581 <__heap_start+0x8afd>
    1340: a5 13        	lda	$13                     ; 0x13 <__rc3>
    1342: 8d 82 d5     	sta	$d582                   ; 0xd582 <__heap_start+0x8afe>
    1345: 8e 81 d5     	stx	$d581                   ; 0xd581 <__heap_start+0x8afd>
    1348: a5 14        	lda	$14                     ; 0x14 <__rc4>
    134a: 8d 82 d5     	sta	$d582                   ; 0xd582 <__heap_start+0x8afe>
    134d: 8e 81 d5     	stx	$d581                   ; 0xd581 <__heap_start+0x8afd>
    1350: a5 15        	lda	$15                     ; 0x15 <__rc5>
    1352: 8d 82 d5     	sta	$d582                   ; 0xd582 <__heap_start+0x8afe>
    1355: 8e 81 d5     	stx	$d581                   ; 0xd581 <__heap_start+0x8afd>
    1358: a5 16        	lda	$16                     ; 0x16 <__rc6>
    135a: 8d 82 d5     	sta	$d582                   ; 0xd582 <__heap_start+0x8afe>
    135d: 8e 81 d5     	stx	$d581                   ; 0xd581 <__heap_start+0x8afd>
    1360: a5 17        	lda	$17                     ; 0x17 <__rc7>
    1362: 8d 82 d5     	sta	$d582                   ; 0xd582 <__heap_start+0x8afe>
    1365: 8e 81 d5     	stx	$d581                   ; 0xd581 <__heap_start+0x8afd>
    1368: a5 18        	lda	$18                     ; 0x18 <__rc8>
    136a: 8d 82 d5     	sta	$d582                   ; 0xd582 <__heap_start+0x8afe>
    136d: 8e 81 d5     	stx	$d581                   ; 0xd581 <__heap_start+0x8afd>
    1370: a5 19        	lda	$19                     ; 0x19 <__rc9>
    1372: 8d 82 d5     	sta	$d582                   ; 0xd582 <__heap_start+0x8afe>
    1375: 8e 81 d5     	stx	$d581                   ; 0xd581 <__heap_start+0x8afd>
    1378: 8c 82 d5     	sty	$d582                   ; 0xd582 <__heap_start+0x8afe>
    137b: 8e 81 d5     	stx	$d581                   ; 0xd581 <__heap_start+0x8afd>
    137e: a2 b0        	ldx	#$b0
    1380: 8e 80 d5     	stx	$d580                   ; 0xd580 <__heap_start+0x8afc>
    1383: 8a           	txa
    1384: 9c 81 d5     	stz	$d581                   ; 0xd581 <__heap_start+0x8afd>
    1387: a2 a0        	ldx	#$a0
    1389: 8e 80 d5     	stx	$d580                   ; 0xd580 <__heap_start+0x8afc>
    138c: 86 13        	stx	$13                     ; 0x13 <__rc3>
    138e: 9c 81 d5     	stz	$d581                   ; 0xd581 <__heap_start+0x8afd>
    1391: a2 b1        	ldx	#$b1
    1393: 8e 80 d5     	stx	$d580                   ; 0xd580 <__heap_start+0x8afc>
    1396: 86 14        	stx	$14                     ; 0x14 <__rc4>
    1398: 9c 81 d5     	stz	$d581                   ; 0xd581 <__heap_start+0x8afd>
    139b: a2 a1        	ldx	#$a1
    139d: 8e 80 d5     	stx	$d580                   ; 0xd580 <__heap_start+0x8afc>
    13a0: 86 15        	stx	$15                     ; 0x15 <__rc5>
    13a2: 9c 81 d5     	stz	$d581                   ; 0xd581 <__heap_start+0x8afd>
    13a5: a2 b2        	ldx	#$b2
    13a7: 8e 80 d5     	stx	$d580                   ; 0xd580 <__heap_start+0x8afc>
    13aa: 86 16        	stx	$16                     ; 0x16 <__rc6>
    13ac: 9c 81 d5     	stz	$d581                   ; 0xd581 <__heap_start+0x8afd>
    13af: a2 a2        	ldx	#$a2
    13b1: 8e 80 d5     	stx	$d580                   ; 0xd580 <__heap_start+0x8afc>
    13b4: 86 17        	stx	$17                     ; 0x17 <__rc7>
    13b6: 9c 81 d5     	stz	$d581                   ; 0xd581 <__heap_start+0x8afd>
    13b9: a2 b3        	ldx	#$b3
    13bb: 8e 80 d5     	stx	$d580                   ; 0xd580 <__heap_start+0x8afc>
    13be: 86 18        	stx	$18                     ; 0x18 <__rc8>
    13c0: 9c 81 d5     	stz	$d581                   ; 0xd581 <__heap_start+0x8afd>
    13c3: a2 a3        	ldx	#$a3
    13c5: 8e 80 d5     	stx	$d580                   ; 0xd580 <__heap_start+0x8afc>
    13c8: 86 19        	stx	$19                     ; 0x19 <__rc9>
    13ca: 9c 81 d5     	stz	$d581                   ; 0xd581 <__heap_start+0x8afd>
    13cd: a2 b4        	ldx	#$b4
    13cf: 8e 80 d5     	stx	$d580                   ; 0xd580 <__heap_start+0x8afc>
    13d2: 86 1a        	stx	$1a                     ; 0x1a <__rc10>
    13d4: 9c 81 d5     	stz	$d581                   ; 0xd581 <__heap_start+0x8afd>
    13d7: a2 a4        	ldx	#$a4
    13d9: 8e 80 d5     	stx	$d580                   ; 0xd580 <__heap_start+0x8afc>
    13dc: 86 1b        	stx	$1b                     ; 0x1b <__rc11>
    13de: 9c 81 d5     	stz	$d581                   ; 0xd581 <__heap_start+0x8afd>
    13e1: a2 b5        	ldx	#$b5
    13e3: 8e 80 d5     	stx	$d580                   ; 0xd580 <__heap_start+0x8afc>
    13e6: 86 1c        	stx	$1c                     ; 0x1c <__rc12>
    13e8: 9c 81 d5     	stz	$d581                   ; 0xd581 <__heap_start+0x8afd>
    13eb: a2 a5        	ldx	#$a5
    13ed: 8e 80 d5     	stx	$d580                   ; 0xd580 <__heap_start+0x8afc>
    13f0: 86 1d        	stx	$1d                     ; 0x1d <__rc13>
    13f2: 9c 81 d5     	stz	$d581                   ; 0xd581 <__heap_start+0x8afd>
    13f5: a2 b6        	ldx	#$b6
    13f7: 8e 80 d5     	stx	$d580                   ; 0xd580 <__heap_start+0x8afc>
    13fa: 86 1e        	stx	$1e                     ; 0x1e <__rc14>
    13fc: 9c 81 d5     	stz	$d581                   ; 0xd581 <__heap_start+0x8afd>
    13ff: a2 a6        	ldx	#$a6
    1401: 8e 80 d5     	stx	$d580                   ; 0xd580 <__heap_start+0x8afc>
    1404: 86 1f        	stx	$1f                     ; 0x1f <__rc15>
    1406: 9c 81 d5     	stz	$d581                   ; 0xd581 <__heap_start+0x8afd>
    1409: a2 b7        	ldx	#$b7
    140b: 8e 80 d5     	stx	$d580                   ; 0xd580 <__heap_start+0x8afc>
    140e: 86 22        	stx	$22                     ; 0x22 <__rc18>
    1410: 9c 81 d5     	stz	$d581                   ; 0xd581 <__heap_start+0x8afd>
    1413: a2 a7        	ldx	#$a7
    1415: 8e 80 d5     	stx	$d580                   ; 0xd580 <__heap_start+0x8afc>
    1418: 86 23        	stx	$23                     ; 0x23 <__rc19>
    141a: 9c 81 d5     	stz	$d581                   ; 0xd581 <__heap_start+0x8afd>
    141d: a0 b8        	ldy	#$b8
    141f: 8c 80 d5     	sty	$d580                   ; 0xd580 <__heap_start+0x8afc>
    1422: 9c 81 d5     	stz	$d581                   ; 0xd581 <__heap_start+0x8afd>
    1425: e8           	inx
    1426: 8e 80 d5     	stx	$d580                   ; 0xd580 <__heap_start+0x8afc>
    1429: 9c 81 d5     	stz	$d581                   ; 0xd581 <__heap_start+0x8afd>
    142c: 8d 82 d5     	sta	$d582                   ; 0xd582 <__heap_start+0x8afe>
    142f: 9c 81 d5     	stz	$d581                   ; 0xd581 <__heap_start+0x8afd>
    1432: a5 13        	lda	$13                     ; 0x13 <__rc3>
    1434: 8d 82 d5     	sta	$d582                   ; 0xd582 <__heap_start+0x8afe>
    1437: 9c 81 d5     	stz	$d581                   ; 0xd581 <__heap_start+0x8afd>
    143a: a5 14        	lda	$14                     ; 0x14 <__rc4>
    143c: 8d 82 d5     	sta	$d582                   ; 0xd582 <__heap_start+0x8afe>
    143f: 9c 81 d5     	stz	$d581                   ; 0xd581 <__heap_start+0x8afd>
    1442: a5 15        	lda	$15                     ; 0x15 <__rc5>
    1444: 8d 82 d5     	sta	$d582                   ; 0xd582 <__heap_start+0x8afe>
    1447: 9c 81 d5     	stz	$d581                   ; 0xd581 <__heap_start+0x8afd>
    144a: a5 16        	lda	$16                     ; 0x16 <__rc6>
    144c: 8d 82 d5     	sta	$d582                   ; 0xd582 <__heap_start+0x8afe>
    144f: 9c 81 d5     	stz	$d581                   ; 0xd581 <__heap_start+0x8afd>
    1452: a5 17        	lda	$17                     ; 0x17 <__rc7>
    1454: 8d 82 d5     	sta	$d582                   ; 0xd582 <__heap_start+0x8afe>
    1457: 9c 81 d5     	stz	$d581                   ; 0xd581 <__heap_start+0x8afd>
    145a: a5 18        	lda	$18                     ; 0x18 <__rc8>
    145c: 8d 82 d5     	sta	$d582                   ; 0xd582 <__heap_start+0x8afe>
    145f: 9c 81 d5     	stz	$d581                   ; 0xd581 <__heap_start+0x8afd>
    1462: a5 19        	lda	$19                     ; 0x19 <__rc9>
    1464: 8d 82 d5     	sta	$d582                   ; 0xd582 <__heap_start+0x8afe>
    1467: 9c 81 d5     	stz	$d581                   ; 0xd581 <__heap_start+0x8afd>
    146a: a5 1a        	lda	$1a                     ; 0x1a <__rc10>
    146c: 8d 82 d5     	sta	$d582                   ; 0xd582 <__heap_start+0x8afe>
    146f: 9c 81 d5     	stz	$d581                   ; 0xd581 <__heap_start+0x8afd>
    1472: a5 1b        	lda	$1b                     ; 0x1b <__rc11>
    1474: 8d 82 d5     	sta	$d582                   ; 0xd582 <__heap_start+0x8afe>
    1477: 9c 81 d5     	stz	$d581                   ; 0xd581 <__heap_start+0x8afd>
    147a: a5 1c        	lda	$1c                     ; 0x1c <__rc12>
    147c: 8d 82 d5     	sta	$d582                   ; 0xd582 <__heap_start+0x8afe>
    147f: 9c 81 d5     	stz	$d581                   ; 0xd581 <__heap_start+0x8afd>
    1482: a5 1d        	lda	$1d                     ; 0x1d <__rc13>
    1484: 8d 82 d5     	sta	$d582                   ; 0xd582 <__heap_start+0x8afe>
    1487: 9c 81 d5     	stz	$d581                   ; 0xd581 <__heap_start+0x8afd>
    148a: a5 1e        	lda	$1e                     ; 0x1e <__rc14>
    148c: 8d 82 d5     	sta	$d582                   ; 0xd582 <__heap_start+0x8afe>
    148f: 9c 81 d5     	stz	$d581                   ; 0xd581 <__heap_start+0x8afd>
    1492: a5 1f        	lda	$1f                     ; 0x1f <__rc15>
    1494: 8d 82 d5     	sta	$d582                   ; 0xd582 <__heap_start+0x8afe>
    1497: 9c 81 d5     	stz	$d581                   ; 0xd581 <__heap_start+0x8afd>
    149a: a5 22        	lda	$22                     ; 0x22 <__rc18>
    149c: 8d 82 d5     	sta	$d582                   ; 0xd582 <__heap_start+0x8afe>
    149f: 9c 81 d5     	stz	$d581                   ; 0xd581 <__heap_start+0x8afd>
    14a2: a5 23        	lda	$23                     ; 0x23 <__rc19>
    14a4: 8d 82 d5     	sta	$d582                   ; 0xd582 <__heap_start+0x8afe>
    14a7: 9c 81 d5     	stz	$d581                   ; 0xd581 <__heap_start+0x8afd>
    14aa: 8c 82 d5     	sty	$d582                   ; 0xd582 <__heap_start+0x8afe>
    14ad: a0 00        	ldy	#$0
    14af: 9c 81 d5     	stz	$d581                   ; 0xd581 <__heap_start+0x8afd>
    14b2: 8e 82 d5     	stx	$d582                   ; 0xd582 <__heap_start+0x8afe>
    14b5: 9c 81 d5     	stz	$d581                   ; 0xd581 <__heap_start+0x8afd>
    14b8: a2 34        	ldx	#$34
    14ba: 86 12        	stx	$12                     ; 0x12 <__rc2>
    14bc: a2 49        	ldx	#$49
    14be: 86 13        	stx	$13                     ; 0x13 <__rc3>
    14c0: 80 0a        	bra	$14cc <main+0xebb>
    14c2: a2 02        	ldx	#$2
    14c4: e6 12        	inc	$12                     ; 0x12 <__rc2>
    14c6: d0 02        	bne	$14ca <main+0xeb9>
    14c8: e6 13        	inc	$13                     ; 0x13 <__rc3>
    14ca: da           	phx
    14cb: 7a           	ply
    14cc: b2 12        	lda	($12)                   ; 0x12 <__rc2>
    14ce: c9 61        	cmp	#$61
    14d0: f0 f0        	beq	$14c2 <main+0xeb1>
    14d2: a2 01        	ldx	#$1
    14d4: c9 77        	cmp	#$77
    14d6: f0 05        	beq	$14dd <main+0xecc>
    14d8: aa           	tax
    14d9: f0 08        	beq	$14e3 <main+0xed2>
    14db: 5a           	phy
    14dc: fa           	plx
    14dd: e6 12        	inc	$12                     ; 0x12 <__rc2>
    14df: d0 e9        	bne	$14ca <main+0xeb9>
    14e1: 80 e5        	bra	$14c8 <main+0xeb7>
    14e3: a2 ed        	ldx	#$ed
    14e5: a9 48        	lda	#$48
    14e7: 86 fb        	stx	$fb                     ; 0xfb <__pal_size+0x7b>
    14e9: 85 fc        	sta	$fc                     ; 0xfc <__pal_size+0x7c>
    14eb: a2 15        	ldx	#$15
    14ed: 86 fd        	stx	$fd                     ; 0xfd <__pal_size+0x7d>
    14ef: 64 f3        	stz	$f3                     ; 0xf3 <__pal_size+0x73>
    14f1: 84 f5        	sty	$f5                     ; 0xf5 <__pal_size+0x75>
    14f3: a2 78        	ldx	#$78
    14f5: 86 12        	stx	$12                     ; 0x12 <__rc2>
    14f7: a2 00        	ldx	#$0
    14f9: 86 13        	stx	$13                     ; 0x13 <__rc3>
    14fb: 20 5c ff     	jsr	$ff5c <__heap_start+0xb4d8>
    14fe: 92 28        	sta	($28)                   ; 0x28 <__rc24>
    1500: a9 00        	lda	#$0
    1502: 6a           	ror
    1503: 85 12        	sta	$12                     ; 0x12 <__rc2>
    1505: a6 78        	ldx	$78                     ; 0x78 <kernelError>
    1507: f0 17        	beq	$1520 <main+0xf0f>
    1509: a2 00        	ldx	#$0
    150b: 86 12        	stx	$12                     ; 0x12 <__rc2>
    150d: a2 00        	ldx	#$0
    150f: 86 13        	stx	$13                     ; 0x13 <__rc3>
    1511: a6 12        	ldx	$12                     ; 0x12 <__rc2>
    1513: a4 13        	ldy	$13                     ; 0x13 <__rc3>
    1515: 8e 6e 49     	stx	$496e                   ; 0x496e <theFile>
    1518: 8c 6f 49     	sty	$496f                   ; 0x496f <theFile+0x1>
    151b: 20 6a 34     	jsr	$346a <printf>
    151e: 80 fe        	bra	$151e <main+0xf0d>
    1520: b2 28        	lda	($28)                   ; 0x28 <__rc24>
    1522: 85 24        	sta	$24                     ; 0x24 <__rc20>
    1524: a2 78        	ldx	#$78
    1526: 86 12        	stx	$12                     ; 0x12 <__rc2>
    1528: a2 00        	ldx	#$0
    152a: 86 13        	stx	$13                     ; 0x13 <__rc3>
    152c: 64 71        	stz	$71                     ; 0x71 <kernelEventData>
    152e: 20 00 ff     	jsr	$ff00 <__heap_start+0xb47c>
    1531: 92 28        	sta	($28)                   ; 0x28 <__rc24>
    1533: a9 00        	lda	#$0
    1535: 6a           	ror
    1536: 85 12        	sta	$12                     ; 0x12 <__rc2>
    1538: a6 71        	ldx	$71                     ; 0x71 <kernelEventData>
    153a: e0 28        	cpx	#$28
    153c: f0 cb        	beq	$1509 <main+0xef8>
    153e: e0 2a        	cpx	#$2a
    1540: f0 06        	beq	$1548 <main+0xf37>
    1542: e0 38        	cpx	#$38
    1544: d0 e6        	bne	$152c <main+0xf1b>
    1546: 80 c1        	bra	$1509 <main+0xef8>
    1548: a0 08        	ldy	#$8
    154a: b1 10        	lda	($10),y                 ; 0x10 <__rc0>
    154c: 85 2a        	sta	$2a                     ; 0x2a <__rc26>
    154e: c8           	iny
    154f: b1 10        	lda	($10),y                 ; 0x10 <__rc0>
    1551: 85 2b        	sta	$2b                     ; 0x2b <__rc27>
    1553: a9 01        	lda	#$1
    1555: a2 00        	ldx	#$0
    1557: 20 dc 41     	jsr	$41dc <malloc>
    155a: a6 12        	ldx	$12                     ; 0x12 <__rc2>
    155c: 86 26        	stx	$26                     ; 0x26 <__rc22>
    155e: a6 13        	ldx	$13                     ; 0x13 <__rc3>
    1560: 86 27        	stx	$27                     ; 0x27 <__rc23>
    1562: a5 24        	lda	$24                     ; 0x24 <__rc20>
    1564: 92 12        	sta	($12)                   ; 0x12 <__rc2>
    1566: a6 26        	ldx	$26                     ; 0x26 <__rc22>
    1568: a4 27        	ldy	$27                     ; 0x27 <__rc23>
    156a: 8e 6e 49     	stx	$496e                   ; 0x496e <theFile>
    156d: 8c 6f 49     	sty	$496f                   ; 0x496f <theFile+0x1>
    1570: 64 7e        	stz	$7e                     ; 0x7e <gd3Location>
    1572: 64 7f        	stz	$7f                     ; 0x7f <gd3Location+0x1>
    1574: 64 80        	stz	$80                     ; 0x80 <gd3Location+0x2>
    1576: 64 81        	stz	$81                     ; 0x81 <gd3Location+0x3>
    1578: 64 7d        	stz	$7d                     ; 0x7d <oneLoop>
    157a: a2 10        	ldx	#$10
    157c: 86 24        	stx	$24                     ; 0x24 <__rc20>
    157e: 64 25        	stz	$25                     ; 0x25 <__rc21>
    1580: 64 2c        	stz	$2c                     ; 0x2c <__rc28>
    1582: 80 16        	bra	$159a <main+0xf89>
    1584: a2 05        	ldx	#$5
    1586: 8e 82 d5     	stx	$d582                   ; 0xd582 <__heap_start+0x8afe>
    1589: a2 01        	ldx	#$1
    158b: 8e 81 d5     	stx	$d581                   ; 0xd581 <__heap_start+0x8afd>
    158e: a6 12        	ldx	$12                     ; 0x12 <__rc2>
    1590: e8           	inx
    1591: 86 25        	stx	$25                     ; 0x25 <__rc21>
    1593: e0 08        	cpx	#$8
    1595: d0 03        	bne	$159a <main+0xf89>
    1597: 4c 1b 17     	jmp	$171b <main+0x110a>
    159a: a6 28        	ldx	$28                     ; 0x28 <__rc24>
    159c: 86 12        	stx	$12                     ; 0x12 <__rc2>
    159e: a6 29        	ldx	$29                     ; 0x29 <__rc25>
    15a0: 86 13        	stx	$13                     ; 0x13 <__rc3>
    15a2: a6 26        	ldx	$26                     ; 0x26 <__rc22>
    15a4: 86 14        	stx	$14                     ; 0x14 <__rc4>
    15a6: a6 27        	ldx	$27                     ; 0x27 <__rc23>
    15a8: 86 15        	stx	$15                     ; 0x15 <__rc5>
    15aa: a2 00        	ldx	#$0
    15ac: a5 24        	lda	$24                     ; 0x24 <__rc20>
    15ae: 20 fe 2a     	jsr	$2afe <fileRead>
    15b1: a6 25        	ldx	$25                     ; 0x25 <__rc21>
    15b3: 86 12        	stx	$12                     ; 0x12 <__rc2>
    15b5: e0 06        	cpx	#$6
    15b7: b0 d5        	bcs	$158e <main+0xf7d>
    15b9: 8a           	txa
    15ba: 0a           	asl
    15bb: aa           	tax
    15bc: 7c 23 45     	jmp	($4523,x)               ; 0x4523 <__BLOCK_SIZE+0x2523>
    15bf: 18           	clc
    15c0: a5 10        	lda	$10                     ; 0x10 <__rc0>
    15c2: 69 12        	adc	#$12
    15c4: 48           	pha
    15c5: a5 11        	lda	$11                     ; 0x11 <__rc1>
    15c7: 69 00        	adc	#$0
    15c9: a8           	tay
    15ca: 68           	pla
    15cb: 18           	clc
    15cc: aa           	tax
    15cd: 69 08        	adc	#$8
    15cf: 85 12        	sta	$12                     ; 0x12 <__rc2>
    15d1: 84 14        	sty	$14                     ; 0x14 <__rc4>
    15d3: 98           	tya
    15d4: 69 00        	adc	#$0
    15d6: 85 13        	sta	$13                     ; 0x13 <__rc3>
    15d8: a0 01        	ldy	#$1
    15da: b1 12        	lda	($12),y                 ; 0x12 <__rc2>
    15dc: c9 01        	cmp	#$1
    15de: f0 03        	beq	$15e3 <main+0xfd2>
    15e0: 4c 07 17     	jmp	$1707 <main+0x10f6>
    15e3: 86 12        	stx	$12                     ; 0x12 <__rc2>
    15e5: a6 14        	ldx	$14                     ; 0x14 <__rc4>
    15e7: 86 13        	stx	$13                     ; 0x13 <__rc3>
    15e9: a0 08        	ldy	#$8
    15eb: b1 12        	lda	($12),y                 ; 0x12 <__rc2>
    15ed: c9 50        	cmp	#$50
    15ef: 4c 09 17     	jmp	$1709 <main+0x10f8>
    15f2: a5 2c        	lda	$2c                     ; 0x2c <__rc28>
    15f4: f0 03        	beq	$15f9 <main+0xfe8>
    15f6: 4c 8e 15     	jmp	$158e <main+0xf7d>
    15f9: a9 34        	lda	#$34
    15fb: 18           	clc
    15fc: a0 04        	ldy	#$4
    15fe: 71 28        	adc	($28),y                 ; 0x28 <__rc24>
    1600: a6 25        	ldx	$25                     ; 0x25 <__rc21>
    1602: 86 12        	stx	$12                     ; 0x12 <__rc2>
    1604: 85 2c        	sta	$2c                     ; 0x2c <__rc28>
    1606: 4c 8e 15     	jmp	$158e <main+0xf7d>
    1609: 18           	clc
    160a: a5 10        	lda	$10                     ; 0x10 <__rc0>
    160c: 69 12        	adc	#$12
    160e: aa           	tax
    160f: a0 01        	ldy	#$1
    1611: b0 02        	bcs	$1615 <main+0x1004>
    1613: a0 00        	ldy	#$0
    1615: 84 19        	sty	$19                     ; 0x19 <__rc9>
    1617: 18           	clc
    1618: a5 10        	lda	$10                     ; 0x10 <__rc0>
    161a: 69 12        	adc	#$12
    161c: 48           	pha
    161d: a5 11        	lda	$11                     ; 0x11 <__rc1>
    161f: 69 00        	adc	#$0
    1621: a8           	tay
    1622: 68           	pla
    1623: 85 12        	sta	$12                     ; 0x12 <__rc2>
    1625: 84 13        	sty	$13                     ; 0x13 <__rc3>
    1627: 18           	clc
    1628: 69 04        	adc	#$4
    162a: 85 14        	sta	$14                     ; 0x14 <__rc4>
    162c: 98           	tya
    162d: 69 00        	adc	#$0
    162f: 18           	clc
    1630: 48           	pha
    1631: a5 10        	lda	$10                     ; 0x10 <__rc0>
    1633: 69 12        	adc	#$12
    1635: 85 1a        	sta	$1a                     ; 0x1a <__rc10>
    1637: a5 11        	lda	$11                     ; 0x11 <__rc1>
    1639: 69 00        	adc	#$0
    163b: 85 1b        	sta	$1b                     ; 0x1b <__rc11>
    163d: 68           	pla
    163e: 85 15        	sta	$15                     ; 0x15 <__rc5>
    1640: a0 04        	ldy	#$4
    1642: b1 12        	lda	($12),y                 ; 0x12 <__rc2>
    1644: 85 7e        	sta	$7e                     ; 0x7e <gd3Location>
    1646: a0 01        	ldy	#$1
    1648: b1 14        	lda	($14),y                 ; 0x14 <__rc4>
    164a: 84 16        	sty	$16                     ; 0x16 <__rc6>
    164c: 85 7f        	sta	$7f                     ; 0x7f <gd3Location+0x1>
    164e: c8           	iny
    164f: b1 14        	lda	($14),y                 ; 0x14 <__rc4>
    1651: 84 17        	sty	$17                     ; 0x17 <__rc7>
    1653: 85 80        	sta	$80                     ; 0x80 <gd3Location+0x2>
    1655: c8           	iny
    1656: b1 14        	lda	($14),y                 ; 0x14 <__rc4>
    1658: 84 18        	sty	$18                     ; 0x18 <__rc8>
    165a: 85 81        	sta	$81                     ; 0x81 <gd3Location+0x3>
    165c: 18           	clc
    165d: a5 1a        	lda	$1a                     ; 0x1a <__rc10>
    165f: 69 08        	adc	#$8
    1661: 85 14        	sta	$14                     ; 0x14 <__rc4>
    1663: a5 1b        	lda	$1b                     ; 0x1b <__rc11>
    1665: 69 00        	adc	#$0
    1667: a4 19        	ldy	$19                     ; 0x19 <__rc9>
    1669: c0 01        	cpy	#$1
    166b: 48           	pha
    166c: a5 11        	lda	$11                     ; 0x11 <__rc1>
    166e: 69 00        	adc	#$0
    1670: 85 19        	sta	$19                     ; 0x19 <__rc9>
    1672: 68           	pla
    1673: 85 15        	sta	$15                     ; 0x15 <__rc5>
    1675: a0 08        	ldy	#$8
    1677: b1 12        	lda	($12),y                 ; 0x12 <__rc2>
    1679: 85 82        	sta	$82                     ; 0x82 <totalWait>
    167b: a4 16        	ldy	$16                     ; 0x16 <__rc6>
    167d: b1 14        	lda	($14),y                 ; 0x14 <__rc4>
    167f: 85 83        	sta	$83                     ; 0x83 <totalWait+0x1>
    1681: a4 17        	ldy	$17                     ; 0x17 <__rc7>
    1683: b1 14        	lda	($14),y                 ; 0x14 <__rc4>
    1685: 85 84        	sta	$84                     ; 0x84 <totalWait+0x2>
    1687: a4 18        	ldy	$18                     ; 0x18 <__rc8>
    1689: b1 14        	lda	($14),y                 ; 0x14 <__rc4>
    168b: 85 85        	sta	$85                     ; 0x85 <totalWait+0x3>
    168d: 18           	clc
    168e: 8a           	txa
    168f: 69 0c        	adc	#$c
    1691: 85 14        	sta	$14                     ; 0x14 <__rc4>
    1693: a5 19        	lda	$19                     ; 0x19 <__rc9>
    1695: 69 00        	adc	#$0
    1697: 85 15        	sta	$15                     ; 0x15 <__rc5>
    1699: a0 0c        	ldy	#$c
    169b: b1 12        	lda	($12),y                 ; 0x12 <__rc2>
    169d: 85 86        	sta	$86                     ; 0x86 <loopBackTo>
    169f: a4 16        	ldy	$16                     ; 0x16 <__rc6>
    16a1: b1 14        	lda	($14),y                 ; 0x14 <__rc4>
    16a3: a6 25        	ldx	$25                     ; 0x25 <__rc21>
    16a5: 86 12        	stx	$12                     ; 0x12 <__rc2>
    16a7: 85 87        	sta	$87                     ; 0x87 <loopBackTo+0x1>
    16a9: a4 17        	ldy	$17                     ; 0x17 <__rc7>
    16ab: b1 14        	lda	($14),y                 ; 0x14 <__rc4>
    16ad: 85 88        	sta	$88                     ; 0x88 <loopBackTo+0x2>
    16af: a4 18        	ldy	$18                     ; 0x18 <__rc8>
    16b1: b1 14        	lda	($14),y                 ; 0x14 <__rc4>
    16b3: 85 89        	sta	$89                     ; 0x89 <loopBackTo+0x3>
    16b5: 4c 8e 15     	jmp	$158e <main+0xf7d>
    16b8: b2 28        	lda	($28)                   ; 0x28 <__rc24>
    16ba: d0 1c        	bne	$16d8 <main+0x10c7>
    16bc: a0 01        	ldy	#$1
    16be: b1 28        	lda	($28),y                 ; 0x28 <__rc24>
    16c0: a6 25        	ldx	$25                     ; 0x25 <__rc21>
    16c2: 86 12        	stx	$12                     ; 0x12 <__rc2>
    16c4: aa           	tax
    16c5: d0 11        	bne	$16d8 <main+0x10c7>
    16c7: a0 02        	ldy	#$2
    16c9: b1 28        	lda	($28),y                 ; 0x28 <__rc24>
    16cb: a6 25        	ldx	$25                     ; 0x25 <__rc21>
    16cd: 86 12        	stx	$12                     ; 0x12 <__rc2>
    16cf: aa           	tax
    16d0: d0 06        	bne	$16d8 <main+0x10c7>
    16d2: a0 03        	ldy	#$3
    16d4: b1 28        	lda	($28),y                 ; 0x28 <__rc24>
    16d6: f0 08        	beq	$16e0 <main+0x10cf>
    16d8: a2 05        	ldx	#$5
    16da: 8e 82 d5     	stx	$d582                   ; 0xd582 <__heap_start+0x8afe>
    16dd: 9c 81 d5     	stz	$d581                   ; 0xd581 <__heap_start+0x8afd>
    16e0: a0 0c        	ldy	#$c
    16e2: b1 28        	lda	($28),y                 ; 0x28 <__rc24>
    16e4: f0 03        	beq	$16e9 <main+0x10d8>
    16e6: 4c 84 15     	jmp	$1584 <main+0xf73>
    16e9: a0 0d        	ldy	#$d
    16eb: b1 28        	lda	($28),y                 ; 0x28 <__rc24>
    16ed: f0 03        	beq	$16f2 <main+0x10e1>
    16ef: 4c 84 15     	jmp	$1584 <main+0xf73>
    16f2: a0 0e        	ldy	#$e
    16f4: b1 28        	lda	($28),y                 ; 0x28 <__rc24>
    16f6: f0 03        	beq	$16fb <main+0x10ea>
    16f8: 4c 84 15     	jmp	$1584 <main+0xf73>
    16fb: a0 0f        	ldy	#$f
    16fd: b1 28        	lda	($28),y                 ; 0x28 <__rc24>
    16ff: f0 03        	beq	$1704 <main+0x10f3>
    1701: 4c 84 15     	jmp	$1584 <main+0xf73>
    1704: 4c 8e 15     	jmp	$158e <main+0xf7d>
    1707: c9 01        	cmp	#$1
    1709: a2 40        	ldx	#$40
    170b: 86 2c        	stx	$2c                     ; 0x2c <__rc28>
    170d: a6 25        	ldx	$25                     ; 0x25 <__rc21>
    170f: 86 12        	stx	$12                     ; 0x12 <__rc2>
    1711: b0 03        	bcs	$1716 <main+0x1105>
    1713: 4c 8e 15     	jmp	$158e <main+0xf7d>
    1716: 64 2c        	stz	$2c                     ; 0x2c <__rc28>
    1718: 4c 8e 15     	jmp	$158e <main+0xf7d>
    171b: b2 26        	lda	($26)                   ; 0x26 <__rc22>
    171d: 85 f3        	sta	$f3                     ; 0xf3 <__pal_size+0x73>
    171f: a6 2c        	ldx	$2c                     ; 0x2c <__rc28>
    1721: 86 f4        	stx	$f4                     ; 0xf4 <__pal_size+0x74>
    1723: 64 f5        	stz	$f5                     ; 0xf5 <__pal_size+0x75>
    1725: 64 f6        	stz	$f6                     ; 0xf6 <__pal_size+0x76>
    1727: 64 f7        	stz	$f7                     ; 0xf7 <__pal_size+0x77>
    1729: a2 78        	ldx	#$78
    172b: 86 12        	stx	$12                     ; 0x12 <__rc2>
    172d: a2 00        	ldx	#$0
    172f: 86 13        	stx	$13                     ; 0x13 <__rc3>
    1731: a0 0a        	ldy	#$a
    1733: b1 10        	lda	($10),y                 ; 0x10 <__rc0>
    1735: 85 14        	sta	$14                     ; 0x14 <__rc4>
    1737: c8           	iny
    1738: b1 10        	lda	($10),y                 ; 0x10 <__rc0>
    173a: 85 15        	sta	$15                     ; 0x15 <__rc5>
    173c: 20 74 ff     	jsr	$ff74 <__heap_start+0xb4f0>
    173f: 92 14        	sta	($14)                   ; 0x14 <__rc4>
    1741: a9 00        	lda	#$0
    1743: 6a           	ror
    1744: 85 12        	sta	$12                     ; 0x12 <__rc2>
    1746: a6 26        	ldx	$26                     ; 0x26 <__rc22>
    1748: 86 12        	stx	$12                     ; 0x12 <__rc2>
    174a: a6 27        	ldx	$27                     ; 0x27 <__rc23>
    174c: 86 13        	stx	$13                     ; 0x13 <__rc3>
    174e: 20 83 30     	jsr	$3083 <copyToRAM>
    1751: 64 8a        	stz	$8a                     ; 0x8a <needle>
    1753: 64 8b        	stz	$8b                     ; 0x8b <needle+0x1>
    1755: a2 10        	ldx	#$10
    1757: 86 8c        	stx	$8c                     ; 0x8c <needle+0x2>
    1759: 64 8d        	stz	$8d                     ; 0x8d <needle+0x3>
    175b: a6 86        	ldx	$86                     ; 0x86 <loopBackTo>
    175d: 86 16        	stx	$16                     ; 0x16 <__rc6>
    175f: a5 87        	lda	$87                     ; 0x87 <loopBackTo+0x1>
    1761: a4 88        	ldy	$88                     ; 0x88 <loopBackTo+0x2>
    1763: a6 89        	ldx	$89                     ; 0x89 <loopBackTo+0x3>
    1765: d0 0e        	bne	$1775 <main+0x1164>
    1767: c0 00        	cpy	#$0
    1769: d0 0a        	bne	$1775 <main+0x1164>
    176b: c9 00        	cmp	#$0
    176d: d0 06        	bne	$1775 <main+0x1164>
    176f: e6 16        	inc	$16                     ; 0x16 <__rc6>
    1771: c6 16        	dec	$16                     ; 0x16 <__rc6>
    1773: f0 40        	beq	$17b5 <main+0x11a4>
    1775: 84 12        	sty	$12                     ; 0x12 <__rc2>
    1777: 85 13        	sta	$13                     ; 0x13 <__rc3>
    1779: 86 15        	stx	$15                     ; 0x15 <__rc5>
    177b: 38           	sec
    177c: a5 16        	lda	$16                     ; 0x16 <__rc6>
    177e: e5 2c        	sbc	$2c                     ; 0x2c <__rc28>
    1780: aa           	tax
    1781: a5 13        	lda	$13                     ; 0x13 <__rc3>
    1783: e9 00        	sbc	#$0
    1785: a8           	tay
    1786: a5 12        	lda	$12                     ; 0x12 <__rc2>
    1788: e9 00        	sbc	#$0
    178a: 85 13        	sta	$13                     ; 0x13 <__rc3>
    178c: a5 15        	lda	$15                     ; 0x15 <__rc5>
    178e: e9 00        	sbc	#$0
    1790: 85 15        	sta	$15                     ; 0x15 <__rc5>
    1792: 18           	clc
    1793: 8a           	txa
    1794: 69 00        	adc	#$0
    1796: 85 12        	sta	$12                     ; 0x12 <__rc2>
    1798: 98           	tya
    1799: 69 00        	adc	#$0
    179b: 85 14        	sta	$14                     ; 0x14 <__rc4>
    179d: a5 13        	lda	$13                     ; 0x13 <__rc3>
    179f: 69 10        	adc	#$10
    17a1: 85 13        	sta	$13                     ; 0x13 <__rc3>
    17a3: a5 15        	lda	$15                     ; 0x15 <__rc5>
    17a5: 69 00        	adc	#$0
    17a7: a6 12        	ldx	$12                     ; 0x12 <__rc2>
    17a9: 86 86        	stx	$86                     ; 0x86 <loopBackTo>
    17ab: a6 14        	ldx	$14                     ; 0x14 <__rc4>
    17ad: 86 87        	stx	$87                     ; 0x87 <loopBackTo+0x1>
    17af: a6 13        	ldx	$13                     ; 0x13 <__rc3>
    17b1: 86 88        	stx	$88                     ; 0x88 <loopBackTo+0x2>
    17b3: 85 89        	sta	$89                     ; 0x89 <loopBackTo+0x3>
    17b5: a6 7e        	ldx	$7e                     ; 0x7e <gd3Location>
    17b7: 86 16        	stx	$16                     ; 0x16 <__rc6>
    17b9: a6 7f        	ldx	$7f                     ; 0x7f <gd3Location+0x1>
    17bb: a4 80        	ldy	$80                     ; 0x80 <gd3Location+0x2>
    17bd: a5 81        	lda	$81                     ; 0x81 <gd3Location+0x3>
    17bf: d0 0e        	bne	$17cf <main+0x11be>
    17c1: c0 00        	cpy	#$0
    17c3: d0 0a        	bne	$17cf <main+0x11be>
    17c5: e0 00        	cpx	#$0
    17c7: d0 06        	bne	$17cf <main+0x11be>
    17c9: e6 16        	inc	$16                     ; 0x16 <__rc6>
    17cb: c6 16        	dec	$16                     ; 0x16 <__rc6>
    17cd: f0 40        	beq	$180f <main+0x11fe>
    17cf: 86 12        	stx	$12                     ; 0x12 <__rc2>
    17d1: 84 13        	sty	$13                     ; 0x13 <__rc3>
    17d3: 85 14        	sta	$14                     ; 0x14 <__rc4>
    17d5: 38           	sec
    17d6: a5 16        	lda	$16                     ; 0x16 <__rc6>
    17d8: e5 2c        	sbc	$2c                     ; 0x2c <__rc28>
    17da: aa           	tax
    17db: a5 12        	lda	$12                     ; 0x12 <__rc2>
    17dd: e9 00        	sbc	#$0
    17df: a8           	tay
    17e0: a5 13        	lda	$13                     ; 0x13 <__rc3>
    17e2: e9 00        	sbc	#$0
    17e4: 85 13        	sta	$13                     ; 0x13 <__rc3>
    17e6: a5 14        	lda	$14                     ; 0x14 <__rc4>
    17e8: e9 00        	sbc	#$0
    17ea: 85 15        	sta	$15                     ; 0x15 <__rc5>
    17ec: 18           	clc
    17ed: 8a           	txa
    17ee: 69 14        	adc	#$14
    17f0: 85 12        	sta	$12                     ; 0x12 <__rc2>
    17f2: 98           	tya
    17f3: 69 00        	adc	#$0
    17f5: 85 14        	sta	$14                     ; 0x14 <__rc4>
    17f7: a5 13        	lda	$13                     ; 0x13 <__rc3>
    17f9: 69 10        	adc	#$10
    17fb: 85 13        	sta	$13                     ; 0x13 <__rc3>
    17fd: a5 15        	lda	$15                     ; 0x15 <__rc5>
    17ff: 69 00        	adc	#$0
    1801: a6 12        	ldx	$12                     ; 0x12 <__rc2>
    1803: 86 7e        	stx	$7e                     ; 0x7e <gd3Location>
    1805: a6 14        	ldx	$14                     ; 0x14 <__rc4>
    1807: 86 7f        	stx	$7f                     ; 0x7f <gd3Location+0x1>
    1809: a6 13        	ldx	$13                     ; 0x13 <__rc3>
    180b: 86 80        	stx	$80                     ; 0x80 <gd3Location+0x2>
    180d: 85 81        	sta	$81                     ; 0x81 <gd3Location+0x3>
    180f: 64 8e        	stz	$8e                     ; 0x8e <samplesSoFar>
    1811: 64 8f        	stz	$8f                     ; 0x8f <samplesSoFar+0x1>
    1813: 64 90        	stz	$90                     ; 0x90 <samplesSoFar+0x2>
    1815: 64 91        	stz	$91                     ; 0x91 <samplesSoFar+0x3>
    1817: b2 26        	lda	($26)                   ; 0x26 <__rc22>
    1819: 85 f3        	sta	$f3                     ; 0xf3 <__pal_size+0x73>
    181b: a2 78        	ldx	#$78
    181d: 86 14        	stx	$14                     ; 0x14 <__rc4>
    181f: a2 00        	ldx	#$0
    1821: 86 15        	stx	$15                     ; 0x15 <__rc5>
    1823: a5 26        	lda	$26                     ; 0x26 <__rc22>
    1825: 18           	clc
    1826: 69 fe        	adc	#$fe
    1828: 85 1a        	sta	$1a                     ; 0x1a <__rc10>
    182a: a5 27        	lda	$27                     ; 0x27 <__rc23>
    182c: 69 ff        	adc	#$ff
    182e: a6 1a        	ldx	$1a                     ; 0x1a <__rc10>
    1830: 86 12        	stx	$12                     ; 0x12 <__rc2>
    1832: aa           	tax
    1833: 85 13        	sta	$13                     ; 0x13 <__rc3>
    1835: a0 0a        	ldy	#$a
    1837: b1 10        	lda	($10),y                 ; 0x10 <__rc0>
    1839: 85 16        	sta	$16                     ; 0x16 <__rc6>
    183b: c8           	iny
    183c: b1 10        	lda	($10),y                 ; 0x10 <__rc0>
    183e: 85 17        	sta	$17                     ; 0x17 <__rc7>
    1840: 20 68 ff     	jsr	$ff68 <__heap_start+0xb4e4>
    1843: 92 16        	sta	($16)                   ; 0x16 <__rc6>
    1845: a9 00        	lda	#$0
    1847: 6a           	ror
    1848: 85 14        	sta	$14                     ; 0x14 <__rc4>
    184a: b2 12        	lda	($12)                   ; 0x12 <__rc2>
    184c: 85 18        	sta	$18                     ; 0x18 <__rc8>
    184e: a0 01        	ldy	#$1
    1850: b1 12        	lda	($12),y                 ; 0x12 <__rc2>
    1852: 85 14        	sta	$14                     ; 0x14 <__rc4>
    1854: a9 fe        	lda	#$fe
    1856: 32 12        	and	($12)                   ; 0x12 <__rc2>
    1858: 85 15        	sta	$15                     ; 0x15 <__rc5>
    185a: a5 1a        	lda	$1a                     ; 0x1a <__rc10>
    185c: 18           	clc
    185d: 65 15        	adc	$15                     ; 0x15 <__rc5>
    185f: a8           	tay
    1860: 8a           	txa
    1861: 86 19        	stx	$19                     ; 0x19 <__rc9>
    1863: 65 14        	adc	$14                     ; 0x14 <__rc4>
    1865: c5 2a        	cmp	$2a                     ; 0x2a <__rc26>
    1867: d0 0e        	bne	$1877 <main+0x1266>
    1869: c4 2b        	cpy	$2b                     ; 0x2b <__rc27>
    186b: d0 0a        	bne	$1877 <main+0x1266>
    186d: a2 00        	ldx	#$0
    186f: 86 16        	stx	$16                     ; 0x16 <__rc6>
    1871: a2 00        	ldx	#$0
    1873: 86 17        	stx	$17                     ; 0x17 <__rc7>
    1875: 80 04        	bra	$187b <main+0x126a>
    1877: 84 16        	sty	$16                     ; 0x16 <__rc6>
    1879: 85 17        	sta	$17                     ; 0x17 <__rc7>
    187b: a5 18        	lda	$18                     ; 0x18 <__rc8>
    187d: 29 01        	and	#$1
    187f: d0 03        	bne	$1884 <main+0x1273>
    1881: 4c bf 19     	jmp	$19bf <main+0x13ae>
    1884: a5 26        	lda	$26                     ; 0x26 <__rc22>
    1886: 18           	clc
    1887: 69 fc        	adc	#$fc
    1889: 85 12        	sta	$12                     ; 0x12 <__rc2>
    188b: a5 27        	lda	$27                     ; 0x27 <__rc23>
    188d: 69 ff        	adc	#$ff
    188f: 85 13        	sta	$13                     ; 0x13 <__rc3>
    1891: a0 01        	ldy	#$1
    1893: a9 00        	lda	#$0
    1895: 38           	sec
    1896: f2 12        	sbc	($12)                   ; 0x12 <__rc2>
    1898: 85 18        	sta	$18                     ; 0x18 <__rc8>
    189a: a9 00        	lda	#$0
    189c: f1 12        	sbc	($12),y                 ; 0x12 <__rc2>
    189e: 85 13        	sta	$13                     ; 0x13 <__rc3>
    18a0: a5 1a        	lda	$1a                     ; 0x1a <__rc10>
    18a2: 18           	clc
    18a3: 65 18        	adc	$18                     ; 0x18 <__rc8>
    18a5: 85 12        	sta	$12                     ; 0x12 <__rc2>
    18a7: 85 1a        	sta	$1a                     ; 0x1a <__rc10>
    18a9: a5 19        	lda	$19                     ; 0x19 <__rc9>
    18ab: 65 13        	adc	$13                     ; 0x13 <__rc3>
    18ad: 85 13        	sta	$13                     ; 0x13 <__rc3>
    18af: 85 19        	sta	$19                     ; 0x19 <__rc9>
    18b1: b1 12        	lda	($12),y                 ; 0x12 <__rc2>
    18b3: 85 1c        	sta	$1c                     ; 0x1c <__rc12>
    18b5: a2 01        	ldx	#$1
    18b7: 86 1e        	stx	$1e                     ; 0x1e <__rc14>
    18b9: a9 fe        	lda	#$fe
    18bb: 32 12        	and	($12)                   ; 0x12 <__rc2>
    18bd: ae 7f 4a     	ldx	$4a7f                   ; 0x4a7f <_ZN12_GLOBAL__N_19free_sizeE>
    18c0: 85 1d        	sta	$1d                     ; 0x1d <__rc13>
    18c2: 85 18        	sta	$18                     ; 0x18 <__rc8>
    18c4: 38           	sec
    18c5: 8a           	txa
    18c6: e5 18        	sbc	$18                     ; 0x18 <__rc8>
    18c8: 85 1b        	sta	$1b                     ; 0x1b <__rc11>
    18ca: a6 1c        	ldx	$1c                     ; 0x1c <__rc12>
    18cc: 86 18        	stx	$18                     ; 0x18 <__rc8>
    18ce: ad 80 4a     	lda	$4a80                   ; 0x4a80 <_ZN12_GLOBAL__N_19free_sizeE+0x1>
    18d1: e5 18        	sbc	$18                     ; 0x18 <__rc8>
    18d3: aa           	tax
    18d4: 18           	clc
    18d5: a5 1b        	lda	$1b                     ; 0x1b <__rc11>
    18d7: 69 02        	adc	#$2
    18d9: 85 18        	sta	$18                     ; 0x18 <__rc8>
    18db: 8a           	txa
    18dc: 69 00        	adc	#$0
    18de: a6 18        	ldx	$18                     ; 0x18 <__rc8>
    18e0: 8e 7f 4a     	stx	$4a7f                   ; 0x4a7f <_ZN12_GLOBAL__N_19free_sizeE>
    18e3: 8d 80 4a     	sta	$4a80                   ; 0x4a80 <_ZN12_GLOBAL__N_19free_sizeE+0x1>
    18e6: a6 1a        	ldx	$1a                     ; 0x1a <__rc10>
    18e8: 86 1b        	stx	$1b                     ; 0x1b <__rc11>
    18ea: a5 1a        	lda	$1a                     ; 0x1a <__rc10>
    18ec: 18           	clc
    18ed: 69 02        	adc	#$2
    18ef: 85 18        	sta	$18                     ; 0x18 <__rc8>
    18f1: a6 19        	ldx	$19                     ; 0x19 <__rc9>
    18f3: 86 1a        	stx	$1a                     ; 0x1a <__rc10>
    18f5: a5 19        	lda	$19                     ; 0x19 <__rc9>
    18f7: 69 00        	adc	#$0
    18f9: c8           	iny
    18fa: 85 19        	sta	$19                     ; 0x19 <__rc9>
    18fc: b1 12        	lda	($12),y                 ; 0x12 <__rc2>
    18fe: aa           	tax
    18ff: a4 1e        	ldy	$1e                     ; 0x1e <__rc14>
    1901: b1 18        	lda	($18),y                 ; 0x18 <__rc8>
    1903: 85 1f        	sta	$1f                     ; 0x1f <__rc15>
    1905: c5 13        	cmp	$13                     ; 0x13 <__rc3>
    1907: d0 0f        	bne	$1918 <main+0x1307>
    1909: e4 12        	cpx	$12                     ; 0x12 <__rc2>
    190b: d0 0b        	bne	$1918 <main+0x1307>
    190d: a2 00        	ldx	#$0
    190f: 86 18        	stx	$18                     ; 0x18 <__rc8>
    1911: a2 00        	ldx	#$0
    1913: 86 19        	stx	$19                     ; 0x19 <__rc9>
    1915: 4c a8 19     	jmp	$19a8 <main+0x1397>
    1918: 86 1e        	stx	$1e                     ; 0x1e <__rc14>
    191a: a5 1b        	lda	$1b                     ; 0x1b <__rc11>
    191c: a6 1b        	ldx	$1b                     ; 0x1b <__rc11>
    191e: 86 23        	stx	$23                     ; 0x23 <__rc19>
    1920: 18           	clc
    1921: 69 04        	adc	#$4
    1923: 85 18        	sta	$18                     ; 0x18 <__rc8>
    1925: a6 1a        	ldx	$1a                     ; 0x1a <__rc10>
    1927: 86 24        	stx	$24                     ; 0x24 <__rc20>
    1929: a5 1a        	lda	$1a                     ; 0x1a <__rc10>
    192b: 69 00        	adc	#$0
    192d: a0 04        	ldy	#$4
    192f: 85 19        	sta	$19                     ; 0x19 <__rc9>
    1931: b1 12        	lda	($12),y                 ; 0x12 <__rc2>
    1933: 85 25        	sta	$25                     ; 0x25 <__rc21>
    1935: a2 04        	ldx	#$4
    1937: 86 22        	stx	$22                     ; 0x22 <__rc18>
    1939: 18           	clc
    193a: 69 02        	adc	#$2
    193c: 85 1a        	sta	$1a                     ; 0x1a <__rc10>
    193e: a0 01        	ldy	#$1
    1940: b1 18        	lda	($18),y                 ; 0x18 <__rc8>
    1942: aa           	tax
    1943: 84 26        	sty	$26                     ; 0x26 <__rc22>
    1945: 69 00        	adc	#$0
    1947: a4 1a        	ldy	$1a                     ; 0x1a <__rc10>
    1949: 84 18        	sty	$18                     ; 0x18 <__rc8>
    194b: 85 19        	sta	$19                     ; 0x19 <__rc9>
    194d: a4 25        	ldy	$25                     ; 0x25 <__rc21>
    194f: 84 1a        	sty	$1a                     ; 0x1a <__rc10>
    1951: 86 1b        	stx	$1b                     ; 0x1b <__rc11>
    1953: a5 1e        	lda	$1e                     ; 0x1e <__rc14>
    1955: a0 02        	ldy	#$2
    1957: 91 1a        	sta	($1a),y                 ; 0x1a <__rc10>
    1959: 84 1a        	sty	$1a                     ; 0x1a <__rc10>
    195b: a5 1f        	lda	$1f                     ; 0x1f <__rc15>
    195d: a4 26        	ldy	$26                     ; 0x26 <__rc22>
    195f: 91 18        	sta	($18),y                 ; 0x18 <__rc8>
    1961: 18           	clc
    1962: a5 23        	lda	$23                     ; 0x23 <__rc19>
    1964: 69 02        	adc	#$2
    1966: 85 18        	sta	$18                     ; 0x18 <__rc8>
    1968: a5 24        	lda	$24                     ; 0x24 <__rc20>
    196a: 69 00        	adc	#$0
    196c: 85 19        	sta	$19                     ; 0x19 <__rc9>
    196e: a4 1a        	ldy	$1a                     ; 0x1a <__rc10>
    1970: b1 12        	lda	($12),y                 ; 0x12 <__rc2>
    1972: 85 1a        	sta	$1a                     ; 0x1a <__rc10>
    1974: a4 26        	ldy	$26                     ; 0x26 <__rc22>
    1976: b1 18        	lda	($18),y                 ; 0x18 <__rc8>
    1978: 84 1e        	sty	$1e                     ; 0x1e <__rc14>
    197a: a4 1a        	ldy	$1a                     ; 0x1a <__rc10>
    197c: 84 18        	sty	$18                     ; 0x18 <__rc8>
    197e: 85 19        	sta	$19                     ; 0x19 <__rc9>
    1980: 85 1b        	sta	$1b                     ; 0x1b <__rc11>
    1982: a4 22        	ldy	$22                     ; 0x22 <__rc18>
    1984: a5 25        	lda	$25                     ; 0x25 <__rc21>
    1986: 91 18        	sta	($18),y                 ; 0x18 <__rc8>
    1988: 18           	clc
    1989: a5 1a        	lda	$1a                     ; 0x1a <__rc10>
    198b: 69 04        	adc	#$4
    198d: 85 1a        	sta	$1a                     ; 0x1a <__rc10>
    198f: a5 1b        	lda	$1b                     ; 0x1b <__rc11>
    1991: 69 00        	adc	#$0
    1993: 85 1b        	sta	$1b                     ; 0x1b <__rc11>
    1995: 8a           	txa
    1996: a4 1e        	ldy	$1e                     ; 0x1e <__rc14>
    1998: 91 1a        	sta	($1a),y                 ; 0x1a <__rc10>
    199a: ae 82 4a     	ldx	$4a82                   ; 0x4a82 <_ZN12_GLOBAL__N_19free_listE+0x1>
    199d: e4 13        	cpx	$13                     ; 0x13 <__rc3>
    199f: d0 11        	bne	$19b2 <main+0x13a1>
    19a1: ae 81 4a     	ldx	$4a81                   ; 0x4a81 <_ZN12_GLOBAL__N_19free_listE>
    19a4: e4 12        	cpx	$12                     ; 0x12 <__rc2>
    19a6: d0 0a        	bne	$19b2 <main+0x13a1>
    19a8: a6 18        	ldx	$18                     ; 0x18 <__rc8>
    19aa: a4 19        	ldy	$19                     ; 0x19 <__rc9>
    19ac: 8e 81 4a     	stx	$4a81                   ; 0x4a81 <_ZN12_GLOBAL__N_19free_listE>
    19af: 8c 82 4a     	sty	$4a82                   ; 0x4a82 <_ZN12_GLOBAL__N_19free_listE+0x1>
    19b2: 18           	clc
    19b3: a5 1d        	lda	$1d                     ; 0x1d <__rc13>
    19b5: 65 15        	adc	$15                     ; 0x15 <__rc5>
    19b7: 85 15        	sta	$15                     ; 0x15 <__rc5>
    19b9: a5 1c        	lda	$1c                     ; 0x1c <__rc12>
    19bb: 65 14        	adc	$14                     ; 0x14 <__rc4>
    19bd: 85 14        	sta	$14                     ; 0x14 <__rc4>
    19bf: a2 00        	ldx	#$0
    19c1: 86 18        	stx	$18                     ; 0x18 <__rc8>
    19c3: a2 00        	ldx	#$0
    19c5: 86 19        	stx	$19                     ; 0x19 <__rc9>
    19c7: a6 17        	ldx	$17                     ; 0x17 <__rc7>
    19c9: e4 19        	cpx	$19                     ; 0x19 <__rc9>
    19cb: d0 1f        	bne	$19ec <main+0x13db>
    19cd: a6 16        	ldx	$16                     ; 0x16 <__rc6>
    19cf: e4 18        	cpx	$18                     ; 0x18 <__rc8>
    19d1: d0 19        	bne	$19ec <main+0x13db>
    19d3: a2 01        	ldx	#$1
    19d5: 8e 7e 4a     	stx	$4a7e                   ; 0x4a7e <_ZN12_GLOBAL__N_19last_freeE>
    19d8: a6 15        	ldx	$15                     ; 0x15 <__rc5>
    19da: a4 14        	ldy	$14                     ; 0x14 <__rc4>
    19dc: 5a           	phy
    19dd: a0 0a        	ldy	#$a
    19df: b1 10        	lda	($10),y                 ; 0x10 <__rc0>
    19e1: 85 1c        	sta	$1c                     ; 0x1c <__rc12>
    19e3: c8           	iny
    19e4: b1 10        	lda	($10),y                 ; 0x10 <__rc0>
    19e6: 7a           	ply
    19e7: 85 1d        	sta	$1d                     ; 0x1d <__rc13>
    19e9: 4c 2a 1b     	jmp	$1b2a <main+0x1519>
    19ec: b2 16        	lda	($16)                   ; 0x16 <__rc6>
    19ee: 85 1a        	sta	$1a                     ; 0x1a <__rc10>
    19f0: a0 01        	ldy	#$1
    19f2: b1 16        	lda	($16),y                 ; 0x16 <__rc6>
    19f4: aa           	tax
    19f5: a9 fe        	lda	#$fe
    19f7: 32 16        	and	($16)                   ; 0x16 <__rc6>
    19f9: 18           	clc
    19fa: 85 1f        	sta	$1f                     ; 0x1f <__rc15>
    19fc: 65 16        	adc	$16                     ; 0x16 <__rc6>
    19fe: 85 18        	sta	$18                     ; 0x18 <__rc8>
    1a00: 8a           	txa
    1a01: 86 1e        	stx	$1e                     ; 0x1e <__rc14>
    1a03: 65 17        	adc	$17                     ; 0x17 <__rc7>
    1a05: c5 2a        	cmp	$2a                     ; 0x2a <__rc26>
    1a07: d0 0d        	bne	$1a16 <main+0x1405>
    1a09: a6 18        	ldx	$18                     ; 0x18 <__rc8>
    1a0b: e4 2b        	cpx	$2b                     ; 0x2b <__rc27>
    1a0d: d0 07        	bne	$1a16 <main+0x1405>
    1a0f: ad 7e 4a     	lda	$4a7e                   ; 0x4a7e <_ZN12_GLOBAL__N_19last_freeE>
    1a12: 29 01        	and	#$1
    1a14: 80 06        	bra	$1a1c <main+0x140b>
    1a16: 85 19        	sta	$19                     ; 0x19 <__rc9>
    1a18: a9 01        	lda	#$1
    1a1a: 32 18        	and	($18)                   ; 0x18 <__rc8>
    1a1c: 48           	pha
    1a1d: a0 0a        	ldy	#$a
    1a1f: b1 10        	lda	($10),y                 ; 0x10 <__rc0>
    1a21: 85 1c        	sta	$1c                     ; 0x1c <__rc12>
    1a23: c8           	iny
    1a24: b1 10        	lda	($10),y                 ; 0x10 <__rc0>
    1a26: 85 1d        	sta	$1d                     ; 0x1d <__rc13>
    1a28: 68           	pla
    1a29: f0 4e        	beq	$1a79 <main+0x1468>
    1a2b: ad 7f 4a     	lda	$4a7f                   ; 0x4a7f <_ZN12_GLOBAL__N_19free_sizeE>
    1a2e: ae 80 4a     	ldx	$4a80                   ; 0x4a80 <_ZN12_GLOBAL__N_19free_sizeE+0x1>
    1a31: 86 19        	stx	$19                     ; 0x19 <__rc9>
    1a33: 38           	sec
    1a34: e5 1f        	sbc	$1f                     ; 0x1f <__rc15>
    1a36: aa           	tax
    1a37: a5 19        	lda	$19                     ; 0x19 <__rc9>
    1a39: e5 1e        	sbc	$1e                     ; 0x1e <__rc14>
    1a3b: 85 18        	sta	$18                     ; 0x18 <__rc8>
    1a3d: 18           	clc
    1a3e: 8a           	txa
    1a3f: 69 02        	adc	#$2
    1a41: 85 19        	sta	$19                     ; 0x19 <__rc9>
    1a43: a5 18        	lda	$18                     ; 0x18 <__rc8>
    1a45: 69 00        	adc	#$0
    1a47: a6 19        	ldx	$19                     ; 0x19 <__rc9>
    1a49: 8e 7f 4a     	stx	$4a7f                   ; 0x4a7f <_ZN12_GLOBAL__N_19free_sizeE>
    1a4c: 8d 80 4a     	sta	$4a80                   ; 0x4a80 <_ZN12_GLOBAL__N_19free_sizeE+0x1>
    1a4f: a5 16        	lda	$16                     ; 0x16 <__rc6>
    1a51: 18           	clc
    1a52: 69 02        	adc	#$2
    1a54: 85 18        	sta	$18                     ; 0x18 <__rc8>
    1a56: a5 17        	lda	$17                     ; 0x17 <__rc7>
    1a58: 69 00        	adc	#$0
    1a5a: a0 02        	ldy	#$2
    1a5c: 85 19        	sta	$19                     ; 0x19 <__rc9>
    1a5e: b1 16        	lda	($16),y                 ; 0x16 <__rc6>
    1a60: aa           	tax
    1a61: 88           	dey
    1a62: b1 18        	lda	($18),y                 ; 0x18 <__rc8>
    1a64: 85 23        	sta	$23                     ; 0x23 <__rc19>
    1a66: c5 17        	cmp	$17                     ; 0x17 <__rc7>
    1a68: d0 22        	bne	$1a8c <main+0x147b>
    1a6a: e4 16        	cpx	$16                     ; 0x16 <__rc6>
    1a6c: d0 1e        	bne	$1a8c <main+0x147b>
    1a6e: a2 00        	ldx	#$0
    1a70: 86 18        	stx	$18                     ; 0x18 <__rc8>
    1a72: a2 00        	ldx	#$0
    1a74: 86 19        	stx	$19                     ; 0x19 <__rc9>
    1a76: 4c 15 1b     	jmp	$1b15 <main+0x1504>
    1a79: a5 1a        	lda	$1a                     ; 0x1a <__rc10>
    1a7b: 09 01        	ora	#$1
    1a7d: 92 16        	sta	($16)                   ; 0x16 <__rc6>
    1a7f: a0 01        	ldy	#$1
    1a81: a5 1e        	lda	$1e                     ; 0x1e <__rc14>
    1a83: 91 16        	sta	($16),y                 ; 0x16 <__rc6>
    1a85: a6 15        	ldx	$15                     ; 0x15 <__rc5>
    1a87: a4 14        	ldy	$14                     ; 0x14 <__rc4>
    1a89: 4c 2a 1b     	jmp	$1b2a <main+0x1519>
    1a8c: 86 22        	stx	$22                     ; 0x22 <__rc18>
    1a8e: 18           	clc
    1a8f: a5 16        	lda	$16                     ; 0x16 <__rc6>
    1a91: 69 04        	adc	#$4
    1a93: 85 18        	sta	$18                     ; 0x18 <__rc8>
    1a95: a5 17        	lda	$17                     ; 0x17 <__rc7>
    1a97: 69 00        	adc	#$0
    1a99: a0 04        	ldy	#$4
    1a9b: 85 19        	sta	$19                     ; 0x19 <__rc9>
    1a9d: b1 16        	lda	($16),y                 ; 0x16 <__rc6>
    1a9f: 85 27        	sta	$27                     ; 0x27 <__rc23>
    1aa1: a2 04        	ldx	#$4
    1aa3: 18           	clc
    1aa4: 69 02        	adc	#$2
    1aa6: 85 1a        	sta	$1a                     ; 0x1a <__rc10>
    1aa8: a0 01        	ldy	#$1
    1aaa: b1 18        	lda	($18),y                 ; 0x18 <__rc8>
    1aac: 85 26        	sta	$26                     ; 0x26 <__rc22>
    1aae: 84 2a        	sty	$2a                     ; 0x2a <__rc26>
    1ab0: 69 00        	adc	#$0
    1ab2: a6 1a        	ldx	$1a                     ; 0x1a <__rc10>
    1ab4: 86 18        	stx	$18                     ; 0x18 <__rc8>
    1ab6: 85 19        	sta	$19                     ; 0x19 <__rc9>
    1ab8: a6 27        	ldx	$27                     ; 0x27 <__rc23>
    1aba: 86 1a        	stx	$1a                     ; 0x1a <__rc10>
    1abc: a6 26        	ldx	$26                     ; 0x26 <__rc22>
    1abe: 86 1b        	stx	$1b                     ; 0x1b <__rc11>
    1ac0: a5 22        	lda	$22                     ; 0x22 <__rc18>
    1ac2: c8           	iny
    1ac3: 91 1a        	sta	($1a),y                 ; 0x1a <__rc10>
    1ac5: 84 1a        	sty	$1a                     ; 0x1a <__rc10>
    1ac7: a5 23        	lda	$23                     ; 0x23 <__rc19>
    1ac9: a4 2a        	ldy	$2a                     ; 0x2a <__rc26>
    1acb: 91 18        	sta	($18),y                 ; 0x18 <__rc8>
    1acd: 18           	clc
    1ace: a5 16        	lda	$16                     ; 0x16 <__rc6>
    1ad0: 69 02        	adc	#$2
    1ad2: 85 18        	sta	$18                     ; 0x18 <__rc8>
    1ad4: a5 17        	lda	$17                     ; 0x17 <__rc7>
    1ad6: 69 00        	adc	#$0
    1ad8: 85 19        	sta	$19                     ; 0x19 <__rc9>
    1ada: a4 1a        	ldy	$1a                     ; 0x1a <__rc10>
    1adc: b1 16        	lda	($16),y                 ; 0x16 <__rc6>
    1ade: 85 1a        	sta	$1a                     ; 0x1a <__rc10>
    1ae0: a4 2a        	ldy	$2a                     ; 0x2a <__rc26>
    1ae2: b1 18        	lda	($18),y                 ; 0x18 <__rc8>
    1ae4: 84 22        	sty	$22                     ; 0x22 <__rc18>
    1ae6: a6 1a        	ldx	$1a                     ; 0x1a <__rc10>
    1ae8: 86 18        	stx	$18                     ; 0x18 <__rc8>
    1aea: 85 19        	sta	$19                     ; 0x19 <__rc9>
    1aec: 85 1b        	sta	$1b                     ; 0x1b <__rc11>
    1aee: a0 04        	ldy	#$4
    1af0: a5 27        	lda	$27                     ; 0x27 <__rc23>
    1af2: 91 18        	sta	($18),y                 ; 0x18 <__rc8>
    1af4: 18           	clc
    1af5: a5 1a        	lda	$1a                     ; 0x1a <__rc10>
    1af7: 69 04        	adc	#$4
    1af9: 85 1a        	sta	$1a                     ; 0x1a <__rc10>
    1afb: a5 1b        	lda	$1b                     ; 0x1b <__rc11>
    1afd: 69 00        	adc	#$0
    1aff: 85 1b        	sta	$1b                     ; 0x1b <__rc11>
    1b01: a5 26        	lda	$26                     ; 0x26 <__rc22>
    1b03: a4 22        	ldy	$22                     ; 0x22 <__rc18>
    1b05: 91 1a        	sta	($1a),y                 ; 0x1a <__rc10>
    1b07: ae 82 4a     	ldx	$4a82                   ; 0x4a82 <_ZN12_GLOBAL__N_19free_listE+0x1>
    1b0a: e4 17        	cpx	$17                     ; 0x17 <__rc7>
    1b0c: d0 11        	bne	$1b1f <main+0x150e>
    1b0e: ae 81 4a     	ldx	$4a81                   ; 0x4a81 <_ZN12_GLOBAL__N_19free_listE>
    1b11: e4 16        	cpx	$16                     ; 0x16 <__rc6>
    1b13: d0 0a        	bne	$1b1f <main+0x150e>
    1b15: a6 18        	ldx	$18                     ; 0x18 <__rc8>
    1b17: a4 19        	ldy	$19                     ; 0x19 <__rc9>
    1b19: 8e 81 4a     	stx	$4a81                   ; 0x4a81 <_ZN12_GLOBAL__N_19free_listE>
    1b1c: 8c 82 4a     	sty	$4a82                   ; 0x4a82 <_ZN12_GLOBAL__N_19free_listE+0x1>
    1b1f: 18           	clc
    1b20: a5 1f        	lda	$1f                     ; 0x1f <__rc15>
    1b22: 65 15        	adc	$15                     ; 0x15 <__rc5>
    1b24: aa           	tax
    1b25: a5 1e        	lda	$1e                     ; 0x1e <__rc14>
    1b27: 65 14        	adc	$14                     ; 0x14 <__rc4>
    1b29: a8           	tay
    1b2a: a9 01        	lda	#$1
    1b2c: 32 12        	and	($12)                   ; 0x12 <__rc2>
    1b2e: 86 14        	stx	$14                     ; 0x14 <__rc4>
    1b30: 05 14        	ora	$14                     ; 0x14 <__rc4>
    1b32: 92 12        	sta	($12)                   ; 0x12 <__rc2>
    1b34: a5 12        	lda	$12                     ; 0x12 <__rc2>
    1b36: 18           	clc
    1b37: 65 14        	adc	$14                     ; 0x14 <__rc4>
    1b39: 85 14        	sta	$14                     ; 0x14 <__rc4>
    1b3b: 84 16        	sty	$16                     ; 0x16 <__rc6>
    1b3d: 98           	tya
    1b3e: 65 13        	adc	$13                     ; 0x13 <__rc3>
    1b40: a8           	tay
    1b41: 18           	clc
    1b42: a5 14        	lda	$14                     ; 0x14 <__rc4>
    1b44: 69 fe        	adc	#$fe
    1b46: 85 14        	sta	$14                     ; 0x14 <__rc4>
    1b48: 98           	tya
    1b49: 69 ff        	adc	#$ff
    1b4b: 85 15        	sta	$15                     ; 0x15 <__rc5>
    1b4d: a0 01        	ldy	#$1
    1b4f: a5 16        	lda	$16                     ; 0x16 <__rc6>
    1b51: 91 12        	sta	($12),y                 ; 0x12 <__rc2>
    1b53: 8a           	txa
    1b54: 92 14        	sta	($14)                   ; 0x14 <__rc4>
    1b56: a5 16        	lda	$16                     ; 0x16 <__rc6>
    1b58: 91 14        	sta	($14),y                 ; 0x14 <__rc4>
    1b5a: b1 12        	lda	($12),y                 ; 0x12 <__rc2>
    1b5c: 85 14        	sta	$14                     ; 0x14 <__rc4>
    1b5e: a9 fe        	lda	#$fe
    1b60: 32 12        	and	($12)                   ; 0x12 <__rc2>
    1b62: 18           	clc
    1b63: 6d 7f 4a     	adc	$4a7f                   ; 0x4a7f <_ZN12_GLOBAL__N_19free_sizeE>
    1b66: aa           	tax
    1b67: a5 14        	lda	$14                     ; 0x14 <__rc4>
    1b69: 6d 80 4a     	adc	$4a80                   ; 0x4a80 <_ZN12_GLOBAL__N_19free_sizeE+0x1>
    1b6c: 85 14        	sta	$14                     ; 0x14 <__rc4>
    1b6e: 18           	clc
    1b6f: 8a           	txa
    1b70: 69 fe        	adc	#$fe
    1b72: 85 15        	sta	$15                     ; 0x15 <__rc5>
    1b74: a5 14        	lda	$14                     ; 0x14 <__rc4>
    1b76: 69 ff        	adc	#$ff
    1b78: a6 15        	ldx	$15                     ; 0x15 <__rc5>
    1b7a: 8e 7f 4a     	stx	$4a7f                   ; 0x4a7f <_ZN12_GLOBAL__N_19free_sizeE>
    1b7d: 8d 80 4a     	sta	$4a80                   ; 0x4a80 <_ZN12_GLOBAL__N_19free_sizeE+0x1>
    1b80: ad 81 4a     	lda	$4a81                   ; 0x4a81 <_ZN12_GLOBAL__N_19free_listE>
    1b83: ac 82 4a     	ldy	$4a82                   ; 0x4a82 <_ZN12_GLOBAL__N_19free_listE+0x1>
    1b86: a2 00        	ldx	#$0
    1b88: 86 14        	stx	$14                     ; 0x14 <__rc4>
    1b8a: a2 00        	ldx	#$0
    1b8c: 86 15        	stx	$15                     ; 0x15 <__rc5>
    1b8e: 84 17        	sty	$17                     ; 0x17 <__rc7>
    1b90: c4 15        	cpy	$15                     ; 0x15 <__rc5>
    1b92: d0 3e        	bne	$1bd2 <main+0x15c1>
    1b94: c5 14        	cmp	$14                     ; 0x14 <__rc4>
    1b96: d0 3a        	bne	$1bd2 <main+0x15c1>
    1b98: a0 04        	ldy	#$4
    1b9a: 18           	clc
    1b9b: a5 12        	lda	$12                     ; 0x12 <__rc2>
    1b9d: 69 04        	adc	#$4
    1b9f: 85 14        	sta	$14                     ; 0x14 <__rc4>
    1ba1: a5 13        	lda	$13                     ; 0x13 <__rc3>
    1ba3: 69 00        	adc	#$0
    1ba5: 18           	clc
    1ba6: 85 15        	sta	$15                     ; 0x15 <__rc5>
    1ba8: a5 12        	lda	$12                     ; 0x12 <__rc2>
    1baa: 91 12        	sta	($12),y                 ; 0x12 <__rc2>
    1bac: a0 02        	ldy	#$2
    1bae: 85 17        	sta	$17                     ; 0x17 <__rc7>
    1bb0: 69 02        	adc	#$2
    1bb2: 85 16        	sta	$16                     ; 0x16 <__rc6>
    1bb4: a5 17        	lda	$17                     ; 0x17 <__rc7>
    1bb6: 91 12        	sta	($12),y                 ; 0x12 <__rc2>
    1bb8: a5 13        	lda	$13                     ; 0x13 <__rc3>
    1bba: 69 00        	adc	#$0
    1bbc: 85 17        	sta	$17                     ; 0x17 <__rc7>
    1bbe: 88           	dey
    1bbf: a5 13        	lda	$13                     ; 0x13 <__rc3>
    1bc1: 91 14        	sta	($14),y                 ; 0x14 <__rc4>
    1bc3: 91 16        	sta	($16),y                 ; 0x16 <__rc6>
    1bc5: a6 12        	ldx	$12                     ; 0x12 <__rc2>
    1bc7: 8e 81 4a     	stx	$4a81                   ; 0x4a81 <_ZN12_GLOBAL__N_19free_listE>
    1bca: a6 13        	ldx	$13                     ; 0x13 <__rc3>
    1bcc: 8e 82 4a     	stx	$4a82                   ; 0x4a82 <_ZN12_GLOBAL__N_19free_listE+0x1>
    1bcf: 4c 80 1c     	jmp	$1c80 <main+0x166f>
    1bd2: a6 12        	ldx	$12                     ; 0x12 <__rc2>
    1bd4: 18           	clc
    1bd5: a8           	tay
    1bd6: a5 12        	lda	$12                     ; 0x12 <__rc2>
    1bd8: 69 02        	adc	#$2
    1bda: 85 14        	sta	$14                     ; 0x14 <__rc4>
    1bdc: a5 13        	lda	$13                     ; 0x13 <__rc3>
    1bde: 85 1e        	sta	$1e                     ; 0x1e <__rc14>
    1be0: a5 13        	lda	$13                     ; 0x13 <__rc3>
    1be2: 69 00        	adc	#$0
    1be4: 84 16        	sty	$16                     ; 0x16 <__rc6>
    1be6: 84 18        	sty	$18                     ; 0x18 <__rc8>
    1be8: a4 17        	ldy	$17                     ; 0x17 <__rc7>
    1bea: 84 19        	sty	$19                     ; 0x19 <__rc9>
    1bec: 85 15        	sta	$15                     ; 0x15 <__rc5>
    1bee: a0 02        	ldy	#$2
    1bf0: a5 18        	lda	$18                     ; 0x18 <__rc8>
    1bf2: 91 12        	sta	($12),y                 ; 0x12 <__rc2>
    1bf4: 84 1f        	sty	$1f                     ; 0x1f <__rc15>
    1bf6: 88           	dey
    1bf7: a5 19        	lda	$19                     ; 0x19 <__rc9>
    1bf9: 91 14        	sta	($14),y                 ; 0x14 <__rc4>
    1bfb: 84 22        	sty	$22                     ; 0x22 <__rc18>
    1bfd: 18           	clc
    1bfe: a5 18        	lda	$18                     ; 0x18 <__rc8>
    1c00: 69 04        	adc	#$4
    1c02: 85 18        	sta	$18                     ; 0x18 <__rc8>
    1c04: a5 19        	lda	$19                     ; 0x19 <__rc9>
    1c06: 69 00        	adc	#$0
    1c08: 85 19        	sta	$19                     ; 0x19 <__rc9>
    1c0a: 18           	clc
    1c0b: a5 12        	lda	$12                     ; 0x12 <__rc2>
    1c0d: 69 04        	adc	#$4
    1c0f: 85 1a        	sta	$1a                     ; 0x1a <__rc10>
    1c11: a5 13        	lda	$13                     ; 0x13 <__rc3>
    1c13: 69 00        	adc	#$0
    1c15: 85 1b        	sta	$1b                     ; 0x1b <__rc11>
    1c17: a0 04        	ldy	#$4
    1c19: b1 16        	lda	($16),y                 ; 0x16 <__rc6>
    1c1b: 85 16        	sta	$16                     ; 0x16 <__rc6>
    1c1d: 85 23        	sta	$23                     ; 0x23 <__rc19>
    1c1f: a4 22        	ldy	$22                     ; 0x22 <__rc18>
    1c21: b1 18        	lda	($18),y                 ; 0x18 <__rc8>
    1c23: a4 22        	ldy	$22                     ; 0x22 <__rc18>
    1c25: 84 18        	sty	$18                     ; 0x18 <__rc8>
    1c27: 85 17        	sta	$17                     ; 0x17 <__rc7>
    1c29: 85 19        	sta	$19                     ; 0x19 <__rc9>
    1c2b: a0 04        	ldy	#$4
    1c2d: a5 23        	lda	$23                     ; 0x23 <__rc19>
    1c2f: 91 12        	sta	($12),y                 ; 0x12 <__rc2>
    1c31: 84 22        	sty	$22                     ; 0x22 <__rc18>
    1c33: a4 18        	ldy	$18                     ; 0x18 <__rc8>
    1c35: a5 19        	lda	$19                     ; 0x19 <__rc9>
    1c37: 91 1a        	sta	($1a),y                 ; 0x1a <__rc10>
    1c39: 84 1a        	sty	$1a                     ; 0x1a <__rc10>
    1c3b: 18           	clc
    1c3c: a5 23        	lda	$23                     ; 0x23 <__rc19>
    1c3e: 69 02        	adc	#$2
    1c40: 85 18        	sta	$18                     ; 0x18 <__rc8>
    1c42: a5 19        	lda	$19                     ; 0x19 <__rc9>
    1c44: 69 00        	adc	#$0
    1c46: 85 19        	sta	$19                     ; 0x19 <__rc9>
    1c48: a5 12        	lda	$12                     ; 0x12 <__rc2>
    1c4a: a4 1f        	ldy	$1f                     ; 0x1f <__rc15>
    1c4c: 91 16        	sta	($16),y                 ; 0x16 <__rc6>
    1c4e: a5 13        	lda	$13                     ; 0x13 <__rc3>
    1c50: a4 1a        	ldy	$1a                     ; 0x1a <__rc10>
    1c52: 91 18        	sta	($18),y                 ; 0x18 <__rc8>
    1c54: 84 17        	sty	$17                     ; 0x17 <__rc7>
    1c56: a4 1f        	ldy	$1f                     ; 0x1f <__rc15>
    1c58: b1 12        	lda	($12),y                 ; 0x12 <__rc2>
    1c5a: 85 12        	sta	$12                     ; 0x12 <__rc2>
    1c5c: 85 16        	sta	$16                     ; 0x16 <__rc6>
    1c5e: a4 17        	ldy	$17                     ; 0x17 <__rc7>
    1c60: b1 14        	lda	($14),y                 ; 0x14 <__rc4>
    1c62: 84 14        	sty	$14                     ; 0x14 <__rc4>
    1c64: 85 13        	sta	$13                     ; 0x13 <__rc3>
    1c66: 85 15        	sta	$15                     ; 0x15 <__rc5>
    1c68: 8a           	txa
    1c69: a4 22        	ldy	$22                     ; 0x22 <__rc18>
    1c6b: 91 12        	sta	($12),y                 ; 0x12 <__rc2>
    1c6d: 18           	clc
    1c6e: a5 16        	lda	$16                     ; 0x16 <__rc6>
    1c70: 69 04        	adc	#$4
    1c72: 85 12        	sta	$12                     ; 0x12 <__rc2>
    1c74: a5 15        	lda	$15                     ; 0x15 <__rc5>
    1c76: 69 00        	adc	#$0
    1c78: 85 13        	sta	$13                     ; 0x13 <__rc3>
    1c7a: a5 1e        	lda	$1e                     ; 0x1e <__rc14>
    1c7c: a4 14        	ldy	$14                     ; 0x14 <__rc4>
    1c7e: 91 12        	sta	($12),y                 ; 0x12 <__rc2>
    1c80: a2 78        	ldx	#$78
    1c82: 86 26        	stx	$26                     ; 0x26 <__rc22>
    1c84: a2 00        	ldx	#$0
    1c86: 86 27        	stx	$27                     ; 0x27 <__rc23>
    1c88: 64 71        	stz	$71                     ; 0x71 <kernelEventData>
    1c8a: 20 00 ff     	jsr	$ff00 <__heap_start+0xb47c>
    1c8d: 92 1c        	sta	($1c)                   ; 0x1c <__rc12>
    1c8f: a9 00        	lda	#$0
    1c91: 6a           	ror
    1c92: 85 26        	sta	$26                     ; 0x26 <__rc22>
    1c94: a6 71        	ldx	$71                     ; 0x71 <kernelEventData>
    1c96: e0 38        	cpx	#$38
    1c98: f0 04        	beq	$1c9e <main+0x168d>
    1c9a: e0 32        	cpx	#$32
    1c9c: d0 ea        	bne	$1c88 <main+0x1677>
    1c9e: a0 01        	ldy	#$1
    1ca0: a2 01        	ldx	#$1
    1ca2: 86 25        	stx	$25                     ; 0x25 <__rc21>
    1ca4: 84 92        	sty	$92                     ; 0x92 <comeRightTrough>
    1ca6: a2 0a        	ldx	#$a
    1ca8: 86 61        	stx	$61                     ; 0x61 <_col>
    1caa: 8e 14 d0     	stx	$d014                   ; 0xd014 <__heap_start+0x8590>
    1cad: 9c 15 d0     	stz	$d015                   ; 0xd015 <__heap_start+0x8591>
    1cb0: 86 62        	stx	$62                     ; 0x62 <_row>
    1cb2: 8e 16 d0     	stx	$d016                   ; 0xd016 <__heap_start+0x8592>
    1cb5: 9c 17 d0     	stz	$d017                   ; 0xd017 <__heap_start+0x8593>
    1cb8: a2 03        	ldx	#$3
    1cba: 86 12        	stx	$12                     ; 0x12 <__rc2>
    1cbc: a2 49        	ldx	#$49
    1cbe: 86 13        	stx	$13                     ; 0x13 <__rc3>
    1cc0: 20 f9 28     	jsr	$28f9 <textPrint>
    1cc3: a2 14        	ldx	#$14
    1cc5: 86 61        	stx	$61                     ; 0x61 <_col>
    1cc7: 8e 14 d0     	stx	$d014                   ; 0xd014 <__heap_start+0x8590>
    1cca: 9c 15 d0     	stz	$d015                   ; 0xd015 <__heap_start+0x8591>
    1ccd: a2 0c        	ldx	#$c
    1ccf: 86 62        	stx	$62                     ; 0x62 <_row>
    1cd1: 8e 16 d0     	stx	$d016                   ; 0xd016 <__heap_start+0x8592>
    1cd4: 9c 17 d0     	stz	$d017                   ; 0xd017 <__heap_start+0x8593>
    1cd7: a2 e5        	ldx	#$e5
    1cd9: 86 12        	stx	$12                     ; 0x12 <__rc2>
    1cdb: a2 48        	ldx	#$48
    1cdd: 86 13        	stx	$13                     ; 0x13 <__rc3>
    1cdf: 20 f9 28     	jsr	$28f9 <textPrint>
    1ce2: a2 80        	ldx	#$80
    1ce4: 86 f3        	stx	$f3                     ; 0xf3 <__pal_size+0x73>
    1ce6: a2 02        	ldx	#$2
    1ce8: 86 24        	stx	$24                     ; 0x24 <__rc20>
    1cea: 20 f0 ff     	jsr	$fff0 <__heap_start+0xb56c>
    1ced: 92 28        	sta	($28)                   ; 0x28 <__rc24>
    1cef: a9 00        	lda	#$0
    1cf1: 6a           	ror
    1cf2: 85 26        	sta	$26                     ; 0x26 <__rc22>
    1cf4: 18           	clc
    1cf5: 8a           	txa
    1cf6: 72 28        	adc	($28)                   ; 0x28 <__rc24>
    1cf8: 85 70        	sta	$70                     ; 0x70 <tileAnim.1>
    1cfa: 64 f3        	stz	$f3                     ; 0xf3 <__pal_size+0x73>
    1cfc: a6 70        	ldx	$70                     ; 0x70 <tileAnim.1>
    1cfe: 86 f4        	stx	$f4                     ; 0xf4 <__pal_size+0x74>
    1d00: 64 f5        	stz	$f5                     ; 0xf5 <__pal_size+0x75>
    1d02: 64 2a        	stz	$2a                     ; 0x2a <__rc26>
    1d04: a2 3a        	ldx	#$3a
    1d06: 86 2b        	stx	$2b                     ; 0x2b <__rc27>
    1d08: 20 f0 ff     	jsr	$fff0 <__heap_start+0xb56c>
    1d0b: 92 28        	sta	($28)                   ; 0x28 <__rc24>
    1d0d: a9 00        	lda	#$0
    1d0f: 6a           	ror
    1d10: 85 26        	sta	$26                     ; 0x26 <__rc22>
    1d12: 4c 54 22     	jmp	$2254 <main+0x1c43>
    1d15: a5 6f        	lda	$6f                     ; 0x6f <wantSound>
    1d17: 29 01        	and	#$1
    1d19: f0 49        	beq	$1d64 <main+0x1753>
    1d1b: 64 6f        	stz	$6f                     ; 0x6f <wantSound>
    1d1d: 4c 54 22     	jmp	$2254 <main+0x1c43>
    1d20: a4 60        	ldy	$60                     ; 0x60 <wantText>
    1d22: a2 01        	ldx	#$1
    1d24: 98           	tya
    1d25: f0 02        	beq	$1d29 <main+0x1718>
    1d27: a2 00        	ldx	#$0
    1d29: 8a           	txa
    1d2a: d0 03        	bne	$1d2f <main+0x171e>
    1d2c: 4c ab 1e     	jmp	$1eab <main+0x189a>
    1d2f: a0 01        	ldy	#$1
    1d31: 4c ad 1e     	jmp	$1ead <main+0x189c>
    1d34: e0 01        	cpx	#$1
    1d36: 90 03        	bcc	$1d3b <main+0x172a>
    1d38: 4c d3 1e     	jmp	$1ed3 <main+0x18c2>
    1d3b: a6 16        	ldx	$16                     ; 0x16 <__rc6>
    1d3d: 8e 55 d6     	stx	$d655                   ; 0xd655 <__heap_start+0x8bd1>
    1d40: a6 13        	ldx	$13                     ; 0x13 <__rc3>
    1d42: 8e 56 d6     	stx	$d656                   ; 0xd656 <__heap_start+0x8bd2>
    1d45: 8c 57 d6     	sty	$d657                   ; 0xd657 <__heap_start+0x8bd3>
    1d48: 9c 54 d6     	stz	$d654                   ; 0xd654 <__heap_start+0x8bd0>
    1d4b: a0 02        	ldy	#$2
    1d4d: a2 02        	ldx	#$2
    1d4f: 86 24        	stx	$24                     ; 0x24 <__rc20>
    1d51: 8c 50 d6     	sty	$d650                   ; 0xd650 <__heap_start+0x8bcc>
    1d54: a2 89        	ldx	#$89
    1d56: 8e 50 d6     	stx	$d650                   ; 0xd650 <__heap_start+0x8bcc>
    1d59: 64 79        	stz	$79                     ; 0x79 <tooBigWait>
    1d5b: 64 7a        	stz	$7a                     ; 0x7a <tooBigWait+0x1>
    1d5d: 64 7b        	stz	$7b                     ; 0x7b <tooBigWait+0x2>
    1d5f: 64 7c        	stz	$7c                     ; 0x7c <tooBigWait+0x3>
    1d61: 4c 5a 22     	jmp	$225a <main+0x1c49>
    1d64: a2 b0        	ldx	#$b0
    1d66: 8e 80 d5     	stx	$d580                   ; 0xd580 <__heap_start+0x8afc>
    1d69: 86 13        	stx	$13                     ; 0x13 <__rc3>
    1d6b: 9c 81 d5     	stz	$d581                   ; 0xd581 <__heap_start+0x8afd>
    1d6e: a0 a0        	ldy	#$a0
    1d70: 8c 80 d5     	sty	$d580                   ; 0xd580 <__heap_start+0x8afc>
    1d73: 9c 81 d5     	stz	$d581                   ; 0xd581 <__heap_start+0x8afd>
    1d76: a9 b1        	lda	#$b1
    1d78: 8d 80 d5     	sta	$d580                   ; 0xd580 <__heap_start+0x8afc>
    1d7b: 9c 81 d5     	stz	$d581                   ; 0xd581 <__heap_start+0x8afd>
    1d7e: a2 a1        	ldx	#$a1
    1d80: 8e 80 d5     	stx	$d580                   ; 0xd580 <__heap_start+0x8afc>
    1d83: 86 12        	stx	$12                     ; 0x12 <__rc2>
    1d85: 9c 81 d5     	stz	$d581                   ; 0xd581 <__heap_start+0x8afd>
    1d88: a2 b2        	ldx	#$b2
    1d8a: 8e 80 d5     	stx	$d580                   ; 0xd580 <__heap_start+0x8afc>
    1d8d: 86 15        	stx	$15                     ; 0x15 <__rc5>
    1d8f: 9c 81 d5     	stz	$d581                   ; 0xd581 <__heap_start+0x8afd>
    1d92: a2 a2        	ldx	#$a2
    1d94: 8e 80 d5     	stx	$d580                   ; 0xd580 <__heap_start+0x8afc>
    1d97: 86 14        	stx	$14                     ; 0x14 <__rc4>
    1d99: 9c 81 d5     	stz	$d581                   ; 0xd581 <__heap_start+0x8afd>
    1d9c: a2 b3        	ldx	#$b3
    1d9e: 8e 80 d5     	stx	$d580                   ; 0xd580 <__heap_start+0x8afc>
    1da1: 86 17        	stx	$17                     ; 0x17 <__rc7>
    1da3: 9c 81 d5     	stz	$d581                   ; 0xd581 <__heap_start+0x8afd>
    1da6: a2 a3        	ldx	#$a3
    1da8: 8e 80 d5     	stx	$d580                   ; 0xd580 <__heap_start+0x8afc>
    1dab: 86 16        	stx	$16                     ; 0x16 <__rc6>
    1dad: 9c 81 d5     	stz	$d581                   ; 0xd581 <__heap_start+0x8afd>
    1db0: a2 b4        	ldx	#$b4
    1db2: 8e 80 d5     	stx	$d580                   ; 0xd580 <__heap_start+0x8afc>
    1db5: 86 19        	stx	$19                     ; 0x19 <__rc9>
    1db7: 9c 81 d5     	stz	$d581                   ; 0xd581 <__heap_start+0x8afd>
    1dba: a2 a4        	ldx	#$a4
    1dbc: 8e 80 d5     	stx	$d580                   ; 0xd580 <__heap_start+0x8afc>
    1dbf: 86 18        	stx	$18                     ; 0x18 <__rc8>
    1dc1: 9c 81 d5     	stz	$d581                   ; 0xd581 <__heap_start+0x8afd>
    1dc4: a2 b5        	ldx	#$b5
    1dc6: 8e 80 d5     	stx	$d580                   ; 0xd580 <__heap_start+0x8afc>
    1dc9: 86 1b        	stx	$1b                     ; 0x1b <__rc11>
    1dcb: 9c 81 d5     	stz	$d581                   ; 0xd581 <__heap_start+0x8afd>
    1dce: a2 a5        	ldx	#$a5
    1dd0: 8e 80 d5     	stx	$d580                   ; 0xd580 <__heap_start+0x8afc>
    1dd3: 86 1a        	stx	$1a                     ; 0x1a <__rc10>
    1dd5: 9c 81 d5     	stz	$d581                   ; 0xd581 <__heap_start+0x8afd>
    1dd8: a2 b6        	ldx	#$b6
    1dda: 8e 80 d5     	stx	$d580                   ; 0xd580 <__heap_start+0x8afc>
    1ddd: 86 1d        	stx	$1d                     ; 0x1d <__rc13>
    1ddf: 9c 81 d5     	stz	$d581                   ; 0xd581 <__heap_start+0x8afd>
    1de2: a2 a6        	ldx	#$a6
    1de4: 8e 80 d5     	stx	$d580                   ; 0xd580 <__heap_start+0x8afc>
    1de7: 86 1c        	stx	$1c                     ; 0x1c <__rc12>
    1de9: 9c 81 d5     	stz	$d581                   ; 0xd581 <__heap_start+0x8afd>
    1dec: a2 b7        	ldx	#$b7
    1dee: 8e 80 d5     	stx	$d580                   ; 0xd580 <__heap_start+0x8afc>
    1df1: 86 1f        	stx	$1f                     ; 0x1f <__rc15>
    1df3: 9c 81 d5     	stz	$d581                   ; 0xd581 <__heap_start+0x8afd>
    1df6: a2 a7        	ldx	#$a7
    1df8: 8e 80 d5     	stx	$d580                   ; 0xd580 <__heap_start+0x8afc>
    1dfb: 86 1e        	stx	$1e                     ; 0x1e <__rc14>
    1dfd: 9c 81 d5     	stz	$d581                   ; 0xd581 <__heap_start+0x8afd>
    1e00: a2 b8        	ldx	#$b8
    1e02: 8e 80 d5     	stx	$d580                   ; 0xd580 <__heap_start+0x8afc>
    1e05: 86 23        	stx	$23                     ; 0x23 <__rc19>
    1e07: 9c 81 d5     	stz	$d581                   ; 0xd581 <__heap_start+0x8afd>
    1e0a: a2 a8        	ldx	#$a8
    1e0c: 8e 80 d5     	stx	$d580                   ; 0xd580 <__heap_start+0x8afc>
    1e0f: 86 22        	stx	$22                     ; 0x22 <__rc18>
    1e11: 9c 81 d5     	stz	$d581                   ; 0xd581 <__heap_start+0x8afd>
    1e14: a6 13        	ldx	$13                     ; 0x13 <__rc3>
    1e16: 8e 82 d5     	stx	$d582                   ; 0xd582 <__heap_start+0x8afe>
    1e19: 9c 81 d5     	stz	$d581                   ; 0xd581 <__heap_start+0x8afd>
    1e1c: 8c 82 d5     	sty	$d582                   ; 0xd582 <__heap_start+0x8afe>
    1e1f: 9c 81 d5     	stz	$d581                   ; 0xd581 <__heap_start+0x8afd>
    1e22: 8d 82 d5     	sta	$d582                   ; 0xd582 <__heap_start+0x8afe>
    1e25: 9c 81 d5     	stz	$d581                   ; 0xd581 <__heap_start+0x8afd>
    1e28: a6 12        	ldx	$12                     ; 0x12 <__rc2>
    1e2a: 8e 82 d5     	stx	$d582                   ; 0xd582 <__heap_start+0x8afe>
    1e2d: 9c 81 d5     	stz	$d581                   ; 0xd581 <__heap_start+0x8afd>
    1e30: a6 15        	ldx	$15                     ; 0x15 <__rc5>
    1e32: 8e 82 d5     	stx	$d582                   ; 0xd582 <__heap_start+0x8afe>
    1e35: 9c 81 d5     	stz	$d581                   ; 0xd581 <__heap_start+0x8afd>
    1e38: a6 14        	ldx	$14                     ; 0x14 <__rc4>
    1e3a: 8e 82 d5     	stx	$d582                   ; 0xd582 <__heap_start+0x8afe>
    1e3d: 9c 81 d5     	stz	$d581                   ; 0xd581 <__heap_start+0x8afd>
    1e40: a6 17        	ldx	$17                     ; 0x17 <__rc7>
    1e42: 8e 82 d5     	stx	$d582                   ; 0xd582 <__heap_start+0x8afe>
    1e45: 9c 81 d5     	stz	$d581                   ; 0xd581 <__heap_start+0x8afd>
    1e48: a6 16        	ldx	$16                     ; 0x16 <__rc6>
    1e4a: 8e 82 d5     	stx	$d582                   ; 0xd582 <__heap_start+0x8afe>
    1e4d: 9c 81 d5     	stz	$d581                   ; 0xd581 <__heap_start+0x8afd>
    1e50: a6 19        	ldx	$19                     ; 0x19 <__rc9>
    1e52: 8e 82 d5     	stx	$d582                   ; 0xd582 <__heap_start+0x8afe>
    1e55: 9c 81 d5     	stz	$d581                   ; 0xd581 <__heap_start+0x8afd>
    1e58: a6 18        	ldx	$18                     ; 0x18 <__rc8>
    1e5a: 8e 82 d5     	stx	$d582                   ; 0xd582 <__heap_start+0x8afe>
    1e5d: 9c 81 d5     	stz	$d581                   ; 0xd581 <__heap_start+0x8afd>
    1e60: a6 1b        	ldx	$1b                     ; 0x1b <__rc11>
    1e62: 8e 82 d5     	stx	$d582                   ; 0xd582 <__heap_start+0x8afe>
    1e65: 9c 81 d5     	stz	$d581                   ; 0xd581 <__heap_start+0x8afd>
    1e68: a6 1a        	ldx	$1a                     ; 0x1a <__rc10>
    1e6a: 8e 82 d5     	stx	$d582                   ; 0xd582 <__heap_start+0x8afe>
    1e6d: 9c 81 d5     	stz	$d581                   ; 0xd581 <__heap_start+0x8afd>
    1e70: a6 1d        	ldx	$1d                     ; 0x1d <__rc13>
    1e72: 8e 82 d5     	stx	$d582                   ; 0xd582 <__heap_start+0x8afe>
    1e75: 9c 81 d5     	stz	$d581                   ; 0xd581 <__heap_start+0x8afd>
    1e78: a6 1c        	ldx	$1c                     ; 0x1c <__rc12>
    1e7a: 8e 82 d5     	stx	$d582                   ; 0xd582 <__heap_start+0x8afe>
    1e7d: 9c 81 d5     	stz	$d581                   ; 0xd581 <__heap_start+0x8afd>
    1e80: a6 1f        	ldx	$1f                     ; 0x1f <__rc15>
    1e82: 8e 82 d5     	stx	$d582                   ; 0xd582 <__heap_start+0x8afe>
    1e85: 9c 81 d5     	stz	$d581                   ; 0xd581 <__heap_start+0x8afd>
    1e88: a6 1e        	ldx	$1e                     ; 0x1e <__rc14>
    1e8a: 8e 82 d5     	stx	$d582                   ; 0xd582 <__heap_start+0x8afe>
    1e8d: 9c 81 d5     	stz	$d581                   ; 0xd581 <__heap_start+0x8afd>
    1e90: a6 23        	ldx	$23                     ; 0x23 <__rc19>
    1e92: 8e 82 d5     	stx	$d582                   ; 0xd582 <__heap_start+0x8afe>
    1e95: 9c 81 d5     	stz	$d581                   ; 0xd581 <__heap_start+0x8afd>
    1e98: a6 22        	ldx	$22                     ; 0x22 <__rc18>
    1e9a: 8e 82 d5     	stx	$d582                   ; 0xd582 <__heap_start+0x8afe>
    1e9d: 9c 81 d5     	stz	$d581                   ; 0xd581 <__heap_start+0x8afd>
    1ea0: a0 01        	ldy	#$1
    1ea2: a2 01        	ldx	#$1
    1ea4: 86 25        	stx	$25                     ; 0x25 <__rc21>
    1ea6: 84 6f        	sty	$6f                     ; 0x6f <wantSound>
    1ea8: 4c 54 22     	jmp	$2254 <main+0x1c43>
    1eab: a0 00        	ldy	#$0
    1ead: a9 5f        	lda	#$5f
    1eaf: e0 00        	cpx	#$0
    1eb1: d0 02        	bne	$1eb5 <main+0x18a4>
    1eb3: a9 5e        	lda	#$5e
    1eb5: 84 60        	sty	$60                     ; 0x60 <wantText>
    1eb7: 8d 00 d0     	sta	$d000                   ; 0xd000 <__heap_start+0x857c>
    1eba: 4c 54 22     	jmp	$2254 <main+0x1c43>
    1ebd: 84 16        	sty	$16                     ; 0x16 <__rc6>
    1ebf: e4 81        	cpx	$81                     ; 0x81 <gd3Location+0x3>
    1ec1: a8           	tay
    1ec2: a5 15        	lda	$15                     ; 0x15 <__rc5>
    1ec4: 90 03        	bcc	$1ec9 <main+0x18b8>
    1ec6: 4c 81 23     	jmp	$2381 <main+0x1d70>
    1ec9: 4c a4 1f     	jmp	$1fa4 <main+0x1993>
    1ecc: c0 00        	cpy	#$0
    1ece: b0 03        	bcs	$1ed3 <main+0x18c2>
    1ed0: 4c 3b 1d     	jmp	$1d3b <main+0x172a>
    1ed3: a2 ff        	ldx	#$ff
    1ed5: 8e 55 d6     	stx	$d655                   ; 0xd655 <__heap_start+0x8bd1>
    1ed8: 8e 56 d6     	stx	$d656                   ; 0xd656 <__heap_start+0x8bd2>
    1edb: 8e 57 d6     	stx	$d657                   ; 0xd657 <__heap_start+0x8bd3>
    1ede: 9c 54 d6     	stz	$d654                   ; 0xd654 <__heap_start+0x8bd0>
    1ee1: a0 02        	ldy	#$2
    1ee3: a2 02        	ldx	#$2
    1ee5: 86 24        	stx	$24                     ; 0x24 <__rc20>
    1ee7: 8c 50 d6     	sty	$d650                   ; 0xd650 <__heap_start+0x8bcc>
    1eea: a2 89        	ldx	#$89
    1eec: 8e 50 d6     	stx	$d650                   ; 0xd650 <__heap_start+0x8bcc>
    1eef: a5 79        	lda	$79                     ; 0x79 <tooBigWait>
    1ef1: a6 7a        	ldx	$7a                     ; 0x7a <tooBigWait+0x1>
    1ef3: 86 12        	stx	$12                     ; 0x12 <__rc2>
    1ef5: a4 7b        	ldy	$7b                     ; 0x7b <tooBigWait+0x2>
    1ef7: a6 7c        	ldx	$7c                     ; 0x7c <tooBigWait+0x3>
    1ef9: 86 13        	stx	$13                     ; 0x13 <__rc3>
    1efb: 18           	clc
    1efc: 69 01        	adc	#$1
    1efe: aa           	tax
    1eff: a5 12        	lda	$12                     ; 0x12 <__rc2>
    1f01: 69 00        	adc	#$0
    1f03: 85 12        	sta	$12                     ; 0x12 <__rc2>
    1f05: 98           	tya
    1f06: 69 00        	adc	#$0
    1f08: 85 14        	sta	$14                     ; 0x14 <__rc4>
    1f0a: a5 13        	lda	$13                     ; 0x13 <__rc3>
    1f0c: 69 ff        	adc	#$ff
    1f0e: 86 79        	stx	$79                     ; 0x79 <tooBigWait>
    1f10: a6 12        	ldx	$12                     ; 0x12 <__rc2>
    1f12: 86 7a        	stx	$7a                     ; 0x7a <tooBigWait+0x1>
    1f14: a6 14        	ldx	$14                     ; 0x14 <__rc4>
    1f16: 86 7b        	stx	$7b                     ; 0x7b <tooBigWait+0x2>
    1f18: 85 7c        	sta	$7c                     ; 0x7c <tooBigWait+0x3>
    1f1a: 4c 5a 22     	jmp	$225a <main+0x1c49>
    1f1d: a5 8a        	lda	$8a                     ; 0x8a <needle>
    1f1f: a6 8b        	ldx	$8b                     ; 0x8b <needle+0x1>
    1f21: 86 12        	stx	$12                     ; 0x12 <__rc2>
    1f23: a4 8c        	ldy	$8c                     ; 0x8c <needle+0x2>
    1f25: a6 8d        	ldx	$8d                     ; 0x8d <needle+0x3>
    1f27: 86 13        	stx	$13                     ; 0x13 <__rc3>
    1f29: 18           	clc
    1f2a: 69 04        	adc	#$4
    1f2c: 80 34        	bra	$1f62 <main+0x1951>
    1f2e: a2 08        	ldx	#$8
    1f30: 86 6c        	stx	$6c                     ; 0x6c <tm_xf1>
    1f32: 64 6d        	stz	$6d                     ; 0x6d <tm_xf1+0x1>
    1f34: a5 6e        	lda	$6e                     ; 0x6e <tm_x1>
    1f36: d0 03        	bne	$1f3b <main+0x192a>
    1f38: 4c d3 1f     	jmp	$1fd3 <main+0x19c2>
    1f3b: 3a           	dec
    1f3c: 4c d5 1f     	jmp	$1fd5 <main+0x19c4>
    1f3f: 84 16        	sty	$16                     ; 0x16 <__rc6>
    1f41: c4 14        	cpy	$14                     ; 0x14 <__rc4>
    1f43: a5 15        	lda	$15                     ; 0x15 <__rc5>
    1f45: 80 54        	bra	$1f9b <main+0x198a>
    1f47: a6 13        	ldx	$13                     ; 0x13 <__rc3>
    1f49: e0 00        	cpx	#$0
    1f4b: b0 03        	bcs	$1f50 <main+0x193f>
    1f4d: 4c 3b 1d     	jmp	$1d3b <main+0x172a>
    1f50: 4c d3 1e     	jmp	$1ed3 <main+0x18c2>
    1f53: a5 8a        	lda	$8a                     ; 0x8a <needle>
    1f55: a6 8b        	ldx	$8b                     ; 0x8b <needle+0x1>
    1f57: 86 12        	stx	$12                     ; 0x12 <__rc2>
    1f59: a4 8c        	ldy	$8c                     ; 0x8c <needle+0x2>
    1f5b: a6 8d        	ldx	$8d                     ; 0x8d <needle+0x3>
    1f5d: 86 13        	stx	$13                     ; 0x13 <__rc3>
    1f5f: 18           	clc
    1f60: 69 03        	adc	#$3
    1f62: aa           	tax
    1f63: a5 12        	lda	$12                     ; 0x12 <__rc2>
    1f65: 69 00        	adc	#$0
    1f67: 85 12        	sta	$12                     ; 0x12 <__rc2>
    1f69: 98           	tya
    1f6a: 69 00        	adc	#$0
    1f6c: 85 14        	sta	$14                     ; 0x14 <__rc4>
    1f6e: a5 13        	lda	$13                     ; 0x13 <__rc3>
    1f70: 69 00        	adc	#$0
    1f72: 86 8a        	stx	$8a                     ; 0x8a <needle>
    1f74: a6 12        	ldx	$12                     ; 0x12 <__rc2>
    1f76: 86 8b        	stx	$8b                     ; 0x8b <needle+0x1>
    1f78: a6 14        	ldx	$14                     ; 0x14 <__rc4>
    1f7a: 86 8c        	stx	$8c                     ; 0x8c <needle+0x2>
    1f7c: 85 8d        	sta	$8d                     ; 0x8d <needle+0x3>
    1f7e: a0 01        	ldy	#$1
    1f80: a2 01        	ldx	#$1
    1f82: 86 25        	stx	$25                     ; 0x25 <__rc21>
    1f84: 84 92        	sty	$92                     ; 0x92 <comeRightTrough>
    1f86: 4c 5a 22     	jmp	$225a <main+0x1c49>
    1f89: e6 8a        	inc	$8a                     ; 0x8a <needle>
    1f8b: d0 f1        	bne	$1f7e <main+0x196d>
    1f8d: e6 8b        	inc	$8b                     ; 0x8b <needle+0x1>
    1f8f: d0 ed        	bne	$1f7e <main+0x196d>
    1f91: e6 8c        	inc	$8c                     ; 0x8c <needle+0x2>
    1f93: d0 e9        	bne	$1f7e <main+0x196d>
    1f95: e6 8d        	inc	$8d                     ; 0x8d <needle+0x3>
    1f97: 80 e5        	bra	$1f7e <main+0x196d>
    1f99: c5 13        	cmp	$13                     ; 0x13 <__rc3>
    1f9b: a6 17        	ldx	$17                     ; 0x17 <__rc7>
    1f9d: a4 19        	ldy	$19                     ; 0x19 <__rc9>
    1f9f: 90 03        	bcc	$1fa4 <main+0x1993>
    1fa1: 4c 81 23     	jmp	$2381 <main+0x1d70>
    1fa4: e0 00        	cpx	#$0
    1fa6: f0 03        	beq	$1fab <main+0x199a>
    1fa8: 4c dd 23     	jmp	$23dd <main+0x1dcc>
    1fab: 86 13        	stx	$13                     ; 0x13 <__rc3>
    1fad: a6 16        	ldx	$16                     ; 0x16 <__rc6>
    1faf: a4 18        	ldy	$18                     ; 0x18 <__rc8>
    1fb1: e0 10        	cpx	#$10
    1fb3: d0 08        	bne	$1fbd <main+0x19ac>
    1fb5: c9 22        	cmp	#$22
    1fb7: d0 0e        	bne	$1fc7 <main+0x19b6>
    1fb9: c0 d9        	cpy	#$d9
    1fbb: 80 0c        	bra	$1fc9 <main+0x19b8>
    1fbd: e0 10        	cpx	#$10
    1fbf: 90 03        	bcc	$1fc4 <main+0x19b3>
    1fc1: 4c e7 23     	jmp	$23e7 <main+0x1dd6>
    1fc4: 4c ee 23     	jmp	$23ee <main+0x1ddd>
    1fc7: c9 22        	cmp	#$22
    1fc9: a6 16        	ldx	$16                     ; 0x16 <__rc6>
    1fcb: 90 03        	bcc	$1fd0 <main+0x19bf>
    1fcd: 4c e7 23     	jmp	$23e7 <main+0x1dd6>
    1fd0: 4c ee 23     	jmp	$23ee <main+0x1ddd>
    1fd3: a9 27        	lda	#$27
    1fd5: 85 6e        	sta	$6e                     ; 0x6e <tm_x1>
    1fd7: 64 12        	stz	$12                     ; 0x12 <__rc2>
    1fd9: 86 13        	stx	$13                     ; 0x13 <__rc3>
    1fdb: 4c ad 24     	jmp	$24ad <main+0x1e9c>
    1fde: a6 8a        	ldx	$8a                     ; 0x8a <needle>
    1fe0: 86 18        	stx	$18                     ; 0x18 <__rc8>
    1fe2: a5 8b        	lda	$8b                     ; 0x8b <needle+0x1>
    1fe4: a6 8c        	ldx	$8c                     ; 0x8c <needle+0x2>
    1fe6: 86 16        	stx	$16                     ; 0x16 <__rc6>
    1fe8: a6 8d        	ldx	$8d                     ; 0x8d <needle+0x3>
    1fea: e0 00        	cpx	#$0
    1fec: f0 bd        	beq	$1fab <main+0x199a>
    1fee: 4c dd 23     	jmp	$23dd <main+0x1dcc>
    1ff1: a6 8a        	ldx	$8a                     ; 0x8a <needle>
    1ff3: 86 14        	stx	$14                     ; 0x14 <__rc4>
    1ff5: a5 8b        	lda	$8b                     ; 0x8b <needle+0x1>
    1ff7: a4 8c        	ldy	$8c                     ; 0x8c <needle+0x2>
    1ff9: a6 8d        	ldx	$8d                     ; 0x8d <needle+0x3>
    1ffb: e6 8a        	inc	$8a                     ; 0x8a <needle>
    1ffd: d0 07        	bne	$2006 <main+0x19f5>
    1fff: e6 8b        	inc	$8b                     ; 0x8b <needle+0x1>
    2001: d0 03        	bne	$2006 <main+0x19f5>
    2003: 4c ce 25     	jmp	$25ce <main+0x1fbd>
    2006: 84 12        	sty	$12                     ; 0x12 <__rc2>
    2008: 86 13        	stx	$13                     ; 0x13 <__rc3>
    200a: aa           	tax
    200b: a5 14        	lda	$14                     ; 0x14 <__rc4>
    200d: 20 cb 05     	jsr	$5cb <PEEK24>
    2010: 85 25        	sta	$25                     ; 0x25 <__rc21>
    2012: a6 8a        	ldx	$8a                     ; 0x8a <needle>
    2014: 86 14        	stx	$14                     ; 0x14 <__rc4>
    2016: a5 8b        	lda	$8b                     ; 0x8b <needle+0x1>
    2018: a4 8c        	ldy	$8c                     ; 0x8c <needle+0x2>
    201a: a6 8d        	ldx	$8d                     ; 0x8d <needle+0x3>
    201c: e6 8a        	inc	$8a                     ; 0x8a <needle>
    201e: d0 07        	bne	$2027 <main+0x1a16>
    2020: e6 8b        	inc	$8b                     ; 0x8b <needle+0x1>
    2022: d0 03        	bne	$2027 <main+0x1a16>
    2024: 4c da 25     	jmp	$25da <main+0x1fc9>
    2027: 84 12        	sty	$12                     ; 0x12 <__rc2>
    2029: 86 13        	stx	$13                     ; 0x13 <__rc3>
    202b: aa           	tax
    202c: a5 14        	lda	$14                     ; 0x14 <__rc4>
    202e: 20 cb 05     	jsr	$5cb <PEEK24>
    2031: aa           	tax
    2032: a5 25        	lda	$25                     ; 0x25 <__rc21>
    2034: 8d 80 d5     	sta	$d580                   ; 0xd580 <__heap_start+0x8afc>
    2037: 8e 81 d5     	stx	$d581                   ; 0xd581 <__heap_start+0x8afd>
    203a: 64 12        	stz	$12                     ; 0x12 <__rc2>
    203c: 20 77 2c     	jsr	$2c77 <opl3_shadow>
    203f: 4c 7e 1f     	jmp	$1f7e <main+0x196d>
    2042: a6 8a        	ldx	$8a                     ; 0x8a <needle>
    2044: 86 14        	stx	$14                     ; 0x14 <__rc4>
    2046: a5 8b        	lda	$8b                     ; 0x8b <needle+0x1>
    2048: a4 8c        	ldy	$8c                     ; 0x8c <needle+0x2>
    204a: a6 8d        	ldx	$8d                     ; 0x8d <needle+0x3>
    204c: e6 8a        	inc	$8a                     ; 0x8a <needle>
    204e: d0 03        	bne	$2053 <main+0x1a42>
    2050: 4c 88 25     	jmp	$2588 <main+0x1f77>
    2053: 84 12        	sty	$12                     ; 0x12 <__rc2>
    2055: 86 13        	stx	$13                     ; 0x13 <__rc3>
    2057: aa           	tax
    2058: a5 14        	lda	$14                     ; 0x14 <__rc4>
    205a: 20 cb 05     	jsr	$5cb <PEEK24>
    205d: 85 26        	sta	$26                     ; 0x26 <__rc22>
    205f: a6 8a        	ldx	$8a                     ; 0x8a <needle>
    2061: 86 14        	stx	$14                     ; 0x14 <__rc4>
    2063: a5 8b        	lda	$8b                     ; 0x8b <needle+0x1>
    2065: a4 8c        	ldy	$8c                     ; 0x8c <needle+0x2>
    2067: a6 8d        	ldx	$8d                     ; 0x8d <needle+0x3>
    2069: e6 8a        	inc	$8a                     ; 0x8a <needle>
    206b: d0 03        	bne	$2070 <main+0x1a5f>
    206d: 4c 9b 25     	jmp	$259b <main+0x1f8a>
    2070: 84 12        	sty	$12                     ; 0x12 <__rc2>
    2072: 86 13        	stx	$13                     ; 0x13 <__rc3>
    2074: aa           	tax
    2075: a5 14        	lda	$14                     ; 0x14 <__rc4>
    2077: 20 cb 05     	jsr	$5cb <PEEK24>
    207a: 85 27        	sta	$27                     ; 0x27 <__rc23>
    207c: a5 26        	lda	$26                     ; 0x26 <__rc22>
    207e: 18           	clc
    207f: 65 8e        	adc	$8e                     ; 0x8e <samplesSoFar>
    2081: a8           	tay
    2082: a5 27        	lda	$27                     ; 0x27 <__rc23>
    2084: 65 8f        	adc	$8f                     ; 0x8f <samplesSoFar+0x1>
    2086: 85 13        	sta	$13                     ; 0x13 <__rc3>
    2088: a9 00        	lda	#$0
    208a: 65 90        	adc	$90                     ; 0x90 <samplesSoFar+0x2>
    208c: aa           	tax
    208d: a9 00        	lda	#$0
    208f: 65 91        	adc	$91                     ; 0x91 <samplesSoFar+0x3>
    2091: 84 8e        	sty	$8e                     ; 0x8e <samplesSoFar>
    2093: a4 13        	ldy	$13                     ; 0x13 <__rc3>
    2095: 84 8f        	sty	$8f                     ; 0x8f <samplesSoFar+0x1>
    2097: 86 90        	stx	$90                     ; 0x90 <samplesSoFar+0x2>
    2099: 85 91        	sta	$91                     ; 0x91 <samplesSoFar+0x3>
    209b: 64 12        	stz	$12                     ; 0x12 <__rc2>
    209d: 64 13        	stz	$13                     ; 0x13 <__rc3>
    209f: a6 2b        	ldx	$2b                     ; 0x2b <__rc27>
    20a1: 86 14        	stx	$14                     ; 0x14 <__rc4>
    20a3: a6 24        	ldx	$24                     ; 0x24 <__rc20>
    20a5: 86 15        	stx	$15                     ; 0x15 <__rc5>
    20a7: 86 2c        	stx	$2c                     ; 0x2c <__rc28>
    20a9: 64 16        	stz	$16                     ; 0x16 <__rc6>
    20ab: 64 2a        	stz	$2a                     ; 0x2a <__rc26>
    20ad: 64 17        	stz	$17                     ; 0x17 <__rc7>
    20af: a6 27        	ldx	$27                     ; 0x27 <__rc23>
    20b1: a5 26        	lda	$26                     ; 0x26 <__rc22>
    20b3: 20 b3 44     	jsr	$44b3 <__mulsi3>
    20b6: a8           	tay
    20b7: 8a           	txa
    20b8: a6 12        	ldx	$12                     ; 0x12 <__rc2>
    20ba: 84 15        	sty	$15                     ; 0x15 <__rc5>
    20bc: 84 79        	sty	$79                     ; 0x79 <tooBigWait>
    20be: 85 14        	sta	$14                     ; 0x14 <__rc4>
    20c0: 85 7a        	sta	$7a                     ; 0x7a <tooBigWait+0x1>
    20c2: a5 12        	lda	$12                     ; 0x12 <__rc2>
    20c4: 86 7b        	stx	$7b                     ; 0x7b <tooBigWait+0x2>
    20c6: a6 13        	ldx	$13                     ; 0x13 <__rc3>
    20c8: 86 7c        	stx	$7c                     ; 0x7c <tooBigWait+0x3>
    20ca: a6 2c        	ldx	$2c                     ; 0x2c <__rc28>
    20cc: 8e 50 d6     	stx	$d650                   ; 0xd650 <__heap_start+0x8bcc>
    20cf: a4 27        	ldy	$27                     ; 0x27 <__rc23>
    20d1: c0 72        	cpy	#$72
    20d3: f0 03        	beq	$20d8 <main+0x1ac7>
    20d5: 4c b7 25     	jmp	$25b7 <main+0x1fa6>
    20d8: 4c ae 25     	jmp	$25ae <main+0x1f9d>
    20db: a0 02        	ldy	#$2
    20dd: 8c 50 d6     	sty	$d650                   ; 0xd650 <__heap_start+0x8bcc>
    20e0: a2 66        	ldx	#$66
    20e2: 8e 55 d6     	stx	$d655                   ; 0xd655 <__heap_start+0x8bd1>
    20e5: 8e 56 d6     	stx	$d656                   ; 0xd656 <__heap_start+0x8bd2>
    20e8: a2 06        	ldx	#$6
    20ea: 8e 57 d6     	stx	$d657                   ; 0xd657 <__heap_start+0x8bd3>
    20ed: 9c 54 d6     	stz	$d654                   ; 0xd654 <__heap_start+0x8bd0>
    20f0: a2 02        	ldx	#$2
    20f2: 86 24        	stx	$24                     ; 0x24 <__rc20>
    20f4: 8c 50 d6     	sty	$d650                   ; 0xd650 <__heap_start+0x8bcc>
    20f7: a2 89        	ldx	#$89
    20f9: 8e 50 d6     	stx	$d650                   ; 0xd650 <__heap_start+0x8bcc>
    20fc: a5 8e        	lda	$8e                     ; 0x8e <samplesSoFar>
    20fe: a6 8f        	ldx	$8f                     ; 0x8f <samplesSoFar+0x1>
    2100: 86 12        	stx	$12                     ; 0x12 <__rc2>
    2102: a4 90        	ldy	$90                     ; 0x90 <samplesSoFar+0x2>
    2104: a6 91        	ldx	$91                     ; 0x91 <samplesSoFar+0x3>
    2106: 86 13        	stx	$13                     ; 0x13 <__rc3>
    2108: 18           	clc
    2109: 69 df        	adc	#$df
    210b: aa           	tax
    210c: a5 12        	lda	$12                     ; 0x12 <__rc2>
    210e: 69 02        	adc	#$2
    2110: 4c 34 22     	jmp	$2234 <main+0x1c23>
    2113: a5 8a        	lda	$8a                     ; 0x8a <needle>
    2115: a6 8b        	ldx	$8b                     ; 0x8b <needle+0x1>
    2117: 86 15        	stx	$15                     ; 0x15 <__rc5>
    2119: a6 8c        	ldx	$8c                     ; 0x8c <needle+0x2>
    211b: 86 16        	stx	$16                     ; 0x16 <__rc6>
    211d: a6 8d        	ldx	$8d                     ; 0x8d <needle+0x3>
    211f: 86 13        	stx	$13                     ; 0x13 <__rc3>
    2121: 18           	clc
    2122: 69 02        	adc	#$2
    2124: 85 14        	sta	$14                     ; 0x14 <__rc4>
    2126: a5 15        	lda	$15                     ; 0x15 <__rc5>
    2128: 69 00        	adc	#$0
    212a: aa           	tax
    212b: a5 16        	lda	$16                     ; 0x16 <__rc6>
    212d: 69 00        	adc	#$0
    212f: a8           	tay
    2130: a5 13        	lda	$13                     ; 0x13 <__rc3>
    2132: 69 00        	adc	#$0
    2134: 85 13        	sta	$13                     ; 0x13 <__rc3>
    2136: a5 14        	lda	$14                     ; 0x14 <__rc4>
    2138: 85 8a        	sta	$8a                     ; 0x8a <needle>
    213a: 86 8b        	stx	$8b                     ; 0x8b <needle+0x1>
    213c: 98           	tya
    213d: 84 8c        	sty	$8c                     ; 0x8c <needle+0x2>
    213f: a4 13        	ldy	$13                     ; 0x13 <__rc3>
    2141: 84 8d        	sty	$8d                     ; 0x8d <needle+0x3>
    2143: 85 12        	sta	$12                     ; 0x12 <__rc2>
    2145: a5 14        	lda	$14                     ; 0x14 <__rc4>
    2147: 20 cb 05     	jsr	$5cb <PEEK24>
    214a: a5 8a        	lda	$8a                     ; 0x8a <needle>
    214c: a6 8b        	ldx	$8b                     ; 0x8b <needle+0x1>
    214e: a4 8c        	ldy	$8c                     ; 0x8c <needle+0x2>
    2150: 84 12        	sty	$12                     ; 0x12 <__rc2>
    2152: a4 8d        	ldy	$8d                     ; 0x8d <needle+0x3>
    2154: 1a           	inc
    2155: d0 03        	bne	$215a <main+0x1b49>
    2157: 4c e6 25     	jmp	$25e6 <main+0x1fd5>
    215a: 84 13        	sty	$13                     ; 0x13 <__rc3>
    215c: 20 cb 05     	jsr	$5cb <PEEK24>
    215f: a5 8a        	lda	$8a                     ; 0x8a <needle>
    2161: a6 8b        	ldx	$8b                     ; 0x8b <needle+0x1>
    2163: a4 8c        	ldy	$8c                     ; 0x8c <needle+0x2>
    2165: 84 13        	sty	$13                     ; 0x13 <__rc3>
    2167: a4 8d        	ldy	$8d                     ; 0x8d <needle+0x3>
    2169: 18           	clc
    216a: 69 02        	adc	#$2
    216c: 85 14        	sta	$14                     ; 0x14 <__rc4>
    216e: 8a           	txa
    216f: 69 00        	adc	#$0
    2171: aa           	tax
    2172: a5 13        	lda	$13                     ; 0x13 <__rc3>
    2174: 69 00        	adc	#$0
    2176: 85 12        	sta	$12                     ; 0x12 <__rc2>
    2178: 98           	tya
    2179: 69 00        	adc	#$0
    217b: 85 13        	sta	$13                     ; 0x13 <__rc3>
    217d: a5 14        	lda	$14                     ; 0x14 <__rc4>
    217f: 20 cb 05     	jsr	$5cb <PEEK24>
    2182: a5 8a        	lda	$8a                     ; 0x8a <needle>
    2184: a6 8b        	ldx	$8b                     ; 0x8b <needle+0x1>
    2186: a4 8c        	ldy	$8c                     ; 0x8c <needle+0x2>
    2188: 84 13        	sty	$13                     ; 0x13 <__rc3>
    218a: a4 8d        	ldy	$8d                     ; 0x8d <needle+0x3>
    218c: 18           	clc
    218d: 69 03        	adc	#$3
    218f: 85 14        	sta	$14                     ; 0x14 <__rc4>
    2191: 8a           	txa
    2192: 69 00        	adc	#$0
    2194: aa           	tax
    2195: a5 13        	lda	$13                     ; 0x13 <__rc3>
    2197: 69 00        	adc	#$0
    2199: 85 12        	sta	$12                     ; 0x12 <__rc2>
    219b: 98           	tya
    219c: 69 00        	adc	#$0
    219e: 85 13        	sta	$13                     ; 0x13 <__rc3>
    21a0: a5 14        	lda	$14                     ; 0x14 <__rc4>
    21a2: 20 cb 05     	jsr	$5cb <PEEK24>
    21a5: 4c 5a 22     	jmp	$225a <main+0x1c49>
    21a8: a6 8a        	ldx	$8a                     ; 0x8a <needle>
    21aa: 86 14        	stx	$14                     ; 0x14 <__rc4>
    21ac: a5 8b        	lda	$8b                     ; 0x8b <needle+0x1>
    21ae: a4 8c        	ldy	$8c                     ; 0x8c <needle+0x2>
    21b0: a6 8d        	ldx	$8d                     ; 0x8d <needle+0x3>
    21b2: e6 8a        	inc	$8a                     ; 0x8a <needle>
    21b4: d0 03        	bne	$21b9 <main+0x1ba8>
    21b6: 4c f7 25     	jmp	$25f7 <main+0x1fe6>
    21b9: 84 12        	sty	$12                     ; 0x12 <__rc2>
    21bb: 86 13        	stx	$13                     ; 0x13 <__rc3>
    21bd: aa           	tax
    21be: a5 14        	lda	$14                     ; 0x14 <__rc4>
    21c0: 20 cb 05     	jsr	$5cb <PEEK24>
    21c3: 85 26        	sta	$26                     ; 0x26 <__rc22>
    21c5: a6 8a        	ldx	$8a                     ; 0x8a <needle>
    21c7: 86 14        	stx	$14                     ; 0x14 <__rc4>
    21c9: a5 8b        	lda	$8b                     ; 0x8b <needle+0x1>
    21cb: a4 8c        	ldy	$8c                     ; 0x8c <needle+0x2>
    21cd: a6 8d        	ldx	$8d                     ; 0x8d <needle+0x3>
    21cf: e6 8a        	inc	$8a                     ; 0x8a <needle>
    21d1: d0 03        	bne	$21d6 <main+0x1bc5>
    21d3: 4c 0a 26     	jmp	$260a <main+0x1ff9>
    21d6: 84 12        	sty	$12                     ; 0x12 <__rc2>
    21d8: 86 13        	stx	$13                     ; 0x13 <__rc3>
    21da: aa           	tax
    21db: a5 14        	lda	$14                     ; 0x14 <__rc4>
    21dd: 20 cb 05     	jsr	$5cb <PEEK24>
    21e0: aa           	tax
    21e1: a5 26        	lda	$26                     ; 0x26 <__rc22>
    21e3: 8d 82 d5     	sta	$d582                   ; 0xd582 <__heap_start+0x8afe>
    21e6: 8e 81 d5     	stx	$d581                   ; 0xd581 <__heap_start+0x8afd>
    21e9: a4 25        	ldy	$25                     ; 0x25 <__rc21>
    21eb: 84 12        	sty	$12                     ; 0x12 <__rc2>
    21ed: 84 26        	sty	$26                     ; 0x26 <__rc22>
    21ef: 20 77 2c     	jsr	$2c77 <opl3_shadow>
    21f2: a2 01        	ldx	#$1
    21f4: 86 25        	stx	$25                     ; 0x25 <__rc21>
    21f6: a6 26        	ldx	$26                     ; 0x26 <__rc22>
    21f8: 86 92        	stx	$92                     ; 0x92 <comeRightTrough>
    21fa: 4c 5a 22     	jmp	$225a <main+0x1c49>
    21fd: a0 02        	ldy	#$2
    21ff: 8c 50 d6     	sty	$d650                   ; 0xd650 <__heap_start+0x8bcc>
    2202: a2 15        	ldx	#$15
    2204: 8e 55 d6     	stx	$d655                   ; 0xd655 <__heap_start+0x8bd1>
    2207: a2 ae        	ldx	#$ae
    2209: 8e 56 d6     	stx	$d656                   ; 0xd656 <__heap_start+0x8bd2>
    220c: a2 07        	ldx	#$7
    220e: 8e 57 d6     	stx	$d657                   ; 0xd657 <__heap_start+0x8bd3>
    2211: 9c 54 d6     	stz	$d654                   ; 0xd654 <__heap_start+0x8bd0>
    2214: a2 02        	ldx	#$2
    2216: 86 24        	stx	$24                     ; 0x24 <__rc20>
    2218: 8c 50 d6     	sty	$d650                   ; 0xd650 <__heap_start+0x8bcc>
    221b: a2 89        	ldx	#$89
    221d: 8e 50 d6     	stx	$d650                   ; 0xd650 <__heap_start+0x8bcc>
    2220: a5 8e        	lda	$8e                     ; 0x8e <samplesSoFar>
    2222: a6 8f        	ldx	$8f                     ; 0x8f <samplesSoFar+0x1>
    2224: 86 12        	stx	$12                     ; 0x12 <__rc2>
    2226: a4 90        	ldy	$90                     ; 0x90 <samplesSoFar+0x2>
    2228: a6 91        	ldx	$91                     ; 0x91 <samplesSoFar+0x3>
    222a: 86 13        	stx	$13                     ; 0x13 <__rc3>
    222c: 18           	clc
    222d: 69 72        	adc	#$72
    222f: aa           	tax
    2230: a5 12        	lda	$12                     ; 0x12 <__rc2>
    2232: 69 03        	adc	#$3
    2234: 85 12        	sta	$12                     ; 0x12 <__rc2>
    2236: 98           	tya
    2237: 69 00        	adc	#$0
    2239: 85 14        	sta	$14                     ; 0x14 <__rc4>
    223b: a5 13        	lda	$13                     ; 0x13 <__rc3>
    223d: 69 00        	adc	#$0
    223f: 86 8e        	stx	$8e                     ; 0x8e <samplesSoFar>
    2241: a6 12        	ldx	$12                     ; 0x12 <__rc2>
    2243: 86 8f        	stx	$8f                     ; 0x8f <samplesSoFar+0x1>
    2245: a6 14        	ldx	$14                     ; 0x14 <__rc4>
    2247: 86 90        	stx	$90                     ; 0x90 <samplesSoFar+0x2>
    2249: 85 91        	sta	$91                     ; 0x91 <samplesSoFar+0x3>
    224b: 80 0d        	bra	$225a <main+0x1c49>
    224d: a6 75        	ldx	$75                     ; 0x75 <kernelEventData+0x4>
    224f: d0 03        	bne	$2254 <main+0x1c43>
    2251: 4c 25 23     	jmp	$2325 <main+0x1d14>
    2254: a5 6f        	lda	$6f                     ; 0x6f <wantSound>
    2256: 29 01        	and	#$1
    2258: f0 21        	beq	$227b <main+0x1c6a>
    225a: 64 71        	stz	$71                     ; 0x71 <kernelEventData>
    225c: a2 78        	ldx	#$78
    225e: 86 12        	stx	$12                     ; 0x12 <__rc2>
    2260: a2 00        	ldx	#$0
    2262: 86 13        	stx	$13                     ; 0x13 <__rc3>
    2264: 20 00 ff     	jsr	$ff00 <__heap_start+0xb47c>
    2267: 92 28        	sta	($28)                   ; 0x28 <__rc24>
    2269: a9 00        	lda	#$0
    226b: 6a           	ror
    226c: 85 12        	sta	$12                     ; 0x12 <__rc2>
    226e: a6 71        	ldx	$71                     ; 0x71 <kernelEventData>
    2270: e0 52        	cpx	#$52
    2272: f0 d9        	beq	$224d <main+0x1c3c>
    2274: e0 08        	cpx	#$8
    2276: d0 dc        	bne	$2254 <main+0x1c43>
    2278: 4c 0e 25     	jmp	$250e <main+0x1efd>
    227b: ad 60 d6     	lda	$d660                   ; 0xd660 <__heap_start+0x8bdc>
    227e: 29 10        	and	#$10
    2280: aa           	tax
    2281: a5 92        	lda	$92                     ; 0x92 <comeRightTrough>
    2283: 29 01        	and	#$1
    2285: e0 00        	cpx	#$0
    2287: d0 05        	bne	$228e <main+0x1c7d>
    2289: aa           	tax
    228a: f0 ce        	beq	$225a <main+0x1c49>
    228c: 80 08        	bra	$2296 <main+0x1c85>
    228e: aa           	tax
    228f: d0 05        	bne	$2296 <main+0x1c85>
    2291: a2 10        	ldx	#$10
    2293: 8e 60 d6     	stx	$d660                   ; 0xd660 <__heap_start+0x8bdc>
    2296: a6 79        	ldx	$79                     ; 0x79 <tooBigWait>
    2298: 86 16        	stx	$16                     ; 0x16 <__rc6>
    229a: a5 7a        	lda	$7a                     ; 0x7a <tooBigWait+0x1>
    229c: a4 7b        	ldy	$7b                     ; 0x7b <tooBigWait+0x2>
    229e: a6 7c        	ldx	$7c                     ; 0x7c <tooBigWait+0x3>
    22a0: d0 0e        	bne	$22b0 <main+0x1c9f>
    22a2: c0 00        	cpy	#$0
    22a4: d0 0a        	bne	$22b0 <main+0x1c9f>
    22a6: c9 00        	cmp	#$0
    22a8: d0 06        	bne	$22b0 <main+0x1c9f>
    22aa: e6 16        	inc	$16                     ; 0x16 <__rc6>
    22ac: c6 16        	dec	$16                     ; 0x16 <__rc6>
    22ae: f0 0b        	beq	$22bb <main+0x1caa>
    22b0: 85 13        	sta	$13                     ; 0x13 <__rc3>
    22b2: a5 92        	lda	$92                     ; 0x92 <comeRightTrough>
    22b4: 29 01        	and	#$1
    22b6: d0 03        	bne	$22bb <main+0x1caa>
    22b8: 4c 4b 23     	jmp	$234b <main+0x1d3a>
    22bb: 64 92        	stz	$92                     ; 0x92 <comeRightTrough>
    22bd: a6 91        	ldx	$91                     ; 0x91 <samplesSoFar+0x3>
    22bf: e4 85        	cpx	$85                     ; 0x85 <totalWait+0x3>
    22c1: f0 03        	beq	$22c6 <main+0x1cb5>
    22c3: 4c 6c 23     	jmp	$236c <main+0x1d5b>
    22c6: a6 90        	ldx	$90                     ; 0x90 <samplesSoFar+0x2>
    22c8: a4 84        	ldy	$84                     ; 0x84 <totalWait+0x2>
    22ca: 84 12        	sty	$12                     ; 0x12 <__rc2>
    22cc: e4 12        	cpx	$12                     ; 0x12 <__rc2>
    22ce: d0 10        	bne	$22e0 <main+0x1ccf>
    22d0: a6 8f        	ldx	$8f                     ; 0x8f <samplesSoFar+0x1>
    22d2: a4 83        	ldy	$83                     ; 0x83 <totalWait+0x1>
    22d4: 84 12        	sty	$12                     ; 0x12 <__rc2>
    22d6: e4 12        	cpx	$12                     ; 0x12 <__rc2>
    22d8: d0 06        	bne	$22e0 <main+0x1ccf>
    22da: a6 8e        	ldx	$8e                     ; 0x8e <samplesSoFar>
    22dc: a4 82        	ldy	$82                     ; 0x82 <totalWait>
    22de: 84 12        	sty	$12                     ; 0x12 <__rc2>
    22e0: e4 12        	cpx	$12                     ; 0x12 <__rc2>
    22e2: 90 03        	bcc	$22e7 <main+0x1cd6>
    22e4: 4c 73 23     	jmp	$2373 <main+0x1d62>
    22e7: a6 8a        	ldx	$8a                     ; 0x8a <needle>
    22e9: 86 18        	stx	$18                     ; 0x18 <__rc8>
    22eb: a6 8b        	ldx	$8b                     ; 0x8b <needle+0x1>
    22ed: 86 15        	stx	$15                     ; 0x15 <__rc5>
    22ef: a4 8c        	ldy	$8c                     ; 0x8c <needle+0x2>
    22f1: a6 8d        	ldx	$8d                     ; 0x8d <needle+0x3>
    22f3: a5 7e        	lda	$7e                     ; 0x7e <gd3Location>
    22f5: 85 12        	sta	$12                     ; 0x12 <__rc2>
    22f7: a5 7f        	lda	$7f                     ; 0x7f <gd3Location+0x1>
    22f9: 85 13        	sta	$13                     ; 0x13 <__rc3>
    22fb: a5 80        	lda	$80                     ; 0x80 <gd3Location+0x2>
    22fd: 85 14        	sta	$14                     ; 0x14 <__rc4>
    22ff: a5 81        	lda	$81                     ; 0x81 <gd3Location+0x3>
    2301: e4 81        	cpx	$81                     ; 0x81 <gd3Location+0x3>
    2303: f0 03        	beq	$2308 <main+0x1cf7>
    2305: 4c bd 1e     	jmp	$1ebd <main+0x18ac>
    2308: 85 19        	sta	$19                     ; 0x19 <__rc9>
    230a: 86 17        	stx	$17                     ; 0x17 <__rc7>
    230c: c4 14        	cpy	$14                     ; 0x14 <__rc4>
    230e: f0 03        	beq	$2313 <main+0x1d02>
    2310: 4c 3f 1f     	jmp	$1f3f <main+0x192e>
    2313: 84 16        	sty	$16                     ; 0x16 <__rc6>
    2315: a5 15        	lda	$15                     ; 0x15 <__rc5>
    2317: a6 18        	ldx	$18                     ; 0x18 <__rc8>
    2319: c5 13        	cmp	$13                     ; 0x13 <__rc3>
    231b: f0 03        	beq	$2320 <main+0x1d0f>
    231d: 4c 99 1f     	jmp	$1f99 <main+0x1988>
    2320: e4 12        	cpx	$12                     ; 0x12 <__rc2>
    2322: 4c 9b 1f     	jmp	$1f9b <main+0x198a>
    2325: a6 69        	ldx	$69                     ; 0x69 <tm_xf>
    2327: a5 6a        	lda	$6a                     ; 0x6a <tm_xf+0x1>
    2329: e8           	inx
    232a: d0 01        	bne	$232d <main+0x1d1c>
    232c: 1a           	inc
    232d: da           	phx
    232e: 7a           	ply
    232f: aa           	tax
    2330: 84 69        	sty	$69                     ; 0x69 <tm_xf>
    2332: 85 6a        	sta	$6a                     ; 0x6a <tm_xf+0x1>
    2334: a5 6b        	lda	$6b                     ; 0x6b <tm_x>
    2336: e0 00        	cpx	#$0
    2338: f0 03        	beq	$233d <main+0x1d2c>
    233a: 4c 4b 24     	jmp	$244b <main+0x1e3a>
    233d: c0 09        	cpy	#$9
    233f: 90 03        	bcc	$2344 <main+0x1d33>
    2341: 4c 52 24     	jmp	$2452 <main+0x1e41>
    2344: 84 12        	sty	$12                     ; 0x12 <__rc2>
    2346: 86 13        	stx	$13                     ; 0x13 <__rc3>
    2348: 4c 69 24     	jmp	$2469 <main+0x1e58>
    234b: 84 14        	sty	$14                     ; 0x14 <__rc4>
    234d: a9 02        	lda	#$2
    234f: 8d 50 d6     	sta	$d650                   ; 0xd650 <__heap_start+0x8bcc>
    2352: e0 01        	cpx	#$1
    2354: f0 03        	beq	$2359 <main+0x1d48>
    2356: 4c 34 1d     	jmp	$1d34 <main+0x1723>
    2359: a5 14        	lda	$14                     ; 0x14 <__rc4>
    235b: f0 03        	beq	$2360 <main+0x1d4f>
    235d: 4c cc 1e     	jmp	$1ecc <main+0x18bb>
    2360: a5 13        	lda	$13                     ; 0x13 <__rc3>
    2362: f0 03        	beq	$2367 <main+0x1d56>
    2364: 4c 47 1f     	jmp	$1f47 <main+0x1936>
    2367: a6 16        	ldx	$16                     ; 0x16 <__rc6>
    2369: 4c 49 1f     	jmp	$1f49 <main+0x1938>
    236c: e4 85        	cpx	$85                     ; 0x85 <totalWait+0x3>
    236e: b0 03        	bcs	$2373 <main+0x1d62>
    2370: 4c e7 22     	jmp	$22e7 <main+0x1cd6>
    2373: a6 7e        	ldx	$7e                     ; 0x7e <gd3Location>
    2375: a4 7f        	ldy	$7f                     ; 0x7f <gd3Location+0x1>
    2377: 84 13        	sty	$13                     ; 0x13 <__rc3>
    2379: a5 80        	lda	$80                     ; 0x80 <gd3Location+0x2>
    237b: a4 81        	ldy	$81                     ; 0x81 <gd3Location+0x3>
    237d: 86 12        	stx	$12                     ; 0x12 <__rc2>
    237f: 85 14        	sta	$14                     ; 0x14 <__rc4>
    2381: 98           	tya
    2382: d0 0f        	bne	$2393 <main+0x1d82>
    2384: a5 14        	lda	$14                     ; 0x14 <__rc4>
    2386: d0 0b        	bne	$2393 <main+0x1d82>
    2388: a5 13        	lda	$13                     ; 0x13 <__rc3>
    238a: d0 07        	bne	$2393 <main+0x1d82>
    238c: a5 12        	lda	$12                     ; 0x12 <__rc2>
    238e: d0 03        	bne	$2393 <main+0x1d82>
    2390: 4c de 1f     	jmp	$1fde <main+0x19cd>
    2393: a6 86        	ldx	$86                     ; 0x86 <loopBackTo>
    2395: 86 15        	stx	$15                     ; 0x15 <__rc5>
    2397: a5 87        	lda	$87                     ; 0x87 <loopBackTo+0x1>
    2399: a6 88        	ldx	$88                     ; 0x88 <loopBackTo+0x2>
    239b: a4 89        	ldy	$89                     ; 0x89 <loopBackTo+0x3>
    239d: d0 11        	bne	$23b0 <main+0x1d9f>
    239f: e0 00        	cpx	#$0
    23a1: d0 0d        	bne	$23b0 <main+0x1d9f>
    23a3: c9 00        	cmp	#$0
    23a5: d0 09        	bne	$23b0 <main+0x1d9f>
    23a7: e6 15        	inc	$15                     ; 0x15 <__rc5>
    23a9: c6 15        	dec	$15                     ; 0x15 <__rc5>
    23ab: d0 03        	bne	$23b0 <main+0x1d9f>
    23ad: 4c 5a 22     	jmp	$225a <main+0x1c49>
    23b0: 85 13        	sta	$13                     ; 0x13 <__rc3>
    23b2: a5 7d        	lda	$7d                     ; 0x7d <oneLoop>
    23b4: 29 01        	and	#$1
    23b6: f0 03        	beq	$23bb <main+0x1daa>
    23b8: 4c 5a 22     	jmp	$225a <main+0x1c49>
    23bb: 86 16        	stx	$16                     ; 0x16 <__rc6>
    23bd: 84 14        	sty	$14                     ; 0x14 <__rc4>
    23bf: 64 8e        	stz	$8e                     ; 0x8e <samplesSoFar>
    23c1: 64 8f        	stz	$8f                     ; 0x8f <samplesSoFar+0x1>
    23c3: 64 90        	stz	$90                     ; 0x90 <samplesSoFar+0x2>
    23c5: 64 91        	stz	$91                     ; 0x91 <samplesSoFar+0x3>
    23c7: a9 01        	lda	#$1
    23c9: a8           	tay
    23ca: 84 25        	sty	$25                     ; 0x25 <__rc21>
    23cc: a6 15        	ldx	$15                     ; 0x15 <__rc5>
    23ce: 86 18        	stx	$18                     ; 0x18 <__rc8>
    23d0: 85 7d        	sta	$7d                     ; 0x7d <oneLoop>
    23d2: a5 13        	lda	$13                     ; 0x13 <__rc3>
    23d4: a6 14        	ldx	$14                     ; 0x14 <__rc4>
    23d6: e0 00        	cpx	#$0
    23d8: d0 03        	bne	$23dd <main+0x1dcc>
    23da: 4c ab 1f     	jmp	$1fab <main+0x199a>
    23dd: e0 00        	cpx	#$0
    23df: 86 13        	stx	$13                     ; 0x13 <__rc3>
    23e1: a6 16        	ldx	$16                     ; 0x16 <__rc6>
    23e3: a4 18        	ldy	$18                     ; 0x18 <__rc8>
    23e5: 90 07        	bcc	$23ee <main+0x1ddd>
    23e7: a2 10        	ldx	#$10
    23e9: a0 00        	ldy	#$0
    23eb: 98           	tya
    23ec: 64 13        	stz	$13                     ; 0x13 <__rc3>
    23ee: 85 16        	sta	$16                     ; 0x16 <__rc6>
    23f0: 5a           	phy
    23f1: a4 13        	ldy	$13                     ; 0x13 <__rc3>
    23f3: 84 12        	sty	$12                     ; 0x12 <__rc2>
    23f5: 7a           	ply
    23f6: 84 17        	sty	$17                     ; 0x17 <__rc7>
    23f8: 86 14        	stx	$14                     ; 0x14 <__rc4>
    23fa: e6 17        	inc	$17                     ; 0x17 <__rc7>
    23fc: d0 09        	bne	$2407 <main+0x1df6>
    23fe: 1a           	inc
    23ff: d0 06        	bne	$2407 <main+0x1df6>
    2401: e6 14        	inc	$14                     ; 0x14 <__rc4>
    2403: d0 02        	bne	$2407 <main+0x1df6>
    2405: e6 12        	inc	$12                     ; 0x12 <__rc2>
    2407: 84 15        	sty	$15                     ; 0x15 <__rc5>
    2409: a4 17        	ldy	$17                     ; 0x17 <__rc7>
    240b: 84 8a        	sty	$8a                     ; 0x8a <needle>
    240d: 85 8b        	sta	$8b                     ; 0x8b <needle+0x1>
    240f: a4 14        	ldy	$14                     ; 0x14 <__rc4>
    2411: 84 8c        	sty	$8c                     ; 0x8c <needle+0x2>
    2413: a4 12        	ldy	$12                     ; 0x12 <__rc2>
    2415: 84 8d        	sty	$8d                     ; 0x8d <needle+0x3>
    2417: 86 12        	stx	$12                     ; 0x12 <__rc2>
    2419: a6 16        	ldx	$16                     ; 0x16 <__rc6>
    241b: a5 15        	lda	$15                     ; 0x15 <__rc5>
    241d: 20 cb 05     	jsr	$5cb <PEEK24>
    2420: 18           	clc
    2421: 69 60        	adc	#$60
    2423: c9 c8        	cmp	#$c8
    2425: 90 03        	bcc	$242a <main+0x1e19>
    2427: 4c 7e 1f     	jmp	$1f7e <main+0x196d>
    242a: aa           	tax
    242b: bc 2f 45     	ldy	$452f,x                 ; 0x452f <__BLOCK_SIZE+0x252f>
    242e: bd f7 45     	lda	$45f7,x                 ; 0x45f7 <__BLOCK_SIZE+0x25f7>
    2431: aa           	tax
    2432: 84 12        	sty	$12                     ; 0x12 <__rc2>
    2434: 86 13        	stx	$13                     ; 0x13 <__rc3>
    2436: 6c 12 00     	jmp	($12)                   ; 0x12 <__rc2>
    2439: a5 8a        	lda	$8a                     ; 0x8a <needle>
    243b: a6 8b        	ldx	$8b                     ; 0x8b <needle+0x1>
    243d: 86 12        	stx	$12                     ; 0x12 <__rc2>
    243f: a4 8c        	ldy	$8c                     ; 0x8c <needle+0x2>
    2441: a6 8d        	ldx	$8d                     ; 0x8d <needle+0x3>
    2443: 86 13        	stx	$13                     ; 0x13 <__rc3>
    2445: 18           	clc
    2446: 69 02        	adc	#$2
    2448: 4c 62 1f     	jmp	$1f62 <main+0x1951>
    244b: e0 00        	cpx	#$0
    244d: b0 03        	bcs	$2452 <main+0x1e41>
    244f: 4c 44 23     	jmp	$2344 <main+0x1d33>
    2452: 64 12        	stz	$12                     ; 0x12 <__rc2>
    2454: 64 69        	stz	$69                     ; 0x69 <tm_xf>
    2456: 64 6a        	stz	$6a                     ; 0x6a <tm_xf+0x1>
    2458: 1a           	inc
    2459: 85 6b        	sta	$6b                     ; 0x6b <tm_x>
    245b: c9 28        	cmp	#$28
    245d: 64 13        	stz	$13                     ; 0x13 <__rc3>
    245f: 90 08        	bcc	$2469 <main+0x1e58>
    2461: a9 00        	lda	#$0
    2463: 64 6b        	stz	$6b                     ; 0x6b <tm_x>
    2465: 64 12        	stz	$12                     ; 0x12 <__rc2>
    2467: 64 13        	stz	$13                     ; 0x13 <__rc3>
    2469: 0a           	asl
    246a: aa           	tax
    246b: a9 00        	lda	#$0
    246d: 2a           	rol
    246e: 86 14        	stx	$14                     ; 0x14 <__rc4>
    2470: 06 14        	asl	$14                     ; 0x14 <__rc4>
    2472: 2a           	rol
    2473: 06 14        	asl	$14                     ; 0x14 <__rc4>
    2475: 2a           	rol
    2476: 06 14        	asl	$14                     ; 0x14 <__rc4>
    2478: 2a           	rol
    2479: aa           	tax
    247a: a5 14        	lda	$14                     ; 0x14 <__rc4>
    247c: 05 12        	ora	$12                     ; 0x12 <__rc2>
    247e: 85 12        	sta	$12                     ; 0x12 <__rc2>
    2480: 8a           	txa
    2481: 05 13        	ora	$13                     ; 0x13 <__rc3>
    2483: a6 12        	ldx	$12                     ; 0x12 <__rc2>
    2485: 8e 20 d2     	stx	$d220                   ; 0xd220 <__heap_start+0x879c>
    2488: 8d 21 d2     	sta	$d221                   ; 0xd221 <__heap_start+0x879d>
    248b: 9c 22 d2     	stz	$d222                   ; 0xd222 <__heap_start+0x879e>
    248e: 9c 23 d2     	stz	$d223                   ; 0xd223 <__heap_start+0x879f>
    2491: a6 6c        	ldx	$6c                     ; 0x6c <tm_xf1>
    2493: a4 6d        	ldy	$6d                     ; 0x6d <tm_xf1+0x1>
    2495: d0 06        	bne	$249d <main+0x1e8c>
    2497: 8a           	txa
    2498: d0 03        	bne	$249d <main+0x1e8c>
    249a: 4c 2e 1f     	jmp	$1f2e <main+0x191d>
    249d: ca           	dex
    249e: e0 ff        	cpx	#$ff
    24a0: d0 01        	bne	$24a3 <main+0x1e92>
    24a2: 88           	dey
    24a3: 86 6c        	stx	$6c                     ; 0x6c <tm_xf1>
    24a5: 84 6d        	sty	$6d                     ; 0x6d <tm_xf1+0x1>
    24a7: a5 6e        	lda	$6e                     ; 0x6e <tm_x1>
    24a9: 86 13        	stx	$13                     ; 0x13 <__rc3>
    24ab: 84 12        	sty	$12                     ; 0x12 <__rc2>
    24ad: 0a           	asl
    24ae: aa           	tax
    24af: a9 00        	lda	#$0
    24b1: 2a           	rol
    24b2: 86 14        	stx	$14                     ; 0x14 <__rc4>
    24b4: 06 14        	asl	$14                     ; 0x14 <__rc4>
    24b6: 2a           	rol
    24b7: 06 14        	asl	$14                     ; 0x14 <__rc4>
    24b9: 2a           	rol
    24ba: 06 14        	asl	$14                     ; 0x14 <__rc4>
    24bc: 2a           	rol
    24bd: aa           	tax
    24be: 18           	clc
    24bf: a5 14        	lda	$14                     ; 0x14 <__rc4>
    24c1: 65 13        	adc	$13                     ; 0x13 <__rc3>
    24c3: 85 13        	sta	$13                     ; 0x13 <__rc3>
    24c5: 8a           	txa
    24c6: 65 12        	adc	$12                     ; 0x12 <__rc2>
    24c8: a6 13        	ldx	$13                     ; 0x13 <__rc3>
    24ca: 8e 14 d2     	stx	$d214                   ; 0xd214 <__heap_start+0x8790>
    24cd: 8d 15 d2     	sta	$d215                   ; 0xd215 <__heap_start+0x8791>
    24d0: 9c 16 d2     	stz	$d216                   ; 0xd216 <__heap_start+0x8792>
    24d3: 9c 17 d2     	stz	$d217                   ; 0xd217 <__heap_start+0x8793>
    24d6: a2 80        	ldx	#$80
    24d8: 86 f3        	stx	$f3                     ; 0xf3 <__pal_size+0x73>
    24da: a2 78        	ldx	#$78
    24dc: 86 12        	stx	$12                     ; 0x12 <__rc2>
    24de: a2 00        	ldx	#$0
    24e0: 86 13        	stx	$13                     ; 0x13 <__rc3>
    24e2: 20 f0 ff     	jsr	$fff0 <__heap_start+0xb56c>
    24e5: 92 28        	sta	($28)                   ; 0x28 <__rc24>
    24e7: a9 00        	lda	#$0
    24e9: 6a           	ror
    24ea: 85 12        	sta	$12                     ; 0x12 <__rc2>
    24ec: 18           	clc
    24ed: a9 02        	lda	#$2
    24ef: 72 28        	adc	($28)                   ; 0x28 <__rc24>
    24f1: 85 70        	sta	$70                     ; 0x70 <tileAnim.1>
    24f3: 64 f3        	stz	$f3                     ; 0xf3 <__pal_size+0x73>
    24f5: a6 70        	ldx	$70                     ; 0x70 <tileAnim.1>
    24f7: 86 f4        	stx	$f4                     ; 0xf4 <__pal_size+0x74>
    24f9: 64 f5        	stz	$f5                     ; 0xf5 <__pal_size+0x75>
    24fb: 20 f0 ff     	jsr	$fff0 <__heap_start+0xb56c>
    24fe: 92 28        	sta	($28)                   ; 0x28 <__rc24>
    2500: a9 00        	lda	#$0
    2502: 6a           	ror
    2503: 85 12        	sta	$12                     ; 0x12 <__rc2>
    2505: a6 71        	ldx	$71                     ; 0x71 <kernelEventData>
    2507: e0 08        	cpx	#$8
    2509: f0 03        	beq	$250e <main+0x1efd>
    250b: 4c 54 22     	jmp	$2254 <main+0x1c43>
    250e: a6 75        	ldx	$75                     ; 0x75 <kernelEventData+0x4>
    2510: e0 20        	cpx	#$20
    2512: d0 03        	bne	$2517 <main+0x1f06>
    2514: 4c 20 1d     	jmp	$1d20 <main+0x170f>
    2517: e0 73        	cpx	#$73
    2519: d0 03        	bne	$251e <main+0x1f0d>
    251b: 4c 15 1d     	jmp	$1d15 <main+0x1704>
    251e: e0 92        	cpx	#$92
    2520: f0 03        	beq	$2525 <main+0x1f14>
    2522: 4c 54 22     	jmp	$2254 <main+0x1c43>
    2525: 78           	sei
    2526: a2 07        	ldx	#$7
    2528: 86 0f        	stx	$f                      ; 0xf <__data_size+0xf>
    252a: a2 de        	ldx	#$de
    252c: 8e a2 d6     	stx	$d6a2                   ; 0xd6a2 <__heap_start+0x8c1e>
    252f: a2 ad        	ldx	#$ad
    2531: 8e a3 d6     	stx	$d6a3                   ; 0xd6a3 <__heap_start+0x8c1f>
    2534: a2 f0        	ldx	#$f0
    2536: 8e a0 d6     	stx	$d6a0                   ; 0xd6a0 <__heap_start+0x8c1c>
    2539: 9c a0 d6     	stz	$d6a0                   ; 0xd6a0 <__heap_start+0x8c1c>
    253c: 6c fc ff     	jmp	($fffc)                 ; 0xfffc <__heap_start+0xb578>
    253f: a2 00        	ldx	#$0
    2541: 8a           	txa
    2542: 85 20        	sta	$20                     ; 0x20 <__rc16>
    2544: a8           	tay
    2545: b1 10        	lda	($10),y                 ; 0x10 <__rc0>
    2547: 85 2f        	sta	$2f                     ; 0x2f <__rc31>
    2549: c8           	iny
    254a: b1 10        	lda	($10),y                 ; 0x10 <__rc0>
    254c: 85 2e        	sta	$2e                     ; 0x2e <__rc30>
    254e: c8           	iny
    254f: b1 10        	lda	($10),y                 ; 0x10 <__rc0>
    2551: 85 2d        	sta	$2d                     ; 0x2d <__rc29>
    2553: c8           	iny
    2554: b1 10        	lda	($10),y                 ; 0x10 <__rc0>
    2556: 85 2c        	sta	$2c                     ; 0x2c <__rc28>
    2558: c8           	iny
    2559: b1 10        	lda	($10),y                 ; 0x10 <__rc0>
    255b: 85 2b        	sta	$2b                     ; 0x2b <__rc27>
    255d: c8           	iny
    255e: b1 10        	lda	($10),y                 ; 0x10 <__rc0>
    2560: 85 2a        	sta	$2a                     ; 0x2a <__rc26>
    2562: c8           	iny
    2563: b1 10        	lda	($10),y                 ; 0x10 <__rc0>
    2565: 85 29        	sta	$29                     ; 0x29 <__rc25>
    2567: c8           	iny
    2568: b1 10        	lda	($10),y                 ; 0x10 <__rc0>
    256a: 85 28        	sta	$28                     ; 0x28 <__rc24>
    256c: 7a           	ply
    256d: 84 27        	sty	$27                     ; 0x27 <__rc23>
    256f: 7a           	ply
    2570: 84 26        	sty	$26                     ; 0x26 <__rc22>
    2572: 7a           	ply
    2573: 84 25        	sty	$25                     ; 0x25 <__rc21>
    2575: 7a           	ply
    2576: 84 24        	sty	$24                     ; 0x24 <__rc20>
    2578: 18           	clc
    2579: a5 10        	lda	$10                     ; 0x10 <__rc0>
    257b: 69 23        	adc	#$23
    257d: 85 10        	sta	$10                     ; 0x10 <__rc0>
    257f: a5 11        	lda	$11                     ; 0x11 <__rc1>
    2581: 69 00        	adc	#$0
    2583: 85 11        	sta	$11                     ; 0x11 <__rc1>
    2585: a5 20        	lda	$20                     ; 0x20 <__rc16>
    2587: 60           	rts
    2588: e6 8b        	inc	$8b                     ; 0x8b <needle+0x1>
    258a: f0 03        	beq	$258f <main+0x1f7e>
    258c: 4c 53 20     	jmp	$2053 <main+0x1a42>
    258f: e6 8c        	inc	$8c                     ; 0x8c <needle+0x2>
    2591: f0 03        	beq	$2596 <main+0x1f85>
    2593: 4c 53 20     	jmp	$2053 <main+0x1a42>
    2596: e6 8d        	inc	$8d                     ; 0x8d <needle+0x3>
    2598: 4c 53 20     	jmp	$2053 <main+0x1a42>
    259b: e6 8b        	inc	$8b                     ; 0x8b <needle+0x1>
    259d: f0 03        	beq	$25a2 <main+0x1f91>
    259f: 4c 70 20     	jmp	$2070 <main+0x1a5f>
    25a2: e6 8c        	inc	$8c                     ; 0x8c <needle+0x2>
    25a4: f0 03        	beq	$25a9 <main+0x1f98>
    25a6: 4c 70 20     	jmp	$2070 <main+0x1a5f>
    25a9: e6 8d        	inc	$8d                     ; 0x8d <needle+0x3>
    25ab: 4c 70 20     	jmp	$2070 <main+0x1a5f>
    25ae: a4 26        	ldy	$26                     ; 0x26 <__rc22>
    25b0: c0 fa        	cpy	#$fa
    25b2: 90 0a        	bcc	$25be <main+0x1fad>
    25b4: 4c d3 1e     	jmp	$1ed3 <main+0x18c2>
    25b7: c0 72        	cpy	#$72
    25b9: 90 03        	bcc	$25be <main+0x1fad>
    25bb: 4c d3 1e     	jmp	$1ed3 <main+0x18c2>
    25be: a6 15        	ldx	$15                     ; 0x15 <__rc5>
    25c0: 8e 55 d6     	stx	$d655                   ; 0xd655 <__heap_start+0x8bd1>
    25c3: a6 14        	ldx	$14                     ; 0x14 <__rc4>
    25c5: 8e 56 d6     	stx	$d656                   ; 0xd656 <__heap_start+0x8bd2>
    25c8: 8d 57 d6     	sta	$d657                   ; 0xd657 <__heap_start+0x8bd3>
    25cb: 4c 48 1d     	jmp	$1d48 <main+0x1737>
    25ce: e6 8c        	inc	$8c                     ; 0x8c <needle+0x2>
    25d0: f0 03        	beq	$25d5 <main+0x1fc4>
    25d2: 4c 06 20     	jmp	$2006 <main+0x19f5>
    25d5: e6 8d        	inc	$8d                     ; 0x8d <needle+0x3>
    25d7: 4c 06 20     	jmp	$2006 <main+0x19f5>
    25da: e6 8c        	inc	$8c                     ; 0x8c <needle+0x2>
    25dc: f0 03        	beq	$25e1 <main+0x1fd0>
    25de: 4c 27 20     	jmp	$2027 <main+0x1a16>
    25e1: e6 8d        	inc	$8d                     ; 0x8d <needle+0x3>
    25e3: 4c 27 20     	jmp	$2027 <main+0x1a16>
    25e6: e8           	inx
    25e7: f0 03        	beq	$25ec <main+0x1fdb>
    25e9: 4c 5a 21     	jmp	$215a <main+0x1b49>
    25ec: e6 12        	inc	$12                     ; 0x12 <__rc2>
    25ee: f0 03        	beq	$25f3 <main+0x1fe2>
    25f0: 4c 5a 21     	jmp	$215a <main+0x1b49>
    25f3: c8           	iny
    25f4: 4c 5a 21     	jmp	$215a <main+0x1b49>
    25f7: e6 8b        	inc	$8b                     ; 0x8b <needle+0x1>
    25f9: f0 03        	beq	$25fe <main+0x1fed>
    25fb: 4c b9 21     	jmp	$21b9 <main+0x1ba8>
    25fe: e6 8c        	inc	$8c                     ; 0x8c <needle+0x2>
    2600: f0 03        	beq	$2605 <main+0x1ff4>
    2602: 4c b9 21     	jmp	$21b9 <main+0x1ba8>
    2605: e6 8d        	inc	$8d                     ; 0x8d <needle+0x3>
    2607: 4c b9 21     	jmp	$21b9 <main+0x1ba8>
    260a: e6 8b        	inc	$8b                     ; 0x8b <needle+0x1>
    260c: f0 03        	beq	$2611 <main+0x2000>
    260e: 4c d6 21     	jmp	$21d6 <main+0x1bc5>
    2611: e6 8c        	inc	$8c                     ; 0x8c <needle+0x2>
    2613: f0 03        	beq	$2618 <main+0x2007>
    2615: 4c d6 21     	jmp	$21d6 <main+0x1bc5>
    2618: e6 8d        	inc	$8d                     ; 0x8d <needle+0x3>
    261a: 4c d6 21     	jmp	$21d6 <main+0x1bc5>

0000261d <bitmapClear>:
    261d: a5 63        	lda	$63                     ; 0x63 <_active>
    261f: 0a           	asl
    2620: 85 12        	sta	$12                     ; 0x12 <__rc2>
    2622: a9 00        	lda	#$0
    2624: 2a           	rol
    2625: 06 12        	asl	$12                     ; 0x12 <__rc2>
    2627: 2a           	rol
    2628: 85 13        	sta	$13                     ; 0x13 <__rc3>
    262a: a9 62        	lda	#$62
    262c: 18           	clc
    262d: 65 12        	adc	$12                     ; 0x12 <__rc2>
    262f: 85 12        	sta	$12                     ; 0x12 <__rc2>
    2631: a9 49        	lda	#$49
    2633: 65 13        	adc	$13                     ; 0x13 <__rc3>
    2635: 85 13        	sta	$13                     ; 0x13 <__rc3>
    2637: a0 01        	ldy	#$1
    2639: b1 12        	lda	($12),y                 ; 0x12 <__rc2>
    263b: 85 14        	sta	$14                     ; 0x14 <__rc4>
    263d: c8           	iny
    263e: b1 12        	lda	($12),y                 ; 0x12 <__rc2>
    2640: a6 14        	ldx	$14                     ; 0x14 <__rc4>
    2642: 86 12        	stx	$12                     ; 0x12 <__rc2>
    2644: 06 12        	asl	$12                     ; 0x12 <__rc2>
    2646: 2a           	rol
    2647: 06 12        	asl	$12                     ; 0x12 <__rc2>
    2649: 2a           	rol
    264a: 06 12        	asl	$12                     ; 0x12 <__rc2>
    264c: 2a           	rol
    264d: a6 0f        	ldx	$f                      ; 0xf <__data_size+0xf>
    264f: 86 17        	stx	$17                     ; 0x17 <__rc7>
    2651: 78           	sei
    2652: 85 18        	sta	$18                     ; 0x18 <__rc8>
    2654: 85 0f        	sta	$f                      ; 0xf <__data_size+0xf>
    2656: a5 64        	lda	$64                     ; 0x64 <_color>
    2658: 4a           	lsr
    2659: 64 14        	stz	$14                     ; 0x14 <__rc4>
    265b: 66 14        	ror	$14                     ; 0x14 <__rc4>
    265d: 10 04        	bpl	$2663 <bitmapClear+0x46>
    265f: a9 ff        	lda	#$ff
    2661: 80 02        	bra	$2665 <bitmapClear+0x48>
    2663: a9 00        	lda	#$0
    2665: a0 00        	ldy	#$0
    2667: 84 12        	sty	$12                     ; 0x12 <__rc2>
    2669: a0 e0        	ldy	#$e0
    266b: 84 13        	sty	$13                     ; 0x13 <__rc3>
    266d: 06 14        	asl	$14                     ; 0x14 <__rc4>
    266f: 2a           	rol
    2670: a2 20        	ldx	#$20
    2672: a0 00        	ldy	#$0
    2674: 48           	pha
    2675: 98           	tya
    2676: 85 14        	sta	$14                     ; 0x14 <__rc4>
    2678: a9 e0        	lda	#$e0
    267a: 85 15        	sta	$15                     ; 0x15 <__rc5>
    267c: 68           	pla
    267d: 86 16        	stx	$16                     ; 0x16 <__rc6>
    267f: 80 04        	bra	$2685 <bitmapClear+0x68>
    2681: a6 16        	ldx	$16                     ; 0x16 <__rc6>
    2683: f0 11        	beq	$2696 <bitmapClear+0x79>
    2685: 92 14        	sta	($14)                   ; 0x14 <__rc4>
    2687: 88           	dey
    2688: c0 ff        	cpy	#$ff
    268a: d0 02        	bne	$268e <bitmapClear+0x71>
    268c: c6 16        	dec	$16                     ; 0x16 <__rc6>
    268e: e6 14        	inc	$14                     ; 0x14 <__rc4>
    2690: d0 ef        	bne	$2681 <bitmapClear+0x64>
    2692: e6 15        	inc	$15                     ; 0x15 <__rc5>
    2694: 80 eb        	bra	$2681 <bitmapClear+0x64>
    2696: c0 00        	cpy	#$0
    2698: d0 eb        	bne	$2685 <bitmapClear+0x68>
    269a: a4 18        	ldy	$18                     ; 0x18 <__rc8>
    269c: c8           	iny
    269d: 84 0f        	sty	$f                      ; 0xf <__data_size+0xf>
    269f: a6 64        	ldx	$64                     ; 0x64 <_color>
    26a1: 86 14        	stx	$14                     ; 0x14 <__rc4>
    26a3: a9 00        	lda	#$0
    26a5: 46 14        	lsr	$14                     ; 0x14 <__rc4>
    26a7: 64 14        	stz	$14                     ; 0x14 <__rc4>
    26a9: 66 14        	ror	$14                     ; 0x14 <__rc4>
    26ab: 10 02        	bpl	$26af <bitmapClear+0x92>
    26ad: a9 ff        	lda	#$ff
    26af: 06 14        	asl	$14                     ; 0x14 <__rc4>
    26b1: 2a           	rol
    26b2: a2 20        	ldx	#$20
    26b4: a0 00        	ldy	#$0
    26b6: 48           	pha
    26b7: 98           	tya
    26b8: 85 14        	sta	$14                     ; 0x14 <__rc4>
    26ba: a9 e0        	lda	#$e0
    26bc: 85 15        	sta	$15                     ; 0x15 <__rc5>
    26be: 68           	pla
    26bf: 86 16        	stx	$16                     ; 0x16 <__rc6>
    26c1: 80 04        	bra	$26c7 <bitmapClear+0xaa>
    26c3: a6 16        	ldx	$16                     ; 0x16 <__rc6>
    26c5: f0 11        	beq	$26d8 <bitmapClear+0xbb>
    26c7: 92 14        	sta	($14)                   ; 0x14 <__rc4>
    26c9: 88           	dey
    26ca: c0 ff        	cpy	#$ff
    26cc: d0 02        	bne	$26d0 <bitmapClear+0xb3>
    26ce: c6 16        	dec	$16                     ; 0x16 <__rc6>
    26d0: e6 14        	inc	$14                     ; 0x14 <__rc4>
    26d2: d0 ef        	bne	$26c3 <bitmapClear+0xa6>
    26d4: e6 15        	inc	$15                     ; 0x15 <__rc5>
    26d6: 80 eb        	bra	$26c3 <bitmapClear+0xa6>
    26d8: c0 00        	cpy	#$0
    26da: d0 eb        	bne	$26c7 <bitmapClear+0xaa>
    26dc: 18           	clc
    26dd: a5 18        	lda	$18                     ; 0x18 <__rc8>
    26df: 69 02        	adc	#$2
    26e1: 85 0f        	sta	$f                      ; 0xf <__data_size+0xf>
    26e3: a6 64        	ldx	$64                     ; 0x64 <_color>
    26e5: 86 14        	stx	$14                     ; 0x14 <__rc4>
    26e7: a9 00        	lda	#$0
    26e9: 46 14        	lsr	$14                     ; 0x14 <__rc4>
    26eb: 64 14        	stz	$14                     ; 0x14 <__rc4>
    26ed: 66 14        	ror	$14                     ; 0x14 <__rc4>
    26ef: 10 02        	bpl	$26f3 <bitmapClear+0xd6>
    26f1: a9 ff        	lda	#$ff
    26f3: 06 14        	asl	$14                     ; 0x14 <__rc4>
    26f5: 2a           	rol
    26f6: a2 20        	ldx	#$20
    26f8: a0 00        	ldy	#$0
    26fa: 48           	pha
    26fb: 98           	tya
    26fc: 85 14        	sta	$14                     ; 0x14 <__rc4>
    26fe: a9 e0        	lda	#$e0
    2700: 85 15        	sta	$15                     ; 0x15 <__rc5>
    2702: 68           	pla
    2703: 86 16        	stx	$16                     ; 0x16 <__rc6>
    2705: 80 04        	bra	$270b <bitmapClear+0xee>
    2707: a6 16        	ldx	$16                     ; 0x16 <__rc6>
    2709: f0 11        	beq	$271c <bitmapClear+0xff>
    270b: 92 14        	sta	($14)                   ; 0x14 <__rc4>
    270d: 88           	dey
    270e: c0 ff        	cpy	#$ff
    2710: d0 02        	bne	$2714 <bitmapClear+0xf7>
    2712: c6 16        	dec	$16                     ; 0x16 <__rc6>
    2714: e6 14        	inc	$14                     ; 0x14 <__rc4>
    2716: d0 ef        	bne	$2707 <bitmapClear+0xea>
    2718: e6 15        	inc	$15                     ; 0x15 <__rc5>
    271a: 80 eb        	bra	$2707 <bitmapClear+0xea>
    271c: c0 00        	cpy	#$0
    271e: d0 eb        	bne	$270b <bitmapClear+0xee>
    2720: 18           	clc
    2721: a5 18        	lda	$18                     ; 0x18 <__rc8>
    2723: 69 03        	adc	#$3
    2725: 85 0f        	sta	$f                      ; 0xf <__data_size+0xf>
    2727: a6 64        	ldx	$64                     ; 0x64 <_color>
    2729: 86 14        	stx	$14                     ; 0x14 <__rc4>
    272b: a9 00        	lda	#$0
    272d: 46 14        	lsr	$14                     ; 0x14 <__rc4>
    272f: 64 14        	stz	$14                     ; 0x14 <__rc4>
    2731: 66 14        	ror	$14                     ; 0x14 <__rc4>
    2733: 10 02        	bpl	$2737 <bitmapClear+0x11a>
    2735: a9 ff        	lda	#$ff
    2737: 06 14        	asl	$14                     ; 0x14 <__rc4>
    2739: 2a           	rol
    273a: a2 20        	ldx	#$20
    273c: a0 00        	ldy	#$0
    273e: 48           	pha
    273f: 98           	tya
    2740: 85 14        	sta	$14                     ; 0x14 <__rc4>
    2742: a9 e0        	lda	#$e0
    2744: 85 15        	sta	$15                     ; 0x15 <__rc5>
    2746: 68           	pla
    2747: 86 16        	stx	$16                     ; 0x16 <__rc6>
    2749: 80 04        	bra	$274f <bitmapClear+0x132>
    274b: a6 16        	ldx	$16                     ; 0x16 <__rc6>
    274d: f0 11        	beq	$2760 <bitmapClear+0x143>
    274f: 92 14        	sta	($14)                   ; 0x14 <__rc4>
    2751: 88           	dey
    2752: c0 ff        	cpy	#$ff
    2754: d0 02        	bne	$2758 <bitmapClear+0x13b>
    2756: c6 16        	dec	$16                     ; 0x16 <__rc6>
    2758: e6 14        	inc	$14                     ; 0x14 <__rc4>
    275a: d0 ef        	bne	$274b <bitmapClear+0x12e>
    275c: e6 15        	inc	$15                     ; 0x15 <__rc5>
    275e: 80 eb        	bra	$274b <bitmapClear+0x12e>
    2760: c0 00        	cpy	#$0
    2762: d0 eb        	bne	$274f <bitmapClear+0x132>
    2764: 18           	clc
    2765: a5 18        	lda	$18                     ; 0x18 <__rc8>
    2767: 69 04        	adc	#$4
    2769: 85 0f        	sta	$f                      ; 0xf <__data_size+0xf>
    276b: a6 64        	ldx	$64                     ; 0x64 <_color>
    276d: 86 14        	stx	$14                     ; 0x14 <__rc4>
    276f: a9 00        	lda	#$0
    2771: 46 14        	lsr	$14                     ; 0x14 <__rc4>
    2773: 64 14        	stz	$14                     ; 0x14 <__rc4>
    2775: 66 14        	ror	$14                     ; 0x14 <__rc4>
    2777: 10 02        	bpl	$277b <bitmapClear+0x15e>
    2779: a9 ff        	lda	#$ff
    277b: 06 14        	asl	$14                     ; 0x14 <__rc4>
    277d: 2a           	rol
    277e: a2 20        	ldx	#$20
    2780: a0 00        	ldy	#$0
    2782: 48           	pha
    2783: 98           	tya
    2784: 85 14        	sta	$14                     ; 0x14 <__rc4>
    2786: a9 e0        	lda	#$e0
    2788: 85 15        	sta	$15                     ; 0x15 <__rc5>
    278a: 68           	pla
    278b: 86 16        	stx	$16                     ; 0x16 <__rc6>
    278d: 80 04        	bra	$2793 <bitmapClear+0x176>
    278f: a6 16        	ldx	$16                     ; 0x16 <__rc6>
    2791: f0 11        	beq	$27a4 <bitmapClear+0x187>
    2793: 92 14        	sta	($14)                   ; 0x14 <__rc4>
    2795: 88           	dey
    2796: c0 ff        	cpy	#$ff
    2798: d0 02        	bne	$279c <bitmapClear+0x17f>
    279a: c6 16        	dec	$16                     ; 0x16 <__rc6>
    279c: e6 14        	inc	$14                     ; 0x14 <__rc4>
    279e: d0 ef        	bne	$278f <bitmapClear+0x172>
    27a0: e6 15        	inc	$15                     ; 0x15 <__rc5>
    27a2: 80 eb        	bra	$278f <bitmapClear+0x172>
    27a4: c0 00        	cpy	#$0
    27a6: d0 eb        	bne	$2793 <bitmapClear+0x176>
    27a8: 18           	clc
    27a9: a5 18        	lda	$18                     ; 0x18 <__rc8>
    27ab: 69 05        	adc	#$5
    27ad: 85 0f        	sta	$f                      ; 0xf <__data_size+0xf>
    27af: a6 64        	ldx	$64                     ; 0x64 <_color>
    27b1: 86 14        	stx	$14                     ; 0x14 <__rc4>
    27b3: a9 00        	lda	#$0
    27b5: 46 14        	lsr	$14                     ; 0x14 <__rc4>
    27b7: 64 14        	stz	$14                     ; 0x14 <__rc4>
    27b9: 66 14        	ror	$14                     ; 0x14 <__rc4>
    27bb: 10 02        	bpl	$27bf <bitmapClear+0x1a2>
    27bd: a9 ff        	lda	#$ff
    27bf: 06 14        	asl	$14                     ; 0x14 <__rc4>
    27c1: 2a           	rol
    27c2: a2 20        	ldx	#$20
    27c4: a0 00        	ldy	#$0
    27c6: 48           	pha
    27c7: 98           	tya
    27c8: 85 14        	sta	$14                     ; 0x14 <__rc4>
    27ca: a9 e0        	lda	#$e0
    27cc: 85 15        	sta	$15                     ; 0x15 <__rc5>
    27ce: 68           	pla
    27cf: 86 16        	stx	$16                     ; 0x16 <__rc6>
    27d1: 80 04        	bra	$27d7 <bitmapClear+0x1ba>
    27d3: a6 16        	ldx	$16                     ; 0x16 <__rc6>
    27d5: f0 11        	beq	$27e8 <bitmapClear+0x1cb>
    27d7: 92 14        	sta	($14)                   ; 0x14 <__rc4>
    27d9: 88           	dey
    27da: c0 ff        	cpy	#$ff
    27dc: d0 02        	bne	$27e0 <bitmapClear+0x1c3>
    27de: c6 16        	dec	$16                     ; 0x16 <__rc6>
    27e0: e6 14        	inc	$14                     ; 0x14 <__rc4>
    27e2: d0 ef        	bne	$27d3 <bitmapClear+0x1b6>
    27e4: e6 15        	inc	$15                     ; 0x15 <__rc5>
    27e6: 80 eb        	bra	$27d3 <bitmapClear+0x1b6>
    27e8: c0 00        	cpy	#$0
    27ea: d0 eb        	bne	$27d7 <bitmapClear+0x1ba>
    27ec: 18           	clc
    27ed: a5 18        	lda	$18                     ; 0x18 <__rc8>
    27ef: 69 06        	adc	#$6
    27f1: 85 0f        	sta	$f                      ; 0xf <__data_size+0xf>
    27f3: a6 64        	ldx	$64                     ; 0x64 <_color>
    27f5: 86 14        	stx	$14                     ; 0x14 <__rc4>
    27f7: a9 00        	lda	#$0
    27f9: 46 14        	lsr	$14                     ; 0x14 <__rc4>
    27fb: 64 14        	stz	$14                     ; 0x14 <__rc4>
    27fd: 66 14        	ror	$14                     ; 0x14 <__rc4>
    27ff: 10 02        	bpl	$2803 <bitmapClear+0x1e6>
    2801: a9 ff        	lda	#$ff
    2803: 06 14        	asl	$14                     ; 0x14 <__rc4>
    2805: 2a           	rol
    2806: a2 20        	ldx	#$20
    2808: a0 00        	ldy	#$0
    280a: 48           	pha
    280b: 98           	tya
    280c: 85 14        	sta	$14                     ; 0x14 <__rc4>
    280e: a9 e0        	lda	#$e0
    2810: 85 15        	sta	$15                     ; 0x15 <__rc5>
    2812: 68           	pla
    2813: 86 16        	stx	$16                     ; 0x16 <__rc6>
    2815: 80 04        	bra	$281b <bitmapClear+0x1fe>
    2817: a6 16        	ldx	$16                     ; 0x16 <__rc6>
    2819: f0 11        	beq	$282c <bitmapClear+0x20f>
    281b: 92 14        	sta	($14)                   ; 0x14 <__rc4>
    281d: 88           	dey
    281e: c0 ff        	cpy	#$ff
    2820: d0 02        	bne	$2824 <bitmapClear+0x207>
    2822: c6 16        	dec	$16                     ; 0x16 <__rc6>
    2824: e6 14        	inc	$14                     ; 0x14 <__rc4>
    2826: d0 ef        	bne	$2817 <bitmapClear+0x1fa>
    2828: e6 15        	inc	$15                     ; 0x15 <__rc5>
    282a: 80 eb        	bra	$2817 <bitmapClear+0x1fa>
    282c: c0 00        	cpy	#$0
    282e: d0 eb        	bne	$281b <bitmapClear+0x1fe>
    2830: 18           	clc
    2831: a5 18        	lda	$18                     ; 0x18 <__rc8>
    2833: 69 07        	adc	#$7
    2835: 85 0f        	sta	$f                      ; 0xf <__data_size+0xf>
    2837: a6 64        	ldx	$64                     ; 0x64 <_color>
    2839: 86 14        	stx	$14                     ; 0x14 <__rc4>
    283b: a9 00        	lda	#$0
    283d: 46 14        	lsr	$14                     ; 0x14 <__rc4>
    283f: 64 14        	stz	$14                     ; 0x14 <__rc4>
    2841: 66 14        	ror	$14                     ; 0x14 <__rc4>
    2843: 10 02        	bpl	$2847 <bitmapClear+0x22a>
    2845: a9 ff        	lda	#$ff
    2847: 06 14        	asl	$14                     ; 0x14 <__rc4>
    2849: 2a           	rol
    284a: a2 20        	ldx	#$20
    284c: a0 00        	ldy	#$0
    284e: 48           	pha
    284f: 98           	tya
    2850: 85 14        	sta	$14                     ; 0x14 <__rc4>
    2852: a9 e0        	lda	#$e0
    2854: 85 15        	sta	$15                     ; 0x15 <__rc5>
    2856: 68           	pla
    2857: 86 16        	stx	$16                     ; 0x16 <__rc6>
    2859: 80 04        	bra	$285f <bitmapClear+0x242>
    285b: a6 16        	ldx	$16                     ; 0x16 <__rc6>
    285d: f0 11        	beq	$2870 <bitmapClear+0x253>
    285f: 92 14        	sta	($14)                   ; 0x14 <__rc4>
    2861: 88           	dey
    2862: c0 ff        	cpy	#$ff
    2864: d0 02        	bne	$2868 <bitmapClear+0x24b>
    2866: c6 16        	dec	$16                     ; 0x16 <__rc6>
    2868: e6 14        	inc	$14                     ; 0x14 <__rc4>
    286a: d0 ef        	bne	$285b <bitmapClear+0x23e>
    286c: e6 15        	inc	$15                     ; 0x15 <__rc5>
    286e: 80 eb        	bra	$285b <bitmapClear+0x23e>
    2870: c0 00        	cpy	#$0
    2872: d0 eb        	bne	$285f <bitmapClear+0x242>
    2874: 18           	clc
    2875: a5 18        	lda	$18                     ; 0x18 <__rc8>
    2877: 69 08        	adc	#$8
    2879: 85 0f        	sta	$f                      ; 0xf <__data_size+0xf>
    287b: a6 64        	ldx	$64                     ; 0x64 <_color>
    287d: 86 14        	stx	$14                     ; 0x14 <__rc4>
    287f: a9 00        	lda	#$0
    2881: 46 14        	lsr	$14                     ; 0x14 <__rc4>
    2883: 64 14        	stz	$14                     ; 0x14 <__rc4>
    2885: 66 14        	ror	$14                     ; 0x14 <__rc4>
    2887: 10 02        	bpl	$288b <bitmapClear+0x26e>
    2889: a9 ff        	lda	#$ff
    288b: 06 14        	asl	$14                     ; 0x14 <__rc4>
    288d: 2a           	rol
    288e: a2 20        	ldx	#$20
    2890: a0 00        	ldy	#$0
    2892: 48           	pha
    2893: 98           	tya
    2894: 85 14        	sta	$14                     ; 0x14 <__rc4>
    2896: a9 e0        	lda	#$e0
    2898: 85 15        	sta	$15                     ; 0x15 <__rc5>
    289a: 68           	pla
    289b: 86 16        	stx	$16                     ; 0x16 <__rc6>
    289d: 80 04        	bra	$28a3 <bitmapClear+0x286>
    289f: a6 16        	ldx	$16                     ; 0x16 <__rc6>
    28a1: f0 11        	beq	$28b4 <bitmapClear+0x297>
    28a3: 92 14        	sta	($14)                   ; 0x14 <__rc4>
    28a5: 88           	dey
    28a6: c0 ff        	cpy	#$ff
    28a8: d0 02        	bne	$28ac <bitmapClear+0x28f>
    28aa: c6 16        	dec	$16                     ; 0x16 <__rc6>
    28ac: e6 14        	inc	$14                     ; 0x14 <__rc4>
    28ae: d0 ef        	bne	$289f <bitmapClear+0x282>
    28b0: e6 15        	inc	$15                     ; 0x15 <__rc5>
    28b2: 80 eb        	bra	$289f <bitmapClear+0x282>
    28b4: c0 00        	cpy	#$0
    28b6: d0 eb        	bne	$28a3 <bitmapClear+0x286>
    28b8: 18           	clc
    28b9: a5 18        	lda	$18                     ; 0x18 <__rc8>
    28bb: 69 09        	adc	#$9
    28bd: 85 0f        	sta	$f                      ; 0xf <__data_size+0xf>
    28bf: a6 64        	ldx	$64                     ; 0x64 <_color>
    28c1: 86 14        	stx	$14                     ; 0x14 <__rc4>
    28c3: a9 00        	lda	#$0
    28c5: 46 14        	lsr	$14                     ; 0x14 <__rc4>
    28c7: 64 14        	stz	$14                     ; 0x14 <__rc4>
    28c9: 66 14        	ror	$14                     ; 0x14 <__rc4>
    28cb: 10 02        	bpl	$28cf <bitmapClear+0x2b2>
    28cd: a9 ff        	lda	#$ff
    28cf: 06 14        	asl	$14                     ; 0x14 <__rc4>
    28d1: 2a           	rol
    28d2: a2 14        	ldx	#$14
    28d4: a0 00        	ldy	#$0
    28d6: 86 14        	stx	$14                     ; 0x14 <__rc4>
    28d8: 80 04        	bra	$28de <bitmapClear+0x2c1>
    28da: a6 14        	ldx	$14                     ; 0x14 <__rc4>
    28dc: f0 11        	beq	$28ef <bitmapClear+0x2d2>
    28de: 92 12        	sta	($12)                   ; 0x12 <__rc2>
    28e0: 88           	dey
    28e1: c0 ff        	cpy	#$ff
    28e3: d0 02        	bne	$28e7 <bitmapClear+0x2ca>
    28e5: c6 14        	dec	$14                     ; 0x14 <__rc4>
    28e7: e6 12        	inc	$12                     ; 0x12 <__rc2>
    28e9: d0 ef        	bne	$28da <bitmapClear+0x2bd>
    28eb: e6 13        	inc	$13                     ; 0x13 <__rc3>
    28ed: 80 eb        	bra	$28da <bitmapClear+0x2bd>
    28ef: c0 00        	cpy	#$0
    28f1: d0 eb        	bne	$28de <bitmapClear+0x2c1>
    28f3: a6 17        	ldx	$17                     ; 0x17 <__rc7>
    28f5: 86 0f        	stx	$f                      ; 0xf <__data_size+0xf>
    28f7: 58           	cli
    28f8: 60           	rts

000028f9 <textPrint>:
    28f9: a6 01        	ldx	$1                      ; 0x1 <__data_size+0x1>
    28fb: 86 ec        	stx	$ec                     ; 0xec <__pal_size+0x6c>
    28fd: a6 62        	ldx	$62                     ; 0x62 <_row>
    28ff: a0 50        	ldy	#$50
    2901: 8c 00 de     	sty	$de00                   ; 0xde00 <__heap_start+0x937c>
    2904: 9c 01 de     	stz	$de01                   ; 0xde01 <__heap_start+0x937d>
    2907: 8e 02 de     	stx	$de02                   ; 0xde02 <__heap_start+0x937e>
    290a: 9c 03 de     	stz	$de03                   ; 0xde03 <__heap_start+0x937f>
    290d: ae 10 de     	ldx	$de10                   ; 0xde10 <__heap_start+0x938c>
    2910: ad 11 de     	lda	$de11                   ; 0xde11 <__heap_start+0x938d>
    2913: 85 15        	sta	$15                     ; 0x15 <__rc5>
    2915: ad 12 de     	lda	$de12                   ; 0xde12 <__heap_start+0x938e>
    2918: 85 1c        	sta	$1c                     ; 0x1c <__rc12>
    291a: ad 13 de     	lda	$de13                   ; 0xde13 <__heap_start+0x938f>
    291d: 85 1d        	sta	$1d                     ; 0x1d <__rc13>
    291f: 9c 08 de     	stz	$de08                   ; 0xde08 <__heap_start+0x9384>
    2922: a9 c0        	lda	#$c0
    2924: 8d 09 de     	sta	$de09                   ; 0xde09 <__heap_start+0x9385>
    2927: 9c 0a de     	stz	$de0a                   ; 0xde0a <__heap_start+0x9386>
    292a: 9c 0b de     	stz	$de0b                   ; 0xde0b <__heap_start+0x9387>
    292d: 8e 0c de     	stx	$de0c                   ; 0xde0c <__heap_start+0x9388>
    2930: 64 14        	stz	$14                     ; 0x14 <__rc4>
    2932: a2 00        	ldx	#$0
    2934: 86 16        	stx	$16                     ; 0x16 <__rc6>
    2936: a2 c0        	ldx	#$c0
    2938: 86 17        	stx	$17                     ; 0x17 <__rc7>
    293a: a2 11        	ldx	#$11
    293c: 86 18        	stx	$18                     ; 0x18 <__rc8>
    293e: a2 c9        	ldx	#$c9
    2940: 86 19        	stx	$19                     ; 0x19 <__rc9>
    2942: a2 10        	ldx	#$10
    2944: 86 1a        	stx	$1a                     ; 0x1a <__rc10>
    2946: a2 c9        	ldx	#$c9
    2948: 86 1b        	stx	$1b                     ; 0x1b <__rc11>
    294a: a6 15        	ldx	$15                     ; 0x15 <__rc5>
    294c: 8e 0d de     	stx	$de0d                   ; 0xde0d <__heap_start+0x9389>
    294f: a6 1c        	ldx	$1c                     ; 0x1c <__rc12>
    2951: 8e 0e de     	stx	$de0e                   ; 0xde0e <__heap_start+0x938a>
    2954: a6 1d        	ldx	$1d                     ; 0x1d <__rc13>
    2956: 8e 0f de     	stx	$de0f                   ; 0xde0f <__heap_start+0x938b>
    2959: ae 18 de     	ldx	$de18                   ; 0xde18 <__heap_start+0x9394>
    295c: 86 1c        	stx	$1c                     ; 0x1c <__rc12>
    295e: ad 19 de     	lda	$de19                   ; 0xde19 <__heap_start+0x9395>
    2961: ae 1a de     	ldx	$de1a                   ; 0xde1a <__heap_start+0x9396>
    2964: ae 1b de     	ldx	$de1b                   ; 0xde1b <__heap_start+0x9397>
    2967: 85 1d        	sta	$1d                     ; 0x1d <__rc13>
    2969: 64 15        	stz	$15                     ; 0x15 <__rc5>
    296b: a2 f0        	ldx	#$f0
    296d: 86 ee        	stx	$ee                     ; 0xee <__pal_size+0x6e>
    296f: a2 20        	ldx	#$20
    2971: 86 ef        	stx	$ef                     ; 0xef <__pal_size+0x6f>
    2973: 4c 84 2a     	jmp	$2a84 <textPrint+0x18b>
    2976: 8a           	txa
    2977: f0 15        	beq	$298e <textPrint+0x95>
    2979: b1 1c        	lda	($1c),y                 ; 0x1c <__rc12>
    297b: 92 1c        	sta	($1c)                   ; 0x1c <__rc12>
    297d: a9 ff        	lda	#$ff
    297f: c6 1e        	dec	$1e                     ; 0x1e <__rc14>
    2981: c5 1e        	cmp	$1e                     ; 0x1e <__rc14>
    2983: d0 01        	bne	$2986 <textPrint+0x8d>
    2985: ca           	dex
    2986: e6 1c        	inc	$1c                     ; 0x1c <__rc12>
    2988: d0 ec        	bne	$2976 <textPrint+0x7d>
    298a: e6 1d        	inc	$1d                     ; 0x1d <__rc13>
    298c: 80 e8        	bra	$2976 <textPrint+0x7d>
    298e: a5 1e        	lda	$1e                     ; 0x1e <__rc14>
    2990: d0 e7        	bne	$2979 <textPrint+0x80>
    2992: a2 02        	ldx	#$2
    2994: 86 01        	stx	$1                      ; 0x1 <__data_size+0x1>
    2996: a2 09        	ldx	#$9
    2998: a9 10        	lda	#$10
    299a: 5a           	phy
    299b: a0 00        	ldy	#$0
    299d: 84 1c        	sty	$1c                     ; 0x1c <__rc12>
    299f: a0 c0        	ldy	#$c0
    29a1: 84 1d        	sty	$1d                     ; 0x1d <__rc13>
    29a3: 7a           	ply
    29a4: 85 1e        	sta	$1e                     ; 0x1e <__rc14>
    29a6: 80 03        	bra	$29ab <textPrint+0xb2>
    29a8: 8a           	txa
    29a9: f0 15        	beq	$29c0 <textPrint+0xc7>
    29ab: b1 1c        	lda	($1c),y                 ; 0x1c <__rc12>
    29ad: 92 1c        	sta	($1c)                   ; 0x1c <__rc12>
    29af: a9 ff        	lda	#$ff
    29b1: c6 1e        	dec	$1e                     ; 0x1e <__rc14>
    29b3: c5 1e        	cmp	$1e                     ; 0x1e <__rc14>
    29b5: d0 01        	bne	$29b8 <textPrint+0xbf>
    29b7: ca           	dex
    29b8: e6 1c        	inc	$1c                     ; 0x1c <__rc12>
    29ba: d0 ec        	bne	$29a8 <textPrint+0xaf>
    29bc: e6 1d        	inc	$1d                     ; 0x1d <__rc13>
    29be: 80 e8        	bra	$29a8 <textPrint+0xaf>
    29c0: a5 1e        	lda	$1e                     ; 0x1e <__rc14>
    29c2: d0 e7        	bne	$29ab <textPrint+0xb2>
    29c4: a2 50        	ldx	#$50
    29c6: 86 ed        	stx	$ed                     ; 0xed <__pal_size+0x6d>
    29c8: a2 02        	ldx	#$2
    29ca: 86 01        	stx	$1                      ; 0x1 <__data_size+0x1>
    29cc: e8           	inx
    29cd: 86 01        	stx	$1                      ; 0x1 <__data_size+0x1>
    29cf: a2 50        	ldx	#$50
    29d1: a0 11        	ldy	#$11
    29d3: 84 1c        	sty	$1c                     ; 0x1c <__rc12>
    29d5: a0 c9        	ldy	#$c9
    29d7: 84 1d        	sty	$1d                     ; 0x1d <__rc13>
    29d9: a0 10        	ldy	#$10
    29db: 84 1e        	sty	$1e                     ; 0x1e <__rc14>
    29dd: a0 c9        	ldy	#$c9
    29df: 84 1f        	sty	$1f                     ; 0x1f <__rc15>
    29e1: a5 ee        	lda	$ee                     ; 0xee <__pal_size+0x6e>
    29e3: a4 1e        	ldy	$1e                     ; 0x1e <__rc14>
    29e5: 84 22        	sty	$22                     ; 0x22 <__rc18>
    29e7: a4 1f        	ldy	$1f                     ; 0x1f <__rc15>
    29e9: 84 23        	sty	$23                     ; 0x23 <__rc19>
    29eb: a4 1c        	ldy	$1c                     ; 0x1c <__rc12>
    29ed: 84 1e        	sty	$1e                     ; 0x1e <__rc14>
    29ef: a4 1d        	ldy	$1d                     ; 0x1d <__rc13>
    29f1: 84 1f        	sty	$1f                     ; 0x1f <__rc15>
    29f3: 92 22        	sta	($22)                   ; 0x22 <__rc18>
    29f5: e6 1c        	inc	$1c                     ; 0x1c <__rc12>
    29f7: d0 02        	bne	$29fb <textPrint+0x102>
    29f9: e6 1d        	inc	$1d                     ; 0x1d <__rc13>
    29fb: ca           	dex
    29fc: d0 e5        	bne	$29e3 <textPrint+0xea>
    29fe: a2 f0        	ldx	#$f0
    2a00: 86 ee        	stx	$ee                     ; 0xee <__pal_size+0x6e>
    2a02: a2 02        	ldx	#$2
    2a04: 86 01        	stx	$1                      ; 0x1 <__data_size+0x1>
    2a06: a2 50        	ldx	#$50
    2a08: a0 11        	ldy	#$11
    2a0a: 84 1c        	sty	$1c                     ; 0x1c <__rc12>
    2a0c: a0 c9        	ldy	#$c9
    2a0e: 84 1d        	sty	$1d                     ; 0x1d <__rc13>
    2a10: a0 10        	ldy	#$10
    2a12: 84 1e        	sty	$1e                     ; 0x1e <__rc14>
    2a14: a0 c9        	ldy	#$c9
    2a16: 84 1f        	sty	$1f                     ; 0x1f <__rc15>
    2a18: a5 ef        	lda	$ef                     ; 0xef <__pal_size+0x6f>
    2a1a: a4 1e        	ldy	$1e                     ; 0x1e <__rc14>
    2a1c: 84 22        	sty	$22                     ; 0x22 <__rc18>
    2a1e: a4 1f        	ldy	$1f                     ; 0x1f <__rc15>
    2a20: 84 23        	sty	$23                     ; 0x23 <__rc19>
    2a22: a4 1c        	ldy	$1c                     ; 0x1c <__rc12>
    2a24: 84 1e        	sty	$1e                     ; 0x1e <__rc14>
    2a26: a4 1d        	ldy	$1d                     ; 0x1d <__rc13>
    2a28: 84 1f        	sty	$1f                     ; 0x1f <__rc15>
    2a2a: 92 22        	sta	($22)                   ; 0x22 <__rc18>
    2a2c: e6 1c        	inc	$1c                     ; 0x1c <__rc12>
    2a2e: d0 02        	bne	$2a32 <textPrint+0x139>
    2a30: e6 1d        	inc	$1d                     ; 0x1d <__rc13>
    2a32: ca           	dex
    2a33: d0 e5        	bne	$2a1a <textPrint+0x121>
    2a35: a2 20        	ldx	#$20
    2a37: 86 ef        	stx	$ef                     ; 0xef <__pal_size+0x6f>
    2a39: c6 62        	dec	$62                     ; 0x62 <_row>
    2a3b: 9c 08 de     	stz	$de08                   ; 0xde08 <__heap_start+0x9384>
    2a3e: a2 c0        	ldx	#$c0
    2a40: 8e 09 de     	stx	$de09                   ; 0xde09 <__heap_start+0x9385>
    2a43: 9c 0a de     	stz	$de0a                   ; 0xde0a <__heap_start+0x9386>
    2a46: 9c 0b de     	stz	$de0b                   ; 0xde0b <__heap_start+0x9387>
    2a49: a2 1d        	ldx	#$1d
    2a4b: 8e 0c de     	stx	$de0c                   ; 0xde0c <__heap_start+0x9388>
    2a4e: 9c 0d de     	stz	$de0d                   ; 0xde0d <__heap_start+0x9389>
    2a51: 9c 0e de     	stz	$de0e                   ; 0xde0e <__heap_start+0x938a>
    2a54: 9c 0f de     	stz	$de0f                   ; 0xde0f <__heap_start+0x938b>
    2a57: ae 18 de     	ldx	$de18                   ; 0xde18 <__heap_start+0x9394>
    2a5a: ac 19 de     	ldy	$de19                   ; 0xde19 <__heap_start+0x9395>
    2a5d: ad 1a de     	lda	$de1a                   ; 0xde1a <__heap_start+0x9396>
    2a60: ad 1b de     	lda	$de1b                   ; 0xde1b <__heap_start+0x9397>
    2a63: 86 1c        	stx	$1c                     ; 0x1c <__rc12>
    2a65: 84 1d        	sty	$1d                     ; 0x1d <__rc13>
    2a67: a4 ed        	ldy	$ed                     ; 0xed <__pal_size+0x6d>
    2a69: e6 14        	inc	$14                     ; 0x14 <__rc4>
    2a6b: d0 02        	bne	$2a6f <textPrint+0x176>
    2a6d: e6 15        	inc	$15                     ; 0x15 <__rc5>
    2a6f: 80 13        	bra	$2a84 <textPrint+0x18b>
    2a71: a5 1c        	lda	$1c                     ; 0x1c <__rc12>
    2a73: 18           	clc
    2a74: 69 50        	adc	#$50
    2a76: 85 1c        	sta	$1c                     ; 0x1c <__rc12>
    2a78: a5 1d        	lda	$1d                     ; 0x1d <__rc13>
    2a7a: 69 00        	adc	#$0
    2a7c: 85 1d        	sta	$1d                     ; 0x1d <__rc13>
    2a7e: e6 14        	inc	$14                     ; 0x14 <__rc4>
    2a80: d0 02        	bne	$2a84 <textPrint+0x18b>
    2a82: e6 15        	inc	$15                     ; 0x15 <__rc5>
    2a84: a5 12        	lda	$12                     ; 0x12 <__rc2>
    2a86: 18           	clc
    2a87: 65 14        	adc	$14                     ; 0x14 <__rc4>
    2a89: 85 1e        	sta	$1e                     ; 0x1e <__rc14>
    2a8b: a5 13        	lda	$13                     ; 0x13 <__rc3>
    2a8d: 65 15        	adc	$15                     ; 0x15 <__rc5>
    2a8f: 85 1f        	sta	$1f                     ; 0x1f <__rc15>
    2a91: b2 1e        	lda	($1e)                   ; 0x1e <__rc14>
    2a93: c9 0a        	cmp	#$a
    2a95: f0 2b        	beq	$2ac2 <textPrint+0x1c9>
    2a97: c9 0d        	cmp	#$d
    2a99: f0 27        	beq	$2ac2 <textPrint+0x1c9>
    2a9b: aa           	tax
    2a9c: f0 49        	beq	$2ae7 <textPrint+0x1ee>
    2a9e: a2 03        	ldx	#$3
    2aa0: 86 01        	stx	$1                      ; 0x1 <__data_size+0x1>
    2aa2: 84 22        	sty	$22                     ; 0x22 <__rc18>
    2aa4: a4 61        	ldy	$61                     ; 0x61 <_col>
    2aa6: a9 f0        	lda	#$f0
    2aa8: aa           	tax
    2aa9: 86 ee        	stx	$ee                     ; 0xee <__pal_size+0x6e>
    2aab: 91 1c        	sta	($1c),y                 ; 0x1c <__rc12>
    2aad: a2 02        	ldx	#$2
    2aaf: 86 01        	stx	$1                      ; 0x1 <__data_size+0x1>
    2ab1: b2 1e        	lda	($1e)                   ; 0x1e <__rc14>
    2ab3: a4 61        	ldy	$61                     ; 0x61 <_col>
    2ab5: 91 1c        	sta	($1c),y                 ; 0x1c <__rc12>
    2ab7: a4 22        	ldy	$22                     ; 0x22 <__rc18>
    2ab9: a6 61        	ldx	$61                     ; 0x61 <_col>
    2abb: e8           	inx
    2abc: e6 61        	inc	$61                     ; 0x61 <_col>
    2abe: e0 50        	cpx	#$50
    2ac0: d0 bc        	bne	$2a7e <textPrint+0x185>
    2ac2: 64 61        	stz	$61                     ; 0x61 <_col>
    2ac4: a6 62        	ldx	$62                     ; 0x62 <_row>
    2ac6: e8           	inx
    2ac7: e6 62        	inc	$62                     ; 0x62 <_row>
    2ac9: e0 1e        	cpx	#$1e
    2acb: f0 03        	beq	$2ad0 <textPrint+0x1d7>
    2acd: 4c 71 2a     	jmp	$2a71 <textPrint+0x178>
    2ad0: a2 03        	ldx	#$3
    2ad2: 86 01        	stx	$1                      ; 0x1 <__data_size+0x1>
    2ad4: a2 09        	ldx	#$9
    2ad6: a9 10        	lda	#$10
    2ad8: 5a           	phy
    2ad9: a0 00        	ldy	#$0
    2adb: 84 1c        	sty	$1c                     ; 0x1c <__rc12>
    2add: a0 c0        	ldy	#$c0
    2adf: 84 1d        	sty	$1d                     ; 0x1d <__rc13>
    2ae1: 7a           	ply
    2ae2: 85 1e        	sta	$1e                     ; 0x1e <__rc14>
    2ae4: 4c 79 29     	jmp	$2979 <textPrint+0x80>
    2ae7: a6 ec        	ldx	$ec                     ; 0xec <__pal_size+0x6c>
    2ae9: 86 01        	stx	$1                      ; 0x1 <__data_size+0x1>
    2aeb: a6 61        	ldx	$61                     ; 0x61 <_col>
    2aed: a4 62        	ldy	$62                     ; 0x62 <_row>
    2aef: 8e 14 d0     	stx	$d014                   ; 0xd014 <__heap_start+0x8590>
    2af2: 9c 15 d0     	stz	$d015                   ; 0xd015 <__heap_start+0x8591>
    2af5: 84 62        	sty	$62                     ; 0x62 <_row>
    2af7: 8c 16 d0     	sty	$d016                   ; 0xd016 <__heap_start+0x8592>
    2afa: 9c 17 d0     	stz	$d017                   ; 0xd017 <__heap_start+0x8593>
    2afd: 60           	rts

00002afe <fileRead>:
    2afe: 85 16        	sta	$16                     ; 0x16 <__rc6>
    2b00: 86 17        	stx	$17                     ; 0x17 <__rc7>
    2b02: 64 18        	stz	$18                     ; 0x18 <__rc8>
    2b04: a6 12        	ldx	$12                     ; 0x12 <__rc2>
    2b06: 86 19        	stx	$19                     ; 0x19 <__rc9>
    2b08: a6 13        	ldx	$13                     ; 0x13 <__rc3>
    2b0a: 86 1a        	stx	$1a                     ; 0x1a <__rc10>
    2b0c: a2 00        	ldx	#$0
    2b0e: 86 1b        	stx	$1b                     ; 0x1b <__rc11>
    2b10: a2 9d        	ldx	#$9d
    2b12: 86 9b        	stx	$9b                     ; 0x9b <__pal_size+0x1b>
    2b14: a2 00        	ldx	#$0
    2b16: 86 9c        	stx	$9c                     ; 0x9c <__pal_size+0x1c>
    2b18: a9 9e        	lda	#$9e
    2b1a: 85 23        	sta	$23                     ; 0x23 <__rc19>
    2b1c: 64 12        	stz	$12                     ; 0x12 <__rc2>
    2b1e: a9 00        	lda	#$0
    2b20: 85 94        	sta	$94                     ; 0x94 <__pal_size+0x14>
    2b22: a9 9f        	lda	#$9f
    2b24: 85 95        	sta	$95                     ; 0x95 <__pal_size+0x15>
    2b26: a9 00        	lda	#$0
    2b28: 85 96        	sta	$96                     ; 0x96 <__pal_size+0x16>
    2b2a: a9 a0        	lda	#$a0
    2b2c: 85 97        	sta	$97                     ; 0x97 <__pal_size+0x17>
    2b2e: a9 00        	lda	#$0
    2b30: 85 98        	sta	$98                     ; 0x98 <__pal_size+0x18>
    2b32: a9 a1        	lda	#$a1
    2b34: 85 99        	sta	$99                     ; 0x99 <__pal_size+0x19>
    2b36: a9 00        	lda	#$0
    2b38: 85 9a        	sta	$9a                     ; 0x9a <__pal_size+0x1a>
    2b3a: b2 14        	lda	($14)                   ; 0x14 <__rc4>
    2b3c: a8           	tay
    2b3d: a6 19        	ldx	$19                     ; 0x19 <__rc9>
    2b3f: 86 13        	stx	$13                     ; 0x13 <__rc3>
    2b41: a5 19        	lda	$19                     ; 0x19 <__rc9>
    2b43: a6 1b        	ldx	$1b                     ; 0x1b <__rc11>
    2b45: e0 01        	cpx	#$1
    2b47: 65 18        	adc	$18                     ; 0x18 <__rc8>
    2b49: aa           	tax
    2b4a: a5 1a        	lda	$1a                     ; 0x1a <__rc10>
    2b4c: 85 22        	sta	$22                     ; 0x22 <__rc18>
    2b4e: a5 1a        	lda	$1a                     ; 0x1a <__rc10>
    2b50: 65 12        	adc	$12                     ; 0x12 <__rc2>
    2b52: c0 00        	cpy	#$0
    2b54: d0 03        	bne	$2b59 <fileRead+0x5b>
    2b56: 4c e5 2b     	jmp	$2be5 <fileRead+0xe7>
    2b59: 85 1e        	sta	$1e                     ; 0x1e <__rc14>
    2b5b: a5 16        	lda	$16                     ; 0x16 <__rc6>
    2b5d: 38           	sec
    2b5e: e5 18        	sbc	$18                     ; 0x18 <__rc8>
    2b60: 84 f3        	sty	$f3                     ; 0xf3 <__pal_size+0x73>
    2b62: 85 f4        	sta	$f4                     ; 0xf4 <__pal_size+0x74>
    2b64: a5 95        	lda	$95                     ; 0x95 <__pal_size+0x15>
    2b66: 85 1a        	sta	$1a                     ; 0x1a <__rc10>
    2b68: a5 96        	lda	$96                     ; 0x96 <__pal_size+0x16>
    2b6a: 85 1b        	sta	$1b                     ; 0x1b <__rc11>
    2b6c: a9 78        	lda	#$78
    2b6e: 85 1c        	sta	$1c                     ; 0x1c <__rc12>
    2b70: a9 00        	lda	#$0
    2b72: 85 1d        	sta	$1d                     ; 0x1d <__rc13>
    2b74: 20 60 ff     	jsr	$ff60 <__heap_start+0xb4dc>
    2b77: 92 1a        	sta	($1a)                   ; 0x1a <__rc10>
    2b79: a9 00        	lda	#$0
    2b7b: 6a           	ror
    2b7c: 85 1c        	sta	$1c                     ; 0x1c <__rc12>
    2b7e: a4 78        	ldy	$78                     ; 0x78 <kernelError>
    2b80: a9 ff        	lda	#$ff
    2b82: 85 19        	sta	$19                     ; 0x19 <__rc9>
    2b84: 98           	tya
    2b85: f0 03        	beq	$2b8a <fileRead+0x8c>
    2b87: 4c 63 2c     	jmp	$2c63 <fileRead+0x165>
    2b8a: 64 71        	stz	$71                     ; 0x71 <kernelEventData>
    2b8c: a5 97        	lda	$97                     ; 0x97 <__pal_size+0x17>
    2b8e: 85 1a        	sta	$1a                     ; 0x1a <__rc10>
    2b90: a5 98        	lda	$98                     ; 0x98 <__pal_size+0x18>
    2b92: 85 1b        	sta	$1b                     ; 0x1b <__rc11>
    2b94: a9 78        	lda	#$78
    2b96: 85 1c        	sta	$1c                     ; 0x1c <__rc12>
    2b98: a9 00        	lda	#$0
    2b9a: 85 1d        	sta	$1d                     ; 0x1d <__rc13>
    2b9c: 20 00 ff     	jsr	$ff00 <__heap_start+0xb47c>
    2b9f: 92 1a        	sta	($1a)                   ; 0x1a <__rc10>
    2ba1: a9 00        	lda	#$0
    2ba3: 6a           	ror
    2ba4: 85 1c        	sta	$1c                     ; 0x1c <__rc12>
    2ba6: a5 71        	lda	$71                     ; 0x71 <kernelEventData>
    2ba8: c9 38        	cmp	#$38
    2baa: d0 03        	bne	$2baf <fileRead+0xb1>
    2bac: 4c 63 2c     	jmp	$2c63 <fileRead+0x165>
    2baf: c9 30        	cmp	#$30
    2bb1: d0 03        	bne	$2bb6 <fileRead+0xb8>
    2bb3: 4c 6c 2c     	jmp	$2c6c <fileRead+0x16e>
    2bb6: c9 2c        	cmp	#$2c
    2bb8: d0 d0        	bne	$2b8a <fileRead+0x8c>
    2bba: 86 fb        	stx	$fb                     ; 0xfb <__pal_size+0x7b>
    2bbc: a4 1e        	ldy	$1e                     ; 0x1e <__rc14>
    2bbe: 84 fc        	sty	$fc                     ; 0xfc <__pal_size+0x7c>
    2bc0: a5 77        	lda	$77                     ; 0x77 <kernelEventData+0x6>
    2bc2: 85 fd        	sta	$fd                     ; 0xfd <__pal_size+0x7d>
    2bc4: a5 99        	lda	$99                     ; 0x99 <__pal_size+0x19>
    2bc6: 85 1a        	sta	$1a                     ; 0x1a <__rc10>
    2bc8: a5 9a        	lda	$9a                     ; 0x9a <__pal_size+0x1a>
    2bca: 85 1b        	sta	$1b                     ; 0x1b <__rc11>
    2bcc: a9 78        	lda	#$78
    2bce: 85 1c        	sta	$1c                     ; 0x1c <__rc12>
    2bd0: a9 00        	lda	#$0
    2bd2: 85 1d        	sta	$1d                     ; 0x1d <__rc13>
    2bd4: 20 04 ff     	jsr	$ff04 <__heap_start+0xb480>
    2bd7: 92 1a        	sta	($1a)                   ; 0x1a <__rc10>
    2bd9: a9 00        	lda	#$0
    2bdb: 6a           	ror
    2bdc: 85 1c        	sta	$1c                     ; 0x1c <__rc12>
    2bde: a5 77        	lda	$77                     ; 0x77 <kernelEventData+0x6>
    2be0: d0 4b        	bne	$2c2d <fileRead+0x12f>
    2be2: 4c 71 2c     	jmp	$2c71 <fileRead+0x173>
    2be5: 86 1a        	stx	$1a                     ; 0x1a <__rc10>
    2be7: 85 1b        	sta	$1b                     ; 0x1b <__rc11>
    2be9: 80 12        	bra	$2bfd <fileRead+0xff>
    2beb: a6 23        	ldx	$23                     ; 0x23 <__rc19>
    2bed: 86 1e        	stx	$1e                     ; 0x1e <__rc14>
    2bef: a5 94        	lda	$94                     ; 0x94 <__pal_size+0x14>
    2bf1: 85 1f        	sta	$1f                     ; 0x1f <__rc15>
    2bf3: 20 0c ff     	jsr	$ff0c <__heap_start+0xb488>
    2bf6: 92 1e        	sta	($1e)                   ; 0x1e <__rc14>
    2bf8: a9 00        	lda	#$0
    2bfa: 6a           	ror
    2bfb: 85 1c        	sta	$1c                     ; 0x1c <__rc12>
    2bfd: 64 71        	stz	$71                     ; 0x71 <kernelEventData>
    2bff: a6 9b        	ldx	$9b                     ; 0x9b <__pal_size+0x1b>
    2c01: 86 1e        	stx	$1e                     ; 0x1e <__rc14>
    2c03: a6 9c        	ldx	$9c                     ; 0x9c <__pal_size+0x1c>
    2c05: 86 1f        	stx	$1f                     ; 0x1f <__rc15>
    2c07: a9 78        	lda	#$78
    2c09: 85 1c        	sta	$1c                     ; 0x1c <__rc12>
    2c0b: a9 00        	lda	#$0
    2c0d: 85 1d        	sta	$1d                     ; 0x1d <__rc13>
    2c0f: 20 00 ff     	jsr	$ff00 <__heap_start+0xb47c>
    2c12: 92 1e        	sta	($1e)                   ; 0x1e <__rc14>
    2c14: a9 00        	lda	#$0
    2c16: 6a           	ror
    2c17: 85 1c        	sta	$1c                     ; 0x1c <__rc12>
    2c19: a5 78        	lda	$78                     ; 0x78 <kernelError>
    2c1b: d0 ce        	bne	$2beb <fileRead+0xed>
    2c1d: a5 71        	lda	$71                     ; 0x71 <kernelEventData>
    2c1f: c9 08        	cmp	#$8
    2c21: d0 da        	bne	$2bfd <fileRead+0xff>
    2c23: a5 77        	lda	$77                     ; 0x77 <kernelEventData+0x6>
    2c25: d0 d6        	bne	$2bfd <fileRead+0xff>
    2c27: a5 76        	lda	$76                     ; 0x76 <kernelEventData+0x5>
    2c29: 92 1a        	sta	($1a)                   ; 0x1a <__rc10>
    2c2b: a9 01        	lda	#$1
    2c2d: a0 00        	ldy	#$0
    2c2f: 18           	clc
    2c30: b8           	clv
    2c31: a2 01        	ldx	#$1
    2c33: 70 02        	bvs	$2c37 <fileRead+0x139>
    2c35: a2 00        	ldx	#$0
    2c37: 86 1b        	stx	$1b                     ; 0x1b <__rc11>
    2c39: 65 18        	adc	$18                     ; 0x18 <__rc8>
    2c3b: 85 1c        	sta	$1c                     ; 0x1c <__rc12>
    2c3d: 98           	tya
    2c3e: 65 12        	adc	$12                     ; 0x12 <__rc2>
    2c40: aa           	tax
    2c41: c5 17        	cmp	$17                     ; 0x17 <__rc7>
    2c43: d0 06        	bne	$2c4b <fileRead+0x14d>
    2c45: a4 1c        	ldy	$1c                     ; 0x1c <__rc12>
    2c47: c4 16        	cpy	$16                     ; 0x16 <__rc6>
    2c49: 80 04        	bra	$2c4f <fileRead+0x151>
    2c4b: e4 17        	cpx	$17                     ; 0x17 <__rc7>
    2c4d: a4 1c        	ldy	$1c                     ; 0x1c <__rc12>
    2c4f: 84 18        	sty	$18                     ; 0x18 <__rc8>
    2c51: 85 12        	sta	$12                     ; 0x12 <__rc2>
    2c53: a4 13        	ldy	$13                     ; 0x13 <__rc3>
    2c55: 84 19        	sty	$19                     ; 0x19 <__rc9>
    2c57: a4 22        	ldy	$22                     ; 0x22 <__rc18>
    2c59: 84 1a        	sty	$1a                     ; 0x1a <__rc10>
    2c5b: b0 03        	bcs	$2c60 <fileRead+0x162>
    2c5d: 4c 3a 2b     	jmp	$2b3a <fileRead+0x3c>
    2c60: a5 1c        	lda	$1c                     ; 0x1c <__rc12>
    2c62: 60           	rts
    2c63: a2 ff        	ldx	#$ff
    2c65: a4 19        	ldy	$19                     ; 0x19 <__rc9>
    2c67: 84 1c        	sty	$1c                     ; 0x1c <__rc12>
    2c69: a5 1c        	lda	$1c                     ; 0x1c <__rc12>
    2c6b: 60           	rts
    2c6c: a6 12        	ldx	$12                     ; 0x12 <__rc2>
    2c6e: a5 18        	lda	$18                     ; 0x18 <__rc8>
    2c70: 60           	rts
    2c71: a9 00        	lda	#$0
    2c73: a0 01        	ldy	#$1
    2c75: 80 b8        	bra	$2c2f <fileRead+0x131>

00002c77 <opl3_shadow>:
    2c77: 86 16        	stx	$16                     ; 0x16 <__rc6>
    2c79: a4 12        	ldy	$12                     ; 0x12 <__rc2>
    2c7b: a2 00        	ldx	#$0
    2c7d: 64 12        	stz	$12                     ; 0x12 <__rc2>
    2c7f: c0 00        	cpy	#$0
    2c81: f0 04        	beq	$2c87 <opl3_shadow+0x10>
    2c83: a0 09        	ldy	#$9
    2c85: 84 12        	sty	$12                     ; 0x12 <__rc2>
    2c87: 18           	clc
    2c88: 85 13        	sta	$13                     ; 0x13 <__rc3>
    2c8a: 69 80        	adc	#$80
    2c8c: c9 f6        	cmp	#$f6
    2c8e: 90 03        	bcc	$2c93 <opl3_shadow+0x1c>
    2c90: 4c 81 2d     	jmp	$2d81 <opl3_shadow+0x10a>
    2c93: a8           	tay
    2c94: b9 bf 46     	lda	$46bf,y                 ; 0x46bf <__BLOCK_SIZE+0x26bf>
    2c97: 48           	pha
    2c98: b9 b5 47     	lda	$47b5,y                 ; 0x47b5 <__BLOCK_SIZE+0x27b5>
    2c9b: a8           	tay
    2c9c: 68           	pla
    2c9d: 85 14        	sta	$14                     ; 0x14 <__rc4>
    2c9f: 84 15        	sty	$15                     ; 0x15 <__rc5>
    2ca1: 6c 14 00     	jmp	($14)                   ; 0x14 <__rc4>
    2ca4: a5 13        	lda	$13                     ; 0x13 <__rc3>
    2ca6: 85 14        	sta	$14                     ; 0x14 <__rc4>
    2ca8: 49 80        	eor	#$80
    2caa: c9 10        	cmp	#$10
    2cac: b0 03        	bcs	$2cb1 <opl3_shadow+0x3a>
    2cae: 4c eb 2e     	jmp	$2eeb <opl3_shadow+0x274>
    2cb1: 18           	clc
    2cb2: a5 14        	lda	$14                     ; 0x14 <__rc4>
    2cb4: 69 76        	adc	#$76
    2cb6: 4c f5 2e     	jmp	$2ef5 <opl3_shadow+0x27e>
    2cb9: a5 13        	lda	$13                     ; 0x13 <__rc3>
    2cbb: 85 14        	sta	$14                     ; 0x14 <__rc4>
    2cbd: 18           	clc
    2cbe: 69 dd        	adc	#$dd
    2cc0: c9 10        	cmp	#$10
    2cc2: b0 03        	bcs	$2cc7 <opl3_shadow+0x50>
    2cc4: 4c 3c 2e     	jmp	$2e3c <opl3_shadow+0x1c5>
    2cc7: a5 14        	lda	$14                     ; 0x14 <__rc4>
    2cc9: 18           	clc
    2cca: 69 d3        	adc	#$d3
    2ccc: 4c 46 2e     	jmp	$2e46 <opl3_shadow+0x1cf>
    2ccf: a5 13        	lda	$13                     ; 0x13 <__rc3>
    2cd1: 85 14        	sta	$14                     ; 0x14 <__rc4>
    2cd3: 18           	clc
    2cd4: 69 c0        	adc	#$c0
    2cd6: c9 10        	cmp	#$10
    2cd8: b0 03        	bcs	$2cdd <opl3_shadow+0x66>
    2cda: 4c 77 2e     	jmp	$2e77 <opl3_shadow+0x200>
    2cdd: a5 14        	lda	$14                     ; 0x14 <__rc4>
    2cdf: 18           	clc
    2ce0: 69 b6        	adc	#$b6
    2ce2: 4c 81 2e     	jmp	$2e81 <opl3_shadow+0x20a>
    2ce5: a5 13        	lda	$13                     ; 0x13 <__rc3>
    2ce7: 18           	clc
    2ce8: 65 12        	adc	$12                     ; 0x12 <__rc2>
    2cea: 18           	clc
    2ceb: 69 60        	adc	#$60
    2ced: 85 12        	sta	$12                     ; 0x12 <__rc2>
    2cef: 64 13        	stz	$13                     ; 0x13 <__rc3>
    2cf1: 0a           	asl
    2cf2: 26 13        	rol	$13                     ; 0x13 <__rc3>
    2cf4: 0a           	asl
    2cf5: 26 13        	rol	$13                     ; 0x13 <__rc3>
    2cf7: 0a           	asl
    2cf8: 26 13        	rol	$13                     ; 0x13 <__rc3>
    2cfa: 0a           	asl
    2cfb: 26 13        	rol	$13                     ; 0x13 <__rc3>
    2cfd: 38           	sec
    2cfe: e5 12        	sbc	$12                     ; 0x12 <__rc2>
    2d00: 85 12        	sta	$12                     ; 0x12 <__rc2>
    2d02: a5 13        	lda	$13                     ; 0x13 <__rc3>
    2d04: e9 00        	sbc	#$0
    2d06: 85 13        	sta	$13                     ; 0x13 <__rc3>
    2d08: a9 70        	lda	#$70
    2d0a: 18           	clc
    2d0b: 65 12        	adc	$12                     ; 0x12 <__rc2>
    2d0d: 85 12        	sta	$12                     ; 0x12 <__rc2>
    2d0f: a9 49        	lda	#$49
    2d11: 65 13        	adc	$13                     ; 0x13 <__rc3>
    2d13: 85 13        	sta	$13                     ; 0x13 <__rc3>
    2d15: a0 0b        	ldy	#$b
    2d17: 4c 7d 30     	jmp	$307d <opl3_shadow+0x406>
    2d1a: a5 13        	lda	$13                     ; 0x13 <__rc3>
    2d1c: 85 14        	sta	$14                     ; 0x14 <__rc4>
    2d1e: 18           	clc
    2d1f: 69 7d        	adc	#$7d
    2d21: c9 10        	cmp	#$10
    2d23: b0 03        	bcs	$2d28 <opl3_shadow+0xb1>
    2d25: 4c b1 2e     	jmp	$2eb1 <opl3_shadow+0x23a>
    2d28: a5 14        	lda	$14                     ; 0x14 <__rc4>
    2d2a: 18           	clc
    2d2b: 69 73        	adc	#$73
    2d2d: 4c bb 2e     	jmp	$2ebb <opl3_shadow+0x244>
    2d30: a5 13        	lda	$13                     ; 0x13 <__rc3>
    2d32: 18           	clc
    2d33: 65 12        	adc	$12                     ; 0x12 <__rc2>
    2d35: 18           	clc
    2d36: 69 50        	adc	#$50
    2d38: 85 12        	sta	$12                     ; 0x12 <__rc2>
    2d3a: 64 15        	stz	$15                     ; 0x15 <__rc5>
    2d3c: 0a           	asl
    2d3d: 64 13        	stz	$13                     ; 0x13 <__rc3>
    2d3f: 26 13        	rol	$13                     ; 0x13 <__rc3>
    2d41: 0a           	asl
    2d42: 26 13        	rol	$13                     ; 0x13 <__rc3>
    2d44: 0a           	asl
    2d45: 26 13        	rol	$13                     ; 0x13 <__rc3>
    2d47: 0a           	asl
    2d48: 26 13        	rol	$13                     ; 0x13 <__rc3>
    2d4a: 38           	sec
    2d4b: e5 12        	sbc	$12                     ; 0x12 <__rc2>
    2d4d: 85 12        	sta	$12                     ; 0x12 <__rc2>
    2d4f: a5 13        	lda	$13                     ; 0x13 <__rc3>
    2d51: e9 00        	sbc	#$0
    2d53: 85 13        	sta	$13                     ; 0x13 <__rc3>
    2d55: a9 70        	lda	#$70
    2d57: 18           	clc
    2d58: 65 12        	adc	$12                     ; 0x12 <__rc2>
    2d5a: 85 12        	sta	$12                     ; 0x12 <__rc2>
    2d5c: a9 49        	lda	#$49
    2d5e: 65 13        	adc	$13                     ; 0x13 <__rc3>
    2d60: 85 13        	sta	$13                     ; 0x13 <__rc3>
    2d62: a0 0d        	ldy	#$d
    2d64: a9 20        	lda	#$20
    2d66: 31 12        	and	($12),y                 ; 0x12 <__rc2>
    2d68: aa           	tax
    2d69: a5 16        	lda	$16                     ; 0x16 <__rc6>
    2d6b: 29 20        	and	#$20
    2d6d: 85 14        	sta	$14                     ; 0x14 <__rc4>
    2d6f: e4 14        	cpx	$14                     ; 0x14 <__rc4>
    2d71: f0 04        	beq	$2d77 <opl3_shadow+0x100>
    2d73: a2 01        	ldx	#$1
    2d75: 86 15        	stx	$15                     ; 0x15 <__rc5>
    2d77: 91 12        	sta	($12),y                 ; 0x12 <__rc2>
    2d79: a0 0c        	ldy	#$c
    2d7b: a5 16        	lda	$16                     ; 0x16 <__rc6>
    2d7d: 91 12        	sta	($12),y                 ; 0x12 <__rc2>
    2d7f: a6 15        	ldx	$15                     ; 0x15 <__rc5>
    2d81: 8a           	txa
    2d82: 60           	rts
    2d83: a5 13        	lda	$13                     ; 0x13 <__rc3>
    2d85: 85 14        	sta	$14                     ; 0x14 <__rc4>
    2d87: 18           	clc
    2d88: 69 e0        	adc	#$e0
    2d8a: c9 10        	cmp	#$10
    2d8c: b0 03        	bcs	$2d91 <opl3_shadow+0x11a>
    2d8e: 4c 25 2f     	jmp	$2f25 <opl3_shadow+0x2ae>
    2d91: a5 14        	lda	$14                     ; 0x14 <__rc4>
    2d93: 18           	clc
    2d94: 69 d6        	adc	#$d6
    2d96: 4c 2f 2f     	jmp	$2f2f <opl3_shadow+0x2b8>
    2d99: a5 13        	lda	$13                     ; 0x13 <__rc3>
    2d9b: 85 14        	sta	$14                     ; 0x14 <__rc4>
    2d9d: 18           	clc
    2d9e: 69 bd        	adc	#$bd
    2da0: c9 10        	cmp	#$10
    2da2: b0 03        	bcs	$2da7 <opl3_shadow+0x130>
    2da4: 4c 5f 2f     	jmp	$2f5f <opl3_shadow+0x2e8>
    2da7: a5 14        	lda	$14                     ; 0x14 <__rc4>
    2da9: 18           	clc
    2daa: 69 b3        	adc	#$b3
    2dac: 4c 69 2f     	jmp	$2f69 <opl3_shadow+0x2f2>
    2daf: a5 13        	lda	$13                     ; 0x13 <__rc3>
    2db1: 85 14        	sta	$14                     ; 0x14 <__rc4>
    2db3: 18           	clc
    2db4: 69 1d        	adc	#$1d
    2db6: c9 10        	cmp	#$10
    2db8: b0 03        	bcs	$2dbd <opl3_shadow+0x146>
    2dba: 4c 99 2f     	jmp	$2f99 <opl3_shadow+0x322>
    2dbd: a5 14        	lda	$14                     ; 0x14 <__rc4>
    2dbf: 18           	clc
    2dc0: 69 13        	adc	#$13
    2dc2: 4c a3 2f     	jmp	$2fa3 <opl3_shadow+0x32c>
    2dc5: a5 13        	lda	$13                     ; 0x13 <__rc3>
    2dc7: 85 14        	sta	$14                     ; 0x14 <__rc4>
    2dc9: 18           	clc
    2dca: 69 20        	adc	#$20
    2dcc: c9 10        	cmp	#$10
    2dce: b0 03        	bcs	$2dd3 <opl3_shadow+0x15c>
    2dd0: 4c d3 2f     	jmp	$2fd3 <opl3_shadow+0x35c>
    2dd3: a5 14        	lda	$14                     ; 0x14 <__rc4>
    2dd5: 18           	clc
    2dd6: 69 16        	adc	#$16
    2dd8: 4c dd 2f     	jmp	$2fdd <opl3_shadow+0x366>
    2ddb: a5 13        	lda	$13                     ; 0x13 <__rc3>
    2ddd: 18           	clc
    2dde: 65 12        	adc	$12                     ; 0x12 <__rc2>
    2de0: 18           	clc
    2de1: 69 40        	adc	#$40
    2de3: 85 12        	sta	$12                     ; 0x12 <__rc2>
    2de5: 64 13        	stz	$13                     ; 0x13 <__rc3>
    2de7: 0a           	asl
    2de8: 26 13        	rol	$13                     ; 0x13 <__rc3>
    2dea: 0a           	asl
    2deb: 26 13        	rol	$13                     ; 0x13 <__rc3>
    2ded: 0a           	asl
    2dee: 26 13        	rol	$13                     ; 0x13 <__rc3>
    2df0: 0a           	asl
    2df1: 26 13        	rol	$13                     ; 0x13 <__rc3>
    2df3: 38           	sec
    2df4: e5 12        	sbc	$12                     ; 0x12 <__rc2>
    2df6: 85 12        	sta	$12                     ; 0x12 <__rc2>
    2df8: a5 13        	lda	$13                     ; 0x13 <__rc3>
    2dfa: e9 00        	sbc	#$0
    2dfc: 85 13        	sta	$13                     ; 0x13 <__rc3>
    2dfe: a9 70        	lda	#$70
    2e00: 18           	clc
    2e01: 65 12        	adc	$12                     ; 0x12 <__rc2>
    2e03: 85 12        	sta	$12                     ; 0x12 <__rc2>
    2e05: a9 49        	lda	#$49
    2e07: 65 13        	adc	$13                     ; 0x13 <__rc3>
    2e09: 85 13        	sta	$13                     ; 0x13 <__rc3>
    2e0b: a0 0a        	ldy	#$a
    2e0d: 4c 7d 30     	jmp	$307d <opl3_shadow+0x406>
    2e10: a5 13        	lda	$13                     ; 0x13 <__rc3>
    2e12: 85 14        	sta	$14                     ; 0x14 <__rc4>
    2e14: 18           	clc
    2e15: 69 a0        	adc	#$a0
    2e17: c9 10        	cmp	#$10
    2e19: b0 03        	bcs	$2e1e <opl3_shadow+0x1a7>
    2e1b: 4c 0d 30     	jmp	$300d <opl3_shadow+0x396>
    2e1e: a5 14        	lda	$14                     ; 0x14 <__rc4>
    2e20: 18           	clc
    2e21: 69 96        	adc	#$96
    2e23: 4c 17 30     	jmp	$3017 <opl3_shadow+0x3a0>
    2e26: a5 13        	lda	$13                     ; 0x13 <__rc3>
    2e28: 85 14        	sta	$14                     ; 0x14 <__rc4>
    2e2a: 18           	clc
    2e2b: 69 9d        	adc	#$9d
    2e2d: c9 10        	cmp	#$10
    2e2f: b0 03        	bcs	$2e34 <opl3_shadow+0x1bd>
    2e31: 4c 46 30     	jmp	$3046 <opl3_shadow+0x3cf>
    2e34: a5 14        	lda	$14                     ; 0x14 <__rc4>
    2e36: 18           	clc
    2e37: 69 93        	adc	#$93
    2e39: 4c 50 30     	jmp	$3050 <opl3_shadow+0x3d9>
    2e3c: a8           	tay
    2e3d: c0 08        	cpy	#$8
    2e3f: 90 05        	bcc	$2e46 <opl3_shadow+0x1cf>
    2e41: 18           	clc
    2e42: a5 14        	lda	$14                     ; 0x14 <__rc4>
    2e44: 69 d8        	adc	#$d8
    2e46: 18           	clc
    2e47: 65 12        	adc	$12                     ; 0x12 <__rc2>
    2e49: 85 12        	sta	$12                     ; 0x12 <__rc2>
    2e4b: 64 13        	stz	$13                     ; 0x13 <__rc3>
    2e4d: 0a           	asl
    2e4e: 26 13        	rol	$13                     ; 0x13 <__rc3>
    2e50: 0a           	asl
    2e51: 26 13        	rol	$13                     ; 0x13 <__rc3>
    2e53: 0a           	asl
    2e54: 26 13        	rol	$13                     ; 0x13 <__rc3>
    2e56: 0a           	asl
    2e57: 26 13        	rol	$13                     ; 0x13 <__rc3>
    2e59: 38           	sec
    2e5a: e5 12        	sbc	$12                     ; 0x12 <__rc2>
    2e5c: 85 12        	sta	$12                     ; 0x12 <__rc2>
    2e5e: a5 13        	lda	$13                     ; 0x13 <__rc3>
    2e60: e9 00        	sbc	#$0
    2e62: 85 13        	sta	$13                     ; 0x13 <__rc3>
    2e64: a9 70        	lda	#$70
    2e66: 18           	clc
    2e67: 65 12        	adc	$12                     ; 0x12 <__rc2>
    2e69: 85 12        	sta	$12                     ; 0x12 <__rc2>
    2e6b: a9 49        	lda	#$49
    2e6d: 65 13        	adc	$13                     ; 0x13 <__rc3>
    2e6f: 85 13        	sta	$13                     ; 0x13 <__rc3>
    2e71: a5 16        	lda	$16                     ; 0x16 <__rc6>
    2e73: 92 12        	sta	($12)                   ; 0x12 <__rc2>
    2e75: 8a           	txa
    2e76: 60           	rts
    2e77: a8           	tay
    2e78: c0 08        	cpy	#$8
    2e7a: 90 05        	bcc	$2e81 <opl3_shadow+0x20a>
    2e7c: 18           	clc
    2e7d: a5 14        	lda	$14                     ; 0x14 <__rc4>
    2e7f: 69 bb        	adc	#$bb
    2e81: 18           	clc
    2e82: 65 12        	adc	$12                     ; 0x12 <__rc2>
    2e84: 85 12        	sta	$12                     ; 0x12 <__rc2>
    2e86: 64 13        	stz	$13                     ; 0x13 <__rc3>
    2e88: 0a           	asl
    2e89: 26 13        	rol	$13                     ; 0x13 <__rc3>
    2e8b: 0a           	asl
    2e8c: 26 13        	rol	$13                     ; 0x13 <__rc3>
    2e8e: 0a           	asl
    2e8f: 26 13        	rol	$13                     ; 0x13 <__rc3>
    2e91: 0a           	asl
    2e92: 26 13        	rol	$13                     ; 0x13 <__rc3>
    2e94: 38           	sec
    2e95: e5 12        	sbc	$12                     ; 0x12 <__rc2>
    2e97: 85 12        	sta	$12                     ; 0x12 <__rc2>
    2e99: a5 13        	lda	$13                     ; 0x13 <__rc3>
    2e9b: e9 00        	sbc	#$0
    2e9d: 85 13        	sta	$13                     ; 0x13 <__rc3>
    2e9f: a9 70        	lda	#$70
    2ea1: 18           	clc
    2ea2: 65 12        	adc	$12                     ; 0x12 <__rc2>
    2ea4: 85 12        	sta	$12                     ; 0x12 <__rc2>
    2ea6: a9 49        	lda	#$49
    2ea8: 65 13        	adc	$13                     ; 0x13 <__rc3>
    2eaa: 85 13        	sta	$13                     ; 0x13 <__rc3>
    2eac: a0 03        	ldy	#$3
    2eae: 4c 7d 30     	jmp	$307d <opl3_shadow+0x406>
    2eb1: a8           	tay
    2eb2: c0 08        	cpy	#$8
    2eb4: 90 05        	bcc	$2ebb <opl3_shadow+0x244>
    2eb6: 18           	clc
    2eb7: a5 14        	lda	$14                     ; 0x14 <__rc4>
    2eb9: 69 78        	adc	#$78
    2ebb: 18           	clc
    2ebc: 65 12        	adc	$12                     ; 0x12 <__rc2>
    2ebe: 85 12        	sta	$12                     ; 0x12 <__rc2>
    2ec0: 64 13        	stz	$13                     ; 0x13 <__rc3>
    2ec2: 0a           	asl
    2ec3: 26 13        	rol	$13                     ; 0x13 <__rc3>
    2ec5: 0a           	asl
    2ec6: 26 13        	rol	$13                     ; 0x13 <__rc3>
    2ec8: 0a           	asl
    2ec9: 26 13        	rol	$13                     ; 0x13 <__rc3>
    2ecb: 0a           	asl
    2ecc: 26 13        	rol	$13                     ; 0x13 <__rc3>
    2ece: 38           	sec
    2ecf: e5 12        	sbc	$12                     ; 0x12 <__rc2>
    2ed1: 85 12        	sta	$12                     ; 0x12 <__rc2>
    2ed3: a5 13        	lda	$13                     ; 0x13 <__rc3>
    2ed5: e9 00        	sbc	#$0
    2ed7: 85 13        	sta	$13                     ; 0x13 <__rc3>
    2ed9: a9 70        	lda	#$70
    2edb: 18           	clc
    2edc: 65 12        	adc	$12                     ; 0x12 <__rc2>
    2ede: 85 12        	sta	$12                     ; 0x12 <__rc2>
    2ee0: a9 49        	lda	#$49
    2ee2: 65 13        	adc	$13                     ; 0x13 <__rc3>
    2ee4: 85 13        	sta	$13                     ; 0x13 <__rc3>
    2ee6: a0 06        	ldy	#$6
    2ee8: 4c 7d 30     	jmp	$307d <opl3_shadow+0x406>
    2eeb: a8           	tay
    2eec: c0 08        	cpy	#$8
    2eee: 90 05        	bcc	$2ef5 <opl3_shadow+0x27e>
    2ef0: 18           	clc
    2ef1: a5 14        	lda	$14                     ; 0x14 <__rc4>
    2ef3: 69 7b        	adc	#$7b
    2ef5: 18           	clc
    2ef6: 65 12        	adc	$12                     ; 0x12 <__rc2>
    2ef8: 85 12        	sta	$12                     ; 0x12 <__rc2>
    2efa: 64 13        	stz	$13                     ; 0x13 <__rc3>
    2efc: 0a           	asl
    2efd: 26 13        	rol	$13                     ; 0x13 <__rc3>
    2eff: 0a           	asl
    2f00: 26 13        	rol	$13                     ; 0x13 <__rc3>
    2f02: 0a           	asl
    2f03: 26 13        	rol	$13                     ; 0x13 <__rc3>
    2f05: 0a           	asl
    2f06: 26 13        	rol	$13                     ; 0x13 <__rc3>
    2f08: 38           	sec
    2f09: e5 12        	sbc	$12                     ; 0x12 <__rc2>
    2f0b: 85 12        	sta	$12                     ; 0x12 <__rc2>
    2f0d: a5 13        	lda	$13                     ; 0x13 <__rc3>
    2f0f: e9 00        	sbc	#$0
    2f11: 85 13        	sta	$13                     ; 0x13 <__rc3>
    2f13: a9 70        	lda	#$70
    2f15: 18           	clc
    2f16: 65 12        	adc	$12                     ; 0x12 <__rc2>
    2f18: 85 12        	sta	$12                     ; 0x12 <__rc2>
    2f1a: a9 49        	lda	#$49
    2f1c: 65 13        	adc	$13                     ; 0x13 <__rc3>
    2f1e: 85 13        	sta	$13                     ; 0x13 <__rc3>
    2f20: a0 07        	ldy	#$7
    2f22: 4c 7d 30     	jmp	$307d <opl3_shadow+0x406>
    2f25: a8           	tay
    2f26: c0 08        	cpy	#$8
    2f28: 90 05        	bcc	$2f2f <opl3_shadow+0x2b8>
    2f2a: 18           	clc
    2f2b: a5 14        	lda	$14                     ; 0x14 <__rc4>
    2f2d: 69 db        	adc	#$db
    2f2f: 18           	clc
    2f30: 65 12        	adc	$12                     ; 0x12 <__rc2>
    2f32: 85 12        	sta	$12                     ; 0x12 <__rc2>
    2f34: 64 13        	stz	$13                     ; 0x13 <__rc3>
    2f36: 0a           	asl
    2f37: 26 13        	rol	$13                     ; 0x13 <__rc3>
    2f39: 0a           	asl
    2f3a: 26 13        	rol	$13                     ; 0x13 <__rc3>
    2f3c: 0a           	asl
    2f3d: 26 13        	rol	$13                     ; 0x13 <__rc3>
    2f3f: 0a           	asl
    2f40: 26 13        	rol	$13                     ; 0x13 <__rc3>
    2f42: 38           	sec
    2f43: e5 12        	sbc	$12                     ; 0x12 <__rc2>
    2f45: 85 12        	sta	$12                     ; 0x12 <__rc2>
    2f47: a5 13        	lda	$13                     ; 0x13 <__rc3>
    2f49: e9 00        	sbc	#$0
    2f4b: 85 13        	sta	$13                     ; 0x13 <__rc3>
    2f4d: a9 70        	lda	#$70
    2f4f: 18           	clc
    2f50: 65 12        	adc	$12                     ; 0x12 <__rc2>
    2f52: 85 12        	sta	$12                     ; 0x12 <__rc2>
    2f54: a9 49        	lda	#$49
    2f56: 65 13        	adc	$13                     ; 0x13 <__rc3>
    2f58: 85 13        	sta	$13                     ; 0x13 <__rc3>
    2f5a: a0 01        	ldy	#$1
    2f5c: 4c 7d 30     	jmp	$307d <opl3_shadow+0x406>
    2f5f: a8           	tay
    2f60: c0 08        	cpy	#$8
    2f62: 90 05        	bcc	$2f69 <opl3_shadow+0x2f2>
    2f64: 18           	clc
    2f65: a5 14        	lda	$14                     ; 0x14 <__rc4>
    2f67: 69 b8        	adc	#$b8
    2f69: 18           	clc
    2f6a: 65 12        	adc	$12                     ; 0x12 <__rc2>
    2f6c: 85 12        	sta	$12                     ; 0x12 <__rc2>
    2f6e: 64 13        	stz	$13                     ; 0x13 <__rc3>
    2f70: 0a           	asl
    2f71: 26 13        	rol	$13                     ; 0x13 <__rc3>
    2f73: 0a           	asl
    2f74: 26 13        	rol	$13                     ; 0x13 <__rc3>
    2f76: 0a           	asl
    2f77: 26 13        	rol	$13                     ; 0x13 <__rc3>
    2f79: 0a           	asl
    2f7a: 26 13        	rol	$13                     ; 0x13 <__rc3>
    2f7c: 38           	sec
    2f7d: e5 12        	sbc	$12                     ; 0x12 <__rc2>
    2f7f: 85 12        	sta	$12                     ; 0x12 <__rc2>
    2f81: a5 13        	lda	$13                     ; 0x13 <__rc3>
    2f83: e9 00        	sbc	#$0
    2f85: 85 13        	sta	$13                     ; 0x13 <__rc3>
    2f87: a9 70        	lda	#$70
    2f89: 18           	clc
    2f8a: 65 12        	adc	$12                     ; 0x12 <__rc2>
    2f8c: 85 12        	sta	$12                     ; 0x12 <__rc2>
    2f8e: a9 49        	lda	#$49
    2f90: 65 13        	adc	$13                     ; 0x13 <__rc3>
    2f92: 85 13        	sta	$13                     ; 0x13 <__rc3>
    2f94: a0 02        	ldy	#$2
    2f96: 4c 7d 30     	jmp	$307d <opl3_shadow+0x406>
    2f99: a8           	tay
    2f9a: c0 08        	cpy	#$8
    2f9c: 90 05        	bcc	$2fa3 <opl3_shadow+0x32c>
    2f9e: 18           	clc
    2f9f: a5 14        	lda	$14                     ; 0x14 <__rc4>
    2fa1: 69 18        	adc	#$18
    2fa3: 18           	clc
    2fa4: 65 12        	adc	$12                     ; 0x12 <__rc2>
    2fa6: 85 12        	sta	$12                     ; 0x12 <__rc2>
    2fa8: 64 13        	stz	$13                     ; 0x13 <__rc3>
    2faa: 0a           	asl
    2fab: 26 13        	rol	$13                     ; 0x13 <__rc3>
    2fad: 0a           	asl
    2fae: 26 13        	rol	$13                     ; 0x13 <__rc3>
    2fb0: 0a           	asl
    2fb1: 26 13        	rol	$13                     ; 0x13 <__rc3>
    2fb3: 0a           	asl
    2fb4: 26 13        	rol	$13                     ; 0x13 <__rc3>
    2fb6: 38           	sec
    2fb7: e5 12        	sbc	$12                     ; 0x12 <__rc2>
    2fb9: 85 12        	sta	$12                     ; 0x12 <__rc2>
    2fbb: a5 13        	lda	$13                     ; 0x13 <__rc3>
    2fbd: e9 00        	sbc	#$0
    2fbf: 85 13        	sta	$13                     ; 0x13 <__rc3>
    2fc1: a9 70        	lda	#$70
    2fc3: 18           	clc
    2fc4: 65 12        	adc	$12                     ; 0x12 <__rc2>
    2fc6: 85 12        	sta	$12                     ; 0x12 <__rc2>
    2fc8: a9 49        	lda	#$49
    2fca: 65 13        	adc	$13                     ; 0x13 <__rc3>
    2fcc: 85 13        	sta	$13                     ; 0x13 <__rc3>
    2fce: a0 08        	ldy	#$8
    2fd0: 4c 7d 30     	jmp	$307d <opl3_shadow+0x406>
    2fd3: a8           	tay
    2fd4: c0 08        	cpy	#$8
    2fd6: 90 05        	bcc	$2fdd <opl3_shadow+0x366>
    2fd8: 18           	clc
    2fd9: a5 14        	lda	$14                     ; 0x14 <__rc4>
    2fdb: 69 1b        	adc	#$1b
    2fdd: 18           	clc
    2fde: 65 12        	adc	$12                     ; 0x12 <__rc2>
    2fe0: 85 12        	sta	$12                     ; 0x12 <__rc2>
    2fe2: 64 13        	stz	$13                     ; 0x13 <__rc3>
    2fe4: 0a           	asl
    2fe5: 26 13        	rol	$13                     ; 0x13 <__rc3>
    2fe7: 0a           	asl
    2fe8: 26 13        	rol	$13                     ; 0x13 <__rc3>
    2fea: 0a           	asl
    2feb: 26 13        	rol	$13                     ; 0x13 <__rc3>
    2fed: 0a           	asl
    2fee: 26 13        	rol	$13                     ; 0x13 <__rc3>
    2ff0: 38           	sec
    2ff1: e5 12        	sbc	$12                     ; 0x12 <__rc2>
    2ff3: 85 12        	sta	$12                     ; 0x12 <__rc2>
    2ff5: a5 13        	lda	$13                     ; 0x13 <__rc3>
    2ff7: e9 00        	sbc	#$0
    2ff9: 85 13        	sta	$13                     ; 0x13 <__rc3>
    2ffb: a9 70        	lda	#$70
    2ffd: 18           	clc
    2ffe: 65 12        	adc	$12                     ; 0x12 <__rc2>
    3000: 85 12        	sta	$12                     ; 0x12 <__rc2>
    3002: a9 49        	lda	#$49
    3004: 65 13        	adc	$13                     ; 0x13 <__rc3>
    3006: 85 13        	sta	$13                     ; 0x13 <__rc3>
    3008: a0 09        	ldy	#$9
    300a: 4c 7d 30     	jmp	$307d <opl3_shadow+0x406>
    300d: a8           	tay
    300e: c0 08        	cpy	#$8
    3010: 90 05        	bcc	$3017 <opl3_shadow+0x3a0>
    3012: 18           	clc
    3013: a5 14        	lda	$14                     ; 0x14 <__rc4>
    3015: 69 9b        	adc	#$9b
    3017: 18           	clc
    3018: 65 12        	adc	$12                     ; 0x12 <__rc2>
    301a: 85 12        	sta	$12                     ; 0x12 <__rc2>
    301c: 64 13        	stz	$13                     ; 0x13 <__rc3>
    301e: 0a           	asl
    301f: 26 13        	rol	$13                     ; 0x13 <__rc3>
    3021: 0a           	asl
    3022: 26 13        	rol	$13                     ; 0x13 <__rc3>
    3024: 0a           	asl
    3025: 26 13        	rol	$13                     ; 0x13 <__rc3>
    3027: 0a           	asl
    3028: 26 13        	rol	$13                     ; 0x13 <__rc3>
    302a: 38           	sec
    302b: e5 12        	sbc	$12                     ; 0x12 <__rc2>
    302d: 85 12        	sta	$12                     ; 0x12 <__rc2>
    302f: a5 13        	lda	$13                     ; 0x13 <__rc3>
    3031: e9 00        	sbc	#$0
    3033: 85 13        	sta	$13                     ; 0x13 <__rc3>
    3035: a9 70        	lda	#$70
    3037: 18           	clc
    3038: 65 12        	adc	$12                     ; 0x12 <__rc2>
    303a: 85 12        	sta	$12                     ; 0x12 <__rc2>
    303c: a9 49        	lda	#$49
    303e: 65 13        	adc	$13                     ; 0x13 <__rc3>
    3040: 85 13        	sta	$13                     ; 0x13 <__rc3>
    3042: a0 05        	ldy	#$5
    3044: 80 37        	bra	$307d <opl3_shadow+0x406>
    3046: a8           	tay
    3047: c0 08        	cpy	#$8
    3049: 90 05        	bcc	$3050 <opl3_shadow+0x3d9>
    304b: 18           	clc
    304c: a5 14        	lda	$14                     ; 0x14 <__rc4>
    304e: 69 98        	adc	#$98
    3050: 18           	clc
    3051: 65 12        	adc	$12                     ; 0x12 <__rc2>
    3053: 85 12        	sta	$12                     ; 0x12 <__rc2>
    3055: 64 13        	stz	$13                     ; 0x13 <__rc3>
    3057: 0a           	asl
    3058: 26 13        	rol	$13                     ; 0x13 <__rc3>
    305a: 0a           	asl
    305b: 26 13        	rol	$13                     ; 0x13 <__rc3>
    305d: 0a           	asl
    305e: 26 13        	rol	$13                     ; 0x13 <__rc3>
    3060: 0a           	asl
    3061: 26 13        	rol	$13                     ; 0x13 <__rc3>
    3063: 38           	sec
    3064: e5 12        	sbc	$12                     ; 0x12 <__rc2>
    3066: 85 12        	sta	$12                     ; 0x12 <__rc2>
    3068: a5 13        	lda	$13                     ; 0x13 <__rc3>
    306a: e9 00        	sbc	#$0
    306c: 85 13        	sta	$13                     ; 0x13 <__rc3>
    306e: a9 70        	lda	#$70
    3070: 18           	clc
    3071: 65 12        	adc	$12                     ; 0x12 <__rc2>
    3073: 85 12        	sta	$12                     ; 0x12 <__rc2>
    3075: a9 49        	lda	#$49
    3077: 65 13        	adc	$13                     ; 0x13 <__rc3>
    3079: 85 13        	sta	$13                     ; 0x13 <__rc3>
    307b: a0 04        	ldy	#$4
    307d: a5 16        	lda	$16                     ; 0x16 <__rc6>
    307f: 91 12        	sta	($12),y                 ; 0x12 <__rc2>
    3081: 8a           	txa
    3082: 60           	rts

00003083 <copyToRAM>:
    3083: 18           	clc
    3084: a5 10        	lda	$10                     ; 0x10 <__rc0>
    3086: 69 f8        	adc	#$f8
    3088: 85 10        	sta	$10                     ; 0x10 <__rc0>
    308a: a5 11        	lda	$11                     ; 0x11 <__rc1>
    308c: 69 fe        	adc	#$fe
    308e: 85 11        	sta	$11                     ; 0x11 <__rc1>
    3090: a5 12        	lda	$12                     ; 0x12 <__rc2>
    3092: a6 13        	ldx	$13                     ; 0x13 <__rc3>
    3094: 18           	clc
    3095: 48           	pha
    3096: a5 10        	lda	$10                     ; 0x10 <__rc0>
    3098: 69 06        	adc	#$6
    309a: 85 12        	sta	$12                     ; 0x12 <__rc2>
    309c: a5 11        	lda	$11                     ; 0x11 <__rc1>
    309e: 69 01        	adc	#$1
    30a0: 85 13        	sta	$13                     ; 0x13 <__rc3>
    30a2: 68           	pla
    30a3: 92 12        	sta	($12)                   ; 0x12 <__rc2>
    30a5: a0 01        	ldy	#$1
    30a7: 8a           	txa
    30a8: 91 12        	sta	($12),y                 ; 0x12 <__rc2>
    30aa: 18           	clc
    30ab: a5 10        	lda	$10                     ; 0x10 <__rc0>
    30ad: 69 05        	adc	#$5
    30af: 85 12        	sta	$12                     ; 0x12 <__rc2>
    30b1: a5 11        	lda	$11                     ; 0x11 <__rc1>
    30b3: 69 01        	adc	#$1
    30b5: 85 13        	sta	$13                     ; 0x13 <__rc3>
    30b7: 98           	tya
    30b8: 92 12        	sta	($12)                   ; 0x12 <__rc2>
    30ba: 18           	clc
    30bb: a5 10        	lda	$10                     ; 0x10 <__rc0>
    30bd: 69 05        	adc	#$5
    30bf: 85 12        	sta	$12                     ; 0x12 <__rc2>
    30c1: a5 11        	lda	$11                     ; 0x11 <__rc1>
    30c3: 69 00        	adc	#$0
    30c5: 85 13        	sta	$13                     ; 0x13 <__rc3>
    30c7: a9 00        	lda	#$0
    30c9: 92 12        	sta	($12)                   ; 0x12 <__rc2>
    30cb: a9 00        	lda	#$0
    30cd: 18           	clc
    30ce: 48           	pha
    30cf: a5 10        	lda	$10                     ; 0x10 <__rc0>
    30d1: 69 01        	adc	#$1
    30d3: 85 12        	sta	$12                     ; 0x12 <__rc2>
    30d5: a5 11        	lda	$11                     ; 0x11 <__rc1>
    30d7: 69 00        	adc	#$0
    30d9: 85 13        	sta	$13                     ; 0x13 <__rc3>
    30db: 68           	pla
    30dc: 92 12        	sta	($12)                   ; 0x12 <__rc2>
    30de: 91 12        	sta	($12),y                 ; 0x12 <__rc2>
    30e0: c8           	iny
    30e1: 91 12        	sta	($12),y                 ; 0x12 <__rc2>
    30e3: c8           	iny
    30e4: 91 12        	sta	($12),y                 ; 0x12 <__rc2>
    30e6: 18           	clc
    30e7: a5 10        	lda	$10                     ; 0x10 <__rc0>
    30e9: 69 05        	adc	#$5
    30eb: 85 12        	sta	$12                     ; 0x12 <__rc2>
    30ed: a5 11        	lda	$11                     ; 0x11 <__rc1>
    30ef: 69 01        	adc	#$1
    30f1: 85 13        	sta	$13                     ; 0x13 <__rc3>
    30f3: b2 12        	lda	($12)                   ; 0x12 <__rc2>
    30f5: d0 03        	bne	$30fa <copyToRAM+0x77>
    30f7: 4c 69 32     	jmp	$3269 <copyToRAM+0x1e6>
    30fa: 18           	clc
    30fb: a5 10        	lda	$10                     ; 0x10 <__rc0>
    30fd: 69 06        	adc	#$6
    30ff: 85 12        	sta	$12                     ; 0x12 <__rc2>
    3101: a5 11        	lda	$11                     ; 0x11 <__rc1>
    3103: 69 01        	adc	#$1
    3105: 85 13        	sta	$13                     ; 0x13 <__rc3>
    3107: b2 12        	lda	($12)                   ; 0x12 <__rc2>
    3109: 85 14        	sta	$14                     ; 0x14 <__rc4>
    310b: a0 01        	ldy	#$1
    310d: b1 12        	lda	($12),y                 ; 0x12 <__rc2>
    310f: 85 15        	sta	$15                     ; 0x15 <__rc5>
    3111: a9 ff        	lda	#$ff
    3113: a2 00        	ldx	#$0
    3115: 18           	clc
    3116: 48           	pha
    3117: a5 10        	lda	$10                     ; 0x10 <__rc0>
    3119: 69 06        	adc	#$6
    311b: 85 12        	sta	$12                     ; 0x12 <__rc2>
    311d: a5 11        	lda	$11                     ; 0x11 <__rc1>
    311f: 69 00        	adc	#$0
    3121: 85 13        	sta	$13                     ; 0x13 <__rc3>
    3123: 68           	pla
    3124: 20 fe 2a     	jsr	$2afe <fileRead>
    3127: 18           	clc
    3128: 48           	pha
    3129: a5 10        	lda	$10                     ; 0x10 <__rc0>
    312b: 69 05        	adc	#$5
    312d: 85 12        	sta	$12                     ; 0x12 <__rc2>
    312f: a5 11        	lda	$11                     ; 0x11 <__rc1>
    3131: 69 00        	adc	#$0
    3133: 85 13        	sta	$13                     ; 0x13 <__rc3>
    3135: 68           	pla
    3136: 92 12        	sta	($12)                   ; 0x12 <__rc2>
    3138: b2 12        	lda	($12)                   ; 0x12 <__rc2>
    313a: c9 ff        	cmp	#$ff
    313c: f0 02        	beq	$3140 <copyToRAM+0xbd>
    313e: 80 02        	bra	$3142 <copyToRAM+0xbf>
    3140: 80 15        	bra	$3157 <copyToRAM+0xd4>
    3142: 80 00        	bra	$3144 <copyToRAM+0xc1>
    3144: 80 00        	bra	$3146 <copyToRAM+0xc3>
    3146: 18           	clc
    3147: a5 10        	lda	$10                     ; 0x10 <__rc0>
    3149: 69 05        	adc	#$5
    314b: 85 12        	sta	$12                     ; 0x12 <__rc2>
    314d: a5 11        	lda	$11                     ; 0x11 <__rc1>
    314f: 69 01        	adc	#$1
    3151: 85 13        	sta	$13                     ; 0x13 <__rc3>
    3153: a9 00        	lda	#$0
    3155: 92 12        	sta	($12)                   ; 0x12 <__rc2>
    3157: 18           	clc
    3158: a6 10        	ldx	$10                     ; 0x10 <__rc0>
    315a: 86 12        	stx	$12                     ; 0x12 <__rc2>
    315c: a6 11        	ldx	$11                     ; 0x11 <__rc1>
    315e: 86 13        	stx	$13                     ; 0x13 <__rc3>
    3160: a9 00        	lda	#$0
    3162: 92 12        	sta	($12)                   ; 0x12 <__rc2>
    3164: 18           	clc
    3165: a6 10        	ldx	$10                     ; 0x10 <__rc0>
    3167: 86 12        	stx	$12                     ; 0x12 <__rc2>
    3169: a6 11        	ldx	$11                     ; 0x11 <__rc1>
    316b: 86 13        	stx	$13                     ; 0x13 <__rc3>
    316d: b2 12        	lda	($12)                   ; 0x12 <__rc2>
    316f: 18           	clc
    3170: 48           	pha
    3171: a5 10        	lda	$10                     ; 0x10 <__rc0>
    3173: 69 05        	adc	#$5
    3175: 85 12        	sta	$12                     ; 0x12 <__rc2>
    3177: a5 11        	lda	$11                     ; 0x11 <__rc1>
    3179: 69 00        	adc	#$0
    317b: 85 13        	sta	$13                     ; 0x13 <__rc3>
    317d: 68           	pla
    317e: d2 12        	cmp	($12)                   ; 0x12 <__rc2>
    3180: a9 00        	lda	#$0
    3182: e9 00        	sbc	#$0
    3184: 70 02        	bvs	$3188 <copyToRAM+0x105>
    3186: 80 04        	bra	$318c <copyToRAM+0x109>
    3188: 49 80        	eor	#$80
    318a: 80 02        	bra	$318e <copyToRAM+0x10b>
    318c: 80 00        	bra	$318e <copyToRAM+0x10b>
    318e: aa           	tax
    318f: 30 05        	bmi	$3196 <copyToRAM+0x113>
    3191: 80 00        	bra	$3193 <copyToRAM+0x110>
    3193: 4c 0b 32     	jmp	$320b <copyToRAM+0x188>
    3196: 18           	clc
    3197: a6 10        	ldx	$10                     ; 0x10 <__rc0>
    3199: 86 18        	stx	$18                     ; 0x18 <__rc8>
    319b: a6 11        	ldx	$11                     ; 0x11 <__rc1>
    319d: 86 19        	stx	$19                     ; 0x19 <__rc9>
    319f: 18           	clc
    31a0: a5 10        	lda	$10                     ; 0x10 <__rc0>
    31a2: 69 01        	adc	#$1
    31a4: 85 14        	sta	$14                     ; 0x14 <__rc4>
    31a6: a5 11        	lda	$11                     ; 0x11 <__rc1>
    31a8: 69 00        	adc	#$0
    31aa: 85 15        	sta	$15                     ; 0x15 <__rc5>
    31ac: b2 14        	lda	($14)                   ; 0x14 <__rc4>
    31ae: a0 01        	ldy	#$1
    31b0: 18           	clc
    31b1: 72 18        	adc	($18)                   ; 0x18 <__rc8>
    31b3: 85 16        	sta	$16                     ; 0x16 <__rc6>
    31b5: a9 00        	lda	#$0
    31b7: 71 14        	adc	($14),y                 ; 0x14 <__rc4>
    31b9: aa           	tax
    31ba: a9 00        	lda	#$0
    31bc: c8           	iny
    31bd: 71 14        	adc	($14),y                 ; 0x14 <__rc4>
    31bf: 85 12        	sta	$12                     ; 0x12 <__rc2>
    31c1: c8           	iny
    31c2: a9 00        	lda	#$0
    31c4: 71 14        	adc	($14),y                 ; 0x14 <__rc4>
    31c6: a8           	tay
    31c7: 18           	clc
    31c8: a5 16        	lda	$16                     ; 0x16 <__rc6>
    31ca: 69 00        	adc	#$0
    31cc: 85 16        	sta	$16                     ; 0x16 <__rc6>
    31ce: 8a           	txa
    31cf: 69 00        	adc	#$0
    31d1: 85 17        	sta	$17                     ; 0x17 <__rc7>
    31d3: a5 12        	lda	$12                     ; 0x12 <__rc2>
    31d5: 69 10        	adc	#$10
    31d7: 85 12        	sta	$12                     ; 0x12 <__rc2>
    31d9: 98           	tya
    31da: 69 00        	adc	#$0
    31dc: aa           	tax
    31dd: 18           	clc
    31de: a5 10        	lda	$10                     ; 0x10 <__rc0>
    31e0: 69 06        	adc	#$6
    31e2: 85 14        	sta	$14                     ; 0x14 <__rc4>
    31e4: a5 11        	lda	$11                     ; 0x11 <__rc1>
    31e6: 69 00        	adc	#$0
    31e8: 85 15        	sta	$15                     ; 0x15 <__rc5>
    31ea: b2 18        	lda	($18)                   ; 0x18 <__rc8>
    31ec: a8           	tay
    31ed: b1 14        	lda	($14),y                 ; 0x14 <__rc4>
    31ef: 86 13        	stx	$13                     ; 0x13 <__rc3>
    31f1: 85 14        	sta	$14                     ; 0x14 <__rc4>
    31f3: a6 17        	ldx	$17                     ; 0x17 <__rc7>
    31f5: a5 16        	lda	$16                     ; 0x16 <__rc6>
    31f7: 20 ed 05     	jsr	$5ed <POKE24>
    31fa: 18           	clc
    31fb: a6 10        	ldx	$10                     ; 0x10 <__rc0>
    31fd: 86 12        	stx	$12                     ; 0x12 <__rc2>
    31ff: a6 11        	ldx	$11                     ; 0x11 <__rc1>
    3201: 86 13        	stx	$13                     ; 0x13 <__rc3>
    3203: b2 12        	lda	($12)                   ; 0x12 <__rc2>
    3205: 1a           	inc
    3206: 92 12        	sta	($12)                   ; 0x12 <__rc2>
    3208: 4c 64 31     	jmp	$3164 <copyToRAM+0xe1>
    320b: 18           	clc
    320c: a5 10        	lda	$10                     ; 0x10 <__rc0>
    320e: 69 05        	adc	#$5
    3210: 85 12        	sta	$12                     ; 0x12 <__rc2>
    3212: a5 11        	lda	$11                     ; 0x11 <__rc1>
    3214: 69 00        	adc	#$0
    3216: 85 13        	sta	$13                     ; 0x13 <__rc3>
    3218: b2 12        	lda	($12)                   ; 0x12 <__rc2>
    321a: 85 14        	sta	$14                     ; 0x14 <__rc4>
    321c: 18           	clc
    321d: a5 10        	lda	$10                     ; 0x10 <__rc0>
    321f: 69 01        	adc	#$1
    3221: 85 12        	sta	$12                     ; 0x12 <__rc2>
    3223: a5 11        	lda	$11                     ; 0x11 <__rc1>
    3225: 69 00        	adc	#$0
    3227: 85 13        	sta	$13                     ; 0x13 <__rc3>
    3229: a0 01        	ldy	#$1
    322b: b1 12        	lda	($12),y                 ; 0x12 <__rc2>
    322d: 85 1a        	sta	$1a                     ; 0x1a <__rc10>
    322f: a2 01        	ldx	#$1
    3231: 86 16        	stx	$16                     ; 0x16 <__rc6>
    3233: c8           	iny
    3234: b1 12        	lda	($12),y                 ; 0x12 <__rc2>
    3236: 85 18        	sta	$18                     ; 0x18 <__rc8>
    3238: e8           	inx
    3239: 86 15        	stx	$15                     ; 0x15 <__rc5>
    323b: c8           	iny
    323c: b1 12        	lda	($12),y                 ; 0x12 <__rc2>
    323e: 85 19        	sta	$19                     ; 0x19 <__rc9>
    3240: e8           	inx
    3241: 86 17        	stx	$17                     ; 0x17 <__rc7>
    3243: 18           	clc
    3244: a5 14        	lda	$14                     ; 0x14 <__rc4>
    3246: 72 12        	adc	($12)                   ; 0x12 <__rc2>
    3248: 85 14        	sta	$14                     ; 0x14 <__rc4>
    324a: a5 1a        	lda	$1a                     ; 0x1a <__rc10>
    324c: 69 00        	adc	#$0
    324e: a4 16        	ldy	$16                     ; 0x16 <__rc6>
    3250: 91 12        	sta	($12),y                 ; 0x12 <__rc2>
    3252: a5 18        	lda	$18                     ; 0x18 <__rc8>
    3254: 69 00        	adc	#$0
    3256: a4 15        	ldy	$15                     ; 0x15 <__rc5>
    3258: 91 12        	sta	($12),y                 ; 0x12 <__rc2>
    325a: a5 19        	lda	$19                     ; 0x19 <__rc9>
    325c: 69 00        	adc	#$0
    325e: a4 17        	ldy	$17                     ; 0x17 <__rc7>
    3260: 91 12        	sta	($12),y                 ; 0x12 <__rc2>
    3262: a5 14        	lda	$14                     ; 0x14 <__rc4>
    3264: 92 12        	sta	($12)                   ; 0x12 <__rc2>
    3266: 4c e6 30     	jmp	$30e6 <copyToRAM+0x63>
    3269: 18           	clc
    326a: a5 10        	lda	$10                     ; 0x10 <__rc0>
    326c: 69 08        	adc	#$8
    326e: 85 10        	sta	$10                     ; 0x10 <__rc0>
    3270: a5 11        	lda	$11                     ; 0x11 <__rc1>
    3272: 69 01        	adc	#$1
    3274: 85 11        	sta	$11                     ; 0x11 <__rc1>
    3276: 60           	rts

00003277 <exit>:
    3277: 20 49 03     	jsr	$349 <_fini>
    327a: 80 fe        	bra	$327a <exit+0x3>

0000327c <_ZN12_GLOBAL__N_13putEcP6Status>:
    327c: 85 18        	sta	$18                     ; 0x18 <__rc8>
    327e: a6 13        	ldx	$13                     ; 0x13 <__rc3>
    3280: 18           	clc
    3281: a5 12        	lda	$12                     ; 0x12 <__rc2>
    3283: 69 05        	adc	#$5
    3285: a8           	tay
    3286: a5 13        	lda	$13                     ; 0x13 <__rc3>
    3288: 86 15        	stx	$15                     ; 0x15 <__rc5>
    328a: 69 00        	adc	#$0
    328c: 18           	clc
    328d: 84 16        	sty	$16                     ; 0x16 <__rc6>
    328f: a0 05        	ldy	#$5
    3291: 85 17        	sta	$17                     ; 0x17 <__rc7>
    3293: b1 12        	lda	($12),y                 ; 0x12 <__rc2>
    3295: aa           	tax
    3296: a5 12        	lda	$12                     ; 0x12 <__rc2>
    3298: 69 03        	adc	#$3
    329a: 85 14        	sta	$14                     ; 0x14 <__rc4>
    329c: a5 15        	lda	$15                     ; 0x15 <__rc5>
    329e: 69 00        	adc	#$0
    32a0: 85 15        	sta	$15                     ; 0x15 <__rc5>
    32a2: a0 01        	ldy	#$1
    32a4: b1 16        	lda	($16),y                 ; 0x16 <__rc6>
    32a6: d1 14        	cmp	($14),y                 ; 0x14 <__rc4>
    32a8: d0 11        	bne	$32bb <_ZN12_GLOBAL__N_13putEcP6Status+0x3f>
    32aa: a0 03        	ldy	#$3
    32ac: 85 17        	sta	$17                     ; 0x17 <__rc7>
    32ae: b1 12        	lda	($12),y                 ; 0x12 <__rc2>
    32b0: 85 14        	sta	$14                     ; 0x14 <__rc4>
    32b2: 86 16        	stx	$16                     ; 0x16 <__rc6>
    32b4: e4 14        	cpx	$14                     ; 0x14 <__rc4>
    32b6: 90 0e        	bcc	$32c6 <_ZN12_GLOBAL__N_13putEcP6Status+0x4a>
    32b8: 4c 2f 33     	jmp	$332f <_ZN12_GLOBAL__N_13putEcP6Status+0xb3>
    32bb: 86 16        	stx	$16                     ; 0x16 <__rc6>
    32bd: d1 14        	cmp	($14),y                 ; 0x14 <__rc4>
    32bf: 85 17        	sta	$17                     ; 0x17 <__rc7>
    32c1: 90 03        	bcc	$32c6 <_ZN12_GLOBAL__N_13putEcP6Status+0x4a>
    32c3: 4c 2f 33     	jmp	$332f <_ZN12_GLOBAL__N_13putEcP6Status+0xb3>
    32c6: a5 12        	lda	$12                     ; 0x12 <__rc2>
    32c8: 18           	clc
    32c9: 69 0f        	adc	#$f
    32cb: 85 14        	sta	$14                     ; 0x14 <__rc4>
    32cd: a5 13        	lda	$13                     ; 0x13 <__rc3>
    32cf: 69 00        	adc	#$0
    32d1: 85 15        	sta	$15                     ; 0x15 <__rc5>
    32d3: a0 01        	ldy	#$1
    32d5: b1 14        	lda	($14),y                 ; 0x14 <__rc4>
    32d7: a2 00        	ldx	#$0
    32d9: 86 14        	stx	$14                     ; 0x14 <__rc4>
    32db: a2 00        	ldx	#$0
    32dd: 86 15        	stx	$15                     ; 0x15 <__rc5>
    32df: c5 15        	cmp	$15                     ; 0x15 <__rc5>
    32e1: d0 2d        	bne	$3310 <_ZN12_GLOBAL__N_13putEcP6Status+0x94>
    32e3: a0 0f        	ldy	#$f
    32e5: b1 12        	lda	($12),y                 ; 0x12 <__rc2>
    32e7: c5 14        	cmp	$14                     ; 0x14 <__rc4>
    32e9: d0 25        	bne	$3310 <_ZN12_GLOBAL__N_13putEcP6Status+0x94>
    32eb: a5 12        	lda	$12                     ; 0x12 <__rc2>
    32ed: 18           	clc
    32ee: 69 09        	adc	#$9
    32f0: 85 14        	sta	$14                     ; 0x14 <__rc4>
    32f2: a5 13        	lda	$13                     ; 0x13 <__rc3>
    32f4: 69 00        	adc	#$0
    32f6: a0 09        	ldy	#$9
    32f8: 85 15        	sta	$15                     ; 0x15 <__rc5>
    32fa: 18           	clc
    32fb: a5 16        	lda	$16                     ; 0x16 <__rc6>
    32fd: 71 12        	adc	($12),y                 ; 0x12 <__rc2>
    32ff: aa           	tax
    3300: a0 01        	ldy	#$1
    3302: a5 17        	lda	$17                     ; 0x17 <__rc7>
    3304: 71 14        	adc	($14),y                 ; 0x14 <__rc4>
    3306: 86 14        	stx	$14                     ; 0x14 <__rc4>
    3308: 85 15        	sta	$15                     ; 0x15 <__rc5>
    330a: a5 18        	lda	$18                     ; 0x18 <__rc8>
    330c: 92 14        	sta	($14)                   ; 0x14 <__rc4>
    330e: 80 1f        	bra	$332f <_ZN12_GLOBAL__N_13putEcP6Status+0xb3>
    3310: a6 12        	ldx	$12                     ; 0x12 <__rc2>
    3312: 86 ea        	stx	$ea                     ; 0xea <__pal_size+0x6a>
    3314: a6 13        	ldx	$13                     ; 0x13 <__rc3>
    3316: 86 eb        	stx	$eb                     ; 0xeb <__pal_size+0x6b>
    3318: a5 18        	lda	$18                     ; 0x18 <__rc8>
    331a: 85 67        	sta	$67                     ; 0x67 <__putchar.s>
    331c: a2 67        	ldx	#$67
    331e: 86 12        	stx	$12                     ; 0x12 <__rc2>
    3320: a2 00        	ldx	#$0
    3322: 86 13        	stx	$13                     ; 0x13 <__rc3>
    3324: 20 f9 28     	jsr	$28f9 <textPrint>
    3327: a6 ea        	ldx	$ea                     ; 0xea <__pal_size+0x6a>
    3329: 86 12        	stx	$12                     ; 0x12 <__rc2>
    332b: a6 eb        	ldx	$eb                     ; 0xeb <__pal_size+0x6b>
    332d: 86 13        	stx	$13                     ; 0x13 <__rc3>
    332f: a0 05        	ldy	#$5
    3331: a5 12        	lda	$12                     ; 0x12 <__rc2>
    3333: 18           	clc
    3334: 69 05        	adc	#$5
    3336: 85 14        	sta	$14                     ; 0x14 <__rc4>
    3338: a5 13        	lda	$13                     ; 0x13 <__rc3>
    333a: 69 00        	adc	#$0
    333c: 85 15        	sta	$15                     ; 0x15 <__rc5>
    333e: b1 12        	lda	($12),y                 ; 0x12 <__rc2>
    3340: aa           	tax
    3341: 84 16        	sty	$16                     ; 0x16 <__rc6>
    3343: a0 01        	ldy	#$1
    3345: b1 14        	lda	($14),y                 ; 0x14 <__rc4>
    3347: 84 17        	sty	$17                     ; 0x17 <__rc7>
    3349: e8           	inx
    334a: d0 01        	bne	$334d <_ZN12_GLOBAL__N_13putEcP6Status+0xd1>
    334c: 1a           	inc
    334d: 85 18        	sta	$18                     ; 0x18 <__rc8>
    334f: 8a           	txa
    3350: a4 16        	ldy	$16                     ; 0x16 <__rc6>
    3352: 91 12        	sta	($12),y                 ; 0x12 <__rc2>
    3354: a4 17        	ldy	$17                     ; 0x17 <__rc7>
    3356: a5 18        	lda	$18                     ; 0x18 <__rc8>
    3358: 91 14        	sta	($14),y                 ; 0x14 <__rc4>
    335a: 60           	rts

0000335b <_ZN12_GLOBAL__N_112print_stringEPKcP6Status>:
    335b: a6 12        	ldx	$12                     ; 0x12 <__rc2>
    335d: 86 e1        	stx	$e1                     ; 0xe1 <__pal_size+0x61>
    335f: a6 13        	ldx	$13                     ; 0x13 <__rc3>
    3361: 86 e2        	stx	$e2                     ; 0xe2 <__pal_size+0x62>
    3363: a6 14        	ldx	$14                     ; 0x14 <__rc4>
    3365: 86 e3        	stx	$e3                     ; 0xe3 <__pal_size+0x63>
    3367: a6 15        	ldx	$15                     ; 0x15 <__rc5>
    3369: 86 e4        	stx	$e4                     ; 0xe4 <__pal_size+0x64>
    336b: a5 e3        	lda	$e3                     ; 0xe3 <__pal_size+0x63>
    336d: 18           	clc
    336e: 69 0d        	adc	#$d
    3370: 85 12        	sta	$12                     ; 0x12 <__rc2>
    3372: a5 e4        	lda	$e4                     ; 0xe4 <__pal_size+0x64>
    3374: 69 00        	adc	#$0
    3376: 85 13        	sta	$13                     ; 0x13 <__rc3>
    3378: a0 01        	ldy	#$1
    337a: b1 12        	lda	($12),y                 ; 0x12 <__rc2>
    337c: 30 14        	bmi	$3392 <_ZN12_GLOBAL__N_112print_stringEPKcP6Status+0x37>
    337e: a0 0d        	ldy	#$d
    3380: aa           	tax
    3381: b1 e3        	lda	($e3),y                 ; 0xe3 <__pal_size+0x63>
    3383: 86 e6        	stx	$e6                     ; 0xe6 <__pal_size+0x66>
    3385: e0 00        	cpx	#$0
    3387: d0 0e        	bne	$3397 <_ZN12_GLOBAL__N_112print_stringEPKcP6Status+0x3c>
    3389: aa           	tax
    338a: d0 0b        	bne	$3397 <_ZN12_GLOBAL__N_112print_stringEPKcP6Status+0x3c>
    338c: 64 e5        	stz	$e5                     ; 0xe5 <__pal_size+0x65>
    338e: 64 e6        	stz	$e6                     ; 0xe6 <__pal_size+0x66>
    3390: 80 36        	bra	$33c8 <_ZN12_GLOBAL__N_112print_stringEPKcP6Status+0x6d>
    3392: a9 ff        	lda	#$ff
    3394: aa           	tax
    3395: 86 e6        	stx	$e6                     ; 0xe6 <__pal_size+0x66>
    3397: 85 e5        	sta	$e5                     ; 0xe5 <__pal_size+0x65>
    3399: 64 12        	stz	$12                     ; 0x12 <__rc2>
    339b: a4 e1        	ldy	$e1                     ; 0xe1 <__pal_size+0x61>
    339d: a6 e2        	ldx	$e2                     ; 0xe2 <__pal_size+0x62>
    339f: 86 16        	stx	$16                     ; 0x16 <__rc6>
    33a1: 64 13        	stz	$13                     ; 0x13 <__rc3>
    33a3: 98           	tya
    33a4: 18           	clc
    33a5: 65 12        	adc	$12                     ; 0x12 <__rc2>
    33a7: 85 14        	sta	$14                     ; 0x14 <__rc4>
    33a9: a5 e2        	lda	$e2                     ; 0xe2 <__pal_size+0x62>
    33ab: 65 13        	adc	$13                     ; 0x13 <__rc3>
    33ad: 85 15        	sta	$15                     ; 0x15 <__rc5>
    33af: b2 14        	lda	($14)                   ; 0x14 <__rc4>
    33b1: d0 03        	bne	$33b6 <_ZN12_GLOBAL__N_112print_stringEPKcP6Status+0x5b>
    33b3: 4c 5f 34     	jmp	$345f <_ZN12_GLOBAL__N_112print_stringEPKcP6Status+0x104>
    33b6: e6 12        	inc	$12                     ; 0x12 <__rc2>
    33b8: d0 02        	bne	$33bc <_ZN12_GLOBAL__N_112print_stringEPKcP6Status+0x61>
    33ba: e6 13        	inc	$13                     ; 0x13 <__rc3>
    33bc: a6 e6        	ldx	$e6                     ; 0xe6 <__pal_size+0x66>
    33be: e4 13        	cpx	$13                     ; 0x13 <__rc3>
    33c0: d0 e1        	bne	$33a3 <_ZN12_GLOBAL__N_112print_stringEPKcP6Status+0x48>
    33c2: a6 e5        	ldx	$e5                     ; 0xe5 <__pal_size+0x65>
    33c4: e4 12        	cpx	$12                     ; 0x12 <__rc2>
    33c6: d0 db        	bne	$33a3 <_ZN12_GLOBAL__N_112print_stringEPKcP6Status+0x48>
    33c8: a0 01        	ldy	#$1
    33ca: b1 e3        	lda	($e3),y                 ; 0xe3 <__pal_size+0x63>
    33cc: 29 01        	and	#$1
    33ce: f0 03        	beq	$33d3 <_ZN12_GLOBAL__N_112print_stringEPKcP6Status+0x78>
    33d0: 4c 31 34     	jmp	$3431 <_ZN12_GLOBAL__N_112print_stringEPKcP6Status+0xd6>
    33d3: a5 e3        	lda	$e3                     ; 0xe3 <__pal_size+0x63>
    33d5: 18           	clc
    33d6: 69 0b        	adc	#$b
    33d8: 85 14        	sta	$14                     ; 0x14 <__rc4>
    33da: a5 e4        	lda	$e4                     ; 0xe4 <__pal_size+0x64>
    33dc: 69 00        	adc	#$0
    33de: 85 15        	sta	$15                     ; 0x15 <__rc5>
    33e0: 84 12        	sty	$12                     ; 0x12 <__rc2>
    33e2: a0 0b        	ldy	#$b
    33e4: b1 e3        	lda	($e3),y                 ; 0xe3 <__pal_size+0x63>
    33e6: 85 13        	sta	$13                     ; 0x13 <__rc3>
    33e8: a4 12        	ldy	$12                     ; 0x12 <__rc2>
    33ea: b1 14        	lda	($14),y                 ; 0x14 <__rc4>
    33ec: 85 12        	sta	$12                     ; 0x12 <__rc2>
    33ee: a6 e6        	ldx	$e6                     ; 0xe6 <__pal_size+0x66>
    33f0: e4 12        	cpx	$12                     ; 0x12 <__rc2>
    33f2: d0 08        	bne	$33fc <_ZN12_GLOBAL__N_112print_stringEPKcP6Status+0xa1>
    33f4: a6 e5        	ldx	$e5                     ; 0xe5 <__pal_size+0x65>
    33f6: e4 13        	cpx	$13                     ; 0x13 <__rc3>
    33f8: 90 06        	bcc	$3400 <_ZN12_GLOBAL__N_112print_stringEPKcP6Status+0xa5>
    33fa: 80 35        	bra	$3431 <_ZN12_GLOBAL__N_112print_stringEPKcP6Status+0xd6>
    33fc: e4 12        	cpx	$12                     ; 0x12 <__rc2>
    33fe: b0 31        	bcs	$3431 <_ZN12_GLOBAL__N_112print_stringEPKcP6Status+0xd6>
    3400: 38           	sec
    3401: a5 e5        	lda	$e5                     ; 0xe5 <__pal_size+0x65>
    3403: e5 13        	sbc	$13                     ; 0x13 <__rc3>
    3405: a8           	tay
    3406: a5 e6        	lda	$e6                     ; 0xe6 <__pal_size+0x66>
    3408: e5 12        	sbc	$12                     ; 0x12 <__rc2>
    340a: 85 e8        	sta	$e8                     ; 0xe8 <__pal_size+0x68>
    340c: a2 20        	ldx	#$20
    340e: 86 e9        	stx	$e9                     ; 0xe9 <__pal_size+0x69>
    3410: a6 e3        	ldx	$e3                     ; 0xe3 <__pal_size+0x63>
    3412: 86 12        	stx	$12                     ; 0x12 <__rc2>
    3414: a6 e4        	ldx	$e4                     ; 0xe4 <__pal_size+0x64>
    3416: 86 13        	stx	$13                     ; 0x13 <__rc3>
    3418: 84 e7        	sty	$e7                     ; 0xe7 <__pal_size+0x67>
    341a: a5 e9        	lda	$e9                     ; 0xe9 <__pal_size+0x69>
    341c: 20 7c 32     	jsr	$327c <_ZN12_GLOBAL__N_13putEcP6Status>
    341f: a6 e8        	ldx	$e8                     ; 0xe8 <__pal_size+0x68>
    3421: e6 e7        	inc	$e7                     ; 0xe7 <__pal_size+0x67>
    3423: d0 01        	bne	$3426 <_ZN12_GLOBAL__N_112print_stringEPKcP6Status+0xcb>
    3425: e8           	inx
    3426: 86 e8        	stx	$e8                     ; 0xe8 <__pal_size+0x68>
    3428: a4 e7        	ldy	$e7                     ; 0xe7 <__pal_size+0x67>
    342a: 8a           	txa
    342b: d0 e3        	bne	$3410 <_ZN12_GLOBAL__N_112print_stringEPKcP6Status+0xb5>
    342d: a5 e7        	lda	$e7                     ; 0xe7 <__pal_size+0x67>
    342f: d0 df        	bne	$3410 <_ZN12_GLOBAL__N_112print_stringEPKcP6Status+0xb5>
    3431: a5 e6        	lda	$e6                     ; 0xe6 <__pal_size+0x66>
    3433: d0 04        	bne	$3439 <_ZN12_GLOBAL__N_112print_stringEPKcP6Status+0xde>
    3435: a5 e5        	lda	$e5                     ; 0xe5 <__pal_size+0x65>
    3437: f0 25        	beq	$345e <_ZN12_GLOBAL__N_112print_stringEPKcP6Status+0x103>
    3439: a2 ff        	ldx	#$ff
    343b: c6 e5        	dec	$e5                     ; 0xe5 <__pal_size+0x65>
    343d: e4 e5        	cpx	$e5                     ; 0xe5 <__pal_size+0x65>
    343f: d0 02        	bne	$3443 <_ZN12_GLOBAL__N_112print_stringEPKcP6Status+0xe8>
    3441: c6 e6        	dec	$e6                     ; 0xe6 <__pal_size+0x66>
    3443: b2 e1        	lda	($e1)                   ; 0xe1 <__pal_size+0x61>
    3445: e6 e1        	inc	$e1                     ; 0xe1 <__pal_size+0x61>
    3447: d0 02        	bne	$344b <_ZN12_GLOBAL__N_112print_stringEPKcP6Status+0xf0>
    3449: e6 e2        	inc	$e2                     ; 0xe2 <__pal_size+0x62>
    344b: a6 e3        	ldx	$e3                     ; 0xe3 <__pal_size+0x63>
    344d: 86 12        	stx	$12                     ; 0x12 <__rc2>
    344f: a6 e4        	ldx	$e4                     ; 0xe4 <__pal_size+0x64>
    3451: 86 13        	stx	$13                     ; 0x13 <__rc3>
    3453: 20 7c 32     	jsr	$327c <_ZN12_GLOBAL__N_13putEcP6Status>
    3456: a5 e6        	lda	$e6                     ; 0xe6 <__pal_size+0x66>
    3458: d0 df        	bne	$3439 <_ZN12_GLOBAL__N_112print_stringEPKcP6Status+0xde>
    345a: a5 e5        	lda	$e5                     ; 0xe5 <__pal_size+0x65>
    345c: d0 db        	bne	$3439 <_ZN12_GLOBAL__N_112print_stringEPKcP6Status+0xde>
    345e: 60           	rts
    345f: a6 12        	ldx	$12                     ; 0x12 <__rc2>
    3461: 86 e5        	stx	$e5                     ; 0xe5 <__pal_size+0x65>
    3463: a6 13        	ldx	$13                     ; 0x13 <__rc3>
    3465: 86 e6        	stx	$e6                     ; 0xe6 <__pal_size+0x66>
    3467: 4c c8 33     	jmp	$33c8 <_ZN12_GLOBAL__N_112print_stringEPKcP6Status+0x6d>

0000346a <printf>:
    346a: 18           	clc
    346b: a6 10        	ldx	$10                     ; 0x10 <__rc0>
    346d: a4 11        	ldy	$11                     ; 0x11 <__rc1>
    346f: 86 d7        	stx	$d7                     ; 0xd7 <__pal_size+0x57>
    3471: 84 d8        	sty	$d8                     ; 0xd8 <__pal_size+0x58>
    3473: a6 d7        	ldx	$d7                     ; 0xd7 <__pal_size+0x57>
    3475: a4 d8        	ldy	$d8                     ; 0xd8 <__pal_size+0x58>
    3477: 86 c2        	stx	$c2                     ; 0xc2 <__pal_size+0x42>
    3479: 84 c3        	sty	$c3                     ; 0xc3 <__pal_size+0x43>
    347b: a2 ff        	ldx	#$ff
    347d: 86 c7        	stx	$c7                     ; 0xc7 <__pal_size+0x47>
    347f: 86 c8        	stx	$c8                     ; 0xc8 <__pal_size+0x48>
    3481: 64 c9        	stz	$c9                     ; 0xc9 <__pal_size+0x49>
    3483: 64 ca        	stz	$ca                     ; 0xca <__pal_size+0x4a>
    3485: e8           	inx
    3486: 86 12        	stx	$12                     ; 0x12 <__rc2>
    3488: a2 00        	ldx	#$0
    348a: 86 13        	stx	$13                     ; 0x13 <__rc3>
    348c: a6 12        	ldx	$12                     ; 0x12 <__rc2>
    348e: a4 13        	ldy	$13                     ; 0x13 <__rc3>
    3490: 86 cd        	stx	$cd                     ; 0xcd <__pal_size+0x4d>
    3492: 84 ce        	sty	$ce                     ; 0xce <__pal_size+0x4e>
    3494: a2 02        	ldx	#$2
    3496: 86 d3        	stx	$d3                     ; 0xd3 <__pal_size+0x53>
    3498: 64 d4        	stz	$d4                     ; 0xd4 <__pal_size+0x54>
    349a: a6 c2        	ldx	$c2                     ; 0xc2 <__pal_size+0x42>
    349c: a4 c3        	ldy	$c3                     ; 0xc3 <__pal_size+0x43>
    349e: 86 d5        	stx	$d5                     ; 0xd5 <__pal_size+0x55>
    34a0: 84 d6        	sty	$d6                     ; 0xd6 <__pal_size+0x56>
    34a2: a2 b9        	ldx	#$b9
    34a4: a0 00        	ldy	#$0
    34a6: 86 12        	stx	$12                     ; 0x12 <__rc2>
    34a8: 84 13        	sty	$13                     ; 0x13 <__rc3>
    34aa: a0 01        	ldy	#$1
    34ac: a9 a0        	lda	#$a0
    34ae: 18           	clc
    34af: 69 02        	adc	#$2
    34b1: 85 df        	sta	$df                     ; 0xdf <__pal_size+0x5f>
    34b3: a9 00        	lda	#$0
    34b5: 69 00        	adc	#$0
    34b7: 85 e0        	sta	$e0                     ; 0xe0 <__pal_size+0x60>
    34b9: e6 12        	inc	$12                     ; 0x12 <__rc2>
    34bb: d0 02        	bne	$34bf <printf+0x55>
    34bd: e6 13        	inc	$13                     ; 0x13 <__rc3>
    34bf: a6 12        	ldx	$12                     ; 0x12 <__rc2>
    34c1: 86 db        	stx	$db                     ; 0xdb <__pal_size+0x5b>
    34c3: a6 13        	ldx	$13                     ; 0x13 <__rc3>
    34c5: 86 dc        	stx	$dc                     ; 0xdc <__pal_size+0x5c>
    34c7: a2 36        	ldx	#$36
    34c9: 86 98        	stx	$98                     ; 0x98 <__pal_size+0x18>
    34cb: a2 49        	ldx	#$49
    34cd: 86 99        	stx	$99                     ; 0x99 <__pal_size+0x19>
    34cf: a6 98        	ldx	$98                     ; 0x98 <__pal_size+0x18>
    34d1: 86 9c        	stx	$9c                     ; 0x9c <__pal_size+0x1c>
    34d3: a6 99        	ldx	$99                     ; 0x99 <__pal_size+0x19>
    34d5: 86 9d        	stx	$9d                     ; 0x9d <__pal_size+0x1d>
    34d7: b2 98        	lda	($98)                   ; 0x98 <__pal_size+0x18>
    34d9: c9 25        	cmp	#$25
    34db: f0 2d        	beq	$350a <printf+0xa0>
    34dd: aa           	tax
    34de: d0 03        	bne	$34e3 <printf+0x79>
    34e0: 4c db 41     	jmp	$41db <printf+0xd71>
    34e3: 85 67        	sta	$67                     ; 0x67 <__putchar.s>
    34e5: a2 67        	ldx	#$67
    34e7: 86 12        	stx	$12                     ; 0x12 <__rc2>
    34e9: a2 00        	ldx	#$0
    34eb: 86 13        	stx	$13                     ; 0x13 <__rc3>
    34ed: 84 98        	sty	$98                     ; 0x98 <__pal_size+0x18>
    34ef: 20 f9 28     	jsr	$28f9 <textPrint>
    34f2: a4 98        	ldy	$98                     ; 0x98 <__pal_size+0x18>
    34f4: e6 9c        	inc	$9c                     ; 0x9c <__pal_size+0x1c>
    34f6: d0 02        	bne	$34fa <printf+0x90>
    34f8: e6 9d        	inc	$9d                     ; 0x9d <__pal_size+0x1d>
    34fa: e6 c9        	inc	$c9                     ; 0xc9 <__pal_size+0x49>
    34fc: d0 02        	bne	$3500 <printf+0x96>
    34fe: e6 ca        	inc	$ca                     ; 0xca <__pal_size+0x4a>
    3500: a6 9c        	ldx	$9c                     ; 0x9c <__pal_size+0x1c>
    3502: 86 98        	stx	$98                     ; 0x98 <__pal_size+0x18>
    3504: a6 9d        	ldx	$9d                     ; 0x9d <__pal_size+0x1d>
    3506: 86 99        	stx	$99                     ; 0x99 <__pal_size+0x19>
    3508: 80 c5        	bra	$34cf <printf+0x65>
    350a: a6 98        	ldx	$98                     ; 0x98 <__pal_size+0x18>
    350c: 86 12        	stx	$12                     ; 0x12 <__rc2>
    350e: a6 99        	ldx	$99                     ; 0x99 <__pal_size+0x19>
    3510: 86 13        	stx	$13                     ; 0x13 <__rc3>
    3512: e6 12        	inc	$12                     ; 0x12 <__rc2>
    3514: d0 02        	bne	$3518 <printf+0xae>
    3516: e6 13        	inc	$13                     ; 0x13 <__rc3>
    3518: b1 9c        	lda	($9c),y                 ; 0x9c <__pal_size+0x1c>
    351a: c9 25        	cmp	#$25
    351c: d0 18        	bne	$3536 <printf+0xcc>
    351e: a2 01        	ldx	#$1
    3520: 86 13        	stx	$13                     ; 0x13 <__rc3>
    3522: a5 c9        	lda	$c9                     ; 0xc9 <__pal_size+0x49>
    3524: a4 ca        	ldy	$ca                     ; 0xca <__pal_size+0x4a>
    3526: c4 c8        	cpy	$c8                     ; 0xc8 <__pal_size+0x48>
    3528: f0 03        	beq	$352d <printf+0xc3>
    352a: 4c 46 36     	jmp	$3646 <printf+0x1dc>
    352d: a6 c7        	ldx	$c7                     ; 0xc7 <__pal_size+0x47>
    352f: 86 12        	stx	$12                     ; 0x12 <__rc2>
    3531: c5 12        	cmp	$12                     ; 0x12 <__rc2>
    3533: 4c 48 36     	jmp	$3648 <printf+0x1de>
    3536: a2 01        	ldx	#$1
    3538: 86 15        	stx	$15                     ; 0x15 <__rc5>
    353a: 64 c5        	stz	$c5                     ; 0xc5 <__pal_size+0x45>
    353c: 64 c6        	stz	$c6                     ; 0xc6 <__pal_size+0x46>
    353e: 64 c4        	stz	$c4                     ; 0xc4 <__pal_size+0x44>
    3540: 64 cf        	stz	$cf                     ; 0xcf <__pal_size+0x4f>
    3542: 64 d0        	stz	$d0                     ; 0xd0 <__pal_size+0x50>
    3544: a2 ff        	ldx	#$ff
    3546: 86 d1        	stx	$d1                     ; 0xd1 <__pal_size+0x51>
    3548: 86 d2        	stx	$d2                     ; 0xd2 <__pal_size+0x52>
    354a: 64 96        	stz	$96                     ; 0x96 <__pal_size+0x16>
    354c: 80 33        	bra	$3581 <printf+0x117>
    354e: a2 02        	ldx	#$2
    3550: 80 15        	bra	$3567 <printf+0xfd>
    3552: e0 20        	cpx	#$20
    3554: f0 15        	beq	$356b <printf+0x101>
    3556: 86 16        	stx	$16                     ; 0x16 <__rc6>
    3558: e0 23        	cpx	#$23
    355a: f0 03        	beq	$355f <printf+0xf5>
    355c: 4c de 35     	jmp	$35de <printf+0x174>
    355f: a5 96        	lda	$96                     ; 0x96 <__pal_size+0x16>
    3561: a2 04        	ldx	#$4
    3563: 80 02        	bra	$3567 <printf+0xfd>
    3565: a2 10        	ldx	#$10
    3567: 86 14        	stx	$14                     ; 0x14 <__rc4>
    3569: 80 06        	bra	$3571 <printf+0x107>
    356b: a2 08        	ldx	#$8
    356d: 86 14        	stx	$14                     ; 0x14 <__rc4>
    356f: a5 96        	lda	$96                     ; 0x96 <__pal_size+0x16>
    3571: 05 14        	ora	$14                     ; 0x14 <__rc4>
    3573: 85 96        	sta	$96                     ; 0x96 <__pal_size+0x16>
    3575: 85 c5        	sta	$c5                     ; 0xc5 <__pal_size+0x45>
    3577: a2 00        	ldx	#$0
    3579: 86 c6        	stx	$c6                     ; 0xc6 <__pal_size+0x46>
    357b: e6 12        	inc	$12                     ; 0x12 <__rc2>
    357d: d0 02        	bne	$3581 <printf+0x117>
    357f: e6 13        	inc	$13                     ; 0x13 <__rc3>
    3581: b2 12        	lda	($12)                   ; 0x12 <__rc2>
    3583: aa           	tax
    3584: 18           	clc
    3585: 69 d6        	adc	#$d6
    3587: c9 07        	cmp	#$7
    3589: b0 c7        	bcs	$3552 <printf+0xe8>
    358b: 86 16        	stx	$16                     ; 0x16 <__rc6>
    358d: 0a           	asl
    358e: aa           	tax
    358f: a0 01        	ldy	#$1
    3591: 84 14        	sty	$14                     ; 0x14 <__rc4>
    3593: a5 96        	lda	$96                     ; 0x96 <__pal_size+0x16>
    3595: 7c ab 48     	jmp	($48ab,x)               ; 0x48ab <__BLOCK_SIZE+0x28ab>
    3598: a5 d5        	lda	$d5                     ; 0xd5 <__pal_size+0x55>
    359a: a6 d6        	ldx	$d6                     ; 0xd6 <__pal_size+0x56>
    359c: 85 16        	sta	$16                     ; 0x16 <__rc6>
    359e: 86 17        	stx	$17                     ; 0x17 <__rc7>
    35a0: 18           	clc
    35a1: 69 02        	adc	#$2
    35a3: a8           	tay
    35a4: 8a           	txa
    35a5: 69 00        	adc	#$0
    35a7: 84 d5        	sty	$d5                     ; 0xd5 <__pal_size+0x55>
    35a9: 85 d6        	sta	$d6                     ; 0xd6 <__pal_size+0x56>
    35ab: b2 16        	lda	($16)                   ; 0x16 <__rc6>
    35ad: 85 15        	sta	$15                     ; 0x15 <__rc5>
    35af: a0 01        	ldy	#$1
    35b1: b1 16        	lda	($16),y                 ; 0x16 <__rc6>
    35b3: 85 14        	sta	$14                     ; 0x14 <__rc4>
    35b5: 10 15        	bpl	$35cc <printf+0x162>
    35b7: a5 96        	lda	$96                     ; 0x96 <__pal_size+0x16>
    35b9: 09 01        	ora	#$1
    35bb: 85 96        	sta	$96                     ; 0x96 <__pal_size+0x16>
    35bd: 85 c5        	sta	$c5                     ; 0xc5 <__pal_size+0x45>
    35bf: a2 00        	ldx	#$0
    35c1: 86 c6        	stx	$c6                     ; 0xc6 <__pal_size+0x46>
    35c3: 8a           	txa
    35c4: 38           	sec
    35c5: e5 15        	sbc	$15                     ; 0x15 <__rc5>
    35c7: 85 15        	sta	$15                     ; 0x15 <__rc5>
    35c9: 8a           	txa
    35ca: e5 14        	sbc	$14                     ; 0x14 <__rc4>
    35cc: a6 15        	ldx	$15                     ; 0x15 <__rc5>
    35ce: 86 cf        	stx	$cf                     ; 0xcf <__pal_size+0x4f>
    35d0: 85 d0        	sta	$d0                     ; 0xd0 <__pal_size+0x50>
    35d2: e6 12        	inc	$12                     ; 0x12 <__rc2>
    35d4: f0 03        	beq	$35d9 <printf+0x16f>
    35d6: 4c b2 36     	jmp	$36b2 <printf+0x248>
    35d9: e6 13        	inc	$13                     ; 0x13 <__rc3>
    35db: 4c b2 36     	jmp	$36b2 <printf+0x248>
    35de: a5 16        	lda	$16                     ; 0x16 <__rc6>
    35e0: 18           	clc
    35e1: 69 d0        	adc	#$d0
    35e3: c9 0a        	cmp	#$a
    35e5: 90 03        	bcc	$35ea <printf+0x180>
    35e7: 4c a4 36     	jmp	$36a4 <printf+0x23a>
    35ea: a6 16        	ldx	$16                     ; 0x16 <__rc6>
    35ec: 86 14        	stx	$14                     ; 0x14 <__rc4>
    35ee: 64 16        	stz	$16                     ; 0x16 <__rc6>
    35f0: 64 15        	stz	$15                     ; 0x15 <__rc5>
    35f2: 64 17        	stz	$17                     ; 0x17 <__rc7>
    35f4: a0 01        	ldy	#$1
    35f6: a2 00        	ldx	#$0
    35f8: 06 16        	asl	$16                     ; 0x16 <__rc6>
    35fa: 26 17        	rol	$17                     ; 0x17 <__rc7>
    35fc: a5 16        	lda	$16                     ; 0x16 <__rc6>
    35fe: 0a           	asl
    35ff: 85 18        	sta	$18                     ; 0x18 <__rc8>
    3601: a5 17        	lda	$17                     ; 0x17 <__rc7>
    3603: 2a           	rol
    3604: 06 18        	asl	$18                     ; 0x18 <__rc8>
    3606: 2a           	rol
    3607: 85 19        	sta	$19                     ; 0x19 <__rc9>
    3609: a5 18        	lda	$18                     ; 0x18 <__rc8>
    360b: 18           	clc
    360c: 65 16        	adc	$16                     ; 0x16 <__rc6>
    360e: 85 16        	sta	$16                     ; 0x16 <__rc6>
    3610: a5 19        	lda	$19                     ; 0x19 <__rc9>
    3612: 65 17        	adc	$17                     ; 0x17 <__rc7>
    3614: 85 17        	sta	$17                     ; 0x17 <__rc7>
    3616: a5 16        	lda	$16                     ; 0x16 <__rc6>
    3618: 18           	clc
    3619: 65 14        	adc	$14                     ; 0x14 <__rc4>
    361b: 85 14        	sta	$14                     ; 0x14 <__rc4>
    361d: a5 17        	lda	$17                     ; 0x17 <__rc7>
    361f: 65 15        	adc	$15                     ; 0x15 <__rc5>
    3621: 85 15        	sta	$15                     ; 0x15 <__rc5>
    3623: 18           	clc
    3624: a5 14        	lda	$14                     ; 0x14 <__rc4>
    3626: 69 d0        	adc	#$d0
    3628: 85 16        	sta	$16                     ; 0x16 <__rc6>
    362a: a5 15        	lda	$15                     ; 0x15 <__rc5>
    362c: 69 ff        	adc	#$ff
    362e: 85 17        	sta	$17                     ; 0x17 <__rc7>
    3630: b1 12        	lda	($12),y                 ; 0x12 <__rc2>
    3632: 85 14        	sta	$14                     ; 0x14 <__rc4>
    3634: 18           	clc
    3635: 69 d0        	adc	#$d0
    3637: e6 12        	inc	$12                     ; 0x12 <__rc2>
    3639: d0 02        	bne	$363d <printf+0x1d3>
    363b: e6 13        	inc	$13                     ; 0x13 <__rc3>
    363d: c9 0a        	cmp	#$a
    363f: 64 15        	stz	$15                     ; 0x15 <__rc5>
    3641: 90 b5        	bcc	$35f8 <printf+0x18e>
    3643: 4c aa 36     	jmp	$36aa <printf+0x240>
    3646: c4 c8        	cpy	$c8                     ; 0xc8 <__pal_size+0x48>
    3648: 84 16        	sty	$16                     ; 0x16 <__rc6>
    364a: a4 13        	ldy	$13                     ; 0x13 <__rc3>
    364c: b0 40        	bcs	$368e <printf+0x224>
    364e: a2 01        	ldx	#$1
    3650: 86 14        	stx	$14                     ; 0x14 <__rc4>
    3652: a6 d4        	ldx	$d4                     ; 0xd4 <__pal_size+0x54>
    3654: a0 00        	ldy	#$0
    3656: 84 12        	sty	$12                     ; 0x12 <__rc2>
    3658: a0 00        	ldy	#$0
    365a: 84 13        	sty	$13                     ; 0x13 <__rc3>
    365c: e4 13        	cpx	$13                     ; 0x13 <__rc3>
    365e: d0 19        	bne	$3679 <printf+0x20f>
    3660: a6 d3        	ldx	$d3                     ; 0xd3 <__pal_size+0x53>
    3662: e4 12        	cpx	$12                     ; 0x12 <__rc2>
    3664: d0 13        	bne	$3679 <printf+0x20f>
    3666: a4 14        	ldy	$14                     ; 0x14 <__rc4>
    3668: 18           	clc
    3669: 65 cd        	adc	$cd                     ; 0xcd <__pal_size+0x4d>
    366b: 85 12        	sta	$12                     ; 0x12 <__rc2>
    366d: a5 16        	lda	$16                     ; 0x16 <__rc6>
    366f: 65 ce        	adc	$ce                     ; 0xce <__pal_size+0x4e>
    3671: 85 13        	sta	$13                     ; 0x13 <__rc3>
    3673: a9 25        	lda	#$25
    3675: 92 12        	sta	($12)                   ; 0x12 <__rc2>
    3677: 80 15        	bra	$368e <printf+0x224>
    3679: a2 01        	ldx	#$1
    367b: 86 98        	stx	$98                     ; 0x98 <__pal_size+0x18>
    367d: a2 25        	ldx	#$25
    367f: 86 67        	stx	$67                     ; 0x67 <__putchar.s>
    3681: a2 67        	ldx	#$67
    3683: 86 12        	stx	$12                     ; 0x12 <__rc2>
    3685: a2 00        	ldx	#$0
    3687: 86 13        	stx	$13                     ; 0x13 <__rc3>
    3689: 20 f9 28     	jsr	$28f9 <textPrint>
    368c: a4 98        	ldy	$98                     ; 0x98 <__pal_size+0x18>
    368e: e6 c9        	inc	$c9                     ; 0xc9 <__pal_size+0x49>
    3690: d0 02        	bne	$3694 <printf+0x22a>
    3692: e6 ca        	inc	$ca                     ; 0xca <__pal_size+0x4a>
    3694: a5 9c        	lda	$9c                     ; 0x9c <__pal_size+0x1c>
    3696: 18           	clc
    3697: 69 02        	adc	#$2
    3699: 85 98        	sta	$98                     ; 0x98 <__pal_size+0x18>
    369b: a5 9d        	lda	$9d                     ; 0x9d <__pal_size+0x1d>
    369d: 69 00        	adc	#$0
    369f: 85 99        	sta	$99                     ; 0x99 <__pal_size+0x19>
    36a1: 4c cf 34     	jmp	$34cf <printf+0x65>
    36a4: 64 16        	stz	$16                     ; 0x16 <__rc6>
    36a6: 64 17        	stz	$17                     ; 0x17 <__rc7>
    36a8: a4 15        	ldy	$15                     ; 0x15 <__rc5>
    36aa: a6 16        	ldx	$16                     ; 0x16 <__rc6>
    36ac: 86 cf        	stx	$cf                     ; 0xcf <__pal_size+0x4f>
    36ae: a5 17        	lda	$17                     ; 0x17 <__rc7>
    36b0: 85 d0        	sta	$d0                     ; 0xd0 <__pal_size+0x50>
    36b2: 86 9b        	stx	$9b                     ; 0x9b <__pal_size+0x1b>
    36b4: 85 9a        	sta	$9a                     ; 0x9a <__pal_size+0x1a>
    36b6: b2 12        	lda	($12)                   ; 0x12 <__rc2>
    36b8: a2 ff        	ldx	#$ff
    36ba: c9 2e        	cmp	#$2e
    36bc: d0 39        	bne	$36f7 <printf+0x28d>
    36be: b1 12        	lda	($12),y                 ; 0x12 <__rc2>
    36c0: c9 2a        	cmp	#$2a
    36c2: d0 38        	bne	$36fc <printf+0x292>
    36c4: a5 d5        	lda	$d5                     ; 0xd5 <__pal_size+0x55>
    36c6: a6 d6        	ldx	$d6                     ; 0xd6 <__pal_size+0x56>
    36c8: 85 14        	sta	$14                     ; 0x14 <__rc4>
    36ca: 86 15        	stx	$15                     ; 0x15 <__rc5>
    36cc: 18           	clc
    36cd: 69 02        	adc	#$2
    36cf: 85 16        	sta	$16                     ; 0x16 <__rc6>
    36d1: 8a           	txa
    36d2: 69 00        	adc	#$0
    36d4: a6 16        	ldx	$16                     ; 0x16 <__rc6>
    36d6: 86 d5        	stx	$d5                     ; 0xd5 <__pal_size+0x55>
    36d8: 85 d6        	sta	$d6                     ; 0xd6 <__pal_size+0x56>
    36da: a5 12        	lda	$12                     ; 0x12 <__rc2>
    36dc: 18           	clc
    36dd: 69 02        	adc	#$2
    36df: 85 12        	sta	$12                     ; 0x12 <__rc2>
    36e1: a5 13        	lda	$13                     ; 0x13 <__rc3>
    36e3: 69 00        	adc	#$0
    36e5: 85 13        	sta	$13                     ; 0x13 <__rc3>
    36e7: b2 14        	lda	($14)                   ; 0x14 <__rc4>
    36e9: aa           	tax
    36ea: b1 14        	lda	($14),y                 ; 0x14 <__rc4>
    36ec: 86 18        	stx	$18                     ; 0x18 <__rc8>
    36ee: 86 d1        	stx	$d1                     ; 0xd1 <__pal_size+0x51>
    36f0: 85 19        	sta	$19                     ; 0x19 <__rc9>
    36f2: 85 d2        	sta	$d2                     ; 0xd2 <__pal_size+0x52>
    36f4: 4c ba 37     	jmp	$37ba <printf+0x350>
    36f7: 86 18        	stx	$18                     ; 0x18 <__rc8>
    36f9: 4c ca 37     	jmp	$37ca <printf+0x360>
    36fc: 18           	clc
    36fd: 85 17        	sta	$17                     ; 0x17 <__rc7>
    36ff: 69 d0        	adc	#$d0
    3701: c9 0a        	cmp	#$a
    3703: 90 03        	bcc	$3708 <printf+0x29e>
    3705: 4c ac 37     	jmp	$37ac <printf+0x342>
    3708: 64 16        	stz	$16                     ; 0x16 <__rc6>
    370a: a2 01        	ldx	#$1
    370c: 64 18        	stz	$18                     ; 0x18 <__rc8>
    370e: 64 19        	stz	$19                     ; 0x19 <__rc9>
    3710: 84 1b        	sty	$1b                     ; 0x1b <__rc11>
    3712: 64 1c        	stz	$1c                     ; 0x1c <__rc12>
    3714: 18           	clc
    3715: a0 01        	ldy	#$1
    3717: b0 02        	bcs	$371b <printf+0x2b1>
    3719: a0 00        	ldy	#$0
    371b: 84 1d        	sty	$1d                     ; 0x1d <__rc13>
    371d: a4 1c        	ldy	$1c                     ; 0x1c <__rc12>
    371f: 84 14        	sty	$14                     ; 0x14 <__rc4>
    3721: 86 15        	stx	$15                     ; 0x15 <__rc5>
    3723: 06 18        	asl	$18                     ; 0x18 <__rc8>
    3725: 26 19        	rol	$19                     ; 0x19 <__rc9>
    3727: a5 18        	lda	$18                     ; 0x18 <__rc8>
    3729: 0a           	asl
    372a: a8           	tay
    372b: a5 19        	lda	$19                     ; 0x19 <__rc9>
    372d: 2a           	rol
    372e: 84 1f        	sty	$1f                     ; 0x1f <__rc15>
    3730: 06 1f        	asl	$1f                     ; 0x1f <__rc15>
    3732: 2a           	rol
    3733: 85 22        	sta	$22                     ; 0x22 <__rc18>
    3735: a5 1f        	lda	$1f                     ; 0x1f <__rc15>
    3737: a4 1d        	ldy	$1d                     ; 0x1d <__rc13>
    3739: c0 01        	cpy	#$1
    373b: 65 18        	adc	$18                     ; 0x18 <__rc8>
    373d: 85 18        	sta	$18                     ; 0x18 <__rc8>
    373f: a5 22        	lda	$22                     ; 0x22 <__rc18>
    3741: 65 19        	adc	$19                     ; 0x19 <__rc9>
    3743: 85 19        	sta	$19                     ; 0x19 <__rc9>
    3745: a5 18        	lda	$18                     ; 0x18 <__rc8>
    3747: a4 1d        	ldy	$1d                     ; 0x1d <__rc13>
    3749: c0 01        	cpy	#$1
    374b: 65 17        	adc	$17                     ; 0x17 <__rc7>
    374d: 85 17        	sta	$17                     ; 0x17 <__rc7>
    374f: a5 19        	lda	$19                     ; 0x19 <__rc9>
    3751: 65 16        	adc	$16                     ; 0x16 <__rc6>
    3753: 85 16        	sta	$16                     ; 0x16 <__rc6>
    3755: 18           	clc
    3756: a5 17        	lda	$17                     ; 0x17 <__rc7>
    3758: 69 d0        	adc	#$d0
    375a: 85 18        	sta	$18                     ; 0x18 <__rc8>
    375c: a5 16        	lda	$16                     ; 0x16 <__rc6>
    375e: 69 ff        	adc	#$ff
    3760: 85 19        	sta	$19                     ; 0x19 <__rc9>
    3762: e8           	inx
    3763: d0 02        	bne	$3767 <printf+0x2fd>
    3765: e6 1c        	inc	$1c                     ; 0x1c <__rc12>
    3767: a5 12        	lda	$12                     ; 0x12 <__rc2>
    3769: a4 1d        	ldy	$1d                     ; 0x1d <__rc13>
    376b: c0 01        	cpy	#$1
    376d: 65 15        	adc	$15                     ; 0x15 <__rc5>
    376f: a8           	tay
    3770: a5 13        	lda	$13                     ; 0x13 <__rc3>
    3772: 65 14        	adc	$14                     ; 0x14 <__rc4>
    3774: 84 16        	sty	$16                     ; 0x16 <__rc6>
    3776: 85 17        	sta	$17                     ; 0x17 <__rc7>
    3778: a4 1b        	ldy	$1b                     ; 0x1b <__rc11>
    377a: b1 16        	lda	($16),y                 ; 0x16 <__rc6>
    377c: 85 17        	sta	$17                     ; 0x17 <__rc7>
    377e: 18           	clc
    377f: 69 d0        	adc	#$d0
    3781: c9 0a        	cmp	#$a
    3783: 64 16        	stz	$16                     ; 0x16 <__rc6>
    3785: b0 03        	bcs	$378a <printf+0x320>
    3787: 4c 1d 37     	jmp	$371d <printf+0x2b3>
    378a: a5 12        	lda	$12                     ; 0x12 <__rc2>
    378c: a6 1d        	ldx	$1d                     ; 0x1d <__rc13>
    378e: e0 01        	cpx	#$1
    3790: 65 15        	adc	$15                     ; 0x15 <__rc5>
    3792: 85 12        	sta	$12                     ; 0x12 <__rc2>
    3794: a5 13        	lda	$13                     ; 0x13 <__rc3>
    3796: 65 14        	adc	$14                     ; 0x14 <__rc4>
    3798: 85 13        	sta	$13                     ; 0x13 <__rc3>
    379a: e6 12        	inc	$12                     ; 0x12 <__rc2>
    379c: d0 02        	bne	$37a0 <printf+0x336>
    379e: e6 13        	inc	$13                     ; 0x13 <__rc3>
    37a0: a6 18        	ldx	$18                     ; 0x18 <__rc8>
    37a2: 86 d1        	stx	$d1                     ; 0xd1 <__pal_size+0x51>
    37a4: a6 19        	ldx	$19                     ; 0x19 <__rc9>
    37a6: 86 d2        	stx	$d2                     ; 0xd2 <__pal_size+0x52>
    37a8: a4 1b        	ldy	$1b                     ; 0x1b <__rc11>
    37aa: 80 0e        	bra	$37ba <printf+0x350>
    37ac: e6 12        	inc	$12                     ; 0x12 <__rc2>
    37ae: d0 02        	bne	$37b2 <printf+0x348>
    37b0: e6 13        	inc	$13                     ; 0x13 <__rc3>
    37b2: 64 18        	stz	$18                     ; 0x18 <__rc8>
    37b4: 64 d1        	stz	$d1                     ; 0xd1 <__pal_size+0x51>
    37b6: 64 d2        	stz	$d2                     ; 0xd2 <__pal_size+0x52>
    37b8: 64 19        	stz	$19                     ; 0x19 <__rc9>
    37ba: a5 96        	lda	$96                     ; 0x96 <__pal_size+0x16>
    37bc: 29 ef        	and	#$ef
    37be: 85 96        	sta	$96                     ; 0x96 <__pal_size+0x16>
    37c0: 85 c5        	sta	$c5                     ; 0xc5 <__pal_size+0x45>
    37c2: a2 00        	ldx	#$0
    37c4: 86 c6        	stx	$c6                     ; 0xc6 <__pal_size+0x46>
    37c6: b2 12        	lda	($12)                   ; 0x12 <__rc2>
    37c8: a6 19        	ldx	$19                     ; 0x19 <__rc9>
    37ca: 86 14        	stx	$14                     ; 0x14 <__rc4>
    37cc: a6 12        	ldx	$12                     ; 0x12 <__rc2>
    37ce: 86 98        	stx	$98                     ; 0x98 <__pal_size+0x18>
    37d0: a6 13        	ldx	$13                     ; 0x13 <__rc3>
    37d2: 86 99        	stx	$99                     ; 0x99 <__pal_size+0x19>
    37d4: e6 98        	inc	$98                     ; 0x98 <__pal_size+0x18>
    37d6: d0 02        	bne	$37da <printf+0x370>
    37d8: e6 99        	inc	$99                     ; 0x99 <__pal_size+0x19>
    37da: 38           	sec
    37db: aa           	tax
    37dc: e9 6c        	sbc	#$6c
    37de: 50 02        	bvc	$37e2 <printf+0x378>
    37e0: 49 80        	eor	#$80
    37e2: c9 00        	cmp	#$0
    37e4: 10 28        	bpl	$380e <printf+0x3a4>
    37e6: e0 4c        	cpx	#$4c
    37e8: f0 4c        	beq	$3836 <printf+0x3cc>
    37ea: e0 68        	cpx	#$68
    37ec: d0 03        	bne	$37f1 <printf+0x387>
    37ee: 4c 71 38     	jmp	$3871 <printf+0x407>
    37f1: da           	phx
    37f2: 7a           	ply
    37f3: a9 01        	lda	#$1
    37f5: a6 9c        	ldx	$9c                     ; 0x9c <__pal_size+0x1c>
    37f7: 86 d9        	stx	$d9                     ; 0xd9 <__pal_size+0x59>
    37f9: a6 9d        	ldx	$9d                     ; 0x9d <__pal_size+0x1d>
    37fb: 86 da        	stx	$da                     ; 0xda <__pal_size+0x5a>
    37fd: a2 08        	ldx	#$8
    37ff: c0 6a        	cpy	#$6a
    3801: d0 2e        	bne	$3831 <printf+0x3c7>
    3803: a4 98        	ldy	$98                     ; 0x98 <__pal_size+0x18>
    3805: 84 12        	sty	$12                     ; 0x12 <__rc2>
    3807: a4 99        	ldy	$99                     ; 0x99 <__pal_size+0x19>
    3809: 84 13        	sty	$13                     ; 0x13 <__rc3>
    380b: 4c 6d 38     	jmp	$386d <printf+0x403>
    380e: e0 6c        	cpx	#$6c
    3810: f0 3b        	beq	$384d <printf+0x3e3>
    3812: e0 74        	cpx	#$74
    3814: d0 03        	bne	$3819 <printf+0x3af>
    3816: 4c 99 38     	jmp	$3899 <printf+0x42f>
    3819: da           	phx
    381a: 7a           	ply
    381b: a9 01        	lda	#$1
    381d: a6 9c        	ldx	$9c                     ; 0x9c <__pal_size+0x1c>
    381f: 86 d9        	stx	$d9                     ; 0xd9 <__pal_size+0x59>
    3821: a6 9d        	ldx	$9d                     ; 0x9d <__pal_size+0x1d>
    3823: 86 da        	stx	$da                     ; 0xda <__pal_size+0x5a>
    3825: c0 7a        	cpy	#$7a
    3827: d0 08        	bne	$3831 <printf+0x3c7>
    3829: a6 98        	ldx	$98                     ; 0x98 <__pal_size+0x18>
    382b: 86 12        	stx	$12                     ; 0x12 <__rc2>
    382d: a6 99        	ldx	$99                     ; 0x99 <__pal_size+0x19>
    382f: 86 13        	stx	$13                     ; 0x13 <__rc3>
    3831: a2 02        	ldx	#$2
    3833: 4c ac 38     	jmp	$38ac <printf+0x442>
    3836: a6 9c        	ldx	$9c                     ; 0x9c <__pal_size+0x1c>
    3838: 86 d9        	stx	$d9                     ; 0xd9 <__pal_size+0x59>
    383a: a6 9d        	ldx	$9d                     ; 0x9d <__pal_size+0x1d>
    383c: 86 da        	stx	$da                     ; 0xda <__pal_size+0x5a>
    383e: a5 96        	lda	$96                     ; 0x96 <__pal_size+0x16>
    3840: 09 40        	ora	#$40
    3842: 85 96        	sta	$96                     ; 0x96 <__pal_size+0x16>
    3844: 85 c5        	sta	$c5                     ; 0xc5 <__pal_size+0x45>
    3846: a2 00        	ldx	#$0
    3848: 86 c6        	stx	$c6                     ; 0xc6 <__pal_size+0x46>
    384a: 4c a1 38     	jmp	$38a1 <printf+0x437>
    384d: a6 9c        	ldx	$9c                     ; 0x9c <__pal_size+0x1c>
    384f: 86 d9        	stx	$d9                     ; 0xd9 <__pal_size+0x59>
    3851: a6 9d        	ldx	$9d                     ; 0x9d <__pal_size+0x1d>
    3853: 86 da        	stx	$da                     ; 0xda <__pal_size+0x5a>
    3855: b1 12        	lda	($12),y                 ; 0x12 <__rc2>
    3857: a2 04        	ldx	#$4
    3859: c9 6c        	cmp	#$6c
    385b: d0 38        	bne	$3895 <printf+0x42b>
    385d: a5 12        	lda	$12                     ; 0x12 <__rc2>
    385f: 18           	clc
    3860: 69 02        	adc	#$2
    3862: 85 12        	sta	$12                     ; 0x12 <__rc2>
    3864: a5 13        	lda	$13                     ; 0x13 <__rc3>
    3866: 69 00        	adc	#$0
    3868: 85 13        	sta	$13                     ; 0x13 <__rc3>
    386a: a2 08        	ldx	#$8
    386c: 98           	tya
    386d: a0 08        	ldy	#$8
    386f: 80 3d        	bra	$38ae <printf+0x444>
    3871: a6 9c        	ldx	$9c                     ; 0x9c <__pal_size+0x1c>
    3873: 86 d9        	stx	$d9                     ; 0xd9 <__pal_size+0x59>
    3875: a6 9d        	ldx	$9d                     ; 0x9d <__pal_size+0x1d>
    3877: 86 da        	stx	$da                     ; 0xda <__pal_size+0x5a>
    3879: b1 12        	lda	($12),y                 ; 0x12 <__rc2>
    387b: a2 02        	ldx	#$2
    387d: c9 68        	cmp	#$68
    387f: d0 14        	bne	$3895 <printf+0x42b>
    3881: a5 12        	lda	$12                     ; 0x12 <__rc2>
    3883: 18           	clc
    3884: 69 02        	adc	#$2
    3886: 85 12        	sta	$12                     ; 0x12 <__rc2>
    3888: a5 13        	lda	$13                     ; 0x13 <__rc3>
    388a: 69 00        	adc	#$0
    388c: 85 13        	sta	$13                     ; 0x13 <__rc3>
    388e: a2 01        	ldx	#$1
    3890: 86 97        	stx	$97                     ; 0x97 <__pal_size+0x17>
    3892: e8           	inx
    3893: 80 1c        	bra	$38b1 <printf+0x447>
    3895: 86 97        	stx	$97                     ; 0x97 <__pal_size+0x17>
    3897: 80 24        	bra	$38bd <printf+0x453>
    3899: a6 9c        	ldx	$9c                     ; 0x9c <__pal_size+0x1c>
    389b: 86 d9        	stx	$d9                     ; 0xd9 <__pal_size+0x59>
    389d: a6 9d        	ldx	$9d                     ; 0x9d <__pal_size+0x1d>
    389f: 86 da        	stx	$da                     ; 0xda <__pal_size+0x5a>
    38a1: a6 98        	ldx	$98                     ; 0x98 <__pal_size+0x18>
    38a3: 86 12        	stx	$12                     ; 0x12 <__rc2>
    38a5: a6 99        	ldx	$99                     ; 0x99 <__pal_size+0x19>
    38a7: 86 13        	stx	$13                     ; 0x13 <__rc3>
    38a9: a2 02        	ldx	#$2
    38ab: 98           	tya
    38ac: a0 02        	ldy	#$2
    38ae: 84 97        	sty	$97                     ; 0x97 <__pal_size+0x17>
    38b0: a8           	tay
    38b1: b2 12        	lda	($12)                   ; 0x12 <__rc2>
    38b3: 5a           	phy
    38b4: a4 12        	ldy	$12                     ; 0x12 <__rc2>
    38b6: 84 98        	sty	$98                     ; 0x98 <__pal_size+0x18>
    38b8: a4 13        	ldy	$13                     ; 0x13 <__rc3>
    38ba: 84 99        	sty	$99                     ; 0x99 <__pal_size+0x19>
    38bc: 7a           	ply
    38bd: 86 9e        	stx	$9e                     ; 0x9e <__pal_size+0x1e>
    38bf: aa           	tax
    38c0: 18           	clc
    38c1: 69 9d        	adc	#$9d
    38c3: c9 16        	cmp	#$16
    38c5: b0 1a        	bcs	$38e1 <printf+0x477>
    38c7: 0a           	asl
    38c8: aa           	tax
    38c9: 7c b9 48     	jmp	($48b9,x)               ; 0x48b9 <__BLOCK_SIZE+0x28b9>
    38cc: a6 14        	ldx	$14                     ; 0x14 <__rc4>
    38ce: 86 dd        	stx	$dd                     ; 0xdd <__pal_size+0x5d>
    38d0: a6 18        	ldx	$18                     ; 0x18 <__rc8>
    38d2: 86 de        	stx	$de                     ; 0xde <__pal_size+0x5e>
    38d4: a0 0a        	ldy	#$a
    38d6: a2 0a        	ldx	#$a
    38d8: 86 94        	stx	$94                     ; 0x94 <__pal_size+0x14>
    38da: 84 c4        	sty	$c4                     ; 0xc4 <__pal_size+0x44>
    38dc: 64 9f        	stz	$9f                     ; 0x9f <__pal_size+0x1f>
    38de: 4c e6 39     	jmp	$39e6 <printf+0x57c>
    38e1: e0 58        	cpx	#$58
    38e3: f0 03        	beq	$38e8 <printf+0x47e>
    38e5: 4c 97 41     	jmp	$4197 <printf+0xd2d>
    38e8: a6 14        	ldx	$14                     ; 0x14 <__rc4>
    38ea: 86 dd        	stx	$dd                     ; 0xdd <__pal_size+0x5d>
    38ec: a6 18        	ldx	$18                     ; 0x18 <__rc8>
    38ee: 86 de        	stx	$de                     ; 0xde <__pal_size+0x5e>
    38f0: a2 10        	ldx	#$10
    38f2: 86 c4        	stx	$c4                     ; 0xc4 <__pal_size+0x44>
    38f4: a9 00        	lda	#$0
    38f6: 09 01        	ora	#$1
    38f8: a6 96        	ldx	$96                     ; 0x96 <__pal_size+0x16>
    38fa: 80 29        	bra	$3925 <printf+0x4bb>
    38fc: a6 14        	ldx	$14                     ; 0x14 <__rc4>
    38fe: 86 dd        	stx	$dd                     ; 0xdd <__pal_size+0x5d>
    3900: a6 18        	ldx	$18                     ; 0x18 <__rc8>
    3902: 86 de        	stx	$de                     ; 0xde <__pal_size+0x5e>
    3904: a2 10        	ldx	#$10
    3906: 86 c4        	stx	$c4                     ; 0xc4 <__pal_size+0x44>
    3908: a5 96        	lda	$96                     ; 0x96 <__pal_size+0x16>
    390a: 09 84        	ora	#$84
    390c: 80 10        	bra	$391e <printf+0x4b4>
    390e: a6 14        	ldx	$14                     ; 0x14 <__rc4>
    3910: 86 dd        	stx	$dd                     ; 0xdd <__pal_size+0x5d>
    3912: a6 18        	ldx	$18                     ; 0x18 <__rc8>
    3914: 86 de        	stx	$de                     ; 0xde <__pal_size+0x5e>
    3916: a2 10        	ldx	#$10
    3918: 86 c4        	stx	$c4                     ; 0xc4 <__pal_size+0x44>
    391a: a5 96        	lda	$96                     ; 0x96 <__pal_size+0x16>
    391c: 09 80        	ora	#$80
    391e: aa           	tax
    391f: a9 00        	lda	#$0
    3921: 09 01        	ora	#$1
    3923: 86 96        	stx	$96                     ; 0x96 <__pal_size+0x16>
    3925: 86 c5        	stx	$c5                     ; 0xc5 <__pal_size+0x45>
    3927: 85 9f        	sta	$9f                     ; 0x9f <__pal_size+0x1f>
    3929: 85 c6        	sta	$c6                     ; 0xc6 <__pal_size+0x46>
    392b: a2 10        	ldx	#$10
    392d: 86 94        	stx	$94                     ; 0x94 <__pal_size+0x14>
    392f: 4c e6 39     	jmp	$39e6 <printf+0x57c>
    3932: a5 d5        	lda	$d5                     ; 0xd5 <__pal_size+0x55>
    3934: a6 d6        	ldx	$d6                     ; 0xd6 <__pal_size+0x56>
    3936: 85 12        	sta	$12                     ; 0x12 <__rc2>
    3938: 86 13        	stx	$13                     ; 0x13 <__rc3>
    393a: 18           	clc
    393b: 69 02        	adc	#$2
    393d: 85 14        	sta	$14                     ; 0x14 <__rc4>
    393f: 8a           	txa
    3940: 69 00        	adc	#$0
    3942: a6 14        	ldx	$14                     ; 0x14 <__rc4>
    3944: 86 d5        	stx	$d5                     ; 0xd5 <__pal_size+0x55>
    3946: 85 d6        	sta	$d6                     ; 0xd6 <__pal_size+0x56>
    3948: b2 12        	lda	($12)                   ; 0x12 <__rc2>
    394a: aa           	tax
    394b: b1 12        	lda	($12),y                 ; 0x12 <__rc2>
    394d: 86 12        	stx	$12                     ; 0x12 <__rc2>
    394f: 85 13        	sta	$13                     ; 0x13 <__rc3>
    3951: a5 c9        	lda	$c9                     ; 0xc9 <__pal_size+0x49>
    3953: a6 ca        	ldx	$ca                     ; 0xca <__pal_size+0x4a>
    3955: 92 12        	sta	($12)                   ; 0x12 <__rc2>
    3957: 8a           	txa
    3958: 91 12        	sta	($12),y                 ; 0x12 <__rc2>
    395a: 4c bf 39     	jmp	$39bf <printf+0x555>
    395d: a5 d5        	lda	$d5                     ; 0xd5 <__pal_size+0x55>
    395f: a6 d6        	ldx	$d6                     ; 0xd6 <__pal_size+0x56>
    3961: 85 12        	sta	$12                     ; 0x12 <__rc2>
    3963: 86 13        	stx	$13                     ; 0x13 <__rc3>
    3965: 18           	clc
    3966: 69 02        	adc	#$2
    3968: 85 14        	sta	$14                     ; 0x14 <__rc4>
    396a: 8a           	txa
    396b: 69 00        	adc	#$0
    396d: a6 14        	ldx	$14                     ; 0x14 <__rc4>
    396f: 86 d5        	stx	$d5                     ; 0xd5 <__pal_size+0x55>
    3971: 85 d6        	sta	$d6                     ; 0xd6 <__pal_size+0x56>
    3973: b2 12        	lda	($12)                   ; 0x12 <__rc2>
    3975: aa           	tax
    3976: b1 12        	lda	($12),y                 ; 0x12 <__rc2>
    3978: 86 12        	stx	$12                     ; 0x12 <__rc2>
    397a: 85 13        	sta	$13                     ; 0x13 <__rc3>
    397c: 80 32        	bra	$39b0 <printf+0x546>
    397e: a6 14        	ldx	$14                     ; 0x14 <__rc4>
    3980: 86 dd        	stx	$dd                     ; 0xdd <__pal_size+0x5d>
    3982: a6 18        	ldx	$18                     ; 0x18 <__rc8>
    3984: 86 de        	stx	$de                     ; 0xde <__pal_size+0x5e>
    3986: a0 08        	ldy	#$8
    3988: a2 08        	ldx	#$8
    398a: 80 4a        	bra	$39d6 <printf+0x56c>
    398c: a5 d5        	lda	$d5                     ; 0xd5 <__pal_size+0x55>
    398e: a6 d6        	ldx	$d6                     ; 0xd6 <__pal_size+0x56>
    3990: 85 12        	sta	$12                     ; 0x12 <__rc2>
    3992: 86 13        	stx	$13                     ; 0x13 <__rc3>
    3994: 18           	clc
    3995: 69 02        	adc	#$2
    3997: 85 14        	sta	$14                     ; 0x14 <__rc4>
    3999: 8a           	txa
    399a: 69 00        	adc	#$0
    399c: a6 14        	ldx	$14                     ; 0x14 <__rc4>
    399e: 86 d5        	stx	$d5                     ; 0xd5 <__pal_size+0x55>
    39a0: 85 d6        	sta	$d6                     ; 0xd6 <__pal_size+0x56>
    39a2: b2 12        	lda	($12)                   ; 0x12 <__rc2>
    39a4: 85 b7        	sta	$b7                     ; 0xb7 <__pal_size+0x37>
    39a6: 64 b8        	stz	$b8                     ; 0xb8 <__pal_size+0x38>
    39a8: a2 b7        	ldx	#$b7
    39aa: 86 12        	stx	$12                     ; 0x12 <__rc2>
    39ac: a2 00        	ldx	#$0
    39ae: 86 13        	stx	$13                     ; 0x13 <__rc3>
    39b0: a2 c4        	ldx	#$c4
    39b2: 86 14        	stx	$14                     ; 0x14 <__rc4>
    39b4: a2 00        	ldx	#$0
    39b6: 86 15        	stx	$15                     ; 0x15 <__rc5>
    39b8: 84 9a        	sty	$9a                     ; 0x9a <__pal_size+0x1a>
    39ba: 20 5b 33     	jsr	$335b <_ZN12_GLOBAL__N_112print_stringEPKcP6Status>
    39bd: a4 9a        	ldy	$9a                     ; 0x9a <__pal_size+0x1a>
    39bf: a6 d9        	ldx	$d9                     ; 0xd9 <__pal_size+0x59>
    39c1: 86 94        	stx	$94                     ; 0x94 <__pal_size+0x14>
    39c3: a6 da        	ldx	$da                     ; 0xda <__pal_size+0x5a>
    39c5: 86 95        	stx	$95                     ; 0x95 <__pal_size+0x15>
    39c7: 4c 77 41     	jmp	$4177 <printf+0xd0d>
    39ca: a6 14        	ldx	$14                     ; 0x14 <__rc4>
    39cc: 86 dd        	stx	$dd                     ; 0xdd <__pal_size+0x5d>
    39ce: a6 18        	ldx	$18                     ; 0x18 <__rc8>
    39d0: 86 de        	stx	$de                     ; 0xde <__pal_size+0x5e>
    39d2: a0 0a        	ldy	#$a
    39d4: a2 0a        	ldx	#$a
    39d6: 86 94        	stx	$94                     ; 0x94 <__pal_size+0x14>
    39d8: 84 c4        	sty	$c4                     ; 0xc4 <__pal_size+0x44>
    39da: a9 00        	lda	#$0
    39dc: 09 01        	ora	#$1
    39de: a6 96        	ldx	$96                     ; 0x96 <__pal_size+0x16>
    39e0: 86 c5        	stx	$c5                     ; 0xc5 <__pal_size+0x45>
    39e2: 85 9f        	sta	$9f                     ; 0x9f <__pal_size+0x1f>
    39e4: 85 c6        	sta	$c6                     ; 0xc6 <__pal_size+0x46>
    39e6: a5 97        	lda	$97                     ; 0x97 <__pal_size+0x17>
    39e8: 85 b9        	sta	$b9                     ; 0xb9 <__pal_size+0x39>
    39ea: a4 d5        	ldy	$d5                     ; 0xd5 <__pal_size+0x55>
    39ec: a6 d6        	ldx	$d6                     ; 0xd6 <__pal_size+0x56>
    39ee: 86 9c        	stx	$9c                     ; 0x9c <__pal_size+0x1c>
    39f0: 84 14        	sty	$14                     ; 0x14 <__rc4>
    39f2: 84 95        	sty	$95                     ; 0x95 <__pal_size+0x15>
    39f4: 86 15        	stx	$15                     ; 0x15 <__rc5>
    39f6: a6 db        	ldx	$db                     ; 0xdb <__pal_size+0x5b>
    39f8: 86 12        	stx	$12                     ; 0x12 <__rc2>
    39fa: a6 dc        	ldx	$dc                     ; 0xdc <__pal_size+0x5c>
    39fc: 86 13        	stx	$13                     ; 0x13 <__rc3>
    39fe: a2 00        	ldx	#$0
    3a00: 85 9d        	sta	$9d                     ; 0x9d <__pal_size+0x1d>
    3a02: 20 c2 43     	jsr	$43c2 <memcpy>
    3a05: 18           	clc
    3a06: a5 95        	lda	$95                     ; 0x95 <__pal_size+0x15>
    3a08: 65 9e        	adc	$9e                     ; 0x9e <__pal_size+0x1e>
    3a0a: aa           	tax
    3a0b: a5 9c        	lda	$9c                     ; 0x9c <__pal_size+0x1c>
    3a0d: 69 00        	adc	#$0
    3a0f: 86 d5        	stx	$d5                     ; 0xd5 <__pal_size+0x55>
    3a11: 85 d6        	sta	$d6                     ; 0xd6 <__pal_size+0x56>
    3a13: a5 9f        	lda	$9f                     ; 0x9f <__pal_size+0x1f>
    3a15: 29 01        	and	#$1
    3a17: a0 00        	ldy	#$0
    3a19: aa           	tax
    3a1a: d0 4e        	bne	$3a6a <printf+0x600>
    3a1c: a6 9d        	ldx	$9d                     ; 0x9d <__pal_size+0x1d>
    3a1e: b5 b9        	lda	$b9,x                   ; 0xb9 <__pal_size+0x39>
    3a20: aa           	tax
    3a21: a5 9b        	lda	$9b                     ; 0x9b <__pal_size+0x1b>
    3a23: 85 17        	sta	$17                     ; 0x17 <__rc7>
    3a25: a5 9a        	lda	$9a                     ; 0x9a <__pal_size+0x1a>
    3a27: 85 1a        	sta	$1a                     ; 0x1a <__rc10>
    3a29: a5 de        	lda	$de                     ; 0xde <__pal_size+0x5e>
    3a2b: 85 9a        	sta	$9a                     ; 0x9a <__pal_size+0x1a>
    3a2d: a5 dd        	lda	$dd                     ; 0xdd <__pal_size+0x5d>
    3a2f: 85 9b        	sta	$9b                     ; 0x9b <__pal_size+0x1b>
    3a31: 8a           	txa
    3a32: 10 46        	bpl	$3a7a <printf+0x610>
    3a34: a2 00        	ldx	#$0
    3a36: 64 12        	stz	$12                     ; 0x12 <__rc2>
    3a38: a9 00        	lda	#$0
    3a3a: 38           	sec
    3a3b: f5 ba        	sbc	$ba,x                   ; 0xba <__pal_size+0x3a>
    3a3d: a0 01        	ldy	#$1
    3a3f: 84 14        	sty	$14                     ; 0x14 <__rc4>
    3a41: 88           	dey
    3a42: b0 02        	bcs	$3a46 <printf+0x5dc>
    3a44: a0 01        	ldy	#$1
    3a46: 38           	sec
    3a47: e5 12        	sbc	$12                     ; 0x12 <__rc2>
    3a49: 85 13        	sta	$13                     ; 0x13 <__rc3>
    3a4b: 64 12        	stz	$12                     ; 0x12 <__rc2>
    3a4d: b0 04        	bcs	$3a53 <printf+0x5e9>
    3a4f: a5 14        	lda	$14                     ; 0x14 <__rc4>
    3a51: 85 12        	sta	$12                     ; 0x12 <__rc2>
    3a53: 98           	tya
    3a54: 05 12        	ora	$12                     ; 0x12 <__rc2>
    3a56: 85 12        	sta	$12                     ; 0x12 <__rc2>
    3a58: a5 13        	lda	$13                     ; 0x13 <__rc3>
    3a5a: 9d ba 00     	sta	$ba,x                   ; 0xba <__pal_size+0x3a>
    3a5d: e8           	inx
    3a5e: 86 13        	stx	$13                     ; 0x13 <__rc3>
    3a60: a4 97        	ldy	$97                     ; 0x97 <__pal_size+0x17>
    3a62: c4 13        	cpy	$13                     ; 0x13 <__rc3>
    3a64: d0 d2        	bne	$3a38 <printf+0x5ce>
    3a66: a0 01        	ldy	#$1
    3a68: 80 10        	bra	$3a7a <printf+0x610>
    3a6a: a6 9b        	ldx	$9b                     ; 0x9b <__pal_size+0x1b>
    3a6c: 86 17        	stx	$17                     ; 0x17 <__rc7>
    3a6e: a6 9a        	ldx	$9a                     ; 0x9a <__pal_size+0x1a>
    3a70: 86 1a        	stx	$1a                     ; 0x1a <__rc10>
    3a72: a6 de        	ldx	$de                     ; 0xde <__pal_size+0x5e>
    3a74: 86 9a        	stx	$9a                     ; 0x9a <__pal_size+0x1a>
    3a76: a6 dd        	ldx	$dd                     ; 0xdd <__pal_size+0x5d>
    3a78: 86 9b        	stx	$9b                     ; 0x9b <__pal_size+0x1b>
    3a7a: 84 18        	sty	$18                     ; 0x18 <__rc8>
    3a7c: a5 97        	lda	$97                     ; 0x97 <__pal_size+0x17>
    3a7e: 0a           	asl
    3a7f: 0a           	asl
    3a80: 0a           	asl
    3a81: 85 12        	sta	$12                     ; 0x12 <__rc2>
    3a83: a2 00        	ldx	#$0
    3a85: 8a           	txa
    3a86: 4c 3d 3b     	jmp	$3b3d <printf+0x6d3>
    3a89: a4 13        	ldy	$13                     ; 0x13 <__rc3>
    3a8b: 99 a2 00     	sta	$a2,y                   ; 0xa2 <__pal_size+0x22>
    3a8e: a4 15        	ldy	$15                     ; 0x15 <__rc5>
    3a90: c4 13        	cpy	$13                     ; 0x13 <__rc3>
    3a92: f0 38        	beq	$3acc <printf+0x662>
    3a94: e6 13        	inc	$13                     ; 0x13 <__rc3>
    3a96: a4 13        	ldy	$13                     ; 0x13 <__rc3>
    3a98: b9 a2 00     	lda	$a2,y                   ; 0xa2 <__pal_size+0x22>
    3a9b: 0a           	asl
    3a9c: e0 00        	cpx	#$0
    3a9e: f0 02        	beq	$3aa2 <printf+0x638>
    3aa0: 09 01        	ora	#$1
    3aa2: a4 94        	ldy	$94                     ; 0x94 <__pal_size+0x14>
    3aa4: 84 14        	sty	$14                     ; 0x14 <__rc4>
    3aa6: c5 14        	cmp	$14                     ; 0x14 <__rc4>
    3aa8: a2 01        	ldx	#$1
    3aaa: b0 02        	bcs	$3aae <printf+0x644>
    3aac: a2 00        	ldx	#$0
    3aae: 90 d9        	bcc	$3a89 <printf+0x61f>
    3ab0: 84 14        	sty	$14                     ; 0x14 <__rc4>
    3ab2: 38           	sec
    3ab3: e5 14        	sbc	$14                     ; 0x14 <__rc4>
    3ab5: a4 13        	ldy	$13                     ; 0x13 <__rc3>
    3ab7: 99 a2 00     	sta	$a2,y                   ; 0xa2 <__pal_size+0x22>
    3aba: a4 15        	ldy	$15                     ; 0x15 <__rc5>
    3abc: c4 13        	cpy	$13                     ; 0x13 <__rc3>
    3abe: d0 d4        	bne	$3a94 <printf+0x62a>
    3ac0: a4 95        	ldy	$95                     ; 0x95 <__pal_size+0x15>
    3ac2: a6 95        	ldx	$95                     ; 0x95 <__pal_size+0x15>
    3ac4: e8           	inx
    3ac5: a9 01        	lda	#$1
    3ac7: 99 a2 00     	sta	$a2,y                   ; 0xa2 <__pal_size+0x22>
    3aca: 86 95        	stx	$95                     ; 0x95 <__pal_size+0x15>
    3acc: a6 97        	ldx	$97                     ; 0x97 <__pal_size+0x17>
    3ace: b5 b9        	lda	$b9,x                   ; 0xb9 <__pal_size+0x39>
    3ad0: aa           	tax
    3ad1: 10 41        	bpl	$3b14 <printf+0x6aa>
    3ad3: a5 95        	lda	$95                     ; 0x95 <__pal_size+0x15>
    3ad5: f0 2f        	beq	$3b06 <printf+0x69c>
    3ad7: a2 00        	ldx	#$0
    3ad9: a4 94        	ldy	$94                     ; 0x94 <__pal_size+0x14>
    3adb: 84 14        	sty	$14                     ; 0x14 <__rc4>
    3add: b5 a2        	lda	$a2,x                   ; 0xa2 <__pal_size+0x22>
    3adf: 1a           	inc
    3ae0: f6 a2        	inc	$a2,x                   ; 0xa2 <__pal_size+0x22>
    3ae2: c5 14        	cmp	$14                     ; 0x14 <__rc4>
    3ae4: 90 2e        	bcc	$3b14 <printf+0x6aa>
    3ae6: a4 94        	ldy	$94                     ; 0x94 <__pal_size+0x14>
    3ae8: 84 13        	sty	$13                     ; 0x13 <__rc3>
    3aea: 38           	sec
    3aeb: e5 13        	sbc	$13                     ; 0x13 <__rc3>
    3aed: 9d a2 00     	sta	$a2,x                   ; 0xa2 <__pal_size+0x22>
    3af0: e8           	inx
    3af1: 86 13        	stx	$13                     ; 0x13 <__rc3>
    3af3: a4 95        	ldy	$95                     ; 0x95 <__pal_size+0x15>
    3af5: c4 13        	cpy	$13                     ; 0x13 <__rc3>
    3af7: d0 e4        	bne	$3add <printf+0x673>
    3af9: 80 0d        	bra	$3b08 <printf+0x69e>
    3afb: a6 97        	ldx	$97                     ; 0x97 <__pal_size+0x17>
    3afd: b5 b9        	lda	$b9,x                   ; 0xb9 <__pal_size+0x39>
    3aff: aa           	tax
    3b00: 64 95        	stz	$95                     ; 0x95 <__pal_size+0x15>
    3b02: 30 04        	bmi	$3b08 <printf+0x69e>
    3b04: 80 0e        	bra	$3b14 <printf+0x6aa>
    3b06: 64 95        	stz	$95                     ; 0x95 <__pal_size+0x15>
    3b08: a4 95        	ldy	$95                     ; 0x95 <__pal_size+0x15>
    3b0a: a6 95        	ldx	$95                     ; 0x95 <__pal_size+0x15>
    3b0c: e8           	inx
    3b0d: a9 01        	lda	#$1
    3b0f: 99 a2 00     	sta	$a2,y                   ; 0xa2 <__pal_size+0x22>
    3b12: 86 95        	stx	$95                     ; 0x95 <__pal_size+0x15>
    3b14: a2 01        	ldx	#$1
    3b16: 86 16        	stx	$16                     ; 0x16 <__rc6>
    3b18: 64 13        	stz	$13                     ; 0x13 <__rc3>
    3b1a: ca           	dex
    3b1b: a4 97        	ldy	$97                     ; 0x97 <__pal_size+0x17>
    3b1d: b5 ba        	lda	$ba,x                   ; 0xba <__pal_size+0x3a>
    3b1f: 0a           	asl
    3b20: 64 14        	stz	$14                     ; 0x14 <__rc4>
    3b22: 26 14        	rol	$14                     ; 0x14 <__rc4>
    3b24: 05 13        	ora	$13                     ; 0x13 <__rc3>
    3b26: 9d ba 00     	sta	$ba,x                   ; 0xba <__pal_size+0x3a>
    3b29: e8           	inx
    3b2a: 86 15        	stx	$15                     ; 0x15 <__rc5>
    3b2c: a5 14        	lda	$14                     ; 0x14 <__rc4>
    3b2e: 85 13        	sta	$13                     ; 0x13 <__rc3>
    3b30: c4 15        	cpy	$15                     ; 0x15 <__rc5>
    3b32: d0 e9        	bne	$3b1d <printf+0x6b3>
    3b34: a5 19        	lda	$19                     ; 0x19 <__rc9>
    3b36: 1a           	inc
    3b37: c5 12        	cmp	$12                     ; 0x12 <__rc2>
    3b39: a6 95        	ldx	$95                     ; 0x95 <__pal_size+0x15>
    3b3b: b0 12        	bcs	$3b4f <printf+0x6e5>
    3b3d: 85 19        	sta	$19                     ; 0x19 <__rc9>
    3b3f: 8a           	txa
    3b40: f0 b9        	beq	$3afb <printf+0x691>
    3b42: 8a           	txa
    3b43: 86 95        	stx	$95                     ; 0x95 <__pal_size+0x15>
    3b45: 3a           	dec
    3b46: 85 15        	sta	$15                     ; 0x15 <__rc5>
    3b48: a2 00        	ldx	#$0
    3b4a: 64 13        	stz	$13                     ; 0x13 <__rc3>
    3b4c: 4c 96 3a     	jmp	$3a96 <printf+0x62c>
    3b4f: a4 16        	ldy	$16                     ; 0x16 <__rc6>
    3b51: a5 9b        	lda	$9b                     ; 0x9b <__pal_size+0x1b>
    3b53: 10 08        	bpl	$3b5d <printf+0x6f3>
    3b55: a2 01        	ldx	#$1
    3b57: 64 9b        	stz	$9b                     ; 0x9b <__pal_size+0x1b>
    3b59: 86 9a        	stx	$9a                     ; 0x9a <__pal_size+0x1a>
    3b5b: a6 95        	ldx	$95                     ; 0x95 <__pal_size+0x15>
    3b5d: a5 d9        	lda	$d9                     ; 0xd9 <__pal_size+0x59>
    3b5f: 85 9c        	sta	$9c                     ; 0x9c <__pal_size+0x1c>
    3b61: a5 da        	lda	$da                     ; 0xda <__pal_size+0x5a>
    3b63: 85 9d        	sta	$9d                     ; 0x9d <__pal_size+0x1d>
    3b65: a5 9c        	lda	$9c                     ; 0x9c <__pal_size+0x1c>
    3b67: 85 d9        	sta	$d9                     ; 0xd9 <__pal_size+0x59>
    3b69: a5 9d        	lda	$9d                     ; 0x9d <__pal_size+0x1d>
    3b6b: 85 da        	sta	$da                     ; 0xda <__pal_size+0x5a>
    3b6d: a5 96        	lda	$96                     ; 0x96 <__pal_size+0x16>
    3b6f: 29 04        	and	#$4
    3b71: f0 2b        	beq	$3b9e <printf+0x734>
    3b73: a5 94        	lda	$94                     ; 0x94 <__pal_size+0x14>
    3b75: c9 10        	cmp	#$10
    3b77: f0 14        	beq	$3b8d <printf+0x723>
    3b79: c9 08        	cmp	#$8
    3b7b: d0 21        	bne	$3b9e <printf+0x734>
    3b7d: a2 00        	ldx	#$0
    3b7f: e4 9b        	cpx	$9b                     ; 0x9b <__pal_size+0x1b>
    3b81: f0 03        	beq	$3b86 <printf+0x71c>
    3b83: 4c a4 41     	jmp	$41a4 <printf+0xd3a>
    3b86: a6 95        	ldx	$95                     ; 0x95 <__pal_size+0x15>
    3b88: e4 9a        	cpx	$9a                     ; 0x9a <__pal_size+0x1a>
    3b8a: 4c a6 41     	jmp	$41a6 <printf+0xd3c>
    3b8d: 8a           	txa
    3b8e: f0 0e        	beq	$3b9e <printf+0x734>
    3b90: a5 96        	lda	$96                     ; 0x96 <__pal_size+0x16>
    3b92: 29 80        	and	#$80
    3b94: d0 03        	bne	$3b99 <printf+0x72f>
    3b96: 4c bf 41     	jmp	$41bf <printf+0xd55>
    3b99: a2 78        	ldx	#$78
    3b9b: 4c c1 41     	jmp	$41c1 <printf+0xd57>
    3b9e: a6 96        	ldx	$96                     ; 0x96 <__pal_size+0x16>
    3ba0: a9 2d        	lda	#$2d
    3ba2: e6 18        	inc	$18                     ; 0x18 <__rc8>
    3ba4: c6 18        	dec	$18                     ; 0x18 <__rc8>
    3ba6: f0 04        	beq	$3bac <printf+0x742>
    3ba8: 85 94        	sta	$94                     ; 0x94 <__pal_size+0x14>
    3baa: 80 20        	bra	$3bcc <printf+0x762>
    3bac: 86 12        	stx	$12                     ; 0x12 <__rc2>
    3bae: 8a           	txa
    3baf: 29 02        	and	#$2
    3bb1: a2 2b        	ldx	#$2b
    3bb3: c9 00        	cmp	#$0
    3bb5: d0 13        	bne	$3bca <printf+0x760>
    3bb7: a5 12        	lda	$12                     ; 0x12 <__rc2>
    3bb9: 29 08        	and	#$8
    3bbb: d0 0b        	bne	$3bc8 <printf+0x75e>
    3bbd: a2 01        	ldx	#$1
    3bbf: 86 9d        	stx	$9d                     ; 0x9d <__pal_size+0x1d>
    3bc1: a9 00        	lda	#$0
    3bc3: aa           	tax
    3bc4: 86 97        	stx	$97                     ; 0x97 <__pal_size+0x17>
    3bc6: 80 0b        	bra	$3bd3 <printf+0x769>
    3bc8: a2 20        	ldx	#$20
    3bca: 86 94        	stx	$94                     ; 0x94 <__pal_size+0x14>
    3bcc: a2 00        	ldx	#$0
    3bce: 86 9d        	stx	$9d                     ; 0x9d <__pal_size+0x1d>
    3bd0: 86 97        	stx	$97                     ; 0x97 <__pal_size+0x17>
    3bd2: 98           	tya
    3bd3: a6 9b        	ldx	$9b                     ; 0x9b <__pal_size+0x1b>
    3bd5: d0 06        	bne	$3bdd <printf+0x773>
    3bd7: a6 9a        	ldx	$9a                     ; 0x9a <__pal_size+0x1a>
    3bd9: e4 95        	cpx	$95                     ; 0x95 <__pal_size+0x15>
    3bdb: 80 04        	bra	$3be1 <printf+0x777>
    3bdd: a6 9b        	ldx	$9b                     ; 0x9b <__pal_size+0x1b>
    3bdf: e0 00        	cpx	#$0
    3be1: a6 9a        	ldx	$9a                     ; 0x9a <__pal_size+0x1a>
    3be3: 86 12        	stx	$12                     ; 0x12 <__rc2>
    3be5: a6 9b        	ldx	$9b                     ; 0x9b <__pal_size+0x1b>
    3be7: 86 13        	stx	$13                     ; 0x13 <__rc3>
    3be9: b0 06        	bcs	$3bf1 <printf+0x787>
    3beb: a6 95        	ldx	$95                     ; 0x95 <__pal_size+0x15>
    3bed: 86 12        	stx	$12                     ; 0x12 <__rc2>
    3bef: 64 13        	stz	$13                     ; 0x13 <__rc3>
    3bf1: 85 18        	sta	$18                     ; 0x18 <__rc8>
    3bf3: 18           	clc
    3bf4: 65 12        	adc	$12                     ; 0x12 <__rc2>
    3bf6: aa           	tax
    3bf7: 85 14        	sta	$14                     ; 0x14 <__rc4>
    3bf9: a5 13        	lda	$13                     ; 0x13 <__rc3>
    3bfb: 69 00        	adc	#$0
    3bfd: 85 15        	sta	$15                     ; 0x15 <__rc5>
    3bff: c5 1a        	cmp	$1a                     ; 0x1a <__rc10>
    3c01: d0 08        	bne	$3c0b <printf+0x7a1>
    3c03: a5 1a        	lda	$1a                     ; 0x1a <__rc10>
    3c05: 85 16        	sta	$16                     ; 0x16 <__rc6>
    3c07: e4 17        	cpx	$17                     ; 0x17 <__rc7>
    3c09: 80 06        	bra	$3c11 <printf+0x7a7>
    3c0b: a6 1a        	ldx	$1a                     ; 0x1a <__rc10>
    3c0d: 86 16        	stx	$16                     ; 0x16 <__rc6>
    3c0f: c5 1a        	cmp	$1a                     ; 0x1a <__rc10>
    3c11: 64 9e        	stz	$9e                     ; 0x9e <__pal_size+0x1e>
    3c13: 64 9f        	stz	$9f                     ; 0x9f <__pal_size+0x1f>
    3c15: a6 95        	ldx	$95                     ; 0x95 <__pal_size+0x15>
    3c17: 90 03        	bcc	$3c1c <printf+0x7b2>
    3c19: 4c e0 3c     	jmp	$3ce0 <printf+0x876>
    3c1c: a5 96        	lda	$96                     ; 0x96 <__pal_size+0x16>
    3c1e: 29 11        	and	#$11
    3c20: f0 10        	beq	$3c32 <printf+0x7c8>
    3c22: a5 17        	lda	$17                     ; 0x17 <__rc7>
    3c24: 38           	sec
    3c25: e5 14        	sbc	$14                     ; 0x14 <__rc4>
    3c27: 85 9e        	sta	$9e                     ; 0x9e <__pal_size+0x1e>
    3c29: a5 1a        	lda	$1a                     ; 0x1a <__rc10>
    3c2b: e5 15        	sbc	$15                     ; 0x15 <__rc5>
    3c2d: 85 9f        	sta	$9f                     ; 0x9f <__pal_size+0x1f>
    3c2f: 4c e0 3c     	jmp	$3ce0 <printf+0x876>
    3c32: a6 c9        	ldx	$c9                     ; 0xc9 <__pal_size+0x49>
    3c34: 86 15        	stx	$15                     ; 0x15 <__rc5>
    3c36: 38           	sec
    3c37: a5 18        	lda	$18                     ; 0x18 <__rc8>
    3c39: e5 17        	sbc	$17                     ; 0x17 <__rc7>
    3c3b: aa           	tax
    3c3c: a9 00        	lda	#$0
    3c3e: e5 16        	sbc	$16                     ; 0x16 <__rc6>
    3c40: 85 14        	sta	$14                     ; 0x14 <__rc4>
    3c42: 18           	clc
    3c43: 8a           	txa
    3c44: 65 12        	adc	$12                     ; 0x12 <__rc2>
    3c46: 85 96        	sta	$96                     ; 0x96 <__pal_size+0x16>
    3c48: a5 14        	lda	$14                     ; 0x14 <__rc4>
    3c4a: 65 13        	adc	$13                     ; 0x13 <__rc3>
    3c4c: 85 9e        	sta	$9e                     ; 0x9e <__pal_size+0x1e>
    3c4e: a5 ca        	lda	$ca                     ; 0xca <__pal_size+0x4a>
    3c50: 4c c8 3c     	jmp	$3cc8 <printf+0x85e>
    3c53: c5 c8        	cmp	$c8                     ; 0xc8 <__pal_size+0x48>
    3c55: a6 9e        	ldx	$9e                     ; 0x9e <__pal_size+0x1e>
    3c57: 86 12        	stx	$12                     ; 0x12 <__rc2>
    3c59: b0 46        	bcs	$3ca1 <printf+0x837>
    3c5b: a2 01        	ldx	#$1
    3c5d: 86 14        	stx	$14                     ; 0x14 <__rc4>
    3c5f: a6 d4        	ldx	$d4                     ; 0xd4 <__pal_size+0x54>
    3c61: a0 00        	ldy	#$0
    3c63: 84 12        	sty	$12                     ; 0x12 <__rc2>
    3c65: a0 00        	ldy	#$0
    3c67: 84 13        	sty	$13                     ; 0x13 <__rc3>
    3c69: e4 13        	cpx	$13                     ; 0x13 <__rc3>
    3c6b: d0 1b        	bne	$3c88 <printf+0x81e>
    3c6d: a6 d3        	ldx	$d3                     ; 0xd3 <__pal_size+0x53>
    3c6f: e4 12        	cpx	$12                     ; 0x12 <__rc2>
    3c71: d0 15        	bne	$3c88 <printf+0x81e>
    3c73: a4 14        	ldy	$14                     ; 0x14 <__rc4>
    3c75: 18           	clc
    3c76: aa           	tax
    3c77: a5 15        	lda	$15                     ; 0x15 <__rc5>
    3c79: 65 cd        	adc	$cd                     ; 0xcd <__pal_size+0x4d>
    3c7b: 85 12        	sta	$12                     ; 0x12 <__rc2>
    3c7d: 8a           	txa
    3c7e: 65 ce        	adc	$ce                     ; 0xce <__pal_size+0x4e>
    3c80: 85 13        	sta	$13                     ; 0x13 <__rc3>
    3c82: a9 20        	lda	#$20
    3c84: 92 12        	sta	($12)                   ; 0x12 <__rc2>
    3c86: 80 15        	bra	$3c9d <printf+0x833>
    3c88: a2 01        	ldx	#$1
    3c8a: 86 9c        	stx	$9c                     ; 0x9c <__pal_size+0x1c>
    3c8c: a2 20        	ldx	#$20
    3c8e: 86 67        	stx	$67                     ; 0x67 <__putchar.s>
    3c90: a2 67        	ldx	#$67
    3c92: 86 12        	stx	$12                     ; 0x12 <__rc2>
    3c94: a2 00        	ldx	#$0
    3c96: 86 13        	stx	$13                     ; 0x13 <__rc3>
    3c98: 20 f9 28     	jsr	$28f9 <textPrint>
    3c9b: a4 9c        	ldy	$9c                     ; 0x9c <__pal_size+0x1c>
    3c9d: a6 9e        	ldx	$9e                     ; 0x9e <__pal_size+0x1e>
    3c9f: 86 12        	stx	$12                     ; 0x12 <__rc2>
    3ca1: a6 c9        	ldx	$c9                     ; 0xc9 <__pal_size+0x49>
    3ca3: a5 ca        	lda	$ca                     ; 0xca <__pal_size+0x4a>
    3ca5: e8           	inx
    3ca6: d0 01        	bne	$3ca9 <printf+0x83f>
    3ca8: 1a           	inc
    3ca9: 86 15        	stx	$15                     ; 0x15 <__rc5>
    3cab: 86 c9        	stx	$c9                     ; 0xc9 <__pal_size+0x49>
    3cad: 85 ca        	sta	$ca                     ; 0xca <__pal_size+0x4a>
    3caf: a6 96        	ldx	$96                     ; 0x96 <__pal_size+0x16>
    3cb1: e8           	inx
    3cb2: d0 02        	bne	$3cb6 <printf+0x84c>
    3cb4: e6 12        	inc	$12                     ; 0x12 <__rc2>
    3cb6: 86 96        	stx	$96                     ; 0x96 <__pal_size+0x16>
    3cb8: 5a           	phy
    3cb9: a4 12        	ldy	$12                     ; 0x12 <__rc2>
    3cbb: 84 9e        	sty	$9e                     ; 0x9e <__pal_size+0x1e>
    3cbd: 7a           	ply
    3cbe: e6 12        	inc	$12                     ; 0x12 <__rc2>
    3cc0: c6 12        	dec	$12                     ; 0x12 <__rc2>
    3cc2: d0 04        	bne	$3cc8 <printf+0x85e>
    3cc4: e0 00        	cpx	#$0
    3cc6: f0 12        	beq	$3cda <printf+0x870>
    3cc8: c5 c8        	cmp	$c8                     ; 0xc8 <__pal_size+0x48>
    3cca: f0 03        	beq	$3ccf <printf+0x865>
    3ccc: 4c 53 3c     	jmp	$3c53 <printf+0x7e9>
    3ccf: a6 c7        	ldx	$c7                     ; 0xc7 <__pal_size+0x47>
    3cd1: 86 12        	stx	$12                     ; 0x12 <__rc2>
    3cd3: a6 15        	ldx	$15                     ; 0x15 <__rc5>
    3cd5: e4 12        	cpx	$12                     ; 0x12 <__rc2>
    3cd7: 4c 55 3c     	jmp	$3c55 <printf+0x7eb>
    3cda: 64 9e        	stz	$9e                     ; 0x9e <__pal_size+0x1e>
    3cdc: 64 9f        	stz	$9f                     ; 0x9f <__pal_size+0x1f>
    3cde: a6 95        	ldx	$95                     ; 0x95 <__pal_size+0x15>
    3ce0: a5 9d        	lda	$9d                     ; 0x9d <__pal_size+0x1d>
    3ce2: f0 03        	beq	$3ce7 <printf+0x87d>
    3ce4: 4c 51 3d     	jmp	$3d51 <printf+0x8e7>
    3ce7: a6 c9        	ldx	$c9                     ; 0xc9 <__pal_size+0x49>
    3ce9: a5 ca        	lda	$ca                     ; 0xca <__pal_size+0x4a>
    3ceb: c5 c8        	cmp	$c8                     ; 0xc8 <__pal_size+0x48>
    3ced: d0 10        	bne	$3cff <printf+0x895>
    3cef: 86 13        	stx	$13                     ; 0x13 <__rc3>
    3cf1: a6 c7        	ldx	$c7                     ; 0xc7 <__pal_size+0x47>
    3cf3: 86 12        	stx	$12                     ; 0x12 <__rc2>
    3cf5: a6 13        	ldx	$13                     ; 0x13 <__rc3>
    3cf7: 86 15        	stx	$15                     ; 0x15 <__rc5>
    3cf9: e4 12        	cpx	$12                     ; 0x12 <__rc2>
    3cfb: 90 08        	bcc	$3d05 <printf+0x89b>
    3cfd: 80 4a        	bra	$3d49 <printf+0x8df>
    3cff: 86 15        	stx	$15                     ; 0x15 <__rc5>
    3d01: c5 c8        	cmp	$c8                     ; 0xc8 <__pal_size+0x48>
    3d03: b0 44        	bcs	$3d49 <printf+0x8df>
    3d05: a2 01        	ldx	#$1
    3d07: 86 14        	stx	$14                     ; 0x14 <__rc4>
    3d09: a6 d4        	ldx	$d4                     ; 0xd4 <__pal_size+0x54>
    3d0b: a0 00        	ldy	#$0
    3d0d: 84 12        	sty	$12                     ; 0x12 <__rc2>
    3d0f: a0 00        	ldy	#$0
    3d11: 84 13        	sty	$13                     ; 0x13 <__rc3>
    3d13: e4 13        	cpx	$13                     ; 0x13 <__rc3>
    3d15: d0 1d        	bne	$3d34 <printf+0x8ca>
    3d17: a6 d3        	ldx	$d3                     ; 0xd3 <__pal_size+0x53>
    3d19: e4 12        	cpx	$12                     ; 0x12 <__rc2>
    3d1b: d0 17        	bne	$3d34 <printf+0x8ca>
    3d1d: a4 14        	ldy	$14                     ; 0x14 <__rc4>
    3d1f: 18           	clc
    3d20: 85 16        	sta	$16                     ; 0x16 <__rc6>
    3d22: a5 15        	lda	$15                     ; 0x15 <__rc5>
    3d24: 65 cd        	adc	$cd                     ; 0xcd <__pal_size+0x4d>
    3d26: 85 12        	sta	$12                     ; 0x12 <__rc2>
    3d28: a5 16        	lda	$16                     ; 0x16 <__rc6>
    3d2a: 65 ce        	adc	$ce                     ; 0xce <__pal_size+0x4e>
    3d2c: 85 13        	sta	$13                     ; 0x13 <__rc3>
    3d2e: a5 94        	lda	$94                     ; 0x94 <__pal_size+0x14>
    3d30: 92 12        	sta	($12)                   ; 0x12 <__rc2>
    3d32: 80 15        	bra	$3d49 <printf+0x8df>
    3d34: a2 01        	ldx	#$1
    3d36: 86 9c        	stx	$9c                     ; 0x9c <__pal_size+0x1c>
    3d38: a6 94        	ldx	$94                     ; 0x94 <__pal_size+0x14>
    3d3a: 86 67        	stx	$67                     ; 0x67 <__putchar.s>
    3d3c: a2 67        	ldx	#$67
    3d3e: 86 12        	stx	$12                     ; 0x12 <__rc2>
    3d40: a2 00        	ldx	#$0
    3d42: 86 13        	stx	$13                     ; 0x13 <__rc3>
    3d44: 20 f9 28     	jsr	$28f9 <textPrint>
    3d47: a4 9c        	ldy	$9c                     ; 0x9c <__pal_size+0x1c>
    3d49: e6 c9        	inc	$c9                     ; 0xc9 <__pal_size+0x49>
    3d4b: d0 02        	bne	$3d4f <printf+0x8e5>
    3d4d: e6 ca        	inc	$ca                     ; 0xca <__pal_size+0x4a>
    3d4f: a6 95        	ldx	$95                     ; 0x95 <__pal_size+0x15>
    3d51: a5 97        	lda	$97                     ; 0x97 <__pal_size+0x17>
    3d53: d0 03        	bne	$3d58 <printf+0x8ee>
    3d55: 4c c2 3d     	jmp	$3dc2 <printf+0x958>
    3d58: a6 c9        	ldx	$c9                     ; 0xc9 <__pal_size+0x49>
    3d5a: a5 ca        	lda	$ca                     ; 0xca <__pal_size+0x4a>
    3d5c: c5 c8        	cmp	$c8                     ; 0xc8 <__pal_size+0x48>
    3d5e: d0 10        	bne	$3d70 <printf+0x906>
    3d60: 86 13        	stx	$13                     ; 0x13 <__rc3>
    3d62: a6 c7        	ldx	$c7                     ; 0xc7 <__pal_size+0x47>
    3d64: 86 12        	stx	$12                     ; 0x12 <__rc2>
    3d66: a6 13        	ldx	$13                     ; 0x13 <__rc3>
    3d68: 86 15        	stx	$15                     ; 0x15 <__rc5>
    3d6a: e4 12        	cpx	$12                     ; 0x12 <__rc2>
    3d6c: 90 08        	bcc	$3d76 <printf+0x90c>
    3d6e: 80 4a        	bra	$3dba <printf+0x950>
    3d70: 86 15        	stx	$15                     ; 0x15 <__rc5>
    3d72: c5 c8        	cmp	$c8                     ; 0xc8 <__pal_size+0x48>
    3d74: b0 44        	bcs	$3dba <printf+0x950>
    3d76: a2 01        	ldx	#$1
    3d78: 86 14        	stx	$14                     ; 0x14 <__rc4>
    3d7a: a6 d4        	ldx	$d4                     ; 0xd4 <__pal_size+0x54>
    3d7c: a0 00        	ldy	#$0
    3d7e: 84 12        	sty	$12                     ; 0x12 <__rc2>
    3d80: a0 00        	ldy	#$0
    3d82: 84 13        	sty	$13                     ; 0x13 <__rc3>
    3d84: e4 13        	cpx	$13                     ; 0x13 <__rc3>
    3d86: d0 1d        	bne	$3da5 <printf+0x93b>
    3d88: a6 d3        	ldx	$d3                     ; 0xd3 <__pal_size+0x53>
    3d8a: e4 12        	cpx	$12                     ; 0x12 <__rc2>
    3d8c: d0 17        	bne	$3da5 <printf+0x93b>
    3d8e: a4 14        	ldy	$14                     ; 0x14 <__rc4>
    3d90: 18           	clc
    3d91: 85 16        	sta	$16                     ; 0x16 <__rc6>
    3d93: a5 15        	lda	$15                     ; 0x15 <__rc5>
    3d95: 65 cd        	adc	$cd                     ; 0xcd <__pal_size+0x4d>
    3d97: 85 12        	sta	$12                     ; 0x12 <__rc2>
    3d99: a5 16        	lda	$16                     ; 0x16 <__rc6>
    3d9b: 65 ce        	adc	$ce                     ; 0xce <__pal_size+0x4e>
    3d9d: 85 13        	sta	$13                     ; 0x13 <__rc3>
    3d9f: a5 dd        	lda	$dd                     ; 0xdd <__pal_size+0x5d>
    3da1: 92 12        	sta	($12)                   ; 0x12 <__rc2>
    3da3: 80 15        	bra	$3dba <printf+0x950>
    3da5: a2 01        	ldx	#$1
    3da7: 86 9c        	stx	$9c                     ; 0x9c <__pal_size+0x1c>
    3da9: a6 dd        	ldx	$dd                     ; 0xdd <__pal_size+0x5d>
    3dab: 86 67        	stx	$67                     ; 0x67 <__putchar.s>
    3dad: a2 67        	ldx	#$67
    3daf: 86 12        	stx	$12                     ; 0x12 <__rc2>
    3db1: a2 00        	ldx	#$0
    3db3: 86 13        	stx	$13                     ; 0x13 <__rc3>
    3db5: 20 f9 28     	jsr	$28f9 <textPrint>
    3db8: a4 9c        	ldy	$9c                     ; 0x9c <__pal_size+0x1c>
    3dba: e6 c9        	inc	$c9                     ; 0xc9 <__pal_size+0x49>
    3dbc: d0 02        	bne	$3dc0 <printf+0x956>
    3dbe: e6 ca        	inc	$ca                     ; 0xca <__pal_size+0x4a>
    3dc0: a6 95        	ldx	$95                     ; 0x95 <__pal_size+0x15>
    3dc2: a9 10        	lda	#$10
    3dc4: 25 c5        	and	$c5                     ; 0xc5 <__pal_size+0x45>
    3dc6: d0 03        	bne	$3dcb <printf+0x961>
    3dc8: 4c 80 3e     	jmp	$3e80 <printf+0xa16>
    3dcb: a5 c5        	lda	$c5                     ; 0xc5 <__pal_size+0x45>
    3dcd: 29 01        	and	#$1
    3dcf: f0 03        	beq	$3dd4 <printf+0x96a>
    3dd1: 4c 80 3e     	jmp	$3e80 <printf+0xa16>
    3dd4: a5 9e        	lda	$9e                     ; 0x9e <__pal_size+0x1e>
    3dd6: 5a           	phy
    3dd7: a4 9f        	ldy	$9f                     ; 0x9f <__pal_size+0x1f>
    3dd9: 84 12        	sty	$12                     ; 0x12 <__rc2>
    3ddb: 7a           	ply
    3ddc: e6 12        	inc	$12                     ; 0x12 <__rc2>
    3dde: c6 12        	dec	$12                     ; 0x12 <__rc2>
    3de0: d0 07        	bne	$3de9 <printf+0x97f>
    3de2: c9 00        	cmp	#$0
    3de4: d0 03        	bne	$3de9 <printf+0x97f>
    3de6: 4c d4 41     	jmp	$41d4 <printf+0xd6a>
    3de9: a6 c9        	ldx	$c9                     ; 0xc9 <__pal_size+0x49>
    3deb: 86 15        	stx	$15                     ; 0x15 <__rc5>
    3ded: a5 ca        	lda	$ca                     ; 0xca <__pal_size+0x4a>
    3def: 4c 66 3e     	jmp	$3e66 <printf+0x9fc>
    3df2: c5 c8        	cmp	$c8                     ; 0xc8 <__pal_size+0x48>
    3df4: b0 42        	bcs	$3e38 <printf+0x9ce>
    3df6: a2 01        	ldx	#$1
    3df8: 86 14        	stx	$14                     ; 0x14 <__rc4>
    3dfa: a6 d4        	ldx	$d4                     ; 0xd4 <__pal_size+0x54>
    3dfc: a0 00        	ldy	#$0
    3dfe: 84 12        	sty	$12                     ; 0x12 <__rc2>
    3e00: a0 00        	ldy	#$0
    3e02: 84 13        	sty	$13                     ; 0x13 <__rc3>
    3e04: e4 13        	cpx	$13                     ; 0x13 <__rc3>
    3e06: d0 1b        	bne	$3e23 <printf+0x9b9>
    3e08: a6 d3        	ldx	$d3                     ; 0xd3 <__pal_size+0x53>
    3e0a: e4 12        	cpx	$12                     ; 0x12 <__rc2>
    3e0c: d0 15        	bne	$3e23 <printf+0x9b9>
    3e0e: a4 14        	ldy	$14                     ; 0x14 <__rc4>
    3e10: 18           	clc
    3e11: aa           	tax
    3e12: a5 15        	lda	$15                     ; 0x15 <__rc5>
    3e14: 65 cd        	adc	$cd                     ; 0xcd <__pal_size+0x4d>
    3e16: 85 12        	sta	$12                     ; 0x12 <__rc2>
    3e18: 8a           	txa
    3e19: 65 ce        	adc	$ce                     ; 0xce <__pal_size+0x4e>
    3e1b: 85 13        	sta	$13                     ; 0x13 <__rc3>
    3e1d: a9 30        	lda	#$30
    3e1f: 92 12        	sta	($12)                   ; 0x12 <__rc2>
    3e21: 80 15        	bra	$3e38 <printf+0x9ce>
    3e23: a2 01        	ldx	#$1
    3e25: 86 9c        	stx	$9c                     ; 0x9c <__pal_size+0x1c>
    3e27: a2 30        	ldx	#$30
    3e29: 86 67        	stx	$67                     ; 0x67 <__putchar.s>
    3e2b: a2 67        	ldx	#$67
    3e2d: 86 12        	stx	$12                     ; 0x12 <__rc2>
    3e2f: a2 00        	ldx	#$0
    3e31: 86 13        	stx	$13                     ; 0x13 <__rc3>
    3e33: 20 f9 28     	jsr	$28f9 <textPrint>
    3e36: a4 9c        	ldy	$9c                     ; 0x9c <__pal_size+0x1c>
    3e38: a6 c9        	ldx	$c9                     ; 0xc9 <__pal_size+0x49>
    3e3a: a5 ca        	lda	$ca                     ; 0xca <__pal_size+0x4a>
    3e3c: e8           	inx
    3e3d: d0 01        	bne	$3e40 <printf+0x9d6>
    3e3f: 1a           	inc
    3e40: 86 15        	stx	$15                     ; 0x15 <__rc5>
    3e42: 86 c9        	stx	$c9                     ; 0xc9 <__pal_size+0x49>
    3e44: 85 ca        	sta	$ca                     ; 0xca <__pal_size+0x4a>
    3e46: a6 9e        	ldx	$9e                     ; 0x9e <__pal_size+0x1e>
    3e48: 86 12        	stx	$12                     ; 0x12 <__rc2>
    3e4a: a6 9f        	ldx	$9f                     ; 0x9f <__pal_size+0x1f>
    3e4c: 86 13        	stx	$13                     ; 0x13 <__rc3>
    3e4e: a2 ff        	ldx	#$ff
    3e50: c6 12        	dec	$12                     ; 0x12 <__rc2>
    3e52: e4 12        	cpx	$12                     ; 0x12 <__rc2>
    3e54: d0 02        	bne	$3e58 <printf+0x9ee>
    3e56: c6 13        	dec	$13                     ; 0x13 <__rc3>
    3e58: a6 12        	ldx	$12                     ; 0x12 <__rc2>
    3e5a: 86 9e        	stx	$9e                     ; 0x9e <__pal_size+0x1e>
    3e5c: a6 13        	ldx	$13                     ; 0x13 <__rc3>
    3e5e: 86 9f        	stx	$9f                     ; 0x9f <__pal_size+0x1f>
    3e60: d0 04        	bne	$3e66 <printf+0x9fc>
    3e62: a6 12        	ldx	$12                     ; 0x12 <__rc2>
    3e64: f0 14        	beq	$3e7a <printf+0xa10>
    3e66: c5 c8        	cmp	$c8                     ; 0xc8 <__pal_size+0x48>
    3e68: f0 03        	beq	$3e6d <printf+0xa03>
    3e6a: 4c f2 3d     	jmp	$3df2 <printf+0x988>
    3e6d: a6 c7        	ldx	$c7                     ; 0xc7 <__pal_size+0x47>
    3e6f: 86 12        	stx	$12                     ; 0x12 <__rc2>
    3e71: a6 15        	ldx	$15                     ; 0x15 <__rc5>
    3e73: e4 12        	cpx	$12                     ; 0x12 <__rc2>
    3e75: b0 c1        	bcs	$3e38 <printf+0x9ce>
    3e77: 4c f6 3d     	jmp	$3df6 <printf+0x98c>
    3e7a: 64 9e        	stz	$9e                     ; 0x9e <__pal_size+0x1e>
    3e7c: 64 9f        	stz	$9f                     ; 0x9f <__pal_size+0x1f>
    3e7e: a6 95        	ldx	$95                     ; 0x95 <__pal_size+0x15>
    3e80: a9 00        	lda	#$0
    3e82: c5 9b        	cmp	$9b                     ; 0x9b <__pal_size+0x1b>
    3e84: d0 07        	bne	$3e8d <printf+0xa23>
    3e86: e4 9a        	cpx	$9a                     ; 0x9a <__pal_size+0x1a>
    3e88: 90 0a        	bcc	$3e94 <printf+0xa2a>
    3e8a: 4c 20 3f     	jmp	$3f20 <printf+0xab6>
    3e8d: c5 9b        	cmp	$9b                     ; 0x9b <__pal_size+0x1b>
    3e8f: 90 03        	bcc	$3e94 <printf+0xa2a>
    3e91: 4c 20 3f     	jmp	$3f20 <printf+0xab6>
    3e94: a6 c9        	ldx	$c9                     ; 0xc9 <__pal_size+0x49>
    3e96: 86 15        	stx	$15                     ; 0x15 <__rc5>
    3e98: a5 ca        	lda	$ca                     ; 0xca <__pal_size+0x4a>
    3e9a: a2 ff        	ldx	#$ff
    3e9c: c6 9a        	dec	$9a                     ; 0x9a <__pal_size+0x1a>
    3e9e: e4 9a        	cpx	$9a                     ; 0x9a <__pal_size+0x1a>
    3ea0: d0 02        	bne	$3ea4 <printf+0xa3a>
    3ea2: c6 9b        	dec	$9b                     ; 0x9b <__pal_size+0x1b>
    3ea4: c5 c8        	cmp	$c8                     ; 0xc8 <__pal_size+0x48>
    3ea6: d0 0c        	bne	$3eb4 <printf+0xa4a>
    3ea8: a6 c7        	ldx	$c7                     ; 0xc7 <__pal_size+0x47>
    3eaa: 86 12        	stx	$12                     ; 0x12 <__rc2>
    3eac: a6 15        	ldx	$15                     ; 0x15 <__rc5>
    3eae: e4 12        	cpx	$12                     ; 0x12 <__rc2>
    3eb0: 90 06        	bcc	$3eb8 <printf+0xa4e>
    3eb2: 80 46        	bra	$3efa <printf+0xa90>
    3eb4: c5 c8        	cmp	$c8                     ; 0xc8 <__pal_size+0x48>
    3eb6: b0 42        	bcs	$3efa <printf+0xa90>
    3eb8: a2 01        	ldx	#$1
    3eba: 86 14        	stx	$14                     ; 0x14 <__rc4>
    3ebc: a6 d4        	ldx	$d4                     ; 0xd4 <__pal_size+0x54>
    3ebe: a0 00        	ldy	#$0
    3ec0: 84 12        	sty	$12                     ; 0x12 <__rc2>
    3ec2: a0 00        	ldy	#$0
    3ec4: 84 13        	sty	$13                     ; 0x13 <__rc3>
    3ec6: e4 13        	cpx	$13                     ; 0x13 <__rc3>
    3ec8: d0 1b        	bne	$3ee5 <printf+0xa7b>
    3eca: a6 d3        	ldx	$d3                     ; 0xd3 <__pal_size+0x53>
    3ecc: e4 12        	cpx	$12                     ; 0x12 <__rc2>
    3ece: d0 15        	bne	$3ee5 <printf+0xa7b>
    3ed0: a4 14        	ldy	$14                     ; 0x14 <__rc4>
    3ed2: 18           	clc
    3ed3: aa           	tax
    3ed4: a5 15        	lda	$15                     ; 0x15 <__rc5>
    3ed6: 65 cd        	adc	$cd                     ; 0xcd <__pal_size+0x4d>
    3ed8: 85 12        	sta	$12                     ; 0x12 <__rc2>
    3eda: 8a           	txa
    3edb: 65 ce        	adc	$ce                     ; 0xce <__pal_size+0x4e>
    3edd: 85 13        	sta	$13                     ; 0x13 <__rc3>
    3edf: a9 30        	lda	#$30
    3ee1: 92 12        	sta	($12)                   ; 0x12 <__rc2>
    3ee3: 80 15        	bra	$3efa <printf+0xa90>
    3ee5: a2 01        	ldx	#$1
    3ee7: 86 9c        	stx	$9c                     ; 0x9c <__pal_size+0x1c>
    3ee9: a2 30        	ldx	#$30
    3eeb: 86 67        	stx	$67                     ; 0x67 <__putchar.s>
    3eed: a2 67        	ldx	#$67
    3eef: 86 12        	stx	$12                     ; 0x12 <__rc2>
    3ef1: a2 00        	ldx	#$0
    3ef3: 86 13        	stx	$13                     ; 0x13 <__rc3>
    3ef5: 20 f9 28     	jsr	$28f9 <textPrint>
    3ef8: a4 9c        	ldy	$9c                     ; 0x9c <__pal_size+0x1c>
    3efa: a6 c9        	ldx	$c9                     ; 0xc9 <__pal_size+0x49>
    3efc: a5 ca        	lda	$ca                     ; 0xca <__pal_size+0x4a>
    3efe: e8           	inx
    3eff: d0 01        	bne	$3f02 <printf+0xa98>
    3f01: 1a           	inc
    3f02: 86 15        	stx	$15                     ; 0x15 <__rc5>
    3f04: 86 c9        	stx	$c9                     ; 0xc9 <__pal_size+0x49>
    3f06: 85 ca        	sta	$ca                     ; 0xca <__pal_size+0x4a>
    3f08: a2 00        	ldx	#$0
    3f0a: e4 9b        	cpx	$9b                     ; 0x9b <__pal_size+0x1b>
    3f0c: d0 09        	bne	$3f17 <printf+0xaad>
    3f0e: a6 95        	ldx	$95                     ; 0x95 <__pal_size+0x15>
    3f10: e4 9a        	cpx	$9a                     ; 0x9a <__pal_size+0x1a>
    3f12: b0 0c        	bcs	$3f20 <printf+0xab6>
    3f14: 4c 9a 3e     	jmp	$3e9a <printf+0xa30>
    3f17: e4 9b        	cpx	$9b                     ; 0x9b <__pal_size+0x1b>
    3f19: a6 95        	ldx	$95                     ; 0x95 <__pal_size+0x15>
    3f1b: b0 03        	bcs	$3f20 <printf+0xab6>
    3f1d: 4c 9a 3e     	jmp	$3e9a <printf+0xa30>
    3f20: a5 d9        	lda	$d9                     ; 0xd9 <__pal_size+0x59>
    3f22: 85 12        	sta	$12                     ; 0x12 <__rc2>
    3f24: a5 da        	lda	$da                     ; 0xda <__pal_size+0x5a>
    3f26: 85 13        	sta	$13                     ; 0x13 <__rc3>
    3f28: 5a           	phy
    3f29: a4 12        	ldy	$12                     ; 0x12 <__rc2>
    3f2b: 84 94        	sty	$94                     ; 0x94 <__pal_size+0x14>
    3f2d: 7a           	ply
    3f2e: 85 95        	sta	$95                     ; 0x95 <__pal_size+0x15>
    3f30: 8a           	txa
    3f31: d0 03        	bne	$3f36 <printf+0xacc>
    3f33: 4c 79 40     	jmp	$4079 <printf+0xc0f>
    3f36: ca           	dex
    3f37: d0 03        	bne	$3f3c <printf+0xad2>
    3f39: 4c f2 3f     	jmp	$3ff2 <printf+0xb88>
    3f3c: 86 9c        	stx	$9c                     ; 0x9c <__pal_size+0x1c>
    3f3e: a6 df        	ldx	$df                     ; 0xdf <__pal_size+0x5f>
    3f40: 8a           	txa
    3f41: 18           	clc
    3f42: 65 9c        	adc	$9c                     ; 0x9c <__pal_size+0x1c>
    3f44: 85 9a        	sta	$9a                     ; 0x9a <__pal_size+0x1a>
    3f46: a5 e0        	lda	$e0                     ; 0xe0 <__pal_size+0x60>
    3f48: 69 00        	adc	#$0
    3f4a: 85 9b        	sta	$9b                     ; 0x9b <__pal_size+0x1b>
    3f4c: 4c e0 3f     	jmp	$3fe0 <printf+0xb76>
    3f4f: 85 13        	sta	$13                     ; 0x13 <__rc3>
    3f51: a9 80        	lda	#$80
    3f53: 25 c5        	and	$c5                     ; 0xc5 <__pal_size+0x45>
    3f55: f0 04        	beq	$3f5b <printf+0xaf1>
    3f57: a2 61        	ldx	#$61
    3f59: 80 02        	bra	$3f5d <printf+0xaf3>
    3f5b: a2 41        	ldx	#$41
    3f5d: 86 12        	stx	$12                     ; 0x12 <__rc2>
    3f5f: a2 01        	ldx	#$1
    3f61: 86 14        	stx	$14                     ; 0x14 <__rc4>
    3f63: 18           	clc
    3f64: a5 13        	lda	$13                     ; 0x13 <__rc3>
    3f66: 65 12        	adc	$12                     ; 0x12 <__rc2>
    3f68: 18           	clc
    3f69: 69 f6        	adc	#$f6
    3f6b: a4 c9        	ldy	$c9                     ; 0xc9 <__pal_size+0x49>
    3f6d: a6 ca        	ldx	$ca                     ; 0xca <__pal_size+0x4a>
    3f6f: e4 c8        	cpx	$c8                     ; 0xc8 <__pal_size+0x48>
    3f71: d0 0c        	bne	$3f7f <printf+0xb15>
    3f73: 86 16        	stx	$16                     ; 0x16 <__rc6>
    3f75: a6 c7        	ldx	$c7                     ; 0xc7 <__pal_size+0x47>
    3f77: 86 12        	stx	$12                     ; 0x12 <__rc2>
    3f79: 84 15        	sty	$15                     ; 0x15 <__rc5>
    3f7b: c4 12        	cpy	$12                     ; 0x12 <__rc2>
    3f7d: 80 06        	bra	$3f85 <printf+0xb1b>
    3f7f: 84 15        	sty	$15                     ; 0x15 <__rc5>
    3f81: 86 16        	stx	$16                     ; 0x16 <__rc6>
    3f83: e4 c8        	cpx	$c8                     ; 0xc8 <__pal_size+0x48>
    3f85: a4 14        	ldy	$14                     ; 0x14 <__rc4>
    3f87: b0 41        	bcs	$3fca <printf+0xb60>
    3f89: 85 14        	sta	$14                     ; 0x14 <__rc4>
    3f8b: a9 01        	lda	#$1
    3f8d: a6 d4        	ldx	$d4                     ; 0xd4 <__pal_size+0x54>
    3f8f: a0 00        	ldy	#$0
    3f91: 84 12        	sty	$12                     ; 0x12 <__rc2>
    3f93: a0 00        	ldy	#$0
    3f95: 84 13        	sty	$13                     ; 0x13 <__rc3>
    3f97: e4 13        	cpx	$13                     ; 0x13 <__rc3>
    3f99: d0 1a        	bne	$3fb5 <printf+0xb4b>
    3f9b: a6 d3        	ldx	$d3                     ; 0xd3 <__pal_size+0x53>
    3f9d: e4 12        	cpx	$12                     ; 0x12 <__rc2>
    3f9f: d0 14        	bne	$3fb5 <printf+0xb4b>
    3fa1: a8           	tay
    3fa2: 18           	clc
    3fa3: a5 15        	lda	$15                     ; 0x15 <__rc5>
    3fa5: 65 cd        	adc	$cd                     ; 0xcd <__pal_size+0x4d>
    3fa7: 85 12        	sta	$12                     ; 0x12 <__rc2>
    3fa9: a5 16        	lda	$16                     ; 0x16 <__rc6>
    3fab: 65 ce        	adc	$ce                     ; 0xce <__pal_size+0x4e>
    3fad: 85 13        	sta	$13                     ; 0x13 <__rc3>
    3faf: a5 14        	lda	$14                     ; 0x14 <__rc4>
    3fb1: 92 12        	sta	($12)                   ; 0x12 <__rc2>
    3fb3: 80 15        	bra	$3fca <printf+0xb60>
    3fb5: a2 01        	ldx	#$1
    3fb7: 86 9d        	stx	$9d                     ; 0x9d <__pal_size+0x1d>
    3fb9: a6 14        	ldx	$14                     ; 0x14 <__rc4>
    3fbb: 86 67        	stx	$67                     ; 0x67 <__putchar.s>
    3fbd: a2 67        	ldx	#$67
    3fbf: 86 12        	stx	$12                     ; 0x12 <__rc2>
    3fc1: a2 00        	ldx	#$0
    3fc3: 86 13        	stx	$13                     ; 0x13 <__rc3>
    3fc5: 20 f9 28     	jsr	$28f9 <textPrint>
    3fc8: a4 9d        	ldy	$9d                     ; 0x9d <__pal_size+0x1d>
    3fca: e6 c9        	inc	$c9                     ; 0xc9 <__pal_size+0x49>
    3fcc: d0 02        	bne	$3fd0 <printf+0xb66>
    3fce: e6 ca        	inc	$ca                     ; 0xca <__pal_size+0x4a>
    3fd0: c6 9c        	dec	$9c                     ; 0x9c <__pal_size+0x1c>
    3fd2: a2 ff        	ldx	#$ff
    3fd4: c6 9a        	dec	$9a                     ; 0x9a <__pal_size+0x1a>
    3fd6: e4 9a        	cpx	$9a                     ; 0x9a <__pal_size+0x1a>
    3fd8: d0 02        	bne	$3fdc <printf+0xb72>
    3fda: c6 9b        	dec	$9b                     ; 0x9b <__pal_size+0x1b>
    3fdc: a5 9c        	lda	$9c                     ; 0x9c <__pal_size+0x1c>
    3fde: f0 12        	beq	$3ff2 <printf+0xb88>
    3fe0: b2 9a        	lda	($9a)                   ; 0x9a <__pal_size+0x1a>
    3fe2: c9 0a        	cmp	#$a
    3fe4: 90 03        	bcc	$3fe9 <printf+0xb7f>
    3fe6: 4c 4f 3f     	jmp	$3f4f <printf+0xae5>
    3fe9: a2 01        	ldx	#$1
    3feb: 86 14        	stx	$14                     ; 0x14 <__rc4>
    3fed: 09 30        	ora	#$30
    3fef: 4c 6b 3f     	jmp	$3f6b <printf+0xb01>
    3ff2: a5 a2        	lda	$a2                     ; 0xa2 <__pal_size+0x22>
    3ff4: c9 0a        	cmp	#$a
    3ff6: b0 04        	bcs	$3ffc <printf+0xb92>
    3ff8: 09 30        	ora	#$30
    3ffa: 80 18        	bra	$4014 <printf+0xbaa>
    3ffc: 85 13        	sta	$13                     ; 0x13 <__rc3>
    3ffe: a9 80        	lda	#$80
    4000: 25 c5        	and	$c5                     ; 0xc5 <__pal_size+0x45>
    4002: f0 04        	beq	$4008 <printf+0xb9e>
    4004: a2 61        	ldx	#$61
    4006: 80 02        	bra	$400a <printf+0xba0>
    4008: a2 41        	ldx	#$41
    400a: 86 12        	stx	$12                     ; 0x12 <__rc2>
    400c: 18           	clc
    400d: a5 13        	lda	$13                     ; 0x13 <__rc3>
    400f: 65 12        	adc	$12                     ; 0x12 <__rc2>
    4011: 18           	clc
    4012: 69 f6        	adc	#$f6
    4014: a6 c9        	ldx	$c9                     ; 0xc9 <__pal_size+0x49>
    4016: 86 15        	stx	$15                     ; 0x15 <__rc5>
    4018: a6 ca        	ldx	$ca                     ; 0xca <__pal_size+0x4a>
    401a: e4 c8        	cpx	$c8                     ; 0xc8 <__pal_size+0x48>
    401c: d0 0e        	bne	$402c <printf+0xbc2>
    401e: 86 16        	stx	$16                     ; 0x16 <__rc6>
    4020: a6 c7        	ldx	$c7                     ; 0xc7 <__pal_size+0x47>
    4022: 86 12        	stx	$12                     ; 0x12 <__rc2>
    4024: a6 15        	ldx	$15                     ; 0x15 <__rc5>
    4026: e4 12        	cpx	$12                     ; 0x12 <__rc2>
    4028: 90 08        	bcc	$4032 <printf+0xbc8>
    402a: 80 47        	bra	$4073 <printf+0xc09>
    402c: 86 16        	stx	$16                     ; 0x16 <__rc6>
    402e: e4 c8        	cpx	$c8                     ; 0xc8 <__pal_size+0x48>
    4030: b0 41        	bcs	$4073 <printf+0xc09>
    4032: 85 14        	sta	$14                     ; 0x14 <__rc4>
    4034: a9 01        	lda	#$1
    4036: a6 d4        	ldx	$d4                     ; 0xd4 <__pal_size+0x54>
    4038: a0 00        	ldy	#$0
    403a: 84 12        	sty	$12                     ; 0x12 <__rc2>
    403c: a0 00        	ldy	#$0
    403e: 84 13        	sty	$13                     ; 0x13 <__rc3>
    4040: e4 13        	cpx	$13                     ; 0x13 <__rc3>
    4042: d0 1a        	bne	$405e <printf+0xbf4>
    4044: a6 d3        	ldx	$d3                     ; 0xd3 <__pal_size+0x53>
    4046: e4 12        	cpx	$12                     ; 0x12 <__rc2>
    4048: d0 14        	bne	$405e <printf+0xbf4>
    404a: a8           	tay
    404b: 18           	clc
    404c: a5 15        	lda	$15                     ; 0x15 <__rc5>
    404e: 65 cd        	adc	$cd                     ; 0xcd <__pal_size+0x4d>
    4050: 85 12        	sta	$12                     ; 0x12 <__rc2>
    4052: a5 16        	lda	$16                     ; 0x16 <__rc6>
    4054: 65 ce        	adc	$ce                     ; 0xce <__pal_size+0x4e>
    4056: 85 13        	sta	$13                     ; 0x13 <__rc3>
    4058: a5 14        	lda	$14                     ; 0x14 <__rc4>
    405a: 92 12        	sta	($12)                   ; 0x12 <__rc2>
    405c: 80 15        	bra	$4073 <printf+0xc09>
    405e: a2 01        	ldx	#$1
    4060: 86 9a        	stx	$9a                     ; 0x9a <__pal_size+0x1a>
    4062: a6 14        	ldx	$14                     ; 0x14 <__rc4>
    4064: 86 67        	stx	$67                     ; 0x67 <__putchar.s>
    4066: a2 67        	ldx	#$67
    4068: 86 12        	stx	$12                     ; 0x12 <__rc2>
    406a: a2 00        	ldx	#$0
    406c: 86 13        	stx	$13                     ; 0x13 <__rc3>
    406e: 20 f9 28     	jsr	$28f9 <textPrint>
    4071: a4 9a        	ldy	$9a                     ; 0x9a <__pal_size+0x1a>
    4073: e6 c9        	inc	$c9                     ; 0xc9 <__pal_size+0x49>
    4075: d0 02        	bne	$4079 <printf+0xc0f>
    4077: e6 ca        	inc	$ca                     ; 0xca <__pal_size+0x4a>
    4079: a5 c5        	lda	$c5                     ; 0xc5 <__pal_size+0x45>
    407b: 29 01        	and	#$1
    407d: d0 27        	bne	$40a6 <printf+0xc3c>
    407f: a6 c9        	ldx	$c9                     ; 0xc9 <__pal_size+0x49>
    4081: 86 15        	stx	$15                     ; 0x15 <__rc5>
    4083: a5 ca        	lda	$ca                     ; 0xca <__pal_size+0x4a>
    4085: a6 c7        	ldx	$c7                     ; 0xc7 <__pal_size+0x47>
    4087: 86 14        	stx	$14                     ; 0x14 <__rc4>
    4089: a6 c8        	ldx	$c8                     ; 0xc8 <__pal_size+0x48>
    408b: 86 12        	stx	$12                     ; 0x12 <__rc2>
    408d: 86 13        	stx	$13                     ; 0x13 <__rc3>
    408f: c5 12        	cmp	$12                     ; 0x12 <__rc2>
    4091: f0 03        	beq	$4096 <printf+0xc2c>
    4093: 4c 4f 41     	jmp	$414f <printf+0xce5>
    4096: a5 14        	lda	$14                     ; 0x14 <__rc4>
    4098: 85 12        	sta	$12                     ; 0x12 <__rc2>
    409a: a6 15        	ldx	$15                     ; 0x15 <__rc5>
    409c: e4 12        	cpx	$12                     ; 0x12 <__rc2>
    409e: 90 03        	bcc	$40a3 <printf+0xc39>
    40a0: 4c 57 41     	jmp	$4157 <printf+0xced>
    40a3: 4c 77 41     	jmp	$4177 <printf+0xd0d>
    40a6: a6 c9        	ldx	$c9                     ; 0xc9 <__pal_size+0x49>
    40a8: 86 15        	stx	$15                     ; 0x15 <__rc5>
    40aa: a5 ca        	lda	$ca                     ; 0xca <__pal_size+0x4a>
    40ac: a6 9e        	ldx	$9e                     ; 0x9e <__pal_size+0x1e>
    40ae: 5a           	phy
    40af: a4 9f        	ldy	$9f                     ; 0x9f <__pal_size+0x1f>
    40b1: 84 12        	sty	$12                     ; 0x12 <__rc2>
    40b3: 7a           	ply
    40b4: e6 12        	inc	$12                     ; 0x12 <__rc2>
    40b6: c6 12        	dec	$12                     ; 0x12 <__rc2>
    40b8: f0 03        	beq	$40bd <printf+0xc53>
    40ba: 4c 3b 41     	jmp	$413b <printf+0xcd1>
    40bd: e0 00        	cpx	#$0
    40bf: f0 c4        	beq	$4085 <printf+0xc1b>
    40c1: 4c 3b 41     	jmp	$413b <printf+0xcd1>
    40c4: c5 c8        	cmp	$c8                     ; 0xc8 <__pal_size+0x48>
    40c6: b0 42        	bcs	$410a <printf+0xca0>
    40c8: a2 01        	ldx	#$1
    40ca: 86 14        	stx	$14                     ; 0x14 <__rc4>
    40cc: a6 d4        	ldx	$d4                     ; 0xd4 <__pal_size+0x54>
    40ce: a0 00        	ldy	#$0
    40d0: 84 12        	sty	$12                     ; 0x12 <__rc2>
    40d2: a0 00        	ldy	#$0
    40d4: 84 13        	sty	$13                     ; 0x13 <__rc3>
    40d6: e4 13        	cpx	$13                     ; 0x13 <__rc3>
    40d8: d0 1b        	bne	$40f5 <printf+0xc8b>
    40da: a6 d3        	ldx	$d3                     ; 0xd3 <__pal_size+0x53>
    40dc: e4 12        	cpx	$12                     ; 0x12 <__rc2>
    40de: d0 15        	bne	$40f5 <printf+0xc8b>
    40e0: a4 14        	ldy	$14                     ; 0x14 <__rc4>
    40e2: 18           	clc
    40e3: aa           	tax
    40e4: a5 15        	lda	$15                     ; 0x15 <__rc5>
    40e6: 65 cd        	adc	$cd                     ; 0xcd <__pal_size+0x4d>
    40e8: 85 12        	sta	$12                     ; 0x12 <__rc2>
    40ea: 8a           	txa
    40eb: 65 ce        	adc	$ce                     ; 0xce <__pal_size+0x4e>
    40ed: 85 13        	sta	$13                     ; 0x13 <__rc3>
    40ef: a9 20        	lda	#$20
    40f1: 92 12        	sta	($12)                   ; 0x12 <__rc2>
    40f3: 80 15        	bra	$410a <printf+0xca0>
    40f5: a2 01        	ldx	#$1
    40f7: 86 9a        	stx	$9a                     ; 0x9a <__pal_size+0x1a>
    40f9: a2 20        	ldx	#$20
    40fb: 86 67        	stx	$67                     ; 0x67 <__putchar.s>
    40fd: a2 67        	ldx	#$67
    40ff: 86 12        	stx	$12                     ; 0x12 <__rc2>
    4101: a2 00        	ldx	#$0
    4103: 86 13        	stx	$13                     ; 0x13 <__rc3>
    4105: 20 f9 28     	jsr	$28f9 <textPrint>
    4108: a4 9a        	ldy	$9a                     ; 0x9a <__pal_size+0x1a>
    410a: a6 c9        	ldx	$c9                     ; 0xc9 <__pal_size+0x49>
    410c: a5 ca        	lda	$ca                     ; 0xca <__pal_size+0x4a>
    410e: e8           	inx
    410f: d0 01        	bne	$4112 <printf+0xca8>
    4111: 1a           	inc
    4112: 86 15        	stx	$15                     ; 0x15 <__rc5>
    4114: 86 c9        	stx	$c9                     ; 0xc9 <__pal_size+0x49>
    4116: 85 ca        	sta	$ca                     ; 0xca <__pal_size+0x4a>
    4118: a6 9e        	ldx	$9e                     ; 0x9e <__pal_size+0x1e>
    411a: 86 12        	stx	$12                     ; 0x12 <__rc2>
    411c: a6 9f        	ldx	$9f                     ; 0x9f <__pal_size+0x1f>
    411e: 86 13        	stx	$13                     ; 0x13 <__rc3>
    4120: a2 ff        	ldx	#$ff
    4122: c6 12        	dec	$12                     ; 0x12 <__rc2>
    4124: e4 12        	cpx	$12                     ; 0x12 <__rc2>
    4126: d0 02        	bne	$412a <printf+0xcc0>
    4128: c6 13        	dec	$13                     ; 0x13 <__rc3>
    412a: a6 12        	ldx	$12                     ; 0x12 <__rc2>
    412c: 86 9e        	stx	$9e                     ; 0x9e <__pal_size+0x1e>
    412e: a6 13        	ldx	$13                     ; 0x13 <__rc3>
    4130: 86 9f        	stx	$9f                     ; 0x9f <__pal_size+0x1f>
    4132: d0 07        	bne	$413b <printf+0xcd1>
    4134: a6 12        	ldx	$12                     ; 0x12 <__rc2>
    4136: d0 03        	bne	$413b <printf+0xcd1>
    4138: 4c 85 40     	jmp	$4085 <printf+0xc1b>
    413b: c5 c8        	cmp	$c8                     ; 0xc8 <__pal_size+0x48>
    413d: f0 03        	beq	$4142 <printf+0xcd8>
    413f: 4c c4 40     	jmp	$40c4 <printf+0xc5a>
    4142: a6 c7        	ldx	$c7                     ; 0xc7 <__pal_size+0x47>
    4144: 86 12        	stx	$12                     ; 0x12 <__rc2>
    4146: a6 15        	ldx	$15                     ; 0x15 <__rc5>
    4148: e4 12        	cpx	$12                     ; 0x12 <__rc2>
    414a: b0 be        	bcs	$410a <printf+0xca0>
    414c: 4c c8 40     	jmp	$40c8 <printf+0xc5e>
    414f: 86 12        	stx	$12                     ; 0x12 <__rc2>
    4151: c5 12        	cmp	$12                     ; 0x12 <__rc2>
    4153: a5 14        	lda	$14                     ; 0x14 <__rc4>
    4155: 90 20        	bcc	$4177 <printf+0xd0d>
    4157: a6 13        	ldx	$13                     ; 0x13 <__rc3>
    4159: d0 03        	bne	$415e <printf+0xcf4>
    415b: aa           	tax
    415c: f0 19        	beq	$4177 <printf+0xd0d>
    415e: 18           	clc
    415f: 65 cd        	adc	$cd                     ; 0xcd <__pal_size+0x4d>
    4161: 85 12        	sta	$12                     ; 0x12 <__rc2>
    4163: a5 13        	lda	$13                     ; 0x13 <__rc3>
    4165: 65 ce        	adc	$ce                     ; 0xce <__pal_size+0x4e>
    4167: 85 13        	sta	$13                     ; 0x13 <__rc3>
    4169: a2 ff        	ldx	#$ff
    416b: c6 12        	dec	$12                     ; 0x12 <__rc2>
    416d: e4 12        	cpx	$12                     ; 0x12 <__rc2>
    416f: d0 02        	bne	$4173 <printf+0xd09>
    4171: c6 13        	dec	$13                     ; 0x13 <__rc3>
    4173: a9 00        	lda	#$0
    4175: 92 12        	sta	($12)                   ; 0x12 <__rc2>
    4177: e6 98        	inc	$98                     ; 0x98 <__pal_size+0x18>
    4179: d0 02        	bne	$417d <printf+0xd13>
    417b: e6 99        	inc	$99                     ; 0x99 <__pal_size+0x19>
    417d: a6 99        	ldx	$99                     ; 0x99 <__pal_size+0x19>
    417f: e4 95        	cpx	$95                     ; 0x95 <__pal_size+0x15>
    4181: f0 03        	beq	$4186 <printf+0xd1c>
    4183: 4c cf 34     	jmp	$34cf <printf+0x65>
    4186: a6 98        	ldx	$98                     ; 0x98 <__pal_size+0x18>
    4188: e4 94        	cpx	$94                     ; 0x94 <__pal_size+0x14>
    418a: f0 03        	beq	$418f <printf+0xd25>
    418c: 4c cf 34     	jmp	$34cf <printf+0x65>
    418f: a6 94        	ldx	$94                     ; 0x94 <__pal_size+0x14>
    4191: 86 d9        	stx	$d9                     ; 0xd9 <__pal_size+0x59>
    4193: a6 95        	ldx	$95                     ; 0x95 <__pal_size+0x15>
    4195: 86 da        	stx	$da                     ; 0xda <__pal_size+0x5a>
    4197: a6 d9        	ldx	$d9                     ; 0xd9 <__pal_size+0x59>
    4199: 86 9c        	stx	$9c                     ; 0x9c <__pal_size+0x1c>
    419b: a6 da        	ldx	$da                     ; 0xda <__pal_size+0x5a>
    419d: 86 9d        	stx	$9d                     ; 0x9d <__pal_size+0x1d>
    419f: b2 9c        	lda	($9c)                   ; 0x9c <__pal_size+0x1c>
    41a1: 4c e3 34     	jmp	$34e3 <printf+0x79>
    41a4: e4 9b        	cpx	$9b                     ; 0x9b <__pal_size+0x1b>
    41a6: a6 96        	ldx	$96                     ; 0x96 <__pal_size+0x16>
    41a8: b0 03        	bcs	$41ad <printf+0xd43>
    41aa: 4c a0 3b     	jmp	$3ba0 <printf+0x736>
    41ad: a5 95        	lda	$95                     ; 0x95 <__pal_size+0x15>
    41af: 85 9a        	sta	$9a                     ; 0x9a <__pal_size+0x1a>
    41b1: 64 9b        	stz	$9b                     ; 0x9b <__pal_size+0x1b>
    41b3: e6 9a        	inc	$9a                     ; 0x9a <__pal_size+0x1a>
    41b5: f0 03        	beq	$41ba <printf+0xd50>
    41b7: 4c a0 3b     	jmp	$3ba0 <printf+0x736>
    41ba: e6 9b        	inc	$9b                     ; 0x9b <__pal_size+0x1b>
    41bc: 4c a0 3b     	jmp	$3ba0 <printf+0x736>
    41bf: a2 58        	ldx	#$58
    41c1: 86 dd        	stx	$dd                     ; 0xdd <__pal_size+0x5d>
    41c3: a2 01        	ldx	#$1
    41c5: 86 97        	stx	$97                     ; 0x97 <__pal_size+0x17>
    41c7: a2 30        	ldx	#$30
    41c9: 86 94        	stx	$94                     ; 0x94 <__pal_size+0x14>
    41cb: a9 02        	lda	#$2
    41cd: a2 00        	ldx	#$0
    41cf: 86 9d        	stx	$9d                     ; 0x9d <__pal_size+0x1d>
    41d1: 4c d3 3b     	jmp	$3bd3 <printf+0x769>
    41d4: 64 9e        	stz	$9e                     ; 0x9e <__pal_size+0x1e>
    41d6: 64 9f        	stz	$9f                     ; 0x9f <__pal_size+0x1f>
    41d8: 4c 80 3e     	jmp	$3e80 <printf+0xa16>
    41db: 60           	rts

000041dc <malloc>:
    41dc: a8           	tay
    41dd: 8a           	txa
    41de: a2 00        	ldx	#$0
    41e0: 86 12        	stx	$12                     ; 0x12 <__rc2>
    41e2: a2 00        	ldx	#$0
    41e4: 86 13        	stx	$13                     ; 0x13 <__rc3>
    41e6: aa           	tax
    41e7: d0 07        	bne	$41f0 <malloc+0x14>
    41e9: c0 00        	cpy	#$0
    41eb: d0 03        	bne	$41f0 <malloc+0x14>
    41ed: 4c f2 42     	jmp	$42f2 <malloc+0x116>
    41f0: 84 16        	sty	$16                     ; 0x16 <__rc6>
    41f2: aa           	tax
    41f3: d0 0e        	bne	$4203 <malloc+0x27>
    41f5: a6 16        	ldx	$16                     ; 0x16 <__rc6>
    41f7: e0 07        	cpx	#$7
    41f9: b0 0c        	bcs	$4207 <malloc+0x2b>
    41fb: a2 08        	ldx	#$8
    41fd: 86 95        	stx	$95                     ; 0x95 <__pal_size+0x15>
    41ff: a9 00        	lda	#$0
    4201: 80 31        	bra	$4234 <malloc+0x58>
    4203: c9 00        	cmp	#$0
    4205: 90 f4        	bcc	$41fb <malloc+0x1f>
    4207: a8           	tay
    4208: a5 16        	lda	$16                     ; 0x16 <__rc6>
    420a: 29 01        	and	#$1
    420c: a2 02        	ldx	#$2
    420e: 64 14        	stz	$14                     ; 0x14 <__rc4>
    4210: c9 00        	cmp	#$0
    4212: f0 02        	beq	$4216 <malloc+0x3a>
    4214: a2 03        	ldx	#$3
    4216: 86 15        	stx	$15                     ; 0x15 <__rc5>
    4218: 18           	clc
    4219: a5 16        	lda	$16                     ; 0x16 <__rc6>
    421b: 65 15        	adc	$15                     ; 0x15 <__rc5>
    421d: aa           	tax
    421e: 98           	tya
    421f: 65 14        	adc	$14                     ; 0x14 <__rc4>
    4221: 90 03        	bcc	$4226 <malloc+0x4a>
    4223: 4c f2 42     	jmp	$42f2 <malloc+0x116>
    4226: 86 14        	stx	$14                     ; 0x14 <__rc4>
    4228: 86 95        	stx	$95                     ; 0x95 <__pal_size+0x15>
    422a: aa           	tax
    422b: d0 07        	bne	$4234 <malloc+0x58>
    422d: a6 14        	ldx	$14                     ; 0x14 <__rc4>
    422f: d0 03        	bne	$4234 <malloc+0x58>
    4231: 4c f2 42     	jmp	$42f2 <malloc+0x116>
    4234: 85 94        	sta	$94                     ; 0x94 <__pal_size+0x14>
    4236: a5 93        	lda	$93                     ; 0x93 <_ZN12_GLOBAL__N_111initializedE>
    4238: 29 01        	and	#$1
    423a: d0 3c        	bne	$4278 <malloc+0x9c>
    423c: a9 00        	lda	#$0
    423e: a2 10        	ldx	#$10
    4240: a0 84        	ldy	#$84
    4242: 84 14        	sty	$14                     ; 0x14 <__rc4>
    4244: a0 4a        	ldy	#$4a
    4246: 84 15        	sty	$15                     ; 0x15 <__rc5>
    4248: a4 12        	ldy	$12                     ; 0x12 <__rc2>
    424a: 84 96        	sty	$96                     ; 0x96 <__pal_size+0x16>
    424c: a4 13        	ldy	$13                     ; 0x13 <__rc3>
    424e: 84 97        	sty	$97                     ; 0x97 <__pal_size+0x17>
    4250: a0 84        	ldy	#$84
    4252: 84 12        	sty	$12                     ; 0x12 <__rc2>
    4254: a0 4a        	ldy	#$4a
    4256: 84 13        	sty	$13                     ; 0x13 <__rc3>
    4258: 20 4a 03     	jsr	$34a <_ZN12_GLOBAL__N_19FreeChunk6insertEPvj>
    425b: a6 96        	ldx	$96                     ; 0x96 <__pal_size+0x16>
    425d: 86 12        	stx	$12                     ; 0x12 <__rc2>
    425f: a6 97        	ldx	$97                     ; 0x97 <__pal_size+0x17>
    4261: 86 13        	stx	$13                     ; 0x13 <__rc3>
    4263: ae 85 4a     	ldx	$4a85                   ; 0x4a85 <__heap_start+0x1>
    4266: a9 fe        	lda	#$fe
    4268: 2d 84 4a     	and	$4a84                   ; 0x4a84 <__heap_start>
    426b: 8d 84 4a     	sta	$4a84                   ; 0x4a84 <__heap_start>
    426e: 8e 85 4a     	stx	$4a85                   ; 0x4a85 <__heap_start+0x1>
    4271: a2 01        	ldx	#$1
    4273: 8e 7e 4a     	stx	$4a7e                   ; 0x4a7e <_ZN12_GLOBAL__N_19last_freeE>
    4276: 86 93        	stx	$93                     ; 0x93 <_ZN12_GLOBAL__N_111initializedE>
    4278: ae 81 4a     	ldx	$4a81                   ; 0x4a81 <_ZN12_GLOBAL__N_19free_listE>
    427b: 86 16        	stx	$16                     ; 0x16 <__rc6>
    427d: ac 82 4a     	ldy	$4a82                   ; 0x4a82 <_ZN12_GLOBAL__N_19free_listE+0x1>
    4280: 84 17        	sty	$17                     ; 0x17 <__rc7>
    4282: a9 00        	lda	#$0
    4284: 85 14        	sta	$14                     ; 0x14 <__rc4>
    4286: a9 00        	lda	#$0
    4288: 85 15        	sta	$15                     ; 0x15 <__rc5>
    428a: c4 15        	cpy	$15                     ; 0x15 <__rc5>
    428c: d0 07        	bne	$4295 <malloc+0xb9>
    428e: e4 14        	cpx	$14                     ; 0x14 <__rc4>
    4290: d0 03        	bne	$4295 <malloc+0xb9>
    4292: 4c f2 42     	jmp	$42f2 <malloc+0x116>
    4295: a2 00        	ldx	#$0
    4297: a0 10        	ldy	#$10
    4299: 86 14        	stx	$14                     ; 0x14 <__rc4>
    429b: 84 15        	sty	$15                     ; 0x15 <__rc5>
    429d: 18           	clc
    429e: a9 84        	lda	#$84
    42a0: 65 14        	adc	$14                     ; 0x14 <__rc4>
    42a2: 85 18        	sta	$18                     ; 0x18 <__rc8>
    42a4: a9 4a        	lda	#$4a
    42a6: 65 15        	adc	$15                     ; 0x15 <__rc5>
    42a8: 85 98        	sta	$98                     ; 0x98 <__pal_size+0x18>
    42aa: a0 01        	ldy	#$1
    42ac: a6 94        	ldx	$94                     ; 0x94 <__pal_size+0x14>
    42ae: 86 19        	stx	$19                     ; 0x19 <__rc9>
    42b0: a6 16        	ldx	$16                     ; 0x16 <__rc6>
    42b2: 86 14        	stx	$14                     ; 0x14 <__rc4>
    42b4: a6 17        	ldx	$17                     ; 0x17 <__rc7>
    42b6: 86 15        	stx	$15                     ; 0x15 <__rc5>
    42b8: b1 14        	lda	($14),y                 ; 0x14 <__rc4>
    42ba: c5 19        	cmp	$19                     ; 0x19 <__rc9>
    42bc: d0 0e        	bne	$42cc <malloc+0xf0>
    42be: b2 14        	lda	($14)                   ; 0x14 <__rc4>
    42c0: 29 fe        	and	#$fe
    42c2: a6 95        	ldx	$95                     ; 0x95 <__pal_size+0x15>
    42c4: 86 1a        	stx	$1a                     ; 0x1a <__rc10>
    42c6: c5 1a        	cmp	$1a                     ; 0x1a <__rc10>
    42c8: b0 29        	bcs	$42f3 <malloc+0x117>
    42ca: 80 04        	bra	$42d0 <malloc+0xf4>
    42cc: c5 19        	cmp	$19                     ; 0x19 <__rc9>
    42ce: b0 23        	bcs	$42f3 <malloc+0x117>
    42d0: a5 14        	lda	$14                     ; 0x14 <__rc4>
    42d2: 18           	clc
    42d3: 69 02        	adc	#$2
    42d5: 85 1a        	sta	$1a                     ; 0x1a <__rc10>
    42d7: a5 15        	lda	$15                     ; 0x15 <__rc5>
    42d9: 69 00        	adc	#$0
    42db: 85 1b        	sta	$1b                     ; 0x1b <__rc11>
    42dd: a0 02        	ldy	#$2
    42df: b1 14        	lda	($14),y                 ; 0x14 <__rc4>
    42e1: 85 14        	sta	$14                     ; 0x14 <__rc4>
    42e3: 88           	dey
    42e4: b1 1a        	lda	($1a),y                 ; 0x1a <__rc10>
    42e6: 85 15        	sta	$15                     ; 0x15 <__rc5>
    42e8: c5 17        	cmp	$17                     ; 0x17 <__rc7>
    42ea: d0 cc        	bne	$42b8 <malloc+0xdc>
    42ec: a5 14        	lda	$14                     ; 0x14 <__rc4>
    42ee: c5 16        	cmp	$16                     ; 0x16 <__rc6>
    42f0: d0 c6        	bne	$42b8 <malloc+0xdc>
    42f2: 60           	rts
    42f3: a6 18        	ldx	$18                     ; 0x18 <__rc8>
    42f5: 86 99        	stx	$99                     ; 0x99 <__pal_size+0x19>
    42f7: a6 14        	ldx	$14                     ; 0x14 <__rc4>
    42f9: 86 12        	stx	$12                     ; 0x12 <__rc2>
    42fb: a6 15        	ldx	$15                     ; 0x15 <__rc5>
    42fd: 86 13        	stx	$13                     ; 0x13 <__rc3>
    42ff: a6 14        	ldx	$14                     ; 0x14 <__rc4>
    4301: 86 96        	stx	$96                     ; 0x96 <__pal_size+0x16>
    4303: a6 15        	ldx	$15                     ; 0x15 <__rc5>
    4305: 86 97        	stx	$97                     ; 0x97 <__pal_size+0x17>
    4307: 20 9e 04     	jsr	$49e <_ZN12_GLOBAL__N_19FreeChunk6removeEv>
    430a: a6 96        	ldx	$96                     ; 0x96 <__pal_size+0x16>
    430c: 86 12        	stx	$12                     ; 0x12 <__rc2>
    430e: a6 97        	ldx	$97                     ; 0x97 <__pal_size+0x17>
    4310: 86 13        	stx	$13                     ; 0x13 <__rc3>
    4312: a0 01        	ldy	#$1
    4314: b1 12        	lda	($12),y                 ; 0x12 <__rc2>
    4316: 85 15        	sta	$15                     ; 0x15 <__rc5>
    4318: a9 fe        	lda	#$fe
    431a: 32 12        	and	($12)                   ; 0x12 <__rc2>
    431c: 38           	sec
    431d: a6 95        	ldx	$95                     ; 0x95 <__pal_size+0x15>
    431f: 86 14        	stx	$14                     ; 0x14 <__rc4>
    4321: 85 17        	sta	$17                     ; 0x17 <__rc7>
    4323: e5 14        	sbc	$14                     ; 0x14 <__rc4>
    4325: a8           	tay
    4326: a6 94        	ldx	$94                     ; 0x94 <__pal_size+0x14>
    4328: 86 14        	stx	$14                     ; 0x14 <__rc4>
    432a: a5 15        	lda	$15                     ; 0x15 <__rc5>
    432c: 85 16        	sta	$16                     ; 0x16 <__rc6>
    432e: e5 14        	sbc	$14                     ; 0x14 <__rc4>
    4330: d0 06        	bne	$4338 <malloc+0x15c>
    4332: 85 18        	sta	$18                     ; 0x18 <__rc8>
    4334: c0 08        	cpy	#$8
    4336: 80 04        	bra	$433c <malloc+0x160>
    4338: 85 18        	sta	$18                     ; 0x18 <__rc8>
    433a: c9 00        	cmp	#$0
    433c: a6 99        	ldx	$99                     ; 0x99 <__pal_size+0x19>
    433e: 86 14        	stx	$14                     ; 0x14 <__rc4>
    4340: a6 98        	ldx	$98                     ; 0x98 <__pal_size+0x18>
    4342: 86 15        	stx	$15                     ; 0x15 <__rc5>
    4344: a5 17        	lda	$17                     ; 0x17 <__rc7>
    4346: 90 43        	bcc	$438b <malloc+0x1af>
    4348: 18           	clc
    4349: a6 95        	ldx	$95                     ; 0x95 <__pal_size+0x15>
    434b: 86 95        	stx	$95                     ; 0x95 <__pal_size+0x15>
    434d: 8a           	txa
    434e: 65 12        	adc	$12                     ; 0x12 <__rc2>
    4350: 85 12        	sta	$12                     ; 0x12 <__rc2>
    4352: a6 94        	ldx	$94                     ; 0x94 <__pal_size+0x14>
    4354: 86 94        	stx	$94                     ; 0x94 <__pal_size+0x14>
    4356: a5 94        	lda	$94                     ; 0x94 <__pal_size+0x14>
    4358: 65 13        	adc	$13                     ; 0x13 <__rc3>
    435a: 85 13        	sta	$13                     ; 0x13 <__rc3>
    435c: a6 18        	ldx	$18                     ; 0x18 <__rc8>
    435e: 98           	tya
    435f: 20 4a 03     	jsr	$34a <_ZN12_GLOBAL__N_19FreeChunk6insertEPvj>
    4362: a6 96        	ldx	$96                     ; 0x96 <__pal_size+0x16>
    4364: 86 12        	stx	$12                     ; 0x12 <__rc2>
    4366: a6 97        	ldx	$97                     ; 0x97 <__pal_size+0x17>
    4368: 86 13        	stx	$13                     ; 0x13 <__rc3>
    436a: a5 95        	lda	$95                     ; 0x95 <__pal_size+0x15>
    436c: 29 fe        	and	#$fe
    436e: 85 14        	sta	$14                     ; 0x14 <__rc4>
    4370: a0 01        	ldy	#$1
    4372: 98           	tya
    4373: 32 12        	and	($12)                   ; 0x12 <__rc2>
    4375: 05 14        	ora	$14                     ; 0x14 <__rc4>
    4377: 92 12        	sta	($12)                   ; 0x12 <__rc2>
    4379: a5 94        	lda	$94                     ; 0x94 <__pal_size+0x14>
    437b: 91 12        	sta	($12),y                 ; 0x12 <__rc2>
    437d: a5 14        	lda	$14                     ; 0x14 <__rc4>
    437f: a6 94        	ldx	$94                     ; 0x94 <__pal_size+0x14>
    4381: 86 16        	stx	$16                     ; 0x16 <__rc6>
    4383: a6 99        	ldx	$99                     ; 0x99 <__pal_size+0x19>
    4385: 86 14        	stx	$14                     ; 0x14 <__rc4>
    4387: a6 98        	ldx	$98                     ; 0x98 <__pal_size+0x18>
    4389: 86 15        	stx	$15                     ; 0x15 <__rc5>
    438b: 18           	clc
    438c: 65 12        	adc	$12                     ; 0x12 <__rc2>
    438e: a8           	tay
    438f: a5 16        	lda	$16                     ; 0x16 <__rc6>
    4391: 65 13        	adc	$13                     ; 0x13 <__rc3>
    4393: c5 15        	cmp	$15                     ; 0x15 <__rc5>
    4395: d0 09        	bne	$43a0 <malloc+0x1c4>
    4397: c4 14        	cpy	$14                     ; 0x14 <__rc4>
    4399: d0 05        	bne	$43a0 <malloc+0x1c4>
    439b: 9c 7e 4a     	stz	$4a7e                   ; 0x4a7e <_ZN12_GLOBAL__N_19last_freeE>
    439e: 80 14        	bra	$43b4 <malloc+0x1d8>
    43a0: 84 14        	sty	$14                     ; 0x14 <__rc4>
    43a2: 85 15        	sta	$15                     ; 0x15 <__rc5>
    43a4: a0 01        	ldy	#$1
    43a6: b1 14        	lda	($14),y                 ; 0x14 <__rc4>
    43a8: 85 16        	sta	$16                     ; 0x16 <__rc6>
    43aa: a9 fe        	lda	#$fe
    43ac: 32 14        	and	($14)                   ; 0x14 <__rc4>
    43ae: 92 14        	sta	($14)                   ; 0x14 <__rc4>
    43b0: a5 16        	lda	$16                     ; 0x16 <__rc6>
    43b2: 91 14        	sta	($14),y                 ; 0x14 <__rc4>
    43b4: a5 12        	lda	$12                     ; 0x12 <__rc2>
    43b6: 18           	clc
    43b7: 69 02        	adc	#$2
    43b9: 85 12        	sta	$12                     ; 0x12 <__rc2>
    43bb: a5 13        	lda	$13                     ; 0x13 <__rc3>
    43bd: 69 00        	adc	#$0
    43bf: 85 13        	sta	$13                     ; 0x13 <__rc3>
    43c1: 60           	rts

000043c2 <memcpy>:
    43c2: a8           	tay
    43c3: 8a           	txa
    43c4: d0 03        	bne	$43c9 <memcpy+0x7>
    43c6: 98           	tya
    43c7: f0 24        	beq	$43ed <memcpy+0x2b>
    43c9: a5 12        	lda	$12                     ; 0x12 <__rc2>
    43cb: 85 16        	sta	$16                     ; 0x16 <__rc6>
    43cd: a5 13        	lda	$13                     ; 0x13 <__rc3>
    43cf: 85 17        	sta	$17                     ; 0x17 <__rc7>
    43d1: b2 14        	lda	($14)                   ; 0x14 <__rc4>
    43d3: 92 16        	sta	($16)                   ; 0x16 <__rc6>
    43d5: e6 16        	inc	$16                     ; 0x16 <__rc6>
    43d7: d0 02        	bne	$43db <memcpy+0x19>
    43d9: e6 17        	inc	$17                     ; 0x17 <__rc7>
    43db: e6 14        	inc	$14                     ; 0x14 <__rc4>
    43dd: d0 02        	bne	$43e1 <memcpy+0x1f>
    43df: e6 15        	inc	$15                     ; 0x15 <__rc5>
    43e1: 88           	dey
    43e2: c0 ff        	cpy	#$ff
    43e4: d0 01        	bne	$43e7 <memcpy+0x25>
    43e6: ca           	dex
    43e7: 8a           	txa
    43e8: d0 e7        	bne	$43d1 <memcpy+0xf>
    43ea: 98           	tya
    43eb: d0 e4        	bne	$43d1 <memcpy+0xf>
    43ed: 60           	rts

000043ee <__memset>:
    43ee: a4 14        	ldy	$14                     ; 0x14 <__rc4>
    43f0: d0 04        	bne	$43f6 <__memset+0x8>
    43f2: e0 00        	cpx	#$0
    43f4: f0 17        	beq	$440d <__memset+0x1f>
    43f6: 92 12        	sta	($12)                   ; 0x12 <__rc2>
    43f8: e6 12        	inc	$12                     ; 0x12 <__rc2>
    43fa: d0 02        	bne	$43fe <__memset+0x10>
    43fc: e6 13        	inc	$13                     ; 0x13 <__rc3>
    43fe: ca           	dex
    43ff: e0 ff        	cpx	#$ff
    4401: d0 02        	bne	$4405 <__memset+0x17>
    4403: c6 14        	dec	$14                     ; 0x14 <__rc4>
    4405: a4 14        	ldy	$14                     ; 0x14 <__rc4>
    4407: d0 ed        	bne	$43f6 <__memset+0x8>
    4409: e0 00        	cpx	#$0
    440b: d0 e9        	bne	$43f6 <__memset+0x8>
    440d: 60           	rts

0000440e <__umodhi3>:
    440e: a8           	tay
    440f: 8a           	txa
    4410: e6 13        	inc	$13                     ; 0x13 <__rc3>
    4412: c6 13        	dec	$13                     ; 0x13 <__rc3>
    4414: d0 09        	bne	$441f <__umodhi3+0x11>
    4416: e6 12        	inc	$12                     ; 0x12 <__rc2>
    4418: c6 12        	dec	$12                     ; 0x12 <__rc2>
    441a: d0 03        	bne	$441f <__umodhi3+0x11>
    441c: 4c b0 44     	jmp	$44b0 <__umodhi3+0xa2>
    441f: c5 13        	cmp	$13                     ; 0x13 <__rc3>
    4421: d0 07        	bne	$442a <__umodhi3+0x1c>
    4423: c4 12        	cpy	$12                     ; 0x12 <__rc2>
    4425: b0 0a        	bcs	$4431 <__umodhi3+0x23>
    4427: 4c b0 44     	jmp	$44b0 <__umodhi3+0xa2>
    442a: c5 13        	cmp	$13                     ; 0x13 <__rc3>
    442c: b0 03        	bcs	$4431 <__umodhi3+0x23>
    442e: 4c b0 44     	jmp	$44b0 <__umodhi3+0xa2>
    4431: 86 16        	stx	$16                     ; 0x16 <__rc6>
    4433: e6 13        	inc	$13                     ; 0x13 <__rc3>
    4435: c6 13        	dec	$13                     ; 0x13 <__rc3>
    4437: 10 03        	bpl	$443c <__umodhi3+0x2e>
    4439: 4c a8 44     	jmp	$44a8 <__umodhi3+0x9a>
    443c: a2 00        	ldx	#$0
    443e: 5a           	phy
    443f: a4 12        	ldy	$12                     ; 0x12 <__rc2>
    4441: 84 14        	sty	$14                     ; 0x14 <__rc4>
    4443: a4 13        	ldy	$13                     ; 0x13 <__rc3>
    4445: 84 15        	sty	$15                     ; 0x15 <__rc5>
    4447: 7a           	ply
    4448: 06 14        	asl	$14                     ; 0x14 <__rc4>
    444a: 26 15        	rol	$15                     ; 0x15 <__rc5>
    444c: c5 15        	cmp	$15                     ; 0x15 <__rc5>
    444e: d0 08        	bne	$4458 <__umodhi3+0x4a>
    4450: c4 14        	cpy	$14                     ; 0x14 <__rc4>
    4452: a5 16        	lda	$16                     ; 0x16 <__rc6>
    4454: 90 19        	bcc	$446f <__umodhi3+0x61>
    4456: 80 04        	bra	$445c <__umodhi3+0x4e>
    4458: c5 15        	cmp	$15                     ; 0x15 <__rc5>
    445a: 90 13        	bcc	$446f <__umodhi3+0x61>
    445c: e8           	inx
    445d: 5a           	phy
    445e: a4 14        	ldy	$14                     ; 0x14 <__rc4>
    4460: 84 12        	sty	$12                     ; 0x12 <__rc2>
    4462: a4 15        	ldy	$15                     ; 0x15 <__rc5>
    4464: 84 13        	sty	$13                     ; 0x13 <__rc3>
    4466: 7a           	ply
    4467: e6 15        	inc	$15                     ; 0x15 <__rc5>
    4469: c6 15        	dec	$15                     ; 0x15 <__rc5>
    446b: 10 db        	bpl	$4448 <__umodhi3+0x3a>
    446d: 80 08        	bra	$4477 <__umodhi3+0x69>
    446f: a5 12        	lda	$12                     ; 0x12 <__rc2>
    4471: 85 14        	sta	$14                     ; 0x14 <__rc4>
    4473: a5 13        	lda	$13                     ; 0x13 <__rc3>
    4475: 85 15        	sta	$15                     ; 0x15 <__rc5>
    4477: 38           	sec
    4478: 98           	tya
    4479: e5 14        	sbc	$14                     ; 0x14 <__rc4>
    447b: a8           	tay
    447c: a5 16        	lda	$16                     ; 0x16 <__rc6>
    447e: e5 15        	sbc	$15                     ; 0x15 <__rc5>
    4480: e0 00        	cpx	#$0
    4482: d0 08        	bne	$448c <__umodhi3+0x7e>
    4484: 80 2a        	bra	$44b0 <__umodhi3+0xa2>
    4486: c5 15        	cmp	$15                     ; 0x15 <__rc5>
    4488: b0 0e        	bcs	$4498 <__umodhi3+0x8a>
    448a: 80 17        	bra	$44a3 <__umodhi3+0x95>
    448c: 46 15        	lsr	$15                     ; 0x15 <__rc5>
    448e: 66 14        	ror	$14                     ; 0x14 <__rc4>
    4490: c5 15        	cmp	$15                     ; 0x15 <__rc5>
    4492: d0 f2        	bne	$4486 <__umodhi3+0x78>
    4494: c4 14        	cpy	$14                     ; 0x14 <__rc4>
    4496: 90 0b        	bcc	$44a3 <__umodhi3+0x95>
    4498: 85 12        	sta	$12                     ; 0x12 <__rc2>
    449a: 38           	sec
    449b: 98           	tya
    449c: e5 14        	sbc	$14                     ; 0x14 <__rc4>
    449e: a8           	tay
    449f: a5 12        	lda	$12                     ; 0x12 <__rc2>
    44a1: e5 15        	sbc	$15                     ; 0x15 <__rc5>
    44a3: ca           	dex
    44a4: d0 e6        	bne	$448c <__umodhi3+0x7e>
    44a6: 80 08        	bra	$44b0 <__umodhi3+0xa2>
    44a8: 38           	sec
    44a9: 98           	tya
    44aa: e5 12        	sbc	$12                     ; 0x12 <__rc2>
    44ac: a8           	tay
    44ad: 8a           	txa
    44ae: e5 13        	sbc	$13                     ; 0x13 <__rc3>
    44b0: aa           	tax
    44b1: 98           	tya
    44b2: 60           	rts

000044b3 <__mulsi3>:
    44b3: a4 17        	ldy	$17                     ; 0x17 <__rc7>
    44b5: d0 0f        	bne	$44c6 <__mulsi3+0x13>
    44b7: a4 16        	ldy	$16                     ; 0x16 <__rc6>
    44b9: d0 0b        	bne	$44c6 <__mulsi3+0x13>
    44bb: a4 15        	ldy	$15                     ; 0x15 <__rc5>
    44bd: d0 07        	bne	$44c6 <__mulsi3+0x13>
    44bf: a4 14        	ldy	$14                     ; 0x14 <__rc4>
    44c1: d0 03        	bne	$44c6 <__mulsi3+0x13>
    44c3: 4c 1a 45     	jmp	$451a <__mulsi3+0x67>
    44c6: 85 18        	sta	$18                     ; 0x18 <__rc8>
    44c8: 86 19        	stx	$19                     ; 0x19 <__rc9>
    44ca: a0 00        	ldy	#$0
    44cc: a2 00        	ldx	#$0
    44ce: 64 1a        	stz	$1a                     ; 0x1a <__rc10>
    44d0: 98           	tya
    44d1: 46 17        	lsr	$17                     ; 0x17 <__rc7>
    44d3: 66 16        	ror	$16                     ; 0x16 <__rc6>
    44d5: 66 15        	ror	$15                     ; 0x15 <__rc5>
    44d7: 66 14        	ror	$14                     ; 0x14 <__rc4>
    44d9: 90 15        	bcc	$44f0 <__mulsi3+0x3d>
    44db: 85 1b        	sta	$1b                     ; 0x1b <__rc11>
    44dd: 98           	tya
    44de: 18           	clc
    44df: 65 18        	adc	$18                     ; 0x18 <__rc8>
    44e1: a8           	tay
    44e2: 8a           	txa
    44e3: 65 19        	adc	$19                     ; 0x19 <__rc9>
    44e5: aa           	tax
    44e6: a5 1a        	lda	$1a                     ; 0x1a <__rc10>
    44e8: 65 12        	adc	$12                     ; 0x12 <__rc2>
    44ea: 85 1a        	sta	$1a                     ; 0x1a <__rc10>
    44ec: a5 1b        	lda	$1b                     ; 0x1b <__rc11>
    44ee: 65 13        	adc	$13                     ; 0x13 <__rc3>
    44f0: 06 18        	asl	$18                     ; 0x18 <__rc8>
    44f2: 26 19        	rol	$19                     ; 0x19 <__rc9>
    44f4: 26 12        	rol	$12                     ; 0x12 <__rc2>
    44f6: 26 13        	rol	$13                     ; 0x13 <__rc3>
    44f8: e6 17        	inc	$17                     ; 0x17 <__rc7>
    44fa: c6 17        	dec	$17                     ; 0x17 <__rc7>
    44fc: d0 d3        	bne	$44d1 <__mulsi3+0x1e>
    44fe: e6 16        	inc	$16                     ; 0x16 <__rc6>
    4500: c6 16        	dec	$16                     ; 0x16 <__rc6>
    4502: d0 cd        	bne	$44d1 <__mulsi3+0x1e>
    4504: e6 15        	inc	$15                     ; 0x15 <__rc5>
    4506: c6 15        	dec	$15                     ; 0x15 <__rc5>
    4508: d0 c7        	bne	$44d1 <__mulsi3+0x1e>
    450a: e6 14        	inc	$14                     ; 0x14 <__rc4>
    450c: c6 14        	dec	$14                     ; 0x14 <__rc4>
    450e: d0 c1        	bne	$44d1 <__mulsi3+0x1e>
    4510: 5a           	phy
    4511: a4 1a        	ldy	$1a                     ; 0x1a <__rc10>
    4513: 84 12        	sty	$12                     ; 0x12 <__rc2>
    4515: 7a           	ply
    4516: 85 13        	sta	$13                     ; 0x13 <__rc3>
    4518: 98           	tya
    4519: 60           	rts
    451a: a0 00        	ldy	#$0
    451c: a2 00        	ldx	#$0
    451e: 64 1a        	stz	$1a                     ; 0x1a <__rc10>
    4520: 98           	tya
    4521: 80 ed        	bra	$4510 <__mulsi3+0x5d>
