
hackGfx.elf:	file format elf32-mos

SYMBOL TABLE:
00000000 l    df *ABS*	00000000 zero-bss.c
00000000 l    df *ABS*	00000000 zero-zp-bss.c
00000000 l    df *ABS*	00000000 copy-zp-data.c
00000000 l    df *ABS*	00000000 ld-temp.o
00000071 l     O .zp.bss	00000007 kernelEventData
00000030 l     O .zp.data	00000030 textColors
00000061 l     O .zp.bss	00000001 _col
00000062 l     O .zp.bss	00000001 _row
00000063 l     O .zp.bss	00000001 _active
00000064 l     O .zp.bss	00000001 _color
0000486e l     O .bss	0000000c _BITMAP_BASE
00000065 l     O .zp.bss	00000001 _tileSize.1
00000066 l     O .zp.bss	00000001 _tileSize.2
00000078 l     O .zp.bss	00000001 kernelError
0000431a l     F .text	000000a5 __umodhi3
00002529 l     F .text	000002dc bitmapClear
0000487a l     O .bss	00000002 theFile
00003376 l     F .text	00000d72 printf
000040e8 l     F .text	000001e6 malloc
0000007e l     O .zp.bss	00000004 gd3Location
0000007d l     O .zp.bss	00000001 oneLoop
00002a0a l     F .text	00000179 fileRead
00000082 l     O .zp.bss	00000004 totalWait
00000086 l     O .zp.bss	00000004 loopBackTo
00002f8f l     F .text	000001f4 copyToRAM
0000008a l     O .zp.bss	00000004 needle
0000008e l     O .zp.bss	00000004 samplesSoFar
0000498b l     O .bss	00000002 _ZN12_GLOBAL__N_19free_sizeE
0000498d l     O .bss	00000002 _ZN12_GLOBAL__N_19free_listE
0000498a l     O .bss	00000001 _ZN12_GLOBAL__N_19last_freeE
00000092 l     O .zp.bss	00000001 comeRightTrough
00002805 l     F .text	00000205 textPrint
00000070 l     O .zp.bss	00000001 tileAnim.1
0000006f l     O .zp.bss	00000001 wantSound
00000060 l     O .zp.data	00000001 wantText
00000079 l     O .zp.bss	00000004 tooBigWait
0000006c l     O .zp.bss	00000002 tm_xf1
0000006e l     O .zp.bss	00000001 tm_x1
00002b83 l     F .text	0000040c opl3_shadow
000043bf l     F .text	00000070 __mulsi3
00000069 l     O .zp.bss	00000002 tm_xf
0000006b l     O .zp.bss	00000001 tm_x
0000487c l     O .bss	0000010e opl3_instrument_defs
00003188 l     F .text	000000df _ZN12_GLOBAL__N_13putEcP6Status
00000067 l     O .zp.bss	00000002 __putchar.s
00003267 l     F .text	0000010f _ZN12_GLOBAL__N_112print_stringEPKcP6Status
00000093 l     O .zp.bss	00000001 _ZN12_GLOBAL__N_111initializedE
0000034a l     F .text	00000153 _ZN12_GLOBAL__N_19FreeChunk6insertEPvj
0000049e l     F .text	000000f0 _ZN12_GLOBAL__N_19FreeChunk6removeEv
00000611 g     F .text	00001f18 main
00010080 g       .pal	00000000 pal_end
00010000 g       .pal	00000000 pal_start
0003b400 g       .tile3	00000000 tile3_start
0003b900 g       .tile3	00000000 tile3_end
000005cb g       .text	00000000 PEEK24
000005ed g       .text	00000000 POKE24
00000014 g       *ABS*	00000000 __rc4
00000012 g       *ABS*	00000000 __rc2
00000346 g       .text	00000000 __after_main
00000332 g       .text	00000000 __do_init_stack
00000340 g       .text	00000000 __do_copy_zp_data
000005b4 g     F .text	00000017 __copy_zp_data
0000033a g       .text	00000000 __do_zero_bss
0000058e g     F .text	00000013 __zero_bss
0000033d g       .text	00000000 __do_zero_zp_bss
000005a1 g     F .text	00000013 __zero_zp_bss
00003183 g     F .text	00000005 exit
00000349 g       .text	00000000 _fini
000042fa  w    F .text	00000020 __memset
00001000  w      *ABS*	00000000 __heap_default_limit
00004990 g       .noinit	00000000 __heap_start
000042ce  w    F .text	0000002c memcpy
00000010 g       *ABS*	00000000 __rc0
00000016 g       *ABS*	00000000 __rc6
00000018 g       *ABS*	00000000 __rc8
0000001a g       *ABS*	00000000 __rc10
0000001c g       *ABS*	00000000 __rc12
0000001e g       *ABS*	00000000 __rc14
00000020 g       *ABS*	00000000 __rc16
00000022 g       *ABS*	00000000 __rc18
00000024 g       *ABS*	00000000 __rc20
00000026 g       *ABS*	00000000 __rc22
00000028 g       *ABS*	00000000 __rc24
0000002a g       *ABS*	00000000 __rc26
0000002c g       *ABS*	00000000 __rc28
0000002e g       *ABS*	00000000 __rc30
0000002f g       *ABS*	00000000 __rc31
00000300 g       *ABS*	00000000 __f256_start
0000a000 g       *ABS*	00000000 __stack
0000a000 g       *ABS*	00000000 __SLOT_ADDR
0800a000 g       *ABS*	00000000 __block8_lma
00002000 g       *ABS*	00000000 __BLOCK_SIZE
0900a000 g       *ABS*	00000000 __block9_lma
0a00a000 g       *ABS*	00000000 __block10_lma
0b00a000 g       *ABS*	00000000 __block11_lma
0c00a000 g       *ABS*	00000000 __block12_lma
0d00a000 g       *ABS*	00000000 __block13_lma
0e00a000 g       *ABS*	00000000 __block14_lma
0f00a000 g       *ABS*	00000000 __block15_lma
1000a000 g       *ABS*	00000000 __block16_lma
1100a000 g       *ABS*	00000000 __block17_lma
1200a000 g       *ABS*	00000000 __block18_lma
1300a000 g       *ABS*	00000000 __block19_lma
1400a000 g       *ABS*	00000000 __block20_lma
1500a000 g       *ABS*	00000000 __block21_lma
1600a000 g       *ABS*	00000000 __block22_lma
1700a000 g       *ABS*	00000000 __block23_lma
00010000 g       *ABS*	00000000 __pal_lma
00000080 g       *ABS*	00000000 __pal_size
0003b400 g       *ABS*	00000000 __tile3_lma
00000500 g       *ABS*	00000000 __tile3_size
0000486e g       .bss	00000000 __bss_start
00010080 g       .pal	00000000 end_pal
0003b900 g       .tile3	00000000 end_tile3
00000332 g       .text	00000000 _start
0000002d g       *ABS*	00000000 __rc29
0000002b g       *ABS*	00000000 __rc27
00000029 g       *ABS*	00000000 __rc25
00000027 g       *ABS*	00000000 __rc23
00000025 g       *ABS*	00000000 __rc21
00000023 g       *ABS*	00000000 __rc19
00000021 g       *ABS*	00000000 __rc17
0000001f g       *ABS*	00000000 __rc15
0000001d g       *ABS*	00000000 __rc13
0000001b g       *ABS*	00000000 __rc11
00000019 g       *ABS*	00000000 __rc9
00000017 g       *ABS*	00000000 __rc7
00000015 g       *ABS*	00000000 __rc5
00000013 g       *ABS*	00000000 __rc3
00000011 g       *ABS*	00000000 __rc1
00000030 g       .zp.data	00000000 __zp_data_start
00000300 g       *ABS*	00000000 __zp_data_load_start
00000031 g       *ABS*	00000000 __zp_data_size
00000061 g       .zp.bss	00000000 __zp_bss_start
00000033 g       *ABS*	00000000 __zp_bss_size
00000332 g       .text	00000000 _init
0000442f g       .text	00000000 __init_array_start
0000442f g       .text	00000000 __init_array_end
0000442f g       .text	00000000 __fini_array_start
0000442f g       .text	00000000 __fini_array_end
0000486e g       .data	00000000 __data_start
0000486e g       .data	00000000 __data_end
0000486e g       *ABS*	00000000 __data_load_start
00000000 g       *ABS*	00000000 __data_size
0000498f g       .bss	00000000 __bss_end
00000121 g       *ABS*	00000000 __bss_size
0000498f g       .noinit	00000000 end_block8
0000498f g       .noinit	00000000 end_block9
0000498f g       .noinit	00000000 end_block10
0000498f g       .noinit	00000000 end_block11
0000498f g       .noinit	00000000 end_block12
0000498f g       .noinit	00000000 end_block13
0000498f g       .noinit	00000000 end_block14
0000498f g       .noinit	00000000 end_block15
0000498f g       .noinit	00000000 end_block16
0000498f g       .noinit	00000000 end_block17
0000498f g       .noinit	00000000 end_block18
0000498f g       .noinit	00000000 end_block19
0000498f g       .noinit	00000000 end_block20
0000498f g       .noinit	00000000 end_block21
0000498f g       .noinit	00000000 end_block22
0000498f g       .noinit	00000000 end_block23

Disassembly of section .text:

00000332 <_start>:
     332: a9 00        	lda	#$0
     334: 85 10        	sta	$10                     ; 0x10 <__rc0>
     336: a9 a0        	lda	#$a0
     338: 85 11        	sta	$11                     ; 0x11 <__rc1>

0000033a <__do_zero_bss>:
     33a: 20 8e 05     	jsr	$58e <__zero_bss>

0000033d <__do_zero_zp_bss>:
     33d: 20 a1 05     	jsr	$5a1 <__zero_zp_bss>

00000340 <__do_copy_zp_data>:
     340: 20 b4 05     	jsr	$5b4 <__copy_zp_data>
     343: 20 11 06     	jsr	$611 <main>

00000346 <__after_main>:
     346: 4c 83 31     	jmp	$3183 <exit>

00000349 <_fini>:
     349: 60           	rts

0000034a <_ZN12_GLOBAL__N_19FreeChunk6insertEPvj>:
     34a: 85 16        	sta	$16                     ; 0x16 <__rc6>
     34c: 29 fe        	and	#$fe
     34e: 85 14        	sta	$14                     ; 0x14 <__rc4>
     350: a0 01        	ldy	#$1
     352: 98           	tya
     353: 32 12        	and	($12)                   ; 0x12 <__rc2>
     355: 05 14        	ora	$14                     ; 0x14 <__rc4>
     357: 92 12        	sta	($12)                   ; 0x12 <__rc2>
     359: a5 12        	lda	$12                     ; 0x12 <__rc2>
     35b: 18           	clc
     35c: 65 14        	adc	$14                     ; 0x14 <__rc4>
     35e: 85 15        	sta	$15                     ; 0x15 <__rc5>
     360: 8a           	txa
     361: 65 13        	adc	$13                     ; 0x13 <__rc3>
     363: 85 14        	sta	$14                     ; 0x14 <__rc4>
     365: 18           	clc
     366: a5 15        	lda	$15                     ; 0x15 <__rc5>
     368: 69 fe        	adc	#$fe
     36a: 85 17        	sta	$17                     ; 0x17 <__rc7>
     36c: a5 14        	lda	$14                     ; 0x14 <__rc4>
     36e: 69 ff        	adc	#$ff
     370: 85 15        	sta	$15                     ; 0x15 <__rc5>
     372: a5 17        	lda	$17                     ; 0x17 <__rc7>
     374: 85 14        	sta	$14                     ; 0x14 <__rc4>
     376: 8a           	txa
     377: 91 12        	sta	($12),y                 ; 0x12 <__rc2>
     379: a5 16        	lda	$16                     ; 0x16 <__rc6>
     37b: 92 14        	sta	($14)                   ; 0x14 <__rc4>
     37d: 8a           	txa
     37e: 91 14        	sta	($14),y                 ; 0x14 <__rc4>
     380: a2 01        	ldx	#$1
     382: 86 18        	stx	$18                     ; 0x18 <__rc8>
     384: b1 12        	lda	($12),y                 ; 0x12 <__rc2>
     386: 85 14        	sta	$14                     ; 0x14 <__rc4>
     388: a9 fe        	lda	#$fe
     38a: 32 12        	and	($12)                   ; 0x12 <__rc2>
     38c: 18           	clc
     38d: 6d 8b 49     	adc	$498b                   ; 0x498b <_ZN12_GLOBAL__N_19free_sizeE>
     390: aa           	tax
     391: a5 14        	lda	$14                     ; 0x14 <__rc4>
     393: 6d 8c 49     	adc	$498c                   ; 0x498c <_ZN12_GLOBAL__N_19free_sizeE+0x1>
     396: a8           	tay
     397: 18           	clc
     398: 8a           	txa
     399: 69 fe        	adc	#$fe
     39b: aa           	tax
     39c: 98           	tya
     39d: 69 ff        	adc	#$ff
     39f: 8e 8b 49     	stx	$498b                   ; 0x498b <_ZN12_GLOBAL__N_19free_sizeE>
     3a2: 8d 8c 49     	sta	$498c                   ; 0x498c <_ZN12_GLOBAL__N_19free_sizeE+0x1>
     3a5: ae 8d 49     	ldx	$498d                   ; 0x498d <_ZN12_GLOBAL__N_19free_listE>
     3a8: 86 16        	stx	$16                     ; 0x16 <__rc6>
     3aa: ac 8e 49     	ldy	$498e                   ; 0x498e <_ZN12_GLOBAL__N_19free_listE+0x1>
     3ad: a2 00        	ldx	#$0
     3af: 86 14        	stx	$14                     ; 0x14 <__rc4>
     3b1: a2 00        	ldx	#$0
     3b3: 86 15        	stx	$15                     ; 0x15 <__rc5>
     3b5: 84 17        	sty	$17                     ; 0x17 <__rc7>
     3b7: c4 15        	cpy	$15                     ; 0x15 <__rc5>
     3b9: d0 3e        	bne	$3f9 <_ZN12_GLOBAL__N_19FreeChunk6insertEPvj+0xaf>
     3bb: a6 16        	ldx	$16                     ; 0x16 <__rc6>
     3bd: e4 14        	cpx	$14                     ; 0x14 <__rc4>
     3bf: d0 38        	bne	$3f9 <_ZN12_GLOBAL__N_19FreeChunk6insertEPvj+0xaf>
     3c1: a0 04        	ldy	#$4
     3c3: a5 12        	lda	$12                     ; 0x12 <__rc2>
     3c5: 18           	clc
     3c6: 69 04        	adc	#$4
     3c8: 85 14        	sta	$14                     ; 0x14 <__rc4>
     3ca: a5 13        	lda	$13                     ; 0x13 <__rc3>
     3cc: 69 00        	adc	#$0
     3ce: 18           	clc
     3cf: 85 15        	sta	$15                     ; 0x15 <__rc5>
     3d1: a5 12        	lda	$12                     ; 0x12 <__rc2>
     3d3: 91 12        	sta	($12),y                 ; 0x12 <__rc2>
     3d5: a0 02        	ldy	#$2
     3d7: 85 17        	sta	$17                     ; 0x17 <__rc7>
     3d9: 69 02        	adc	#$2
     3db: 85 16        	sta	$16                     ; 0x16 <__rc6>
     3dd: a5 17        	lda	$17                     ; 0x17 <__rc7>
     3df: 91 12        	sta	($12),y                 ; 0x12 <__rc2>
     3e1: a5 13        	lda	$13                     ; 0x13 <__rc3>
     3e3: 69 00        	adc	#$0
     3e5: 85 17        	sta	$17                     ; 0x17 <__rc7>
     3e7: 88           	dey
     3e8: a5 13        	lda	$13                     ; 0x13 <__rc3>
     3ea: 91 14        	sta	($14),y                 ; 0x14 <__rc4>
     3ec: 91 16        	sta	($16),y                 ; 0x16 <__rc6>
     3ee: a6 12        	ldx	$12                     ; 0x12 <__rc2>
     3f0: 8e 8d 49     	stx	$498d                   ; 0x498d <_ZN12_GLOBAL__N_19free_listE>
     3f3: a6 13        	ldx	$13                     ; 0x13 <__rc3>
     3f5: 8e 8e 49     	stx	$498e                   ; 0x498e <_ZN12_GLOBAL__N_19free_listE+0x1>
     3f8: 60           	rts
     3f9: a6 12        	ldx	$12                     ; 0x12 <__rc2>
     3fb: a5 12        	lda	$12                     ; 0x12 <__rc2>
     3fd: 18           	clc
     3fe: 69 02        	adc	#$2
     400: 85 14        	sta	$14                     ; 0x14 <__rc4>
     402: a4 16        	ldy	$16                     ; 0x16 <__rc6>
     404: a5 13        	lda	$13                     ; 0x13 <__rc3>
     406: 69 00        	adc	#$0
     408: 85 15        	sta	$15                     ; 0x15 <__rc5>
     40a: 84 19        	sty	$19                     ; 0x19 <__rc9>
     40c: a4 17        	ldy	$17                     ; 0x17 <__rc7>
     40e: 84 1a        	sty	$1a                     ; 0x1a <__rc10>
     410: a0 02        	ldy	#$2
     412: a5 19        	lda	$19                     ; 0x19 <__rc9>
     414: 91 12        	sta	($12),y                 ; 0x12 <__rc2>
     416: 84 1d        	sty	$1d                     ; 0x1d <__rc13>
     418: a4 18        	ldy	$18                     ; 0x18 <__rc8>
     41a: a5 1a        	lda	$1a                     ; 0x1a <__rc10>
     41c: 91 14        	sta	($14),y                 ; 0x14 <__rc4>
     41e: 84 1e        	sty	$1e                     ; 0x1e <__rc14>
     420: 18           	clc
     421: a5 19        	lda	$19                     ; 0x19 <__rc9>
     423: 69 04        	adc	#$4
     425: 85 18        	sta	$18                     ; 0x18 <__rc8>
     427: a5 1a        	lda	$1a                     ; 0x1a <__rc10>
     429: 69 00        	adc	#$0
     42b: 85 19        	sta	$19                     ; 0x19 <__rc9>
     42d: 8a           	txa
     42e: 18           	clc
     42f: 69 04        	adc	#$4
     431: 85 1a        	sta	$1a                     ; 0x1a <__rc10>
     433: a5 13        	lda	$13                     ; 0x13 <__rc3>
     435: 69 00        	adc	#$0
     437: 85 1b        	sta	$1b                     ; 0x1b <__rc11>
     439: a0 04        	ldy	#$4
     43b: b1 16        	lda	($16),y                 ; 0x16 <__rc6>
     43d: 85 16        	sta	$16                     ; 0x16 <__rc6>
     43f: 85 22        	sta	$22                     ; 0x22 <__rc18>
     441: a4 1e        	ldy	$1e                     ; 0x1e <__rc14>
     443: b1 18        	lda	($18),y                 ; 0x18 <__rc8>
     445: 85 17        	sta	$17                     ; 0x17 <__rc7>
     447: 85 19        	sta	$19                     ; 0x19 <__rc9>
     449: a0 04        	ldy	#$4
     44b: a5 22        	lda	$22                     ; 0x22 <__rc18>
     44d: 91 12        	sta	($12),y                 ; 0x12 <__rc2>
     44f: 84 1f        	sty	$1f                     ; 0x1f <__rc15>
     451: a4 1e        	ldy	$1e                     ; 0x1e <__rc14>
     453: a5 19        	lda	$19                     ; 0x19 <__rc9>
     455: 91 1a        	sta	($1a),y                 ; 0x1a <__rc10>
     457: 84 1a        	sty	$1a                     ; 0x1a <__rc10>
     459: 18           	clc
     45a: a5 22        	lda	$22                     ; 0x22 <__rc18>
     45c: 69 02        	adc	#$2
     45e: 85 18        	sta	$18                     ; 0x18 <__rc8>
     460: a5 19        	lda	$19                     ; 0x19 <__rc9>
     462: 69 00        	adc	#$0
     464: 85 19        	sta	$19                     ; 0x19 <__rc9>
     466: 8a           	txa
     467: a4 1d        	ldy	$1d                     ; 0x1d <__rc13>
     469: 91 16        	sta	($16),y                 ; 0x16 <__rc6>
     46b: a5 13        	lda	$13                     ; 0x13 <__rc3>
     46d: a4 1a        	ldy	$1a                     ; 0x1a <__rc10>
     46f: 91 18        	sta	($18),y                 ; 0x18 <__rc8>
     471: a4 1d        	ldy	$1d                     ; 0x1d <__rc13>
     473: b1 12        	lda	($12),y                 ; 0x12 <__rc2>
     475: 85 16        	sta	$16                     ; 0x16 <__rc6>
     477: 85 19        	sta	$19                     ; 0x19 <__rc9>
     479: a4 1a        	ldy	$1a                     ; 0x1a <__rc10>
     47b: b1 14        	lda	($14),y                 ; 0x14 <__rc4>
     47d: 84 18        	sty	$18                     ; 0x18 <__rc8>
     47f: 85 17        	sta	$17                     ; 0x17 <__rc7>
     481: 85 14        	sta	$14                     ; 0x14 <__rc4>
     483: 8a           	txa
     484: a4 1f        	ldy	$1f                     ; 0x1f <__rc15>
     486: 91 16        	sta	($16),y                 ; 0x16 <__rc6>
     488: 18           	clc
     489: a5 19        	lda	$19                     ; 0x19 <__rc9>
     48b: 69 04        	adc	#$4
     48d: a8           	tay
     48e: a5 14        	lda	$14                     ; 0x14 <__rc4>
     490: 69 00        	adc	#$0
     492: 84 14        	sty	$14                     ; 0x14 <__rc4>
     494: 85 15        	sta	$15                     ; 0x15 <__rc5>
     496: a5 13        	lda	$13                     ; 0x13 <__rc3>
     498: a4 18        	ldy	$18                     ; 0x18 <__rc8>
     49a: 91 14        	sta	($14),y                 ; 0x14 <__rc4>
     49c: 60           	rts
     49d: 00           	brk

0000049e <_ZN12_GLOBAL__N_19FreeChunk6removeEv>:
     49e: a0 01        	ldy	#$1
     4a0: a9 fe        	lda	#$fe
     4a2: 32 12        	and	($12)                   ; 0x12 <__rc2>
     4a4: 85 14        	sta	$14                     ; 0x14 <__rc4>
     4a6: ad 8b 49     	lda	$498b                   ; 0x498b <_ZN12_GLOBAL__N_19free_sizeE>
     4a9: ae 8c 49     	ldx	$498c                   ; 0x498c <_ZN12_GLOBAL__N_19free_sizeE+0x1>
     4ac: 38           	sec
     4ad: e5 14        	sbc	$14                     ; 0x14 <__rc4>
     4af: 85 17        	sta	$17                     ; 0x17 <__rc7>
     4b1: 8a           	txa
     4b2: f1 12        	sbc	($12),y                 ; 0x12 <__rc2>
     4b4: 85 14        	sta	$14                     ; 0x14 <__rc4>
     4b6: a2 01        	ldx	#$1
     4b8: 86 16        	stx	$16                     ; 0x16 <__rc6>
     4ba: 18           	clc
     4bb: a5 17        	lda	$17                     ; 0x17 <__rc7>
     4bd: 69 02        	adc	#$2
     4bf: 85 15        	sta	$15                     ; 0x15 <__rc5>
     4c1: a5 14        	lda	$14                     ; 0x14 <__rc4>
     4c3: 69 00        	adc	#$0
     4c5: a6 15        	ldx	$15                     ; 0x15 <__rc5>
     4c7: 8e 8b 49     	stx	$498b                   ; 0x498b <_ZN12_GLOBAL__N_19free_sizeE>
     4ca: 8d 8c 49     	sta	$498c                   ; 0x498c <_ZN12_GLOBAL__N_19free_sizeE+0x1>
     4cd: a5 12        	lda	$12                     ; 0x12 <__rc2>
     4cf: 18           	clc
     4d0: 69 02        	adc	#$2
     4d2: 85 14        	sta	$14                     ; 0x14 <__rc4>
     4d4: a5 13        	lda	$13                     ; 0x13 <__rc3>
     4d6: 69 00        	adc	#$0
     4d8: c8           	iny
     4d9: 85 15        	sta	$15                     ; 0x15 <__rc5>
     4db: b1 12        	lda	($12),y                 ; 0x12 <__rc2>
     4dd: aa           	tax
     4de: a4 16        	ldy	$16                     ; 0x16 <__rc6>
     4e0: b1 14        	lda	($14),y                 ; 0x14 <__rc4>
     4e2: 85 19        	sta	$19                     ; 0x19 <__rc9>
     4e4: c5 13        	cmp	$13                     ; 0x13 <__rc3>
     4e6: d0 0f        	bne	$4f7 <_ZN12_GLOBAL__N_19FreeChunk6removeEv+0x59>
     4e8: e4 12        	cpx	$12                     ; 0x12 <__rc2>
     4ea: d0 0b        	bne	$4f7 <_ZN12_GLOBAL__N_19FreeChunk6removeEv+0x59>
     4ec: a2 00        	ldx	#$0
     4ee: 86 14        	stx	$14                     ; 0x14 <__rc4>
     4f0: a2 00        	ldx	#$0
     4f2: 86 15        	stx	$15                     ; 0x15 <__rc5>
     4f4: 4c 83 05     	jmp	$583 <_ZN12_GLOBAL__N_19FreeChunk6removeEv+0xe5>
     4f7: 86 18        	stx	$18                     ; 0x18 <__rc8>
     4f9: a6 12        	ldx	$12                     ; 0x12 <__rc2>
     4fb: a5 12        	lda	$12                     ; 0x12 <__rc2>
     4fd: 86 1c        	stx	$1c                     ; 0x1c <__rc12>
     4ff: 18           	clc
     500: 69 04        	adc	#$4
     502: 85 14        	sta	$14                     ; 0x14 <__rc4>
     504: a5 13        	lda	$13                     ; 0x13 <__rc3>
     506: 69 00        	adc	#$0
     508: a0 04        	ldy	#$4
     50a: 85 15        	sta	$15                     ; 0x15 <__rc5>
     50c: b1 12        	lda	($12),y                 ; 0x12 <__rc2>
     50e: 85 1d        	sta	$1d                     ; 0x1d <__rc13>
     510: a2 04        	ldx	#$4
     512: 86 1a        	stx	$1a                     ; 0x1a <__rc10>
     514: 18           	clc
     515: 69 02        	adc	#$2
     517: 85 16        	sta	$16                     ; 0x16 <__rc6>
     519: a0 01        	ldy	#$1
     51b: b1 14        	lda	($14),y                 ; 0x14 <__rc4>
     51d: aa           	tax
     51e: 84 1e        	sty	$1e                     ; 0x1e <__rc14>
     520: 69 00        	adc	#$0
     522: a4 16        	ldy	$16                     ; 0x16 <__rc6>
     524: 84 14        	sty	$14                     ; 0x14 <__rc4>
     526: 85 15        	sta	$15                     ; 0x15 <__rc5>
     528: a4 1d        	ldy	$1d                     ; 0x1d <__rc13>
     52a: 84 16        	sty	$16                     ; 0x16 <__rc6>
     52c: 86 17        	stx	$17                     ; 0x17 <__rc7>
     52e: a5 18        	lda	$18                     ; 0x18 <__rc8>
     530: a0 02        	ldy	#$2
     532: 91 16        	sta	($16),y                 ; 0x16 <__rc6>
     534: 84 16        	sty	$16                     ; 0x16 <__rc6>
     536: a5 19        	lda	$19                     ; 0x19 <__rc9>
     538: a4 1e        	ldy	$1e                     ; 0x1e <__rc14>
     53a: 91 14        	sta	($14),y                 ; 0x14 <__rc4>
     53c: 18           	clc
     53d: a5 1c        	lda	$1c                     ; 0x1c <__rc12>
     53f: 69 02        	adc	#$2
     541: 85 14        	sta	$14                     ; 0x14 <__rc4>
     543: a5 13        	lda	$13                     ; 0x13 <__rc3>
     545: 69 00        	adc	#$0
     547: 85 15        	sta	$15                     ; 0x15 <__rc5>
     549: a4 16        	ldy	$16                     ; 0x16 <__rc6>
     54b: b1 12        	lda	($12),y                 ; 0x12 <__rc2>
     54d: 85 16        	sta	$16                     ; 0x16 <__rc6>
     54f: a4 1e        	ldy	$1e                     ; 0x1e <__rc14>
     551: b1 14        	lda	($14),y                 ; 0x14 <__rc4>
     553: 84 18        	sty	$18                     ; 0x18 <__rc8>
     555: a4 16        	ldy	$16                     ; 0x16 <__rc6>
     557: 84 14        	sty	$14                     ; 0x14 <__rc4>
     559: 85 15        	sta	$15                     ; 0x15 <__rc5>
     55b: 85 17        	sta	$17                     ; 0x17 <__rc7>
     55d: a4 1a        	ldy	$1a                     ; 0x1a <__rc10>
     55f: a5 1d        	lda	$1d                     ; 0x1d <__rc13>
     561: 91 14        	sta	($14),y                 ; 0x14 <__rc4>
     563: 18           	clc
     564: a5 16        	lda	$16                     ; 0x16 <__rc6>
     566: 69 04        	adc	#$4
     568: 85 16        	sta	$16                     ; 0x16 <__rc6>
     56a: a5 17        	lda	$17                     ; 0x17 <__rc7>
     56c: 69 00        	adc	#$0
     56e: 85 17        	sta	$17                     ; 0x17 <__rc7>
     570: 8a           	txa
     571: a4 18        	ldy	$18                     ; 0x18 <__rc8>
     573: 91 16        	sta	($16),y                 ; 0x16 <__rc6>
     575: ae 8e 49     	ldx	$498e                   ; 0x498e <_ZN12_GLOBAL__N_19free_listE+0x1>
     578: e4 13        	cpx	$13                     ; 0x13 <__rc3>
     57a: d0 11        	bne	$58d <_ZN12_GLOBAL__N_19FreeChunk6removeEv+0xef>
     57c: ae 8d 49     	ldx	$498d                   ; 0x498d <_ZN12_GLOBAL__N_19free_listE>
     57f: e4 12        	cpx	$12                     ; 0x12 <__rc2>
     581: d0 0a        	bne	$58d <_ZN12_GLOBAL__N_19FreeChunk6removeEv+0xef>
     583: a6 14        	ldx	$14                     ; 0x14 <__rc4>
     585: a4 15        	ldy	$15                     ; 0x15 <__rc5>
     587: 8e 8d 49     	stx	$498d                   ; 0x498d <_ZN12_GLOBAL__N_19free_listE>
     58a: 8c 8e 49     	sty	$498e                   ; 0x498e <_ZN12_GLOBAL__N_19free_listE+0x1>
     58d: 60           	rts

0000058e <__zero_bss>:
     58e: a2 21        	ldx	#$21
     590: a0 01        	ldy	#$1
     592: a9 6e        	lda	#$6e
     594: 85 12        	sta	$12                     ; 0x12 <__rc2>
     596: a9 48        	lda	#$48
     598: 85 13        	sta	$13                     ; 0x13 <__rc3>
     59a: a9 00        	lda	#$0
     59c: 84 14        	sty	$14                     ; 0x14 <__rc4>
     59e: 4c fa 42     	jmp	$42fa <__memset>

000005a1 <__zero_zp_bss>:
     5a1: a2 33        	ldx	#$33
     5a3: a0 00        	ldy	#$0
     5a5: a9 61        	lda	#$61
     5a7: 85 12        	sta	$12                     ; 0x12 <__rc2>
     5a9: a9 00        	lda	#$0
     5ab: 85 13        	sta	$13                     ; 0x13 <__rc3>
     5ad: a9 00        	lda	#$0
     5af: 84 14        	sty	$14                     ; 0x14 <__rc4>
     5b1: 4c fa 42     	jmp	$42fa <__memset>

000005b4 <__copy_zp_data>:
     5b4: a9 31        	lda	#$31
     5b6: a2 00        	ldx	#$0
     5b8: a0 30        	ldy	#$30
     5ba: 84 12        	sty	$12                     ; 0x12 <__rc2>
     5bc: a0 00        	ldy	#$0
     5be: 84 13        	sty	$13                     ; 0x13 <__rc3>
     5c0: a0 00        	ldy	#$0
     5c2: 84 14        	sty	$14                     ; 0x14 <__rc4>
     5c4: a0 03        	ldy	#$3
     5c6: 84 15        	sty	$15                     ; 0x15 <__rc5>
     5c8: 4c ce 42     	jmp	$42ce <memcpy>

000005cb <PEEK24>:
     5cb: 85 05        	sta	$5                      ; 0x5 <__data_size+0x5>
     5cd: 86 06        	stx	$6                      ; 0x6 <__data_size+0x6>
     5cf: a5 12        	lda	$12                     ; 0x12 <__rc2>
     5d1: 85 07        	sta	$7                      ; 0x7 <__data_size+0x7>
     5d3: a6 00        	ldx	$0                      ; 0x0 <__data_size>
     5d5: a4 01        	ldy	$1                      ; 0x1 <__data_size+0x1>
     5d7: 8a           	txa
     5d8: 09 08        	ora	#$8
     5da: 08           	php
     5db: 78           	sei
     5dc: 85 00        	sta	$0                      ; 0x0 <__data_size>
     5de: 98           	tya
     5df: 09 30        	ora	#$30
     5e1: 85 01        	sta	$1                      ; 0x1 <__data_size+0x1>
     5e3: a7 05        	smb	$2,$5                   ; 0x5 <__data_size+0x5>
     5e5: 86 00        	stx	$0                      ; 0x0 <__data_size>
     5e7: 84 01        	sty	$1                      ; 0x1 <__data_size+0x1>
     5e9: 28           	plp
     5ea: a2 00        	ldx	#$0
     5ec: 60           	rts

000005ed <POKE24>:
     5ed: 85 05        	sta	$5                      ; 0x5 <__data_size+0x5>
     5ef: 86 06        	stx	$6                      ; 0x6 <__data_size+0x6>
     5f1: a5 12        	lda	$12                     ; 0x12 <__rc2>
     5f3: 85 07        	sta	$7                      ; 0x7 <__data_size+0x7>
     5f5: a6 00        	ldx	$0                      ; 0x0 <__data_size>
     5f7: a4 01        	ldy	$1                      ; 0x1 <__data_size+0x1>
     5f9: 8a           	txa
     5fa: 09 08        	ora	#$8
     5fc: 08           	php
     5fd: 78           	sei
     5fe: 85 00        	sta	$0                      ; 0x0 <__data_size>
     600: 98           	tya
     601: 09 48        	ora	#$48
     603: 85 01        	sta	$1                      ; 0x1 <__data_size+0x1>
     605: a5 14        	lda	$14                     ; 0x14 <__rc4>
     607: 87 05        	smb	$0,$5                   ; 0x5 <__data_size+0x5>
     609: 86 00        	stx	$0                      ; 0x0 <__data_size>
     60b: 84 01        	sty	$1                      ; 0x1 <__data_size+0x1>
     60d: 28           	plp
     60e: a2 00        	ldx	#$0
     610: 60           	rts

00000611 <main>:
     611: 18           	clc
     612: a5 10        	lda	$10                     ; 0x10 <__rc0>
     614: 69 dd        	adc	#$dd
     616: 85 10        	sta	$10                     ; 0x10 <__rc0>
     618: a5 11        	lda	$11                     ; 0x11 <__rc1>
     61a: 69 ff        	adc	#$ff
     61c: 85 11        	sta	$11                     ; 0x11 <__rc1>
     61e: a6 24        	ldx	$24                     ; 0x24 <__rc20>
     620: da           	phx
     621: a6 25        	ldx	$25                     ; 0x25 <__rc21>
     623: da           	phx
     624: a6 26        	ldx	$26                     ; 0x26 <__rc22>
     626: da           	phx
     627: a6 27        	ldx	$27                     ; 0x27 <__rc23>
     629: da           	phx
     62a: a5 28        	lda	$28                     ; 0x28 <__rc24>
     62c: a0 07        	ldy	#$7
     62e: 91 10        	sta	($10),y                 ; 0x10 <__rc0>
     630: a5 29        	lda	$29                     ; 0x29 <__rc25>
     632: 88           	dey
     633: 91 10        	sta	($10),y                 ; 0x10 <__rc0>
     635: a5 2a        	lda	$2a                     ; 0x2a <__rc26>
     637: 88           	dey
     638: 91 10        	sta	($10),y                 ; 0x10 <__rc0>
     63a: a5 2b        	lda	$2b                     ; 0x2b <__rc27>
     63c: 88           	dey
     63d: 91 10        	sta	($10),y                 ; 0x10 <__rc0>
     63f: a5 2c        	lda	$2c                     ; 0x2c <__rc28>
     641: 88           	dey
     642: 91 10        	sta	($10),y                 ; 0x10 <__rc0>
     644: a5 2d        	lda	$2d                     ; 0x2d <__rc29>
     646: 88           	dey
     647: 91 10        	sta	($10),y                 ; 0x10 <__rc0>
     649: a5 2e        	lda	$2e                     ; 0x2e <__rc30>
     64b: 88           	dey
     64c: 91 10        	sta	($10),y                 ; 0x10 <__rc0>
     64e: a5 2f        	lda	$2f                     ; 0x2f <__rc31>
     650: 88           	dey
     651: 91 10        	sta	($10),y                 ; 0x10 <__rc0>
     653: 64 1a        	stz	$1a                     ; 0x1a <__rc10>
     655: a2 00        	ldx	#$0
     657: 86 18        	stx	$18                     ; 0x18 <__rc8>
     659: a2 d0        	ldx	#$d0
     65b: 86 19        	stx	$19                     ; 0x19 <__rc9>
     65d: a2 00        	ldx	#$0
     65f: 86 14        	stx	$14                     ; 0x14 <__rc4>
     661: a2 d8        	ldx	#$d8
     663: 86 15        	stx	$15                     ; 0x15 <__rc5>
     665: a2 00        	ldx	#$0
     667: a0 10        	ldy	#$10
     669: a9 90        	lda	#$90
     66b: 86 12        	stx	$12                     ; 0x12 <__rc2>
     66d: 84 13        	sty	$13                     ; 0x13 <__rc3>
     66f: 18           	clc
     670: 65 12        	adc	$12                     ; 0x12 <__rc2>
     672: a0 09        	ldy	#$9
     674: 91 10        	sta	($10),y                 ; 0x10 <__rc0>
     676: a9 49        	lda	#$49
     678: 65 13        	adc	$13                     ; 0x13 <__rc3>
     67a: 88           	dey
     67b: 91 10        	sta	($10),y                 ; 0x10 <__rc0>
     67d: a2 00        	ldx	#$0
     67f: 86 16        	stx	$16                     ; 0x16 <__rc6>
     681: a2 d4        	ldx	#$d4
     683: 86 17        	stx	$17                     ; 0x17 <__rc7>
     685: a2 00        	ldx	#$0
     687: 86 12        	stx	$12                     ; 0x12 <__rc2>
     689: a2 dc        	ldx	#$dc
     68b: 86 13        	stx	$13                     ; 0x13 <__rc3>
     68d: a2 00        	ldx	#$0
     68f: 86 1c        	stx	$1c                     ; 0x1c <__rc12>
     691: a2 c0        	ldx	#$c0
     693: 86 1d        	stx	$1d                     ; 0x1d <__rc13>
     695: 64 01        	stz	$1                      ; 0x1 <__data_size+0x1>
     697: a2 3f        	ldx	#$3f
     699: 8e 00 d0     	stx	$d000                   ; 0xd000 <__heap_start+0x8670>
     69c: a2 b3        	ldx	#$b3
     69e: 86 00        	stx	$0                      ; 0x0 <__data_size>
     6a0: 64 08        	stz	$8                      ; 0x8 <__data_size+0x8>
     6a2: a2 01        	ldx	#$1
     6a4: 86 09        	stx	$9                      ; 0x9 <__data_size+0x9>
     6a6: e8           	inx
     6a7: 86 0a        	stx	$a                      ; 0xa <__data_size+0xa>
     6a9: e8           	inx
     6aa: 86 0b        	stx	$b                      ; 0xb <__data_size+0xb>
     6ac: e8           	inx
     6ad: 86 0c        	stx	$c                      ; 0xc <__data_size+0xc>
     6af: e8           	inx
     6b0: 86 0d        	stx	$d                      ; 0xd <__data_size+0xd>
     6b2: a2 71        	ldx	#$71
     6b4: a9 00        	lda	#$0
     6b6: 86 f0        	stx	$f0                     ; 0xf0 <__pal_size+0x70>
     6b8: 85 f1        	sta	$f1                     ; 0xf1 <__pal_size+0x71>
     6ba: a6 01        	ldx	$1                      ; 0x1 <__data_size+0x1>
     6bc: a0 01        	ldy	#$1
     6be: 84 01        	sty	$1                      ; 0x1 <__data_size+0x1>
     6c0: a5 1a        	lda	$1a                     ; 0x1a <__rc10>
     6c2: 92 18        	sta	($18)                   ; 0x18 <__rc8>
     6c4: 91 18        	sta	($18),y                 ; 0x18 <__rc8>
     6c6: c8           	iny
     6c7: 91 18        	sta	($18),y                 ; 0x18 <__rc8>
     6c9: c8           	iny
     6ca: a9 ff        	lda	#$ff
     6cc: 91 18        	sta	($18),y                 ; 0x18 <__rc8>
     6ce: 86 01        	stx	$1                      ; 0x1 <__data_size+0x1>
     6d0: a5 18        	lda	$18                     ; 0x18 <__rc8>
     6d2: 18           	clc
     6d3: 69 04        	adc	#$4
     6d5: 85 18        	sta	$18                     ; 0x18 <__rc8>
     6d7: a5 19        	lda	$19                     ; 0x19 <__rc9>
     6d9: 69 00        	adc	#$0
     6db: e6 1a        	inc	$1a                     ; 0x1a <__rc10>
     6dd: 85 19        	sta	$19                     ; 0x19 <__rc9>
     6df: d0 d9        	bne	$6ba <main+0xa9>
     6e1: a9 00        	lda	#$0
     6e3: a6 01        	ldx	$1                      ; 0x1 <__data_size+0x1>
     6e5: a0 01        	ldy	#$1
     6e7: 84 01        	sty	$1                      ; 0x1 <__data_size+0x1>
     6e9: 92 16        	sta	($16)                   ; 0x16 <__rc6>
     6eb: 91 16        	sta	($16),y                 ; 0x16 <__rc6>
     6ed: c8           	iny
     6ee: 91 16        	sta	($16),y                 ; 0x16 <__rc6>
     6f0: c8           	iny
     6f1: 85 18        	sta	$18                     ; 0x18 <__rc8>
     6f3: a9 ff        	lda	#$ff
     6f5: 91 16        	sta	($16),y                 ; 0x16 <__rc6>
     6f7: 86 01        	stx	$1                      ; 0x1 <__data_size+0x1>
     6f9: a5 16        	lda	$16                     ; 0x16 <__rc6>
     6fb: 18           	clc
     6fc: 69 04        	adc	#$4
     6fe: 85 16        	sta	$16                     ; 0x16 <__rc6>
     700: a5 17        	lda	$17                     ; 0x17 <__rc7>
     702: 69 00        	adc	#$0
     704: e6 18        	inc	$18                     ; 0x18 <__rc8>
     706: 85 17        	sta	$17                     ; 0x17 <__rc7>
     708: a5 18        	lda	$18                     ; 0x18 <__rc8>
     70a: d0 d7        	bne	$6e3 <main+0xd2>
     70c: a9 00        	lda	#$0
     70e: a6 01        	ldx	$1                      ; 0x1 <__data_size+0x1>
     710: a0 01        	ldy	#$1
     712: 84 01        	sty	$1                      ; 0x1 <__data_size+0x1>
     714: 92 14        	sta	($14)                   ; 0x14 <__rc4>
     716: 91 14        	sta	($14),y                 ; 0x14 <__rc4>
     718: c8           	iny
     719: 91 14        	sta	($14),y                 ; 0x14 <__rc4>
     71b: c8           	iny
     71c: 85 16        	sta	$16                     ; 0x16 <__rc6>
     71e: a9 ff        	lda	#$ff
     720: 91 14        	sta	($14),y                 ; 0x14 <__rc4>
     722: 86 01        	stx	$1                      ; 0x1 <__data_size+0x1>
     724: a5 14        	lda	$14                     ; 0x14 <__rc4>
     726: 18           	clc
     727: 69 04        	adc	#$4
     729: 85 14        	sta	$14                     ; 0x14 <__rc4>
     72b: a5 15        	lda	$15                     ; 0x15 <__rc5>
     72d: 69 00        	adc	#$0
     72f: e6 16        	inc	$16                     ; 0x16 <__rc6>
     731: 85 15        	sta	$15                     ; 0x15 <__rc5>
     733: a5 16        	lda	$16                     ; 0x16 <__rc6>
     735: d0 d7        	bne	$70e <main+0xfd>
     737: a9 00        	lda	#$0
     739: a6 01        	ldx	$1                      ; 0x1 <__data_size+0x1>
     73b: a0 01        	ldy	#$1
     73d: 84 01        	sty	$1                      ; 0x1 <__data_size+0x1>
     73f: 92 12        	sta	($12)                   ; 0x12 <__rc2>
     741: 91 12        	sta	($12),y                 ; 0x12 <__rc2>
     743: c8           	iny
     744: 91 12        	sta	($12),y                 ; 0x12 <__rc2>
     746: c8           	iny
     747: 85 14        	sta	$14                     ; 0x14 <__rc4>
     749: a9 ff        	lda	#$ff
     74b: 91 12        	sta	($12),y                 ; 0x12 <__rc2>
     74d: 86 01        	stx	$1                      ; 0x1 <__data_size+0x1>
     74f: a5 12        	lda	$12                     ; 0x12 <__rc2>
     751: 18           	clc
     752: 69 04        	adc	#$4
     754: 85 12        	sta	$12                     ; 0x12 <__rc2>
     756: a5 13        	lda	$13                     ; 0x13 <__rc3>
     758: 69 00        	adc	#$0
     75a: e6 14        	inc	$14                     ; 0x14 <__rc4>
     75c: 85 13        	sta	$13                     ; 0x13 <__rc3>
     75e: a5 14        	lda	$14                     ; 0x14 <__rc4>
     760: d0 d7        	bne	$739 <main+0x128>
     762: ad 02 d0     	lda	$d002                   ; 0xd002 <__heap_start+0x8672>
     765: 29 f0        	and	#$f0
     767: 8d 02 d0     	sta	$d002                   ; 0xd002 <__heap_start+0x8672>
     76a: ad 02 d0     	lda	$d002                   ; 0xd002 <__heap_start+0x8672>
     76d: 29 0f        	and	#$f
     76f: 09 10        	ora	#$10
     771: 8d 02 d0     	sta	$d002                   ; 0xd002 <__heap_start+0x8672>
     774: a2 02        	ldx	#$2
     776: 8e 03 d0     	stx	$d003                   ; 0xd003 <__heap_start+0x8673>
     779: ad 01 d0     	lda	$d001                   ; 0xd001 <__heap_start+0x8671>
     77c: 29 f9        	and	#$f9
     77e: 09 04        	ora	#$4
     780: 8d 01 d0     	sta	$d001                   ; 0xd001 <__heap_start+0x8671>
     783: 64 12        	stz	$12                     ; 0x12 <__rc2>
     785: 9c 10 d0     	stz	$d010                   ; 0xd010 <__heap_start+0x8680>
     788: a2 00        	ldx	#$0
     78a: 64 13        	stz	$13                     ; 0x13 <__rc3>
     78c: 86 16        	stx	$16                     ; 0x16 <__rc6>
     78e: a4 16        	ldy	$16                     ; 0x16 <__rc6>
     790: b6 30        	ldx	$30,y                   ; 0x30 <textColors>
     792: 86 17        	stx	$17                     ; 0x17 <__rc7>
     794: b6 31        	ldx	$31,y                   ; 0x31 <textColors+0x1>
     796: 86 18        	stx	$18                     ; 0x18 <__rc8>
     798: b6 32        	ldx	$32,y                   ; 0x32 <textColors+0x2>
     79a: 86 19        	stx	$19                     ; 0x19 <__rc9>
     79c: a6 13        	ldx	$13                     ; 0x13 <__rc3>
     79e: 8e 00 de     	stx	$de00                   ; 0xde00 <__heap_start+0x9470>
     7a1: 86 15        	stx	$15                     ; 0x15 <__rc5>
     7a3: 9c 01 de     	stz	$de01                   ; 0xde01 <__heap_start+0x9471>
     7a6: a2 04        	ldx	#$4
     7a8: 8e 02 de     	stx	$de02                   ; 0xde02 <__heap_start+0x9472>
     7ab: 86 1b        	stx	$1b                     ; 0x1b <__rc11>
     7ad: 9c 03 de     	stz	$de03                   ; 0xde03 <__heap_start+0x9473>
     7b0: ad 10 de     	lda	$de10                   ; 0xde10 <__heap_start+0x9480>
     7b3: ac 11 de     	ldy	$de11                   ; 0xde11 <__heap_start+0x9481>
     7b6: 84 13        	sty	$13                     ; 0x13 <__rc3>
     7b8: ac 12 de     	ldy	$de12                   ; 0xde12 <__heap_start+0x9482>
     7bb: ac 13 de     	ldy	$de13                   ; 0xde13 <__heap_start+0x9483>
     7be: a2 00        	ldx	#$0
     7c0: 18           	clc
     7c1: 65 12        	adc	$12                     ; 0x12 <__rc2>
     7c3: a8           	tay
     7c4: 86 1f        	stx	$1f                     ; 0x1f <__rc15>
     7c6: a6 15        	ldx	$15                     ; 0x15 <__rc5>
     7c8: a9 d8        	lda	#$d8
     7ca: 65 13        	adc	$13                     ; 0x13 <__rc3>
     7cc: 84 14        	sty	$14                     ; 0x14 <__rc4>
     7ce: 85 15        	sta	$15                     ; 0x15 <__rc5>
     7d0: a5 19        	lda	$19                     ; 0x19 <__rc9>
     7d2: 92 14        	sta	($14)                   ; 0x14 <__rc4>
     7d4: a0 01        	ldy	#$1
     7d6: a5 18        	lda	$18                     ; 0x18 <__rc8>
     7d8: 91 14        	sta	($14),y                 ; 0x14 <__rc4>
     7da: 84 1a        	sty	$1a                     ; 0x1a <__rc10>
     7dc: c8           	iny
     7dd: a5 17        	lda	$17                     ; 0x17 <__rc7>
     7df: 91 14        	sta	($14),y                 ; 0x14 <__rc4>
     7e1: 84 1e        	sty	$1e                     ; 0x1e <__rc14>
     7e3: c8           	iny
     7e4: a9 ff        	lda	#$ff
     7e6: 91 14        	sta	($14),y                 ; 0x14 <__rc4>
     7e8: 85 23        	sta	$23                     ; 0x23 <__rc19>
     7ea: 84 22        	sty	$22                     ; 0x22 <__rc18>
     7ec: 8e 00 de     	stx	$de00                   ; 0xde00 <__heap_start+0x9470>
     7ef: 9c 01 de     	stz	$de01                   ; 0xde01 <__heap_start+0x9471>
     7f2: a4 1b        	ldy	$1b                     ; 0x1b <__rc11>
     7f4: 8c 02 de     	sty	$de02                   ; 0xde02 <__heap_start+0x9472>
     7f7: 9c 03 de     	stz	$de03                   ; 0xde03 <__heap_start+0x9473>
     7fa: ad 10 de     	lda	$de10                   ; 0xde10 <__heap_start+0x9480>
     7fd: 85 13        	sta	$13                     ; 0x13 <__rc3>
     7ff: ad 11 de     	lda	$de11                   ; 0xde11 <__heap_start+0x9481>
     802: 85 14        	sta	$14                     ; 0x14 <__rc4>
     804: a9 40        	lda	#$40
     806: a4 1f        	ldy	$1f                     ; 0x1f <__rc15>
     808: c0 01        	cpy	#$1
     80a: 65 13        	adc	$13                     ; 0x13 <__rc3>
     80c: a8           	tay
     80d: a9 d8        	lda	#$d8
     80f: 65 14        	adc	$14                     ; 0x14 <__rc4>
     811: 85 15        	sta	$15                     ; 0x15 <__rc5>
     813: 84 14        	sty	$14                     ; 0x14 <__rc4>
     815: ad 12 de     	lda	$de12                   ; 0xde12 <__heap_start+0x9482>
     818: ad 13 de     	lda	$de13                   ; 0xde13 <__heap_start+0x9483>
     81b: a5 19        	lda	$19                     ; 0x19 <__rc9>
     81d: 92 14        	sta	($14)                   ; 0x14 <__rc4>
     81f: a5 18        	lda	$18                     ; 0x18 <__rc8>
     821: a4 1a        	ldy	$1a                     ; 0x1a <__rc10>
     823: 91 14        	sta	($14),y                 ; 0x14 <__rc4>
     825: a5 17        	lda	$17                     ; 0x17 <__rc7>
     827: a4 1e        	ldy	$1e                     ; 0x1e <__rc14>
     829: 91 14        	sta	($14),y                 ; 0x14 <__rc4>
     82b: a4 22        	ldy	$22                     ; 0x22 <__rc18>
     82d: a5 23        	lda	$23                     ; 0x23 <__rc19>
     82f: 91 14        	sta	($14),y                 ; 0x14 <__rc4>
     831: e8           	inx
     832: 86 13        	stx	$13                     ; 0x13 <__rc3>
     834: 18           	clc
     835: a5 16        	lda	$16                     ; 0x16 <__rc6>
     837: 69 03        	adc	#$3
     839: aa           	tax
     83a: c9 30        	cmp	#$30
     83c: f0 03        	beq	$841 <main+0x230>
     83e: 4c 8c 07     	jmp	$78c <main+0x17b>
     841: a6 01        	ldx	$1                      ; 0x1 <__data_size+0x1>
     843: 86 16        	stx	$16                     ; 0x16 <__rc6>
     845: a2 50        	ldx	#$50
     847: 8e 00 de     	stx	$de00                   ; 0xde00 <__heap_start+0x9470>
     84a: 9c 01 de     	stz	$de01                   ; 0xde01 <__heap_start+0x9471>
     84d: a2 1e        	ldx	#$1e
     84f: 8e 02 de     	stx	$de02                   ; 0xde02 <__heap_start+0x9472>
     852: 9c 03 de     	stz	$de03                   ; 0xde03 <__heap_start+0x9473>
     855: ae 10 de     	ldx	$de10                   ; 0xde10 <__heap_start+0x9480>
     858: ac 11 de     	ldy	$de11                   ; 0xde11 <__heap_start+0x9481>
     85b: ad 12 de     	lda	$de12                   ; 0xde12 <__heap_start+0x9482>
     85e: ad 13 de     	lda	$de13                   ; 0xde13 <__heap_start+0x9483>
     861: a9 02        	lda	#$2
     863: 85 01        	sta	$1                      ; 0x1 <__data_size+0x1>
     865: e0 01        	cpx	#$1
     867: 98           	tya
     868: e9 00        	sbc	#$0
     86a: 50 02        	bvc	$86e <main+0x25d>
     86c: 49 80        	eor	#$80
     86e: c9 00        	cmp	#$0
     870: 10 03        	bpl	$875 <main+0x264>
     872: 4c cd 08     	jmp	$8cd <main+0x2bc>
     875: a9 20        	lda	#$20
     877: 86 17        	stx	$17                     ; 0x17 <__rc7>
     879: 86 12        	stx	$12                     ; 0x12 <__rc2>
     87b: 84 13        	sty	$13                     ; 0x13 <__rc3>
     87d: a2 00        	ldx	#$0
     87f: 86 14        	stx	$14                     ; 0x14 <__rc4>
     881: a2 c0        	ldx	#$c0
     883: 86 15        	stx	$15                     ; 0x15 <__rc5>
     885: 80 04        	bra	$88b <main+0x27a>
     887: a6 13        	ldx	$13                     ; 0x13 <__rc3>
     889: f0 14        	beq	$89f <main+0x28e>
     88b: 92 14        	sta	($14)                   ; 0x14 <__rc4>
     88d: e6 14        	inc	$14                     ; 0x14 <__rc4>
     88f: d0 02        	bne	$893 <main+0x282>
     891: e6 15        	inc	$15                     ; 0x15 <__rc5>
     893: a2 ff        	ldx	#$ff
     895: c6 12        	dec	$12                     ; 0x12 <__rc2>
     897: e4 12        	cpx	$12                     ; 0x12 <__rc2>
     899: d0 ec        	bne	$887 <main+0x276>
     89b: c6 13        	dec	$13                     ; 0x13 <__rc3>
     89d: 80 e8        	bra	$887 <main+0x276>
     89f: a6 12        	ldx	$12                     ; 0x12 <__rc2>
     8a1: d0 e8        	bne	$88b <main+0x27a>
     8a3: a2 03        	ldx	#$3
     8a5: 86 01        	stx	$1                      ; 0x1 <__data_size+0x1>
     8a7: a6 17        	ldx	$17                     ; 0x17 <__rc7>
     8a9: a9 00        	lda	#$0
     8ab: 85 12        	sta	$12                     ; 0x12 <__rc2>
     8ad: a9 c0        	lda	#$c0
     8af: 85 13        	sta	$13                     ; 0x13 <__rc3>
     8b1: 80 03        	bra	$8b6 <main+0x2a5>
     8b3: 98           	tya
     8b4: f0 12        	beq	$8c8 <main+0x2b7>
     8b6: a9 f0        	lda	#$f0
     8b8: 92 12        	sta	($12)                   ; 0x12 <__rc2>
     8ba: e6 12        	inc	$12                     ; 0x12 <__rc2>
     8bc: d0 02        	bne	$8c0 <main+0x2af>
     8be: e6 13        	inc	$13                     ; 0x13 <__rc3>
     8c0: ca           	dex
     8c1: e0 ff        	cpx	#$ff
     8c3: d0 ee        	bne	$8b3 <main+0x2a2>
     8c5: 88           	dey
     8c6: 80 eb        	bra	$8b3 <main+0x2a2>
     8c8: 8a           	txa
     8c9: d0 eb        	bne	$8b6 <main+0x2a5>
     8cb: 80 04        	bra	$8d1 <main+0x2c0>
     8cd: a2 03        	ldx	#$3
     8cf: 86 01        	stx	$1                      ; 0x1 <__data_size+0x1>
     8d1: a6 16        	ldx	$16                     ; 0x16 <__rc6>
     8d3: 86 01        	stx	$1                      ; 0x1 <__data_size+0x1>
     8d5: 64 61        	stz	$61                     ; 0x61 <_col>
     8d7: 9c 14 d0     	stz	$d014                   ; 0xd014 <__heap_start+0x8684>
     8da: 9c 15 d0     	stz	$d015                   ; 0xd015 <__heap_start+0x8685>
     8dd: 64 62        	stz	$62                     ; 0x62 <_row>
     8df: 9c 16 d0     	stz	$d016                   ; 0xd016 <__heap_start+0x8686>
     8e2: 9c 17 d0     	stz	$d017                   ; 0xd017 <__heap_start+0x8687>
     8e5: a2 40        	ldx	#$40
     8e7: 8e 00 de     	stx	$de00                   ; 0xde00 <__heap_start+0x9470>
     8ea: a0 01        	ldy	#$1
     8ec: 8c 01 de     	sty	$de01                   ; 0xde01 <__heap_start+0x9471>
     8ef: a2 f0        	ldx	#$f0
     8f1: 8e 02 de     	stx	$de02                   ; 0xde02 <__heap_start+0x9472>
     8f4: 9c 03 de     	stz	$de03                   ; 0xde03 <__heap_start+0x9473>
     8f7: ae 10 de     	ldx	$de10                   ; 0xde10 <__heap_start+0x9480>
     8fa: 86 17        	stx	$17                     ; 0x17 <__rc7>
     8fc: ae 11 de     	ldx	$de11                   ; 0xde11 <__heap_start+0x9481>
     8ff: 86 12        	stx	$12                     ; 0x12 <__rc2>
     901: ae 12 de     	ldx	$de12                   ; 0xde12 <__heap_start+0x9482>
     904: 86 13        	stx	$13                     ; 0x13 <__rc3>
     906: ae 13 de     	ldx	$de13                   ; 0xde13 <__heap_start+0x9483>
     909: 86 14        	stx	$14                     ; 0x14 <__rc4>
     90b: 64 63        	stz	$63                     ; 0x63 <_active>
     90d: 84 64        	sty	$64                     ; 0x64 <_color>
     90f: a4 12        	ldy	$12                     ; 0x12 <__rc2>
     911: 84 15        	sty	$15                     ; 0x15 <__rc5>
     913: 06 15        	asl	$15                     ; 0x15 <__rc5>
     915: a5 13        	lda	$13                     ; 0x13 <__rc3>
     917: 2a           	rol
     918: 86 16        	stx	$16                     ; 0x16 <__rc6>
     91a: 26 16        	rol	$16                     ; 0x16 <__rc6>
     91c: 06 15        	asl	$15                     ; 0x15 <__rc5>
     91e: 2a           	rol
     91f: 26 16        	rol	$16                     ; 0x16 <__rc6>
     921: 06 15        	asl	$15                     ; 0x15 <__rc5>
     923: 2a           	rol
     924: 26 16        	rol	$16                     ; 0x16 <__rc6>
     926: 85 15        	sta	$15                     ; 0x15 <__rc5>
     928: 8d 00 de     	sta	$de00                   ; 0xde00 <__heap_start+0x9470>
     92b: a5 16        	lda	$16                     ; 0x16 <__rc6>
     92d: 8d 01 de     	sta	$de01                   ; 0xde01 <__heap_start+0x9471>
     930: 9c 02 de     	stz	$de02                   ; 0xde02 <__heap_start+0x9472>
     933: a2 20        	ldx	#$20
     935: 8e 03 de     	stx	$de03                   ; 0xde03 <__heap_start+0x9473>
     938: ae 10 de     	ldx	$de10                   ; 0xde10 <__heap_start+0x9480>
     93b: 86 16        	stx	$16                     ; 0x16 <__rc6>
     93d: ae 11 de     	ldx	$de11                   ; 0xde11 <__heap_start+0x9481>
     940: 86 18        	stx	$18                     ; 0x18 <__rc8>
     942: ac 12 de     	ldy	$de12                   ; 0xde12 <__heap_start+0x9482>
     945: ae 13 de     	ldx	$de13                   ; 0xde13 <__heap_start+0x9483>
     948: e4 14        	cpx	$14                     ; 0x14 <__rc4>
     94a: d0 14        	bne	$960 <main+0x34f>
     94c: c4 13        	cpy	$13                     ; 0x13 <__rc3>
     94e: d0 10        	bne	$960 <main+0x34f>
     950: a6 18        	ldx	$18                     ; 0x18 <__rc8>
     952: e4 12        	cpx	$12                     ; 0x12 <__rc2>
     954: d0 0a        	bne	$960 <main+0x34f>
     956: a6 16        	ldx	$16                     ; 0x16 <__rc6>
     958: e4 17        	cpx	$17                     ; 0x17 <__rc7>
     95a: d0 04        	bne	$960 <main+0x34f>
     95c: a6 15        	ldx	$15                     ; 0x15 <__rc5>
     95e: 80 06        	bra	$966 <main+0x355>
     960: a6 15        	ldx	$15                     ; 0x15 <__rc5>
     962: e8           	inx
     963: d0 01        	bne	$966 <main+0x355>
     965: 1a           	inc
     966: 8e 00 de     	stx	$de00                   ; 0xde00 <__heap_start+0x9470>
     969: 8d 01 de     	sta	$de01                   ; 0xde01 <__heap_start+0x9471>
     96c: 9c 02 de     	stz	$de02                   ; 0xde02 <__heap_start+0x9472>
     96f: a2 20        	ldx	#$20
     971: 8e 03 de     	stx	$de03                   ; 0xde03 <__heap_start+0x9473>
     974: ae 10 de     	ldx	$de10                   ; 0xde10 <__heap_start+0x9480>
     977: 86 12        	stx	$12                     ; 0x12 <__rc2>
     979: ae 11 de     	ldx	$de11                   ; 0xde11 <__heap_start+0x9481>
     97c: 86 13        	stx	$13                     ; 0x13 <__rc3>
     97e: ae 12 de     	ldx	$de12                   ; 0xde12 <__heap_start+0x9482>
     981: 86 14        	stx	$14                     ; 0x14 <__rc4>
     983: ae 13 de     	ldx	$de13                   ; 0xde13 <__heap_start+0x9483>
     986: 86 15        	stx	$15                     ; 0x15 <__rc5>
     988: 38           	sec
     989: a9 00        	lda	#$0
     98b: e5 12        	sbc	$12                     ; 0x12 <__rc2>
     98d: 85 1a        	sta	$1a                     ; 0x1a <__rc10>
     98f: a9 00        	lda	#$0
     991: e5 13        	sbc	$13                     ; 0x13 <__rc3>
     993: 85 18        	sta	$18                     ; 0x18 <__rc8>
     995: a9 08        	lda	#$8
     997: e5 14        	sbc	$14                     ; 0x14 <__rc4>
     999: a8           	tay
     99a: a9 00        	lda	#$0
     99c: e5 15        	sbc	$15                     ; 0x15 <__rc5>
     99e: 85 16        	sta	$16                     ; 0x16 <__rc6>
     9a0: a6 18        	ldx	$18                     ; 0x18 <__rc8>
     9a2: 8e 6f 48     	stx	$486f                   ; 0x486f <__bss_start+0x1>
     9a5: 8c 70 48     	sty	$4870                   ; 0x4870 <__bss_start+0x2>
     9a8: 8d 71 48     	sta	$4871                   ; 0x4871 <__bss_start+0x3>
     9ab: 38           	sec
     9ac: a5 1a        	lda	$1a                     ; 0x1a <__rc10>
     9ae: e5 12        	sbc	$12                     ; 0x12 <__rc2>
     9b0: 85 17        	sta	$17                     ; 0x17 <__rc7>
     9b2: a5 18        	lda	$18                     ; 0x18 <__rc8>
     9b4: e5 13        	sbc	$13                     ; 0x13 <__rc3>
     9b6: 85 18        	sta	$18                     ; 0x18 <__rc8>
     9b8: 98           	tya
     9b9: e5 14        	sbc	$14                     ; 0x14 <__rc4>
     9bb: 85 19        	sta	$19                     ; 0x19 <__rc9>
     9bd: a5 16        	lda	$16                     ; 0x16 <__rc6>
     9bf: e5 15        	sbc	$15                     ; 0x15 <__rc5>
     9c1: 85 16        	sta	$16                     ; 0x16 <__rc6>
     9c3: 38           	sec
     9c4: a6 17        	ldx	$17                     ; 0x17 <__rc7>
     9c6: 8e 72 48     	stx	$4872                   ; 0x4872 <__bss_start+0x4>
     9c9: a4 18        	ldy	$18                     ; 0x18 <__rc8>
     9cb: 8c 73 48     	sty	$4873                   ; 0x4873 <__bss_start+0x5>
     9ce: a6 19        	ldx	$19                     ; 0x19 <__rc9>
     9d0: 8e 74 48     	stx	$4874                   ; 0x4874 <__bss_start+0x6>
     9d3: 8d 75 48     	sta	$4875                   ; 0x4875 <__bss_start+0x7>
     9d6: a5 17        	lda	$17                     ; 0x17 <__rc7>
     9d8: e5 12        	sbc	$12                     ; 0x12 <__rc2>
     9da: 85 17        	sta	$17                     ; 0x17 <__rc7>
     9dc: a5 18        	lda	$18                     ; 0x18 <__rc8>
     9de: e5 13        	sbc	$13                     ; 0x13 <__rc3>
     9e0: aa           	tax
     9e1: a5 19        	lda	$19                     ; 0x19 <__rc9>
     9e3: e5 14        	sbc	$14                     ; 0x14 <__rc4>
     9e5: 85 13        	sta	$13                     ; 0x13 <__rc3>
     9e7: a5 16        	lda	$16                     ; 0x16 <__rc6>
     9e9: e5 15        	sbc	$15                     ; 0x15 <__rc5>
     9eb: 85 12        	sta	$12                     ; 0x12 <__rc2>
     9ed: a5 17        	lda	$17                     ; 0x17 <__rc7>
     9ef: 8d 76 48     	sta	$4876                   ; 0x4876 <__bss_start+0x8>
     9f2: 8e 77 48     	stx	$4877                   ; 0x4877 <__bss_start+0x9>
     9f5: a4 1a        	ldy	$1a                     ; 0x1a <__rc10>
     9f7: 8c 6e 48     	sty	$486e                   ; 0x486e <__bss_start>
     9fa: a6 13        	ldx	$13                     ; 0x13 <__rc3>
     9fc: 8e 78 48     	stx	$4878                   ; 0x4878 <__bss_start+0xa>
     9ff: a6 12        	ldx	$12                     ; 0x12 <__rc2>
     a01: 8e 79 48     	stx	$4879                   ; 0x4879 <__bss_start+0xb>
     a04: 8c 01 d1     	sty	$d101                   ; 0xd101 <__heap_start+0x8771>
     a07: ae 6f 48     	ldx	$486f                   ; 0x486f <__bss_start+0x1>
     a0a: 8e 02 d1     	stx	$d102                   ; 0xd102 <__heap_start+0x8772>
     a0d: ae 70 48     	ldx	$4870                   ; 0x4870 <__bss_start+0x2>
     a10: 8e 03 d1     	stx	$d103                   ; 0xd103 <__heap_start+0x8773>
     a13: ae 72 48     	ldx	$4872                   ; 0x4872 <__bss_start+0x4>
     a16: 8e 09 d1     	stx	$d109                   ; 0xd109 <__heap_start+0x8779>
     a19: ae 73 48     	ldx	$4873                   ; 0x4873 <__bss_start+0x5>
     a1c: 8e 0a d1     	stx	$d10a                   ; 0xd10a <__heap_start+0x877a>
     a1f: ae 74 48     	ldx	$4874                   ; 0x4874 <__bss_start+0x6>
     a22: 8e 0b d1     	stx	$d10b                   ; 0xd10b <__heap_start+0x877b>
     a25: ae 76 48     	ldx	$4876                   ; 0x4876 <__bss_start+0x8>
     a28: 8e 11 d1     	stx	$d111                   ; 0xd111 <__heap_start+0x8781>
     a2b: ae 77 48     	ldx	$4877                   ; 0x4877 <__bss_start+0x9>
     a2e: 8e 12 d1     	stx	$d112                   ; 0xd112 <__heap_start+0x8782>
     a31: ae 78 48     	ldx	$4878                   ; 0x4878 <__bss_start+0xa>
     a34: 8e 13 d1     	stx	$d113                   ; 0xd113 <__heap_start+0x8783>
     a37: 9c 00 d1     	stz	$d100                   ; 0xd100 <__heap_start+0x8770>
     a3a: 9c 08 d1     	stz	$d108                   ; 0xd108 <__heap_start+0x8778>
     a3d: 9c 10 d1     	stz	$d110                   ; 0xd110 <__heap_start+0x8780>
     a40: a2 01        	ldx	#$1
     a42: 86 65        	stx	$65                     ; 0x65 <_tileSize.1>
     a44: 86 66        	stx	$66                     ; 0x66 <_tileSize.2>
     a46: a2 10        	ldx	#$10
     a48: 8e 00 d2     	stx	$d200                   ; 0xd200 <__heap_start+0x8870>
     a4b: a5 65        	lda	$65                     ; 0x65 <_tileSize.1>
     a4d: 29 01        	and	#$1
     a4f: a0 10        	ldy	#$10
     a51: c9 00        	cmp	#$0
     a53: d0 02        	bne	$a57 <main+0x446>
     a55: a0 00        	ldy	#$0
     a57: 8c 0c d2     	sty	$d20c                   ; 0xd20c <__heap_start+0x887c>
     a5a: a5 66        	lda	$66                     ; 0x66 <_tileSize.2>
     a5c: 29 01        	and	#$1
     a5e: d0 02        	bne	$a62 <main+0x451>
     a60: a2 00        	ldx	#$0
     a62: 8e 18 d2     	stx	$d218                   ; 0xd218 <__heap_start+0x8888>
     a65: a0 d9        	ldy	#$d9
     a67: a2 40        	ldx	#$40
     a69: 64 12        	stz	$12                     ; 0x12 <__rc2>
     a6b: 84 13        	sty	$13                     ; 0x13 <__rc3>
     a6d: a9 00        	lda	#$0
     a6f: 92 12        	sta	($12)                   ; 0x12 <__rc2>
     a71: a5 12        	lda	$12                     ; 0x12 <__rc2>
     a73: ca           	dex
     a74: 18           	clc
     a75: 69 08        	adc	#$8
     a77: 85 12        	sta	$12                     ; 0x12 <__rc2>
     a79: 98           	tya
     a7a: 69 00        	adc	#$0
     a7c: a8           	tay
     a7d: 8a           	txa
     a7e: d0 eb        	bne	$a6b <main+0x45a>
     a80: 18           	clc
     a81: a5 10        	lda	$10                     ; 0x10 <__rc0>
     a83: 69 12        	adc	#$12
     a85: 85 18        	sta	$18                     ; 0x18 <__rc8>
     a87: a5 11        	lda	$11                     ; 0x11 <__rc1>
     a89: 69 00        	adc	#$0
     a8b: 85 19        	sta	$19                     ; 0x19 <__rc9>
     a8d: a6 18        	ldx	$18                     ; 0x18 <__rc8>
     a8f: 86 fb        	stx	$fb                     ; 0xfb <__pal_size+0x7b>
     a91: 85 fc        	sta	$fc                     ; 0xfc <__pal_size+0x7c>
     a93: a2 08        	ldx	#$8
     a95: 86 fd        	stx	$fd                     ; 0xfd <__pal_size+0x7d>
     a97: 18           	clc
     a98: a5 10        	lda	$10                     ; 0x10 <__rc0>
     a9a: 69 22        	adc	#$22
     a9c: 85 16        	sta	$16                     ; 0x16 <__rc6>
     a9e: a5 11        	lda	$11                     ; 0x11 <__rc1>
     aa0: 69 00        	adc	#$0
     aa2: 85 17        	sta	$17                     ; 0x17 <__rc7>
     aa4: a2 78        	ldx	#$78
     aa6: 86 12        	stx	$12                     ; 0x12 <__rc2>
     aa8: a2 00        	ldx	#$0
     aaa: 86 13        	stx	$13                     ; 0x13 <__rc3>
     aac: a0 06        	ldy	#$6
     aae: 20 dc ff     	jsr	$ffdc <__heap_start+0xb64c>
     ab1: 92 16        	sta	($16)                   ; 0x16 <__rc6>
     ab3: a9 00        	lda	#$0
     ab5: 6a           	ror
     ab6: 85 12        	sta	$12                     ; 0x12 <__rc2>
     ab8: b1 18        	lda	($18),y                 ; 0x18 <__rc8>
     aba: 85 13        	sta	$13                     ; 0x13 <__rc3>
     abc: a2 06        	ldx	#$6
     abe: 86 12        	stx	$12                     ; 0x12 <__rc2>
     ac0: c8           	iny
     ac1: b1 18        	lda	($18),y                 ; 0x18 <__rc8>
     ac3: a6 13        	ldx	$13                     ; 0x13 <__rc3>
     ac5: 8e 00 de     	stx	$de00                   ; 0xde00 <__heap_start+0x9470>
     ac8: 9c 01 de     	stz	$de01                   ; 0xde01 <__heap_start+0x9471>
     acb: 8d 02 de     	sta	$de02                   ; 0xde02 <__heap_start+0x9472>
     ace: 9c 03 de     	stz	$de03                   ; 0xde03 <__heap_start+0x9473>
     ad1: ae 10 de     	ldx	$de10                   ; 0xde10 <__heap_start+0x9480>
     ad4: ac 11 de     	ldy	$de11                   ; 0xde11 <__heap_start+0x9481>
     ad7: ad 12 de     	lda	$de12                   ; 0xde12 <__heap_start+0x9482>
     ada: ad 13 de     	lda	$de13                   ; 0xde13 <__heap_start+0x9483>
     add: 8e a4 d6     	stx	$d6a4                   ; 0xd6a4 <__heap_start+0x8d14>
     ae0: 8c a5 d6     	sty	$d6a5                   ; 0xd6a5 <__heap_start+0x8d15>
     ae3: a2 03        	ldx	#$3
     ae5: 8e a6 d6     	stx	$d6a6                   ; 0xd6a6 <__heap_start+0x8d16>
     ae8: a0 00        	ldy	#$0
     aea: 64 01        	stz	$1                      ; 0x1 <__data_size+0x1>
     aec: a2 5f        	ldx	#$5f
     aee: 8e 00 d0     	stx	$d000                   ; 0xd000 <__heap_start+0x8670>
     af1: 9c 01 d0     	stz	$d001                   ; 0xd001 <__heap_start+0x8671>
     af4: a2 50        	ldx	#$50
     af6: 8e 02 d0     	stx	$d002                   ; 0xd002 <__heap_start+0x8672>
     af9: a6 12        	ldx	$12                     ; 0x12 <__rc2>
     afb: 8e 03 d0     	stx	$d003                   ; 0xd003 <__heap_start+0x8673>
     afe: a2 01        	ldx	#$1
     b00: 86 01        	stx	$1                      ; 0x1 <__data_size+0x1>
     b02: a2 d0        	ldx	#$d0
     b04: 80 05        	bra	$b0b <main+0x4fa>
     b06: e8           	inx
     b07: e0 d3        	cpx	#$d3
     b09: f0 28        	beq	$b33 <main+0x522>
     b0b: 18           	clc
     b0c: 84 1a        	sty	$1a                     ; 0x1a <__rc10>
     b0e: 98           	tya
     b0f: 69 00        	adc	#$0
     b11: 85 14        	sta	$14                     ; 0x14 <__rc4>
     b13: 8a           	txa
     b14: 69 10        	adc	#$10
     b16: 85 15        	sta	$15                     ; 0x15 <__rc5>
     b18: 84 12        	sty	$12                     ; 0x12 <__rc2>
     b1a: 86 13        	stx	$13                     ; 0x13 <__rc3>
     b1c: a4 0f        	ldy	$f                      ; 0xf <__data_size+0xf>
     b1e: 78           	sei
     b1f: a9 08        	lda	#$8
     b21: 85 0f        	sta	$f                      ; 0xf <__data_size+0xf>
     b23: b2 14        	lda	($14)                   ; 0x14 <__rc4>
     b25: 84 0f        	sty	$f                      ; 0xf <__data_size+0xf>
     b27: 58           	cli
     b28: 92 12        	sta	($12)                   ; 0x12 <__rc2>
     b2a: a4 1a        	ldy	$1a                     ; 0x1a <__rc10>
     b2c: c8           	iny
     b2d: f0 d7        	beq	$b06 <main+0x4f5>
     b2f: e0 d3        	cpx	#$d3
     b31: d0 d8        	bne	$b0b <main+0x4fa>
     b33: c0 ff        	cpy	#$ff
     b35: d0 d4        	bne	$b0b <main+0x4fa>
     b37: 64 01        	stz	$1                      ; 0x1 <__data_size+0x1>
     b39: 9c 0d d0     	stz	$d00d                   ; 0xd00d <__heap_start+0x867d>
     b3c: 9c 0e d0     	stz	$d00e                   ; 0xd00e <__heap_start+0x867e>
     b3f: 9c 0f d0     	stz	$d00f                   ; 0xd00f <__heap_start+0x867f>
     b42: a2 1f        	ldx	#$1f
     b44: 8e 20 d6     	stx	$d620                   ; 0xd620 <__heap_start+0x8c90>
     b47: a2 2a        	ldx	#$2a
     b49: 8e 21 d6     	stx	$d621                   ; 0xd621 <__heap_start+0x8c91>
     b4c: a2 01        	ldx	#$1
     b4e: 8e 22 d6     	stx	$d622                   ; 0xd622 <__heap_start+0x8c92>
     b51: ad 22 d6     	lda	$d622                   ; 0xd622 <__heap_start+0x8c92>
     b54: 29 01        	and	#$1
     b56: d0 f9        	bne	$b51 <main+0x540>
     b58: a2 19        	ldx	#$19
     b5a: 8e 20 d6     	stx	$d620                   ; 0xd620 <__heap_start+0x8c90>
     b5d: a2 d5        	ldx	#$d5
     b5f: 8e 21 d6     	stx	$d621                   ; 0xd621 <__heap_start+0x8c91>
     b62: a2 01        	ldx	#$1
     b64: 8e 22 d6     	stx	$d622                   ; 0xd622 <__heap_start+0x8c92>
     b67: ad 22 d6     	lda	$d622                   ; 0xd622 <__heap_start+0x8c92>
     b6a: 29 01        	and	#$1
     b6c: d0 f9        	bne	$b67 <main+0x556>
     b6e: a5 1c        	lda	$1c                     ; 0x1c <__rc12>
     b70: a0 0c        	ldy	#$c
     b72: 91 10        	sta	($10),y                 ; 0x10 <__rc0>
     b74: a5 1d        	lda	$1d                     ; 0x1d <__rc13>
     b76: c8           	iny
     b77: 91 10        	sta	($10),y                 ; 0x10 <__rc0>
     b79: a5 18        	lda	$18                     ; 0x18 <__rc8>
     b7b: a0 10        	ldy	#$10
     b7d: 91 10        	sta	($10),y                 ; 0x10 <__rc0>
     b7f: a5 19        	lda	$19                     ; 0x19 <__rc9>
     b81: c8           	iny
     b82: 91 10        	sta	($10),y                 ; 0x10 <__rc0>
     b84: a5 16        	lda	$16                     ; 0x16 <__rc6>
     b86: a0 0a        	ldy	#$a
     b88: 91 10        	sta	($10),y                 ; 0x10 <__rc0>
     b8a: a5 17        	lda	$17                     ; 0x17 <__rc7>
     b8c: c8           	iny
     b8d: 91 10        	sta	($10),y                 ; 0x10 <__rc0>
     b8f: a0 01        	ldy	#$1
     b91: 84 65        	sty	$65                     ; 0x65 <_tileSize.1>
     b93: 9c 0d d2     	stz	$d20d                   ; 0xd20d <__heap_start+0x887d>
     b96: 9c 0e d2     	stz	$d20e                   ; 0xd20e <__heap_start+0x887e>
     b99: a2 02        	ldx	#$2
     b9b: 8e 0f d2     	stx	$d20f                   ; 0xd20f <__heap_start+0x887f>
     b9e: a2 50        	ldx	#$50
     ba0: 8e 10 d2     	stx	$d210                   ; 0xd210 <__heap_start+0x8880>
     ba3: 86 12        	stx	$12                     ; 0x12 <__rc2>
     ba5: 9c 11 d2     	stz	$d211                   ; 0xd211 <__heap_start+0x8881>
     ba8: a2 1f        	ldx	#$1f
     baa: 8e 12 d2     	stx	$d212                   ; 0xd212 <__heap_start+0x8882>
     bad: 86 13        	stx	$13                     ; 0x13 <__rc3>
     baf: 9c 13 d2     	stz	$d213                   ; 0xd213 <__heap_start+0x8883>
     bb2: 9c 14 d2     	stz	$d214                   ; 0xd214 <__heap_start+0x8884>
     bb5: 9c 15 d2     	stz	$d215                   ; 0xd215 <__heap_start+0x8885>
     bb8: 9c 16 d2     	stz	$d216                   ; 0xd216 <__heap_start+0x8886>
     bbb: 9c 17 d2     	stz	$d217                   ; 0xd217 <__heap_start+0x8887>
     bbe: 84 66        	sty	$66                     ; 0x66 <_tileSize.2>
     bc0: 9c 19 d2     	stz	$d219                   ; 0xd219 <__heap_start+0x8889>
     bc3: a9 bf        	lda	#$bf
     bc5: 8d 1a d2     	sta	$d21a                   ; 0xd21a <__heap_start+0x888a>
     bc8: a9 03        	lda	#$3
     bca: 8d 1b d2     	sta	$d21b                   ; 0xd21b <__heap_start+0x888b>
     bcd: a6 12        	ldx	$12                     ; 0x12 <__rc2>
     bcf: 8e 1c d2     	stx	$d21c                   ; 0xd21c <__heap_start+0x888c>
     bd2: 9c 1d d2     	stz	$d21d                   ; 0xd21d <__heap_start+0x888d>
     bd5: a6 13        	ldx	$13                     ; 0x13 <__rc3>
     bd7: 8e 1e d2     	stx	$d21e                   ; 0xd21e <__heap_start+0x888e>
     bda: 84 16        	sty	$16                     ; 0x16 <__rc6>
     bdc: 9c 1f d2     	stz	$d21f                   ; 0xd21f <__heap_start+0x888f>
     bdf: 9c 20 d2     	stz	$d220                   ; 0xd220 <__heap_start+0x8890>
     be2: 9c 21 d2     	stz	$d221                   ; 0xd221 <__heap_start+0x8891>
     be5: 9c 22 d2     	stz	$d222                   ; 0xd222 <__heap_start+0x8892>
     be8: 9c 23 d2     	stz	$d223                   ; 0xd223 <__heap_start+0x8893>
     beb: 9c 80 d2     	stz	$d280                   ; 0xd280 <__heap_start+0x88f0>
     bee: a2 b4        	ldx	#$b4
     bf0: 8e 81 d2     	stx	$d281                   ; 0xd281 <__heap_start+0x88f1>
     bf3: 8d 82 d2     	sta	$d282                   ; 0xd282 <__heap_start+0x88f2>
     bf6: 9c 83 d2     	stz	$d283                   ; 0xd283 <__heap_start+0x88f3>
     bf9: a2 14        	ldx	#$14
     bfb: 86 27        	stx	$27                     ; 0x27 <__rc23>
     bfd: 64 12        	stz	$12                     ; 0x12 <__rc2>
     bff: a9 00        	lda	#$0
     c01: a0 0f        	ldy	#$f
     c03: 91 10        	sta	($10),y                 ; 0x10 <__rc0>
     c05: 4a           	lsr
     c06: 48           	pha
     c07: a5 12        	lda	$12                     ; 0x12 <__rc2>
     c09: 88           	dey
     c0a: 91 10        	sta	($10),y                 ; 0x10 <__rc0>
     c0c: 68           	pla
     c0d: 66 12        	ror	$12                     ; 0x12 <__rc2>
     c0f: 64 13        	stz	$13                     ; 0x13 <__rc3>
     c11: 66 13        	ror	$13                     ; 0x13 <__rc3>
     c13: 4a           	lsr
     c14: 66 12        	ror	$12                     ; 0x12 <__rc2>
     c16: 66 13        	ror	$13                     ; 0x13 <__rc3>
     c18: 4a           	lsr
     c19: 66 12        	ror	$12                     ; 0x12 <__rc2>
     c1b: 66 13        	ror	$13                     ; 0x13 <__rc3>
     c1d: a5 13        	lda	$13                     ; 0x13 <__rc3>
     c1f: 0a           	asl
     c20: a6 12        	ldx	$12                     ; 0x12 <__rc2>
     c22: 86 14        	stx	$14                     ; 0x14 <__rc4>
     c24: 26 14        	rol	$14                     ; 0x14 <__rc4>
     c26: 0a           	asl
     c27: 26 14        	rol	$14                     ; 0x14 <__rc4>
     c29: 18           	clc
     c2a: a2 01        	ldx	#$1
     c2c: b0 02        	bcs	$c30 <main+0x61f>
     c2e: a2 00        	ldx	#$0
     c30: 86 28        	stx	$28                     ; 0x28 <__rc24>
     c32: 65 13        	adc	$13                     ; 0x13 <__rc3>
     c34: 85 2c        	sta	$2c                     ; 0x2c <__rc28>
     c36: a8           	tay
     c37: a5 14        	lda	$14                     ; 0x14 <__rc4>
     c39: 65 12        	adc	$12                     ; 0x12 <__rc2>
     c3b: aa           	tax
     c3c: 85 2d        	sta	$2d                     ; 0x2d <__rc29>
     c3e: 18           	clc
     c3f: 98           	tya
     c40: 69 a0        	adc	#$a0
     c42: 85 2e        	sta	$2e                     ; 0x2e <__rc30>
     c44: 8a           	txa
     c45: 69 00        	adc	#$0
     c47: 85 2f        	sta	$2f                     ; 0x2f <__rc31>
     c49: 64 12        	stz	$12                     ; 0x12 <__rc2>
     c4b: a6 12        	ldx	$12                     ; 0x12 <__rc2>
     c4d: a5 12        	lda	$12                     ; 0x12 <__rc2>
     c4f: a4 28        	ldy	$28                     ; 0x28 <__rc24>
     c51: c0 01        	cpy	#$1
     c53: 65 2c        	adc	$2c                     ; 0x2c <__rc28>
     c55: 85 26        	sta	$26                     ; 0x26 <__rc22>
     c57: a9 bf        	lda	#$bf
     c59: 65 2d        	adc	$2d                     ; 0x2d <__rc29>
     c5b: 85 2a        	sta	$2a                     ; 0x2a <__rc26>
     c5d: a9 03        	lda	#$3
     c5f: 69 00        	adc	#$0
     c61: 85 2b        	sta	$2b                     ; 0x2b <__rc27>
     c63: a4 16        	ldy	$16                     ; 0x16 <__rc6>
     c65: 8c a6 d6     	sty	$d6a6                   ; 0xd6a6 <__heap_start+0x8d16>
     c68: 86 29        	stx	$29                     ; 0x29 <__rc25>
     c6a: ad a4 d6     	lda	$d6a4                   ; 0xd6a4 <__heap_start+0x8d14>
     c6d: ae a5 d6     	ldx	$d6a5                   ; 0xd6a5 <__heap_start+0x8d15>
     c70: 5a           	phy
     c71: a4 27        	ldy	$27                     ; 0x27 <__rc23>
     c73: 84 12        	sty	$12                     ; 0x12 <__rc2>
     c75: 7a           	ply
     c76: 64 13        	stz	$13                     ; 0x13 <__rc3>
     c78: 84 24        	sty	$24                     ; 0x24 <__rc20>
     c7a: 20 1a 43     	jsr	$431a <__umodhi3>
     c7d: 85 14        	sta	$14                     ; 0x14 <__rc4>
     c7f: 86 15        	stx	$15                     ; 0x15 <__rc5>
     c81: a5 2a        	lda	$2a                     ; 0x2a <__rc26>
     c83: 85 12        	sta	$12                     ; 0x12 <__rc2>
     c85: 06 12        	asl	$12                     ; 0x12 <__rc2>
     c87: 26 2b        	rol	$2b                     ; 0x2b <__rc27>
     c89: 06 12        	asl	$12                     ; 0x12 <__rc2>
     c8b: 26 2b        	rol	$2b                     ; 0x2b <__rc27>
     c8d: 06 12        	asl	$12                     ; 0x12 <__rc2>
     c8f: 26 2b        	rol	$2b                     ; 0x2b <__rc27>
     c91: a4 2b        	ldy	$2b                     ; 0x2b <__rc27>
     c93: a6 0f        	ldx	$f                      ; 0xf <__data_size+0xf>
     c95: 78           	sei
     c96: 84 0f        	sty	$f                      ; 0xf <__data_size+0xf>
     c98: 09 e0        	ora	#$e0
     c9a: a4 26        	ldy	$26                     ; 0x26 <__rc22>
     c9c: 84 12        	sty	$12                     ; 0x12 <__rc2>
     c9e: 85 13        	sta	$13                     ; 0x13 <__rc3>
     ca0: a5 14        	lda	$14                     ; 0x14 <__rc4>
     ca2: 92 12        	sta	($12)                   ; 0x12 <__rc2>
     ca4: a4 24        	ldy	$24                     ; 0x24 <__rc20>
     ca6: a5 15        	lda	$15                     ; 0x15 <__rc5>
     ca8: 91 12        	sta	($12),y                 ; 0x12 <__rc2>
     caa: 86 0f        	stx	$f                      ; 0xf <__data_size+0xf>
     cac: 58           	cli
     cad: a5 29        	lda	$29                     ; 0x29 <__rc25>
     caf: a6 28        	ldx	$28                     ; 0x28 <__rc24>
     cb1: e0 01        	cpx	#$1
     cb3: 65 2e        	adc	$2e                     ; 0x2e <__rc30>
     cb5: 85 13        	sta	$13                     ; 0x13 <__rc3>
     cb7: a9 bf        	lda	#$bf
     cb9: 65 2f        	adc	$2f                     ; 0x2f <__rc31>
     cbb: 85 14        	sta	$14                     ; 0x14 <__rc4>
     cbd: a9 03        	lda	#$3
     cbf: 69 00        	adc	#$0
     cc1: a6 14        	ldx	$14                     ; 0x14 <__rc4>
     cc3: 86 12        	stx	$12                     ; 0x12 <__rc2>
     cc5: 06 12        	asl	$12                     ; 0x12 <__rc2>
     cc7: 2a           	rol
     cc8: 06 12        	asl	$12                     ; 0x12 <__rc2>
     cca: 2a           	rol
     ccb: 06 12        	asl	$12                     ; 0x12 <__rc2>
     ccd: 2a           	rol
     cce: a6 0f        	ldx	$f                      ; 0xf <__data_size+0xf>
     cd0: 78           	sei
     cd1: 85 0f        	sta	$f                      ; 0xf <__data_size+0xf>
     cd3: a5 13        	lda	$13                     ; 0x13 <__rc3>
     cd5: 85 12        	sta	$12                     ; 0x12 <__rc2>
     cd7: a5 14        	lda	$14                     ; 0x14 <__rc4>
     cd9: 09 e0        	ora	#$e0
     cdb: 85 13        	sta	$13                     ; 0x13 <__rc3>
     cdd: a9 00        	lda	#$0
     cdf: 92 12        	sta	($12)                   ; 0x12 <__rc2>
     ce1: 84 16        	sty	$16                     ; 0x16 <__rc6>
     ce3: 91 12        	sta	($12),y                 ; 0x12 <__rc2>
     ce5: 86 0f        	stx	$f                      ; 0xf <__data_size+0xf>
     ce7: 58           	cli
     ce8: 18           	clc
     ce9: a5 29        	lda	$29                     ; 0x29 <__rc25>
     ceb: 69 02        	adc	#$2
     ced: 85 12        	sta	$12                     ; 0x12 <__rc2>
     cef: c9 50        	cmp	#$50
     cf1: f0 03        	beq	$cf6 <main+0x6e5>
     cf3: 4c 4b 0c     	jmp	$c4b <main+0x63a>
     cf6: a2 14        	ldx	#$14
     cf8: 86 27        	stx	$27                     ; 0x27 <__rc23>
     cfa: a0 0e        	ldy	#$e
     cfc: b1 10        	lda	($10),y                 ; 0x10 <__rc0>
     cfe: a8           	tay
     cff: 18           	clc
     d00: 69 02        	adc	#$2
     d02: 85 14        	sta	$14                     ; 0x14 <__rc4>
     d04: 5a           	phy
     d05: a0 0f        	ldy	#$f
     d07: b1 10        	lda	($10),y                 ; 0x10 <__rc0>
     d09: 7a           	ply
     d0a: aa           	tax
     d0b: 69 00        	adc	#$0
     d0d: e0 00        	cpx	#$0
     d0f: d0 04        	bne	$d15 <main+0x704>
     d11: c0 1d        	cpy	#$1d
     d13: 80 02        	bra	$d17 <main+0x706>
     d15: e0 00        	cpx	#$0
     d17: a6 14        	ldx	$14                     ; 0x14 <__rc4>
     d19: 86 12        	stx	$12                     ; 0x12 <__rc2>
     d1b: b0 03        	bcs	$d20 <main+0x70f>
     d1d: 4c 01 0c     	jmp	$c01 <main+0x5f0>
     d20: a2 01        	ldx	#$1
     d22: 86 28        	stx	$28                     ; 0x28 <__rc24>
     d24: 64 12        	stz	$12                     ; 0x12 <__rc2>
     d26: a9 00        	lda	#$0
     d28: 48           	pha
     d29: a0 10        	ldy	#$10
     d2b: b1 10        	lda	($10),y                 ; 0x10 <__rc0>
     d2d: 85 22        	sta	$22                     ; 0x22 <__rc18>
     d2f: c8           	iny
     d30: b1 10        	lda	($10),y                 ; 0x10 <__rc0>
     d32: 85 23        	sta	$23                     ; 0x23 <__rc19>
     d34: 68           	pla
     d35: 85 19        	sta	$19                     ; 0x19 <__rc9>
     d37: 4a           	lsr
     d38: a6 12        	ldx	$12                     ; 0x12 <__rc2>
     d3a: 86 18        	stx	$18                     ; 0x18 <__rc8>
     d3c: 66 12        	ror	$12                     ; 0x12 <__rc2>
     d3e: 64 13        	stz	$13                     ; 0x13 <__rc3>
     d40: 66 13        	ror	$13                     ; 0x13 <__rc3>
     d42: 4a           	lsr
     d43: 66 12        	ror	$12                     ; 0x12 <__rc2>
     d45: 66 13        	ror	$13                     ; 0x13 <__rc3>
     d47: 4a           	lsr
     d48: 66 12        	ror	$12                     ; 0x12 <__rc2>
     d4a: 66 13        	ror	$13                     ; 0x13 <__rc3>
     d4c: a5 13        	lda	$13                     ; 0x13 <__rc3>
     d4e: 0a           	asl
     d4f: a6 12        	ldx	$12                     ; 0x12 <__rc2>
     d51: 86 14        	stx	$14                     ; 0x14 <__rc4>
     d53: 26 14        	rol	$14                     ; 0x14 <__rc4>
     d55: 0a           	asl
     d56: 26 14        	rol	$14                     ; 0x14 <__rc4>
     d58: 18           	clc
     d59: a2 01        	ldx	#$1
     d5b: b0 02        	bcs	$d5f <main+0x74e>
     d5d: a2 00        	ldx	#$0
     d5f: 86 1c        	stx	$1c                     ; 0x1c <__rc12>
     d61: 65 13        	adc	$13                     ; 0x13 <__rc3>
     d63: aa           	tax
     d64: a5 14        	lda	$14                     ; 0x14 <__rc4>
     d66: 65 12        	adc	$12                     ; 0x12 <__rc2>
     d68: 85 15        	sta	$15                     ; 0x15 <__rc5>
     d6a: 18           	clc
     d6b: 8a           	txa
     d6c: 69 a0        	adc	#$a0
     d6e: 85 12        	sta	$12                     ; 0x12 <__rc2>
     d70: a5 15        	lda	$15                     ; 0x15 <__rc5>
     d72: 69 00        	adc	#$0
     d74: 85 13        	sta	$13                     ; 0x13 <__rc3>
     d76: 86 1a        	stx	$1a                     ; 0x1a <__rc10>
     d78: 86 14        	stx	$14                     ; 0x14 <__rc4>
     d7a: a6 15        	ldx	$15                     ; 0x15 <__rc5>
     d7c: 86 1b        	stx	$1b                     ; 0x1b <__rc11>
     d7e: 64 1d        	stz	$1d                     ; 0x1d <__rc13>
     d80: a5 1d        	lda	$1d                     ; 0x1d <__rc13>
     d82: 18           	clc
     d83: 69 50        	adc	#$50
     d85: 85 1e        	sta	$1e                     ; 0x1e <__rc14>
     d87: a6 1c        	ldx	$1c                     ; 0x1c <__rc12>
     d89: e0 01        	cpx	#$1
     d8b: 65 14        	adc	$14                     ; 0x14 <__rc4>
     d8d: 85 24        	sta	$24                     ; 0x24 <__rc20>
     d8f: a9 bf        	lda	#$bf
     d91: 65 15        	adc	$15                     ; 0x15 <__rc5>
     d93: 85 25        	sta	$25                     ; 0x25 <__rc21>
     d95: a9 03        	lda	#$3
     d97: 69 00        	adc	#$0
     d99: 85 26        	sta	$26                     ; 0x26 <__rc22>
     d9b: a5 1a        	lda	$1a                     ; 0x1a <__rc10>
     d9d: a6 1c        	ldx	$1c                     ; 0x1c <__rc12>
     d9f: e0 01        	cpx	#$1
     da1: 65 1d        	adc	$1d                     ; 0x1d <__rc13>
     da3: 85 16        	sta	$16                     ; 0x16 <__rc6>
     da5: a5 1b        	lda	$1b                     ; 0x1b <__rc11>
     da7: 69 00        	adc	#$0
     da9: a8           	tay
     daa: a9 00        	lda	#$0
     dac: 69 00        	adc	#$0
     dae: aa           	tax
     daf: 18           	clc
     db0: a5 16        	lda	$16                     ; 0x16 <__rc6>
     db2: 69 00        	adc	#$0
     db4: 85 17        	sta	$17                     ; 0x17 <__rc7>
     db6: 98           	tya
     db7: 69 bf        	adc	#$bf
     db9: a8           	tay
     dba: 8a           	txa
     dbb: 69 03        	adc	#$3
     dbd: 85 27        	sta	$27                     ; 0x27 <__rc23>
     dbf: 98           	tya
     dc0: 84 16        	sty	$16                     ; 0x16 <__rc6>
     dc2: 06 16        	asl	$16                     ; 0x16 <__rc6>
     dc4: 26 27        	rol	$27                     ; 0x27 <__rc23>
     dc6: 06 16        	asl	$16                     ; 0x16 <__rc6>
     dc8: 26 27        	rol	$27                     ; 0x27 <__rc23>
     dca: 06 16        	asl	$16                     ; 0x16 <__rc6>
     dcc: 26 27        	rol	$27                     ; 0x27 <__rc23>
     dce: a4 27        	ldy	$27                     ; 0x27 <__rc23>
     dd0: a6 0f        	ldx	$f                      ; 0xf <__data_size+0xf>
     dd2: 78           	sei
     dd3: 84 0f        	sty	$f                      ; 0xf <__data_size+0xf>
     dd5: a4 17        	ldy	$17                     ; 0x17 <__rc7>
     dd7: 84 16        	sty	$16                     ; 0x16 <__rc6>
     dd9: 09 e0        	ora	#$e0
     ddb: 85 17        	sta	$17                     ; 0x17 <__rc7>
     ddd: b2 16        	lda	($16)                   ; 0x16 <__rc6>
     ddf: 85 27        	sta	$27                     ; 0x27 <__rc23>
     de1: 86 0f        	stx	$f                      ; 0xf <__data_size+0xf>
     de3: 58           	cli
     de4: a5 25        	lda	$25                     ; 0x25 <__rc21>
     de6: 85 16        	sta	$16                     ; 0x16 <__rc6>
     de8: 06 16        	asl	$16                     ; 0x16 <__rc6>
     dea: 26 26        	rol	$26                     ; 0x26 <__rc22>
     dec: 06 16        	asl	$16                     ; 0x16 <__rc6>
     dee: 26 26        	rol	$26                     ; 0x26 <__rc22>
     df0: 06 16        	asl	$16                     ; 0x16 <__rc6>
     df2: 26 26        	rol	$26                     ; 0x26 <__rc22>
     df4: a4 26        	ldy	$26                     ; 0x26 <__rc22>
     df6: a6 0f        	ldx	$f                      ; 0xf <__data_size+0xf>
     df8: 78           	sei
     df9: 84 0f        	sty	$f                      ; 0xf <__data_size+0xf>
     dfb: a4 28        	ldy	$28                     ; 0x28 <__rc24>
     dfd: 09 e0        	ora	#$e0
     dff: 5a           	phy
     e00: a4 24        	ldy	$24                     ; 0x24 <__rc20>
     e02: 84 16        	sty	$16                     ; 0x16 <__rc6>
     e04: 7a           	ply
     e05: 85 17        	sta	$17                     ; 0x17 <__rc7>
     e07: a5 27        	lda	$27                     ; 0x27 <__rc23>
     e09: 92 16        	sta	($16)                   ; 0x16 <__rc6>
     e0b: a9 00        	lda	#$0
     e0d: 91 16        	sta	($16),y                 ; 0x16 <__rc6>
     e0f: 84 24        	sty	$24                     ; 0x24 <__rc20>
     e11: 86 0f        	stx	$f                      ; 0xf <__data_size+0xf>
     e13: 58           	cli
     e14: a5 1e        	lda	$1e                     ; 0x1e <__rc14>
     e16: a6 1c        	ldx	$1c                     ; 0x1c <__rc12>
     e18: e0 01        	cpx	#$1
     e1a: 65 12        	adc	$12                     ; 0x12 <__rc2>
     e1c: 85 17        	sta	$17                     ; 0x17 <__rc7>
     e1e: a9 bf        	lda	#$bf
     e20: 65 13        	adc	$13                     ; 0x13 <__rc3>
     e22: a8           	tay
     e23: a9 03        	lda	#$3
     e25: 69 00        	adc	#$0
     e27: 84 16        	sty	$16                     ; 0x16 <__rc6>
     e29: 06 16        	asl	$16                     ; 0x16 <__rc6>
     e2b: 2a           	rol
     e2c: 06 16        	asl	$16                     ; 0x16 <__rc6>
     e2e: 2a           	rol
     e2f: 06 16        	asl	$16                     ; 0x16 <__rc6>
     e31: 2a           	rol
     e32: a6 0f        	ldx	$f                      ; 0xf <__data_size+0xf>
     e34: 78           	sei
     e35: 85 0f        	sta	$f                      ; 0xf <__data_size+0xf>
     e37: a5 17        	lda	$17                     ; 0x17 <__rc7>
     e39: 85 16        	sta	$16                     ; 0x16 <__rc6>
     e3b: 98           	tya
     e3c: 09 e0        	ora	#$e0
     e3e: 85 17        	sta	$17                     ; 0x17 <__rc7>
     e40: a9 00        	lda	#$0
     e42: 92 16        	sta	($16)                   ; 0x16 <__rc6>
     e44: a0 01        	ldy	#$1
     e46: 84 28        	sty	$28                     ; 0x28 <__rc24>
     e48: a4 24        	ldy	$24                     ; 0x24 <__rc20>
     e4a: 91 16        	sta	($16),y                 ; 0x16 <__rc6>
     e4c: 86 0f        	stx	$f                      ; 0xf <__data_size+0xf>
     e4e: 58           	cli
     e4f: 18           	clc
     e50: a5 1d        	lda	$1d                     ; 0x1d <__rc13>
     e52: 69 02        	adc	#$2
     e54: 85 1d        	sta	$1d                     ; 0x1d <__rc13>
     e56: c9 50        	cmp	#$50
     e58: f0 03        	beq	$e5d <main+0x84c>
     e5a: 4c 80 0d     	jmp	$d80 <main+0x76f>
     e5d: 18           	clc
     e5e: a5 18        	lda	$18                     ; 0x18 <__rc8>
     e60: 69 02        	adc	#$2
     e62: 85 12        	sta	$12                     ; 0x12 <__rc2>
     e64: a5 19        	lda	$19                     ; 0x19 <__rc9>
     e66: 69 00        	adc	#$0
     e68: a6 19        	ldx	$19                     ; 0x19 <__rc9>
     e6a: d0 09        	bne	$e75 <main+0x864>
     e6c: a6 18        	ldx	$18                     ; 0x18 <__rc8>
     e6e: e0 1d        	cpx	#$1d
     e70: b0 0c        	bcs	$e7e <main+0x86d>
     e72: 4c 35 0d     	jmp	$d35 <main+0x724>
     e75: a6 19        	ldx	$19                     ; 0x19 <__rc9>
     e77: e0 00        	cpx	#$0
     e79: b0 03        	bcs	$e7e <main+0x86d>
     e7b: 4c 35 0d     	jmp	$d35 <main+0x724>
     e7e: a5 22        	lda	$22                     ; 0x22 <__rc18>
     e80: a0 10        	ldy	#$10
     e82: 91 10        	sta	($10),y                 ; 0x10 <__rc0>
     e84: a5 23        	lda	$23                     ; 0x23 <__rc19>
     e86: c8           	iny
     e87: 91 10        	sta	($10),y                 ; 0x10 <__rc0>
     e89: a2 14        	ldx	#$14
     e8b: 86 25        	stx	$25                     ; 0x25 <__rc21>
     e8d: a9 00        	lda	#$0
     e8f: aa           	tax
     e90: 85 12        	sta	$12                     ; 0x12 <__rc2>
     e92: 8a           	txa
     e93: a0 0f        	ldy	#$f
     e95: 91 10        	sta	($10),y                 ; 0x10 <__rc0>
     e97: 4a           	lsr
     e98: 48           	pha
     e99: a5 12        	lda	$12                     ; 0x12 <__rc2>
     e9b: 88           	dey
     e9c: 91 10        	sta	($10),y                 ; 0x10 <__rc0>
     e9e: 68           	pla
     e9f: 66 12        	ror	$12                     ; 0x12 <__rc2>
     ea1: 64 13        	stz	$13                     ; 0x13 <__rc3>
     ea3: 66 13        	ror	$13                     ; 0x13 <__rc3>
     ea5: 4a           	lsr
     ea6: 66 12        	ror	$12                     ; 0x12 <__rc2>
     ea8: 66 13        	ror	$13                     ; 0x13 <__rc3>
     eaa: 4a           	lsr
     eab: 66 12        	ror	$12                     ; 0x12 <__rc2>
     ead: 66 13        	ror	$13                     ; 0x13 <__rc3>
     eaf: a5 13        	lda	$13                     ; 0x13 <__rc3>
     eb1: 0a           	asl
     eb2: a6 12        	ldx	$12                     ; 0x12 <__rc2>
     eb4: 86 14        	stx	$14                     ; 0x14 <__rc4>
     eb6: 26 14        	rol	$14                     ; 0x14 <__rc4>
     eb8: 0a           	asl
     eb9: 26 14        	rol	$14                     ; 0x14 <__rc4>
     ebb: 18           	clc
     ebc: a2 01        	ldx	#$1
     ebe: b0 02        	bcs	$ec2 <main+0x8b1>
     ec0: a2 00        	ldx	#$0
     ec2: 86 28        	stx	$28                     ; 0x28 <__rc24>
     ec4: 65 13        	adc	$13                     ; 0x13 <__rc3>
     ec6: 85 2c        	sta	$2c                     ; 0x2c <__rc28>
     ec8: a8           	tay
     ec9: a5 14        	lda	$14                     ; 0x14 <__rc4>
     ecb: 65 12        	adc	$12                     ; 0x12 <__rc2>
     ecd: aa           	tax
     ece: 85 2d        	sta	$2d                     ; 0x2d <__rc29>
     ed0: 18           	clc
     ed1: 98           	tya
     ed2: 69 a0        	adc	#$a0
     ed4: 85 2e        	sta	$2e                     ; 0x2e <__rc30>
     ed6: 8a           	txa
     ed7: 69 00        	adc	#$0
     ed9: 85 2f        	sta	$2f                     ; 0x2f <__rc31>
     edb: 64 12        	stz	$12                     ; 0x12 <__rc2>
     edd: a4 12        	ldy	$12                     ; 0x12 <__rc2>
     edf: a5 12        	lda	$12                     ; 0x12 <__rc2>
     ee1: a6 28        	ldx	$28                     ; 0x28 <__rc24>
     ee3: e0 01        	cpx	#$1
     ee5: 65 2c        	adc	$2c                     ; 0x2c <__rc28>
     ee7: 85 13        	sta	$13                     ; 0x13 <__rc3>
     ee9: a9 00        	lda	#$0
     eeb: 65 2d        	adc	$2d                     ; 0x2d <__rc29>
     eed: 85 15        	sta	$15                     ; 0x15 <__rc5>
     eef: 84 29        	sty	$29                     ; 0x29 <__rc25>
     ef1: a9 02        	lda	#$2
     ef3: 69 00        	adc	#$0
     ef5: a6 0f        	ldx	$f                      ; 0xf <__data_size+0xf>
     ef7: 78           	sei
     ef8: a4 15        	ldy	$15                     ; 0x15 <__rc5>
     efa: 84 12        	sty	$12                     ; 0x12 <__rc2>
     efc: 06 12        	asl	$12                     ; 0x12 <__rc2>
     efe: 2a           	rol
     eff: 06 12        	asl	$12                     ; 0x12 <__rc2>
     f01: 2a           	rol
     f02: 06 12        	asl	$12                     ; 0x12 <__rc2>
     f04: 2a           	rol
     f05: 85 0f        	sta	$f                      ; 0xf <__data_size+0xf>
     f07: a5 15        	lda	$15                     ; 0x15 <__rc5>
     f09: 09 e0        	ora	#$e0
     f0b: a4 13        	ldy	$13                     ; 0x13 <__rc3>
     f0d: 84 12        	sty	$12                     ; 0x12 <__rc2>
     f0f: 85 13        	sta	$13                     ; 0x13 <__rc3>
     f11: a9 00        	lda	#$0
     f13: 92 12        	sta	($12)                   ; 0x12 <__rc2>
     f15: a0 01        	ldy	#$1
     f17: 91 12        	sta	($12),y                 ; 0x12 <__rc2>
     f19: 64 13        	stz	$13                     ; 0x13 <__rc3>
     f1b: 86 0f        	stx	$f                      ; 0xf <__data_size+0xf>
     f1d: 58           	cli
     f1e: a5 29        	lda	$29                     ; 0x29 <__rc25>
     f20: a6 28        	ldx	$28                     ; 0x28 <__rc24>
     f22: e0 01        	cpx	#$1
     f24: 65 2e        	adc	$2e                     ; 0x2e <__rc30>
     f26: 85 27        	sta	$27                     ; 0x27 <__rc23>
     f28: a9 00        	lda	#$0
     f2a: 65 2f        	adc	$2f                     ; 0x2f <__rc31>
     f2c: 85 26        	sta	$26                     ; 0x26 <__rc22>
     f2e: a9 02        	lda	#$2
     f30: 69 00        	adc	#$0
     f32: 85 2a        	sta	$2a                     ; 0x2a <__rc26>
     f34: 8c a6 d6     	sty	$d6a6                   ; 0xd6a6 <__heap_start+0x8d16>
     f37: ad a4 d6     	lda	$d6a4                   ; 0xd6a4 <__heap_start+0x8d14>
     f3a: ae a5 d6     	ldx	$d6a5                   ; 0xd6a5 <__heap_start+0x8d15>
     f3d: 5a           	phy
     f3e: a4 25        	ldy	$25                     ; 0x25 <__rc21>
     f40: 84 12        	sty	$12                     ; 0x12 <__rc2>
     f42: 7a           	ply
     f43: 84 24        	sty	$24                     ; 0x24 <__rc20>
     f45: 20 1a 43     	jsr	$431a <__umodhi3>
     f48: 85 14        	sta	$14                     ; 0x14 <__rc4>
     f4a: 86 15        	stx	$15                     ; 0x15 <__rc5>
     f4c: a5 26        	lda	$26                     ; 0x26 <__rc22>
     f4e: 85 12        	sta	$12                     ; 0x12 <__rc2>
     f50: 06 12        	asl	$12                     ; 0x12 <__rc2>
     f52: 26 2a        	rol	$2a                     ; 0x2a <__rc26>
     f54: 06 12        	asl	$12                     ; 0x12 <__rc2>
     f56: 26 2a        	rol	$2a                     ; 0x2a <__rc26>
     f58: 06 12        	asl	$12                     ; 0x12 <__rc2>
     f5a: 26 2a        	rol	$2a                     ; 0x2a <__rc26>
     f5c: a4 2a        	ldy	$2a                     ; 0x2a <__rc26>
     f5e: a6 0f        	ldx	$f                      ; 0xf <__data_size+0xf>
     f60: 78           	sei
     f61: 84 0f        	sty	$f                      ; 0xf <__data_size+0xf>
     f63: a4 27        	ldy	$27                     ; 0x27 <__rc23>
     f65: 84 12        	sty	$12                     ; 0x12 <__rc2>
     f67: 09 e0        	ora	#$e0
     f69: 85 13        	sta	$13                     ; 0x13 <__rc3>
     f6b: a5 14        	lda	$14                     ; 0x14 <__rc4>
     f6d: 92 12        	sta	($12)                   ; 0x12 <__rc2>
     f6f: a4 24        	ldy	$24                     ; 0x24 <__rc20>
     f71: a5 15        	lda	$15                     ; 0x15 <__rc5>
     f73: 91 12        	sta	($12),y                 ; 0x12 <__rc2>
     f75: 86 0f        	stx	$f                      ; 0xf <__data_size+0xf>
     f77: 58           	cli
     f78: 18           	clc
     f79: a5 29        	lda	$29                     ; 0x29 <__rc25>
     f7b: 69 02        	adc	#$2
     f7d: 85 12        	sta	$12                     ; 0x12 <__rc2>
     f7f: c9 50        	cmp	#$50
     f81: f0 03        	beq	$f86 <main+0x975>
     f83: 4c dd 0e     	jmp	$edd <main+0x8cc>
     f86: a2 14        	ldx	#$14
     f88: 86 25        	stx	$25                     ; 0x25 <__rc21>
     f8a: 18           	clc
     f8b: a0 0e        	ldy	#$e
     f8d: b1 10        	lda	($10),y                 ; 0x10 <__rc0>
     f8f: 85 14        	sta	$14                     ; 0x14 <__rc4>
     f91: 69 02        	adc	#$2
     f93: a8           	tay
     f94: 5a           	phy
     f95: a0 0f        	ldy	#$f
     f97: b1 10        	lda	($10),y                 ; 0x10 <__rc0>
     f99: 7a           	ply
     f9a: aa           	tax
     f9b: 69 00        	adc	#$0
     f9d: 85 12        	sta	$12                     ; 0x12 <__rc2>
     f9f: 8a           	txa
     fa0: d0 06        	bne	$fa8 <main+0x997>
     fa2: a6 14        	ldx	$14                     ; 0x14 <__rc4>
     fa4: e0 1d        	cpx	#$1d
     fa6: 80 02        	bra	$faa <main+0x999>
     fa8: e0 00        	cpx	#$0
     faa: 98           	tya
     fab: a6 12        	ldx	$12                     ; 0x12 <__rc2>
     fad: b0 03        	bcs	$fb2 <main+0x9a1>
     faf: 4c 90 0e     	jmp	$e90 <main+0x87f>
     fb2: a0 01        	ldy	#$1
     fb4: a2 00        	ldx	#$0
     fb6: 8a           	txa
     fb7: 48           	pha
     fb8: 5a           	phy
     fb9: a0 10        	ldy	#$10
     fbb: b1 10        	lda	($10),y                 ; 0x10 <__rc0>
     fbd: 85 28        	sta	$28                     ; 0x28 <__rc24>
     fbf: c8           	iny
     fc0: b1 10        	lda	($10),y                 ; 0x10 <__rc0>
     fc2: 7a           	ply
     fc3: 85 29        	sta	$29                     ; 0x29 <__rc25>
     fc5: 68           	pla
     fc6: 85 19        	sta	$19                     ; 0x19 <__rc9>
     fc8: 4a           	lsr
     fc9: 86 18        	stx	$18                     ; 0x18 <__rc8>
     fcb: 86 12        	stx	$12                     ; 0x12 <__rc2>
     fcd: 66 12        	ror	$12                     ; 0x12 <__rc2>
     fcf: 64 13        	stz	$13                     ; 0x13 <__rc3>
     fd1: 66 13        	ror	$13                     ; 0x13 <__rc3>
     fd3: 4a           	lsr
     fd4: 66 12        	ror	$12                     ; 0x12 <__rc2>
     fd6: 66 13        	ror	$13                     ; 0x13 <__rc3>
     fd8: 4a           	lsr
     fd9: 66 12        	ror	$12                     ; 0x12 <__rc2>
     fdb: a6 12        	ldx	$12                     ; 0x12 <__rc2>
     fdd: 86 14        	stx	$14                     ; 0x14 <__rc4>
     fdf: 66 13        	ror	$13                     ; 0x13 <__rc3>
     fe1: a5 13        	lda	$13                     ; 0x13 <__rc3>
     fe3: 0a           	asl
     fe4: 26 12        	rol	$12                     ; 0x12 <__rc2>
     fe6: 0a           	asl
     fe7: 26 12        	rol	$12                     ; 0x12 <__rc2>
     fe9: a6 12        	ldx	$12                     ; 0x12 <__rc2>
     feb: 86 15        	stx	$15                     ; 0x15 <__rc5>
     fed: 18           	clc
     fee: a2 01        	ldx	#$1
     ff0: b0 02        	bcs	$ff4 <main+0x9e3>
     ff2: a2 00        	ldx	#$0
     ff4: 86 1a        	stx	$1a                     ; 0x1a <__rc10>
     ff6: 65 13        	adc	$13                     ; 0x13 <__rc3>
     ff8: 85 12        	sta	$12                     ; 0x12 <__rc2>
     ffa: 85 16        	sta	$16                     ; 0x16 <__rc6>
     ffc: a5 15        	lda	$15                     ; 0x15 <__rc5>
     ffe: 65 14        	adc	$14                     ; 0x14 <__rc4>
    1000: aa           	tax
    1001: 85 13        	sta	$13                     ; 0x13 <__rc3>
    1003: 18           	clc
    1004: a5 16        	lda	$16                     ; 0x16 <__rc6>
    1006: 69 a0        	adc	#$a0
    1008: 85 14        	sta	$14                     ; 0x14 <__rc4>
    100a: 8a           	txa
    100b: 69 00        	adc	#$0
    100d: 85 15        	sta	$15                     ; 0x15 <__rc5>
    100f: 64 1b        	stz	$1b                     ; 0x1b <__rc11>
    1011: a5 1b        	lda	$1b                     ; 0x1b <__rc11>
    1013: 18           	clc
    1014: 69 50        	adc	#$50
    1016: 85 1c        	sta	$1c                     ; 0x1c <__rc12>
    1018: 5a           	phy
    1019: a6 1a        	ldx	$1a                     ; 0x1a <__rc10>
    101b: e0 01        	cpx	#$1
    101d: 65 12        	adc	$12                     ; 0x12 <__rc2>
    101f: 85 17        	sta	$17                     ; 0x17 <__rc7>
    1021: a9 00        	lda	#$0
    1023: 65 13        	adc	$13                     ; 0x13 <__rc3>
    1025: 85 1d        	sta	$1d                     ; 0x1d <__rc13>
    1027: a9 02        	lda	#$2
    1029: 69 00        	adc	#$0
    102b: a6 0f        	ldx	$f                      ; 0xf <__data_size+0xf>
    102d: 78           	sei
    102e: a4 1d        	ldy	$1d                     ; 0x1d <__rc13>
    1030: 84 16        	sty	$16                     ; 0x16 <__rc6>
    1032: 06 16        	asl	$16                     ; 0x16 <__rc6>
    1034: 2a           	rol
    1035: 06 16        	asl	$16                     ; 0x16 <__rc6>
    1037: 2a           	rol
    1038: 06 16        	asl	$16                     ; 0x16 <__rc6>
    103a: 2a           	rol
    103b: 85 0f        	sta	$f                      ; 0xf <__data_size+0xf>
    103d: a5 1d        	lda	$1d                     ; 0x1d <__rc13>
    103f: 09 e0        	ora	#$e0
    1041: a4 17        	ldy	$17                     ; 0x17 <__rc7>
    1043: 84 16        	sty	$16                     ; 0x16 <__rc6>
    1045: 7a           	ply
    1046: 85 17        	sta	$17                     ; 0x17 <__rc7>
    1048: a9 00        	lda	#$0
    104a: 92 16        	sta	($16)                   ; 0x16 <__rc6>
    104c: 91 16        	sta	($16),y                 ; 0x16 <__rc6>
    104e: 86 0f        	stx	$f                      ; 0xf <__data_size+0xf>
    1050: a5 1c        	lda	$1c                     ; 0x1c <__rc12>
    1052: a6 1a        	ldx	$1a                     ; 0x1a <__rc10>
    1054: e0 01        	cpx	#$1
    1056: 65 14        	adc	$14                     ; 0x14 <__rc4>
    1058: 85 1c        	sta	$1c                     ; 0x1c <__rc12>
    105a: a9 00        	lda	#$0
    105c: 65 15        	adc	$15                     ; 0x15 <__rc5>
    105e: 85 1d        	sta	$1d                     ; 0x1d <__rc13>
    1060: a9 02        	lda	#$2
    1062: 69 00        	adc	#$0
    1064: 85 1e        	sta	$1e                     ; 0x1e <__rc14>
    1066: a5 1b        	lda	$1b                     ; 0x1b <__rc11>
    1068: a6 1a        	ldx	$1a                     ; 0x1a <__rc10>
    106a: e0 01        	cpx	#$1
    106c: 65 14        	adc	$14                     ; 0x14 <__rc4>
    106e: 85 17        	sta	$17                     ; 0x17 <__rc7>
    1070: a9 00        	lda	#$0
    1072: 65 15        	adc	$15                     ; 0x15 <__rc5>
    1074: 85 1f        	sta	$1f                     ; 0x1f <__rc15>
    1076: a9 02        	lda	#$2
    1078: 69 00        	adc	#$0
    107a: a6 1f        	ldx	$1f                     ; 0x1f <__rc15>
    107c: 86 16        	stx	$16                     ; 0x16 <__rc6>
    107e: 06 16        	asl	$16                     ; 0x16 <__rc6>
    1080: 2a           	rol
    1081: 06 16        	asl	$16                     ; 0x16 <__rc6>
    1083: 2a           	rol
    1084: 06 16        	asl	$16                     ; 0x16 <__rc6>
    1086: 2a           	rol
    1087: 58           	cli
    1088: a6 0f        	ldx	$f                      ; 0xf <__data_size+0xf>
    108a: 78           	sei
    108b: 85 0f        	sta	$f                      ; 0xf <__data_size+0xf>
    108d: a5 17        	lda	$17                     ; 0x17 <__rc7>
    108f: 85 16        	sta	$16                     ; 0x16 <__rc6>
    1091: a5 1f        	lda	$1f                     ; 0x1f <__rc15>
    1093: 09 e0        	ora	#$e0
    1095: 85 17        	sta	$17                     ; 0x17 <__rc7>
    1097: b2 16        	lda	($16)                   ; 0x16 <__rc6>
    1099: 85 1f        	sta	$1f                     ; 0x1f <__rc15>
    109b: 86 0f        	stx	$f                      ; 0xf <__data_size+0xf>
    109d: 58           	cli
    109e: a5 1d        	lda	$1d                     ; 0x1d <__rc13>
    10a0: 85 16        	sta	$16                     ; 0x16 <__rc6>
    10a2: 06 16        	asl	$16                     ; 0x16 <__rc6>
    10a4: 26 1e        	rol	$1e                     ; 0x1e <__rc14>
    10a6: 06 16        	asl	$16                     ; 0x16 <__rc6>
    10a8: 26 1e        	rol	$1e                     ; 0x1e <__rc14>
    10aa: 06 16        	asl	$16                     ; 0x16 <__rc6>
    10ac: 26 1e        	rol	$1e                     ; 0x1e <__rc14>
    10ae: 84 16        	sty	$16                     ; 0x16 <__rc6>
    10b0: a4 1e        	ldy	$1e                     ; 0x1e <__rc14>
    10b2: a6 0f        	ldx	$f                      ; 0xf <__data_size+0xf>
    10b4: 78           	sei
    10b5: 84 0f        	sty	$f                      ; 0xf <__data_size+0xf>
    10b7: a4 16        	ldy	$16                     ; 0x16 <__rc6>
    10b9: 48           	pha
    10ba: a5 1c        	lda	$1c                     ; 0x1c <__rc12>
    10bc: 85 16        	sta	$16                     ; 0x16 <__rc6>
    10be: 68           	pla
    10bf: 09 e0        	ora	#$e0
    10c1: 85 17        	sta	$17                     ; 0x17 <__rc7>
    10c3: a5 1f        	lda	$1f                     ; 0x1f <__rc15>
    10c5: 92 16        	sta	($16)                   ; 0x16 <__rc6>
    10c7: a9 00        	lda	#$0
    10c9: 91 16        	sta	($16),y                 ; 0x16 <__rc6>
    10cb: 86 0f        	stx	$f                      ; 0xf <__data_size+0xf>
    10cd: 58           	cli
    10ce: 18           	clc
    10cf: a5 1b        	lda	$1b                     ; 0x1b <__rc11>
    10d1: 69 02        	adc	#$2
    10d3: 85 1b        	sta	$1b                     ; 0x1b <__rc11>
    10d5: c9 50        	cmp	#$50
    10d7: f0 03        	beq	$10dc <main+0xacb>
    10d9: 4c 11 10     	jmp	$1011 <main+0xa00>
    10dc: 18           	clc
    10dd: a5 18        	lda	$18                     ; 0x18 <__rc8>
    10df: 69 02        	adc	#$2
    10e1: 85 12        	sta	$12                     ; 0x12 <__rc2>
    10e3: a5 19        	lda	$19                     ; 0x19 <__rc9>
    10e5: 69 00        	adc	#$0
    10e7: a6 19        	ldx	$19                     ; 0x19 <__rc9>
    10e9: d0 06        	bne	$10f1 <main+0xae0>
    10eb: a6 18        	ldx	$18                     ; 0x18 <__rc8>
    10ed: e0 1d        	cpx	#$1d
    10ef: 80 04        	bra	$10f5 <main+0xae4>
    10f1: a6 19        	ldx	$19                     ; 0x19 <__rc9>
    10f3: e0 00        	cpx	#$0
    10f5: a6 12        	ldx	$12                     ; 0x12 <__rc2>
    10f7: b0 03        	bcs	$10fc <main+0xaeb>
    10f9: 4c c6 0f     	jmp	$fc6 <main+0x9b5>
    10fc: a2 40        	ldx	#$40
    10fe: 8e 14 d2     	stx	$d214                   ; 0xd214 <__heap_start+0x8884>
    1101: a2 01        	ldx	#$1
    1103: 8e 15 d2     	stx	$d215                   ; 0xd215 <__heap_start+0x8885>
    1106: 9c 16 d2     	stz	$d216                   ; 0xd216 <__heap_start+0x8886>
    1109: 9c 17 d2     	stz	$d217                   ; 0xd217 <__heap_start+0x8887>
    110c: 9c 20 d2     	stz	$d220                   ; 0xd220 <__heap_start+0x8890>
    110f: 9c 21 d2     	stz	$d221                   ; 0xd221 <__heap_start+0x8891>
    1112: 9c 22 d2     	stz	$d222                   ; 0xd222 <__heap_start+0x8892>
    1115: 9c 23 d2     	stz	$d223                   ; 0xd223 <__heap_start+0x8893>
    1118: a5 66        	lda	$66                     ; 0x66 <_tileSize.2>
    111a: 29 01        	and	#$1
    111c: a2 11        	ldx	#$11
    111e: a0 11        	ldy	#$11
    1120: c9 00        	cmp	#$0
    1122: d0 02        	bne	$1126 <main+0xb15>
    1124: a0 01        	ldy	#$1
    1126: 8c 18 d2     	sty	$d218                   ; 0xd218 <__heap_start+0x8888>
    1129: a5 65        	lda	$65                     ; 0x65 <_tileSize.1>
    112b: 29 01        	and	#$1
    112d: d0 02        	bne	$1131 <main+0xb20>
    112f: a2 01        	ldx	#$1
    1131: 8e 0c d2     	stx	$d20c                   ; 0xd20c <__heap_start+0x887c>
    1134: a2 10        	ldx	#$10
    1136: 8e 00 d2     	stx	$d200                   ; 0xd200 <__heap_start+0x8870>
    1139: 64 63        	stz	$63                     ; 0x63 <_active>
    113b: 20 29 25     	jsr	$2529 <bitmapClear>
    113e: a2 01        	ldx	#$1
    1140: 86 63        	stx	$63                     ; 0x63 <_active>
    1142: 20 29 25     	jsr	$2529 <bitmapClear>
    1145: a2 02        	ldx	#$2
    1147: 86 63        	stx	$63                     ; 0x63 <_active>
    1149: 86 24        	stx	$24                     ; 0x24 <__rc20>
    114b: 20 29 25     	jsr	$2529 <bitmapClear>
    114e: 9c 00 d1     	stz	$d100                   ; 0xd100 <__heap_start+0x8770>
    1151: 9c 08 d1     	stz	$d108                   ; 0xd108 <__heap_start+0x8778>
    1154: 9c 10 d1     	stz	$d110                   ; 0xd110 <__heap_start+0x8780>
    1157: ad 01 d0     	lda	$d001                   ; 0xd001 <__heap_start+0x8671>
    115a: 29 ef        	and	#$ef
    115c: 8d 01 d0     	sta	$d001                   ; 0xd001 <__heap_start+0x8671>
    115f: a6 01        	ldx	$1                      ; 0x1 <__data_size+0x1>
    1161: 86 16        	stx	$16                     ; 0x16 <__rc6>
    1163: a2 50        	ldx	#$50
    1165: 8e 00 de     	stx	$de00                   ; 0xde00 <__heap_start+0x9470>
    1168: 9c 01 de     	stz	$de01                   ; 0xde01 <__heap_start+0x9471>
    116b: a2 1e        	ldx	#$1e
    116d: 8e 02 de     	stx	$de02                   ; 0xde02 <__heap_start+0x9472>
    1170: 9c 03 de     	stz	$de03                   ; 0xde03 <__heap_start+0x9473>
    1173: ae 10 de     	ldx	$de10                   ; 0xde10 <__heap_start+0x9480>
    1176: ac 11 de     	ldy	$de11                   ; 0xde11 <__heap_start+0x9481>
    1179: ad 12 de     	lda	$de12                   ; 0xde12 <__heap_start+0x9482>
    117c: ad 13 de     	lda	$de13                   ; 0xde13 <__heap_start+0x9483>
    117f: a5 24        	lda	$24                     ; 0x24 <__rc20>
    1181: 85 01        	sta	$1                      ; 0x1 <__data_size+0x1>
    1183: e0 01        	cpx	#$1
    1185: 98           	tya
    1186: e9 00        	sbc	#$0
    1188: 50 02        	bvc	$118c <main+0xb7b>
    118a: 49 80        	eor	#$80
    118c: 48           	pha
    118d: 5a           	phy
    118e: a0 0c        	ldy	#$c
    1190: b1 10        	lda	($10),y                 ; 0x10 <__rc0>
    1192: 85 18        	sta	$18                     ; 0x18 <__rc8>
    1194: c8           	iny
    1195: b1 10        	lda	($10),y                 ; 0x10 <__rc0>
    1197: 7a           	ply
    1198: 85 19        	sta	$19                     ; 0x19 <__rc9>
    119a: 68           	pla
    119b: 30 50        	bmi	$11ed <main+0xbdc>
    119d: a9 20        	lda	#$20
    119f: 86 17        	stx	$17                     ; 0x17 <__rc7>
    11a1: 86 12        	stx	$12                     ; 0x12 <__rc2>
    11a3: 84 13        	sty	$13                     ; 0x13 <__rc3>
    11a5: a6 18        	ldx	$18                     ; 0x18 <__rc8>
    11a7: 86 14        	stx	$14                     ; 0x14 <__rc4>
    11a9: a6 19        	ldx	$19                     ; 0x19 <__rc9>
    11ab: 86 15        	stx	$15                     ; 0x15 <__rc5>
    11ad: 80 04        	bra	$11b3 <main+0xba2>
    11af: a6 13        	ldx	$13                     ; 0x13 <__rc3>
    11b1: f0 14        	beq	$11c7 <main+0xbb6>
    11b3: 92 14        	sta	($14)                   ; 0x14 <__rc4>
    11b5: e6 14        	inc	$14                     ; 0x14 <__rc4>
    11b7: d0 02        	bne	$11bb <main+0xbaa>
    11b9: e6 15        	inc	$15                     ; 0x15 <__rc5>
    11bb: a2 ff        	ldx	#$ff
    11bd: c6 12        	dec	$12                     ; 0x12 <__rc2>
    11bf: e4 12        	cpx	$12                     ; 0x12 <__rc2>
    11c1: d0 ec        	bne	$11af <main+0xb9e>
    11c3: c6 13        	dec	$13                     ; 0x13 <__rc3>
    11c5: 80 e8        	bra	$11af <main+0xb9e>
    11c7: a6 12        	ldx	$12                     ; 0x12 <__rc2>
    11c9: d0 e8        	bne	$11b3 <main+0xba2>
    11cb: a2 03        	ldx	#$3
    11cd: 86 01        	stx	$1                      ; 0x1 <__data_size+0x1>
    11cf: a6 17        	ldx	$17                     ; 0x17 <__rc7>
    11d1: 80 03        	bra	$11d6 <main+0xbc5>
    11d3: 98           	tya
    11d4: f0 12        	beq	$11e8 <main+0xbd7>
    11d6: a9 f0        	lda	#$f0
    11d8: 92 18        	sta	($18)                   ; 0x18 <__rc8>
    11da: e6 18        	inc	$18                     ; 0x18 <__rc8>
    11dc: d0 02        	bne	$11e0 <main+0xbcf>
    11de: e6 19        	inc	$19                     ; 0x19 <__rc9>
    11e0: ca           	dex
    11e1: e0 ff        	cpx	#$ff
    11e3: d0 ee        	bne	$11d3 <main+0xbc2>
    11e5: 88           	dey
    11e6: 80 eb        	bra	$11d3 <main+0xbc2>
    11e8: 8a           	txa
    11e9: d0 eb        	bne	$11d6 <main+0xbc5>
    11eb: 80 04        	bra	$11f1 <main+0xbe0>
    11ed: a2 03        	ldx	#$3
    11ef: 86 01        	stx	$1                      ; 0x1 <__data_size+0x1>
    11f1: a6 16        	ldx	$16                     ; 0x16 <__rc6>
    11f3: 86 01        	stx	$1                      ; 0x1 <__data_size+0x1>
    11f5: 64 61        	stz	$61                     ; 0x61 <_col>
    11f7: 9c 14 d0     	stz	$d014                   ; 0xd014 <__heap_start+0x8684>
    11fa: 9c 15 d0     	stz	$d015                   ; 0xd015 <__heap_start+0x8685>
    11fd: 64 62        	stz	$62                     ; 0x62 <_row>
    11ff: 9c 16 d0     	stz	$d016                   ; 0xd016 <__heap_start+0x8686>
    1202: 9c 17 d0     	stz	$d017                   ; 0xd017 <__heap_start+0x8687>
    1205: a2 01        	ldx	#$1
    1207: 8e 80 d5     	stx	$d580                   ; 0xd580 <__heap_start+0x8bf0>
    120a: a0 20        	ldy	#$20
    120c: 8c 81 d5     	sty	$d581                   ; 0xd581 <__heap_start+0x8bf1>
    120f: a0 02        	ldy	#$2
    1211: 8c 80 d5     	sty	$d580                   ; 0xd580 <__heap_start+0x8bf0>
    1214: 9c 81 d5     	stz	$d581                   ; 0xd581 <__heap_start+0x8bf1>
    1217: c8           	iny
    1218: 8c 80 d5     	sty	$d580                   ; 0xd580 <__heap_start+0x8bf0>
    121b: 9c 81 d5     	stz	$d581                   ; 0xd581 <__heap_start+0x8bf1>
    121e: c8           	iny
    121f: 8c 82 d5     	sty	$d582                   ; 0xd582 <__heap_start+0x8bf2>
    1222: 9c 81 d5     	stz	$d581                   ; 0xd581 <__heap_start+0x8bf1>
    1225: c8           	iny
    1226: 8c 82 d5     	sty	$d582                   ; 0xd582 <__heap_start+0x8bf2>
    1229: 8e 81 d5     	stx	$d581                   ; 0xd581 <__heap_start+0x8bf1>
    122c: a2 08        	ldx	#$8
    122e: 8e 80 d5     	stx	$d580                   ; 0xd580 <__heap_start+0x8bf0>
    1231: 9c 81 d5     	stz	$d581                   ; 0xd581 <__heap_start+0x8bf1>
    1234: a2 bd        	ldx	#$bd
    1236: 8e 80 d5     	stx	$d580                   ; 0xd580 <__heap_start+0x8bf0>
    1239: 9c 81 d5     	stz	$d581                   ; 0xd581 <__heap_start+0x8bf1>
    123c: a2 c0        	ldx	#$c0
    123e: 8e 80 d5     	stx	$d580                   ; 0xd580 <__heap_start+0x8bf0>
    1241: 8a           	txa
    1242: a2 30        	ldx	#$30
    1244: 8e 81 d5     	stx	$d581                   ; 0xd581 <__heap_start+0x8bf1>
    1247: a0 c1        	ldy	#$c1
    1249: 8c 80 d5     	sty	$d580                   ; 0xd580 <__heap_start+0x8bf0>
    124c: 84 13        	sty	$13                     ; 0x13 <__rc3>
    124e: 8e 81 d5     	stx	$d581                   ; 0xd581 <__heap_start+0x8bf1>
    1251: c8           	iny
    1252: 8c 80 d5     	sty	$d580                   ; 0xd580 <__heap_start+0x8bf0>
    1255: 84 14        	sty	$14                     ; 0x14 <__rc4>
    1257: 8e 81 d5     	stx	$d581                   ; 0xd581 <__heap_start+0x8bf1>
    125a: c8           	iny
    125b: 8c 80 d5     	sty	$d580                   ; 0xd580 <__heap_start+0x8bf0>
    125e: 84 15        	sty	$15                     ; 0x15 <__rc5>
    1260: 8e 81 d5     	stx	$d581                   ; 0xd581 <__heap_start+0x8bf1>
    1263: c8           	iny
    1264: 8c 80 d5     	sty	$d580                   ; 0xd580 <__heap_start+0x8bf0>
    1267: 84 16        	sty	$16                     ; 0x16 <__rc6>
    1269: 8e 81 d5     	stx	$d581                   ; 0xd581 <__heap_start+0x8bf1>
    126c: c8           	iny
    126d: 8c 80 d5     	sty	$d580                   ; 0xd580 <__heap_start+0x8bf0>
    1270: 84 17        	sty	$17                     ; 0x17 <__rc7>
    1272: 8e 81 d5     	stx	$d581                   ; 0xd581 <__heap_start+0x8bf1>
    1275: c8           	iny
    1276: 8c 80 d5     	sty	$d580                   ; 0xd580 <__heap_start+0x8bf0>
    1279: 84 18        	sty	$18                     ; 0x18 <__rc8>
    127b: 8e 81 d5     	stx	$d581                   ; 0xd581 <__heap_start+0x8bf1>
    127e: c8           	iny
    127f: 8c 80 d5     	sty	$d580                   ; 0xd580 <__heap_start+0x8bf0>
    1282: 84 19        	sty	$19                     ; 0x19 <__rc9>
    1284: 8e 81 d5     	stx	$d581                   ; 0xd581 <__heap_start+0x8bf1>
    1287: c8           	iny
    1288: 8c 80 d5     	sty	$d580                   ; 0xd580 <__heap_start+0x8bf0>
    128b: 8e 81 d5     	stx	$d581                   ; 0xd581 <__heap_start+0x8bf1>
    128e: 8d 82 d5     	sta	$d582                   ; 0xd582 <__heap_start+0x8bf2>
    1291: 8e 81 d5     	stx	$d581                   ; 0xd581 <__heap_start+0x8bf1>
    1294: a5 13        	lda	$13                     ; 0x13 <__rc3>
    1296: 8d 82 d5     	sta	$d582                   ; 0xd582 <__heap_start+0x8bf2>
    1299: 8e 81 d5     	stx	$d581                   ; 0xd581 <__heap_start+0x8bf1>
    129c: a5 14        	lda	$14                     ; 0x14 <__rc4>
    129e: 8d 82 d5     	sta	$d582                   ; 0xd582 <__heap_start+0x8bf2>
    12a1: 8e 81 d5     	stx	$d581                   ; 0xd581 <__heap_start+0x8bf1>
    12a4: a5 15        	lda	$15                     ; 0x15 <__rc5>
    12a6: 8d 82 d5     	sta	$d582                   ; 0xd582 <__heap_start+0x8bf2>
    12a9: 8e 81 d5     	stx	$d581                   ; 0xd581 <__heap_start+0x8bf1>
    12ac: a5 16        	lda	$16                     ; 0x16 <__rc6>
    12ae: 8d 82 d5     	sta	$d582                   ; 0xd582 <__heap_start+0x8bf2>
    12b1: 8e 81 d5     	stx	$d581                   ; 0xd581 <__heap_start+0x8bf1>
    12b4: a5 17        	lda	$17                     ; 0x17 <__rc7>
    12b6: 8d 82 d5     	sta	$d582                   ; 0xd582 <__heap_start+0x8bf2>
    12b9: 8e 81 d5     	stx	$d581                   ; 0xd581 <__heap_start+0x8bf1>
    12bc: a5 18        	lda	$18                     ; 0x18 <__rc8>
    12be: 8d 82 d5     	sta	$d582                   ; 0xd582 <__heap_start+0x8bf2>
    12c1: 8e 81 d5     	stx	$d581                   ; 0xd581 <__heap_start+0x8bf1>
    12c4: a5 19        	lda	$19                     ; 0x19 <__rc9>
    12c6: 8d 82 d5     	sta	$d582                   ; 0xd582 <__heap_start+0x8bf2>
    12c9: 8e 81 d5     	stx	$d581                   ; 0xd581 <__heap_start+0x8bf1>
    12cc: 8c 82 d5     	sty	$d582                   ; 0xd582 <__heap_start+0x8bf2>
    12cf: 8e 81 d5     	stx	$d581                   ; 0xd581 <__heap_start+0x8bf1>
    12d2: a2 b0        	ldx	#$b0
    12d4: 8e 80 d5     	stx	$d580                   ; 0xd580 <__heap_start+0x8bf0>
    12d7: 8a           	txa
    12d8: 9c 81 d5     	stz	$d581                   ; 0xd581 <__heap_start+0x8bf1>
    12db: a2 a0        	ldx	#$a0
    12dd: 8e 80 d5     	stx	$d580                   ; 0xd580 <__heap_start+0x8bf0>
    12e0: 86 13        	stx	$13                     ; 0x13 <__rc3>
    12e2: 9c 81 d5     	stz	$d581                   ; 0xd581 <__heap_start+0x8bf1>
    12e5: a2 b1        	ldx	#$b1
    12e7: 8e 80 d5     	stx	$d580                   ; 0xd580 <__heap_start+0x8bf0>
    12ea: 86 14        	stx	$14                     ; 0x14 <__rc4>
    12ec: 9c 81 d5     	stz	$d581                   ; 0xd581 <__heap_start+0x8bf1>
    12ef: a2 a1        	ldx	#$a1
    12f1: 8e 80 d5     	stx	$d580                   ; 0xd580 <__heap_start+0x8bf0>
    12f4: 86 15        	stx	$15                     ; 0x15 <__rc5>
    12f6: 9c 81 d5     	stz	$d581                   ; 0xd581 <__heap_start+0x8bf1>
    12f9: a2 b2        	ldx	#$b2
    12fb: 8e 80 d5     	stx	$d580                   ; 0xd580 <__heap_start+0x8bf0>
    12fe: 86 16        	stx	$16                     ; 0x16 <__rc6>
    1300: 9c 81 d5     	stz	$d581                   ; 0xd581 <__heap_start+0x8bf1>
    1303: a2 a2        	ldx	#$a2
    1305: 8e 80 d5     	stx	$d580                   ; 0xd580 <__heap_start+0x8bf0>
    1308: 86 17        	stx	$17                     ; 0x17 <__rc7>
    130a: 9c 81 d5     	stz	$d581                   ; 0xd581 <__heap_start+0x8bf1>
    130d: a2 b3        	ldx	#$b3
    130f: 8e 80 d5     	stx	$d580                   ; 0xd580 <__heap_start+0x8bf0>
    1312: 86 18        	stx	$18                     ; 0x18 <__rc8>
    1314: 9c 81 d5     	stz	$d581                   ; 0xd581 <__heap_start+0x8bf1>
    1317: a2 a3        	ldx	#$a3
    1319: 8e 80 d5     	stx	$d580                   ; 0xd580 <__heap_start+0x8bf0>
    131c: 86 19        	stx	$19                     ; 0x19 <__rc9>
    131e: 9c 81 d5     	stz	$d581                   ; 0xd581 <__heap_start+0x8bf1>
    1321: a2 b4        	ldx	#$b4
    1323: 8e 80 d5     	stx	$d580                   ; 0xd580 <__heap_start+0x8bf0>
    1326: 86 1a        	stx	$1a                     ; 0x1a <__rc10>
    1328: 9c 81 d5     	stz	$d581                   ; 0xd581 <__heap_start+0x8bf1>
    132b: a2 a4        	ldx	#$a4
    132d: 8e 80 d5     	stx	$d580                   ; 0xd580 <__heap_start+0x8bf0>
    1330: 86 1b        	stx	$1b                     ; 0x1b <__rc11>
    1332: 9c 81 d5     	stz	$d581                   ; 0xd581 <__heap_start+0x8bf1>
    1335: a2 b5        	ldx	#$b5
    1337: 8e 80 d5     	stx	$d580                   ; 0xd580 <__heap_start+0x8bf0>
    133a: 86 1c        	stx	$1c                     ; 0x1c <__rc12>
    133c: 9c 81 d5     	stz	$d581                   ; 0xd581 <__heap_start+0x8bf1>
    133f: a2 a5        	ldx	#$a5
    1341: 8e 80 d5     	stx	$d580                   ; 0xd580 <__heap_start+0x8bf0>
    1344: 86 1d        	stx	$1d                     ; 0x1d <__rc13>
    1346: 9c 81 d5     	stz	$d581                   ; 0xd581 <__heap_start+0x8bf1>
    1349: a2 b6        	ldx	#$b6
    134b: 8e 80 d5     	stx	$d580                   ; 0xd580 <__heap_start+0x8bf0>
    134e: 86 1e        	stx	$1e                     ; 0x1e <__rc14>
    1350: 9c 81 d5     	stz	$d581                   ; 0xd581 <__heap_start+0x8bf1>
    1353: a2 a6        	ldx	#$a6
    1355: 8e 80 d5     	stx	$d580                   ; 0xd580 <__heap_start+0x8bf0>
    1358: 86 1f        	stx	$1f                     ; 0x1f <__rc15>
    135a: 9c 81 d5     	stz	$d581                   ; 0xd581 <__heap_start+0x8bf1>
    135d: a2 b7        	ldx	#$b7
    135f: 8e 80 d5     	stx	$d580                   ; 0xd580 <__heap_start+0x8bf0>
    1362: 86 22        	stx	$22                     ; 0x22 <__rc18>
    1364: 9c 81 d5     	stz	$d581                   ; 0xd581 <__heap_start+0x8bf1>
    1367: a2 a7        	ldx	#$a7
    1369: 8e 80 d5     	stx	$d580                   ; 0xd580 <__heap_start+0x8bf0>
    136c: 86 23        	stx	$23                     ; 0x23 <__rc19>
    136e: 9c 81 d5     	stz	$d581                   ; 0xd581 <__heap_start+0x8bf1>
    1371: a0 b8        	ldy	#$b8
    1373: 8c 80 d5     	sty	$d580                   ; 0xd580 <__heap_start+0x8bf0>
    1376: 9c 81 d5     	stz	$d581                   ; 0xd581 <__heap_start+0x8bf1>
    1379: e8           	inx
    137a: 8e 80 d5     	stx	$d580                   ; 0xd580 <__heap_start+0x8bf0>
    137d: 9c 81 d5     	stz	$d581                   ; 0xd581 <__heap_start+0x8bf1>
    1380: 8d 82 d5     	sta	$d582                   ; 0xd582 <__heap_start+0x8bf2>
    1383: 9c 81 d5     	stz	$d581                   ; 0xd581 <__heap_start+0x8bf1>
    1386: a5 13        	lda	$13                     ; 0x13 <__rc3>
    1388: 8d 82 d5     	sta	$d582                   ; 0xd582 <__heap_start+0x8bf2>
    138b: 9c 81 d5     	stz	$d581                   ; 0xd581 <__heap_start+0x8bf1>
    138e: a5 14        	lda	$14                     ; 0x14 <__rc4>
    1390: 8d 82 d5     	sta	$d582                   ; 0xd582 <__heap_start+0x8bf2>
    1393: 9c 81 d5     	stz	$d581                   ; 0xd581 <__heap_start+0x8bf1>
    1396: a5 15        	lda	$15                     ; 0x15 <__rc5>
    1398: 8d 82 d5     	sta	$d582                   ; 0xd582 <__heap_start+0x8bf2>
    139b: 9c 81 d5     	stz	$d581                   ; 0xd581 <__heap_start+0x8bf1>
    139e: a5 16        	lda	$16                     ; 0x16 <__rc6>
    13a0: 8d 82 d5     	sta	$d582                   ; 0xd582 <__heap_start+0x8bf2>
    13a3: 9c 81 d5     	stz	$d581                   ; 0xd581 <__heap_start+0x8bf1>
    13a6: a5 17        	lda	$17                     ; 0x17 <__rc7>
    13a8: 8d 82 d5     	sta	$d582                   ; 0xd582 <__heap_start+0x8bf2>
    13ab: 9c 81 d5     	stz	$d581                   ; 0xd581 <__heap_start+0x8bf1>
    13ae: a5 18        	lda	$18                     ; 0x18 <__rc8>
    13b0: 8d 82 d5     	sta	$d582                   ; 0xd582 <__heap_start+0x8bf2>
    13b3: 9c 81 d5     	stz	$d581                   ; 0xd581 <__heap_start+0x8bf1>
    13b6: a5 19        	lda	$19                     ; 0x19 <__rc9>
    13b8: 8d 82 d5     	sta	$d582                   ; 0xd582 <__heap_start+0x8bf2>
    13bb: 9c 81 d5     	stz	$d581                   ; 0xd581 <__heap_start+0x8bf1>
    13be: a5 1a        	lda	$1a                     ; 0x1a <__rc10>
    13c0: 8d 82 d5     	sta	$d582                   ; 0xd582 <__heap_start+0x8bf2>
    13c3: 9c 81 d5     	stz	$d581                   ; 0xd581 <__heap_start+0x8bf1>
    13c6: a5 1b        	lda	$1b                     ; 0x1b <__rc11>
    13c8: 8d 82 d5     	sta	$d582                   ; 0xd582 <__heap_start+0x8bf2>
    13cb: 9c 81 d5     	stz	$d581                   ; 0xd581 <__heap_start+0x8bf1>
    13ce: a5 1c        	lda	$1c                     ; 0x1c <__rc12>
    13d0: 8d 82 d5     	sta	$d582                   ; 0xd582 <__heap_start+0x8bf2>
    13d3: 9c 81 d5     	stz	$d581                   ; 0xd581 <__heap_start+0x8bf1>
    13d6: a5 1d        	lda	$1d                     ; 0x1d <__rc13>
    13d8: 8d 82 d5     	sta	$d582                   ; 0xd582 <__heap_start+0x8bf2>
    13db: 9c 81 d5     	stz	$d581                   ; 0xd581 <__heap_start+0x8bf1>
    13de: a5 1e        	lda	$1e                     ; 0x1e <__rc14>
    13e0: 8d 82 d5     	sta	$d582                   ; 0xd582 <__heap_start+0x8bf2>
    13e3: 9c 81 d5     	stz	$d581                   ; 0xd581 <__heap_start+0x8bf1>
    13e6: a5 1f        	lda	$1f                     ; 0x1f <__rc15>
    13e8: 8d 82 d5     	sta	$d582                   ; 0xd582 <__heap_start+0x8bf2>
    13eb: 9c 81 d5     	stz	$d581                   ; 0xd581 <__heap_start+0x8bf1>
    13ee: a5 22        	lda	$22                     ; 0x22 <__rc18>
    13f0: 8d 82 d5     	sta	$d582                   ; 0xd582 <__heap_start+0x8bf2>
    13f3: 9c 81 d5     	stz	$d581                   ; 0xd581 <__heap_start+0x8bf1>
    13f6: a5 23        	lda	$23                     ; 0x23 <__rc19>
    13f8: 8d 82 d5     	sta	$d582                   ; 0xd582 <__heap_start+0x8bf2>
    13fb: 9c 81 d5     	stz	$d581                   ; 0xd581 <__heap_start+0x8bf1>
    13fe: 8c 82 d5     	sty	$d582                   ; 0xd582 <__heap_start+0x8bf2>
    1401: a0 00        	ldy	#$0
    1403: 9c 81 d5     	stz	$d581                   ; 0xd581 <__heap_start+0x8bf1>
    1406: 8e 82 d5     	stx	$d582                   ; 0xd582 <__heap_start+0x8bf2>
    1409: 9c 81 d5     	stz	$d581                   ; 0xd581 <__heap_start+0x8bf1>
    140c: a2 40        	ldx	#$40
    140e: 86 12        	stx	$12                     ; 0x12 <__rc2>
    1410: a2 48        	ldx	#$48
    1412: 86 13        	stx	$13                     ; 0x13 <__rc3>
    1414: 80 0a        	bra	$1420 <main+0xe0f>
    1416: a2 02        	ldx	#$2
    1418: e6 12        	inc	$12                     ; 0x12 <__rc2>
    141a: d0 02        	bne	$141e <main+0xe0d>
    141c: e6 13        	inc	$13                     ; 0x13 <__rc3>
    141e: da           	phx
    141f: 7a           	ply
    1420: b2 12        	lda	($12)                   ; 0x12 <__rc2>
    1422: c9 61        	cmp	#$61
    1424: f0 f0        	beq	$1416 <main+0xe05>
    1426: a2 01        	ldx	#$1
    1428: c9 77        	cmp	#$77
    142a: f0 ec        	beq	$1418 <main+0xe07>
    142c: aa           	tax
    142d: f0 04        	beq	$1433 <main+0xe22>
    142f: 5a           	phy
    1430: fa           	plx
    1431: 80 e5        	bra	$1418 <main+0xe07>
    1433: a2 f9        	ldx	#$f9
    1435: a9 47        	lda	#$47
    1437: 86 fb        	stx	$fb                     ; 0xfb <__pal_size+0x7b>
    1439: 85 fc        	sta	$fc                     ; 0xfc <__pal_size+0x7c>
    143b: a2 15        	ldx	#$15
    143d: 86 fd        	stx	$fd                     ; 0xfd <__pal_size+0x7d>
    143f: 64 f3        	stz	$f3                     ; 0xf3 <__pal_size+0x73>
    1441: 84 f5        	sty	$f5                     ; 0xf5 <__pal_size+0x75>
    1443: a2 78        	ldx	#$78
    1445: 86 12        	stx	$12                     ; 0x12 <__rc2>
    1447: a2 00        	ldx	#$0
    1449: 86 13        	stx	$13                     ; 0x13 <__rc3>
    144b: 20 5c ff     	jsr	$ff5c <__heap_start+0xb5cc>
    144e: 92 28        	sta	($28)                   ; 0x28 <__rc24>
    1450: a9 00        	lda	#$0
    1452: 6a           	ror
    1453: 85 12        	sta	$12                     ; 0x12 <__rc2>
    1455: a6 78        	ldx	$78                     ; 0x78 <kernelError>
    1457: f0 17        	beq	$1470 <main+0xe5f>
    1459: a2 00        	ldx	#$0
    145b: 86 12        	stx	$12                     ; 0x12 <__rc2>
    145d: a2 00        	ldx	#$0
    145f: 86 13        	stx	$13                     ; 0x13 <__rc3>
    1461: a6 12        	ldx	$12                     ; 0x12 <__rc2>
    1463: a4 13        	ldy	$13                     ; 0x13 <__rc3>
    1465: 8e 7a 48     	stx	$487a                   ; 0x487a <theFile>
    1468: 8c 7b 48     	sty	$487b                   ; 0x487b <theFile+0x1>
    146b: 20 76 33     	jsr	$3376 <printf>
    146e: 80 fe        	bra	$146e <main+0xe5d>
    1470: b2 28        	lda	($28)                   ; 0x28 <__rc24>
    1472: 85 24        	sta	$24                     ; 0x24 <__rc20>
    1474: a2 78        	ldx	#$78
    1476: 86 12        	stx	$12                     ; 0x12 <__rc2>
    1478: a2 00        	ldx	#$0
    147a: 86 13        	stx	$13                     ; 0x13 <__rc3>
    147c: 64 71        	stz	$71                     ; 0x71 <kernelEventData>
    147e: 20 00 ff     	jsr	$ff00 <__heap_start+0xb570>
    1481: 92 28        	sta	($28)                   ; 0x28 <__rc24>
    1483: a9 00        	lda	#$0
    1485: 6a           	ror
    1486: 85 12        	sta	$12                     ; 0x12 <__rc2>
    1488: a6 71        	ldx	$71                     ; 0x71 <kernelEventData>
    148a: e0 28        	cpx	#$28
    148c: f0 cb        	beq	$1459 <main+0xe48>
    148e: e0 2a        	cpx	#$2a
    1490: f0 06        	beq	$1498 <main+0xe87>
    1492: e0 38        	cpx	#$38
    1494: d0 e6        	bne	$147c <main+0xe6b>
    1496: 80 c1        	bra	$1459 <main+0xe48>
    1498: a0 08        	ldy	#$8
    149a: b1 10        	lda	($10),y                 ; 0x10 <__rc0>
    149c: 85 2a        	sta	$2a                     ; 0x2a <__rc26>
    149e: c8           	iny
    149f: b1 10        	lda	($10),y                 ; 0x10 <__rc0>
    14a1: 85 2b        	sta	$2b                     ; 0x2b <__rc27>
    14a3: a9 01        	lda	#$1
    14a5: a2 00        	ldx	#$0
    14a7: 20 e8 40     	jsr	$40e8 <malloc>
    14aa: a6 12        	ldx	$12                     ; 0x12 <__rc2>
    14ac: 86 26        	stx	$26                     ; 0x26 <__rc22>
    14ae: a6 13        	ldx	$13                     ; 0x13 <__rc3>
    14b0: 86 27        	stx	$27                     ; 0x27 <__rc23>
    14b2: a5 24        	lda	$24                     ; 0x24 <__rc20>
    14b4: 92 12        	sta	($12)                   ; 0x12 <__rc2>
    14b6: a6 26        	ldx	$26                     ; 0x26 <__rc22>
    14b8: a4 27        	ldy	$27                     ; 0x27 <__rc23>
    14ba: 8e 7a 48     	stx	$487a                   ; 0x487a <theFile>
    14bd: 8c 7b 48     	sty	$487b                   ; 0x487b <theFile+0x1>
    14c0: 64 7e        	stz	$7e                     ; 0x7e <gd3Location>
    14c2: 64 7f        	stz	$7f                     ; 0x7f <gd3Location+0x1>
    14c4: 64 80        	stz	$80                     ; 0x80 <gd3Location+0x2>
    14c6: 64 81        	stz	$81                     ; 0x81 <gd3Location+0x3>
    14c8: 64 7d        	stz	$7d                     ; 0x7d <oneLoop>
    14ca: a2 10        	ldx	#$10
    14cc: 86 24        	stx	$24                     ; 0x24 <__rc20>
    14ce: 64 25        	stz	$25                     ; 0x25 <__rc21>
    14d0: 64 2c        	stz	$2c                     ; 0x2c <__rc28>
    14d2: 80 16        	bra	$14ea <main+0xed9>
    14d4: a2 05        	ldx	#$5
    14d6: 8e 82 d5     	stx	$d582                   ; 0xd582 <__heap_start+0x8bf2>
    14d9: a2 01        	ldx	#$1
    14db: 8e 81 d5     	stx	$d581                   ; 0xd581 <__heap_start+0x8bf1>
    14de: a6 12        	ldx	$12                     ; 0x12 <__rc2>
    14e0: e8           	inx
    14e1: 86 25        	stx	$25                     ; 0x25 <__rc21>
    14e3: e0 08        	cpx	#$8
    14e5: d0 03        	bne	$14ea <main+0xed9>
    14e7: 4c 6b 16     	jmp	$166b <main+0x105a>
    14ea: a6 28        	ldx	$28                     ; 0x28 <__rc24>
    14ec: 86 12        	stx	$12                     ; 0x12 <__rc2>
    14ee: a6 29        	ldx	$29                     ; 0x29 <__rc25>
    14f0: 86 13        	stx	$13                     ; 0x13 <__rc3>
    14f2: a6 26        	ldx	$26                     ; 0x26 <__rc22>
    14f4: 86 14        	stx	$14                     ; 0x14 <__rc4>
    14f6: a6 27        	ldx	$27                     ; 0x27 <__rc23>
    14f8: 86 15        	stx	$15                     ; 0x15 <__rc5>
    14fa: a2 00        	ldx	#$0
    14fc: a5 24        	lda	$24                     ; 0x24 <__rc20>
    14fe: 20 0a 2a     	jsr	$2a0a <fileRead>
    1501: a6 25        	ldx	$25                     ; 0x25 <__rc21>
    1503: 86 12        	stx	$12                     ; 0x12 <__rc2>
    1505: e0 06        	cpx	#$6
    1507: b0 d5        	bcs	$14de <main+0xecd>
    1509: 8a           	txa
    150a: 0a           	asl
    150b: aa           	tax
    150c: 7c 2f 44     	jmp	($442f,x)               ; 0x442f <__BLOCK_SIZE+0x242f>
    150f: 18           	clc
    1510: a5 10        	lda	$10                     ; 0x10 <__rc0>
    1512: 69 12        	adc	#$12
    1514: 48           	pha
    1515: a5 11        	lda	$11                     ; 0x11 <__rc1>
    1517: 69 00        	adc	#$0
    1519: a8           	tay
    151a: 68           	pla
    151b: 18           	clc
    151c: aa           	tax
    151d: 69 08        	adc	#$8
    151f: 85 12        	sta	$12                     ; 0x12 <__rc2>
    1521: 84 14        	sty	$14                     ; 0x14 <__rc4>
    1523: 98           	tya
    1524: 69 00        	adc	#$0
    1526: 85 13        	sta	$13                     ; 0x13 <__rc3>
    1528: a0 01        	ldy	#$1
    152a: b1 12        	lda	($12),y                 ; 0x12 <__rc2>
    152c: c9 01        	cmp	#$1
    152e: f0 03        	beq	$1533 <main+0xf22>
    1530: 4c 57 16     	jmp	$1657 <main+0x1046>
    1533: 86 12        	stx	$12                     ; 0x12 <__rc2>
    1535: a6 14        	ldx	$14                     ; 0x14 <__rc4>
    1537: 86 13        	stx	$13                     ; 0x13 <__rc3>
    1539: a0 08        	ldy	#$8
    153b: b1 12        	lda	($12),y                 ; 0x12 <__rc2>
    153d: c9 50        	cmp	#$50
    153f: 4c 59 16     	jmp	$1659 <main+0x1048>
    1542: a5 2c        	lda	$2c                     ; 0x2c <__rc28>
    1544: f0 03        	beq	$1549 <main+0xf38>
    1546: 4c de 14     	jmp	$14de <main+0xecd>
    1549: 18           	clc
    154a: a9 34        	lda	#$34
    154c: a0 04        	ldy	#$4
    154e: 71 28        	adc	($28),y                 ; 0x28 <__rc24>
    1550: a6 25        	ldx	$25                     ; 0x25 <__rc21>
    1552: 86 12        	stx	$12                     ; 0x12 <__rc2>
    1554: 85 2c        	sta	$2c                     ; 0x2c <__rc28>
    1556: 4c de 14     	jmp	$14de <main+0xecd>
    1559: 18           	clc
    155a: a5 10        	lda	$10                     ; 0x10 <__rc0>
    155c: 69 12        	adc	#$12
    155e: aa           	tax
    155f: a0 01        	ldy	#$1
    1561: b0 02        	bcs	$1565 <main+0xf54>
    1563: a0 00        	ldy	#$0
    1565: 84 19        	sty	$19                     ; 0x19 <__rc9>
    1567: 18           	clc
    1568: a5 10        	lda	$10                     ; 0x10 <__rc0>
    156a: 69 12        	adc	#$12
    156c: 48           	pha
    156d: a5 11        	lda	$11                     ; 0x11 <__rc1>
    156f: 69 00        	adc	#$0
    1571: a8           	tay
    1572: 68           	pla
    1573: 85 12        	sta	$12                     ; 0x12 <__rc2>
    1575: 84 13        	sty	$13                     ; 0x13 <__rc3>
    1577: 18           	clc
    1578: 69 04        	adc	#$4
    157a: 85 14        	sta	$14                     ; 0x14 <__rc4>
    157c: 98           	tya
    157d: 69 00        	adc	#$0
    157f: 18           	clc
    1580: 48           	pha
    1581: a5 10        	lda	$10                     ; 0x10 <__rc0>
    1583: 69 12        	adc	#$12
    1585: 85 1a        	sta	$1a                     ; 0x1a <__rc10>
    1587: a5 11        	lda	$11                     ; 0x11 <__rc1>
    1589: 69 00        	adc	#$0
    158b: 85 1b        	sta	$1b                     ; 0x1b <__rc11>
    158d: 68           	pla
    158e: 85 15        	sta	$15                     ; 0x15 <__rc5>
    1590: a0 04        	ldy	#$4
    1592: b1 12        	lda	($12),y                 ; 0x12 <__rc2>
    1594: 85 7e        	sta	$7e                     ; 0x7e <gd3Location>
    1596: a0 01        	ldy	#$1
    1598: b1 14        	lda	($14),y                 ; 0x14 <__rc4>
    159a: 84 16        	sty	$16                     ; 0x16 <__rc6>
    159c: 85 7f        	sta	$7f                     ; 0x7f <gd3Location+0x1>
    159e: c8           	iny
    159f: b1 14        	lda	($14),y                 ; 0x14 <__rc4>
    15a1: 84 17        	sty	$17                     ; 0x17 <__rc7>
    15a3: 85 80        	sta	$80                     ; 0x80 <gd3Location+0x2>
    15a5: c8           	iny
    15a6: b1 14        	lda	($14),y                 ; 0x14 <__rc4>
    15a8: 84 18        	sty	$18                     ; 0x18 <__rc8>
    15aa: 85 81        	sta	$81                     ; 0x81 <gd3Location+0x3>
    15ac: 18           	clc
    15ad: a5 1a        	lda	$1a                     ; 0x1a <__rc10>
    15af: 69 08        	adc	#$8
    15b1: 85 14        	sta	$14                     ; 0x14 <__rc4>
    15b3: a5 1b        	lda	$1b                     ; 0x1b <__rc11>
    15b5: 69 00        	adc	#$0
    15b7: a4 19        	ldy	$19                     ; 0x19 <__rc9>
    15b9: c0 01        	cpy	#$1
    15bb: 48           	pha
    15bc: a5 11        	lda	$11                     ; 0x11 <__rc1>
    15be: 69 00        	adc	#$0
    15c0: 85 19        	sta	$19                     ; 0x19 <__rc9>
    15c2: 68           	pla
    15c3: 85 15        	sta	$15                     ; 0x15 <__rc5>
    15c5: a0 08        	ldy	#$8
    15c7: b1 12        	lda	($12),y                 ; 0x12 <__rc2>
    15c9: 85 82        	sta	$82                     ; 0x82 <totalWait>
    15cb: a4 16        	ldy	$16                     ; 0x16 <__rc6>
    15cd: b1 14        	lda	($14),y                 ; 0x14 <__rc4>
    15cf: 85 83        	sta	$83                     ; 0x83 <totalWait+0x1>
    15d1: a4 17        	ldy	$17                     ; 0x17 <__rc7>
    15d3: b1 14        	lda	($14),y                 ; 0x14 <__rc4>
    15d5: 85 84        	sta	$84                     ; 0x84 <totalWait+0x2>
    15d7: a4 18        	ldy	$18                     ; 0x18 <__rc8>
    15d9: b1 14        	lda	($14),y                 ; 0x14 <__rc4>
    15db: 85 85        	sta	$85                     ; 0x85 <totalWait+0x3>
    15dd: 18           	clc
    15de: 8a           	txa
    15df: 69 0c        	adc	#$c
    15e1: 85 14        	sta	$14                     ; 0x14 <__rc4>
    15e3: a5 19        	lda	$19                     ; 0x19 <__rc9>
    15e5: 69 00        	adc	#$0
    15e7: 85 15        	sta	$15                     ; 0x15 <__rc5>
    15e9: a0 0c        	ldy	#$c
    15eb: b1 12        	lda	($12),y                 ; 0x12 <__rc2>
    15ed: 85 86        	sta	$86                     ; 0x86 <loopBackTo>
    15ef: a4 16        	ldy	$16                     ; 0x16 <__rc6>
    15f1: b1 14        	lda	($14),y                 ; 0x14 <__rc4>
    15f3: a6 25        	ldx	$25                     ; 0x25 <__rc21>
    15f5: 86 12        	stx	$12                     ; 0x12 <__rc2>
    15f7: 85 87        	sta	$87                     ; 0x87 <loopBackTo+0x1>
    15f9: a4 17        	ldy	$17                     ; 0x17 <__rc7>
    15fb: b1 14        	lda	($14),y                 ; 0x14 <__rc4>
    15fd: 85 88        	sta	$88                     ; 0x88 <loopBackTo+0x2>
    15ff: a4 18        	ldy	$18                     ; 0x18 <__rc8>
    1601: b1 14        	lda	($14),y                 ; 0x14 <__rc4>
    1603: 85 89        	sta	$89                     ; 0x89 <loopBackTo+0x3>
    1605: 4c de 14     	jmp	$14de <main+0xecd>
    1608: b2 28        	lda	($28)                   ; 0x28 <__rc24>
    160a: d0 1c        	bne	$1628 <main+0x1017>
    160c: a0 01        	ldy	#$1
    160e: b1 28        	lda	($28),y                 ; 0x28 <__rc24>
    1610: a6 25        	ldx	$25                     ; 0x25 <__rc21>
    1612: 86 12        	stx	$12                     ; 0x12 <__rc2>
    1614: aa           	tax
    1615: d0 11        	bne	$1628 <main+0x1017>
    1617: a0 02        	ldy	#$2
    1619: b1 28        	lda	($28),y                 ; 0x28 <__rc24>
    161b: a6 25        	ldx	$25                     ; 0x25 <__rc21>
    161d: 86 12        	stx	$12                     ; 0x12 <__rc2>
    161f: aa           	tax
    1620: d0 06        	bne	$1628 <main+0x1017>
    1622: a0 03        	ldy	#$3
    1624: b1 28        	lda	($28),y                 ; 0x28 <__rc24>
    1626: f0 08        	beq	$1630 <main+0x101f>
    1628: a2 05        	ldx	#$5
    162a: 8e 82 d5     	stx	$d582                   ; 0xd582 <__heap_start+0x8bf2>
    162d: 9c 81 d5     	stz	$d581                   ; 0xd581 <__heap_start+0x8bf1>
    1630: a0 0c        	ldy	#$c
    1632: b1 28        	lda	($28),y                 ; 0x28 <__rc24>
    1634: f0 03        	beq	$1639 <main+0x1028>
    1636: 4c d4 14     	jmp	$14d4 <main+0xec3>
    1639: a0 0d        	ldy	#$d
    163b: b1 28        	lda	($28),y                 ; 0x28 <__rc24>
    163d: f0 03        	beq	$1642 <main+0x1031>
    163f: 4c d4 14     	jmp	$14d4 <main+0xec3>
    1642: a0 0e        	ldy	#$e
    1644: b1 28        	lda	($28),y                 ; 0x28 <__rc24>
    1646: f0 03        	beq	$164b <main+0x103a>
    1648: 4c d4 14     	jmp	$14d4 <main+0xec3>
    164b: a0 0f        	ldy	#$f
    164d: b1 28        	lda	($28),y                 ; 0x28 <__rc24>
    164f: f0 03        	beq	$1654 <main+0x1043>
    1651: 4c d4 14     	jmp	$14d4 <main+0xec3>
    1654: 4c de 14     	jmp	$14de <main+0xecd>
    1657: c9 01        	cmp	#$1
    1659: a2 40        	ldx	#$40
    165b: 86 2c        	stx	$2c                     ; 0x2c <__rc28>
    165d: a6 25        	ldx	$25                     ; 0x25 <__rc21>
    165f: 86 12        	stx	$12                     ; 0x12 <__rc2>
    1661: b0 03        	bcs	$1666 <main+0x1055>
    1663: 4c de 14     	jmp	$14de <main+0xecd>
    1666: 64 2c        	stz	$2c                     ; 0x2c <__rc28>
    1668: 4c de 14     	jmp	$14de <main+0xecd>
    166b: b2 26        	lda	($26)                   ; 0x26 <__rc22>
    166d: 85 f3        	sta	$f3                     ; 0xf3 <__pal_size+0x73>
    166f: a6 2c        	ldx	$2c                     ; 0x2c <__rc28>
    1671: 86 f4        	stx	$f4                     ; 0xf4 <__pal_size+0x74>
    1673: 64 f5        	stz	$f5                     ; 0xf5 <__pal_size+0x75>
    1675: 64 f6        	stz	$f6                     ; 0xf6 <__pal_size+0x76>
    1677: 64 f7        	stz	$f7                     ; 0xf7 <__pal_size+0x77>
    1679: a2 78        	ldx	#$78
    167b: 86 12        	stx	$12                     ; 0x12 <__rc2>
    167d: a2 00        	ldx	#$0
    167f: 86 13        	stx	$13                     ; 0x13 <__rc3>
    1681: a0 0a        	ldy	#$a
    1683: b1 10        	lda	($10),y                 ; 0x10 <__rc0>
    1685: 85 14        	sta	$14                     ; 0x14 <__rc4>
    1687: c8           	iny
    1688: b1 10        	lda	($10),y                 ; 0x10 <__rc0>
    168a: 85 15        	sta	$15                     ; 0x15 <__rc5>
    168c: 20 74 ff     	jsr	$ff74 <__heap_start+0xb5e4>
    168f: 92 14        	sta	($14)                   ; 0x14 <__rc4>
    1691: a9 00        	lda	#$0
    1693: 6a           	ror
    1694: 85 12        	sta	$12                     ; 0x12 <__rc2>
    1696: a6 26        	ldx	$26                     ; 0x26 <__rc22>
    1698: 86 12        	stx	$12                     ; 0x12 <__rc2>
    169a: a6 27        	ldx	$27                     ; 0x27 <__rc23>
    169c: 86 13        	stx	$13                     ; 0x13 <__rc3>
    169e: 20 8f 2f     	jsr	$2f8f <copyToRAM>
    16a1: 64 8a        	stz	$8a                     ; 0x8a <needle>
    16a3: 64 8b        	stz	$8b                     ; 0x8b <needle+0x1>
    16a5: a2 10        	ldx	#$10
    16a7: 86 8c        	stx	$8c                     ; 0x8c <needle+0x2>
    16a9: 64 8d        	stz	$8d                     ; 0x8d <needle+0x3>
    16ab: a6 86        	ldx	$86                     ; 0x86 <loopBackTo>
    16ad: 86 16        	stx	$16                     ; 0x16 <__rc6>
    16af: a5 87        	lda	$87                     ; 0x87 <loopBackTo+0x1>
    16b1: a4 88        	ldy	$88                     ; 0x88 <loopBackTo+0x2>
    16b3: a6 89        	ldx	$89                     ; 0x89 <loopBackTo+0x3>
    16b5: d0 0e        	bne	$16c5 <main+0x10b4>
    16b7: c0 00        	cpy	#$0
    16b9: d0 0a        	bne	$16c5 <main+0x10b4>
    16bb: c9 00        	cmp	#$0
    16bd: d0 06        	bne	$16c5 <main+0x10b4>
    16bf: e6 16        	inc	$16                     ; 0x16 <__rc6>
    16c1: c6 16        	dec	$16                     ; 0x16 <__rc6>
    16c3: f0 40        	beq	$1705 <main+0x10f4>
    16c5: 84 12        	sty	$12                     ; 0x12 <__rc2>
    16c7: 85 13        	sta	$13                     ; 0x13 <__rc3>
    16c9: 86 15        	stx	$15                     ; 0x15 <__rc5>
    16cb: 38           	sec
    16cc: a5 16        	lda	$16                     ; 0x16 <__rc6>
    16ce: e5 2c        	sbc	$2c                     ; 0x2c <__rc28>
    16d0: aa           	tax
    16d1: a5 13        	lda	$13                     ; 0x13 <__rc3>
    16d3: e9 00        	sbc	#$0
    16d5: a8           	tay
    16d6: a5 12        	lda	$12                     ; 0x12 <__rc2>
    16d8: e9 00        	sbc	#$0
    16da: 85 13        	sta	$13                     ; 0x13 <__rc3>
    16dc: a5 15        	lda	$15                     ; 0x15 <__rc5>
    16de: e9 00        	sbc	#$0
    16e0: 85 15        	sta	$15                     ; 0x15 <__rc5>
    16e2: 18           	clc
    16e3: 8a           	txa
    16e4: 69 00        	adc	#$0
    16e6: 85 12        	sta	$12                     ; 0x12 <__rc2>
    16e8: 98           	tya
    16e9: 69 00        	adc	#$0
    16eb: 85 14        	sta	$14                     ; 0x14 <__rc4>
    16ed: a5 13        	lda	$13                     ; 0x13 <__rc3>
    16ef: 69 10        	adc	#$10
    16f1: 85 13        	sta	$13                     ; 0x13 <__rc3>
    16f3: a5 15        	lda	$15                     ; 0x15 <__rc5>
    16f5: 69 00        	adc	#$0
    16f7: a6 12        	ldx	$12                     ; 0x12 <__rc2>
    16f9: 86 86        	stx	$86                     ; 0x86 <loopBackTo>
    16fb: a6 14        	ldx	$14                     ; 0x14 <__rc4>
    16fd: 86 87        	stx	$87                     ; 0x87 <loopBackTo+0x1>
    16ff: a6 13        	ldx	$13                     ; 0x13 <__rc3>
    1701: 86 88        	stx	$88                     ; 0x88 <loopBackTo+0x2>
    1703: 85 89        	sta	$89                     ; 0x89 <loopBackTo+0x3>
    1705: a6 7e        	ldx	$7e                     ; 0x7e <gd3Location>
    1707: 86 16        	stx	$16                     ; 0x16 <__rc6>
    1709: a6 7f        	ldx	$7f                     ; 0x7f <gd3Location+0x1>
    170b: a4 80        	ldy	$80                     ; 0x80 <gd3Location+0x2>
    170d: a5 81        	lda	$81                     ; 0x81 <gd3Location+0x3>
    170f: d0 0e        	bne	$171f <main+0x110e>
    1711: c0 00        	cpy	#$0
    1713: d0 0a        	bne	$171f <main+0x110e>
    1715: e0 00        	cpx	#$0
    1717: d0 06        	bne	$171f <main+0x110e>
    1719: e6 16        	inc	$16                     ; 0x16 <__rc6>
    171b: c6 16        	dec	$16                     ; 0x16 <__rc6>
    171d: f0 40        	beq	$175f <main+0x114e>
    171f: 86 12        	stx	$12                     ; 0x12 <__rc2>
    1721: 84 13        	sty	$13                     ; 0x13 <__rc3>
    1723: 85 14        	sta	$14                     ; 0x14 <__rc4>
    1725: 38           	sec
    1726: a5 16        	lda	$16                     ; 0x16 <__rc6>
    1728: e5 2c        	sbc	$2c                     ; 0x2c <__rc28>
    172a: aa           	tax
    172b: a5 12        	lda	$12                     ; 0x12 <__rc2>
    172d: e9 00        	sbc	#$0
    172f: a8           	tay
    1730: a5 13        	lda	$13                     ; 0x13 <__rc3>
    1732: e9 00        	sbc	#$0
    1734: 85 13        	sta	$13                     ; 0x13 <__rc3>
    1736: a5 14        	lda	$14                     ; 0x14 <__rc4>
    1738: e9 00        	sbc	#$0
    173a: 85 15        	sta	$15                     ; 0x15 <__rc5>
    173c: 18           	clc
    173d: 8a           	txa
    173e: 69 14        	adc	#$14
    1740: 85 12        	sta	$12                     ; 0x12 <__rc2>
    1742: 98           	tya
    1743: 69 00        	adc	#$0
    1745: 85 14        	sta	$14                     ; 0x14 <__rc4>
    1747: a5 13        	lda	$13                     ; 0x13 <__rc3>
    1749: 69 10        	adc	#$10
    174b: 85 13        	sta	$13                     ; 0x13 <__rc3>
    174d: a5 15        	lda	$15                     ; 0x15 <__rc5>
    174f: 69 00        	adc	#$0
    1751: a6 12        	ldx	$12                     ; 0x12 <__rc2>
    1753: 86 7e        	stx	$7e                     ; 0x7e <gd3Location>
    1755: a6 14        	ldx	$14                     ; 0x14 <__rc4>
    1757: 86 7f        	stx	$7f                     ; 0x7f <gd3Location+0x1>
    1759: a6 13        	ldx	$13                     ; 0x13 <__rc3>
    175b: 86 80        	stx	$80                     ; 0x80 <gd3Location+0x2>
    175d: 85 81        	sta	$81                     ; 0x81 <gd3Location+0x3>
    175f: 64 8e        	stz	$8e                     ; 0x8e <samplesSoFar>
    1761: 64 8f        	stz	$8f                     ; 0x8f <samplesSoFar+0x1>
    1763: 64 90        	stz	$90                     ; 0x90 <samplesSoFar+0x2>
    1765: 64 91        	stz	$91                     ; 0x91 <samplesSoFar+0x3>
    1767: b2 26        	lda	($26)                   ; 0x26 <__rc22>
    1769: 85 f3        	sta	$f3                     ; 0xf3 <__pal_size+0x73>
    176b: a2 78        	ldx	#$78
    176d: 86 14        	stx	$14                     ; 0x14 <__rc4>
    176f: a2 00        	ldx	#$0
    1771: 86 15        	stx	$15                     ; 0x15 <__rc5>
    1773: a5 26        	lda	$26                     ; 0x26 <__rc22>
    1775: 18           	clc
    1776: 69 fe        	adc	#$fe
    1778: 85 19        	sta	$19                     ; 0x19 <__rc9>
    177a: a5 27        	lda	$27                     ; 0x27 <__rc23>
    177c: 69 ff        	adc	#$ff
    177e: a6 19        	ldx	$19                     ; 0x19 <__rc9>
    1780: 86 12        	stx	$12                     ; 0x12 <__rc2>
    1782: aa           	tax
    1783: 85 13        	sta	$13                     ; 0x13 <__rc3>
    1785: a0 0a        	ldy	#$a
    1787: b1 10        	lda	($10),y                 ; 0x10 <__rc0>
    1789: 85 1c        	sta	$1c                     ; 0x1c <__rc12>
    178b: c8           	iny
    178c: b1 10        	lda	($10),y                 ; 0x10 <__rc0>
    178e: 85 1d        	sta	$1d                     ; 0x1d <__rc13>
    1790: 20 68 ff     	jsr	$ff68 <__heap_start+0xb5d8>
    1793: 92 1c        	sta	($1c)                   ; 0x1c <__rc12>
    1795: a9 00        	lda	#$0
    1797: 6a           	ror
    1798: 85 14        	sta	$14                     ; 0x14 <__rc4>
    179a: b2 12        	lda	($12)                   ; 0x12 <__rc2>
    179c: 85 18        	sta	$18                     ; 0x18 <__rc8>
    179e: a0 01        	ldy	#$1
    17a0: b1 12        	lda	($12),y                 ; 0x12 <__rc2>
    17a2: 85 14        	sta	$14                     ; 0x14 <__rc4>
    17a4: a9 fe        	lda	#$fe
    17a6: 32 12        	and	($12)                   ; 0x12 <__rc2>
    17a8: 85 15        	sta	$15                     ; 0x15 <__rc5>
    17aa: a4 19        	ldy	$19                     ; 0x19 <__rc9>
    17ac: 84 1a        	sty	$1a                     ; 0x1a <__rc10>
    17ae: a5 19        	lda	$19                     ; 0x19 <__rc9>
    17b0: 18           	clc
    17b1: 65 15        	adc	$15                     ; 0x15 <__rc5>
    17b3: a8           	tay
    17b4: 8a           	txa
    17b5: 86 19        	stx	$19                     ; 0x19 <__rc9>
    17b7: 65 14        	adc	$14                     ; 0x14 <__rc4>
    17b9: c5 2a        	cmp	$2a                     ; 0x2a <__rc26>
    17bb: d0 0e        	bne	$17cb <main+0x11ba>
    17bd: c4 2b        	cpy	$2b                     ; 0x2b <__rc27>
    17bf: d0 0a        	bne	$17cb <main+0x11ba>
    17c1: a2 00        	ldx	#$0
    17c3: 86 16        	stx	$16                     ; 0x16 <__rc6>
    17c5: a2 00        	ldx	#$0
    17c7: 86 17        	stx	$17                     ; 0x17 <__rc7>
    17c9: 80 04        	bra	$17cf <main+0x11be>
    17cb: 84 16        	sty	$16                     ; 0x16 <__rc6>
    17cd: 85 17        	sta	$17                     ; 0x17 <__rc7>
    17cf: a5 18        	lda	$18                     ; 0x18 <__rc8>
    17d1: 29 01        	and	#$1
    17d3: d0 03        	bne	$17d8 <main+0x11c7>
    17d5: 4c 14 19     	jmp	$1914 <main+0x1303>
    17d8: a5 26        	lda	$26                     ; 0x26 <__rc22>
    17da: 18           	clc
    17db: 69 fc        	adc	#$fc
    17dd: 85 12        	sta	$12                     ; 0x12 <__rc2>
    17df: a5 27        	lda	$27                     ; 0x27 <__rc23>
    17e1: 69 ff        	adc	#$ff
    17e3: 85 13        	sta	$13                     ; 0x13 <__rc3>
    17e5: a0 01        	ldy	#$1
    17e7: 38           	sec
    17e8: a9 00        	lda	#$0
    17ea: f2 12        	sbc	($12)                   ; 0x12 <__rc2>
    17ec: 85 18        	sta	$18                     ; 0x18 <__rc8>
    17ee: a9 00        	lda	#$0
    17f0: f1 12        	sbc	($12),y                 ; 0x12 <__rc2>
    17f2: 85 13        	sta	$13                     ; 0x13 <__rc3>
    17f4: a5 1a        	lda	$1a                     ; 0x1a <__rc10>
    17f6: 18           	clc
    17f7: 65 18        	adc	$18                     ; 0x18 <__rc8>
    17f9: 85 12        	sta	$12                     ; 0x12 <__rc2>
    17fb: 85 1a        	sta	$1a                     ; 0x1a <__rc10>
    17fd: a5 19        	lda	$19                     ; 0x19 <__rc9>
    17ff: 65 13        	adc	$13                     ; 0x13 <__rc3>
    1801: 85 13        	sta	$13                     ; 0x13 <__rc3>
    1803: 85 19        	sta	$19                     ; 0x19 <__rc9>
    1805: b1 12        	lda	($12),y                 ; 0x12 <__rc2>
    1807: 85 1e        	sta	$1e                     ; 0x1e <__rc14>
    1809: a2 01        	ldx	#$1
    180b: 86 22        	stx	$22                     ; 0x22 <__rc18>
    180d: a9 fe        	lda	#$fe
    180f: 32 12        	and	($12)                   ; 0x12 <__rc2>
    1811: ae 8b 49     	ldx	$498b                   ; 0x498b <_ZN12_GLOBAL__N_19free_sizeE>
    1814: 85 1f        	sta	$1f                     ; 0x1f <__rc15>
    1816: 85 18        	sta	$18                     ; 0x18 <__rc8>
    1818: 38           	sec
    1819: 8a           	txa
    181a: e5 18        	sbc	$18                     ; 0x18 <__rc8>
    181c: 85 1b        	sta	$1b                     ; 0x1b <__rc11>
    181e: a6 1e        	ldx	$1e                     ; 0x1e <__rc14>
    1820: 86 18        	stx	$18                     ; 0x18 <__rc8>
    1822: ad 8c 49     	lda	$498c                   ; 0x498c <_ZN12_GLOBAL__N_19free_sizeE+0x1>
    1825: e5 18        	sbc	$18                     ; 0x18 <__rc8>
    1827: aa           	tax
    1828: 18           	clc
    1829: a5 1b        	lda	$1b                     ; 0x1b <__rc11>
    182b: 69 02        	adc	#$2
    182d: 85 18        	sta	$18                     ; 0x18 <__rc8>
    182f: 8a           	txa
    1830: 69 00        	adc	#$0
    1832: a6 18        	ldx	$18                     ; 0x18 <__rc8>
    1834: 8e 8b 49     	stx	$498b                   ; 0x498b <_ZN12_GLOBAL__N_19free_sizeE>
    1837: 8d 8c 49     	sta	$498c                   ; 0x498c <_ZN12_GLOBAL__N_19free_sizeE+0x1>
    183a: a6 1a        	ldx	$1a                     ; 0x1a <__rc10>
    183c: 86 1b        	stx	$1b                     ; 0x1b <__rc11>
    183e: a5 1a        	lda	$1a                     ; 0x1a <__rc10>
    1840: 18           	clc
    1841: 69 02        	adc	#$2
    1843: 85 18        	sta	$18                     ; 0x18 <__rc8>
    1845: a6 19        	ldx	$19                     ; 0x19 <__rc9>
    1847: 86 1a        	stx	$1a                     ; 0x1a <__rc10>
    1849: a5 19        	lda	$19                     ; 0x19 <__rc9>
    184b: 69 00        	adc	#$0
    184d: c8           	iny
    184e: 85 19        	sta	$19                     ; 0x19 <__rc9>
    1850: b1 12        	lda	($12),y                 ; 0x12 <__rc2>
    1852: aa           	tax
    1853: a4 22        	ldy	$22                     ; 0x22 <__rc18>
    1855: b1 18        	lda	($18),y                 ; 0x18 <__rc8>
    1857: 85 23        	sta	$23                     ; 0x23 <__rc19>
    1859: c5 13        	cmp	$13                     ; 0x13 <__rc3>
    185b: d0 0f        	bne	$186c <main+0x125b>
    185d: e4 12        	cpx	$12                     ; 0x12 <__rc2>
    185f: d0 0b        	bne	$186c <main+0x125b>
    1861: a2 00        	ldx	#$0
    1863: 86 18        	stx	$18                     ; 0x18 <__rc8>
    1865: a2 00        	ldx	#$0
    1867: 86 19        	stx	$19                     ; 0x19 <__rc9>
    1869: 4c fd 18     	jmp	$18fd <main+0x12ec>
    186c: 86 22        	stx	$22                     ; 0x22 <__rc18>
    186e: a5 1b        	lda	$1b                     ; 0x1b <__rc11>
    1870: a6 1b        	ldx	$1b                     ; 0x1b <__rc11>
    1872: 86 25        	stx	$25                     ; 0x25 <__rc21>
    1874: 18           	clc
    1875: 69 04        	adc	#$4
    1877: 85 18        	sta	$18                     ; 0x18 <__rc8>
    1879: a6 1a        	ldx	$1a                     ; 0x1a <__rc10>
    187b: 86 27        	stx	$27                     ; 0x27 <__rc23>
    187d: a5 1a        	lda	$1a                     ; 0x1a <__rc10>
    187f: 69 00        	adc	#$0
    1881: a0 04        	ldy	#$4
    1883: 85 19        	sta	$19                     ; 0x19 <__rc9>
    1885: b1 12        	lda	($12),y                 ; 0x12 <__rc2>
    1887: 85 26        	sta	$26                     ; 0x26 <__rc22>
    1889: a2 04        	ldx	#$4
    188b: 18           	clc
    188c: 69 02        	adc	#$2
    188e: 85 1a        	sta	$1a                     ; 0x1a <__rc10>
    1890: a0 01        	ldy	#$1
    1892: b1 18        	lda	($18),y                 ; 0x18 <__rc8>
    1894: 85 24        	sta	$24                     ; 0x24 <__rc20>
    1896: 84 2c        	sty	$2c                     ; 0x2c <__rc28>
    1898: 69 00        	adc	#$0
    189a: a6 1a        	ldx	$1a                     ; 0x1a <__rc10>
    189c: 86 18        	stx	$18                     ; 0x18 <__rc8>
    189e: 85 19        	sta	$19                     ; 0x19 <__rc9>
    18a0: a6 26        	ldx	$26                     ; 0x26 <__rc22>
    18a2: 86 1a        	stx	$1a                     ; 0x1a <__rc10>
    18a4: a6 24        	ldx	$24                     ; 0x24 <__rc20>
    18a6: 86 1b        	stx	$1b                     ; 0x1b <__rc11>
    18a8: a5 22        	lda	$22                     ; 0x22 <__rc18>
    18aa: c8           	iny
    18ab: 91 1a        	sta	($1a),y                 ; 0x1a <__rc10>
    18ad: 84 1a        	sty	$1a                     ; 0x1a <__rc10>
    18af: a5 23        	lda	$23                     ; 0x23 <__rc19>
    18b1: a4 2c        	ldy	$2c                     ; 0x2c <__rc28>
    18b3: 91 18        	sta	($18),y                 ; 0x18 <__rc8>
    18b5: 18           	clc
    18b6: a5 25        	lda	$25                     ; 0x25 <__rc21>
    18b8: 69 02        	adc	#$2
    18ba: 85 18        	sta	$18                     ; 0x18 <__rc8>
    18bc: a5 27        	lda	$27                     ; 0x27 <__rc23>
    18be: 69 00        	adc	#$0
    18c0: 85 19        	sta	$19                     ; 0x19 <__rc9>
    18c2: a4 1a        	ldy	$1a                     ; 0x1a <__rc10>
    18c4: b1 12        	lda	($12),y                 ; 0x12 <__rc2>
    18c6: 85 1a        	sta	$1a                     ; 0x1a <__rc10>
    18c8: a4 2c        	ldy	$2c                     ; 0x2c <__rc28>
    18ca: b1 18        	lda	($18),y                 ; 0x18 <__rc8>
    18cc: 84 22        	sty	$22                     ; 0x22 <__rc18>
    18ce: a6 1a        	ldx	$1a                     ; 0x1a <__rc10>
    18d0: 86 18        	stx	$18                     ; 0x18 <__rc8>
    18d2: 85 19        	sta	$19                     ; 0x19 <__rc9>
    18d4: 85 1b        	sta	$1b                     ; 0x1b <__rc11>
    18d6: a0 04        	ldy	#$4
    18d8: a5 26        	lda	$26                     ; 0x26 <__rc22>
    18da: 91 18        	sta	($18),y                 ; 0x18 <__rc8>
    18dc: 18           	clc
    18dd: a5 1a        	lda	$1a                     ; 0x1a <__rc10>
    18df: 69 04        	adc	#$4
    18e1: 85 1a        	sta	$1a                     ; 0x1a <__rc10>
    18e3: a5 1b        	lda	$1b                     ; 0x1b <__rc11>
    18e5: 69 00        	adc	#$0
    18e7: 85 1b        	sta	$1b                     ; 0x1b <__rc11>
    18e9: a5 24        	lda	$24                     ; 0x24 <__rc20>
    18eb: a4 22        	ldy	$22                     ; 0x22 <__rc18>
    18ed: 91 1a        	sta	($1a),y                 ; 0x1a <__rc10>
    18ef: ae 8e 49     	ldx	$498e                   ; 0x498e <_ZN12_GLOBAL__N_19free_listE+0x1>
    18f2: e4 13        	cpx	$13                     ; 0x13 <__rc3>
    18f4: d0 11        	bne	$1907 <main+0x12f6>
    18f6: ae 8d 49     	ldx	$498d                   ; 0x498d <_ZN12_GLOBAL__N_19free_listE>
    18f9: e4 12        	cpx	$12                     ; 0x12 <__rc2>
    18fb: d0 0a        	bne	$1907 <main+0x12f6>
    18fd: a6 18        	ldx	$18                     ; 0x18 <__rc8>
    18ff: a4 19        	ldy	$19                     ; 0x19 <__rc9>
    1901: 8e 8d 49     	stx	$498d                   ; 0x498d <_ZN12_GLOBAL__N_19free_listE>
    1904: 8c 8e 49     	sty	$498e                   ; 0x498e <_ZN12_GLOBAL__N_19free_listE+0x1>
    1907: 18           	clc
    1908: a5 1f        	lda	$1f                     ; 0x1f <__rc15>
    190a: 65 15        	adc	$15                     ; 0x15 <__rc5>
    190c: 85 15        	sta	$15                     ; 0x15 <__rc5>
    190e: a5 1e        	lda	$1e                     ; 0x1e <__rc14>
    1910: 65 14        	adc	$14                     ; 0x14 <__rc4>
    1912: 85 14        	sta	$14                     ; 0x14 <__rc4>
    1914: a2 00        	ldx	#$0
    1916: 86 18        	stx	$18                     ; 0x18 <__rc8>
    1918: a2 00        	ldx	#$0
    191a: 86 19        	stx	$19                     ; 0x19 <__rc9>
    191c: a6 17        	ldx	$17                     ; 0x17 <__rc7>
    191e: e4 19        	cpx	$19                     ; 0x19 <__rc9>
    1920: d0 0d        	bne	$192f <main+0x131e>
    1922: a6 16        	ldx	$16                     ; 0x16 <__rc6>
    1924: e4 18        	cpx	$18                     ; 0x18 <__rc8>
    1926: d0 07        	bne	$192f <main+0x131e>
    1928: a2 01        	ldx	#$1
    192a: 8e 8a 49     	stx	$498a                   ; 0x498a <_ZN12_GLOBAL__N_19last_freeE>
    192d: 80 34        	bra	$1963 <main+0x1352>
    192f: b2 16        	lda	($16)                   ; 0x16 <__rc6>
    1931: 85 1a        	sta	$1a                     ; 0x1a <__rc10>
    1933: a0 01        	ldy	#$1
    1935: b1 16        	lda	($16),y                 ; 0x16 <__rc6>
    1937: aa           	tax
    1938: a9 fe        	lda	#$fe
    193a: 32 16        	and	($16)                   ; 0x16 <__rc6>
    193c: 18           	clc
    193d: 85 1f        	sta	$1f                     ; 0x1f <__rc15>
    193f: 65 16        	adc	$16                     ; 0x16 <__rc6>
    1941: 85 18        	sta	$18                     ; 0x18 <__rc8>
    1943: 8a           	txa
    1944: 86 1e        	stx	$1e                     ; 0x1e <__rc14>
    1946: 65 17        	adc	$17                     ; 0x17 <__rc7>
    1948: c5 2a        	cmp	$2a                     ; 0x2a <__rc26>
    194a: d0 1c        	bne	$1968 <main+0x1357>
    194c: a6 18        	ldx	$18                     ; 0x18 <__rc8>
    194e: e4 2b        	cpx	$2b                     ; 0x2b <__rc27>
    1950: d0 16        	bne	$1968 <main+0x1357>
    1952: ad 8a 49     	lda	$498a                   ; 0x498a <_ZN12_GLOBAL__N_19last_freeE>
    1955: 29 01        	and	#$1
    1957: d0 17        	bne	$1970 <main+0x135f>
    1959: a5 1a        	lda	$1a                     ; 0x1a <__rc10>
    195b: 09 01        	ora	#$1
    195d: 92 16        	sta	($16)                   ; 0x16 <__rc6>
    195f: a5 1e        	lda	$1e                     ; 0x1e <__rc14>
    1961: 91 16        	sta	($16),y                 ; 0x16 <__rc6>
    1963: a6 14        	ldx	$14                     ; 0x14 <__rc4>
    1965: 4c 61 1a     	jmp	$1a61 <main+0x1450>
    1968: 85 19        	sta	$19                     ; 0x19 <__rc9>
    196a: a9 01        	lda	#$1
    196c: 32 18        	and	($18)                   ; 0x18 <__rc8>
    196e: f0 e9        	beq	$1959 <main+0x1348>
    1970: ad 8b 49     	lda	$498b                   ; 0x498b <_ZN12_GLOBAL__N_19free_sizeE>
    1973: ae 8c 49     	ldx	$498c                   ; 0x498c <_ZN12_GLOBAL__N_19free_sizeE+0x1>
    1976: 86 19        	stx	$19                     ; 0x19 <__rc9>
    1978: 38           	sec
    1979: e5 1f        	sbc	$1f                     ; 0x1f <__rc15>
    197b: aa           	tax
    197c: a5 19        	lda	$19                     ; 0x19 <__rc9>
    197e: e5 1e        	sbc	$1e                     ; 0x1e <__rc14>
    1980: 85 18        	sta	$18                     ; 0x18 <__rc8>
    1982: 18           	clc
    1983: 8a           	txa
    1984: 69 02        	adc	#$2
    1986: 85 19        	sta	$19                     ; 0x19 <__rc9>
    1988: a5 18        	lda	$18                     ; 0x18 <__rc8>
    198a: 69 00        	adc	#$0
    198c: a6 19        	ldx	$19                     ; 0x19 <__rc9>
    198e: 8e 8b 49     	stx	$498b                   ; 0x498b <_ZN12_GLOBAL__N_19free_sizeE>
    1991: 8d 8c 49     	sta	$498c                   ; 0x498c <_ZN12_GLOBAL__N_19free_sizeE+0x1>
    1994: a5 16        	lda	$16                     ; 0x16 <__rc6>
    1996: 18           	clc
    1997: 69 02        	adc	#$2
    1999: 85 18        	sta	$18                     ; 0x18 <__rc8>
    199b: a5 17        	lda	$17                     ; 0x17 <__rc7>
    199d: 69 00        	adc	#$0
    199f: a0 02        	ldy	#$2
    19a1: 85 19        	sta	$19                     ; 0x19 <__rc9>
    19a3: b1 16        	lda	($16),y                 ; 0x16 <__rc6>
    19a5: aa           	tax
    19a6: 88           	dey
    19a7: b1 18        	lda	($18),y                 ; 0x18 <__rc8>
    19a9: 85 23        	sta	$23                     ; 0x23 <__rc19>
    19ab: c5 17        	cmp	$17                     ; 0x17 <__rc7>
    19ad: d0 0f        	bne	$19be <main+0x13ad>
    19af: e4 16        	cpx	$16                     ; 0x16 <__rc6>
    19b1: d0 0b        	bne	$19be <main+0x13ad>
    19b3: a2 00        	ldx	#$0
    19b5: 86 18        	stx	$18                     ; 0x18 <__rc8>
    19b7: a2 00        	ldx	#$0
    19b9: 86 19        	stx	$19                     ; 0x19 <__rc9>
    19bb: 4c 4b 1a     	jmp	$1a4b <main+0x143a>
    19be: 86 22        	stx	$22                     ; 0x22 <__rc18>
    19c0: a6 16        	ldx	$16                     ; 0x16 <__rc6>
    19c2: a5 16        	lda	$16                     ; 0x16 <__rc6>
    19c4: 86 26        	stx	$26                     ; 0x26 <__rc22>
    19c6: 18           	clc
    19c7: 69 04        	adc	#$4
    19c9: 85 18        	sta	$18                     ; 0x18 <__rc8>
    19cb: a5 17        	lda	$17                     ; 0x17 <__rc7>
    19cd: 69 00        	adc	#$0
    19cf: a0 04        	ldy	#$4
    19d1: 85 19        	sta	$19                     ; 0x19 <__rc9>
    19d3: b1 16        	lda	($16),y                 ; 0x16 <__rc6>
    19d5: 85 27        	sta	$27                     ; 0x27 <__rc23>
    19d7: a2 04        	ldx	#$4
    19d9: 18           	clc
    19da: 69 02        	adc	#$2
    19dc: 85 1a        	sta	$1a                     ; 0x1a <__rc10>
    19de: a0 01        	ldy	#$1
    19e0: b1 18        	lda	($18),y                 ; 0x18 <__rc8>
    19e2: 85 25        	sta	$25                     ; 0x25 <__rc21>
    19e4: 84 2a        	sty	$2a                     ; 0x2a <__rc26>
    19e6: 69 00        	adc	#$0
    19e8: a6 1a        	ldx	$1a                     ; 0x1a <__rc10>
    19ea: 86 18        	stx	$18                     ; 0x18 <__rc8>
    19ec: 85 19        	sta	$19                     ; 0x19 <__rc9>
    19ee: a6 27        	ldx	$27                     ; 0x27 <__rc23>
    19f0: 86 1a        	stx	$1a                     ; 0x1a <__rc10>
    19f2: a6 25        	ldx	$25                     ; 0x25 <__rc21>
    19f4: 86 1b        	stx	$1b                     ; 0x1b <__rc11>
    19f6: a5 22        	lda	$22                     ; 0x22 <__rc18>
    19f8: c8           	iny
    19f9: 91 1a        	sta	($1a),y                 ; 0x1a <__rc10>
    19fb: 84 1a        	sty	$1a                     ; 0x1a <__rc10>
    19fd: a5 23        	lda	$23                     ; 0x23 <__rc19>
    19ff: a4 2a        	ldy	$2a                     ; 0x2a <__rc26>
    1a01: 91 18        	sta	($18),y                 ; 0x18 <__rc8>
    1a03: 18           	clc
    1a04: a5 26        	lda	$26                     ; 0x26 <__rc22>
    1a06: 69 02        	adc	#$2
    1a08: 85 18        	sta	$18                     ; 0x18 <__rc8>
    1a0a: a5 17        	lda	$17                     ; 0x17 <__rc7>
    1a0c: 69 00        	adc	#$0
    1a0e: 85 19        	sta	$19                     ; 0x19 <__rc9>
    1a10: a4 1a        	ldy	$1a                     ; 0x1a <__rc10>
    1a12: b1 16        	lda	($16),y                 ; 0x16 <__rc6>
    1a14: 85 1a        	sta	$1a                     ; 0x1a <__rc10>
    1a16: a4 2a        	ldy	$2a                     ; 0x2a <__rc26>
    1a18: b1 18        	lda	($18),y                 ; 0x18 <__rc8>
    1a1a: 84 22        	sty	$22                     ; 0x22 <__rc18>
    1a1c: a6 1a        	ldx	$1a                     ; 0x1a <__rc10>
    1a1e: 86 18        	stx	$18                     ; 0x18 <__rc8>
    1a20: 85 19        	sta	$19                     ; 0x19 <__rc9>
    1a22: 85 1b        	sta	$1b                     ; 0x1b <__rc11>
    1a24: a0 04        	ldy	#$4
    1a26: a5 27        	lda	$27                     ; 0x27 <__rc23>
    1a28: 91 18        	sta	($18),y                 ; 0x18 <__rc8>
    1a2a: 18           	clc
    1a2b: a5 1a        	lda	$1a                     ; 0x1a <__rc10>
    1a2d: 69 04        	adc	#$4
    1a2f: 85 1a        	sta	$1a                     ; 0x1a <__rc10>
    1a31: a5 1b        	lda	$1b                     ; 0x1b <__rc11>
    1a33: 69 00        	adc	#$0
    1a35: 85 1b        	sta	$1b                     ; 0x1b <__rc11>
    1a37: a5 25        	lda	$25                     ; 0x25 <__rc21>
    1a39: a4 22        	ldy	$22                     ; 0x22 <__rc18>
    1a3b: 91 1a        	sta	($1a),y                 ; 0x1a <__rc10>
    1a3d: ae 8e 49     	ldx	$498e                   ; 0x498e <_ZN12_GLOBAL__N_19free_listE+0x1>
    1a40: e4 17        	cpx	$17                     ; 0x17 <__rc7>
    1a42: d0 11        	bne	$1a55 <main+0x1444>
    1a44: ae 8d 49     	ldx	$498d                   ; 0x498d <_ZN12_GLOBAL__N_19free_listE>
    1a47: e4 16        	cpx	$16                     ; 0x16 <__rc6>
    1a49: d0 0a        	bne	$1a55 <main+0x1444>
    1a4b: a6 18        	ldx	$18                     ; 0x18 <__rc8>
    1a4d: a4 19        	ldy	$19                     ; 0x19 <__rc9>
    1a4f: 8e 8d 49     	stx	$498d                   ; 0x498d <_ZN12_GLOBAL__N_19free_listE>
    1a52: 8c 8e 49     	sty	$498e                   ; 0x498e <_ZN12_GLOBAL__N_19free_listE+0x1>
    1a55: 18           	clc
    1a56: a5 1f        	lda	$1f                     ; 0x1f <__rc15>
    1a58: 65 15        	adc	$15                     ; 0x15 <__rc5>
    1a5a: 85 15        	sta	$15                     ; 0x15 <__rc5>
    1a5c: a5 1e        	lda	$1e                     ; 0x1e <__rc14>
    1a5e: 65 14        	adc	$14                     ; 0x14 <__rc4>
    1a60: aa           	tax
    1a61: a9 01        	lda	#$1
    1a63: 32 12        	and	($12)                   ; 0x12 <__rc2>
    1a65: a4 15        	ldy	$15                     ; 0x15 <__rc5>
    1a67: 84 16        	sty	$16                     ; 0x16 <__rc6>
    1a69: 05 15        	ora	$15                     ; 0x15 <__rc5>
    1a6b: 92 12        	sta	($12)                   ; 0x12 <__rc2>
    1a6d: a5 12        	lda	$12                     ; 0x12 <__rc2>
    1a6f: 18           	clc
    1a70: 65 15        	adc	$15                     ; 0x15 <__rc5>
    1a72: a8           	tay
    1a73: 8a           	txa
    1a74: 65 13        	adc	$13                     ; 0x13 <__rc3>
    1a76: 85 15        	sta	$15                     ; 0x15 <__rc5>
    1a78: 18           	clc
    1a79: 98           	tya
    1a7a: 69 fe        	adc	#$fe
    1a7c: 85 14        	sta	$14                     ; 0x14 <__rc4>
    1a7e: a5 15        	lda	$15                     ; 0x15 <__rc5>
    1a80: 69 ff        	adc	#$ff
    1a82: 85 15        	sta	$15                     ; 0x15 <__rc5>
    1a84: a0 01        	ldy	#$1
    1a86: 8a           	txa
    1a87: 91 12        	sta	($12),y                 ; 0x12 <__rc2>
    1a89: a5 16        	lda	$16                     ; 0x16 <__rc6>
    1a8b: 92 14        	sta	($14)                   ; 0x14 <__rc4>
    1a8d: 8a           	txa
    1a8e: 91 14        	sta	($14),y                 ; 0x14 <__rc4>
    1a90: b1 12        	lda	($12),y                 ; 0x12 <__rc2>
    1a92: 85 14        	sta	$14                     ; 0x14 <__rc4>
    1a94: a9 fe        	lda	#$fe
    1a96: 32 12        	and	($12)                   ; 0x12 <__rc2>
    1a98: 18           	clc
    1a99: 6d 8b 49     	adc	$498b                   ; 0x498b <_ZN12_GLOBAL__N_19free_sizeE>
    1a9c: aa           	tax
    1a9d: a5 14        	lda	$14                     ; 0x14 <__rc4>
    1a9f: 6d 8c 49     	adc	$498c                   ; 0x498c <_ZN12_GLOBAL__N_19free_sizeE+0x1>
    1aa2: 85 14        	sta	$14                     ; 0x14 <__rc4>
    1aa4: 18           	clc
    1aa5: 8a           	txa
    1aa6: 69 fe        	adc	#$fe
    1aa8: 85 15        	sta	$15                     ; 0x15 <__rc5>
    1aaa: a5 14        	lda	$14                     ; 0x14 <__rc4>
    1aac: 69 ff        	adc	#$ff
    1aae: a6 15        	ldx	$15                     ; 0x15 <__rc5>
    1ab0: 8e 8b 49     	stx	$498b                   ; 0x498b <_ZN12_GLOBAL__N_19free_sizeE>
    1ab3: 8d 8c 49     	sta	$498c                   ; 0x498c <_ZN12_GLOBAL__N_19free_sizeE+0x1>
    1ab6: ae 8d 49     	ldx	$498d                   ; 0x498d <_ZN12_GLOBAL__N_19free_listE>
    1ab9: 86 16        	stx	$16                     ; 0x16 <__rc6>
    1abb: ac 8e 49     	ldy	$498e                   ; 0x498e <_ZN12_GLOBAL__N_19free_listE+0x1>
    1abe: a2 00        	ldx	#$0
    1ac0: 86 14        	stx	$14                     ; 0x14 <__rc4>
    1ac2: a2 00        	ldx	#$0
    1ac4: 86 15        	stx	$15                     ; 0x15 <__rc5>
    1ac6: c4 15        	cpy	$15                     ; 0x15 <__rc5>
    1ac8: d0 40        	bne	$1b0a <main+0x14f9>
    1aca: a6 16        	ldx	$16                     ; 0x16 <__rc6>
    1acc: e4 14        	cpx	$14                     ; 0x14 <__rc4>
    1ace: d0 3a        	bne	$1b0a <main+0x14f9>
    1ad0: a0 04        	ldy	#$4
    1ad2: 18           	clc
    1ad3: a5 12        	lda	$12                     ; 0x12 <__rc2>
    1ad5: 69 04        	adc	#$4
    1ad7: 85 14        	sta	$14                     ; 0x14 <__rc4>
    1ad9: a5 13        	lda	$13                     ; 0x13 <__rc3>
    1adb: 69 00        	adc	#$0
    1add: 18           	clc
    1ade: 85 15        	sta	$15                     ; 0x15 <__rc5>
    1ae0: a5 12        	lda	$12                     ; 0x12 <__rc2>
    1ae2: 91 12        	sta	($12),y                 ; 0x12 <__rc2>
    1ae4: a0 02        	ldy	#$2
    1ae6: 85 17        	sta	$17                     ; 0x17 <__rc7>
    1ae8: 69 02        	adc	#$2
    1aea: 85 16        	sta	$16                     ; 0x16 <__rc6>
    1aec: a5 17        	lda	$17                     ; 0x17 <__rc7>
    1aee: 91 12        	sta	($12),y                 ; 0x12 <__rc2>
    1af0: a5 13        	lda	$13                     ; 0x13 <__rc3>
    1af2: 69 00        	adc	#$0
    1af4: 85 17        	sta	$17                     ; 0x17 <__rc7>
    1af6: 88           	dey
    1af7: a5 13        	lda	$13                     ; 0x13 <__rc3>
    1af9: 91 14        	sta	($14),y                 ; 0x14 <__rc4>
    1afb: 91 16        	sta	($16),y                 ; 0x16 <__rc6>
    1afd: a6 12        	ldx	$12                     ; 0x12 <__rc2>
    1aff: 8e 8d 49     	stx	$498d                   ; 0x498d <_ZN12_GLOBAL__N_19free_listE>
    1b02: a6 13        	ldx	$13                     ; 0x13 <__rc3>
    1b04: 8e 8e 49     	stx	$498e                   ; 0x498e <_ZN12_GLOBAL__N_19free_listE+0x1>
    1b07: 4c b6 1b     	jmp	$1bb6 <main+0x15a5>
    1b0a: a6 12        	ldx	$12                     ; 0x12 <__rc2>
    1b0c: a5 12        	lda	$12                     ; 0x12 <__rc2>
    1b0e: 86 1e        	stx	$1e                     ; 0x1e <__rc14>
    1b10: 18           	clc
    1b11: 69 02        	adc	#$2
    1b13: 85 14        	sta	$14                     ; 0x14 <__rc4>
    1b15: a6 13        	ldx	$13                     ; 0x13 <__rc3>
    1b17: 84 18        	sty	$18                     ; 0x18 <__rc8>
    1b19: a5 13        	lda	$13                     ; 0x13 <__rc3>
    1b1b: 69 00        	adc	#$0
    1b1d: 85 15        	sta	$15                     ; 0x15 <__rc5>
    1b1f: a5 16        	lda	$16                     ; 0x16 <__rc6>
    1b21: 84 17        	sty	$17                     ; 0x17 <__rc7>
    1b23: a0 02        	ldy	#$2
    1b25: 91 12        	sta	($12),y                 ; 0x12 <__rc2>
    1b27: 85 19        	sta	$19                     ; 0x19 <__rc9>
    1b29: 84 1f        	sty	$1f                     ; 0x1f <__rc15>
    1b2b: 88           	dey
    1b2c: a5 18        	lda	$18                     ; 0x18 <__rc8>
    1b2e: 91 14        	sta	($14),y                 ; 0x14 <__rc4>
    1b30: 84 22        	sty	$22                     ; 0x22 <__rc18>
    1b32: 18           	clc
    1b33: a5 19        	lda	$19                     ; 0x19 <__rc9>
    1b35: 69 04        	adc	#$4
    1b37: a8           	tay
    1b38: a5 18        	lda	$18                     ; 0x18 <__rc8>
    1b3a: 69 00        	adc	#$0
    1b3c: 84 18        	sty	$18                     ; 0x18 <__rc8>
    1b3e: 85 19        	sta	$19                     ; 0x19 <__rc9>
    1b40: a5 1e        	lda	$1e                     ; 0x1e <__rc14>
    1b42: 18           	clc
    1b43: 69 04        	adc	#$4
    1b45: 85 1a        	sta	$1a                     ; 0x1a <__rc10>
    1b47: a5 13        	lda	$13                     ; 0x13 <__rc3>
    1b49: 69 00        	adc	#$0
    1b4b: 85 1b        	sta	$1b                     ; 0x1b <__rc11>
    1b4d: a0 04        	ldy	#$4
    1b4f: b1 16        	lda	($16),y                 ; 0x16 <__rc6>
    1b51: 85 16        	sta	$16                     ; 0x16 <__rc6>
    1b53: 85 23        	sta	$23                     ; 0x23 <__rc19>
    1b55: a4 22        	ldy	$22                     ; 0x22 <__rc18>
    1b57: b1 18        	lda	($18),y                 ; 0x18 <__rc8>
    1b59: a4 22        	ldy	$22                     ; 0x22 <__rc18>
    1b5b: 84 18        	sty	$18                     ; 0x18 <__rc8>
    1b5d: 85 17        	sta	$17                     ; 0x17 <__rc7>
    1b5f: 85 19        	sta	$19                     ; 0x19 <__rc9>
    1b61: a0 04        	ldy	#$4
    1b63: a5 23        	lda	$23                     ; 0x23 <__rc19>
    1b65: 91 12        	sta	($12),y                 ; 0x12 <__rc2>
    1b67: 84 22        	sty	$22                     ; 0x22 <__rc18>
    1b69: a4 18        	ldy	$18                     ; 0x18 <__rc8>
    1b6b: a5 19        	lda	$19                     ; 0x19 <__rc9>
    1b6d: 91 1a        	sta	($1a),y                 ; 0x1a <__rc10>
    1b6f: 84 1a        	sty	$1a                     ; 0x1a <__rc10>
    1b71: 18           	clc
    1b72: a5 23        	lda	$23                     ; 0x23 <__rc19>
    1b74: 69 02        	adc	#$2
    1b76: 85 18        	sta	$18                     ; 0x18 <__rc8>
    1b78: a5 19        	lda	$19                     ; 0x19 <__rc9>
    1b7a: 69 00        	adc	#$0
    1b7c: 85 19        	sta	$19                     ; 0x19 <__rc9>
    1b7e: a5 1e        	lda	$1e                     ; 0x1e <__rc14>
    1b80: a4 1f        	ldy	$1f                     ; 0x1f <__rc15>
    1b82: 91 16        	sta	($16),y                 ; 0x16 <__rc6>
    1b84: a5 13        	lda	$13                     ; 0x13 <__rc3>
    1b86: a4 1a        	ldy	$1a                     ; 0x1a <__rc10>
    1b88: 91 18        	sta	($18),y                 ; 0x18 <__rc8>
    1b8a: 84 17        	sty	$17                     ; 0x17 <__rc7>
    1b8c: a4 1f        	ldy	$1f                     ; 0x1f <__rc15>
    1b8e: b1 12        	lda	($12),y                 ; 0x12 <__rc2>
    1b90: 85 12        	sta	$12                     ; 0x12 <__rc2>
    1b92: 85 16        	sta	$16                     ; 0x16 <__rc6>
    1b94: a4 17        	ldy	$17                     ; 0x17 <__rc7>
    1b96: b1 14        	lda	($14),y                 ; 0x14 <__rc4>
    1b98: 84 14        	sty	$14                     ; 0x14 <__rc4>
    1b9a: 85 13        	sta	$13                     ; 0x13 <__rc3>
    1b9c: 85 15        	sta	$15                     ; 0x15 <__rc5>
    1b9e: a5 1e        	lda	$1e                     ; 0x1e <__rc14>
    1ba0: a4 22        	ldy	$22                     ; 0x22 <__rc18>
    1ba2: 91 12        	sta	($12),y                 ; 0x12 <__rc2>
    1ba4: 18           	clc
    1ba5: a5 16        	lda	$16                     ; 0x16 <__rc6>
    1ba7: 69 04        	adc	#$4
    1ba9: 85 12        	sta	$12                     ; 0x12 <__rc2>
    1bab: a5 15        	lda	$15                     ; 0x15 <__rc5>
    1bad: 69 00        	adc	#$0
    1baf: 85 13        	sta	$13                     ; 0x13 <__rc3>
    1bb1: 8a           	txa
    1bb2: a4 14        	ldy	$14                     ; 0x14 <__rc4>
    1bb4: 91 12        	sta	($12),y                 ; 0x12 <__rc2>
    1bb6: a2 78        	ldx	#$78
    1bb8: 86 26        	stx	$26                     ; 0x26 <__rc22>
    1bba: a2 00        	ldx	#$0
    1bbc: 86 27        	stx	$27                     ; 0x27 <__rc23>
    1bbe: 64 71        	stz	$71                     ; 0x71 <kernelEventData>
    1bc0: 20 00 ff     	jsr	$ff00 <__heap_start+0xb570>
    1bc3: 92 1c        	sta	($1c)                   ; 0x1c <__rc12>
    1bc5: a9 00        	lda	#$0
    1bc7: 6a           	ror
    1bc8: 85 26        	sta	$26                     ; 0x26 <__rc22>
    1bca: a6 71        	ldx	$71                     ; 0x71 <kernelEventData>
    1bcc: e0 38        	cpx	#$38
    1bce: f0 04        	beq	$1bd4 <main+0x15c3>
    1bd0: e0 32        	cpx	#$32
    1bd2: d0 ea        	bne	$1bbe <main+0x15ad>
    1bd4: a0 01        	ldy	#$1
    1bd6: a2 01        	ldx	#$1
    1bd8: 86 25        	stx	$25                     ; 0x25 <__rc21>
    1bda: 84 92        	sty	$92                     ; 0x92 <comeRightTrough>
    1bdc: a2 0a        	ldx	#$a
    1bde: 86 61        	stx	$61                     ; 0x61 <_col>
    1be0: 8e 14 d0     	stx	$d014                   ; 0xd014 <__heap_start+0x8684>
    1be3: 9c 15 d0     	stz	$d015                   ; 0xd015 <__heap_start+0x8685>
    1be6: 86 62        	stx	$62                     ; 0x62 <_row>
    1be8: 8e 16 d0     	stx	$d016                   ; 0xd016 <__heap_start+0x8686>
    1beb: 9c 17 d0     	stz	$d017                   ; 0xd017 <__heap_start+0x8687>
    1bee: a2 0f        	ldx	#$f
    1bf0: 86 12        	stx	$12                     ; 0x12 <__rc2>
    1bf2: a2 48        	ldx	#$48
    1bf4: 86 13        	stx	$13                     ; 0x13 <__rc3>
    1bf6: 20 05 28     	jsr	$2805 <textPrint>
    1bf9: a2 14        	ldx	#$14
    1bfb: 86 61        	stx	$61                     ; 0x61 <_col>
    1bfd: 8e 14 d0     	stx	$d014                   ; 0xd014 <__heap_start+0x8684>
    1c00: 9c 15 d0     	stz	$d015                   ; 0xd015 <__heap_start+0x8685>
    1c03: a2 0c        	ldx	#$c
    1c05: 86 62        	stx	$62                     ; 0x62 <_row>
    1c07: 8e 16 d0     	stx	$d016                   ; 0xd016 <__heap_start+0x8686>
    1c0a: 9c 17 d0     	stz	$d017                   ; 0xd017 <__heap_start+0x8687>
    1c0d: a2 f1        	ldx	#$f1
    1c0f: 86 12        	stx	$12                     ; 0x12 <__rc2>
    1c11: a2 47        	ldx	#$47
    1c13: 86 13        	stx	$13                     ; 0x13 <__rc3>
    1c15: 20 05 28     	jsr	$2805 <textPrint>
    1c18: a2 80        	ldx	#$80
    1c1a: 86 f3        	stx	$f3                     ; 0xf3 <__pal_size+0x73>
    1c1c: a2 02        	ldx	#$2
    1c1e: 86 24        	stx	$24                     ; 0x24 <__rc20>
    1c20: 20 f0 ff     	jsr	$fff0 <__heap_start+0xb660>
    1c23: 92 28        	sta	($28)                   ; 0x28 <__rc24>
    1c25: a9 00        	lda	#$0
    1c27: 6a           	ror
    1c28: 85 26        	sta	$26                     ; 0x26 <__rc22>
    1c2a: 18           	clc
    1c2b: 8a           	txa
    1c2c: 72 28        	adc	($28)                   ; 0x28 <__rc24>
    1c2e: 85 70        	sta	$70                     ; 0x70 <tileAnim.1>
    1c30: 64 f3        	stz	$f3                     ; 0xf3 <__pal_size+0x73>
    1c32: a6 70        	ldx	$70                     ; 0x70 <tileAnim.1>
    1c34: 86 f4        	stx	$f4                     ; 0xf4 <__pal_size+0x74>
    1c36: 64 f5        	stz	$f5                     ; 0xf5 <__pal_size+0x75>
    1c38: 64 2a        	stz	$2a                     ; 0x2a <__rc26>
    1c3a: a2 3a        	ldx	#$3a
    1c3c: 86 2b        	stx	$2b                     ; 0x2b <__rc27>
    1c3e: 20 f0 ff     	jsr	$fff0 <__heap_start+0xb660>
    1c41: 92 28        	sta	($28)                   ; 0x28 <__rc24>
    1c43: a9 00        	lda	#$0
    1c45: 6a           	ror
    1c46: 85 26        	sta	$26                     ; 0x26 <__rc22>
    1c48: 4c f7 21     	jmp	$21f7 <main+0x1be6>
    1c4b: a5 6f        	lda	$6f                     ; 0x6f <wantSound>
    1c4d: 29 01        	and	#$1
    1c4f: f0 49        	beq	$1c9a <main+0x1689>
    1c51: 64 6f        	stz	$6f                     ; 0x6f <wantSound>
    1c53: 4c f7 21     	jmp	$21f7 <main+0x1be6>
    1c56: a4 60        	ldy	$60                     ; 0x60 <wantText>
    1c58: a2 01        	ldx	#$1
    1c5a: 98           	tya
    1c5b: f0 02        	beq	$1c5f <main+0x164e>
    1c5d: a2 00        	ldx	#$0
    1c5f: 8a           	txa
    1c60: d0 03        	bne	$1c65 <main+0x1654>
    1c62: 4c e1 1d     	jmp	$1de1 <main+0x17d0>
    1c65: a0 01        	ldy	#$1
    1c67: 4c e3 1d     	jmp	$1de3 <main+0x17d2>
    1c6a: e0 01        	cpx	#$1
    1c6c: 90 03        	bcc	$1c71 <main+0x1660>
    1c6e: 4c 2d 1e     	jmp	$1e2d <main+0x181c>
    1c71: a6 16        	ldx	$16                     ; 0x16 <__rc6>
    1c73: 8e 55 d6     	stx	$d655                   ; 0xd655 <__heap_start+0x8cc5>
    1c76: a6 13        	ldx	$13                     ; 0x13 <__rc3>
    1c78: 8e 56 d6     	stx	$d656                   ; 0xd656 <__heap_start+0x8cc6>
    1c7b: 8c 57 d6     	sty	$d657                   ; 0xd657 <__heap_start+0x8cc7>
    1c7e: 9c 54 d6     	stz	$d654                   ; 0xd654 <__heap_start+0x8cc4>
    1c81: a0 02        	ldy	#$2
    1c83: a2 02        	ldx	#$2
    1c85: 86 24        	stx	$24                     ; 0x24 <__rc20>
    1c87: 8c 50 d6     	sty	$d650                   ; 0xd650 <__heap_start+0x8cc0>
    1c8a: a2 89        	ldx	#$89
    1c8c: 8e 50 d6     	stx	$d650                   ; 0xd650 <__heap_start+0x8cc0>
    1c8f: 64 79        	stz	$79                     ; 0x79 <tooBigWait>
    1c91: 64 7a        	stz	$7a                     ; 0x7a <tooBigWait+0x1>
    1c93: 64 7b        	stz	$7b                     ; 0x7b <tooBigWait+0x2>
    1c95: 64 7c        	stz	$7c                     ; 0x7c <tooBigWait+0x3>
    1c97: 4c fd 21     	jmp	$21fd <main+0x1bec>
    1c9a: a2 b0        	ldx	#$b0
    1c9c: 8e 80 d5     	stx	$d580                   ; 0xd580 <__heap_start+0x8bf0>
    1c9f: 86 13        	stx	$13                     ; 0x13 <__rc3>
    1ca1: 9c 81 d5     	stz	$d581                   ; 0xd581 <__heap_start+0x8bf1>
    1ca4: a0 a0        	ldy	#$a0
    1ca6: 8c 80 d5     	sty	$d580                   ; 0xd580 <__heap_start+0x8bf0>
    1ca9: 9c 81 d5     	stz	$d581                   ; 0xd581 <__heap_start+0x8bf1>
    1cac: a9 b1        	lda	#$b1
    1cae: 8d 80 d5     	sta	$d580                   ; 0xd580 <__heap_start+0x8bf0>
    1cb1: 9c 81 d5     	stz	$d581                   ; 0xd581 <__heap_start+0x8bf1>
    1cb4: a2 a1        	ldx	#$a1
    1cb6: 8e 80 d5     	stx	$d580                   ; 0xd580 <__heap_start+0x8bf0>
    1cb9: 86 12        	stx	$12                     ; 0x12 <__rc2>
    1cbb: 9c 81 d5     	stz	$d581                   ; 0xd581 <__heap_start+0x8bf1>
    1cbe: a2 b2        	ldx	#$b2
    1cc0: 8e 80 d5     	stx	$d580                   ; 0xd580 <__heap_start+0x8bf0>
    1cc3: 86 15        	stx	$15                     ; 0x15 <__rc5>
    1cc5: 9c 81 d5     	stz	$d581                   ; 0xd581 <__heap_start+0x8bf1>
    1cc8: a2 a2        	ldx	#$a2
    1cca: 8e 80 d5     	stx	$d580                   ; 0xd580 <__heap_start+0x8bf0>
    1ccd: 86 14        	stx	$14                     ; 0x14 <__rc4>
    1ccf: 9c 81 d5     	stz	$d581                   ; 0xd581 <__heap_start+0x8bf1>
    1cd2: a2 b3        	ldx	#$b3
    1cd4: 8e 80 d5     	stx	$d580                   ; 0xd580 <__heap_start+0x8bf0>
    1cd7: 86 17        	stx	$17                     ; 0x17 <__rc7>
    1cd9: 9c 81 d5     	stz	$d581                   ; 0xd581 <__heap_start+0x8bf1>
    1cdc: a2 a3        	ldx	#$a3
    1cde: 8e 80 d5     	stx	$d580                   ; 0xd580 <__heap_start+0x8bf0>
    1ce1: 86 16        	stx	$16                     ; 0x16 <__rc6>
    1ce3: 9c 81 d5     	stz	$d581                   ; 0xd581 <__heap_start+0x8bf1>
    1ce6: a2 b4        	ldx	#$b4
    1ce8: 8e 80 d5     	stx	$d580                   ; 0xd580 <__heap_start+0x8bf0>
    1ceb: 86 19        	stx	$19                     ; 0x19 <__rc9>
    1ced: 9c 81 d5     	stz	$d581                   ; 0xd581 <__heap_start+0x8bf1>
    1cf0: a2 a4        	ldx	#$a4
    1cf2: 8e 80 d5     	stx	$d580                   ; 0xd580 <__heap_start+0x8bf0>
    1cf5: 86 18        	stx	$18                     ; 0x18 <__rc8>
    1cf7: 9c 81 d5     	stz	$d581                   ; 0xd581 <__heap_start+0x8bf1>
    1cfa: a2 b5        	ldx	#$b5
    1cfc: 8e 80 d5     	stx	$d580                   ; 0xd580 <__heap_start+0x8bf0>
    1cff: 86 1b        	stx	$1b                     ; 0x1b <__rc11>
    1d01: 9c 81 d5     	stz	$d581                   ; 0xd581 <__heap_start+0x8bf1>
    1d04: a2 a5        	ldx	#$a5
    1d06: 8e 80 d5     	stx	$d580                   ; 0xd580 <__heap_start+0x8bf0>
    1d09: 86 1a        	stx	$1a                     ; 0x1a <__rc10>
    1d0b: 9c 81 d5     	stz	$d581                   ; 0xd581 <__heap_start+0x8bf1>
    1d0e: a2 b6        	ldx	#$b6
    1d10: 8e 80 d5     	stx	$d580                   ; 0xd580 <__heap_start+0x8bf0>
    1d13: 86 1d        	stx	$1d                     ; 0x1d <__rc13>
    1d15: 9c 81 d5     	stz	$d581                   ; 0xd581 <__heap_start+0x8bf1>
    1d18: a2 a6        	ldx	#$a6
    1d1a: 8e 80 d5     	stx	$d580                   ; 0xd580 <__heap_start+0x8bf0>
    1d1d: 86 1c        	stx	$1c                     ; 0x1c <__rc12>
    1d1f: 9c 81 d5     	stz	$d581                   ; 0xd581 <__heap_start+0x8bf1>
    1d22: a2 b7        	ldx	#$b7
    1d24: 8e 80 d5     	stx	$d580                   ; 0xd580 <__heap_start+0x8bf0>
    1d27: 86 1f        	stx	$1f                     ; 0x1f <__rc15>
    1d29: 9c 81 d5     	stz	$d581                   ; 0xd581 <__heap_start+0x8bf1>
    1d2c: a2 a7        	ldx	#$a7
    1d2e: 8e 80 d5     	stx	$d580                   ; 0xd580 <__heap_start+0x8bf0>
    1d31: 86 1e        	stx	$1e                     ; 0x1e <__rc14>
    1d33: 9c 81 d5     	stz	$d581                   ; 0xd581 <__heap_start+0x8bf1>
    1d36: a2 b8        	ldx	#$b8
    1d38: 8e 80 d5     	stx	$d580                   ; 0xd580 <__heap_start+0x8bf0>
    1d3b: 86 23        	stx	$23                     ; 0x23 <__rc19>
    1d3d: 9c 81 d5     	stz	$d581                   ; 0xd581 <__heap_start+0x8bf1>
    1d40: a2 a8        	ldx	#$a8
    1d42: 8e 80 d5     	stx	$d580                   ; 0xd580 <__heap_start+0x8bf0>
    1d45: 86 22        	stx	$22                     ; 0x22 <__rc18>
    1d47: 9c 81 d5     	stz	$d581                   ; 0xd581 <__heap_start+0x8bf1>
    1d4a: a6 13        	ldx	$13                     ; 0x13 <__rc3>
    1d4c: 8e 82 d5     	stx	$d582                   ; 0xd582 <__heap_start+0x8bf2>
    1d4f: 9c 81 d5     	stz	$d581                   ; 0xd581 <__heap_start+0x8bf1>
    1d52: 8c 82 d5     	sty	$d582                   ; 0xd582 <__heap_start+0x8bf2>
    1d55: 9c 81 d5     	stz	$d581                   ; 0xd581 <__heap_start+0x8bf1>
    1d58: 8d 82 d5     	sta	$d582                   ; 0xd582 <__heap_start+0x8bf2>
    1d5b: 9c 81 d5     	stz	$d581                   ; 0xd581 <__heap_start+0x8bf1>
    1d5e: a6 12        	ldx	$12                     ; 0x12 <__rc2>
    1d60: 8e 82 d5     	stx	$d582                   ; 0xd582 <__heap_start+0x8bf2>
    1d63: 9c 81 d5     	stz	$d581                   ; 0xd581 <__heap_start+0x8bf1>
    1d66: a6 15        	ldx	$15                     ; 0x15 <__rc5>
    1d68: 8e 82 d5     	stx	$d582                   ; 0xd582 <__heap_start+0x8bf2>
    1d6b: 9c 81 d5     	stz	$d581                   ; 0xd581 <__heap_start+0x8bf1>
    1d6e: a6 14        	ldx	$14                     ; 0x14 <__rc4>
    1d70: 8e 82 d5     	stx	$d582                   ; 0xd582 <__heap_start+0x8bf2>
    1d73: 9c 81 d5     	stz	$d581                   ; 0xd581 <__heap_start+0x8bf1>
    1d76: a6 17        	ldx	$17                     ; 0x17 <__rc7>
    1d78: 8e 82 d5     	stx	$d582                   ; 0xd582 <__heap_start+0x8bf2>
    1d7b: 9c 81 d5     	stz	$d581                   ; 0xd581 <__heap_start+0x8bf1>
    1d7e: a6 16        	ldx	$16                     ; 0x16 <__rc6>
    1d80: 8e 82 d5     	stx	$d582                   ; 0xd582 <__heap_start+0x8bf2>
    1d83: 9c 81 d5     	stz	$d581                   ; 0xd581 <__heap_start+0x8bf1>
    1d86: a6 19        	ldx	$19                     ; 0x19 <__rc9>
    1d88: 8e 82 d5     	stx	$d582                   ; 0xd582 <__heap_start+0x8bf2>
    1d8b: 9c 81 d5     	stz	$d581                   ; 0xd581 <__heap_start+0x8bf1>
    1d8e: a6 18        	ldx	$18                     ; 0x18 <__rc8>
    1d90: 8e 82 d5     	stx	$d582                   ; 0xd582 <__heap_start+0x8bf2>
    1d93: 9c 81 d5     	stz	$d581                   ; 0xd581 <__heap_start+0x8bf1>
    1d96: a6 1b        	ldx	$1b                     ; 0x1b <__rc11>
    1d98: 8e 82 d5     	stx	$d582                   ; 0xd582 <__heap_start+0x8bf2>
    1d9b: 9c 81 d5     	stz	$d581                   ; 0xd581 <__heap_start+0x8bf1>
    1d9e: a6 1a        	ldx	$1a                     ; 0x1a <__rc10>
    1da0: 8e 82 d5     	stx	$d582                   ; 0xd582 <__heap_start+0x8bf2>
    1da3: 9c 81 d5     	stz	$d581                   ; 0xd581 <__heap_start+0x8bf1>
    1da6: a6 1d        	ldx	$1d                     ; 0x1d <__rc13>
    1da8: 8e 82 d5     	stx	$d582                   ; 0xd582 <__heap_start+0x8bf2>
    1dab: 9c 81 d5     	stz	$d581                   ; 0xd581 <__heap_start+0x8bf1>
    1dae: a6 1c        	ldx	$1c                     ; 0x1c <__rc12>
    1db0: 8e 82 d5     	stx	$d582                   ; 0xd582 <__heap_start+0x8bf2>
    1db3: 9c 81 d5     	stz	$d581                   ; 0xd581 <__heap_start+0x8bf1>
    1db6: a6 1f        	ldx	$1f                     ; 0x1f <__rc15>
    1db8: 8e 82 d5     	stx	$d582                   ; 0xd582 <__heap_start+0x8bf2>
    1dbb: 9c 81 d5     	stz	$d581                   ; 0xd581 <__heap_start+0x8bf1>
    1dbe: a6 1e        	ldx	$1e                     ; 0x1e <__rc14>
    1dc0: 8e 82 d5     	stx	$d582                   ; 0xd582 <__heap_start+0x8bf2>
    1dc3: 9c 81 d5     	stz	$d581                   ; 0xd581 <__heap_start+0x8bf1>
    1dc6: a6 23        	ldx	$23                     ; 0x23 <__rc19>
    1dc8: 8e 82 d5     	stx	$d582                   ; 0xd582 <__heap_start+0x8bf2>
    1dcb: 9c 81 d5     	stz	$d581                   ; 0xd581 <__heap_start+0x8bf1>
    1dce: a6 22        	ldx	$22                     ; 0x22 <__rc18>
    1dd0: 8e 82 d5     	stx	$d582                   ; 0xd582 <__heap_start+0x8bf2>
    1dd3: 9c 81 d5     	stz	$d581                   ; 0xd581 <__heap_start+0x8bf1>
    1dd6: a0 01        	ldy	#$1
    1dd8: a2 01        	ldx	#$1
    1dda: 86 25        	stx	$25                     ; 0x25 <__rc21>
    1ddc: 84 6f        	sty	$6f                     ; 0x6f <wantSound>
    1dde: 4c f7 21     	jmp	$21f7 <main+0x1be6>
    1de1: a0 00        	ldy	#$0
    1de3: a9 5f        	lda	#$5f
    1de5: e0 00        	cpx	#$0
    1de7: d0 02        	bne	$1deb <main+0x17da>
    1de9: a9 5e        	lda	#$5e
    1deb: 84 60        	sty	$60                     ; 0x60 <wantText>
    1ded: 8d 00 d0     	sta	$d000                   ; 0xd000 <__heap_start+0x8670>
    1df0: 4c f7 21     	jmp	$21f7 <main+0x1be6>
    1df3: 86 18        	stx	$18                     ; 0x18 <__rc8>
    1df5: c4 81        	cpy	$81                     ; 0x81 <gd3Location+0x3>
    1df7: aa           	tax
    1df8: a5 15        	lda	$15                     ; 0x15 <__rc5>
    1dfa: 90 03        	bcc	$1dff <main+0x17ee>
    1dfc: 4c 20 23     	jmp	$2320 <main+0x1d0f>
    1dff: c0 00        	cpy	#$0
    1e01: f0 03        	beq	$1e06 <main+0x17f5>
    1e03: 4c d4 1e     	jmp	$1ed4 <main+0x18c3>
    1e06: a6 18        	ldx	$18                     ; 0x18 <__rc8>
    1e08: e0 10        	cpx	#$10
    1e0a: f0 03        	beq	$1e0f <main+0x17fe>
    1e0c: 4c 77 1e     	jmp	$1e77 <main+0x1866>
    1e0f: 85 13        	sta	$13                     ; 0x13 <__rc3>
    1e11: a5 16        	lda	$16                     ; 0x16 <__rc6>
    1e13: c9 22        	cmp	#$22
    1e15: f0 03        	beq	$1e1a <main+0x1809>
    1e17: 4c a2 1e     	jmp	$1ea2 <main+0x1891>
    1e1a: a5 13        	lda	$13                     ; 0x13 <__rc3>
    1e1c: c9 d9        	cmp	#$d9
    1e1e: 90 03        	bcc	$1e23 <main+0x1812>
    1e20: 4c da 1e     	jmp	$1eda <main+0x18c9>
    1e23: 4c e1 1e     	jmp	$1ee1 <main+0x18d0>
    1e26: c0 00        	cpy	#$0
    1e28: b0 03        	bcs	$1e2d <main+0x181c>
    1e2a: 4c 71 1c     	jmp	$1c71 <main+0x1660>
    1e2d: a2 ff        	ldx	#$ff
    1e2f: 8e 55 d6     	stx	$d655                   ; 0xd655 <__heap_start+0x8cc5>
    1e32: 8e 56 d6     	stx	$d656                   ; 0xd656 <__heap_start+0x8cc6>
    1e35: 8e 57 d6     	stx	$d657                   ; 0xd657 <__heap_start+0x8cc7>
    1e38: 9c 54 d6     	stz	$d654                   ; 0xd654 <__heap_start+0x8cc4>
    1e3b: a0 02        	ldy	#$2
    1e3d: a2 02        	ldx	#$2
    1e3f: 86 24        	stx	$24                     ; 0x24 <__rc20>
    1e41: 8c 50 d6     	sty	$d650                   ; 0xd650 <__heap_start+0x8cc0>
    1e44: a2 89        	ldx	#$89
    1e46: 8e 50 d6     	stx	$d650                   ; 0xd650 <__heap_start+0x8cc0>
    1e49: a5 79        	lda	$79                     ; 0x79 <tooBigWait>
    1e4b: a6 7a        	ldx	$7a                     ; 0x7a <tooBigWait+0x1>
    1e4d: 86 12        	stx	$12                     ; 0x12 <__rc2>
    1e4f: a4 7b        	ldy	$7b                     ; 0x7b <tooBigWait+0x2>
    1e51: a6 7c        	ldx	$7c                     ; 0x7c <tooBigWait+0x3>
    1e53: 86 13        	stx	$13                     ; 0x13 <__rc3>
    1e55: 18           	clc
    1e56: 69 01        	adc	#$1
    1e58: aa           	tax
    1e59: a5 12        	lda	$12                     ; 0x12 <__rc2>
    1e5b: 69 00        	adc	#$0
    1e5d: 85 12        	sta	$12                     ; 0x12 <__rc2>
    1e5f: 98           	tya
    1e60: 69 00        	adc	#$0
    1e62: 85 14        	sta	$14                     ; 0x14 <__rc4>
    1e64: a5 13        	lda	$13                     ; 0x13 <__rc3>
    1e66: 69 ff        	adc	#$ff
    1e68: 86 79        	stx	$79                     ; 0x79 <tooBigWait>
    1e6a: a6 12        	ldx	$12                     ; 0x12 <__rc2>
    1e6c: 86 7a        	stx	$7a                     ; 0x7a <tooBigWait+0x1>
    1e6e: a6 14        	ldx	$14                     ; 0x14 <__rc4>
    1e70: 86 7b        	stx	$7b                     ; 0x7b <tooBigWait+0x2>
    1e72: 85 7c        	sta	$7c                     ; 0x7c <tooBigWait+0x3>
    1e74: 4c fd 21     	jmp	$21fd <main+0x1bec>
    1e77: e0 10        	cpx	#$10
    1e79: 90 03        	bcc	$1e7e <main+0x186d>
    1e7b: 4c da 1e     	jmp	$1eda <main+0x18c9>
    1e7e: 4c e1 1e     	jmp	$1ee1 <main+0x18d0>
    1e81: a2 08        	ldx	#$8
    1e83: 86 6c        	stx	$6c                     ; 0x6c <tm_xf1>
    1e85: 64 6d        	stz	$6d                     ; 0x6d <tm_xf1+0x1>
    1e87: a5 6e        	lda	$6e                     ; 0x6e <tm_x1>
    1e89: f0 2b        	beq	$1eb6 <main+0x18a5>
    1e8b: 3a           	dec
    1e8c: 80 2a        	bra	$1eb8 <main+0x18a7>
    1e8e: 86 18        	stx	$18                     ; 0x18 <__rc8>
    1e90: e4 14        	cpx	$14                     ; 0x14 <__rc4>
    1e92: a5 15        	lda	$15                     ; 0x15 <__rc5>
    1e94: 80 16        	bra	$1eac <main+0x189b>
    1e96: a6 13        	ldx	$13                     ; 0x13 <__rc3>
    1e98: e0 00        	cpx	#$0
    1e9a: b0 03        	bcs	$1e9f <main+0x188e>
    1e9c: 4c 71 1c     	jmp	$1c71 <main+0x1660>
    1e9f: 4c 2d 1e     	jmp	$1e2d <main+0x181c>
    1ea2: c9 22        	cmp	#$22
    1ea4: a5 13        	lda	$13                     ; 0x13 <__rc3>
    1ea6: b0 32        	bcs	$1eda <main+0x18c9>
    1ea8: 80 37        	bra	$1ee1 <main+0x18d0>
    1eaa: e4 13        	cpx	$13                     ; 0x13 <__rc3>
    1eac: a6 17        	ldx	$17                     ; 0x17 <__rc7>
    1eae: b0 03        	bcs	$1eb3 <main+0x18a2>
    1eb0: 4c ff 1d     	jmp	$1dff <main+0x17ee>
    1eb3: 4c 20 23     	jmp	$2320 <main+0x1d0f>
    1eb6: a9 27        	lda	#$27
    1eb8: 85 6e        	sta	$6e                     ; 0x6e <tm_x1>
    1eba: 64 12        	stz	$12                     ; 0x12 <__rc2>
    1ebc: 86 13        	stx	$13                     ; 0x13 <__rc3>
    1ebe: 4c dd 23     	jmp	$23dd <main+0x1dcc>
    1ec1: a5 8a        	lda	$8a                     ; 0x8a <needle>
    1ec3: a6 8b        	ldx	$8b                     ; 0x8b <needle+0x1>
    1ec5: 86 16        	stx	$16                     ; 0x16 <__rc6>
    1ec7: a6 8c        	ldx	$8c                     ; 0x8c <needle+0x2>
    1ec9: 86 18        	stx	$18                     ; 0x18 <__rc8>
    1ecb: a4 8d        	ldy	$8d                     ; 0x8d <needle+0x3>
    1ecd: c0 00        	cpy	#$0
    1ecf: d0 03        	bne	$1ed4 <main+0x18c3>
    1ed1: 4c 06 1e     	jmp	$1e06 <main+0x17f5>
    1ed4: c0 00        	cpy	#$0
    1ed6: a6 18        	ldx	$18                     ; 0x18 <__rc8>
    1ed8: 90 07        	bcc	$1ee1 <main+0x18d0>
    1eda: a2 10        	ldx	#$10
    1edc: a9 00        	lda	#$0
    1ede: 64 16        	stz	$16                     ; 0x16 <__rc6>
    1ee0: a8           	tay
    1ee1: 85 15        	sta	$15                     ; 0x15 <__rc5>
    1ee3: 86 12        	stx	$12                     ; 0x12 <__rc2>
    1ee5: 5a           	phy
    1ee6: a4 16        	ldy	$16                     ; 0x16 <__rc6>
    1ee8: 84 13        	sty	$13                     ; 0x13 <__rc3>
    1eea: 7a           	ply
    1eeb: 84 14        	sty	$14                     ; 0x14 <__rc4>
    1eed: 1a           	inc
    1eee: d0 0a        	bne	$1efa <main+0x18e9>
    1ef0: e6 13        	inc	$13                     ; 0x13 <__rc3>
    1ef2: d0 06        	bne	$1efa <main+0x18e9>
    1ef4: e6 12        	inc	$12                     ; 0x12 <__rc2>
    1ef6: d0 02        	bne	$1efa <main+0x18e9>
    1ef8: e6 14        	inc	$14                     ; 0x14 <__rc4>
    1efa: 85 8a        	sta	$8a                     ; 0x8a <needle>
    1efc: a5 13        	lda	$13                     ; 0x13 <__rc3>
    1efe: 85 8b        	sta	$8b                     ; 0x8b <needle+0x1>
    1f00: a5 12        	lda	$12                     ; 0x12 <__rc2>
    1f02: 85 8c        	sta	$8c                     ; 0x8c <needle+0x2>
    1f04: a5 14        	lda	$14                     ; 0x14 <__rc4>
    1f06: 85 8d        	sta	$8d                     ; 0x8d <needle+0x3>
    1f08: 86 12        	stx	$12                     ; 0x12 <__rc2>
    1f0a: 84 13        	sty	$13                     ; 0x13 <__rc3>
    1f0c: a6 16        	ldx	$16                     ; 0x16 <__rc6>
    1f0e: a5 15        	lda	$15                     ; 0x15 <__rc5>
    1f10: 20 cb 05     	jsr	$5cb <PEEK24>
    1f13: 18           	clc
    1f14: 69 60        	adc	#$60
    1f16: c9 c8        	cmp	#$c8
    1f18: 90 03        	bcc	$1f1d <main+0x190c>
    1f1a: 4c 79 1f     	jmp	$1f79 <main+0x1968>
    1f1d: aa           	tax
    1f1e: bc 3b 44     	ldy	$443b,x                 ; 0x443b <__BLOCK_SIZE+0x243b>
    1f21: bd 03 45     	lda	$4503,x                 ; 0x4503 <__BLOCK_SIZE+0x2503>
    1f24: aa           	tax
    1f25: 84 12        	sty	$12                     ; 0x12 <__rc2>
    1f27: 86 13        	stx	$13                     ; 0x13 <__rc3>
    1f29: 6c 12 00     	jmp	($12)                   ; 0x12 <__rc2>
    1f2c: a5 8a        	lda	$8a                     ; 0x8a <needle>
    1f2e: a6 8b        	ldx	$8b                     ; 0x8b <needle+0x1>
    1f30: 86 12        	stx	$12                     ; 0x12 <__rc2>
    1f32: a4 8c        	ldy	$8c                     ; 0x8c <needle+0x2>
    1f34: a6 8d        	ldx	$8d                     ; 0x8d <needle+0x3>
    1f36: 86 13        	stx	$13                     ; 0x13 <__rc3>
    1f38: 18           	clc
    1f39: 69 02        	adc	#$2
    1f3b: 80 20        	bra	$1f5d <main+0x194c>
    1f3d: a5 8a        	lda	$8a                     ; 0x8a <needle>
    1f3f: a6 8b        	ldx	$8b                     ; 0x8b <needle+0x1>
    1f41: 86 12        	stx	$12                     ; 0x12 <__rc2>
    1f43: a4 8c        	ldy	$8c                     ; 0x8c <needle+0x2>
    1f45: a6 8d        	ldx	$8d                     ; 0x8d <needle+0x3>
    1f47: 86 13        	stx	$13                     ; 0x13 <__rc3>
    1f49: 18           	clc
    1f4a: 69 04        	adc	#$4
    1f4c: 80 0f        	bra	$1f5d <main+0x194c>
    1f4e: a5 8a        	lda	$8a                     ; 0x8a <needle>
    1f50: a6 8b        	ldx	$8b                     ; 0x8b <needle+0x1>
    1f52: 86 12        	stx	$12                     ; 0x12 <__rc2>
    1f54: a4 8c        	ldy	$8c                     ; 0x8c <needle+0x2>
    1f56: a6 8d        	ldx	$8d                     ; 0x8d <needle+0x3>
    1f58: 86 13        	stx	$13                     ; 0x13 <__rc3>
    1f5a: 18           	clc
    1f5b: 69 03        	adc	#$3
    1f5d: aa           	tax
    1f5e: a5 12        	lda	$12                     ; 0x12 <__rc2>
    1f60: 69 00        	adc	#$0
    1f62: 85 12        	sta	$12                     ; 0x12 <__rc2>
    1f64: 98           	tya
    1f65: 69 00        	adc	#$0
    1f67: 85 14        	sta	$14                     ; 0x14 <__rc4>
    1f69: a5 13        	lda	$13                     ; 0x13 <__rc3>
    1f6b: 69 00        	adc	#$0
    1f6d: 86 8a        	stx	$8a                     ; 0x8a <needle>
    1f6f: a6 12        	ldx	$12                     ; 0x12 <__rc2>
    1f71: 86 8b        	stx	$8b                     ; 0x8b <needle+0x1>
    1f73: a6 14        	ldx	$14                     ; 0x14 <__rc4>
    1f75: 86 8c        	stx	$8c                     ; 0x8c <needle+0x2>
    1f77: 85 8d        	sta	$8d                     ; 0x8d <needle+0x3>
    1f79: a0 01        	ldy	#$1
    1f7b: a2 01        	ldx	#$1
    1f7d: 86 25        	stx	$25                     ; 0x25 <__rc21>
    1f7f: 84 92        	sty	$92                     ; 0x92 <comeRightTrough>
    1f81: 4c fd 21     	jmp	$21fd <main+0x1bec>
    1f84: e6 8a        	inc	$8a                     ; 0x8a <needle>
    1f86: d0 0a        	bne	$1f92 <main+0x1981>
    1f88: e6 8b        	inc	$8b                     ; 0x8b <needle+0x1>
    1f8a: d0 06        	bne	$1f92 <main+0x1981>
    1f8c: e6 8c        	inc	$8c                     ; 0x8c <needle+0x2>
    1f8e: d0 02        	bne	$1f92 <main+0x1981>
    1f90: e6 8d        	inc	$8d                     ; 0x8d <needle+0x3>
    1f92: 80 e5        	bra	$1f79 <main+0x1968>
    1f94: a6 8a        	ldx	$8a                     ; 0x8a <needle>
    1f96: 86 14        	stx	$14                     ; 0x14 <__rc4>
    1f98: a5 8b        	lda	$8b                     ; 0x8b <needle+0x1>
    1f9a: a4 8c        	ldy	$8c                     ; 0x8c <needle+0x2>
    1f9c: a6 8d        	ldx	$8d                     ; 0x8d <needle+0x3>
    1f9e: e6 8a        	inc	$8a                     ; 0x8a <needle>
    1fa0: d0 07        	bne	$1fa9 <main+0x1998>
    1fa2: e6 8b        	inc	$8b                     ; 0x8b <needle+0x1>
    1fa4: d0 03        	bne	$1fa9 <main+0x1998>
    1fa6: 4c f2 24     	jmp	$24f2 <main+0x1ee1>
    1fa9: 84 12        	sty	$12                     ; 0x12 <__rc2>
    1fab: 86 13        	stx	$13                     ; 0x13 <__rc3>
    1fad: aa           	tax
    1fae: a5 14        	lda	$14                     ; 0x14 <__rc4>
    1fb0: 20 cb 05     	jsr	$5cb <PEEK24>
    1fb3: 85 25        	sta	$25                     ; 0x25 <__rc21>
    1fb5: a6 8a        	ldx	$8a                     ; 0x8a <needle>
    1fb7: 86 14        	stx	$14                     ; 0x14 <__rc4>
    1fb9: a5 8b        	lda	$8b                     ; 0x8b <needle+0x1>
    1fbb: a4 8c        	ldy	$8c                     ; 0x8c <needle+0x2>
    1fbd: a6 8d        	ldx	$8d                     ; 0x8d <needle+0x3>
    1fbf: e6 8a        	inc	$8a                     ; 0x8a <needle>
    1fc1: d0 07        	bne	$1fca <main+0x19b9>
    1fc3: e6 8b        	inc	$8b                     ; 0x8b <needle+0x1>
    1fc5: d0 03        	bne	$1fca <main+0x19b9>
    1fc7: 4c fb 24     	jmp	$24fb <main+0x1eea>
    1fca: 84 12        	sty	$12                     ; 0x12 <__rc2>
    1fcc: 86 13        	stx	$13                     ; 0x13 <__rc3>
    1fce: aa           	tax
    1fcf: a5 14        	lda	$14                     ; 0x14 <__rc4>
    1fd1: 20 cb 05     	jsr	$5cb <PEEK24>
    1fd4: aa           	tax
    1fd5: a5 25        	lda	$25                     ; 0x25 <__rc21>
    1fd7: 8d 80 d5     	sta	$d580                   ; 0xd580 <__heap_start+0x8bf0>
    1fda: 8e 81 d5     	stx	$d581                   ; 0xd581 <__heap_start+0x8bf1>
    1fdd: 64 12        	stz	$12                     ; 0x12 <__rc2>
    1fdf: 20 83 2b     	jsr	$2b83 <opl3_shadow>
    1fe2: 4c 79 1f     	jmp	$1f79 <main+0x1968>
    1fe5: a6 8a        	ldx	$8a                     ; 0x8a <needle>
    1fe7: 86 14        	stx	$14                     ; 0x14 <__rc4>
    1fe9: a5 8b        	lda	$8b                     ; 0x8b <needle+0x1>
    1feb: a4 8c        	ldy	$8c                     ; 0x8c <needle+0x2>
    1fed: a6 8d        	ldx	$8d                     ; 0x8d <needle+0x3>
    1fef: e6 8a        	inc	$8a                     ; 0x8a <needle>
    1ff1: d0 03        	bne	$1ff6 <main+0x19e5>
    1ff3: 4c b8 24     	jmp	$24b8 <main+0x1ea7>
    1ff6: 84 12        	sty	$12                     ; 0x12 <__rc2>
    1ff8: 86 13        	stx	$13                     ; 0x13 <__rc3>
    1ffa: aa           	tax
    1ffb: a5 14        	lda	$14                     ; 0x14 <__rc4>
    1ffd: 20 cb 05     	jsr	$5cb <PEEK24>
    2000: 85 26        	sta	$26                     ; 0x26 <__rc22>
    2002: a6 8a        	ldx	$8a                     ; 0x8a <needle>
    2004: 86 14        	stx	$14                     ; 0x14 <__rc4>
    2006: a5 8b        	lda	$8b                     ; 0x8b <needle+0x1>
    2008: a4 8c        	ldy	$8c                     ; 0x8c <needle+0x2>
    200a: a6 8d        	ldx	$8d                     ; 0x8d <needle+0x3>
    200c: e6 8a        	inc	$8a                     ; 0x8a <needle>
    200e: d0 03        	bne	$2013 <main+0x1a02>
    2010: 4c c5 24     	jmp	$24c5 <main+0x1eb4>
    2013: 84 12        	sty	$12                     ; 0x12 <__rc2>
    2015: 86 13        	stx	$13                     ; 0x13 <__rc3>
    2017: aa           	tax
    2018: a5 14        	lda	$14                     ; 0x14 <__rc4>
    201a: 20 cb 05     	jsr	$5cb <PEEK24>
    201d: 85 27        	sta	$27                     ; 0x27 <__rc23>
    201f: a5 26        	lda	$26                     ; 0x26 <__rc22>
    2021: 18           	clc
    2022: 65 8e        	adc	$8e                     ; 0x8e <samplesSoFar>
    2024: a8           	tay
    2025: a5 27        	lda	$27                     ; 0x27 <__rc23>
    2027: 65 8f        	adc	$8f                     ; 0x8f <samplesSoFar+0x1>
    2029: 85 13        	sta	$13                     ; 0x13 <__rc3>
    202b: a9 00        	lda	#$0
    202d: 65 90        	adc	$90                     ; 0x90 <samplesSoFar+0x2>
    202f: aa           	tax
    2030: a9 00        	lda	#$0
    2032: 65 91        	adc	$91                     ; 0x91 <samplesSoFar+0x3>
    2034: 84 8e        	sty	$8e                     ; 0x8e <samplesSoFar>
    2036: a4 13        	ldy	$13                     ; 0x13 <__rc3>
    2038: 84 8f        	sty	$8f                     ; 0x8f <samplesSoFar+0x1>
    203a: 86 90        	stx	$90                     ; 0x90 <samplesSoFar+0x2>
    203c: 85 91        	sta	$91                     ; 0x91 <samplesSoFar+0x3>
    203e: 64 12        	stz	$12                     ; 0x12 <__rc2>
    2040: 64 13        	stz	$13                     ; 0x13 <__rc3>
    2042: a6 2b        	ldx	$2b                     ; 0x2b <__rc27>
    2044: 86 14        	stx	$14                     ; 0x14 <__rc4>
    2046: a6 24        	ldx	$24                     ; 0x24 <__rc20>
    2048: 86 15        	stx	$15                     ; 0x15 <__rc5>
    204a: 86 2c        	stx	$2c                     ; 0x2c <__rc28>
    204c: 64 16        	stz	$16                     ; 0x16 <__rc6>
    204e: 64 2a        	stz	$2a                     ; 0x2a <__rc26>
    2050: 64 17        	stz	$17                     ; 0x17 <__rc7>
    2052: a6 27        	ldx	$27                     ; 0x27 <__rc23>
    2054: a5 26        	lda	$26                     ; 0x26 <__rc22>
    2056: 20 bf 43     	jsr	$43bf <__mulsi3>
    2059: a8           	tay
    205a: 8a           	txa
    205b: a6 12        	ldx	$12                     ; 0x12 <__rc2>
    205d: 84 15        	sty	$15                     ; 0x15 <__rc5>
    205f: 84 79        	sty	$79                     ; 0x79 <tooBigWait>
    2061: 85 14        	sta	$14                     ; 0x14 <__rc4>
    2063: 85 7a        	sta	$7a                     ; 0x7a <tooBigWait+0x1>
    2065: a5 12        	lda	$12                     ; 0x12 <__rc2>
    2067: 86 7b        	stx	$7b                     ; 0x7b <tooBigWait+0x2>
    2069: a6 13        	ldx	$13                     ; 0x13 <__rc3>
    206b: 86 7c        	stx	$7c                     ; 0x7c <tooBigWait+0x3>
    206d: a6 2c        	ldx	$2c                     ; 0x2c <__rc28>
    206f: 8e 50 d6     	stx	$d650                   ; 0xd650 <__heap_start+0x8cc0>
    2072: a4 27        	ldy	$27                     ; 0x27 <__rc23>
    2074: c0 72        	cpy	#$72
    2076: f0 03        	beq	$207b <main+0x1a6a>
    2078: 4c db 24     	jmp	$24db <main+0x1eca>
    207b: 4c d2 24     	jmp	$24d2 <main+0x1ec1>
    207e: a0 02        	ldy	#$2
    2080: 8c 50 d6     	sty	$d650                   ; 0xd650 <__heap_start+0x8cc0>
    2083: a2 66        	ldx	#$66
    2085: 8e 55 d6     	stx	$d655                   ; 0xd655 <__heap_start+0x8cc5>
    2088: 8e 56 d6     	stx	$d656                   ; 0xd656 <__heap_start+0x8cc6>
    208b: a2 06        	ldx	#$6
    208d: 8e 57 d6     	stx	$d657                   ; 0xd657 <__heap_start+0x8cc7>
    2090: 9c 54 d6     	stz	$d654                   ; 0xd654 <__heap_start+0x8cc4>
    2093: a2 02        	ldx	#$2
    2095: 86 24        	stx	$24                     ; 0x24 <__rc20>
    2097: 8c 50 d6     	sty	$d650                   ; 0xd650 <__heap_start+0x8cc0>
    209a: a2 89        	ldx	#$89
    209c: 8e 50 d6     	stx	$d650                   ; 0xd650 <__heap_start+0x8cc0>
    209f: a5 8e        	lda	$8e                     ; 0x8e <samplesSoFar>
    20a1: a6 8f        	ldx	$8f                     ; 0x8f <samplesSoFar+0x1>
    20a3: 86 12        	stx	$12                     ; 0x12 <__rc2>
    20a5: a4 90        	ldy	$90                     ; 0x90 <samplesSoFar+0x2>
    20a7: a6 91        	ldx	$91                     ; 0x91 <samplesSoFar+0x3>
    20a9: 86 13        	stx	$13                     ; 0x13 <__rc3>
    20ab: 18           	clc
    20ac: 69 df        	adc	#$df
    20ae: aa           	tax
    20af: a5 12        	lda	$12                     ; 0x12 <__rc2>
    20b1: 69 02        	adc	#$2
    20b3: 4c d7 21     	jmp	$21d7 <main+0x1bc6>
    20b6: a5 8a        	lda	$8a                     ; 0x8a <needle>
    20b8: a6 8b        	ldx	$8b                     ; 0x8b <needle+0x1>
    20ba: 86 15        	stx	$15                     ; 0x15 <__rc5>
    20bc: a6 8c        	ldx	$8c                     ; 0x8c <needle+0x2>
    20be: 86 16        	stx	$16                     ; 0x16 <__rc6>
    20c0: a6 8d        	ldx	$8d                     ; 0x8d <needle+0x3>
    20c2: 86 13        	stx	$13                     ; 0x13 <__rc3>
    20c4: 18           	clc
    20c5: 69 02        	adc	#$2
    20c7: 85 14        	sta	$14                     ; 0x14 <__rc4>
    20c9: a5 15        	lda	$15                     ; 0x15 <__rc5>
    20cb: 69 00        	adc	#$0
    20cd: aa           	tax
    20ce: a5 16        	lda	$16                     ; 0x16 <__rc6>
    20d0: 69 00        	adc	#$0
    20d2: a8           	tay
    20d3: a5 13        	lda	$13                     ; 0x13 <__rc3>
    20d5: 69 00        	adc	#$0
    20d7: 85 13        	sta	$13                     ; 0x13 <__rc3>
    20d9: a5 14        	lda	$14                     ; 0x14 <__rc4>
    20db: 85 8a        	sta	$8a                     ; 0x8a <needle>
    20dd: 86 8b        	stx	$8b                     ; 0x8b <needle+0x1>
    20df: 98           	tya
    20e0: 84 8c        	sty	$8c                     ; 0x8c <needle+0x2>
    20e2: a4 13        	ldy	$13                     ; 0x13 <__rc3>
    20e4: 84 8d        	sty	$8d                     ; 0x8d <needle+0x3>
    20e6: 85 12        	sta	$12                     ; 0x12 <__rc2>
    20e8: a5 14        	lda	$14                     ; 0x14 <__rc4>
    20ea: 20 cb 05     	jsr	$5cb <PEEK24>
    20ed: a5 8a        	lda	$8a                     ; 0x8a <needle>
    20ef: a6 8b        	ldx	$8b                     ; 0x8b <needle+0x1>
    20f1: a4 8c        	ldy	$8c                     ; 0x8c <needle+0x2>
    20f3: 84 12        	sty	$12                     ; 0x12 <__rc2>
    20f5: a4 8d        	ldy	$8d                     ; 0x8d <needle+0x3>
    20f7: 1a           	inc
    20f8: d0 03        	bne	$20fd <main+0x1aec>
    20fa: 4c 04 25     	jmp	$2504 <main+0x1ef3>
    20fd: 84 13        	sty	$13                     ; 0x13 <__rc3>
    20ff: 20 cb 05     	jsr	$5cb <PEEK24>
    2102: a5 8a        	lda	$8a                     ; 0x8a <needle>
    2104: a6 8b        	ldx	$8b                     ; 0x8b <needle+0x1>
    2106: a4 8c        	ldy	$8c                     ; 0x8c <needle+0x2>
    2108: 84 13        	sty	$13                     ; 0x13 <__rc3>
    210a: a4 8d        	ldy	$8d                     ; 0x8d <needle+0x3>
    210c: 18           	clc
    210d: 69 02        	adc	#$2
    210f: 85 14        	sta	$14                     ; 0x14 <__rc4>
    2111: 8a           	txa
    2112: 69 00        	adc	#$0
    2114: aa           	tax
    2115: a5 13        	lda	$13                     ; 0x13 <__rc3>
    2117: 69 00        	adc	#$0
    2119: 85 12        	sta	$12                     ; 0x12 <__rc2>
    211b: 98           	tya
    211c: 69 00        	adc	#$0
    211e: 85 13        	sta	$13                     ; 0x13 <__rc3>
    2120: a5 14        	lda	$14                     ; 0x14 <__rc4>
    2122: 20 cb 05     	jsr	$5cb <PEEK24>
    2125: a5 8a        	lda	$8a                     ; 0x8a <needle>
    2127: a6 8b        	ldx	$8b                     ; 0x8b <needle+0x1>
    2129: a4 8c        	ldy	$8c                     ; 0x8c <needle+0x2>
    212b: 84 13        	sty	$13                     ; 0x13 <__rc3>
    212d: a4 8d        	ldy	$8d                     ; 0x8d <needle+0x3>
    212f: 18           	clc
    2130: 69 03        	adc	#$3
    2132: 85 14        	sta	$14                     ; 0x14 <__rc4>
    2134: 8a           	txa
    2135: 69 00        	adc	#$0
    2137: aa           	tax
    2138: a5 13        	lda	$13                     ; 0x13 <__rc3>
    213a: 69 00        	adc	#$0
    213c: 85 12        	sta	$12                     ; 0x12 <__rc2>
    213e: 98           	tya
    213f: 69 00        	adc	#$0
    2141: 85 13        	sta	$13                     ; 0x13 <__rc3>
    2143: a5 14        	lda	$14                     ; 0x14 <__rc4>
    2145: 20 cb 05     	jsr	$5cb <PEEK24>
    2148: 4c fd 21     	jmp	$21fd <main+0x1bec>
    214b: a6 8a        	ldx	$8a                     ; 0x8a <needle>
    214d: 86 14        	stx	$14                     ; 0x14 <__rc4>
    214f: a5 8b        	lda	$8b                     ; 0x8b <needle+0x1>
    2151: a4 8c        	ldy	$8c                     ; 0x8c <needle+0x2>
    2153: a6 8d        	ldx	$8d                     ; 0x8d <needle+0x3>
    2155: e6 8a        	inc	$8a                     ; 0x8a <needle>
    2157: d0 03        	bne	$215c <main+0x1b4b>
    2159: 4c 0f 25     	jmp	$250f <main+0x1efe>
    215c: 84 12        	sty	$12                     ; 0x12 <__rc2>
    215e: 86 13        	stx	$13                     ; 0x13 <__rc3>
    2160: aa           	tax
    2161: a5 14        	lda	$14                     ; 0x14 <__rc4>
    2163: 20 cb 05     	jsr	$5cb <PEEK24>
    2166: 85 26        	sta	$26                     ; 0x26 <__rc22>
    2168: a6 8a        	ldx	$8a                     ; 0x8a <needle>
    216a: 86 14        	stx	$14                     ; 0x14 <__rc4>
    216c: a5 8b        	lda	$8b                     ; 0x8b <needle+0x1>
    216e: a4 8c        	ldy	$8c                     ; 0x8c <needle+0x2>
    2170: a6 8d        	ldx	$8d                     ; 0x8d <needle+0x3>
    2172: e6 8a        	inc	$8a                     ; 0x8a <needle>
    2174: d0 03        	bne	$2179 <main+0x1b68>
    2176: 4c 1c 25     	jmp	$251c <main+0x1f0b>
    2179: 84 12        	sty	$12                     ; 0x12 <__rc2>
    217b: 86 13        	stx	$13                     ; 0x13 <__rc3>
    217d: aa           	tax
    217e: a5 14        	lda	$14                     ; 0x14 <__rc4>
    2180: 20 cb 05     	jsr	$5cb <PEEK24>
    2183: aa           	tax
    2184: a5 26        	lda	$26                     ; 0x26 <__rc22>
    2186: 8d 82 d5     	sta	$d582                   ; 0xd582 <__heap_start+0x8bf2>
    2189: 8e 81 d5     	stx	$d581                   ; 0xd581 <__heap_start+0x8bf1>
    218c: a4 25        	ldy	$25                     ; 0x25 <__rc21>
    218e: 84 12        	sty	$12                     ; 0x12 <__rc2>
    2190: 84 26        	sty	$26                     ; 0x26 <__rc22>
    2192: 20 83 2b     	jsr	$2b83 <opl3_shadow>
    2195: a2 01        	ldx	#$1
    2197: 86 25        	stx	$25                     ; 0x25 <__rc21>
    2199: a6 26        	ldx	$26                     ; 0x26 <__rc22>
    219b: 86 92        	stx	$92                     ; 0x92 <comeRightTrough>
    219d: 4c fd 21     	jmp	$21fd <main+0x1bec>
    21a0: a0 02        	ldy	#$2
    21a2: 8c 50 d6     	sty	$d650                   ; 0xd650 <__heap_start+0x8cc0>
    21a5: a2 15        	ldx	#$15
    21a7: 8e 55 d6     	stx	$d655                   ; 0xd655 <__heap_start+0x8cc5>
    21aa: a2 ae        	ldx	#$ae
    21ac: 8e 56 d6     	stx	$d656                   ; 0xd656 <__heap_start+0x8cc6>
    21af: a2 07        	ldx	#$7
    21b1: 8e 57 d6     	stx	$d657                   ; 0xd657 <__heap_start+0x8cc7>
    21b4: 9c 54 d6     	stz	$d654                   ; 0xd654 <__heap_start+0x8cc4>
    21b7: a2 02        	ldx	#$2
    21b9: 86 24        	stx	$24                     ; 0x24 <__rc20>
    21bb: 8c 50 d6     	sty	$d650                   ; 0xd650 <__heap_start+0x8cc0>
    21be: a2 89        	ldx	#$89
    21c0: 8e 50 d6     	stx	$d650                   ; 0xd650 <__heap_start+0x8cc0>
    21c3: a5 8e        	lda	$8e                     ; 0x8e <samplesSoFar>
    21c5: a6 8f        	ldx	$8f                     ; 0x8f <samplesSoFar+0x1>
    21c7: 86 12        	stx	$12                     ; 0x12 <__rc2>
    21c9: a4 90        	ldy	$90                     ; 0x90 <samplesSoFar+0x2>
    21cb: a6 91        	ldx	$91                     ; 0x91 <samplesSoFar+0x3>
    21cd: 86 13        	stx	$13                     ; 0x13 <__rc3>
    21cf: 18           	clc
    21d0: 69 72        	adc	#$72
    21d2: aa           	tax
    21d3: a5 12        	lda	$12                     ; 0x12 <__rc2>
    21d5: 69 03        	adc	#$3
    21d7: 85 12        	sta	$12                     ; 0x12 <__rc2>
    21d9: 98           	tya
    21da: 69 00        	adc	#$0
    21dc: 85 14        	sta	$14                     ; 0x14 <__rc4>
    21de: a5 13        	lda	$13                     ; 0x13 <__rc3>
    21e0: 69 00        	adc	#$0
    21e2: 86 8e        	stx	$8e                     ; 0x8e <samplesSoFar>
    21e4: a6 12        	ldx	$12                     ; 0x12 <__rc2>
    21e6: 86 8f        	stx	$8f                     ; 0x8f <samplesSoFar+0x1>
    21e8: a6 14        	ldx	$14                     ; 0x14 <__rc4>
    21ea: 86 90        	stx	$90                     ; 0x90 <samplesSoFar+0x2>
    21ec: 85 91        	sta	$91                     ; 0x91 <samplesSoFar+0x3>
    21ee: 80 0d        	bra	$21fd <main+0x1bec>
    21f0: a6 75        	ldx	$75                     ; 0x75 <kernelEventData+0x4>
    21f2: d0 03        	bne	$21f7 <main+0x1be6>
    21f4: 4c c6 22     	jmp	$22c6 <main+0x1cb5>
    21f7: a5 6f        	lda	$6f                     ; 0x6f <wantSound>
    21f9: 29 01        	and	#$1
    21fb: f0 21        	beq	$221e <main+0x1c0d>
    21fd: 64 71        	stz	$71                     ; 0x71 <kernelEventData>
    21ff: a2 78        	ldx	#$78
    2201: 86 12        	stx	$12                     ; 0x12 <__rc2>
    2203: a2 00        	ldx	#$0
    2205: 86 13        	stx	$13                     ; 0x13 <__rc3>
    2207: 20 00 ff     	jsr	$ff00 <__heap_start+0xb570>
    220a: 92 28        	sta	($28)                   ; 0x28 <__rc24>
    220c: a9 00        	lda	#$0
    220e: 6a           	ror
    220f: 85 12        	sta	$12                     ; 0x12 <__rc2>
    2211: a6 71        	ldx	$71                     ; 0x71 <kernelEventData>
    2213: e0 52        	cpx	#$52
    2215: f0 d9        	beq	$21f0 <main+0x1bdf>
    2217: e0 08        	cpx	#$8
    2219: d0 dc        	bne	$21f7 <main+0x1be6>
    221b: 4c 3e 24     	jmp	$243e <main+0x1e2d>
    221e: ad 60 d6     	lda	$d660                   ; 0xd660 <__heap_start+0x8cd0>
    2221: 29 10        	and	#$10
    2223: aa           	tax
    2224: a5 92        	lda	$92                     ; 0x92 <comeRightTrough>
    2226: 29 01        	and	#$1
    2228: e0 00        	cpx	#$0
    222a: d0 05        	bne	$2231 <main+0x1c20>
    222c: aa           	tax
    222d: f0 ce        	beq	$21fd <main+0x1bec>
    222f: 80 08        	bra	$2239 <main+0x1c28>
    2231: aa           	tax
    2232: d0 05        	bne	$2239 <main+0x1c28>
    2234: a2 10        	ldx	#$10
    2236: 8e 60 d6     	stx	$d660                   ; 0xd660 <__heap_start+0x8cd0>
    2239: a6 79        	ldx	$79                     ; 0x79 <tooBigWait>
    223b: 86 16        	stx	$16                     ; 0x16 <__rc6>
    223d: a5 7a        	lda	$7a                     ; 0x7a <tooBigWait+0x1>
    223f: a4 7b        	ldy	$7b                     ; 0x7b <tooBigWait+0x2>
    2241: a6 7c        	ldx	$7c                     ; 0x7c <tooBigWait+0x3>
    2243: d0 0e        	bne	$2253 <main+0x1c42>
    2245: c0 00        	cpy	#$0
    2247: d0 0a        	bne	$2253 <main+0x1c42>
    2249: c9 00        	cmp	#$0
    224b: d0 06        	bne	$2253 <main+0x1c42>
    224d: e6 16        	inc	$16                     ; 0x16 <__rc6>
    224f: c6 16        	dec	$16                     ; 0x16 <__rc6>
    2251: f0 0b        	beq	$225e <main+0x1c4d>
    2253: 85 13        	sta	$13                     ; 0x13 <__rc3>
    2255: a5 92        	lda	$92                     ; 0x92 <comeRightTrough>
    2257: 29 01        	and	#$1
    2259: d0 03        	bne	$225e <main+0x1c4d>
    225b: 4c ea 22     	jmp	$22ea <main+0x1cd9>
    225e: 64 92        	stz	$92                     ; 0x92 <comeRightTrough>
    2260: a6 91        	ldx	$91                     ; 0x91 <samplesSoFar+0x3>
    2262: e4 85        	cpx	$85                     ; 0x85 <totalWait+0x3>
    2264: f0 03        	beq	$2269 <main+0x1c58>
    2266: 4c 0b 23     	jmp	$230b <main+0x1cfa>
    2269: a6 90        	ldx	$90                     ; 0x90 <samplesSoFar+0x2>
    226b: a4 84        	ldy	$84                     ; 0x84 <totalWait+0x2>
    226d: 84 12        	sty	$12                     ; 0x12 <__rc2>
    226f: e4 12        	cpx	$12                     ; 0x12 <__rc2>
    2271: d0 10        	bne	$2283 <main+0x1c72>
    2273: a6 8f        	ldx	$8f                     ; 0x8f <samplesSoFar+0x1>
    2275: a4 83        	ldy	$83                     ; 0x83 <totalWait+0x1>
    2277: 84 12        	sty	$12                     ; 0x12 <__rc2>
    2279: e4 12        	cpx	$12                     ; 0x12 <__rc2>
    227b: d0 06        	bne	$2283 <main+0x1c72>
    227d: a6 8e        	ldx	$8e                     ; 0x8e <samplesSoFar>
    227f: a4 82        	ldy	$82                     ; 0x82 <totalWait>
    2281: 84 12        	sty	$12                     ; 0x12 <__rc2>
    2283: e4 12        	cpx	$12                     ; 0x12 <__rc2>
    2285: 90 03        	bcc	$228a <main+0x1c79>
    2287: 4c 12 23     	jmp	$2312 <main+0x1d01>
    228a: a6 8a        	ldx	$8a                     ; 0x8a <needle>
    228c: 86 15        	stx	$15                     ; 0x15 <__rc5>
    228e: a6 8b        	ldx	$8b                     ; 0x8b <needle+0x1>
    2290: 86 16        	stx	$16                     ; 0x16 <__rc6>
    2292: a6 8c        	ldx	$8c                     ; 0x8c <needle+0x2>
    2294: a4 8d        	ldy	$8d                     ; 0x8d <needle+0x3>
    2296: a5 7e        	lda	$7e                     ; 0x7e <gd3Location>
    2298: 85 12        	sta	$12                     ; 0x12 <__rc2>
    229a: a5 7f        	lda	$7f                     ; 0x7f <gd3Location+0x1>
    229c: 85 13        	sta	$13                     ; 0x13 <__rc3>
    229e: a5 80        	lda	$80                     ; 0x80 <gd3Location+0x2>
    22a0: 85 14        	sta	$14                     ; 0x14 <__rc4>
    22a2: a5 81        	lda	$81                     ; 0x81 <gd3Location+0x3>
    22a4: c4 81        	cpy	$81                     ; 0x81 <gd3Location+0x3>
    22a6: f0 03        	beq	$22ab <main+0x1c9a>
    22a8: 4c f3 1d     	jmp	$1df3 <main+0x17e2>
    22ab: 85 17        	sta	$17                     ; 0x17 <__rc7>
    22ad: e4 14        	cpx	$14                     ; 0x14 <__rc4>
    22af: f0 03        	beq	$22b4 <main+0x1ca3>
    22b1: 4c 8e 1e     	jmp	$1e8e <main+0x187d>
    22b4: 86 18        	stx	$18                     ; 0x18 <__rc8>
    22b6: a5 15        	lda	$15                     ; 0x15 <__rc5>
    22b8: a6 16        	ldx	$16                     ; 0x16 <__rc6>
    22ba: e4 13        	cpx	$13                     ; 0x13 <__rc3>
    22bc: f0 03        	beq	$22c1 <main+0x1cb0>
    22be: 4c aa 1e     	jmp	$1eaa <main+0x1899>
    22c1: c5 12        	cmp	$12                     ; 0x12 <__rc2>
    22c3: 4c ac 1e     	jmp	$1eac <main+0x189b>
    22c6: a5 69        	lda	$69                     ; 0x69 <tm_xf>
    22c8: a6 6a        	ldx	$6a                     ; 0x6a <tm_xf+0x1>
    22ca: 1a           	inc
    22cb: d0 01        	bne	$22ce <main+0x1cbd>
    22cd: e8           	inx
    22ce: a8           	tay
    22cf: 85 69        	sta	$69                     ; 0x69 <tm_xf>
    22d1: 86 6a        	stx	$6a                     ; 0x6a <tm_xf+0x1>
    22d3: a5 6b        	lda	$6b                     ; 0x6b <tm_x>
    22d5: e0 00        	cpx	#$0
    22d7: f0 03        	beq	$22dc <main+0x1ccb>
    22d9: 4c 7b 23     	jmp	$237b <main+0x1d6a>
    22dc: c0 09        	cpy	#$9
    22de: 90 03        	bcc	$22e3 <main+0x1cd2>
    22e0: 4c 82 23     	jmp	$2382 <main+0x1d71>
    22e3: 84 12        	sty	$12                     ; 0x12 <__rc2>
    22e5: 86 13        	stx	$13                     ; 0x13 <__rc3>
    22e7: 4c 99 23     	jmp	$2399 <main+0x1d88>
    22ea: 84 14        	sty	$14                     ; 0x14 <__rc4>
    22ec: a9 02        	lda	#$2
    22ee: 8d 50 d6     	sta	$d650                   ; 0xd650 <__heap_start+0x8cc0>
    22f1: e0 01        	cpx	#$1
    22f3: f0 03        	beq	$22f8 <main+0x1ce7>
    22f5: 4c 6a 1c     	jmp	$1c6a <main+0x1659>
    22f8: a5 14        	lda	$14                     ; 0x14 <__rc4>
    22fa: f0 03        	beq	$22ff <main+0x1cee>
    22fc: 4c 26 1e     	jmp	$1e26 <main+0x1815>
    22ff: a5 13        	lda	$13                     ; 0x13 <__rc3>
    2301: f0 03        	beq	$2306 <main+0x1cf5>
    2303: 4c 96 1e     	jmp	$1e96 <main+0x1885>
    2306: a6 16        	ldx	$16                     ; 0x16 <__rc6>
    2308: 4c 98 1e     	jmp	$1e98 <main+0x1887>
    230b: e4 85        	cpx	$85                     ; 0x85 <totalWait+0x3>
    230d: b0 03        	bcs	$2312 <main+0x1d01>
    230f: 4c 8a 22     	jmp	$228a <main+0x1c79>
    2312: a6 7e        	ldx	$7e                     ; 0x7e <gd3Location>
    2314: 86 12        	stx	$12                     ; 0x12 <__rc2>
    2316: a4 7f        	ldy	$7f                     ; 0x7f <gd3Location+0x1>
    2318: a5 80        	lda	$80                     ; 0x80 <gd3Location+0x2>
    231a: a6 81        	ldx	$81                     ; 0x81 <gd3Location+0x3>
    231c: 84 13        	sty	$13                     ; 0x13 <__rc3>
    231e: 85 14        	sta	$14                     ; 0x14 <__rc4>
    2320: 8a           	txa
    2321: d0 0f        	bne	$2332 <main+0x1d21>
    2323: a5 14        	lda	$14                     ; 0x14 <__rc4>
    2325: d0 0b        	bne	$2332 <main+0x1d21>
    2327: a5 13        	lda	$13                     ; 0x13 <__rc3>
    2329: d0 07        	bne	$2332 <main+0x1d21>
    232b: a5 12        	lda	$12                     ; 0x12 <__rc2>
    232d: d0 03        	bne	$2332 <main+0x1d21>
    232f: 4c c1 1e     	jmp	$1ec1 <main+0x18b0>
    2332: a6 86        	ldx	$86                     ; 0x86 <loopBackTo>
    2334: 86 15        	stx	$15                     ; 0x15 <__rc5>
    2336: a5 87        	lda	$87                     ; 0x87 <loopBackTo+0x1>
    2338: a4 88        	ldy	$88                     ; 0x88 <loopBackTo+0x2>
    233a: a6 89        	ldx	$89                     ; 0x89 <loopBackTo+0x3>
    233c: d0 11        	bne	$234f <main+0x1d3e>
    233e: c0 00        	cpy	#$0
    2340: d0 0d        	bne	$234f <main+0x1d3e>
    2342: c9 00        	cmp	#$0
    2344: d0 09        	bne	$234f <main+0x1d3e>
    2346: e6 15        	inc	$15                     ; 0x15 <__rc5>
    2348: c6 15        	dec	$15                     ; 0x15 <__rc5>
    234a: d0 03        	bne	$234f <main+0x1d3e>
    234c: 4c fd 21     	jmp	$21fd <main+0x1bec>
    234f: 85 16        	sta	$16                     ; 0x16 <__rc6>
    2351: a5 7d        	lda	$7d                     ; 0x7d <oneLoop>
    2353: 29 01        	and	#$1
    2355: f0 03        	beq	$235a <main+0x1d49>
    2357: 4c fd 21     	jmp	$21fd <main+0x1bec>
    235a: 86 14        	stx	$14                     ; 0x14 <__rc4>
    235c: 64 8e        	stz	$8e                     ; 0x8e <samplesSoFar>
    235e: 64 8f        	stz	$8f                     ; 0x8f <samplesSoFar+0x1>
    2360: 64 90        	stz	$90                     ; 0x90 <samplesSoFar+0x2>
    2362: 64 91        	stz	$91                     ; 0x91 <samplesSoFar+0x3>
    2364: a2 01        	ldx	#$1
    2366: 8a           	txa
    2367: 85 25        	sta	$25                     ; 0x25 <__rc21>
    2369: 86 7d        	stx	$7d                     ; 0x7d <oneLoop>
    236b: a5 15        	lda	$15                     ; 0x15 <__rc5>
    236d: 84 18        	sty	$18                     ; 0x18 <__rc8>
    236f: a4 14        	ldy	$14                     ; 0x14 <__rc4>
    2371: c0 00        	cpy	#$0
    2373: d0 03        	bne	$2378 <main+0x1d67>
    2375: 4c 06 1e     	jmp	$1e06 <main+0x17f5>
    2378: 4c d4 1e     	jmp	$1ed4 <main+0x18c3>
    237b: e0 00        	cpx	#$0
    237d: b0 03        	bcs	$2382 <main+0x1d71>
    237f: 4c e3 22     	jmp	$22e3 <main+0x1cd2>
    2382: 64 12        	stz	$12                     ; 0x12 <__rc2>
    2384: 64 69        	stz	$69                     ; 0x69 <tm_xf>
    2386: 64 6a        	stz	$6a                     ; 0x6a <tm_xf+0x1>
    2388: 1a           	inc
    2389: 85 6b        	sta	$6b                     ; 0x6b <tm_x>
    238b: c9 28        	cmp	#$28
    238d: 64 13        	stz	$13                     ; 0x13 <__rc3>
    238f: 90 08        	bcc	$2399 <main+0x1d88>
    2391: a9 00        	lda	#$0
    2393: 64 6b        	stz	$6b                     ; 0x6b <tm_x>
    2395: 64 12        	stz	$12                     ; 0x12 <__rc2>
    2397: 64 13        	stz	$13                     ; 0x13 <__rc3>
    2399: 0a           	asl
    239a: aa           	tax
    239b: a9 00        	lda	#$0
    239d: 2a           	rol
    239e: 86 14        	stx	$14                     ; 0x14 <__rc4>
    23a0: 06 14        	asl	$14                     ; 0x14 <__rc4>
    23a2: 2a           	rol
    23a3: 06 14        	asl	$14                     ; 0x14 <__rc4>
    23a5: 2a           	rol
    23a6: 06 14        	asl	$14                     ; 0x14 <__rc4>
    23a8: 2a           	rol
    23a9: aa           	tax
    23aa: a5 14        	lda	$14                     ; 0x14 <__rc4>
    23ac: 05 12        	ora	$12                     ; 0x12 <__rc2>
    23ae: 85 12        	sta	$12                     ; 0x12 <__rc2>
    23b0: 8a           	txa
    23b1: 05 13        	ora	$13                     ; 0x13 <__rc3>
    23b3: a6 12        	ldx	$12                     ; 0x12 <__rc2>
    23b5: 8e 20 d2     	stx	$d220                   ; 0xd220 <__heap_start+0x8890>
    23b8: 8d 21 d2     	sta	$d221                   ; 0xd221 <__heap_start+0x8891>
    23bb: 9c 22 d2     	stz	$d222                   ; 0xd222 <__heap_start+0x8892>
    23be: 9c 23 d2     	stz	$d223                   ; 0xd223 <__heap_start+0x8893>
    23c1: a6 6c        	ldx	$6c                     ; 0x6c <tm_xf1>
    23c3: a4 6d        	ldy	$6d                     ; 0x6d <tm_xf1+0x1>
    23c5: d0 06        	bne	$23cd <main+0x1dbc>
    23c7: 8a           	txa
    23c8: d0 03        	bne	$23cd <main+0x1dbc>
    23ca: 4c 81 1e     	jmp	$1e81 <main+0x1870>
    23cd: ca           	dex
    23ce: e0 ff        	cpx	#$ff
    23d0: d0 01        	bne	$23d3 <main+0x1dc2>
    23d2: 88           	dey
    23d3: 86 6c        	stx	$6c                     ; 0x6c <tm_xf1>
    23d5: 84 6d        	sty	$6d                     ; 0x6d <tm_xf1+0x1>
    23d7: a5 6e        	lda	$6e                     ; 0x6e <tm_x1>
    23d9: 86 13        	stx	$13                     ; 0x13 <__rc3>
    23db: 84 12        	sty	$12                     ; 0x12 <__rc2>
    23dd: 0a           	asl
    23de: aa           	tax
    23df: a9 00        	lda	#$0
    23e1: 2a           	rol
    23e2: 86 14        	stx	$14                     ; 0x14 <__rc4>
    23e4: 06 14        	asl	$14                     ; 0x14 <__rc4>
    23e6: 2a           	rol
    23e7: 06 14        	asl	$14                     ; 0x14 <__rc4>
    23e9: 2a           	rol
    23ea: 06 14        	asl	$14                     ; 0x14 <__rc4>
    23ec: 2a           	rol
    23ed: aa           	tax
    23ee: 18           	clc
    23ef: a5 14        	lda	$14                     ; 0x14 <__rc4>
    23f1: 65 13        	adc	$13                     ; 0x13 <__rc3>
    23f3: 85 13        	sta	$13                     ; 0x13 <__rc3>
    23f5: 8a           	txa
    23f6: 65 12        	adc	$12                     ; 0x12 <__rc2>
    23f8: a6 13        	ldx	$13                     ; 0x13 <__rc3>
    23fa: 8e 14 d2     	stx	$d214                   ; 0xd214 <__heap_start+0x8884>
    23fd: 8d 15 d2     	sta	$d215                   ; 0xd215 <__heap_start+0x8885>
    2400: 9c 16 d2     	stz	$d216                   ; 0xd216 <__heap_start+0x8886>
    2403: 9c 17 d2     	stz	$d217                   ; 0xd217 <__heap_start+0x8887>
    2406: a2 80        	ldx	#$80
    2408: 86 f3        	stx	$f3                     ; 0xf3 <__pal_size+0x73>
    240a: a2 78        	ldx	#$78
    240c: 86 12        	stx	$12                     ; 0x12 <__rc2>
    240e: a2 00        	ldx	#$0
    2410: 86 13        	stx	$13                     ; 0x13 <__rc3>
    2412: 20 f0 ff     	jsr	$fff0 <__heap_start+0xb660>
    2415: 92 28        	sta	($28)                   ; 0x28 <__rc24>
    2417: a9 00        	lda	#$0
    2419: 6a           	ror
    241a: 85 12        	sta	$12                     ; 0x12 <__rc2>
    241c: 18           	clc
    241d: a9 02        	lda	#$2
    241f: 72 28        	adc	($28)                   ; 0x28 <__rc24>
    2421: 85 70        	sta	$70                     ; 0x70 <tileAnim.1>
    2423: 64 f3        	stz	$f3                     ; 0xf3 <__pal_size+0x73>
    2425: a6 70        	ldx	$70                     ; 0x70 <tileAnim.1>
    2427: 86 f4        	stx	$f4                     ; 0xf4 <__pal_size+0x74>
    2429: 64 f5        	stz	$f5                     ; 0xf5 <__pal_size+0x75>
    242b: 20 f0 ff     	jsr	$fff0 <__heap_start+0xb660>
    242e: 92 28        	sta	($28)                   ; 0x28 <__rc24>
    2430: a9 00        	lda	#$0
    2432: 6a           	ror
    2433: 85 12        	sta	$12                     ; 0x12 <__rc2>
    2435: a6 71        	ldx	$71                     ; 0x71 <kernelEventData>
    2437: e0 08        	cpx	#$8
    2439: f0 03        	beq	$243e <main+0x1e2d>
    243b: 4c f7 21     	jmp	$21f7 <main+0x1be6>
    243e: a6 75        	ldx	$75                     ; 0x75 <kernelEventData+0x4>
    2440: e0 20        	cpx	#$20
    2442: d0 03        	bne	$2447 <main+0x1e36>
    2444: 4c 56 1c     	jmp	$1c56 <main+0x1645>
    2447: e0 73        	cpx	#$73
    2449: d0 03        	bne	$244e <main+0x1e3d>
    244b: 4c 4b 1c     	jmp	$1c4b <main+0x163a>
    244e: e0 92        	cpx	#$92
    2450: f0 03        	beq	$2455 <main+0x1e44>
    2452: 4c f7 21     	jmp	$21f7 <main+0x1be6>
    2455: 78           	sei
    2456: a2 07        	ldx	#$7
    2458: 86 0f        	stx	$f                      ; 0xf <__data_size+0xf>
    245a: a2 de        	ldx	#$de
    245c: 8e a2 d6     	stx	$d6a2                   ; 0xd6a2 <__heap_start+0x8d12>
    245f: a2 ad        	ldx	#$ad
    2461: 8e a3 d6     	stx	$d6a3                   ; 0xd6a3 <__heap_start+0x8d13>
    2464: a2 f0        	ldx	#$f0
    2466: 8e a0 d6     	stx	$d6a0                   ; 0xd6a0 <__heap_start+0x8d10>
    2469: 9c a0 d6     	stz	$d6a0                   ; 0xd6a0 <__heap_start+0x8d10>
    246c: 6c fc ff     	jmp	($fffc)                 ; 0xfffc <__heap_start+0xb66c>
    246f: a2 00        	ldx	#$0
    2471: 8a           	txa
    2472: 85 20        	sta	$20                     ; 0x20 <__rc16>
    2474: a8           	tay
    2475: b1 10        	lda	($10),y                 ; 0x10 <__rc0>
    2477: 85 2f        	sta	$2f                     ; 0x2f <__rc31>
    2479: c8           	iny
    247a: b1 10        	lda	($10),y                 ; 0x10 <__rc0>
    247c: 85 2e        	sta	$2e                     ; 0x2e <__rc30>
    247e: c8           	iny
    247f: b1 10        	lda	($10),y                 ; 0x10 <__rc0>
    2481: 85 2d        	sta	$2d                     ; 0x2d <__rc29>
    2483: c8           	iny
    2484: b1 10        	lda	($10),y                 ; 0x10 <__rc0>
    2486: 85 2c        	sta	$2c                     ; 0x2c <__rc28>
    2488: c8           	iny
    2489: b1 10        	lda	($10),y                 ; 0x10 <__rc0>
    248b: 85 2b        	sta	$2b                     ; 0x2b <__rc27>
    248d: c8           	iny
    248e: b1 10        	lda	($10),y                 ; 0x10 <__rc0>
    2490: 85 2a        	sta	$2a                     ; 0x2a <__rc26>
    2492: c8           	iny
    2493: b1 10        	lda	($10),y                 ; 0x10 <__rc0>
    2495: 85 29        	sta	$29                     ; 0x29 <__rc25>
    2497: c8           	iny
    2498: b1 10        	lda	($10),y                 ; 0x10 <__rc0>
    249a: 85 28        	sta	$28                     ; 0x28 <__rc24>
    249c: 7a           	ply
    249d: 84 27        	sty	$27                     ; 0x27 <__rc23>
    249f: 7a           	ply
    24a0: 84 26        	sty	$26                     ; 0x26 <__rc22>
    24a2: 7a           	ply
    24a3: 84 25        	sty	$25                     ; 0x25 <__rc21>
    24a5: 7a           	ply
    24a6: 84 24        	sty	$24                     ; 0x24 <__rc20>
    24a8: 18           	clc
    24a9: a5 10        	lda	$10                     ; 0x10 <__rc0>
    24ab: 69 23        	adc	#$23
    24ad: 85 10        	sta	$10                     ; 0x10 <__rc0>
    24af: a5 11        	lda	$11                     ; 0x11 <__rc1>
    24b1: 69 00        	adc	#$0
    24b3: 85 11        	sta	$11                     ; 0x11 <__rc1>
    24b5: a5 20        	lda	$20                     ; 0x20 <__rc16>
    24b7: 60           	rts
    24b8: e6 8b        	inc	$8b                     ; 0x8b <needle+0x1>
    24ba: d0 06        	bne	$24c2 <main+0x1eb1>
    24bc: e6 8c        	inc	$8c                     ; 0x8c <needle+0x2>
    24be: d0 02        	bne	$24c2 <main+0x1eb1>
    24c0: e6 8d        	inc	$8d                     ; 0x8d <needle+0x3>
    24c2: 4c f6 1f     	jmp	$1ff6 <main+0x19e5>
    24c5: e6 8b        	inc	$8b                     ; 0x8b <needle+0x1>
    24c7: d0 06        	bne	$24cf <main+0x1ebe>
    24c9: e6 8c        	inc	$8c                     ; 0x8c <needle+0x2>
    24cb: d0 02        	bne	$24cf <main+0x1ebe>
    24cd: e6 8d        	inc	$8d                     ; 0x8d <needle+0x3>
    24cf: 4c 13 20     	jmp	$2013 <main+0x1a02>
    24d2: a4 26        	ldy	$26                     ; 0x26 <__rc22>
    24d4: c0 fa        	cpy	#$fa
    24d6: 90 0a        	bcc	$24e2 <main+0x1ed1>
    24d8: 4c 2d 1e     	jmp	$1e2d <main+0x181c>
    24db: c0 72        	cpy	#$72
    24dd: 90 03        	bcc	$24e2 <main+0x1ed1>
    24df: 4c 2d 1e     	jmp	$1e2d <main+0x181c>
    24e2: a6 15        	ldx	$15                     ; 0x15 <__rc5>
    24e4: 8e 55 d6     	stx	$d655                   ; 0xd655 <__heap_start+0x8cc5>
    24e7: a6 14        	ldx	$14                     ; 0x14 <__rc4>
    24e9: 8e 56 d6     	stx	$d656                   ; 0xd656 <__heap_start+0x8cc6>
    24ec: 8d 57 d6     	sta	$d657                   ; 0xd657 <__heap_start+0x8cc7>
    24ef: 4c 7e 1c     	jmp	$1c7e <main+0x166d>
    24f2: e6 8c        	inc	$8c                     ; 0x8c <needle+0x2>
    24f4: d0 02        	bne	$24f8 <main+0x1ee7>
    24f6: e6 8d        	inc	$8d                     ; 0x8d <needle+0x3>
    24f8: 4c a9 1f     	jmp	$1fa9 <main+0x1998>
    24fb: e6 8c        	inc	$8c                     ; 0x8c <needle+0x2>
    24fd: d0 02        	bne	$2501 <main+0x1ef0>
    24ff: e6 8d        	inc	$8d                     ; 0x8d <needle+0x3>
    2501: 4c ca 1f     	jmp	$1fca <main+0x19b9>
    2504: e8           	inx
    2505: d0 05        	bne	$250c <main+0x1efb>
    2507: e6 12        	inc	$12                     ; 0x12 <__rc2>
    2509: d0 01        	bne	$250c <main+0x1efb>
    250b: c8           	iny
    250c: 4c fd 20     	jmp	$20fd <main+0x1aec>
    250f: e6 8b        	inc	$8b                     ; 0x8b <needle+0x1>
    2511: d0 06        	bne	$2519 <main+0x1f08>
    2513: e6 8c        	inc	$8c                     ; 0x8c <needle+0x2>
    2515: d0 02        	bne	$2519 <main+0x1f08>
    2517: e6 8d        	inc	$8d                     ; 0x8d <needle+0x3>
    2519: 4c 5c 21     	jmp	$215c <main+0x1b4b>
    251c: e6 8b        	inc	$8b                     ; 0x8b <needle+0x1>
    251e: d0 06        	bne	$2526 <main+0x1f15>
    2520: e6 8c        	inc	$8c                     ; 0x8c <needle+0x2>
    2522: d0 02        	bne	$2526 <main+0x1f15>
    2524: e6 8d        	inc	$8d                     ; 0x8d <needle+0x3>
    2526: 4c 79 21     	jmp	$2179 <main+0x1b68>

00002529 <bitmapClear>:
    2529: a5 63        	lda	$63                     ; 0x63 <_active>
    252b: 0a           	asl
    252c: 85 12        	sta	$12                     ; 0x12 <__rc2>
    252e: a9 00        	lda	#$0
    2530: 2a           	rol
    2531: 06 12        	asl	$12                     ; 0x12 <__rc2>
    2533: 2a           	rol
    2534: 85 13        	sta	$13                     ; 0x13 <__rc3>
    2536: a9 6e        	lda	#$6e
    2538: 18           	clc
    2539: 65 12        	adc	$12                     ; 0x12 <__rc2>
    253b: 85 12        	sta	$12                     ; 0x12 <__rc2>
    253d: a9 48        	lda	#$48
    253f: 65 13        	adc	$13                     ; 0x13 <__rc3>
    2541: 85 13        	sta	$13                     ; 0x13 <__rc3>
    2543: a0 01        	ldy	#$1
    2545: b1 12        	lda	($12),y                 ; 0x12 <__rc2>
    2547: 85 14        	sta	$14                     ; 0x14 <__rc4>
    2549: c8           	iny
    254a: b1 12        	lda	($12),y                 ; 0x12 <__rc2>
    254c: a6 14        	ldx	$14                     ; 0x14 <__rc4>
    254e: 86 12        	stx	$12                     ; 0x12 <__rc2>
    2550: 06 12        	asl	$12                     ; 0x12 <__rc2>
    2552: 2a           	rol
    2553: 06 12        	asl	$12                     ; 0x12 <__rc2>
    2555: 2a           	rol
    2556: 06 12        	asl	$12                     ; 0x12 <__rc2>
    2558: 2a           	rol
    2559: a6 0f        	ldx	$f                      ; 0xf <__data_size+0xf>
    255b: 86 17        	stx	$17                     ; 0x17 <__rc7>
    255d: 78           	sei
    255e: 85 18        	sta	$18                     ; 0x18 <__rc8>
    2560: 85 0f        	sta	$f                      ; 0xf <__data_size+0xf>
    2562: a5 64        	lda	$64                     ; 0x64 <_color>
    2564: 4a           	lsr
    2565: 64 14        	stz	$14                     ; 0x14 <__rc4>
    2567: 66 14        	ror	$14                     ; 0x14 <__rc4>
    2569: 10 04        	bpl	$256f <bitmapClear+0x46>
    256b: a9 ff        	lda	#$ff
    256d: 80 02        	bra	$2571 <bitmapClear+0x48>
    256f: a9 00        	lda	#$0
    2571: a0 00        	ldy	#$0
    2573: 84 12        	sty	$12                     ; 0x12 <__rc2>
    2575: a0 e0        	ldy	#$e0
    2577: 84 13        	sty	$13                     ; 0x13 <__rc3>
    2579: 06 14        	asl	$14                     ; 0x14 <__rc4>
    257b: 2a           	rol
    257c: a2 20        	ldx	#$20
    257e: a0 00        	ldy	#$0
    2580: 48           	pha
    2581: 98           	tya
    2582: 85 14        	sta	$14                     ; 0x14 <__rc4>
    2584: a9 e0        	lda	#$e0
    2586: 85 15        	sta	$15                     ; 0x15 <__rc5>
    2588: 68           	pla
    2589: 86 16        	stx	$16                     ; 0x16 <__rc6>
    258b: 80 04        	bra	$2591 <bitmapClear+0x68>
    258d: a6 16        	ldx	$16                     ; 0x16 <__rc6>
    258f: f0 11        	beq	$25a2 <bitmapClear+0x79>
    2591: 92 14        	sta	($14)                   ; 0x14 <__rc4>
    2593: 88           	dey
    2594: c0 ff        	cpy	#$ff
    2596: d0 02        	bne	$259a <bitmapClear+0x71>
    2598: c6 16        	dec	$16                     ; 0x16 <__rc6>
    259a: e6 14        	inc	$14                     ; 0x14 <__rc4>
    259c: d0 ef        	bne	$258d <bitmapClear+0x64>
    259e: e6 15        	inc	$15                     ; 0x15 <__rc5>
    25a0: 80 eb        	bra	$258d <bitmapClear+0x64>
    25a2: c0 00        	cpy	#$0
    25a4: d0 eb        	bne	$2591 <bitmapClear+0x68>
    25a6: a4 18        	ldy	$18                     ; 0x18 <__rc8>
    25a8: c8           	iny
    25a9: 84 0f        	sty	$f                      ; 0xf <__data_size+0xf>
    25ab: a6 64        	ldx	$64                     ; 0x64 <_color>
    25ad: 86 14        	stx	$14                     ; 0x14 <__rc4>
    25af: a9 00        	lda	#$0
    25b1: 46 14        	lsr	$14                     ; 0x14 <__rc4>
    25b3: 64 14        	stz	$14                     ; 0x14 <__rc4>
    25b5: 66 14        	ror	$14                     ; 0x14 <__rc4>
    25b7: 10 02        	bpl	$25bb <bitmapClear+0x92>
    25b9: a9 ff        	lda	#$ff
    25bb: 06 14        	asl	$14                     ; 0x14 <__rc4>
    25bd: 2a           	rol
    25be: a2 20        	ldx	#$20
    25c0: a0 00        	ldy	#$0
    25c2: 48           	pha
    25c3: 98           	tya
    25c4: 85 14        	sta	$14                     ; 0x14 <__rc4>
    25c6: a9 e0        	lda	#$e0
    25c8: 85 15        	sta	$15                     ; 0x15 <__rc5>
    25ca: 68           	pla
    25cb: 86 16        	stx	$16                     ; 0x16 <__rc6>
    25cd: 80 04        	bra	$25d3 <bitmapClear+0xaa>
    25cf: a6 16        	ldx	$16                     ; 0x16 <__rc6>
    25d1: f0 11        	beq	$25e4 <bitmapClear+0xbb>
    25d3: 92 14        	sta	($14)                   ; 0x14 <__rc4>
    25d5: 88           	dey
    25d6: c0 ff        	cpy	#$ff
    25d8: d0 02        	bne	$25dc <bitmapClear+0xb3>
    25da: c6 16        	dec	$16                     ; 0x16 <__rc6>
    25dc: e6 14        	inc	$14                     ; 0x14 <__rc4>
    25de: d0 ef        	bne	$25cf <bitmapClear+0xa6>
    25e0: e6 15        	inc	$15                     ; 0x15 <__rc5>
    25e2: 80 eb        	bra	$25cf <bitmapClear+0xa6>
    25e4: c0 00        	cpy	#$0
    25e6: d0 eb        	bne	$25d3 <bitmapClear+0xaa>
    25e8: 18           	clc
    25e9: a5 18        	lda	$18                     ; 0x18 <__rc8>
    25eb: 69 02        	adc	#$2
    25ed: 85 0f        	sta	$f                      ; 0xf <__data_size+0xf>
    25ef: a6 64        	ldx	$64                     ; 0x64 <_color>
    25f1: 86 14        	stx	$14                     ; 0x14 <__rc4>
    25f3: a9 00        	lda	#$0
    25f5: 46 14        	lsr	$14                     ; 0x14 <__rc4>
    25f7: 64 14        	stz	$14                     ; 0x14 <__rc4>
    25f9: 66 14        	ror	$14                     ; 0x14 <__rc4>
    25fb: 10 02        	bpl	$25ff <bitmapClear+0xd6>
    25fd: a9 ff        	lda	#$ff
    25ff: 06 14        	asl	$14                     ; 0x14 <__rc4>
    2601: 2a           	rol
    2602: a2 20        	ldx	#$20
    2604: a0 00        	ldy	#$0
    2606: 48           	pha
    2607: 98           	tya
    2608: 85 14        	sta	$14                     ; 0x14 <__rc4>
    260a: a9 e0        	lda	#$e0
    260c: 85 15        	sta	$15                     ; 0x15 <__rc5>
    260e: 68           	pla
    260f: 86 16        	stx	$16                     ; 0x16 <__rc6>
    2611: 80 04        	bra	$2617 <bitmapClear+0xee>
    2613: a6 16        	ldx	$16                     ; 0x16 <__rc6>
    2615: f0 11        	beq	$2628 <bitmapClear+0xff>
    2617: 92 14        	sta	($14)                   ; 0x14 <__rc4>
    2619: 88           	dey
    261a: c0 ff        	cpy	#$ff
    261c: d0 02        	bne	$2620 <bitmapClear+0xf7>
    261e: c6 16        	dec	$16                     ; 0x16 <__rc6>
    2620: e6 14        	inc	$14                     ; 0x14 <__rc4>
    2622: d0 ef        	bne	$2613 <bitmapClear+0xea>
    2624: e6 15        	inc	$15                     ; 0x15 <__rc5>
    2626: 80 eb        	bra	$2613 <bitmapClear+0xea>
    2628: c0 00        	cpy	#$0
    262a: d0 eb        	bne	$2617 <bitmapClear+0xee>
    262c: 18           	clc
    262d: a5 18        	lda	$18                     ; 0x18 <__rc8>
    262f: 69 03        	adc	#$3
    2631: 85 0f        	sta	$f                      ; 0xf <__data_size+0xf>
    2633: a6 64        	ldx	$64                     ; 0x64 <_color>
    2635: 86 14        	stx	$14                     ; 0x14 <__rc4>
    2637: a9 00        	lda	#$0
    2639: 46 14        	lsr	$14                     ; 0x14 <__rc4>
    263b: 64 14        	stz	$14                     ; 0x14 <__rc4>
    263d: 66 14        	ror	$14                     ; 0x14 <__rc4>
    263f: 10 02        	bpl	$2643 <bitmapClear+0x11a>
    2641: a9 ff        	lda	#$ff
    2643: 06 14        	asl	$14                     ; 0x14 <__rc4>
    2645: 2a           	rol
    2646: a2 20        	ldx	#$20
    2648: a0 00        	ldy	#$0
    264a: 48           	pha
    264b: 98           	tya
    264c: 85 14        	sta	$14                     ; 0x14 <__rc4>
    264e: a9 e0        	lda	#$e0
    2650: 85 15        	sta	$15                     ; 0x15 <__rc5>
    2652: 68           	pla
    2653: 86 16        	stx	$16                     ; 0x16 <__rc6>
    2655: 80 04        	bra	$265b <bitmapClear+0x132>
    2657: a6 16        	ldx	$16                     ; 0x16 <__rc6>
    2659: f0 11        	beq	$266c <bitmapClear+0x143>
    265b: 92 14        	sta	($14)                   ; 0x14 <__rc4>
    265d: 88           	dey
    265e: c0 ff        	cpy	#$ff
    2660: d0 02        	bne	$2664 <bitmapClear+0x13b>
    2662: c6 16        	dec	$16                     ; 0x16 <__rc6>
    2664: e6 14        	inc	$14                     ; 0x14 <__rc4>
    2666: d0 ef        	bne	$2657 <bitmapClear+0x12e>
    2668: e6 15        	inc	$15                     ; 0x15 <__rc5>
    266a: 80 eb        	bra	$2657 <bitmapClear+0x12e>
    266c: c0 00        	cpy	#$0
    266e: d0 eb        	bne	$265b <bitmapClear+0x132>
    2670: 18           	clc
    2671: a5 18        	lda	$18                     ; 0x18 <__rc8>
    2673: 69 04        	adc	#$4
    2675: 85 0f        	sta	$f                      ; 0xf <__data_size+0xf>
    2677: a6 64        	ldx	$64                     ; 0x64 <_color>
    2679: 86 14        	stx	$14                     ; 0x14 <__rc4>
    267b: a9 00        	lda	#$0
    267d: 46 14        	lsr	$14                     ; 0x14 <__rc4>
    267f: 64 14        	stz	$14                     ; 0x14 <__rc4>
    2681: 66 14        	ror	$14                     ; 0x14 <__rc4>
    2683: 10 02        	bpl	$2687 <bitmapClear+0x15e>
    2685: a9 ff        	lda	#$ff
    2687: 06 14        	asl	$14                     ; 0x14 <__rc4>
    2689: 2a           	rol
    268a: a2 20        	ldx	#$20
    268c: a0 00        	ldy	#$0
    268e: 48           	pha
    268f: 98           	tya
    2690: 85 14        	sta	$14                     ; 0x14 <__rc4>
    2692: a9 e0        	lda	#$e0
    2694: 85 15        	sta	$15                     ; 0x15 <__rc5>
    2696: 68           	pla
    2697: 86 16        	stx	$16                     ; 0x16 <__rc6>
    2699: 80 04        	bra	$269f <bitmapClear+0x176>
    269b: a6 16        	ldx	$16                     ; 0x16 <__rc6>
    269d: f0 11        	beq	$26b0 <bitmapClear+0x187>
    269f: 92 14        	sta	($14)                   ; 0x14 <__rc4>
    26a1: 88           	dey
    26a2: c0 ff        	cpy	#$ff
    26a4: d0 02        	bne	$26a8 <bitmapClear+0x17f>
    26a6: c6 16        	dec	$16                     ; 0x16 <__rc6>
    26a8: e6 14        	inc	$14                     ; 0x14 <__rc4>
    26aa: d0 ef        	bne	$269b <bitmapClear+0x172>
    26ac: e6 15        	inc	$15                     ; 0x15 <__rc5>
    26ae: 80 eb        	bra	$269b <bitmapClear+0x172>
    26b0: c0 00        	cpy	#$0
    26b2: d0 eb        	bne	$269f <bitmapClear+0x176>
    26b4: 18           	clc
    26b5: a5 18        	lda	$18                     ; 0x18 <__rc8>
    26b7: 69 05        	adc	#$5
    26b9: 85 0f        	sta	$f                      ; 0xf <__data_size+0xf>
    26bb: a6 64        	ldx	$64                     ; 0x64 <_color>
    26bd: 86 14        	stx	$14                     ; 0x14 <__rc4>
    26bf: a9 00        	lda	#$0
    26c1: 46 14        	lsr	$14                     ; 0x14 <__rc4>
    26c3: 64 14        	stz	$14                     ; 0x14 <__rc4>
    26c5: 66 14        	ror	$14                     ; 0x14 <__rc4>
    26c7: 10 02        	bpl	$26cb <bitmapClear+0x1a2>
    26c9: a9 ff        	lda	#$ff
    26cb: 06 14        	asl	$14                     ; 0x14 <__rc4>
    26cd: 2a           	rol
    26ce: a2 20        	ldx	#$20
    26d0: a0 00        	ldy	#$0
    26d2: 48           	pha
    26d3: 98           	tya
    26d4: 85 14        	sta	$14                     ; 0x14 <__rc4>
    26d6: a9 e0        	lda	#$e0
    26d8: 85 15        	sta	$15                     ; 0x15 <__rc5>
    26da: 68           	pla
    26db: 86 16        	stx	$16                     ; 0x16 <__rc6>
    26dd: 80 04        	bra	$26e3 <bitmapClear+0x1ba>
    26df: a6 16        	ldx	$16                     ; 0x16 <__rc6>
    26e1: f0 11        	beq	$26f4 <bitmapClear+0x1cb>
    26e3: 92 14        	sta	($14)                   ; 0x14 <__rc4>
    26e5: 88           	dey
    26e6: c0 ff        	cpy	#$ff
    26e8: d0 02        	bne	$26ec <bitmapClear+0x1c3>
    26ea: c6 16        	dec	$16                     ; 0x16 <__rc6>
    26ec: e6 14        	inc	$14                     ; 0x14 <__rc4>
    26ee: d0 ef        	bne	$26df <bitmapClear+0x1b6>
    26f0: e6 15        	inc	$15                     ; 0x15 <__rc5>
    26f2: 80 eb        	bra	$26df <bitmapClear+0x1b6>
    26f4: c0 00        	cpy	#$0
    26f6: d0 eb        	bne	$26e3 <bitmapClear+0x1ba>
    26f8: 18           	clc
    26f9: a5 18        	lda	$18                     ; 0x18 <__rc8>
    26fb: 69 06        	adc	#$6
    26fd: 85 0f        	sta	$f                      ; 0xf <__data_size+0xf>
    26ff: a6 64        	ldx	$64                     ; 0x64 <_color>
    2701: 86 14        	stx	$14                     ; 0x14 <__rc4>
    2703: a9 00        	lda	#$0
    2705: 46 14        	lsr	$14                     ; 0x14 <__rc4>
    2707: 64 14        	stz	$14                     ; 0x14 <__rc4>
    2709: 66 14        	ror	$14                     ; 0x14 <__rc4>
    270b: 10 02        	bpl	$270f <bitmapClear+0x1e6>
    270d: a9 ff        	lda	#$ff
    270f: 06 14        	asl	$14                     ; 0x14 <__rc4>
    2711: 2a           	rol
    2712: a2 20        	ldx	#$20
    2714: a0 00        	ldy	#$0
    2716: 48           	pha
    2717: 98           	tya
    2718: 85 14        	sta	$14                     ; 0x14 <__rc4>
    271a: a9 e0        	lda	#$e0
    271c: 85 15        	sta	$15                     ; 0x15 <__rc5>
    271e: 68           	pla
    271f: 86 16        	stx	$16                     ; 0x16 <__rc6>
    2721: 80 04        	bra	$2727 <bitmapClear+0x1fe>
    2723: a6 16        	ldx	$16                     ; 0x16 <__rc6>
    2725: f0 11        	beq	$2738 <bitmapClear+0x20f>
    2727: 92 14        	sta	($14)                   ; 0x14 <__rc4>
    2729: 88           	dey
    272a: c0 ff        	cpy	#$ff
    272c: d0 02        	bne	$2730 <bitmapClear+0x207>
    272e: c6 16        	dec	$16                     ; 0x16 <__rc6>
    2730: e6 14        	inc	$14                     ; 0x14 <__rc4>
    2732: d0 ef        	bne	$2723 <bitmapClear+0x1fa>
    2734: e6 15        	inc	$15                     ; 0x15 <__rc5>
    2736: 80 eb        	bra	$2723 <bitmapClear+0x1fa>
    2738: c0 00        	cpy	#$0
    273a: d0 eb        	bne	$2727 <bitmapClear+0x1fe>
    273c: 18           	clc
    273d: a5 18        	lda	$18                     ; 0x18 <__rc8>
    273f: 69 07        	adc	#$7
    2741: 85 0f        	sta	$f                      ; 0xf <__data_size+0xf>
    2743: a6 64        	ldx	$64                     ; 0x64 <_color>
    2745: 86 14        	stx	$14                     ; 0x14 <__rc4>
    2747: a9 00        	lda	#$0
    2749: 46 14        	lsr	$14                     ; 0x14 <__rc4>
    274b: 64 14        	stz	$14                     ; 0x14 <__rc4>
    274d: 66 14        	ror	$14                     ; 0x14 <__rc4>
    274f: 10 02        	bpl	$2753 <bitmapClear+0x22a>
    2751: a9 ff        	lda	#$ff
    2753: 06 14        	asl	$14                     ; 0x14 <__rc4>
    2755: 2a           	rol
    2756: a2 20        	ldx	#$20
    2758: a0 00        	ldy	#$0
    275a: 48           	pha
    275b: 98           	tya
    275c: 85 14        	sta	$14                     ; 0x14 <__rc4>
    275e: a9 e0        	lda	#$e0
    2760: 85 15        	sta	$15                     ; 0x15 <__rc5>
    2762: 68           	pla
    2763: 86 16        	stx	$16                     ; 0x16 <__rc6>
    2765: 80 04        	bra	$276b <bitmapClear+0x242>
    2767: a6 16        	ldx	$16                     ; 0x16 <__rc6>
    2769: f0 11        	beq	$277c <bitmapClear+0x253>
    276b: 92 14        	sta	($14)                   ; 0x14 <__rc4>
    276d: 88           	dey
    276e: c0 ff        	cpy	#$ff
    2770: d0 02        	bne	$2774 <bitmapClear+0x24b>
    2772: c6 16        	dec	$16                     ; 0x16 <__rc6>
    2774: e6 14        	inc	$14                     ; 0x14 <__rc4>
    2776: d0 ef        	bne	$2767 <bitmapClear+0x23e>
    2778: e6 15        	inc	$15                     ; 0x15 <__rc5>
    277a: 80 eb        	bra	$2767 <bitmapClear+0x23e>
    277c: c0 00        	cpy	#$0
    277e: d0 eb        	bne	$276b <bitmapClear+0x242>
    2780: 18           	clc
    2781: a5 18        	lda	$18                     ; 0x18 <__rc8>
    2783: 69 08        	adc	#$8
    2785: 85 0f        	sta	$f                      ; 0xf <__data_size+0xf>
    2787: a6 64        	ldx	$64                     ; 0x64 <_color>
    2789: 86 14        	stx	$14                     ; 0x14 <__rc4>
    278b: a9 00        	lda	#$0
    278d: 46 14        	lsr	$14                     ; 0x14 <__rc4>
    278f: 64 14        	stz	$14                     ; 0x14 <__rc4>
    2791: 66 14        	ror	$14                     ; 0x14 <__rc4>
    2793: 10 02        	bpl	$2797 <bitmapClear+0x26e>
    2795: a9 ff        	lda	#$ff
    2797: 06 14        	asl	$14                     ; 0x14 <__rc4>
    2799: 2a           	rol
    279a: a2 20        	ldx	#$20
    279c: a0 00        	ldy	#$0
    279e: 48           	pha
    279f: 98           	tya
    27a0: 85 14        	sta	$14                     ; 0x14 <__rc4>
    27a2: a9 e0        	lda	#$e0
    27a4: 85 15        	sta	$15                     ; 0x15 <__rc5>
    27a6: 68           	pla
    27a7: 86 16        	stx	$16                     ; 0x16 <__rc6>
    27a9: 80 04        	bra	$27af <bitmapClear+0x286>
    27ab: a6 16        	ldx	$16                     ; 0x16 <__rc6>
    27ad: f0 11        	beq	$27c0 <bitmapClear+0x297>
    27af: 92 14        	sta	($14)                   ; 0x14 <__rc4>
    27b1: 88           	dey
    27b2: c0 ff        	cpy	#$ff
    27b4: d0 02        	bne	$27b8 <bitmapClear+0x28f>
    27b6: c6 16        	dec	$16                     ; 0x16 <__rc6>
    27b8: e6 14        	inc	$14                     ; 0x14 <__rc4>
    27ba: d0 ef        	bne	$27ab <bitmapClear+0x282>
    27bc: e6 15        	inc	$15                     ; 0x15 <__rc5>
    27be: 80 eb        	bra	$27ab <bitmapClear+0x282>
    27c0: c0 00        	cpy	#$0
    27c2: d0 eb        	bne	$27af <bitmapClear+0x286>
    27c4: 18           	clc
    27c5: a5 18        	lda	$18                     ; 0x18 <__rc8>
    27c7: 69 09        	adc	#$9
    27c9: 85 0f        	sta	$f                      ; 0xf <__data_size+0xf>
    27cb: a6 64        	ldx	$64                     ; 0x64 <_color>
    27cd: 86 14        	stx	$14                     ; 0x14 <__rc4>
    27cf: a9 00        	lda	#$0
    27d1: 46 14        	lsr	$14                     ; 0x14 <__rc4>
    27d3: 64 14        	stz	$14                     ; 0x14 <__rc4>
    27d5: 66 14        	ror	$14                     ; 0x14 <__rc4>
    27d7: 10 02        	bpl	$27db <bitmapClear+0x2b2>
    27d9: a9 ff        	lda	#$ff
    27db: 06 14        	asl	$14                     ; 0x14 <__rc4>
    27dd: 2a           	rol
    27de: a2 14        	ldx	#$14
    27e0: a0 00        	ldy	#$0
    27e2: 86 14        	stx	$14                     ; 0x14 <__rc4>
    27e4: 80 04        	bra	$27ea <bitmapClear+0x2c1>
    27e6: a6 14        	ldx	$14                     ; 0x14 <__rc4>
    27e8: f0 11        	beq	$27fb <bitmapClear+0x2d2>
    27ea: 92 12        	sta	($12)                   ; 0x12 <__rc2>
    27ec: 88           	dey
    27ed: c0 ff        	cpy	#$ff
    27ef: d0 02        	bne	$27f3 <bitmapClear+0x2ca>
    27f1: c6 14        	dec	$14                     ; 0x14 <__rc4>
    27f3: e6 12        	inc	$12                     ; 0x12 <__rc2>
    27f5: d0 ef        	bne	$27e6 <bitmapClear+0x2bd>
    27f7: e6 13        	inc	$13                     ; 0x13 <__rc3>
    27f9: 80 eb        	bra	$27e6 <bitmapClear+0x2bd>
    27fb: c0 00        	cpy	#$0
    27fd: d0 eb        	bne	$27ea <bitmapClear+0x2c1>
    27ff: a6 17        	ldx	$17                     ; 0x17 <__rc7>
    2801: 86 0f        	stx	$f                      ; 0xf <__data_size+0xf>
    2803: 58           	cli
    2804: 60           	rts

00002805 <textPrint>:
    2805: a6 01        	ldx	$1                      ; 0x1 <__data_size+0x1>
    2807: 86 ec        	stx	$ec                     ; 0xec <__pal_size+0x6c>
    2809: a6 62        	ldx	$62                     ; 0x62 <_row>
    280b: a0 50        	ldy	#$50
    280d: 8c 00 de     	sty	$de00                   ; 0xde00 <__heap_start+0x9470>
    2810: 9c 01 de     	stz	$de01                   ; 0xde01 <__heap_start+0x9471>
    2813: 8e 02 de     	stx	$de02                   ; 0xde02 <__heap_start+0x9472>
    2816: 9c 03 de     	stz	$de03                   ; 0xde03 <__heap_start+0x9473>
    2819: ae 10 de     	ldx	$de10                   ; 0xde10 <__heap_start+0x9480>
    281c: ad 11 de     	lda	$de11                   ; 0xde11 <__heap_start+0x9481>
    281f: 85 15        	sta	$15                     ; 0x15 <__rc5>
    2821: ad 12 de     	lda	$de12                   ; 0xde12 <__heap_start+0x9482>
    2824: 85 1c        	sta	$1c                     ; 0x1c <__rc12>
    2826: ad 13 de     	lda	$de13                   ; 0xde13 <__heap_start+0x9483>
    2829: 85 1d        	sta	$1d                     ; 0x1d <__rc13>
    282b: 9c 08 de     	stz	$de08                   ; 0xde08 <__heap_start+0x9478>
    282e: a9 c0        	lda	#$c0
    2830: 8d 09 de     	sta	$de09                   ; 0xde09 <__heap_start+0x9479>
    2833: 9c 0a de     	stz	$de0a                   ; 0xde0a <__heap_start+0x947a>
    2836: 9c 0b de     	stz	$de0b                   ; 0xde0b <__heap_start+0x947b>
    2839: 8e 0c de     	stx	$de0c                   ; 0xde0c <__heap_start+0x947c>
    283c: 64 14        	stz	$14                     ; 0x14 <__rc4>
    283e: a2 00        	ldx	#$0
    2840: 86 16        	stx	$16                     ; 0x16 <__rc6>
    2842: a2 c0        	ldx	#$c0
    2844: 86 17        	stx	$17                     ; 0x17 <__rc7>
    2846: a2 11        	ldx	#$11
    2848: 86 18        	stx	$18                     ; 0x18 <__rc8>
    284a: a2 c9        	ldx	#$c9
    284c: 86 19        	stx	$19                     ; 0x19 <__rc9>
    284e: a2 10        	ldx	#$10
    2850: 86 1a        	stx	$1a                     ; 0x1a <__rc10>
    2852: a2 c9        	ldx	#$c9
    2854: 86 1b        	stx	$1b                     ; 0x1b <__rc11>
    2856: a6 15        	ldx	$15                     ; 0x15 <__rc5>
    2858: 8e 0d de     	stx	$de0d                   ; 0xde0d <__heap_start+0x947d>
    285b: a6 1c        	ldx	$1c                     ; 0x1c <__rc12>
    285d: 8e 0e de     	stx	$de0e                   ; 0xde0e <__heap_start+0x947e>
    2860: a6 1d        	ldx	$1d                     ; 0x1d <__rc13>
    2862: 8e 0f de     	stx	$de0f                   ; 0xde0f <__heap_start+0x947f>
    2865: ae 18 de     	ldx	$de18                   ; 0xde18 <__heap_start+0x9488>
    2868: 86 1c        	stx	$1c                     ; 0x1c <__rc12>
    286a: ad 19 de     	lda	$de19                   ; 0xde19 <__heap_start+0x9489>
    286d: ae 1a de     	ldx	$de1a                   ; 0xde1a <__heap_start+0x948a>
    2870: ae 1b de     	ldx	$de1b                   ; 0xde1b <__heap_start+0x948b>
    2873: 85 1d        	sta	$1d                     ; 0x1d <__rc13>
    2875: 64 15        	stz	$15                     ; 0x15 <__rc5>
    2877: a2 f0        	ldx	#$f0
    2879: 86 ee        	stx	$ee                     ; 0xee <__pal_size+0x6e>
    287b: a2 20        	ldx	#$20
    287d: 86 ef        	stx	$ef                     ; 0xef <__pal_size+0x6f>
    287f: 4c 90 29     	jmp	$2990 <textPrint+0x18b>
    2882: 8a           	txa
    2883: f0 15        	beq	$289a <textPrint+0x95>
    2885: b1 1c        	lda	($1c),y                 ; 0x1c <__rc12>
    2887: 92 1c        	sta	($1c)                   ; 0x1c <__rc12>
    2889: a9 ff        	lda	#$ff
    288b: c6 1e        	dec	$1e                     ; 0x1e <__rc14>
    288d: c5 1e        	cmp	$1e                     ; 0x1e <__rc14>
    288f: d0 01        	bne	$2892 <textPrint+0x8d>
    2891: ca           	dex
    2892: e6 1c        	inc	$1c                     ; 0x1c <__rc12>
    2894: d0 ec        	bne	$2882 <textPrint+0x7d>
    2896: e6 1d        	inc	$1d                     ; 0x1d <__rc13>
    2898: 80 e8        	bra	$2882 <textPrint+0x7d>
    289a: a5 1e        	lda	$1e                     ; 0x1e <__rc14>
    289c: d0 e7        	bne	$2885 <textPrint+0x80>
    289e: a2 02        	ldx	#$2
    28a0: 86 01        	stx	$1                      ; 0x1 <__data_size+0x1>
    28a2: a2 09        	ldx	#$9
    28a4: a9 10        	lda	#$10
    28a6: 5a           	phy
    28a7: a0 00        	ldy	#$0
    28a9: 84 1c        	sty	$1c                     ; 0x1c <__rc12>
    28ab: a0 c0        	ldy	#$c0
    28ad: 84 1d        	sty	$1d                     ; 0x1d <__rc13>
    28af: 7a           	ply
    28b0: 85 1e        	sta	$1e                     ; 0x1e <__rc14>
    28b2: 80 03        	bra	$28b7 <textPrint+0xb2>
    28b4: 8a           	txa
    28b5: f0 15        	beq	$28cc <textPrint+0xc7>
    28b7: b1 1c        	lda	($1c),y                 ; 0x1c <__rc12>
    28b9: 92 1c        	sta	($1c)                   ; 0x1c <__rc12>
    28bb: a9 ff        	lda	#$ff
    28bd: c6 1e        	dec	$1e                     ; 0x1e <__rc14>
    28bf: c5 1e        	cmp	$1e                     ; 0x1e <__rc14>
    28c1: d0 01        	bne	$28c4 <textPrint+0xbf>
    28c3: ca           	dex
    28c4: e6 1c        	inc	$1c                     ; 0x1c <__rc12>
    28c6: d0 ec        	bne	$28b4 <textPrint+0xaf>
    28c8: e6 1d        	inc	$1d                     ; 0x1d <__rc13>
    28ca: 80 e8        	bra	$28b4 <textPrint+0xaf>
    28cc: a5 1e        	lda	$1e                     ; 0x1e <__rc14>
    28ce: d0 e7        	bne	$28b7 <textPrint+0xb2>
    28d0: a2 50        	ldx	#$50
    28d2: 86 ed        	stx	$ed                     ; 0xed <__pal_size+0x6d>
    28d4: a2 02        	ldx	#$2
    28d6: 86 01        	stx	$1                      ; 0x1 <__data_size+0x1>
    28d8: e8           	inx
    28d9: 86 01        	stx	$1                      ; 0x1 <__data_size+0x1>
    28db: a2 50        	ldx	#$50
    28dd: a0 11        	ldy	#$11
    28df: 84 1c        	sty	$1c                     ; 0x1c <__rc12>
    28e1: a0 c9        	ldy	#$c9
    28e3: 84 1d        	sty	$1d                     ; 0x1d <__rc13>
    28e5: a0 10        	ldy	#$10
    28e7: 84 1e        	sty	$1e                     ; 0x1e <__rc14>
    28e9: a0 c9        	ldy	#$c9
    28eb: 84 1f        	sty	$1f                     ; 0x1f <__rc15>
    28ed: a5 ee        	lda	$ee                     ; 0xee <__pal_size+0x6e>
    28ef: a4 1e        	ldy	$1e                     ; 0x1e <__rc14>
    28f1: 84 22        	sty	$22                     ; 0x22 <__rc18>
    28f3: a4 1f        	ldy	$1f                     ; 0x1f <__rc15>
    28f5: 84 23        	sty	$23                     ; 0x23 <__rc19>
    28f7: a4 1c        	ldy	$1c                     ; 0x1c <__rc12>
    28f9: 84 1e        	sty	$1e                     ; 0x1e <__rc14>
    28fb: a4 1d        	ldy	$1d                     ; 0x1d <__rc13>
    28fd: 84 1f        	sty	$1f                     ; 0x1f <__rc15>
    28ff: 92 22        	sta	($22)                   ; 0x22 <__rc18>
    2901: e6 1c        	inc	$1c                     ; 0x1c <__rc12>
    2903: d0 02        	bne	$2907 <textPrint+0x102>
    2905: e6 1d        	inc	$1d                     ; 0x1d <__rc13>
    2907: ca           	dex
    2908: d0 e5        	bne	$28ef <textPrint+0xea>
    290a: a2 f0        	ldx	#$f0
    290c: 86 ee        	stx	$ee                     ; 0xee <__pal_size+0x6e>
    290e: a2 02        	ldx	#$2
    2910: 86 01        	stx	$1                      ; 0x1 <__data_size+0x1>
    2912: a2 50        	ldx	#$50
    2914: a0 11        	ldy	#$11
    2916: 84 1c        	sty	$1c                     ; 0x1c <__rc12>
    2918: a0 c9        	ldy	#$c9
    291a: 84 1d        	sty	$1d                     ; 0x1d <__rc13>
    291c: a0 10        	ldy	#$10
    291e: 84 1e        	sty	$1e                     ; 0x1e <__rc14>
    2920: a0 c9        	ldy	#$c9
    2922: 84 1f        	sty	$1f                     ; 0x1f <__rc15>
    2924: a5 ef        	lda	$ef                     ; 0xef <__pal_size+0x6f>
    2926: a4 1e        	ldy	$1e                     ; 0x1e <__rc14>
    2928: 84 22        	sty	$22                     ; 0x22 <__rc18>
    292a: a4 1f        	ldy	$1f                     ; 0x1f <__rc15>
    292c: 84 23        	sty	$23                     ; 0x23 <__rc19>
    292e: a4 1c        	ldy	$1c                     ; 0x1c <__rc12>
    2930: 84 1e        	sty	$1e                     ; 0x1e <__rc14>
    2932: a4 1d        	ldy	$1d                     ; 0x1d <__rc13>
    2934: 84 1f        	sty	$1f                     ; 0x1f <__rc15>
    2936: 92 22        	sta	($22)                   ; 0x22 <__rc18>
    2938: e6 1c        	inc	$1c                     ; 0x1c <__rc12>
    293a: d0 02        	bne	$293e <textPrint+0x139>
    293c: e6 1d        	inc	$1d                     ; 0x1d <__rc13>
    293e: ca           	dex
    293f: d0 e5        	bne	$2926 <textPrint+0x121>
    2941: a2 20        	ldx	#$20
    2943: 86 ef        	stx	$ef                     ; 0xef <__pal_size+0x6f>
    2945: c6 62        	dec	$62                     ; 0x62 <_row>
    2947: 9c 08 de     	stz	$de08                   ; 0xde08 <__heap_start+0x9478>
    294a: a2 c0        	ldx	#$c0
    294c: 8e 09 de     	stx	$de09                   ; 0xde09 <__heap_start+0x9479>
    294f: 9c 0a de     	stz	$de0a                   ; 0xde0a <__heap_start+0x947a>
    2952: 9c 0b de     	stz	$de0b                   ; 0xde0b <__heap_start+0x947b>
    2955: a2 1d        	ldx	#$1d
    2957: 8e 0c de     	stx	$de0c                   ; 0xde0c <__heap_start+0x947c>
    295a: 9c 0d de     	stz	$de0d                   ; 0xde0d <__heap_start+0x947d>
    295d: 9c 0e de     	stz	$de0e                   ; 0xde0e <__heap_start+0x947e>
    2960: 9c 0f de     	stz	$de0f                   ; 0xde0f <__heap_start+0x947f>
    2963: ae 18 de     	ldx	$de18                   ; 0xde18 <__heap_start+0x9488>
    2966: ac 19 de     	ldy	$de19                   ; 0xde19 <__heap_start+0x9489>
    2969: ad 1a de     	lda	$de1a                   ; 0xde1a <__heap_start+0x948a>
    296c: ad 1b de     	lda	$de1b                   ; 0xde1b <__heap_start+0x948b>
    296f: 86 1c        	stx	$1c                     ; 0x1c <__rc12>
    2971: 84 1d        	sty	$1d                     ; 0x1d <__rc13>
    2973: a4 ed        	ldy	$ed                     ; 0xed <__pal_size+0x6d>
    2975: e6 14        	inc	$14                     ; 0x14 <__rc4>
    2977: d0 02        	bne	$297b <textPrint+0x176>
    2979: e6 15        	inc	$15                     ; 0x15 <__rc5>
    297b: 80 13        	bra	$2990 <textPrint+0x18b>
    297d: a5 1c        	lda	$1c                     ; 0x1c <__rc12>
    297f: 18           	clc
    2980: 69 50        	adc	#$50
    2982: 85 1c        	sta	$1c                     ; 0x1c <__rc12>
    2984: a5 1d        	lda	$1d                     ; 0x1d <__rc13>
    2986: 69 00        	adc	#$0
    2988: 85 1d        	sta	$1d                     ; 0x1d <__rc13>
    298a: e6 14        	inc	$14                     ; 0x14 <__rc4>
    298c: d0 02        	bne	$2990 <textPrint+0x18b>
    298e: e6 15        	inc	$15                     ; 0x15 <__rc5>
    2990: a5 12        	lda	$12                     ; 0x12 <__rc2>
    2992: 18           	clc
    2993: 65 14        	adc	$14                     ; 0x14 <__rc4>
    2995: 85 1e        	sta	$1e                     ; 0x1e <__rc14>
    2997: a5 13        	lda	$13                     ; 0x13 <__rc3>
    2999: 65 15        	adc	$15                     ; 0x15 <__rc5>
    299b: 85 1f        	sta	$1f                     ; 0x1f <__rc15>
    299d: b2 1e        	lda	($1e)                   ; 0x1e <__rc14>
    299f: c9 0a        	cmp	#$a
    29a1: f0 2b        	beq	$29ce <textPrint+0x1c9>
    29a3: c9 0d        	cmp	#$d
    29a5: f0 27        	beq	$29ce <textPrint+0x1c9>
    29a7: aa           	tax
    29a8: f0 49        	beq	$29f3 <textPrint+0x1ee>
    29aa: a2 03        	ldx	#$3
    29ac: 86 01        	stx	$1                      ; 0x1 <__data_size+0x1>
    29ae: 84 22        	sty	$22                     ; 0x22 <__rc18>
    29b0: a4 61        	ldy	$61                     ; 0x61 <_col>
    29b2: a9 f0        	lda	#$f0
    29b4: aa           	tax
    29b5: 86 ee        	stx	$ee                     ; 0xee <__pal_size+0x6e>
    29b7: 91 1c        	sta	($1c),y                 ; 0x1c <__rc12>
    29b9: a2 02        	ldx	#$2
    29bb: 86 01        	stx	$1                      ; 0x1 <__data_size+0x1>
    29bd: b2 1e        	lda	($1e)                   ; 0x1e <__rc14>
    29bf: a4 61        	ldy	$61                     ; 0x61 <_col>
    29c1: 91 1c        	sta	($1c),y                 ; 0x1c <__rc12>
    29c3: a4 22        	ldy	$22                     ; 0x22 <__rc18>
    29c5: a6 61        	ldx	$61                     ; 0x61 <_col>
    29c7: e8           	inx
    29c8: e6 61        	inc	$61                     ; 0x61 <_col>
    29ca: e0 50        	cpx	#$50
    29cc: d0 bc        	bne	$298a <textPrint+0x185>
    29ce: 64 61        	stz	$61                     ; 0x61 <_col>
    29d0: a6 62        	ldx	$62                     ; 0x62 <_row>
    29d2: e8           	inx
    29d3: e6 62        	inc	$62                     ; 0x62 <_row>
    29d5: e0 1e        	cpx	#$1e
    29d7: f0 03        	beq	$29dc <textPrint+0x1d7>
    29d9: 4c 7d 29     	jmp	$297d <textPrint+0x178>
    29dc: a2 03        	ldx	#$3
    29de: 86 01        	stx	$1                      ; 0x1 <__data_size+0x1>
    29e0: a2 09        	ldx	#$9
    29e2: a9 10        	lda	#$10
    29e4: 5a           	phy
    29e5: a0 00        	ldy	#$0
    29e7: 84 1c        	sty	$1c                     ; 0x1c <__rc12>
    29e9: a0 c0        	ldy	#$c0
    29eb: 84 1d        	sty	$1d                     ; 0x1d <__rc13>
    29ed: 7a           	ply
    29ee: 85 1e        	sta	$1e                     ; 0x1e <__rc14>
    29f0: 4c 85 28     	jmp	$2885 <textPrint+0x80>
    29f3: a6 ec        	ldx	$ec                     ; 0xec <__pal_size+0x6c>
    29f5: 86 01        	stx	$1                      ; 0x1 <__data_size+0x1>
    29f7: a6 61        	ldx	$61                     ; 0x61 <_col>
    29f9: a4 62        	ldy	$62                     ; 0x62 <_row>
    29fb: 8e 14 d0     	stx	$d014                   ; 0xd014 <__heap_start+0x8684>
    29fe: 9c 15 d0     	stz	$d015                   ; 0xd015 <__heap_start+0x8685>
    2a01: 84 62        	sty	$62                     ; 0x62 <_row>
    2a03: 8c 16 d0     	sty	$d016                   ; 0xd016 <__heap_start+0x8686>
    2a06: 9c 17 d0     	stz	$d017                   ; 0xd017 <__heap_start+0x8687>
    2a09: 60           	rts

00002a0a <fileRead>:
    2a0a: 85 16        	sta	$16                     ; 0x16 <__rc6>
    2a0c: 86 17        	stx	$17                     ; 0x17 <__rc7>
    2a0e: 64 18        	stz	$18                     ; 0x18 <__rc8>
    2a10: a6 12        	ldx	$12                     ; 0x12 <__rc2>
    2a12: 86 19        	stx	$19                     ; 0x19 <__rc9>
    2a14: a6 13        	ldx	$13                     ; 0x13 <__rc3>
    2a16: 86 1a        	stx	$1a                     ; 0x1a <__rc10>
    2a18: a2 00        	ldx	#$0
    2a1a: 86 1b        	stx	$1b                     ; 0x1b <__rc11>
    2a1c: a2 9d        	ldx	#$9d
    2a1e: 86 9b        	stx	$9b                     ; 0x9b <__pal_size+0x1b>
    2a20: a2 00        	ldx	#$0
    2a22: 86 9c        	stx	$9c                     ; 0x9c <__pal_size+0x1c>
    2a24: a9 9e        	lda	#$9e
    2a26: 85 23        	sta	$23                     ; 0x23 <__rc19>
    2a28: 64 12        	stz	$12                     ; 0x12 <__rc2>
    2a2a: a9 00        	lda	#$0
    2a2c: 85 94        	sta	$94                     ; 0x94 <__pal_size+0x14>
    2a2e: a9 9f        	lda	#$9f
    2a30: 85 95        	sta	$95                     ; 0x95 <__pal_size+0x15>
    2a32: a9 00        	lda	#$0
    2a34: 85 96        	sta	$96                     ; 0x96 <__pal_size+0x16>
    2a36: a9 a0        	lda	#$a0
    2a38: 85 97        	sta	$97                     ; 0x97 <__pal_size+0x17>
    2a3a: a9 00        	lda	#$0
    2a3c: 85 98        	sta	$98                     ; 0x98 <__pal_size+0x18>
    2a3e: a9 a1        	lda	#$a1
    2a40: 85 99        	sta	$99                     ; 0x99 <__pal_size+0x19>
    2a42: a9 00        	lda	#$0
    2a44: 85 9a        	sta	$9a                     ; 0x9a <__pal_size+0x1a>
    2a46: b2 14        	lda	($14)                   ; 0x14 <__rc4>
    2a48: a8           	tay
    2a49: a6 19        	ldx	$19                     ; 0x19 <__rc9>
    2a4b: 86 13        	stx	$13                     ; 0x13 <__rc3>
    2a4d: a5 19        	lda	$19                     ; 0x19 <__rc9>
    2a4f: a6 1b        	ldx	$1b                     ; 0x1b <__rc11>
    2a51: e0 01        	cpx	#$1
    2a53: 65 18        	adc	$18                     ; 0x18 <__rc8>
    2a55: aa           	tax
    2a56: a5 1a        	lda	$1a                     ; 0x1a <__rc10>
    2a58: 85 22        	sta	$22                     ; 0x22 <__rc18>
    2a5a: a5 1a        	lda	$1a                     ; 0x1a <__rc10>
    2a5c: 65 12        	adc	$12                     ; 0x12 <__rc2>
    2a5e: c0 00        	cpy	#$0
    2a60: d0 03        	bne	$2a65 <fileRead+0x5b>
    2a62: 4c f1 2a     	jmp	$2af1 <fileRead+0xe7>
    2a65: 85 1e        	sta	$1e                     ; 0x1e <__rc14>
    2a67: a5 16        	lda	$16                     ; 0x16 <__rc6>
    2a69: 38           	sec
    2a6a: e5 18        	sbc	$18                     ; 0x18 <__rc8>
    2a6c: 84 f3        	sty	$f3                     ; 0xf3 <__pal_size+0x73>
    2a6e: 85 f4        	sta	$f4                     ; 0xf4 <__pal_size+0x74>
    2a70: a5 95        	lda	$95                     ; 0x95 <__pal_size+0x15>
    2a72: 85 1a        	sta	$1a                     ; 0x1a <__rc10>
    2a74: a5 96        	lda	$96                     ; 0x96 <__pal_size+0x16>
    2a76: 85 1b        	sta	$1b                     ; 0x1b <__rc11>
    2a78: a9 78        	lda	#$78
    2a7a: 85 1c        	sta	$1c                     ; 0x1c <__rc12>
    2a7c: a9 00        	lda	#$0
    2a7e: 85 1d        	sta	$1d                     ; 0x1d <__rc13>
    2a80: 20 60 ff     	jsr	$ff60 <__heap_start+0xb5d0>
    2a83: 92 1a        	sta	($1a)                   ; 0x1a <__rc10>
    2a85: a9 00        	lda	#$0
    2a87: 6a           	ror
    2a88: 85 1c        	sta	$1c                     ; 0x1c <__rc12>
    2a8a: a4 78        	ldy	$78                     ; 0x78 <kernelError>
    2a8c: a9 ff        	lda	#$ff
    2a8e: 85 19        	sta	$19                     ; 0x19 <__rc9>
    2a90: 98           	tya
    2a91: f0 03        	beq	$2a96 <fileRead+0x8c>
    2a93: 4c 6f 2b     	jmp	$2b6f <fileRead+0x165>
    2a96: 64 71        	stz	$71                     ; 0x71 <kernelEventData>
    2a98: a5 97        	lda	$97                     ; 0x97 <__pal_size+0x17>
    2a9a: 85 1a        	sta	$1a                     ; 0x1a <__rc10>
    2a9c: a5 98        	lda	$98                     ; 0x98 <__pal_size+0x18>
    2a9e: 85 1b        	sta	$1b                     ; 0x1b <__rc11>
    2aa0: a9 78        	lda	#$78
    2aa2: 85 1c        	sta	$1c                     ; 0x1c <__rc12>
    2aa4: a9 00        	lda	#$0
    2aa6: 85 1d        	sta	$1d                     ; 0x1d <__rc13>
    2aa8: 20 00 ff     	jsr	$ff00 <__heap_start+0xb570>
    2aab: 92 1a        	sta	($1a)                   ; 0x1a <__rc10>
    2aad: a9 00        	lda	#$0
    2aaf: 6a           	ror
    2ab0: 85 1c        	sta	$1c                     ; 0x1c <__rc12>
    2ab2: a5 71        	lda	$71                     ; 0x71 <kernelEventData>
    2ab4: c9 38        	cmp	#$38
    2ab6: d0 03        	bne	$2abb <fileRead+0xb1>
    2ab8: 4c 6f 2b     	jmp	$2b6f <fileRead+0x165>
    2abb: c9 30        	cmp	#$30
    2abd: d0 03        	bne	$2ac2 <fileRead+0xb8>
    2abf: 4c 78 2b     	jmp	$2b78 <fileRead+0x16e>
    2ac2: c9 2c        	cmp	#$2c
    2ac4: d0 d0        	bne	$2a96 <fileRead+0x8c>
    2ac6: 86 fb        	stx	$fb                     ; 0xfb <__pal_size+0x7b>
    2ac8: a4 1e        	ldy	$1e                     ; 0x1e <__rc14>
    2aca: 84 fc        	sty	$fc                     ; 0xfc <__pal_size+0x7c>
    2acc: a5 77        	lda	$77                     ; 0x77 <kernelEventData+0x6>
    2ace: 85 fd        	sta	$fd                     ; 0xfd <__pal_size+0x7d>
    2ad0: a5 99        	lda	$99                     ; 0x99 <__pal_size+0x19>
    2ad2: 85 1a        	sta	$1a                     ; 0x1a <__rc10>
    2ad4: a5 9a        	lda	$9a                     ; 0x9a <__pal_size+0x1a>
    2ad6: 85 1b        	sta	$1b                     ; 0x1b <__rc11>
    2ad8: a9 78        	lda	#$78
    2ada: 85 1c        	sta	$1c                     ; 0x1c <__rc12>
    2adc: a9 00        	lda	#$0
    2ade: 85 1d        	sta	$1d                     ; 0x1d <__rc13>
    2ae0: 20 04 ff     	jsr	$ff04 <__heap_start+0xb574>
    2ae3: 92 1a        	sta	($1a)                   ; 0x1a <__rc10>
    2ae5: a9 00        	lda	#$0
    2ae7: 6a           	ror
    2ae8: 85 1c        	sta	$1c                     ; 0x1c <__rc12>
    2aea: a5 77        	lda	$77                     ; 0x77 <kernelEventData+0x6>
    2aec: d0 4b        	bne	$2b39 <fileRead+0x12f>
    2aee: 4c 7d 2b     	jmp	$2b7d <fileRead+0x173>
    2af1: 86 1a        	stx	$1a                     ; 0x1a <__rc10>
    2af3: 85 1b        	sta	$1b                     ; 0x1b <__rc11>
    2af5: 80 12        	bra	$2b09 <fileRead+0xff>
    2af7: a6 23        	ldx	$23                     ; 0x23 <__rc19>
    2af9: 86 1e        	stx	$1e                     ; 0x1e <__rc14>
    2afb: a5 94        	lda	$94                     ; 0x94 <__pal_size+0x14>
    2afd: 85 1f        	sta	$1f                     ; 0x1f <__rc15>
    2aff: 20 0c ff     	jsr	$ff0c <__heap_start+0xb57c>
    2b02: 92 1e        	sta	($1e)                   ; 0x1e <__rc14>
    2b04: a9 00        	lda	#$0
    2b06: 6a           	ror
    2b07: 85 1c        	sta	$1c                     ; 0x1c <__rc12>
    2b09: 64 71        	stz	$71                     ; 0x71 <kernelEventData>
    2b0b: a6 9b        	ldx	$9b                     ; 0x9b <__pal_size+0x1b>
    2b0d: 86 1e        	stx	$1e                     ; 0x1e <__rc14>
    2b0f: a6 9c        	ldx	$9c                     ; 0x9c <__pal_size+0x1c>
    2b11: 86 1f        	stx	$1f                     ; 0x1f <__rc15>
    2b13: a9 78        	lda	#$78
    2b15: 85 1c        	sta	$1c                     ; 0x1c <__rc12>
    2b17: a9 00        	lda	#$0
    2b19: 85 1d        	sta	$1d                     ; 0x1d <__rc13>
    2b1b: 20 00 ff     	jsr	$ff00 <__heap_start+0xb570>
    2b1e: 92 1e        	sta	($1e)                   ; 0x1e <__rc14>
    2b20: a9 00        	lda	#$0
    2b22: 6a           	ror
    2b23: 85 1c        	sta	$1c                     ; 0x1c <__rc12>
    2b25: a5 78        	lda	$78                     ; 0x78 <kernelError>
    2b27: d0 ce        	bne	$2af7 <fileRead+0xed>
    2b29: a5 71        	lda	$71                     ; 0x71 <kernelEventData>
    2b2b: c9 08        	cmp	#$8
    2b2d: d0 da        	bne	$2b09 <fileRead+0xff>
    2b2f: a5 77        	lda	$77                     ; 0x77 <kernelEventData+0x6>
    2b31: d0 d6        	bne	$2b09 <fileRead+0xff>
    2b33: a5 76        	lda	$76                     ; 0x76 <kernelEventData+0x5>
    2b35: 92 1a        	sta	($1a)                   ; 0x1a <__rc10>
    2b37: a9 01        	lda	#$1
    2b39: a0 00        	ldy	#$0
    2b3b: 18           	clc
    2b3c: b8           	clv
    2b3d: a2 01        	ldx	#$1
    2b3f: 70 02        	bvs	$2b43 <fileRead+0x139>
    2b41: a2 00        	ldx	#$0
    2b43: 86 1b        	stx	$1b                     ; 0x1b <__rc11>
    2b45: 65 18        	adc	$18                     ; 0x18 <__rc8>
    2b47: 85 1c        	sta	$1c                     ; 0x1c <__rc12>
    2b49: 98           	tya
    2b4a: 65 12        	adc	$12                     ; 0x12 <__rc2>
    2b4c: aa           	tax
    2b4d: c5 17        	cmp	$17                     ; 0x17 <__rc7>
    2b4f: d0 06        	bne	$2b57 <fileRead+0x14d>
    2b51: a4 1c        	ldy	$1c                     ; 0x1c <__rc12>
    2b53: c4 16        	cpy	$16                     ; 0x16 <__rc6>
    2b55: 80 04        	bra	$2b5b <fileRead+0x151>
    2b57: e4 17        	cpx	$17                     ; 0x17 <__rc7>
    2b59: a4 1c        	ldy	$1c                     ; 0x1c <__rc12>
    2b5b: 84 18        	sty	$18                     ; 0x18 <__rc8>
    2b5d: 85 12        	sta	$12                     ; 0x12 <__rc2>
    2b5f: a4 13        	ldy	$13                     ; 0x13 <__rc3>
    2b61: 84 19        	sty	$19                     ; 0x19 <__rc9>
    2b63: a4 22        	ldy	$22                     ; 0x22 <__rc18>
    2b65: 84 1a        	sty	$1a                     ; 0x1a <__rc10>
    2b67: b0 03        	bcs	$2b6c <fileRead+0x162>
    2b69: 4c 46 2a     	jmp	$2a46 <fileRead+0x3c>
    2b6c: a5 1c        	lda	$1c                     ; 0x1c <__rc12>
    2b6e: 60           	rts
    2b6f: a2 ff        	ldx	#$ff
    2b71: a4 19        	ldy	$19                     ; 0x19 <__rc9>
    2b73: 84 1c        	sty	$1c                     ; 0x1c <__rc12>
    2b75: a5 1c        	lda	$1c                     ; 0x1c <__rc12>
    2b77: 60           	rts
    2b78: a6 12        	ldx	$12                     ; 0x12 <__rc2>
    2b7a: a5 18        	lda	$18                     ; 0x18 <__rc8>
    2b7c: 60           	rts
    2b7d: a9 00        	lda	#$0
    2b7f: a0 01        	ldy	#$1
    2b81: 80 b8        	bra	$2b3b <fileRead+0x131>

00002b83 <opl3_shadow>:
    2b83: 86 16        	stx	$16                     ; 0x16 <__rc6>
    2b85: a4 12        	ldy	$12                     ; 0x12 <__rc2>
    2b87: a2 00        	ldx	#$0
    2b89: 64 12        	stz	$12                     ; 0x12 <__rc2>
    2b8b: c0 00        	cpy	#$0
    2b8d: f0 04        	beq	$2b93 <opl3_shadow+0x10>
    2b8f: a0 09        	ldy	#$9
    2b91: 84 12        	sty	$12                     ; 0x12 <__rc2>
    2b93: 18           	clc
    2b94: 85 13        	sta	$13                     ; 0x13 <__rc3>
    2b96: 69 80        	adc	#$80
    2b98: c9 f6        	cmp	#$f6
    2b9a: 90 03        	bcc	$2b9f <opl3_shadow+0x1c>
    2b9c: 4c 8d 2c     	jmp	$2c8d <opl3_shadow+0x10a>
    2b9f: a8           	tay
    2ba0: b9 cb 45     	lda	$45cb,y                 ; 0x45cb <__BLOCK_SIZE+0x25cb>
    2ba3: 48           	pha
    2ba4: b9 c1 46     	lda	$46c1,y                 ; 0x46c1 <__BLOCK_SIZE+0x26c1>
    2ba7: a8           	tay
    2ba8: 68           	pla
    2ba9: 85 14        	sta	$14                     ; 0x14 <__rc4>
    2bab: 84 15        	sty	$15                     ; 0x15 <__rc5>
    2bad: 6c 14 00     	jmp	($14)                   ; 0x14 <__rc4>
    2bb0: a5 13        	lda	$13                     ; 0x13 <__rc3>
    2bb2: 85 14        	sta	$14                     ; 0x14 <__rc4>
    2bb4: 49 80        	eor	#$80
    2bb6: c9 10        	cmp	#$10
    2bb8: b0 03        	bcs	$2bbd <opl3_shadow+0x3a>
    2bba: 4c f7 2d     	jmp	$2df7 <opl3_shadow+0x274>
    2bbd: 18           	clc
    2bbe: a5 14        	lda	$14                     ; 0x14 <__rc4>
    2bc0: 69 76        	adc	#$76
    2bc2: 4c 01 2e     	jmp	$2e01 <opl3_shadow+0x27e>
    2bc5: a5 13        	lda	$13                     ; 0x13 <__rc3>
    2bc7: 85 14        	sta	$14                     ; 0x14 <__rc4>
    2bc9: 18           	clc
    2bca: 69 dd        	adc	#$dd
    2bcc: c9 10        	cmp	#$10
    2bce: b0 03        	bcs	$2bd3 <opl3_shadow+0x50>
    2bd0: 4c 48 2d     	jmp	$2d48 <opl3_shadow+0x1c5>
    2bd3: a5 14        	lda	$14                     ; 0x14 <__rc4>
    2bd5: 18           	clc
    2bd6: 69 d3        	adc	#$d3
    2bd8: 4c 52 2d     	jmp	$2d52 <opl3_shadow+0x1cf>
    2bdb: a5 13        	lda	$13                     ; 0x13 <__rc3>
    2bdd: 85 14        	sta	$14                     ; 0x14 <__rc4>
    2bdf: 18           	clc
    2be0: 69 c0        	adc	#$c0
    2be2: c9 10        	cmp	#$10
    2be4: b0 03        	bcs	$2be9 <opl3_shadow+0x66>
    2be6: 4c 83 2d     	jmp	$2d83 <opl3_shadow+0x200>
    2be9: a5 14        	lda	$14                     ; 0x14 <__rc4>
    2beb: 18           	clc
    2bec: 69 b6        	adc	#$b6
    2bee: 4c 8d 2d     	jmp	$2d8d <opl3_shadow+0x20a>
    2bf1: a5 13        	lda	$13                     ; 0x13 <__rc3>
    2bf3: 18           	clc
    2bf4: 65 12        	adc	$12                     ; 0x12 <__rc2>
    2bf6: 18           	clc
    2bf7: 69 60        	adc	#$60
    2bf9: 85 12        	sta	$12                     ; 0x12 <__rc2>
    2bfb: 64 13        	stz	$13                     ; 0x13 <__rc3>
    2bfd: 0a           	asl
    2bfe: 26 13        	rol	$13                     ; 0x13 <__rc3>
    2c00: 0a           	asl
    2c01: 26 13        	rol	$13                     ; 0x13 <__rc3>
    2c03: 0a           	asl
    2c04: 26 13        	rol	$13                     ; 0x13 <__rc3>
    2c06: 0a           	asl
    2c07: 26 13        	rol	$13                     ; 0x13 <__rc3>
    2c09: 38           	sec
    2c0a: e5 12        	sbc	$12                     ; 0x12 <__rc2>
    2c0c: 85 12        	sta	$12                     ; 0x12 <__rc2>
    2c0e: a5 13        	lda	$13                     ; 0x13 <__rc3>
    2c10: e9 00        	sbc	#$0
    2c12: 85 13        	sta	$13                     ; 0x13 <__rc3>
    2c14: a9 7c        	lda	#$7c
    2c16: 18           	clc
    2c17: 65 12        	adc	$12                     ; 0x12 <__rc2>
    2c19: 85 12        	sta	$12                     ; 0x12 <__rc2>
    2c1b: a9 48        	lda	#$48
    2c1d: 65 13        	adc	$13                     ; 0x13 <__rc3>
    2c1f: 85 13        	sta	$13                     ; 0x13 <__rc3>
    2c21: a0 0b        	ldy	#$b
    2c23: 4c 89 2f     	jmp	$2f89 <opl3_shadow+0x406>
    2c26: a5 13        	lda	$13                     ; 0x13 <__rc3>
    2c28: 85 14        	sta	$14                     ; 0x14 <__rc4>
    2c2a: 18           	clc
    2c2b: 69 7d        	adc	#$7d
    2c2d: c9 10        	cmp	#$10
    2c2f: b0 03        	bcs	$2c34 <opl3_shadow+0xb1>
    2c31: 4c bd 2d     	jmp	$2dbd <opl3_shadow+0x23a>
    2c34: a5 14        	lda	$14                     ; 0x14 <__rc4>
    2c36: 18           	clc
    2c37: 69 73        	adc	#$73
    2c39: 4c c7 2d     	jmp	$2dc7 <opl3_shadow+0x244>
    2c3c: a5 13        	lda	$13                     ; 0x13 <__rc3>
    2c3e: 18           	clc
    2c3f: 65 12        	adc	$12                     ; 0x12 <__rc2>
    2c41: 18           	clc
    2c42: 69 50        	adc	#$50
    2c44: 85 12        	sta	$12                     ; 0x12 <__rc2>
    2c46: 64 15        	stz	$15                     ; 0x15 <__rc5>
    2c48: 0a           	asl
    2c49: 64 13        	stz	$13                     ; 0x13 <__rc3>
    2c4b: 26 13        	rol	$13                     ; 0x13 <__rc3>
    2c4d: 0a           	asl
    2c4e: 26 13        	rol	$13                     ; 0x13 <__rc3>
    2c50: 0a           	asl
    2c51: 26 13        	rol	$13                     ; 0x13 <__rc3>
    2c53: 0a           	asl
    2c54: 26 13        	rol	$13                     ; 0x13 <__rc3>
    2c56: 38           	sec
    2c57: e5 12        	sbc	$12                     ; 0x12 <__rc2>
    2c59: 85 12        	sta	$12                     ; 0x12 <__rc2>
    2c5b: a5 13        	lda	$13                     ; 0x13 <__rc3>
    2c5d: e9 00        	sbc	#$0
    2c5f: 85 13        	sta	$13                     ; 0x13 <__rc3>
    2c61: a9 7c        	lda	#$7c
    2c63: 18           	clc
    2c64: 65 12        	adc	$12                     ; 0x12 <__rc2>
    2c66: 85 12        	sta	$12                     ; 0x12 <__rc2>
    2c68: a9 48        	lda	#$48
    2c6a: 65 13        	adc	$13                     ; 0x13 <__rc3>
    2c6c: 85 13        	sta	$13                     ; 0x13 <__rc3>
    2c6e: a0 0d        	ldy	#$d
    2c70: a9 20        	lda	#$20
    2c72: 31 12        	and	($12),y                 ; 0x12 <__rc2>
    2c74: aa           	tax
    2c75: a5 16        	lda	$16                     ; 0x16 <__rc6>
    2c77: 29 20        	and	#$20
    2c79: 85 14        	sta	$14                     ; 0x14 <__rc4>
    2c7b: e4 14        	cpx	$14                     ; 0x14 <__rc4>
    2c7d: f0 04        	beq	$2c83 <opl3_shadow+0x100>
    2c7f: a2 01        	ldx	#$1
    2c81: 86 15        	stx	$15                     ; 0x15 <__rc5>
    2c83: 91 12        	sta	($12),y                 ; 0x12 <__rc2>
    2c85: a0 0c        	ldy	#$c
    2c87: a5 16        	lda	$16                     ; 0x16 <__rc6>
    2c89: 91 12        	sta	($12),y                 ; 0x12 <__rc2>
    2c8b: a6 15        	ldx	$15                     ; 0x15 <__rc5>
    2c8d: 8a           	txa
    2c8e: 60           	rts
    2c8f: a5 13        	lda	$13                     ; 0x13 <__rc3>
    2c91: 85 14        	sta	$14                     ; 0x14 <__rc4>
    2c93: 18           	clc
    2c94: 69 e0        	adc	#$e0
    2c96: c9 10        	cmp	#$10
    2c98: b0 03        	bcs	$2c9d <opl3_shadow+0x11a>
    2c9a: 4c 31 2e     	jmp	$2e31 <opl3_shadow+0x2ae>
    2c9d: a5 14        	lda	$14                     ; 0x14 <__rc4>
    2c9f: 18           	clc
    2ca0: 69 d6        	adc	#$d6
    2ca2: 4c 3b 2e     	jmp	$2e3b <opl3_shadow+0x2b8>
    2ca5: a5 13        	lda	$13                     ; 0x13 <__rc3>
    2ca7: 85 14        	sta	$14                     ; 0x14 <__rc4>
    2ca9: 18           	clc
    2caa: 69 bd        	adc	#$bd
    2cac: c9 10        	cmp	#$10
    2cae: b0 03        	bcs	$2cb3 <opl3_shadow+0x130>
    2cb0: 4c 6b 2e     	jmp	$2e6b <opl3_shadow+0x2e8>
    2cb3: a5 14        	lda	$14                     ; 0x14 <__rc4>
    2cb5: 18           	clc
    2cb6: 69 b3        	adc	#$b3
    2cb8: 4c 75 2e     	jmp	$2e75 <opl3_shadow+0x2f2>
    2cbb: a5 13        	lda	$13                     ; 0x13 <__rc3>
    2cbd: 85 14        	sta	$14                     ; 0x14 <__rc4>
    2cbf: 18           	clc
    2cc0: 69 1d        	adc	#$1d
    2cc2: c9 10        	cmp	#$10
    2cc4: b0 03        	bcs	$2cc9 <opl3_shadow+0x146>
    2cc6: 4c a5 2e     	jmp	$2ea5 <opl3_shadow+0x322>
    2cc9: a5 14        	lda	$14                     ; 0x14 <__rc4>
    2ccb: 18           	clc
    2ccc: 69 13        	adc	#$13
    2cce: 4c af 2e     	jmp	$2eaf <opl3_shadow+0x32c>
    2cd1: a5 13        	lda	$13                     ; 0x13 <__rc3>
    2cd3: 85 14        	sta	$14                     ; 0x14 <__rc4>
    2cd5: 18           	clc
    2cd6: 69 20        	adc	#$20
    2cd8: c9 10        	cmp	#$10
    2cda: b0 03        	bcs	$2cdf <opl3_shadow+0x15c>
    2cdc: 4c df 2e     	jmp	$2edf <opl3_shadow+0x35c>
    2cdf: a5 14        	lda	$14                     ; 0x14 <__rc4>
    2ce1: 18           	clc
    2ce2: 69 16        	adc	#$16
    2ce4: 4c e9 2e     	jmp	$2ee9 <opl3_shadow+0x366>
    2ce7: a5 13        	lda	$13                     ; 0x13 <__rc3>
    2ce9: 18           	clc
    2cea: 65 12        	adc	$12                     ; 0x12 <__rc2>
    2cec: 18           	clc
    2ced: 69 40        	adc	#$40
    2cef: 85 12        	sta	$12                     ; 0x12 <__rc2>
    2cf1: 64 13        	stz	$13                     ; 0x13 <__rc3>
    2cf3: 0a           	asl
    2cf4: 26 13        	rol	$13                     ; 0x13 <__rc3>
    2cf6: 0a           	asl
    2cf7: 26 13        	rol	$13                     ; 0x13 <__rc3>
    2cf9: 0a           	asl
    2cfa: 26 13        	rol	$13                     ; 0x13 <__rc3>
    2cfc: 0a           	asl
    2cfd: 26 13        	rol	$13                     ; 0x13 <__rc3>
    2cff: 38           	sec
    2d00: e5 12        	sbc	$12                     ; 0x12 <__rc2>
    2d02: 85 12        	sta	$12                     ; 0x12 <__rc2>
    2d04: a5 13        	lda	$13                     ; 0x13 <__rc3>
    2d06: e9 00        	sbc	#$0
    2d08: 85 13        	sta	$13                     ; 0x13 <__rc3>
    2d0a: a9 7c        	lda	#$7c
    2d0c: 18           	clc
    2d0d: 65 12        	adc	$12                     ; 0x12 <__rc2>
    2d0f: 85 12        	sta	$12                     ; 0x12 <__rc2>
    2d11: a9 48        	lda	#$48
    2d13: 65 13        	adc	$13                     ; 0x13 <__rc3>
    2d15: 85 13        	sta	$13                     ; 0x13 <__rc3>
    2d17: a0 0a        	ldy	#$a
    2d19: 4c 89 2f     	jmp	$2f89 <opl3_shadow+0x406>
    2d1c: a5 13        	lda	$13                     ; 0x13 <__rc3>
    2d1e: 85 14        	sta	$14                     ; 0x14 <__rc4>
    2d20: 18           	clc
    2d21: 69 a0        	adc	#$a0
    2d23: c9 10        	cmp	#$10
    2d25: b0 03        	bcs	$2d2a <opl3_shadow+0x1a7>
    2d27: 4c 19 2f     	jmp	$2f19 <opl3_shadow+0x396>
    2d2a: a5 14        	lda	$14                     ; 0x14 <__rc4>
    2d2c: 18           	clc
    2d2d: 69 96        	adc	#$96
    2d2f: 4c 23 2f     	jmp	$2f23 <opl3_shadow+0x3a0>
    2d32: a5 13        	lda	$13                     ; 0x13 <__rc3>
    2d34: 85 14        	sta	$14                     ; 0x14 <__rc4>
    2d36: 18           	clc
    2d37: 69 9d        	adc	#$9d
    2d39: c9 10        	cmp	#$10
    2d3b: b0 03        	bcs	$2d40 <opl3_shadow+0x1bd>
    2d3d: 4c 52 2f     	jmp	$2f52 <opl3_shadow+0x3cf>
    2d40: a5 14        	lda	$14                     ; 0x14 <__rc4>
    2d42: 18           	clc
    2d43: 69 93        	adc	#$93
    2d45: 4c 5c 2f     	jmp	$2f5c <opl3_shadow+0x3d9>
    2d48: a8           	tay
    2d49: c0 08        	cpy	#$8
    2d4b: 90 05        	bcc	$2d52 <opl3_shadow+0x1cf>
    2d4d: 18           	clc
    2d4e: a5 14        	lda	$14                     ; 0x14 <__rc4>
    2d50: 69 d8        	adc	#$d8
    2d52: 18           	clc
    2d53: 65 12        	adc	$12                     ; 0x12 <__rc2>
    2d55: 85 12        	sta	$12                     ; 0x12 <__rc2>
    2d57: 64 13        	stz	$13                     ; 0x13 <__rc3>
    2d59: 0a           	asl
    2d5a: 26 13        	rol	$13                     ; 0x13 <__rc3>
    2d5c: 0a           	asl
    2d5d: 26 13        	rol	$13                     ; 0x13 <__rc3>
    2d5f: 0a           	asl
    2d60: 26 13        	rol	$13                     ; 0x13 <__rc3>
    2d62: 0a           	asl
    2d63: 26 13        	rol	$13                     ; 0x13 <__rc3>
    2d65: 38           	sec
    2d66: e5 12        	sbc	$12                     ; 0x12 <__rc2>
    2d68: 85 12        	sta	$12                     ; 0x12 <__rc2>
    2d6a: a5 13        	lda	$13                     ; 0x13 <__rc3>
    2d6c: e9 00        	sbc	#$0
    2d6e: 85 13        	sta	$13                     ; 0x13 <__rc3>
    2d70: a9 7c        	lda	#$7c
    2d72: 18           	clc
    2d73: 65 12        	adc	$12                     ; 0x12 <__rc2>
    2d75: 85 12        	sta	$12                     ; 0x12 <__rc2>
    2d77: a9 48        	lda	#$48
    2d79: 65 13        	adc	$13                     ; 0x13 <__rc3>
    2d7b: 85 13        	sta	$13                     ; 0x13 <__rc3>
    2d7d: a5 16        	lda	$16                     ; 0x16 <__rc6>
    2d7f: 92 12        	sta	($12)                   ; 0x12 <__rc2>
    2d81: 8a           	txa
    2d82: 60           	rts
    2d83: a8           	tay
    2d84: c0 08        	cpy	#$8
    2d86: 90 05        	bcc	$2d8d <opl3_shadow+0x20a>
    2d88: 18           	clc
    2d89: a5 14        	lda	$14                     ; 0x14 <__rc4>
    2d8b: 69 bb        	adc	#$bb
    2d8d: 18           	clc
    2d8e: 65 12        	adc	$12                     ; 0x12 <__rc2>
    2d90: 85 12        	sta	$12                     ; 0x12 <__rc2>
    2d92: 64 13        	stz	$13                     ; 0x13 <__rc3>
    2d94: 0a           	asl
    2d95: 26 13        	rol	$13                     ; 0x13 <__rc3>
    2d97: 0a           	asl
    2d98: 26 13        	rol	$13                     ; 0x13 <__rc3>
    2d9a: 0a           	asl
    2d9b: 26 13        	rol	$13                     ; 0x13 <__rc3>
    2d9d: 0a           	asl
    2d9e: 26 13        	rol	$13                     ; 0x13 <__rc3>
    2da0: 38           	sec
    2da1: e5 12        	sbc	$12                     ; 0x12 <__rc2>
    2da3: 85 12        	sta	$12                     ; 0x12 <__rc2>
    2da5: a5 13        	lda	$13                     ; 0x13 <__rc3>
    2da7: e9 00        	sbc	#$0
    2da9: 85 13        	sta	$13                     ; 0x13 <__rc3>
    2dab: a9 7c        	lda	#$7c
    2dad: 18           	clc
    2dae: 65 12        	adc	$12                     ; 0x12 <__rc2>
    2db0: 85 12        	sta	$12                     ; 0x12 <__rc2>
    2db2: a9 48        	lda	#$48
    2db4: 65 13        	adc	$13                     ; 0x13 <__rc3>
    2db6: 85 13        	sta	$13                     ; 0x13 <__rc3>
    2db8: a0 03        	ldy	#$3
    2dba: 4c 89 2f     	jmp	$2f89 <opl3_shadow+0x406>
    2dbd: a8           	tay
    2dbe: c0 08        	cpy	#$8
    2dc0: 90 05        	bcc	$2dc7 <opl3_shadow+0x244>
    2dc2: 18           	clc
    2dc3: a5 14        	lda	$14                     ; 0x14 <__rc4>
    2dc5: 69 78        	adc	#$78
    2dc7: 18           	clc
    2dc8: 65 12        	adc	$12                     ; 0x12 <__rc2>
    2dca: 85 12        	sta	$12                     ; 0x12 <__rc2>
    2dcc: 64 13        	stz	$13                     ; 0x13 <__rc3>
    2dce: 0a           	asl
    2dcf: 26 13        	rol	$13                     ; 0x13 <__rc3>
    2dd1: 0a           	asl
    2dd2: 26 13        	rol	$13                     ; 0x13 <__rc3>
    2dd4: 0a           	asl
    2dd5: 26 13        	rol	$13                     ; 0x13 <__rc3>
    2dd7: 0a           	asl
    2dd8: 26 13        	rol	$13                     ; 0x13 <__rc3>
    2dda: 38           	sec
    2ddb: e5 12        	sbc	$12                     ; 0x12 <__rc2>
    2ddd: 85 12        	sta	$12                     ; 0x12 <__rc2>
    2ddf: a5 13        	lda	$13                     ; 0x13 <__rc3>
    2de1: e9 00        	sbc	#$0
    2de3: 85 13        	sta	$13                     ; 0x13 <__rc3>
    2de5: a9 7c        	lda	#$7c
    2de7: 18           	clc
    2de8: 65 12        	adc	$12                     ; 0x12 <__rc2>
    2dea: 85 12        	sta	$12                     ; 0x12 <__rc2>
    2dec: a9 48        	lda	#$48
    2dee: 65 13        	adc	$13                     ; 0x13 <__rc3>
    2df0: 85 13        	sta	$13                     ; 0x13 <__rc3>
    2df2: a0 06        	ldy	#$6
    2df4: 4c 89 2f     	jmp	$2f89 <opl3_shadow+0x406>
    2df7: a8           	tay
    2df8: c0 08        	cpy	#$8
    2dfa: 90 05        	bcc	$2e01 <opl3_shadow+0x27e>
    2dfc: 18           	clc
    2dfd: a5 14        	lda	$14                     ; 0x14 <__rc4>
    2dff: 69 7b        	adc	#$7b
    2e01: 18           	clc
    2e02: 65 12        	adc	$12                     ; 0x12 <__rc2>
    2e04: 85 12        	sta	$12                     ; 0x12 <__rc2>
    2e06: 64 13        	stz	$13                     ; 0x13 <__rc3>
    2e08: 0a           	asl
    2e09: 26 13        	rol	$13                     ; 0x13 <__rc3>
    2e0b: 0a           	asl
    2e0c: 26 13        	rol	$13                     ; 0x13 <__rc3>
    2e0e: 0a           	asl
    2e0f: 26 13        	rol	$13                     ; 0x13 <__rc3>
    2e11: 0a           	asl
    2e12: 26 13        	rol	$13                     ; 0x13 <__rc3>
    2e14: 38           	sec
    2e15: e5 12        	sbc	$12                     ; 0x12 <__rc2>
    2e17: 85 12        	sta	$12                     ; 0x12 <__rc2>
    2e19: a5 13        	lda	$13                     ; 0x13 <__rc3>
    2e1b: e9 00        	sbc	#$0
    2e1d: 85 13        	sta	$13                     ; 0x13 <__rc3>
    2e1f: a9 7c        	lda	#$7c
    2e21: 18           	clc
    2e22: 65 12        	adc	$12                     ; 0x12 <__rc2>
    2e24: 85 12        	sta	$12                     ; 0x12 <__rc2>
    2e26: a9 48        	lda	#$48
    2e28: 65 13        	adc	$13                     ; 0x13 <__rc3>
    2e2a: 85 13        	sta	$13                     ; 0x13 <__rc3>
    2e2c: a0 07        	ldy	#$7
    2e2e: 4c 89 2f     	jmp	$2f89 <opl3_shadow+0x406>
    2e31: a8           	tay
    2e32: c0 08        	cpy	#$8
    2e34: 90 05        	bcc	$2e3b <opl3_shadow+0x2b8>
    2e36: 18           	clc
    2e37: a5 14        	lda	$14                     ; 0x14 <__rc4>
    2e39: 69 db        	adc	#$db
    2e3b: 18           	clc
    2e3c: 65 12        	adc	$12                     ; 0x12 <__rc2>
    2e3e: 85 12        	sta	$12                     ; 0x12 <__rc2>
    2e40: 64 13        	stz	$13                     ; 0x13 <__rc3>
    2e42: 0a           	asl
    2e43: 26 13        	rol	$13                     ; 0x13 <__rc3>
    2e45: 0a           	asl
    2e46: 26 13        	rol	$13                     ; 0x13 <__rc3>
    2e48: 0a           	asl
    2e49: 26 13        	rol	$13                     ; 0x13 <__rc3>
    2e4b: 0a           	asl
    2e4c: 26 13        	rol	$13                     ; 0x13 <__rc3>
    2e4e: 38           	sec
    2e4f: e5 12        	sbc	$12                     ; 0x12 <__rc2>
    2e51: 85 12        	sta	$12                     ; 0x12 <__rc2>
    2e53: a5 13        	lda	$13                     ; 0x13 <__rc3>
    2e55: e9 00        	sbc	#$0
    2e57: 85 13        	sta	$13                     ; 0x13 <__rc3>
    2e59: a9 7c        	lda	#$7c
    2e5b: 18           	clc
    2e5c: 65 12        	adc	$12                     ; 0x12 <__rc2>
    2e5e: 85 12        	sta	$12                     ; 0x12 <__rc2>
    2e60: a9 48        	lda	#$48
    2e62: 65 13        	adc	$13                     ; 0x13 <__rc3>
    2e64: 85 13        	sta	$13                     ; 0x13 <__rc3>
    2e66: a0 01        	ldy	#$1
    2e68: 4c 89 2f     	jmp	$2f89 <opl3_shadow+0x406>
    2e6b: a8           	tay
    2e6c: c0 08        	cpy	#$8
    2e6e: 90 05        	bcc	$2e75 <opl3_shadow+0x2f2>
    2e70: 18           	clc
    2e71: a5 14        	lda	$14                     ; 0x14 <__rc4>
    2e73: 69 b8        	adc	#$b8
    2e75: 18           	clc
    2e76: 65 12        	adc	$12                     ; 0x12 <__rc2>
    2e78: 85 12        	sta	$12                     ; 0x12 <__rc2>
    2e7a: 64 13        	stz	$13                     ; 0x13 <__rc3>
    2e7c: 0a           	asl
    2e7d: 26 13        	rol	$13                     ; 0x13 <__rc3>
    2e7f: 0a           	asl
    2e80: 26 13        	rol	$13                     ; 0x13 <__rc3>
    2e82: 0a           	asl
    2e83: 26 13        	rol	$13                     ; 0x13 <__rc3>
    2e85: 0a           	asl
    2e86: 26 13        	rol	$13                     ; 0x13 <__rc3>
    2e88: 38           	sec
    2e89: e5 12        	sbc	$12                     ; 0x12 <__rc2>
    2e8b: 85 12        	sta	$12                     ; 0x12 <__rc2>
    2e8d: a5 13        	lda	$13                     ; 0x13 <__rc3>
    2e8f: e9 00        	sbc	#$0
    2e91: 85 13        	sta	$13                     ; 0x13 <__rc3>
    2e93: a9 7c        	lda	#$7c
    2e95: 18           	clc
    2e96: 65 12        	adc	$12                     ; 0x12 <__rc2>
    2e98: 85 12        	sta	$12                     ; 0x12 <__rc2>
    2e9a: a9 48        	lda	#$48
    2e9c: 65 13        	adc	$13                     ; 0x13 <__rc3>
    2e9e: 85 13        	sta	$13                     ; 0x13 <__rc3>
    2ea0: a0 02        	ldy	#$2
    2ea2: 4c 89 2f     	jmp	$2f89 <opl3_shadow+0x406>
    2ea5: a8           	tay
    2ea6: c0 08        	cpy	#$8
    2ea8: 90 05        	bcc	$2eaf <opl3_shadow+0x32c>
    2eaa: 18           	clc
    2eab: a5 14        	lda	$14                     ; 0x14 <__rc4>
    2ead: 69 18        	adc	#$18
    2eaf: 18           	clc
    2eb0: 65 12        	adc	$12                     ; 0x12 <__rc2>
    2eb2: 85 12        	sta	$12                     ; 0x12 <__rc2>
    2eb4: 64 13        	stz	$13                     ; 0x13 <__rc3>
    2eb6: 0a           	asl
    2eb7: 26 13        	rol	$13                     ; 0x13 <__rc3>
    2eb9: 0a           	asl
    2eba: 26 13        	rol	$13                     ; 0x13 <__rc3>
    2ebc: 0a           	asl
    2ebd: 26 13        	rol	$13                     ; 0x13 <__rc3>
    2ebf: 0a           	asl
    2ec0: 26 13        	rol	$13                     ; 0x13 <__rc3>
    2ec2: 38           	sec
    2ec3: e5 12        	sbc	$12                     ; 0x12 <__rc2>
    2ec5: 85 12        	sta	$12                     ; 0x12 <__rc2>
    2ec7: a5 13        	lda	$13                     ; 0x13 <__rc3>
    2ec9: e9 00        	sbc	#$0
    2ecb: 85 13        	sta	$13                     ; 0x13 <__rc3>
    2ecd: a9 7c        	lda	#$7c
    2ecf: 18           	clc
    2ed0: 65 12        	adc	$12                     ; 0x12 <__rc2>
    2ed2: 85 12        	sta	$12                     ; 0x12 <__rc2>
    2ed4: a9 48        	lda	#$48
    2ed6: 65 13        	adc	$13                     ; 0x13 <__rc3>
    2ed8: 85 13        	sta	$13                     ; 0x13 <__rc3>
    2eda: a0 08        	ldy	#$8
    2edc: 4c 89 2f     	jmp	$2f89 <opl3_shadow+0x406>
    2edf: a8           	tay
    2ee0: c0 08        	cpy	#$8
    2ee2: 90 05        	bcc	$2ee9 <opl3_shadow+0x366>
    2ee4: 18           	clc
    2ee5: a5 14        	lda	$14                     ; 0x14 <__rc4>
    2ee7: 69 1b        	adc	#$1b
    2ee9: 18           	clc
    2eea: 65 12        	adc	$12                     ; 0x12 <__rc2>
    2eec: 85 12        	sta	$12                     ; 0x12 <__rc2>
    2eee: 64 13        	stz	$13                     ; 0x13 <__rc3>
    2ef0: 0a           	asl
    2ef1: 26 13        	rol	$13                     ; 0x13 <__rc3>
    2ef3: 0a           	asl
    2ef4: 26 13        	rol	$13                     ; 0x13 <__rc3>
    2ef6: 0a           	asl
    2ef7: 26 13        	rol	$13                     ; 0x13 <__rc3>
    2ef9: 0a           	asl
    2efa: 26 13        	rol	$13                     ; 0x13 <__rc3>
    2efc: 38           	sec
    2efd: e5 12        	sbc	$12                     ; 0x12 <__rc2>
    2eff: 85 12        	sta	$12                     ; 0x12 <__rc2>
    2f01: a5 13        	lda	$13                     ; 0x13 <__rc3>
    2f03: e9 00        	sbc	#$0
    2f05: 85 13        	sta	$13                     ; 0x13 <__rc3>
    2f07: a9 7c        	lda	#$7c
    2f09: 18           	clc
    2f0a: 65 12        	adc	$12                     ; 0x12 <__rc2>
    2f0c: 85 12        	sta	$12                     ; 0x12 <__rc2>
    2f0e: a9 48        	lda	#$48
    2f10: 65 13        	adc	$13                     ; 0x13 <__rc3>
    2f12: 85 13        	sta	$13                     ; 0x13 <__rc3>
    2f14: a0 09        	ldy	#$9
    2f16: 4c 89 2f     	jmp	$2f89 <opl3_shadow+0x406>
    2f19: a8           	tay
    2f1a: c0 08        	cpy	#$8
    2f1c: 90 05        	bcc	$2f23 <opl3_shadow+0x3a0>
    2f1e: 18           	clc
    2f1f: a5 14        	lda	$14                     ; 0x14 <__rc4>
    2f21: 69 9b        	adc	#$9b
    2f23: 18           	clc
    2f24: 65 12        	adc	$12                     ; 0x12 <__rc2>
    2f26: 85 12        	sta	$12                     ; 0x12 <__rc2>
    2f28: 64 13        	stz	$13                     ; 0x13 <__rc3>
    2f2a: 0a           	asl
    2f2b: 26 13        	rol	$13                     ; 0x13 <__rc3>
    2f2d: 0a           	asl
    2f2e: 26 13        	rol	$13                     ; 0x13 <__rc3>
    2f30: 0a           	asl
    2f31: 26 13        	rol	$13                     ; 0x13 <__rc3>
    2f33: 0a           	asl
    2f34: 26 13        	rol	$13                     ; 0x13 <__rc3>
    2f36: 38           	sec
    2f37: e5 12        	sbc	$12                     ; 0x12 <__rc2>
    2f39: 85 12        	sta	$12                     ; 0x12 <__rc2>
    2f3b: a5 13        	lda	$13                     ; 0x13 <__rc3>
    2f3d: e9 00        	sbc	#$0
    2f3f: 85 13        	sta	$13                     ; 0x13 <__rc3>
    2f41: a9 7c        	lda	#$7c
    2f43: 18           	clc
    2f44: 65 12        	adc	$12                     ; 0x12 <__rc2>
    2f46: 85 12        	sta	$12                     ; 0x12 <__rc2>
    2f48: a9 48        	lda	#$48
    2f4a: 65 13        	adc	$13                     ; 0x13 <__rc3>
    2f4c: 85 13        	sta	$13                     ; 0x13 <__rc3>
    2f4e: a0 05        	ldy	#$5
    2f50: 80 37        	bra	$2f89 <opl3_shadow+0x406>
    2f52: a8           	tay
    2f53: c0 08        	cpy	#$8
    2f55: 90 05        	bcc	$2f5c <opl3_shadow+0x3d9>
    2f57: 18           	clc
    2f58: a5 14        	lda	$14                     ; 0x14 <__rc4>
    2f5a: 69 98        	adc	#$98
    2f5c: 18           	clc
    2f5d: 65 12        	adc	$12                     ; 0x12 <__rc2>
    2f5f: 85 12        	sta	$12                     ; 0x12 <__rc2>
    2f61: 64 13        	stz	$13                     ; 0x13 <__rc3>
    2f63: 0a           	asl
    2f64: 26 13        	rol	$13                     ; 0x13 <__rc3>
    2f66: 0a           	asl
    2f67: 26 13        	rol	$13                     ; 0x13 <__rc3>
    2f69: 0a           	asl
    2f6a: 26 13        	rol	$13                     ; 0x13 <__rc3>
    2f6c: 0a           	asl
    2f6d: 26 13        	rol	$13                     ; 0x13 <__rc3>
    2f6f: 38           	sec
    2f70: e5 12        	sbc	$12                     ; 0x12 <__rc2>
    2f72: 85 12        	sta	$12                     ; 0x12 <__rc2>
    2f74: a5 13        	lda	$13                     ; 0x13 <__rc3>
    2f76: e9 00        	sbc	#$0
    2f78: 85 13        	sta	$13                     ; 0x13 <__rc3>
    2f7a: a9 7c        	lda	#$7c
    2f7c: 18           	clc
    2f7d: 65 12        	adc	$12                     ; 0x12 <__rc2>
    2f7f: 85 12        	sta	$12                     ; 0x12 <__rc2>
    2f81: a9 48        	lda	#$48
    2f83: 65 13        	adc	$13                     ; 0x13 <__rc3>
    2f85: 85 13        	sta	$13                     ; 0x13 <__rc3>
    2f87: a0 04        	ldy	#$4
    2f89: a5 16        	lda	$16                     ; 0x16 <__rc6>
    2f8b: 91 12        	sta	($12),y                 ; 0x12 <__rc2>
    2f8d: 8a           	txa
    2f8e: 60           	rts

00002f8f <copyToRAM>:
    2f8f: 18           	clc
    2f90: a5 10        	lda	$10                     ; 0x10 <__rc0>
    2f92: 69 f8        	adc	#$f8
    2f94: 85 10        	sta	$10                     ; 0x10 <__rc0>
    2f96: a5 11        	lda	$11                     ; 0x11 <__rc1>
    2f98: 69 fe        	adc	#$fe
    2f9a: 85 11        	sta	$11                     ; 0x11 <__rc1>
    2f9c: a5 12        	lda	$12                     ; 0x12 <__rc2>
    2f9e: a6 13        	ldx	$13                     ; 0x13 <__rc3>
    2fa0: 18           	clc
    2fa1: 48           	pha
    2fa2: a5 10        	lda	$10                     ; 0x10 <__rc0>
    2fa4: 69 06        	adc	#$6
    2fa6: 85 12        	sta	$12                     ; 0x12 <__rc2>
    2fa8: a5 11        	lda	$11                     ; 0x11 <__rc1>
    2faa: 69 01        	adc	#$1
    2fac: 85 13        	sta	$13                     ; 0x13 <__rc3>
    2fae: 68           	pla
    2faf: 92 12        	sta	($12)                   ; 0x12 <__rc2>
    2fb1: a0 01        	ldy	#$1
    2fb3: 8a           	txa
    2fb4: 91 12        	sta	($12),y                 ; 0x12 <__rc2>
    2fb6: 18           	clc
    2fb7: a5 10        	lda	$10                     ; 0x10 <__rc0>
    2fb9: 69 05        	adc	#$5
    2fbb: 85 12        	sta	$12                     ; 0x12 <__rc2>
    2fbd: a5 11        	lda	$11                     ; 0x11 <__rc1>
    2fbf: 69 01        	adc	#$1
    2fc1: 85 13        	sta	$13                     ; 0x13 <__rc3>
    2fc3: 98           	tya
    2fc4: 92 12        	sta	($12)                   ; 0x12 <__rc2>
    2fc6: 18           	clc
    2fc7: a5 10        	lda	$10                     ; 0x10 <__rc0>
    2fc9: 69 05        	adc	#$5
    2fcb: 85 12        	sta	$12                     ; 0x12 <__rc2>
    2fcd: a5 11        	lda	$11                     ; 0x11 <__rc1>
    2fcf: 69 00        	adc	#$0
    2fd1: 85 13        	sta	$13                     ; 0x13 <__rc3>
    2fd3: a9 00        	lda	#$0
    2fd5: 92 12        	sta	($12)                   ; 0x12 <__rc2>
    2fd7: a9 00        	lda	#$0
    2fd9: 18           	clc
    2fda: 48           	pha
    2fdb: a5 10        	lda	$10                     ; 0x10 <__rc0>
    2fdd: 69 01        	adc	#$1
    2fdf: 85 12        	sta	$12                     ; 0x12 <__rc2>
    2fe1: a5 11        	lda	$11                     ; 0x11 <__rc1>
    2fe3: 69 00        	adc	#$0
    2fe5: 85 13        	sta	$13                     ; 0x13 <__rc3>
    2fe7: 68           	pla
    2fe8: 92 12        	sta	($12)                   ; 0x12 <__rc2>
    2fea: 91 12        	sta	($12),y                 ; 0x12 <__rc2>
    2fec: c8           	iny
    2fed: 91 12        	sta	($12),y                 ; 0x12 <__rc2>
    2fef: c8           	iny
    2ff0: 91 12        	sta	($12),y                 ; 0x12 <__rc2>
    2ff2: 18           	clc
    2ff3: a5 10        	lda	$10                     ; 0x10 <__rc0>
    2ff5: 69 05        	adc	#$5
    2ff7: 85 12        	sta	$12                     ; 0x12 <__rc2>
    2ff9: a5 11        	lda	$11                     ; 0x11 <__rc1>
    2ffb: 69 01        	adc	#$1
    2ffd: 85 13        	sta	$13                     ; 0x13 <__rc3>
    2fff: b2 12        	lda	($12)                   ; 0x12 <__rc2>
    3001: d0 03        	bne	$3006 <copyToRAM+0x77>
    3003: 4c 75 31     	jmp	$3175 <copyToRAM+0x1e6>
    3006: 18           	clc
    3007: a5 10        	lda	$10                     ; 0x10 <__rc0>
    3009: 69 06        	adc	#$6
    300b: 85 12        	sta	$12                     ; 0x12 <__rc2>
    300d: a5 11        	lda	$11                     ; 0x11 <__rc1>
    300f: 69 01        	adc	#$1
    3011: 85 13        	sta	$13                     ; 0x13 <__rc3>
    3013: b2 12        	lda	($12)                   ; 0x12 <__rc2>
    3015: 85 14        	sta	$14                     ; 0x14 <__rc4>
    3017: a0 01        	ldy	#$1
    3019: b1 12        	lda	($12),y                 ; 0x12 <__rc2>
    301b: 85 15        	sta	$15                     ; 0x15 <__rc5>
    301d: a9 ff        	lda	#$ff
    301f: a2 00        	ldx	#$0
    3021: 18           	clc
    3022: 48           	pha
    3023: a5 10        	lda	$10                     ; 0x10 <__rc0>
    3025: 69 06        	adc	#$6
    3027: 85 12        	sta	$12                     ; 0x12 <__rc2>
    3029: a5 11        	lda	$11                     ; 0x11 <__rc1>
    302b: 69 00        	adc	#$0
    302d: 85 13        	sta	$13                     ; 0x13 <__rc3>
    302f: 68           	pla
    3030: 20 0a 2a     	jsr	$2a0a <fileRead>
    3033: 18           	clc
    3034: 48           	pha
    3035: a5 10        	lda	$10                     ; 0x10 <__rc0>
    3037: 69 05        	adc	#$5
    3039: 85 12        	sta	$12                     ; 0x12 <__rc2>
    303b: a5 11        	lda	$11                     ; 0x11 <__rc1>
    303d: 69 00        	adc	#$0
    303f: 85 13        	sta	$13                     ; 0x13 <__rc3>
    3041: 68           	pla
    3042: 92 12        	sta	($12)                   ; 0x12 <__rc2>
    3044: b2 12        	lda	($12)                   ; 0x12 <__rc2>
    3046: c9 ff        	cmp	#$ff
    3048: f0 02        	beq	$304c <copyToRAM+0xbd>
    304a: 80 02        	bra	$304e <copyToRAM+0xbf>
    304c: 80 15        	bra	$3063 <copyToRAM+0xd4>
    304e: 80 00        	bra	$3050 <copyToRAM+0xc1>
    3050: 80 00        	bra	$3052 <copyToRAM+0xc3>
    3052: 18           	clc
    3053: a5 10        	lda	$10                     ; 0x10 <__rc0>
    3055: 69 05        	adc	#$5
    3057: 85 12        	sta	$12                     ; 0x12 <__rc2>
    3059: a5 11        	lda	$11                     ; 0x11 <__rc1>
    305b: 69 01        	adc	#$1
    305d: 85 13        	sta	$13                     ; 0x13 <__rc3>
    305f: a9 00        	lda	#$0
    3061: 92 12        	sta	($12)                   ; 0x12 <__rc2>
    3063: 18           	clc
    3064: a6 10        	ldx	$10                     ; 0x10 <__rc0>
    3066: 86 12        	stx	$12                     ; 0x12 <__rc2>
    3068: a6 11        	ldx	$11                     ; 0x11 <__rc1>
    306a: 86 13        	stx	$13                     ; 0x13 <__rc3>
    306c: a9 00        	lda	#$0
    306e: 92 12        	sta	($12)                   ; 0x12 <__rc2>
    3070: 18           	clc
    3071: a6 10        	ldx	$10                     ; 0x10 <__rc0>
    3073: 86 12        	stx	$12                     ; 0x12 <__rc2>
    3075: a6 11        	ldx	$11                     ; 0x11 <__rc1>
    3077: 86 13        	stx	$13                     ; 0x13 <__rc3>
    3079: b2 12        	lda	($12)                   ; 0x12 <__rc2>
    307b: 18           	clc
    307c: 48           	pha
    307d: a5 10        	lda	$10                     ; 0x10 <__rc0>
    307f: 69 05        	adc	#$5
    3081: 85 12        	sta	$12                     ; 0x12 <__rc2>
    3083: a5 11        	lda	$11                     ; 0x11 <__rc1>
    3085: 69 00        	adc	#$0
    3087: 85 13        	sta	$13                     ; 0x13 <__rc3>
    3089: 68           	pla
    308a: d2 12        	cmp	($12)                   ; 0x12 <__rc2>
    308c: a9 00        	lda	#$0
    308e: e9 00        	sbc	#$0
    3090: 70 02        	bvs	$3094 <copyToRAM+0x105>
    3092: 80 04        	bra	$3098 <copyToRAM+0x109>
    3094: 49 80        	eor	#$80
    3096: 80 02        	bra	$309a <copyToRAM+0x10b>
    3098: 80 00        	bra	$309a <copyToRAM+0x10b>
    309a: aa           	tax
    309b: 30 05        	bmi	$30a2 <copyToRAM+0x113>
    309d: 80 00        	bra	$309f <copyToRAM+0x110>
    309f: 4c 17 31     	jmp	$3117 <copyToRAM+0x188>
    30a2: 18           	clc
    30a3: a6 10        	ldx	$10                     ; 0x10 <__rc0>
    30a5: 86 18        	stx	$18                     ; 0x18 <__rc8>
    30a7: a6 11        	ldx	$11                     ; 0x11 <__rc1>
    30a9: 86 19        	stx	$19                     ; 0x19 <__rc9>
    30ab: 18           	clc
    30ac: a5 10        	lda	$10                     ; 0x10 <__rc0>
    30ae: 69 01        	adc	#$1
    30b0: 85 14        	sta	$14                     ; 0x14 <__rc4>
    30b2: a5 11        	lda	$11                     ; 0x11 <__rc1>
    30b4: 69 00        	adc	#$0
    30b6: 85 15        	sta	$15                     ; 0x15 <__rc5>
    30b8: b2 14        	lda	($14)                   ; 0x14 <__rc4>
    30ba: a0 01        	ldy	#$1
    30bc: 18           	clc
    30bd: 72 18        	adc	($18)                   ; 0x18 <__rc8>
    30bf: 85 16        	sta	$16                     ; 0x16 <__rc6>
    30c1: a9 00        	lda	#$0
    30c3: 71 14        	adc	($14),y                 ; 0x14 <__rc4>
    30c5: aa           	tax
    30c6: a9 00        	lda	#$0
    30c8: c8           	iny
    30c9: 71 14        	adc	($14),y                 ; 0x14 <__rc4>
    30cb: 85 12        	sta	$12                     ; 0x12 <__rc2>
    30cd: c8           	iny
    30ce: a9 00        	lda	#$0
    30d0: 71 14        	adc	($14),y                 ; 0x14 <__rc4>
    30d2: a8           	tay
    30d3: 18           	clc
    30d4: a5 16        	lda	$16                     ; 0x16 <__rc6>
    30d6: 69 00        	adc	#$0
    30d8: 85 16        	sta	$16                     ; 0x16 <__rc6>
    30da: 8a           	txa
    30db: 69 00        	adc	#$0
    30dd: 85 17        	sta	$17                     ; 0x17 <__rc7>
    30df: a5 12        	lda	$12                     ; 0x12 <__rc2>
    30e1: 69 10        	adc	#$10
    30e3: 85 12        	sta	$12                     ; 0x12 <__rc2>
    30e5: 98           	tya
    30e6: 69 00        	adc	#$0
    30e8: aa           	tax
    30e9: 18           	clc
    30ea: a5 10        	lda	$10                     ; 0x10 <__rc0>
    30ec: 69 06        	adc	#$6
    30ee: 85 14        	sta	$14                     ; 0x14 <__rc4>
    30f0: a5 11        	lda	$11                     ; 0x11 <__rc1>
    30f2: 69 00        	adc	#$0
    30f4: 85 15        	sta	$15                     ; 0x15 <__rc5>
    30f6: b2 18        	lda	($18)                   ; 0x18 <__rc8>
    30f8: a8           	tay
    30f9: b1 14        	lda	($14),y                 ; 0x14 <__rc4>
    30fb: 86 13        	stx	$13                     ; 0x13 <__rc3>
    30fd: 85 14        	sta	$14                     ; 0x14 <__rc4>
    30ff: a6 17        	ldx	$17                     ; 0x17 <__rc7>
    3101: a5 16        	lda	$16                     ; 0x16 <__rc6>
    3103: 20 ed 05     	jsr	$5ed <POKE24>
    3106: 18           	clc
    3107: a6 10        	ldx	$10                     ; 0x10 <__rc0>
    3109: 86 12        	stx	$12                     ; 0x12 <__rc2>
    310b: a6 11        	ldx	$11                     ; 0x11 <__rc1>
    310d: 86 13        	stx	$13                     ; 0x13 <__rc3>
    310f: b2 12        	lda	($12)                   ; 0x12 <__rc2>
    3111: 1a           	inc
    3112: 92 12        	sta	($12)                   ; 0x12 <__rc2>
    3114: 4c 70 30     	jmp	$3070 <copyToRAM+0xe1>
    3117: 18           	clc
    3118: a5 10        	lda	$10                     ; 0x10 <__rc0>
    311a: 69 05        	adc	#$5
    311c: 85 12        	sta	$12                     ; 0x12 <__rc2>
    311e: a5 11        	lda	$11                     ; 0x11 <__rc1>
    3120: 69 00        	adc	#$0
    3122: 85 13        	sta	$13                     ; 0x13 <__rc3>
    3124: b2 12        	lda	($12)                   ; 0x12 <__rc2>
    3126: 85 14        	sta	$14                     ; 0x14 <__rc4>
    3128: 18           	clc
    3129: a5 10        	lda	$10                     ; 0x10 <__rc0>
    312b: 69 01        	adc	#$1
    312d: 85 12        	sta	$12                     ; 0x12 <__rc2>
    312f: a5 11        	lda	$11                     ; 0x11 <__rc1>
    3131: 69 00        	adc	#$0
    3133: 85 13        	sta	$13                     ; 0x13 <__rc3>
    3135: a0 01        	ldy	#$1
    3137: b1 12        	lda	($12),y                 ; 0x12 <__rc2>
    3139: 85 1a        	sta	$1a                     ; 0x1a <__rc10>
    313b: a2 01        	ldx	#$1
    313d: 86 16        	stx	$16                     ; 0x16 <__rc6>
    313f: c8           	iny
    3140: b1 12        	lda	($12),y                 ; 0x12 <__rc2>
    3142: 85 18        	sta	$18                     ; 0x18 <__rc8>
    3144: e8           	inx
    3145: 86 15        	stx	$15                     ; 0x15 <__rc5>
    3147: c8           	iny
    3148: b1 12        	lda	($12),y                 ; 0x12 <__rc2>
    314a: 85 19        	sta	$19                     ; 0x19 <__rc9>
    314c: e8           	inx
    314d: 86 17        	stx	$17                     ; 0x17 <__rc7>
    314f: 18           	clc
    3150: a5 14        	lda	$14                     ; 0x14 <__rc4>
    3152: 72 12        	adc	($12)                   ; 0x12 <__rc2>
    3154: 85 14        	sta	$14                     ; 0x14 <__rc4>
    3156: a5 1a        	lda	$1a                     ; 0x1a <__rc10>
    3158: 69 00        	adc	#$0
    315a: a4 16        	ldy	$16                     ; 0x16 <__rc6>
    315c: 91 12        	sta	($12),y                 ; 0x12 <__rc2>
    315e: a5 18        	lda	$18                     ; 0x18 <__rc8>
    3160: 69 00        	adc	#$0
    3162: a4 15        	ldy	$15                     ; 0x15 <__rc5>
    3164: 91 12        	sta	($12),y                 ; 0x12 <__rc2>
    3166: a5 19        	lda	$19                     ; 0x19 <__rc9>
    3168: 69 00        	adc	#$0
    316a: a4 17        	ldy	$17                     ; 0x17 <__rc7>
    316c: 91 12        	sta	($12),y                 ; 0x12 <__rc2>
    316e: a5 14        	lda	$14                     ; 0x14 <__rc4>
    3170: 92 12        	sta	($12)                   ; 0x12 <__rc2>
    3172: 4c f2 2f     	jmp	$2ff2 <copyToRAM+0x63>
    3175: 18           	clc
    3176: a5 10        	lda	$10                     ; 0x10 <__rc0>
    3178: 69 08        	adc	#$8
    317a: 85 10        	sta	$10                     ; 0x10 <__rc0>
    317c: a5 11        	lda	$11                     ; 0x11 <__rc1>
    317e: 69 01        	adc	#$1
    3180: 85 11        	sta	$11                     ; 0x11 <__rc1>
    3182: 60           	rts

00003183 <exit>:
    3183: 20 49 03     	jsr	$349 <_fini>
    3186: 80 fe        	bra	$3186 <exit+0x3>

00003188 <_ZN12_GLOBAL__N_13putEcP6Status>:
    3188: 85 18        	sta	$18                     ; 0x18 <__rc8>
    318a: a6 13        	ldx	$13                     ; 0x13 <__rc3>
    318c: 18           	clc
    318d: a5 12        	lda	$12                     ; 0x12 <__rc2>
    318f: 69 05        	adc	#$5
    3191: a8           	tay
    3192: a5 13        	lda	$13                     ; 0x13 <__rc3>
    3194: 86 15        	stx	$15                     ; 0x15 <__rc5>
    3196: 69 00        	adc	#$0
    3198: 18           	clc
    3199: 84 16        	sty	$16                     ; 0x16 <__rc6>
    319b: a0 05        	ldy	#$5
    319d: 85 17        	sta	$17                     ; 0x17 <__rc7>
    319f: b1 12        	lda	($12),y                 ; 0x12 <__rc2>
    31a1: aa           	tax
    31a2: a5 12        	lda	$12                     ; 0x12 <__rc2>
    31a4: 69 03        	adc	#$3
    31a6: 85 14        	sta	$14                     ; 0x14 <__rc4>
    31a8: a5 15        	lda	$15                     ; 0x15 <__rc5>
    31aa: 69 00        	adc	#$0
    31ac: 85 15        	sta	$15                     ; 0x15 <__rc5>
    31ae: a0 01        	ldy	#$1
    31b0: b1 16        	lda	($16),y                 ; 0x16 <__rc6>
    31b2: d1 14        	cmp	($14),y                 ; 0x14 <__rc4>
    31b4: d0 11        	bne	$31c7 <_ZN12_GLOBAL__N_13putEcP6Status+0x3f>
    31b6: a0 03        	ldy	#$3
    31b8: 85 17        	sta	$17                     ; 0x17 <__rc7>
    31ba: b1 12        	lda	($12),y                 ; 0x12 <__rc2>
    31bc: 85 14        	sta	$14                     ; 0x14 <__rc4>
    31be: 86 16        	stx	$16                     ; 0x16 <__rc6>
    31c0: e4 14        	cpx	$14                     ; 0x14 <__rc4>
    31c2: 90 0e        	bcc	$31d2 <_ZN12_GLOBAL__N_13putEcP6Status+0x4a>
    31c4: 4c 3b 32     	jmp	$323b <_ZN12_GLOBAL__N_13putEcP6Status+0xb3>
    31c7: 86 16        	stx	$16                     ; 0x16 <__rc6>
    31c9: d1 14        	cmp	($14),y                 ; 0x14 <__rc4>
    31cb: 85 17        	sta	$17                     ; 0x17 <__rc7>
    31cd: 90 03        	bcc	$31d2 <_ZN12_GLOBAL__N_13putEcP6Status+0x4a>
    31cf: 4c 3b 32     	jmp	$323b <_ZN12_GLOBAL__N_13putEcP6Status+0xb3>
    31d2: a5 12        	lda	$12                     ; 0x12 <__rc2>
    31d4: 18           	clc
    31d5: 69 0f        	adc	#$f
    31d7: 85 14        	sta	$14                     ; 0x14 <__rc4>
    31d9: a5 13        	lda	$13                     ; 0x13 <__rc3>
    31db: 69 00        	adc	#$0
    31dd: 85 15        	sta	$15                     ; 0x15 <__rc5>
    31df: a0 01        	ldy	#$1
    31e1: b1 14        	lda	($14),y                 ; 0x14 <__rc4>
    31e3: a2 00        	ldx	#$0
    31e5: 86 14        	stx	$14                     ; 0x14 <__rc4>
    31e7: a2 00        	ldx	#$0
    31e9: 86 15        	stx	$15                     ; 0x15 <__rc5>
    31eb: c5 15        	cmp	$15                     ; 0x15 <__rc5>
    31ed: d0 2d        	bne	$321c <_ZN12_GLOBAL__N_13putEcP6Status+0x94>
    31ef: a0 0f        	ldy	#$f
    31f1: b1 12        	lda	($12),y                 ; 0x12 <__rc2>
    31f3: c5 14        	cmp	$14                     ; 0x14 <__rc4>
    31f5: d0 25        	bne	$321c <_ZN12_GLOBAL__N_13putEcP6Status+0x94>
    31f7: a5 12        	lda	$12                     ; 0x12 <__rc2>
    31f9: 18           	clc
    31fa: 69 09        	adc	#$9
    31fc: 85 14        	sta	$14                     ; 0x14 <__rc4>
    31fe: a5 13        	lda	$13                     ; 0x13 <__rc3>
    3200: 69 00        	adc	#$0
    3202: a0 09        	ldy	#$9
    3204: 85 15        	sta	$15                     ; 0x15 <__rc5>
    3206: 18           	clc
    3207: a5 16        	lda	$16                     ; 0x16 <__rc6>
    3209: 71 12        	adc	($12),y                 ; 0x12 <__rc2>
    320b: aa           	tax
    320c: a0 01        	ldy	#$1
    320e: a5 17        	lda	$17                     ; 0x17 <__rc7>
    3210: 71 14        	adc	($14),y                 ; 0x14 <__rc4>
    3212: 86 14        	stx	$14                     ; 0x14 <__rc4>
    3214: 85 15        	sta	$15                     ; 0x15 <__rc5>
    3216: a5 18        	lda	$18                     ; 0x18 <__rc8>
    3218: 92 14        	sta	($14)                   ; 0x14 <__rc4>
    321a: 80 1f        	bra	$323b <_ZN12_GLOBAL__N_13putEcP6Status+0xb3>
    321c: a6 12        	ldx	$12                     ; 0x12 <__rc2>
    321e: 86 ea        	stx	$ea                     ; 0xea <__pal_size+0x6a>
    3220: a6 13        	ldx	$13                     ; 0x13 <__rc3>
    3222: 86 eb        	stx	$eb                     ; 0xeb <__pal_size+0x6b>
    3224: a5 18        	lda	$18                     ; 0x18 <__rc8>
    3226: 85 67        	sta	$67                     ; 0x67 <__putchar.s>
    3228: a2 67        	ldx	#$67
    322a: 86 12        	stx	$12                     ; 0x12 <__rc2>
    322c: a2 00        	ldx	#$0
    322e: 86 13        	stx	$13                     ; 0x13 <__rc3>
    3230: 20 05 28     	jsr	$2805 <textPrint>
    3233: a6 ea        	ldx	$ea                     ; 0xea <__pal_size+0x6a>
    3235: 86 12        	stx	$12                     ; 0x12 <__rc2>
    3237: a6 eb        	ldx	$eb                     ; 0xeb <__pal_size+0x6b>
    3239: 86 13        	stx	$13                     ; 0x13 <__rc3>
    323b: a0 05        	ldy	#$5
    323d: a5 12        	lda	$12                     ; 0x12 <__rc2>
    323f: 18           	clc
    3240: 69 05        	adc	#$5
    3242: 85 14        	sta	$14                     ; 0x14 <__rc4>
    3244: a5 13        	lda	$13                     ; 0x13 <__rc3>
    3246: 69 00        	adc	#$0
    3248: 85 15        	sta	$15                     ; 0x15 <__rc5>
    324a: b1 12        	lda	($12),y                 ; 0x12 <__rc2>
    324c: aa           	tax
    324d: 84 16        	sty	$16                     ; 0x16 <__rc6>
    324f: a0 01        	ldy	#$1
    3251: b1 14        	lda	($14),y                 ; 0x14 <__rc4>
    3253: 84 17        	sty	$17                     ; 0x17 <__rc7>
    3255: e8           	inx
    3256: d0 01        	bne	$3259 <_ZN12_GLOBAL__N_13putEcP6Status+0xd1>
    3258: 1a           	inc
    3259: 85 18        	sta	$18                     ; 0x18 <__rc8>
    325b: 8a           	txa
    325c: a4 16        	ldy	$16                     ; 0x16 <__rc6>
    325e: 91 12        	sta	($12),y                 ; 0x12 <__rc2>
    3260: a4 17        	ldy	$17                     ; 0x17 <__rc7>
    3262: a5 18        	lda	$18                     ; 0x18 <__rc8>
    3264: 91 14        	sta	($14),y                 ; 0x14 <__rc4>
    3266: 60           	rts

00003267 <_ZN12_GLOBAL__N_112print_stringEPKcP6Status>:
    3267: a6 12        	ldx	$12                     ; 0x12 <__rc2>
    3269: 86 e1        	stx	$e1                     ; 0xe1 <__pal_size+0x61>
    326b: a6 13        	ldx	$13                     ; 0x13 <__rc3>
    326d: 86 e2        	stx	$e2                     ; 0xe2 <__pal_size+0x62>
    326f: a6 14        	ldx	$14                     ; 0x14 <__rc4>
    3271: 86 e3        	stx	$e3                     ; 0xe3 <__pal_size+0x63>
    3273: a6 15        	ldx	$15                     ; 0x15 <__rc5>
    3275: 86 e4        	stx	$e4                     ; 0xe4 <__pal_size+0x64>
    3277: a5 e3        	lda	$e3                     ; 0xe3 <__pal_size+0x63>
    3279: 18           	clc
    327a: 69 0d        	adc	#$d
    327c: 85 12        	sta	$12                     ; 0x12 <__rc2>
    327e: a5 e4        	lda	$e4                     ; 0xe4 <__pal_size+0x64>
    3280: 69 00        	adc	#$0
    3282: 85 13        	sta	$13                     ; 0x13 <__rc3>
    3284: a0 01        	ldy	#$1
    3286: b1 12        	lda	($12),y                 ; 0x12 <__rc2>
    3288: 30 14        	bmi	$329e <_ZN12_GLOBAL__N_112print_stringEPKcP6Status+0x37>
    328a: a0 0d        	ldy	#$d
    328c: aa           	tax
    328d: b1 e3        	lda	($e3),y                 ; 0xe3 <__pal_size+0x63>
    328f: 86 e6        	stx	$e6                     ; 0xe6 <__pal_size+0x66>
    3291: e0 00        	cpx	#$0
    3293: d0 0e        	bne	$32a3 <_ZN12_GLOBAL__N_112print_stringEPKcP6Status+0x3c>
    3295: aa           	tax
    3296: d0 0b        	bne	$32a3 <_ZN12_GLOBAL__N_112print_stringEPKcP6Status+0x3c>
    3298: 64 e5        	stz	$e5                     ; 0xe5 <__pal_size+0x65>
    329a: 64 e6        	stz	$e6                     ; 0xe6 <__pal_size+0x66>
    329c: 80 36        	bra	$32d4 <_ZN12_GLOBAL__N_112print_stringEPKcP6Status+0x6d>
    329e: a9 ff        	lda	#$ff
    32a0: aa           	tax
    32a1: 86 e6        	stx	$e6                     ; 0xe6 <__pal_size+0x66>
    32a3: 85 e5        	sta	$e5                     ; 0xe5 <__pal_size+0x65>
    32a5: 64 12        	stz	$12                     ; 0x12 <__rc2>
    32a7: a4 e1        	ldy	$e1                     ; 0xe1 <__pal_size+0x61>
    32a9: a6 e2        	ldx	$e2                     ; 0xe2 <__pal_size+0x62>
    32ab: 86 16        	stx	$16                     ; 0x16 <__rc6>
    32ad: 64 13        	stz	$13                     ; 0x13 <__rc3>
    32af: 98           	tya
    32b0: 18           	clc
    32b1: 65 12        	adc	$12                     ; 0x12 <__rc2>
    32b3: 85 14        	sta	$14                     ; 0x14 <__rc4>
    32b5: a5 e2        	lda	$e2                     ; 0xe2 <__pal_size+0x62>
    32b7: 65 13        	adc	$13                     ; 0x13 <__rc3>
    32b9: 85 15        	sta	$15                     ; 0x15 <__rc5>
    32bb: b2 14        	lda	($14)                   ; 0x14 <__rc4>
    32bd: d0 03        	bne	$32c2 <_ZN12_GLOBAL__N_112print_stringEPKcP6Status+0x5b>
    32bf: 4c 6b 33     	jmp	$336b <_ZN12_GLOBAL__N_112print_stringEPKcP6Status+0x104>
    32c2: e6 12        	inc	$12                     ; 0x12 <__rc2>
    32c4: d0 02        	bne	$32c8 <_ZN12_GLOBAL__N_112print_stringEPKcP6Status+0x61>
    32c6: e6 13        	inc	$13                     ; 0x13 <__rc3>
    32c8: a6 e6        	ldx	$e6                     ; 0xe6 <__pal_size+0x66>
    32ca: e4 13        	cpx	$13                     ; 0x13 <__rc3>
    32cc: d0 e1        	bne	$32af <_ZN12_GLOBAL__N_112print_stringEPKcP6Status+0x48>
    32ce: a6 e5        	ldx	$e5                     ; 0xe5 <__pal_size+0x65>
    32d0: e4 12        	cpx	$12                     ; 0x12 <__rc2>
    32d2: d0 db        	bne	$32af <_ZN12_GLOBAL__N_112print_stringEPKcP6Status+0x48>
    32d4: a0 01        	ldy	#$1
    32d6: b1 e3        	lda	($e3),y                 ; 0xe3 <__pal_size+0x63>
    32d8: 29 01        	and	#$1
    32da: f0 03        	beq	$32df <_ZN12_GLOBAL__N_112print_stringEPKcP6Status+0x78>
    32dc: 4c 3d 33     	jmp	$333d <_ZN12_GLOBAL__N_112print_stringEPKcP6Status+0xd6>
    32df: a5 e3        	lda	$e3                     ; 0xe3 <__pal_size+0x63>
    32e1: 18           	clc
    32e2: 69 0b        	adc	#$b
    32e4: 85 14        	sta	$14                     ; 0x14 <__rc4>
    32e6: a5 e4        	lda	$e4                     ; 0xe4 <__pal_size+0x64>
    32e8: 69 00        	adc	#$0
    32ea: 85 15        	sta	$15                     ; 0x15 <__rc5>
    32ec: 84 12        	sty	$12                     ; 0x12 <__rc2>
    32ee: a0 0b        	ldy	#$b
    32f0: b1 e3        	lda	($e3),y                 ; 0xe3 <__pal_size+0x63>
    32f2: 85 13        	sta	$13                     ; 0x13 <__rc3>
    32f4: a4 12        	ldy	$12                     ; 0x12 <__rc2>
    32f6: b1 14        	lda	($14),y                 ; 0x14 <__rc4>
    32f8: 85 12        	sta	$12                     ; 0x12 <__rc2>
    32fa: a6 e6        	ldx	$e6                     ; 0xe6 <__pal_size+0x66>
    32fc: e4 12        	cpx	$12                     ; 0x12 <__rc2>
    32fe: d0 08        	bne	$3308 <_ZN12_GLOBAL__N_112print_stringEPKcP6Status+0xa1>
    3300: a6 e5        	ldx	$e5                     ; 0xe5 <__pal_size+0x65>
    3302: e4 13        	cpx	$13                     ; 0x13 <__rc3>
    3304: 90 06        	bcc	$330c <_ZN12_GLOBAL__N_112print_stringEPKcP6Status+0xa5>
    3306: 80 35        	bra	$333d <_ZN12_GLOBAL__N_112print_stringEPKcP6Status+0xd6>
    3308: e4 12        	cpx	$12                     ; 0x12 <__rc2>
    330a: b0 31        	bcs	$333d <_ZN12_GLOBAL__N_112print_stringEPKcP6Status+0xd6>
    330c: 38           	sec
    330d: a5 e5        	lda	$e5                     ; 0xe5 <__pal_size+0x65>
    330f: e5 13        	sbc	$13                     ; 0x13 <__rc3>
    3311: a8           	tay
    3312: a5 e6        	lda	$e6                     ; 0xe6 <__pal_size+0x66>
    3314: e5 12        	sbc	$12                     ; 0x12 <__rc2>
    3316: 85 e8        	sta	$e8                     ; 0xe8 <__pal_size+0x68>
    3318: a2 20        	ldx	#$20
    331a: 86 e9        	stx	$e9                     ; 0xe9 <__pal_size+0x69>
    331c: a6 e3        	ldx	$e3                     ; 0xe3 <__pal_size+0x63>
    331e: 86 12        	stx	$12                     ; 0x12 <__rc2>
    3320: a6 e4        	ldx	$e4                     ; 0xe4 <__pal_size+0x64>
    3322: 86 13        	stx	$13                     ; 0x13 <__rc3>
    3324: 84 e7        	sty	$e7                     ; 0xe7 <__pal_size+0x67>
    3326: a5 e9        	lda	$e9                     ; 0xe9 <__pal_size+0x69>
    3328: 20 88 31     	jsr	$3188 <_ZN12_GLOBAL__N_13putEcP6Status>
    332b: a6 e8        	ldx	$e8                     ; 0xe8 <__pal_size+0x68>
    332d: e6 e7        	inc	$e7                     ; 0xe7 <__pal_size+0x67>
    332f: d0 01        	bne	$3332 <_ZN12_GLOBAL__N_112print_stringEPKcP6Status+0xcb>
    3331: e8           	inx
    3332: 86 e8        	stx	$e8                     ; 0xe8 <__pal_size+0x68>
    3334: a4 e7        	ldy	$e7                     ; 0xe7 <__pal_size+0x67>
    3336: 8a           	txa
    3337: d0 e3        	bne	$331c <_ZN12_GLOBAL__N_112print_stringEPKcP6Status+0xb5>
    3339: a5 e7        	lda	$e7                     ; 0xe7 <__pal_size+0x67>
    333b: d0 df        	bne	$331c <_ZN12_GLOBAL__N_112print_stringEPKcP6Status+0xb5>
    333d: a5 e6        	lda	$e6                     ; 0xe6 <__pal_size+0x66>
    333f: d0 04        	bne	$3345 <_ZN12_GLOBAL__N_112print_stringEPKcP6Status+0xde>
    3341: a5 e5        	lda	$e5                     ; 0xe5 <__pal_size+0x65>
    3343: f0 25        	beq	$336a <_ZN12_GLOBAL__N_112print_stringEPKcP6Status+0x103>
    3345: a2 ff        	ldx	#$ff
    3347: c6 e5        	dec	$e5                     ; 0xe5 <__pal_size+0x65>
    3349: e4 e5        	cpx	$e5                     ; 0xe5 <__pal_size+0x65>
    334b: d0 02        	bne	$334f <_ZN12_GLOBAL__N_112print_stringEPKcP6Status+0xe8>
    334d: c6 e6        	dec	$e6                     ; 0xe6 <__pal_size+0x66>
    334f: b2 e1        	lda	($e1)                   ; 0xe1 <__pal_size+0x61>
    3351: e6 e1        	inc	$e1                     ; 0xe1 <__pal_size+0x61>
    3353: d0 02        	bne	$3357 <_ZN12_GLOBAL__N_112print_stringEPKcP6Status+0xf0>
    3355: e6 e2        	inc	$e2                     ; 0xe2 <__pal_size+0x62>
    3357: a6 e3        	ldx	$e3                     ; 0xe3 <__pal_size+0x63>
    3359: 86 12        	stx	$12                     ; 0x12 <__rc2>
    335b: a6 e4        	ldx	$e4                     ; 0xe4 <__pal_size+0x64>
    335d: 86 13        	stx	$13                     ; 0x13 <__rc3>
    335f: 20 88 31     	jsr	$3188 <_ZN12_GLOBAL__N_13putEcP6Status>
    3362: a5 e6        	lda	$e6                     ; 0xe6 <__pal_size+0x66>
    3364: d0 df        	bne	$3345 <_ZN12_GLOBAL__N_112print_stringEPKcP6Status+0xde>
    3366: a5 e5        	lda	$e5                     ; 0xe5 <__pal_size+0x65>
    3368: d0 db        	bne	$3345 <_ZN12_GLOBAL__N_112print_stringEPKcP6Status+0xde>
    336a: 60           	rts
    336b: a6 12        	ldx	$12                     ; 0x12 <__rc2>
    336d: 86 e5        	stx	$e5                     ; 0xe5 <__pal_size+0x65>
    336f: a6 13        	ldx	$13                     ; 0x13 <__rc3>
    3371: 86 e6        	stx	$e6                     ; 0xe6 <__pal_size+0x66>
    3373: 4c d4 32     	jmp	$32d4 <_ZN12_GLOBAL__N_112print_stringEPKcP6Status+0x6d>

00003376 <printf>:
    3376: 18           	clc
    3377: a6 10        	ldx	$10                     ; 0x10 <__rc0>
    3379: a4 11        	ldy	$11                     ; 0x11 <__rc1>
    337b: 86 d7        	stx	$d7                     ; 0xd7 <__pal_size+0x57>
    337d: 84 d8        	sty	$d8                     ; 0xd8 <__pal_size+0x58>
    337f: a6 d7        	ldx	$d7                     ; 0xd7 <__pal_size+0x57>
    3381: a4 d8        	ldy	$d8                     ; 0xd8 <__pal_size+0x58>
    3383: 86 c2        	stx	$c2                     ; 0xc2 <__pal_size+0x42>
    3385: 84 c3        	sty	$c3                     ; 0xc3 <__pal_size+0x43>
    3387: a2 ff        	ldx	#$ff
    3389: 86 c7        	stx	$c7                     ; 0xc7 <__pal_size+0x47>
    338b: 86 c8        	stx	$c8                     ; 0xc8 <__pal_size+0x48>
    338d: 64 c9        	stz	$c9                     ; 0xc9 <__pal_size+0x49>
    338f: 64 ca        	stz	$ca                     ; 0xca <__pal_size+0x4a>
    3391: e8           	inx
    3392: 86 12        	stx	$12                     ; 0x12 <__rc2>
    3394: a2 00        	ldx	#$0
    3396: 86 13        	stx	$13                     ; 0x13 <__rc3>
    3398: a6 12        	ldx	$12                     ; 0x12 <__rc2>
    339a: a4 13        	ldy	$13                     ; 0x13 <__rc3>
    339c: 86 cd        	stx	$cd                     ; 0xcd <__pal_size+0x4d>
    339e: 84 ce        	sty	$ce                     ; 0xce <__pal_size+0x4e>
    33a0: a2 02        	ldx	#$2
    33a2: 86 d3        	stx	$d3                     ; 0xd3 <__pal_size+0x53>
    33a4: 64 d4        	stz	$d4                     ; 0xd4 <__pal_size+0x54>
    33a6: a6 c2        	ldx	$c2                     ; 0xc2 <__pal_size+0x42>
    33a8: a4 c3        	ldy	$c3                     ; 0xc3 <__pal_size+0x43>
    33aa: 86 d5        	stx	$d5                     ; 0xd5 <__pal_size+0x55>
    33ac: 84 d6        	sty	$d6                     ; 0xd6 <__pal_size+0x56>
    33ae: a2 b9        	ldx	#$b9
    33b0: a0 00        	ldy	#$0
    33b2: 86 12        	stx	$12                     ; 0x12 <__rc2>
    33b4: 84 13        	sty	$13                     ; 0x13 <__rc3>
    33b6: a0 01        	ldy	#$1
    33b8: a9 a0        	lda	#$a0
    33ba: 18           	clc
    33bb: 69 02        	adc	#$2
    33bd: 85 df        	sta	$df                     ; 0xdf <__pal_size+0x5f>
    33bf: a9 00        	lda	#$0
    33c1: 69 00        	adc	#$0
    33c3: 85 e0        	sta	$e0                     ; 0xe0 <__pal_size+0x60>
    33c5: e6 12        	inc	$12                     ; 0x12 <__rc2>
    33c7: d0 02        	bne	$33cb <printf+0x55>
    33c9: e6 13        	inc	$13                     ; 0x13 <__rc3>
    33cb: a6 12        	ldx	$12                     ; 0x12 <__rc2>
    33cd: 86 db        	stx	$db                     ; 0xdb <__pal_size+0x5b>
    33cf: a6 13        	ldx	$13                     ; 0x13 <__rc3>
    33d1: 86 dc        	stx	$dc                     ; 0xdc <__pal_size+0x5c>
    33d3: a2 42        	ldx	#$42
    33d5: 86 98        	stx	$98                     ; 0x98 <__pal_size+0x18>
    33d7: a2 48        	ldx	#$48
    33d9: 86 99        	stx	$99                     ; 0x99 <__pal_size+0x19>
    33db: a6 98        	ldx	$98                     ; 0x98 <__pal_size+0x18>
    33dd: 86 9c        	stx	$9c                     ; 0x9c <__pal_size+0x1c>
    33df: a6 99        	ldx	$99                     ; 0x99 <__pal_size+0x19>
    33e1: 86 9d        	stx	$9d                     ; 0x9d <__pal_size+0x1d>
    33e3: b2 98        	lda	($98)                   ; 0x98 <__pal_size+0x18>
    33e5: c9 25        	cmp	#$25
    33e7: f0 2d        	beq	$3416 <printf+0xa0>
    33e9: aa           	tax
    33ea: d0 03        	bne	$33ef <printf+0x79>
    33ec: 4c e7 40     	jmp	$40e7 <printf+0xd71>
    33ef: 85 67        	sta	$67                     ; 0x67 <__putchar.s>
    33f1: a2 67        	ldx	#$67
    33f3: 86 12        	stx	$12                     ; 0x12 <__rc2>
    33f5: a2 00        	ldx	#$0
    33f7: 86 13        	stx	$13                     ; 0x13 <__rc3>
    33f9: 84 98        	sty	$98                     ; 0x98 <__pal_size+0x18>
    33fb: 20 05 28     	jsr	$2805 <textPrint>
    33fe: a4 98        	ldy	$98                     ; 0x98 <__pal_size+0x18>
    3400: e6 9c        	inc	$9c                     ; 0x9c <__pal_size+0x1c>
    3402: d0 02        	bne	$3406 <printf+0x90>
    3404: e6 9d        	inc	$9d                     ; 0x9d <__pal_size+0x1d>
    3406: e6 c9        	inc	$c9                     ; 0xc9 <__pal_size+0x49>
    3408: d0 02        	bne	$340c <printf+0x96>
    340a: e6 ca        	inc	$ca                     ; 0xca <__pal_size+0x4a>
    340c: a6 9c        	ldx	$9c                     ; 0x9c <__pal_size+0x1c>
    340e: 86 98        	stx	$98                     ; 0x98 <__pal_size+0x18>
    3410: a6 9d        	ldx	$9d                     ; 0x9d <__pal_size+0x1d>
    3412: 86 99        	stx	$99                     ; 0x99 <__pal_size+0x19>
    3414: 80 c5        	bra	$33db <printf+0x65>
    3416: a6 98        	ldx	$98                     ; 0x98 <__pal_size+0x18>
    3418: 86 12        	stx	$12                     ; 0x12 <__rc2>
    341a: a6 99        	ldx	$99                     ; 0x99 <__pal_size+0x19>
    341c: 86 13        	stx	$13                     ; 0x13 <__rc3>
    341e: e6 12        	inc	$12                     ; 0x12 <__rc2>
    3420: d0 02        	bne	$3424 <printf+0xae>
    3422: e6 13        	inc	$13                     ; 0x13 <__rc3>
    3424: b1 9c        	lda	($9c),y                 ; 0x9c <__pal_size+0x1c>
    3426: c9 25        	cmp	#$25
    3428: d0 18        	bne	$3442 <printf+0xcc>
    342a: a2 01        	ldx	#$1
    342c: 86 13        	stx	$13                     ; 0x13 <__rc3>
    342e: a5 c9        	lda	$c9                     ; 0xc9 <__pal_size+0x49>
    3430: a4 ca        	ldy	$ca                     ; 0xca <__pal_size+0x4a>
    3432: c4 c8        	cpy	$c8                     ; 0xc8 <__pal_size+0x48>
    3434: f0 03        	beq	$3439 <printf+0xc3>
    3436: 4c 52 35     	jmp	$3552 <printf+0x1dc>
    3439: a6 c7        	ldx	$c7                     ; 0xc7 <__pal_size+0x47>
    343b: 86 12        	stx	$12                     ; 0x12 <__rc2>
    343d: c5 12        	cmp	$12                     ; 0x12 <__rc2>
    343f: 4c 54 35     	jmp	$3554 <printf+0x1de>
    3442: a2 01        	ldx	#$1
    3444: 86 15        	stx	$15                     ; 0x15 <__rc5>
    3446: 64 c5        	stz	$c5                     ; 0xc5 <__pal_size+0x45>
    3448: 64 c6        	stz	$c6                     ; 0xc6 <__pal_size+0x46>
    344a: 64 c4        	stz	$c4                     ; 0xc4 <__pal_size+0x44>
    344c: 64 cf        	stz	$cf                     ; 0xcf <__pal_size+0x4f>
    344e: 64 d0        	stz	$d0                     ; 0xd0 <__pal_size+0x50>
    3450: a2 ff        	ldx	#$ff
    3452: 86 d1        	stx	$d1                     ; 0xd1 <__pal_size+0x51>
    3454: 86 d2        	stx	$d2                     ; 0xd2 <__pal_size+0x52>
    3456: 64 96        	stz	$96                     ; 0x96 <__pal_size+0x16>
    3458: 80 33        	bra	$348d <printf+0x117>
    345a: a2 02        	ldx	#$2
    345c: 80 15        	bra	$3473 <printf+0xfd>
    345e: e0 20        	cpx	#$20
    3460: f0 15        	beq	$3477 <printf+0x101>
    3462: 86 16        	stx	$16                     ; 0x16 <__rc6>
    3464: e0 23        	cpx	#$23
    3466: f0 03        	beq	$346b <printf+0xf5>
    3468: 4c ea 34     	jmp	$34ea <printf+0x174>
    346b: a5 96        	lda	$96                     ; 0x96 <__pal_size+0x16>
    346d: a2 04        	ldx	#$4
    346f: 80 02        	bra	$3473 <printf+0xfd>
    3471: a2 10        	ldx	#$10
    3473: 86 14        	stx	$14                     ; 0x14 <__rc4>
    3475: 80 06        	bra	$347d <printf+0x107>
    3477: a2 08        	ldx	#$8
    3479: 86 14        	stx	$14                     ; 0x14 <__rc4>
    347b: a5 96        	lda	$96                     ; 0x96 <__pal_size+0x16>
    347d: 05 14        	ora	$14                     ; 0x14 <__rc4>
    347f: 85 96        	sta	$96                     ; 0x96 <__pal_size+0x16>
    3481: 85 c5        	sta	$c5                     ; 0xc5 <__pal_size+0x45>
    3483: a2 00        	ldx	#$0
    3485: 86 c6        	stx	$c6                     ; 0xc6 <__pal_size+0x46>
    3487: e6 12        	inc	$12                     ; 0x12 <__rc2>
    3489: d0 02        	bne	$348d <printf+0x117>
    348b: e6 13        	inc	$13                     ; 0x13 <__rc3>
    348d: b2 12        	lda	($12)                   ; 0x12 <__rc2>
    348f: aa           	tax
    3490: 18           	clc
    3491: 69 d6        	adc	#$d6
    3493: c9 07        	cmp	#$7
    3495: b0 c7        	bcs	$345e <printf+0xe8>
    3497: 86 16        	stx	$16                     ; 0x16 <__rc6>
    3499: 0a           	asl
    349a: aa           	tax
    349b: a0 01        	ldy	#$1
    349d: 84 14        	sty	$14                     ; 0x14 <__rc4>
    349f: a5 96        	lda	$96                     ; 0x96 <__pal_size+0x16>
    34a1: 7c b7 47     	jmp	($47b7,x)               ; 0x47b7 <__BLOCK_SIZE+0x27b7>
    34a4: a5 d5        	lda	$d5                     ; 0xd5 <__pal_size+0x55>
    34a6: a6 d6        	ldx	$d6                     ; 0xd6 <__pal_size+0x56>
    34a8: 85 16        	sta	$16                     ; 0x16 <__rc6>
    34aa: 86 17        	stx	$17                     ; 0x17 <__rc7>
    34ac: 18           	clc
    34ad: 69 02        	adc	#$2
    34af: a8           	tay
    34b0: 8a           	txa
    34b1: 69 00        	adc	#$0
    34b3: 84 d5        	sty	$d5                     ; 0xd5 <__pal_size+0x55>
    34b5: 85 d6        	sta	$d6                     ; 0xd6 <__pal_size+0x56>
    34b7: b2 16        	lda	($16)                   ; 0x16 <__rc6>
    34b9: 85 15        	sta	$15                     ; 0x15 <__rc5>
    34bb: a0 01        	ldy	#$1
    34bd: b1 16        	lda	($16),y                 ; 0x16 <__rc6>
    34bf: 85 14        	sta	$14                     ; 0x14 <__rc4>
    34c1: 10 15        	bpl	$34d8 <printf+0x162>
    34c3: a5 96        	lda	$96                     ; 0x96 <__pal_size+0x16>
    34c5: 09 01        	ora	#$1
    34c7: 85 96        	sta	$96                     ; 0x96 <__pal_size+0x16>
    34c9: 85 c5        	sta	$c5                     ; 0xc5 <__pal_size+0x45>
    34cb: a2 00        	ldx	#$0
    34cd: 86 c6        	stx	$c6                     ; 0xc6 <__pal_size+0x46>
    34cf: 8a           	txa
    34d0: 38           	sec
    34d1: e5 15        	sbc	$15                     ; 0x15 <__rc5>
    34d3: 85 15        	sta	$15                     ; 0x15 <__rc5>
    34d5: 8a           	txa
    34d6: e5 14        	sbc	$14                     ; 0x14 <__rc4>
    34d8: a6 15        	ldx	$15                     ; 0x15 <__rc5>
    34da: 86 cf        	stx	$cf                     ; 0xcf <__pal_size+0x4f>
    34dc: 85 d0        	sta	$d0                     ; 0xd0 <__pal_size+0x50>
    34de: e6 12        	inc	$12                     ; 0x12 <__rc2>
    34e0: f0 03        	beq	$34e5 <printf+0x16f>
    34e2: 4c be 35     	jmp	$35be <printf+0x248>
    34e5: e6 13        	inc	$13                     ; 0x13 <__rc3>
    34e7: 4c be 35     	jmp	$35be <printf+0x248>
    34ea: a5 16        	lda	$16                     ; 0x16 <__rc6>
    34ec: 18           	clc
    34ed: 69 d0        	adc	#$d0
    34ef: c9 0a        	cmp	#$a
    34f1: 90 03        	bcc	$34f6 <printf+0x180>
    34f3: 4c b0 35     	jmp	$35b0 <printf+0x23a>
    34f6: a6 16        	ldx	$16                     ; 0x16 <__rc6>
    34f8: 86 14        	stx	$14                     ; 0x14 <__rc4>
    34fa: 64 16        	stz	$16                     ; 0x16 <__rc6>
    34fc: 64 15        	stz	$15                     ; 0x15 <__rc5>
    34fe: 64 17        	stz	$17                     ; 0x17 <__rc7>
    3500: a0 01        	ldy	#$1
    3502: a2 00        	ldx	#$0
    3504: 06 16        	asl	$16                     ; 0x16 <__rc6>
    3506: 26 17        	rol	$17                     ; 0x17 <__rc7>
    3508: a5 16        	lda	$16                     ; 0x16 <__rc6>
    350a: 0a           	asl
    350b: 85 18        	sta	$18                     ; 0x18 <__rc8>
    350d: a5 17        	lda	$17                     ; 0x17 <__rc7>
    350f: 2a           	rol
    3510: 06 18        	asl	$18                     ; 0x18 <__rc8>
    3512: 2a           	rol
    3513: 85 19        	sta	$19                     ; 0x19 <__rc9>
    3515: a5 18        	lda	$18                     ; 0x18 <__rc8>
    3517: 18           	clc
    3518: 65 16        	adc	$16                     ; 0x16 <__rc6>
    351a: 85 16        	sta	$16                     ; 0x16 <__rc6>
    351c: a5 19        	lda	$19                     ; 0x19 <__rc9>
    351e: 65 17        	adc	$17                     ; 0x17 <__rc7>
    3520: 85 17        	sta	$17                     ; 0x17 <__rc7>
    3522: a5 16        	lda	$16                     ; 0x16 <__rc6>
    3524: 18           	clc
    3525: 65 14        	adc	$14                     ; 0x14 <__rc4>
    3527: 85 14        	sta	$14                     ; 0x14 <__rc4>
    3529: a5 17        	lda	$17                     ; 0x17 <__rc7>
    352b: 65 15        	adc	$15                     ; 0x15 <__rc5>
    352d: 85 15        	sta	$15                     ; 0x15 <__rc5>
    352f: 18           	clc
    3530: a5 14        	lda	$14                     ; 0x14 <__rc4>
    3532: 69 d0        	adc	#$d0
    3534: 85 16        	sta	$16                     ; 0x16 <__rc6>
    3536: a5 15        	lda	$15                     ; 0x15 <__rc5>
    3538: 69 ff        	adc	#$ff
    353a: 85 17        	sta	$17                     ; 0x17 <__rc7>
    353c: b1 12        	lda	($12),y                 ; 0x12 <__rc2>
    353e: 85 14        	sta	$14                     ; 0x14 <__rc4>
    3540: 18           	clc
    3541: 69 d0        	adc	#$d0
    3543: e6 12        	inc	$12                     ; 0x12 <__rc2>
    3545: d0 02        	bne	$3549 <printf+0x1d3>
    3547: e6 13        	inc	$13                     ; 0x13 <__rc3>
    3549: c9 0a        	cmp	#$a
    354b: 64 15        	stz	$15                     ; 0x15 <__rc5>
    354d: 90 b5        	bcc	$3504 <printf+0x18e>
    354f: 4c b6 35     	jmp	$35b6 <printf+0x240>
    3552: c4 c8        	cpy	$c8                     ; 0xc8 <__pal_size+0x48>
    3554: 84 16        	sty	$16                     ; 0x16 <__rc6>
    3556: a4 13        	ldy	$13                     ; 0x13 <__rc3>
    3558: b0 40        	bcs	$359a <printf+0x224>
    355a: a2 01        	ldx	#$1
    355c: 86 14        	stx	$14                     ; 0x14 <__rc4>
    355e: a6 d4        	ldx	$d4                     ; 0xd4 <__pal_size+0x54>
    3560: a0 00        	ldy	#$0
    3562: 84 12        	sty	$12                     ; 0x12 <__rc2>
    3564: a0 00        	ldy	#$0
    3566: 84 13        	sty	$13                     ; 0x13 <__rc3>
    3568: e4 13        	cpx	$13                     ; 0x13 <__rc3>
    356a: d0 19        	bne	$3585 <printf+0x20f>
    356c: a6 d3        	ldx	$d3                     ; 0xd3 <__pal_size+0x53>
    356e: e4 12        	cpx	$12                     ; 0x12 <__rc2>
    3570: d0 13        	bne	$3585 <printf+0x20f>
    3572: a4 14        	ldy	$14                     ; 0x14 <__rc4>
    3574: 18           	clc
    3575: 65 cd        	adc	$cd                     ; 0xcd <__pal_size+0x4d>
    3577: 85 12        	sta	$12                     ; 0x12 <__rc2>
    3579: a5 16        	lda	$16                     ; 0x16 <__rc6>
    357b: 65 ce        	adc	$ce                     ; 0xce <__pal_size+0x4e>
    357d: 85 13        	sta	$13                     ; 0x13 <__rc3>
    357f: a9 25        	lda	#$25
    3581: 92 12        	sta	($12)                   ; 0x12 <__rc2>
    3583: 80 15        	bra	$359a <printf+0x224>
    3585: a2 01        	ldx	#$1
    3587: 86 98        	stx	$98                     ; 0x98 <__pal_size+0x18>
    3589: a2 25        	ldx	#$25
    358b: 86 67        	stx	$67                     ; 0x67 <__putchar.s>
    358d: a2 67        	ldx	#$67
    358f: 86 12        	stx	$12                     ; 0x12 <__rc2>
    3591: a2 00        	ldx	#$0
    3593: 86 13        	stx	$13                     ; 0x13 <__rc3>
    3595: 20 05 28     	jsr	$2805 <textPrint>
    3598: a4 98        	ldy	$98                     ; 0x98 <__pal_size+0x18>
    359a: e6 c9        	inc	$c9                     ; 0xc9 <__pal_size+0x49>
    359c: d0 02        	bne	$35a0 <printf+0x22a>
    359e: e6 ca        	inc	$ca                     ; 0xca <__pal_size+0x4a>
    35a0: a5 9c        	lda	$9c                     ; 0x9c <__pal_size+0x1c>
    35a2: 18           	clc
    35a3: 69 02        	adc	#$2
    35a5: 85 98        	sta	$98                     ; 0x98 <__pal_size+0x18>
    35a7: a5 9d        	lda	$9d                     ; 0x9d <__pal_size+0x1d>
    35a9: 69 00        	adc	#$0
    35ab: 85 99        	sta	$99                     ; 0x99 <__pal_size+0x19>
    35ad: 4c db 33     	jmp	$33db <printf+0x65>
    35b0: 64 16        	stz	$16                     ; 0x16 <__rc6>
    35b2: 64 17        	stz	$17                     ; 0x17 <__rc7>
    35b4: a4 15        	ldy	$15                     ; 0x15 <__rc5>
    35b6: a6 16        	ldx	$16                     ; 0x16 <__rc6>
    35b8: 86 cf        	stx	$cf                     ; 0xcf <__pal_size+0x4f>
    35ba: a5 17        	lda	$17                     ; 0x17 <__rc7>
    35bc: 85 d0        	sta	$d0                     ; 0xd0 <__pal_size+0x50>
    35be: 86 9b        	stx	$9b                     ; 0x9b <__pal_size+0x1b>
    35c0: 85 9a        	sta	$9a                     ; 0x9a <__pal_size+0x1a>
    35c2: b2 12        	lda	($12)                   ; 0x12 <__rc2>
    35c4: a2 ff        	ldx	#$ff
    35c6: c9 2e        	cmp	#$2e
    35c8: d0 39        	bne	$3603 <printf+0x28d>
    35ca: b1 12        	lda	($12),y                 ; 0x12 <__rc2>
    35cc: c9 2a        	cmp	#$2a
    35ce: d0 38        	bne	$3608 <printf+0x292>
    35d0: a5 d5        	lda	$d5                     ; 0xd5 <__pal_size+0x55>
    35d2: a6 d6        	ldx	$d6                     ; 0xd6 <__pal_size+0x56>
    35d4: 85 14        	sta	$14                     ; 0x14 <__rc4>
    35d6: 86 15        	stx	$15                     ; 0x15 <__rc5>
    35d8: 18           	clc
    35d9: 69 02        	adc	#$2
    35db: 85 16        	sta	$16                     ; 0x16 <__rc6>
    35dd: 8a           	txa
    35de: 69 00        	adc	#$0
    35e0: a6 16        	ldx	$16                     ; 0x16 <__rc6>
    35e2: 86 d5        	stx	$d5                     ; 0xd5 <__pal_size+0x55>
    35e4: 85 d6        	sta	$d6                     ; 0xd6 <__pal_size+0x56>
    35e6: a5 12        	lda	$12                     ; 0x12 <__rc2>
    35e8: 18           	clc
    35e9: 69 02        	adc	#$2
    35eb: 85 12        	sta	$12                     ; 0x12 <__rc2>
    35ed: a5 13        	lda	$13                     ; 0x13 <__rc3>
    35ef: 69 00        	adc	#$0
    35f1: 85 13        	sta	$13                     ; 0x13 <__rc3>
    35f3: b2 14        	lda	($14)                   ; 0x14 <__rc4>
    35f5: aa           	tax
    35f6: b1 14        	lda	($14),y                 ; 0x14 <__rc4>
    35f8: 86 18        	stx	$18                     ; 0x18 <__rc8>
    35fa: 86 d1        	stx	$d1                     ; 0xd1 <__pal_size+0x51>
    35fc: 85 19        	sta	$19                     ; 0x19 <__rc9>
    35fe: 85 d2        	sta	$d2                     ; 0xd2 <__pal_size+0x52>
    3600: 4c c6 36     	jmp	$36c6 <printf+0x350>
    3603: 86 18        	stx	$18                     ; 0x18 <__rc8>
    3605: 4c d6 36     	jmp	$36d6 <printf+0x360>
    3608: 18           	clc
    3609: 85 17        	sta	$17                     ; 0x17 <__rc7>
    360b: 69 d0        	adc	#$d0
    360d: c9 0a        	cmp	#$a
    360f: 90 03        	bcc	$3614 <printf+0x29e>
    3611: 4c b8 36     	jmp	$36b8 <printf+0x342>
    3614: 64 16        	stz	$16                     ; 0x16 <__rc6>
    3616: a2 01        	ldx	#$1
    3618: 64 18        	stz	$18                     ; 0x18 <__rc8>
    361a: 64 19        	stz	$19                     ; 0x19 <__rc9>
    361c: 84 1b        	sty	$1b                     ; 0x1b <__rc11>
    361e: 64 1c        	stz	$1c                     ; 0x1c <__rc12>
    3620: 18           	clc
    3621: a0 01        	ldy	#$1
    3623: b0 02        	bcs	$3627 <printf+0x2b1>
    3625: a0 00        	ldy	#$0
    3627: 84 1d        	sty	$1d                     ; 0x1d <__rc13>
    3629: a4 1c        	ldy	$1c                     ; 0x1c <__rc12>
    362b: 84 14        	sty	$14                     ; 0x14 <__rc4>
    362d: 86 15        	stx	$15                     ; 0x15 <__rc5>
    362f: 06 18        	asl	$18                     ; 0x18 <__rc8>
    3631: 26 19        	rol	$19                     ; 0x19 <__rc9>
    3633: a5 18        	lda	$18                     ; 0x18 <__rc8>
    3635: 0a           	asl
    3636: a8           	tay
    3637: a5 19        	lda	$19                     ; 0x19 <__rc9>
    3639: 2a           	rol
    363a: 84 1f        	sty	$1f                     ; 0x1f <__rc15>
    363c: 06 1f        	asl	$1f                     ; 0x1f <__rc15>
    363e: 2a           	rol
    363f: 85 22        	sta	$22                     ; 0x22 <__rc18>
    3641: a5 1f        	lda	$1f                     ; 0x1f <__rc15>
    3643: a4 1d        	ldy	$1d                     ; 0x1d <__rc13>
    3645: c0 01        	cpy	#$1
    3647: 65 18        	adc	$18                     ; 0x18 <__rc8>
    3649: 85 18        	sta	$18                     ; 0x18 <__rc8>
    364b: a5 22        	lda	$22                     ; 0x22 <__rc18>
    364d: 65 19        	adc	$19                     ; 0x19 <__rc9>
    364f: 85 19        	sta	$19                     ; 0x19 <__rc9>
    3651: a5 18        	lda	$18                     ; 0x18 <__rc8>
    3653: a4 1d        	ldy	$1d                     ; 0x1d <__rc13>
    3655: c0 01        	cpy	#$1
    3657: 65 17        	adc	$17                     ; 0x17 <__rc7>
    3659: 85 17        	sta	$17                     ; 0x17 <__rc7>
    365b: a5 19        	lda	$19                     ; 0x19 <__rc9>
    365d: 65 16        	adc	$16                     ; 0x16 <__rc6>
    365f: 85 16        	sta	$16                     ; 0x16 <__rc6>
    3661: 18           	clc
    3662: a5 17        	lda	$17                     ; 0x17 <__rc7>
    3664: 69 d0        	adc	#$d0
    3666: 85 18        	sta	$18                     ; 0x18 <__rc8>
    3668: a5 16        	lda	$16                     ; 0x16 <__rc6>
    366a: 69 ff        	adc	#$ff
    366c: 85 19        	sta	$19                     ; 0x19 <__rc9>
    366e: e8           	inx
    366f: d0 02        	bne	$3673 <printf+0x2fd>
    3671: e6 1c        	inc	$1c                     ; 0x1c <__rc12>
    3673: a5 12        	lda	$12                     ; 0x12 <__rc2>
    3675: a4 1d        	ldy	$1d                     ; 0x1d <__rc13>
    3677: c0 01        	cpy	#$1
    3679: 65 15        	adc	$15                     ; 0x15 <__rc5>
    367b: a8           	tay
    367c: a5 13        	lda	$13                     ; 0x13 <__rc3>
    367e: 65 14        	adc	$14                     ; 0x14 <__rc4>
    3680: 84 16        	sty	$16                     ; 0x16 <__rc6>
    3682: 85 17        	sta	$17                     ; 0x17 <__rc7>
    3684: a4 1b        	ldy	$1b                     ; 0x1b <__rc11>
    3686: b1 16        	lda	($16),y                 ; 0x16 <__rc6>
    3688: 85 17        	sta	$17                     ; 0x17 <__rc7>
    368a: 18           	clc
    368b: 69 d0        	adc	#$d0
    368d: c9 0a        	cmp	#$a
    368f: 64 16        	stz	$16                     ; 0x16 <__rc6>
    3691: b0 03        	bcs	$3696 <printf+0x320>
    3693: 4c 29 36     	jmp	$3629 <printf+0x2b3>
    3696: a5 12        	lda	$12                     ; 0x12 <__rc2>
    3698: a6 1d        	ldx	$1d                     ; 0x1d <__rc13>
    369a: e0 01        	cpx	#$1
    369c: 65 15        	adc	$15                     ; 0x15 <__rc5>
    369e: 85 12        	sta	$12                     ; 0x12 <__rc2>
    36a0: a5 13        	lda	$13                     ; 0x13 <__rc3>
    36a2: 65 14        	adc	$14                     ; 0x14 <__rc4>
    36a4: 85 13        	sta	$13                     ; 0x13 <__rc3>
    36a6: e6 12        	inc	$12                     ; 0x12 <__rc2>
    36a8: d0 02        	bne	$36ac <printf+0x336>
    36aa: e6 13        	inc	$13                     ; 0x13 <__rc3>
    36ac: a6 18        	ldx	$18                     ; 0x18 <__rc8>
    36ae: 86 d1        	stx	$d1                     ; 0xd1 <__pal_size+0x51>
    36b0: a6 19        	ldx	$19                     ; 0x19 <__rc9>
    36b2: 86 d2        	stx	$d2                     ; 0xd2 <__pal_size+0x52>
    36b4: a4 1b        	ldy	$1b                     ; 0x1b <__rc11>
    36b6: 80 0e        	bra	$36c6 <printf+0x350>
    36b8: e6 12        	inc	$12                     ; 0x12 <__rc2>
    36ba: d0 02        	bne	$36be <printf+0x348>
    36bc: e6 13        	inc	$13                     ; 0x13 <__rc3>
    36be: 64 18        	stz	$18                     ; 0x18 <__rc8>
    36c0: 64 d1        	stz	$d1                     ; 0xd1 <__pal_size+0x51>
    36c2: 64 d2        	stz	$d2                     ; 0xd2 <__pal_size+0x52>
    36c4: 64 19        	stz	$19                     ; 0x19 <__rc9>
    36c6: a5 96        	lda	$96                     ; 0x96 <__pal_size+0x16>
    36c8: 29 ef        	and	#$ef
    36ca: 85 96        	sta	$96                     ; 0x96 <__pal_size+0x16>
    36cc: 85 c5        	sta	$c5                     ; 0xc5 <__pal_size+0x45>
    36ce: a2 00        	ldx	#$0
    36d0: 86 c6        	stx	$c6                     ; 0xc6 <__pal_size+0x46>
    36d2: b2 12        	lda	($12)                   ; 0x12 <__rc2>
    36d4: a6 19        	ldx	$19                     ; 0x19 <__rc9>
    36d6: 86 14        	stx	$14                     ; 0x14 <__rc4>
    36d8: a6 12        	ldx	$12                     ; 0x12 <__rc2>
    36da: 86 98        	stx	$98                     ; 0x98 <__pal_size+0x18>
    36dc: a6 13        	ldx	$13                     ; 0x13 <__rc3>
    36de: 86 99        	stx	$99                     ; 0x99 <__pal_size+0x19>
    36e0: e6 98        	inc	$98                     ; 0x98 <__pal_size+0x18>
    36e2: d0 02        	bne	$36e6 <printf+0x370>
    36e4: e6 99        	inc	$99                     ; 0x99 <__pal_size+0x19>
    36e6: 38           	sec
    36e7: aa           	tax
    36e8: e9 6c        	sbc	#$6c
    36ea: 50 02        	bvc	$36ee <printf+0x378>
    36ec: 49 80        	eor	#$80
    36ee: c9 00        	cmp	#$0
    36f0: 10 28        	bpl	$371a <printf+0x3a4>
    36f2: e0 4c        	cpx	#$4c
    36f4: f0 4c        	beq	$3742 <printf+0x3cc>
    36f6: e0 68        	cpx	#$68
    36f8: d0 03        	bne	$36fd <printf+0x387>
    36fa: 4c 7d 37     	jmp	$377d <printf+0x407>
    36fd: da           	phx
    36fe: 7a           	ply
    36ff: a9 01        	lda	#$1
    3701: a6 9c        	ldx	$9c                     ; 0x9c <__pal_size+0x1c>
    3703: 86 d9        	stx	$d9                     ; 0xd9 <__pal_size+0x59>
    3705: a6 9d        	ldx	$9d                     ; 0x9d <__pal_size+0x1d>
    3707: 86 da        	stx	$da                     ; 0xda <__pal_size+0x5a>
    3709: a2 08        	ldx	#$8
    370b: c0 6a        	cpy	#$6a
    370d: d0 2e        	bne	$373d <printf+0x3c7>
    370f: a4 98        	ldy	$98                     ; 0x98 <__pal_size+0x18>
    3711: 84 12        	sty	$12                     ; 0x12 <__rc2>
    3713: a4 99        	ldy	$99                     ; 0x99 <__pal_size+0x19>
    3715: 84 13        	sty	$13                     ; 0x13 <__rc3>
    3717: 4c 79 37     	jmp	$3779 <printf+0x403>
    371a: e0 6c        	cpx	#$6c
    371c: f0 3b        	beq	$3759 <printf+0x3e3>
    371e: e0 74        	cpx	#$74
    3720: d0 03        	bne	$3725 <printf+0x3af>
    3722: 4c a5 37     	jmp	$37a5 <printf+0x42f>
    3725: da           	phx
    3726: 7a           	ply
    3727: a9 01        	lda	#$1
    3729: a6 9c        	ldx	$9c                     ; 0x9c <__pal_size+0x1c>
    372b: 86 d9        	stx	$d9                     ; 0xd9 <__pal_size+0x59>
    372d: a6 9d        	ldx	$9d                     ; 0x9d <__pal_size+0x1d>
    372f: 86 da        	stx	$da                     ; 0xda <__pal_size+0x5a>
    3731: c0 7a        	cpy	#$7a
    3733: d0 08        	bne	$373d <printf+0x3c7>
    3735: a6 98        	ldx	$98                     ; 0x98 <__pal_size+0x18>
    3737: 86 12        	stx	$12                     ; 0x12 <__rc2>
    3739: a6 99        	ldx	$99                     ; 0x99 <__pal_size+0x19>
    373b: 86 13        	stx	$13                     ; 0x13 <__rc3>
    373d: a2 02        	ldx	#$2
    373f: 4c b8 37     	jmp	$37b8 <printf+0x442>
    3742: a6 9c        	ldx	$9c                     ; 0x9c <__pal_size+0x1c>
    3744: 86 d9        	stx	$d9                     ; 0xd9 <__pal_size+0x59>
    3746: a6 9d        	ldx	$9d                     ; 0x9d <__pal_size+0x1d>
    3748: 86 da        	stx	$da                     ; 0xda <__pal_size+0x5a>
    374a: a5 96        	lda	$96                     ; 0x96 <__pal_size+0x16>
    374c: 09 40        	ora	#$40
    374e: 85 96        	sta	$96                     ; 0x96 <__pal_size+0x16>
    3750: 85 c5        	sta	$c5                     ; 0xc5 <__pal_size+0x45>
    3752: a2 00        	ldx	#$0
    3754: 86 c6        	stx	$c6                     ; 0xc6 <__pal_size+0x46>
    3756: 4c ad 37     	jmp	$37ad <printf+0x437>
    3759: a6 9c        	ldx	$9c                     ; 0x9c <__pal_size+0x1c>
    375b: 86 d9        	stx	$d9                     ; 0xd9 <__pal_size+0x59>
    375d: a6 9d        	ldx	$9d                     ; 0x9d <__pal_size+0x1d>
    375f: 86 da        	stx	$da                     ; 0xda <__pal_size+0x5a>
    3761: b1 12        	lda	($12),y                 ; 0x12 <__rc2>
    3763: a2 04        	ldx	#$4
    3765: c9 6c        	cmp	#$6c
    3767: d0 38        	bne	$37a1 <printf+0x42b>
    3769: a5 12        	lda	$12                     ; 0x12 <__rc2>
    376b: 18           	clc
    376c: 69 02        	adc	#$2
    376e: 85 12        	sta	$12                     ; 0x12 <__rc2>
    3770: a5 13        	lda	$13                     ; 0x13 <__rc3>
    3772: 69 00        	adc	#$0
    3774: 85 13        	sta	$13                     ; 0x13 <__rc3>
    3776: a2 08        	ldx	#$8
    3778: 98           	tya
    3779: a0 08        	ldy	#$8
    377b: 80 3d        	bra	$37ba <printf+0x444>
    377d: a6 9c        	ldx	$9c                     ; 0x9c <__pal_size+0x1c>
    377f: 86 d9        	stx	$d9                     ; 0xd9 <__pal_size+0x59>
    3781: a6 9d        	ldx	$9d                     ; 0x9d <__pal_size+0x1d>
    3783: 86 da        	stx	$da                     ; 0xda <__pal_size+0x5a>
    3785: b1 12        	lda	($12),y                 ; 0x12 <__rc2>
    3787: a2 02        	ldx	#$2
    3789: c9 68        	cmp	#$68
    378b: d0 14        	bne	$37a1 <printf+0x42b>
    378d: a5 12        	lda	$12                     ; 0x12 <__rc2>
    378f: 18           	clc
    3790: 69 02        	adc	#$2
    3792: 85 12        	sta	$12                     ; 0x12 <__rc2>
    3794: a5 13        	lda	$13                     ; 0x13 <__rc3>
    3796: 69 00        	adc	#$0
    3798: 85 13        	sta	$13                     ; 0x13 <__rc3>
    379a: a2 01        	ldx	#$1
    379c: 86 97        	stx	$97                     ; 0x97 <__pal_size+0x17>
    379e: e8           	inx
    379f: 80 1c        	bra	$37bd <printf+0x447>
    37a1: 86 97        	stx	$97                     ; 0x97 <__pal_size+0x17>
    37a3: 80 24        	bra	$37c9 <printf+0x453>
    37a5: a6 9c        	ldx	$9c                     ; 0x9c <__pal_size+0x1c>
    37a7: 86 d9        	stx	$d9                     ; 0xd9 <__pal_size+0x59>
    37a9: a6 9d        	ldx	$9d                     ; 0x9d <__pal_size+0x1d>
    37ab: 86 da        	stx	$da                     ; 0xda <__pal_size+0x5a>
    37ad: a6 98        	ldx	$98                     ; 0x98 <__pal_size+0x18>
    37af: 86 12        	stx	$12                     ; 0x12 <__rc2>
    37b1: a6 99        	ldx	$99                     ; 0x99 <__pal_size+0x19>
    37b3: 86 13        	stx	$13                     ; 0x13 <__rc3>
    37b5: a2 02        	ldx	#$2
    37b7: 98           	tya
    37b8: a0 02        	ldy	#$2
    37ba: 84 97        	sty	$97                     ; 0x97 <__pal_size+0x17>
    37bc: a8           	tay
    37bd: b2 12        	lda	($12)                   ; 0x12 <__rc2>
    37bf: 5a           	phy
    37c0: a4 12        	ldy	$12                     ; 0x12 <__rc2>
    37c2: 84 98        	sty	$98                     ; 0x98 <__pal_size+0x18>
    37c4: a4 13        	ldy	$13                     ; 0x13 <__rc3>
    37c6: 84 99        	sty	$99                     ; 0x99 <__pal_size+0x19>
    37c8: 7a           	ply
    37c9: 86 9e        	stx	$9e                     ; 0x9e <__pal_size+0x1e>
    37cb: aa           	tax
    37cc: 18           	clc
    37cd: 69 9d        	adc	#$9d
    37cf: c9 16        	cmp	#$16
    37d1: b0 1a        	bcs	$37ed <printf+0x477>
    37d3: 0a           	asl
    37d4: aa           	tax
    37d5: 7c c5 47     	jmp	($47c5,x)               ; 0x47c5 <__BLOCK_SIZE+0x27c5>
    37d8: a6 14        	ldx	$14                     ; 0x14 <__rc4>
    37da: 86 dd        	stx	$dd                     ; 0xdd <__pal_size+0x5d>
    37dc: a6 18        	ldx	$18                     ; 0x18 <__rc8>
    37de: 86 de        	stx	$de                     ; 0xde <__pal_size+0x5e>
    37e0: a0 0a        	ldy	#$a
    37e2: a2 0a        	ldx	#$a
    37e4: 86 94        	stx	$94                     ; 0x94 <__pal_size+0x14>
    37e6: 84 c4        	sty	$c4                     ; 0xc4 <__pal_size+0x44>
    37e8: 64 9f        	stz	$9f                     ; 0x9f <__pal_size+0x1f>
    37ea: 4c f2 38     	jmp	$38f2 <printf+0x57c>
    37ed: e0 58        	cpx	#$58
    37ef: f0 03        	beq	$37f4 <printf+0x47e>
    37f1: 4c a3 40     	jmp	$40a3 <printf+0xd2d>
    37f4: a6 14        	ldx	$14                     ; 0x14 <__rc4>
    37f6: 86 dd        	stx	$dd                     ; 0xdd <__pal_size+0x5d>
    37f8: a6 18        	ldx	$18                     ; 0x18 <__rc8>
    37fa: 86 de        	stx	$de                     ; 0xde <__pal_size+0x5e>
    37fc: a2 10        	ldx	#$10
    37fe: 86 c4        	stx	$c4                     ; 0xc4 <__pal_size+0x44>
    3800: a9 00        	lda	#$0
    3802: 09 01        	ora	#$1
    3804: a6 96        	ldx	$96                     ; 0x96 <__pal_size+0x16>
    3806: 80 29        	bra	$3831 <printf+0x4bb>
    3808: a6 14        	ldx	$14                     ; 0x14 <__rc4>
    380a: 86 dd        	stx	$dd                     ; 0xdd <__pal_size+0x5d>
    380c: a6 18        	ldx	$18                     ; 0x18 <__rc8>
    380e: 86 de        	stx	$de                     ; 0xde <__pal_size+0x5e>
    3810: a2 10        	ldx	#$10
    3812: 86 c4        	stx	$c4                     ; 0xc4 <__pal_size+0x44>
    3814: a5 96        	lda	$96                     ; 0x96 <__pal_size+0x16>
    3816: 09 84        	ora	#$84
    3818: 80 10        	bra	$382a <printf+0x4b4>
    381a: a6 14        	ldx	$14                     ; 0x14 <__rc4>
    381c: 86 dd        	stx	$dd                     ; 0xdd <__pal_size+0x5d>
    381e: a6 18        	ldx	$18                     ; 0x18 <__rc8>
    3820: 86 de        	stx	$de                     ; 0xde <__pal_size+0x5e>
    3822: a2 10        	ldx	#$10
    3824: 86 c4        	stx	$c4                     ; 0xc4 <__pal_size+0x44>
    3826: a5 96        	lda	$96                     ; 0x96 <__pal_size+0x16>
    3828: 09 80        	ora	#$80
    382a: aa           	tax
    382b: a9 00        	lda	#$0
    382d: 09 01        	ora	#$1
    382f: 86 96        	stx	$96                     ; 0x96 <__pal_size+0x16>
    3831: 86 c5        	stx	$c5                     ; 0xc5 <__pal_size+0x45>
    3833: 85 9f        	sta	$9f                     ; 0x9f <__pal_size+0x1f>
    3835: 85 c6        	sta	$c6                     ; 0xc6 <__pal_size+0x46>
    3837: a2 10        	ldx	#$10
    3839: 86 94        	stx	$94                     ; 0x94 <__pal_size+0x14>
    383b: 4c f2 38     	jmp	$38f2 <printf+0x57c>
    383e: a5 d5        	lda	$d5                     ; 0xd5 <__pal_size+0x55>
    3840: a6 d6        	ldx	$d6                     ; 0xd6 <__pal_size+0x56>
    3842: 85 12        	sta	$12                     ; 0x12 <__rc2>
    3844: 86 13        	stx	$13                     ; 0x13 <__rc3>
    3846: 18           	clc
    3847: 69 02        	adc	#$2
    3849: 85 14        	sta	$14                     ; 0x14 <__rc4>
    384b: 8a           	txa
    384c: 69 00        	adc	#$0
    384e: a6 14        	ldx	$14                     ; 0x14 <__rc4>
    3850: 86 d5        	stx	$d5                     ; 0xd5 <__pal_size+0x55>
    3852: 85 d6        	sta	$d6                     ; 0xd6 <__pal_size+0x56>
    3854: b2 12        	lda	($12)                   ; 0x12 <__rc2>
    3856: aa           	tax
    3857: b1 12        	lda	($12),y                 ; 0x12 <__rc2>
    3859: 86 12        	stx	$12                     ; 0x12 <__rc2>
    385b: 85 13        	sta	$13                     ; 0x13 <__rc3>
    385d: a5 c9        	lda	$c9                     ; 0xc9 <__pal_size+0x49>
    385f: a6 ca        	ldx	$ca                     ; 0xca <__pal_size+0x4a>
    3861: 92 12        	sta	($12)                   ; 0x12 <__rc2>
    3863: 8a           	txa
    3864: 91 12        	sta	($12),y                 ; 0x12 <__rc2>
    3866: 4c cb 38     	jmp	$38cb <printf+0x555>
    3869: a5 d5        	lda	$d5                     ; 0xd5 <__pal_size+0x55>
    386b: a6 d6        	ldx	$d6                     ; 0xd6 <__pal_size+0x56>
    386d: 85 12        	sta	$12                     ; 0x12 <__rc2>
    386f: 86 13        	stx	$13                     ; 0x13 <__rc3>
    3871: 18           	clc
    3872: 69 02        	adc	#$2
    3874: 85 14        	sta	$14                     ; 0x14 <__rc4>
    3876: 8a           	txa
    3877: 69 00        	adc	#$0
    3879: a6 14        	ldx	$14                     ; 0x14 <__rc4>
    387b: 86 d5        	stx	$d5                     ; 0xd5 <__pal_size+0x55>
    387d: 85 d6        	sta	$d6                     ; 0xd6 <__pal_size+0x56>
    387f: b2 12        	lda	($12)                   ; 0x12 <__rc2>
    3881: aa           	tax
    3882: b1 12        	lda	($12),y                 ; 0x12 <__rc2>
    3884: 86 12        	stx	$12                     ; 0x12 <__rc2>
    3886: 85 13        	sta	$13                     ; 0x13 <__rc3>
    3888: 80 32        	bra	$38bc <printf+0x546>
    388a: a6 14        	ldx	$14                     ; 0x14 <__rc4>
    388c: 86 dd        	stx	$dd                     ; 0xdd <__pal_size+0x5d>
    388e: a6 18        	ldx	$18                     ; 0x18 <__rc8>
    3890: 86 de        	stx	$de                     ; 0xde <__pal_size+0x5e>
    3892: a0 08        	ldy	#$8
    3894: a2 08        	ldx	#$8
    3896: 80 4a        	bra	$38e2 <printf+0x56c>
    3898: a5 d5        	lda	$d5                     ; 0xd5 <__pal_size+0x55>
    389a: a6 d6        	ldx	$d6                     ; 0xd6 <__pal_size+0x56>
    389c: 85 12        	sta	$12                     ; 0x12 <__rc2>
    389e: 86 13        	stx	$13                     ; 0x13 <__rc3>
    38a0: 18           	clc
    38a1: 69 02        	adc	#$2
    38a3: 85 14        	sta	$14                     ; 0x14 <__rc4>
    38a5: 8a           	txa
    38a6: 69 00        	adc	#$0
    38a8: a6 14        	ldx	$14                     ; 0x14 <__rc4>
    38aa: 86 d5        	stx	$d5                     ; 0xd5 <__pal_size+0x55>
    38ac: 85 d6        	sta	$d6                     ; 0xd6 <__pal_size+0x56>
    38ae: b2 12        	lda	($12)                   ; 0x12 <__rc2>
    38b0: 85 b7        	sta	$b7                     ; 0xb7 <__pal_size+0x37>
    38b2: 64 b8        	stz	$b8                     ; 0xb8 <__pal_size+0x38>
    38b4: a2 b7        	ldx	#$b7
    38b6: 86 12        	stx	$12                     ; 0x12 <__rc2>
    38b8: a2 00        	ldx	#$0
    38ba: 86 13        	stx	$13                     ; 0x13 <__rc3>
    38bc: a2 c4        	ldx	#$c4
    38be: 86 14        	stx	$14                     ; 0x14 <__rc4>
    38c0: a2 00        	ldx	#$0
    38c2: 86 15        	stx	$15                     ; 0x15 <__rc5>
    38c4: 84 9a        	sty	$9a                     ; 0x9a <__pal_size+0x1a>
    38c6: 20 67 32     	jsr	$3267 <_ZN12_GLOBAL__N_112print_stringEPKcP6Status>
    38c9: a4 9a        	ldy	$9a                     ; 0x9a <__pal_size+0x1a>
    38cb: a6 d9        	ldx	$d9                     ; 0xd9 <__pal_size+0x59>
    38cd: 86 94        	stx	$94                     ; 0x94 <__pal_size+0x14>
    38cf: a6 da        	ldx	$da                     ; 0xda <__pal_size+0x5a>
    38d1: 86 95        	stx	$95                     ; 0x95 <__pal_size+0x15>
    38d3: 4c 83 40     	jmp	$4083 <printf+0xd0d>
    38d6: a6 14        	ldx	$14                     ; 0x14 <__rc4>
    38d8: 86 dd        	stx	$dd                     ; 0xdd <__pal_size+0x5d>
    38da: a6 18        	ldx	$18                     ; 0x18 <__rc8>
    38dc: 86 de        	stx	$de                     ; 0xde <__pal_size+0x5e>
    38de: a0 0a        	ldy	#$a
    38e0: a2 0a        	ldx	#$a
    38e2: 86 94        	stx	$94                     ; 0x94 <__pal_size+0x14>
    38e4: 84 c4        	sty	$c4                     ; 0xc4 <__pal_size+0x44>
    38e6: a9 00        	lda	#$0
    38e8: 09 01        	ora	#$1
    38ea: a6 96        	ldx	$96                     ; 0x96 <__pal_size+0x16>
    38ec: 86 c5        	stx	$c5                     ; 0xc5 <__pal_size+0x45>
    38ee: 85 9f        	sta	$9f                     ; 0x9f <__pal_size+0x1f>
    38f0: 85 c6        	sta	$c6                     ; 0xc6 <__pal_size+0x46>
    38f2: a5 97        	lda	$97                     ; 0x97 <__pal_size+0x17>
    38f4: 85 b9        	sta	$b9                     ; 0xb9 <__pal_size+0x39>
    38f6: a4 d5        	ldy	$d5                     ; 0xd5 <__pal_size+0x55>
    38f8: a6 d6        	ldx	$d6                     ; 0xd6 <__pal_size+0x56>
    38fa: 86 9c        	stx	$9c                     ; 0x9c <__pal_size+0x1c>
    38fc: 84 14        	sty	$14                     ; 0x14 <__rc4>
    38fe: 84 95        	sty	$95                     ; 0x95 <__pal_size+0x15>
    3900: 86 15        	stx	$15                     ; 0x15 <__rc5>
    3902: a6 db        	ldx	$db                     ; 0xdb <__pal_size+0x5b>
    3904: 86 12        	stx	$12                     ; 0x12 <__rc2>
    3906: a6 dc        	ldx	$dc                     ; 0xdc <__pal_size+0x5c>
    3908: 86 13        	stx	$13                     ; 0x13 <__rc3>
    390a: a2 00        	ldx	#$0
    390c: 85 9d        	sta	$9d                     ; 0x9d <__pal_size+0x1d>
    390e: 20 ce 42     	jsr	$42ce <memcpy>
    3911: 18           	clc
    3912: a5 95        	lda	$95                     ; 0x95 <__pal_size+0x15>
    3914: 65 9e        	adc	$9e                     ; 0x9e <__pal_size+0x1e>
    3916: aa           	tax
    3917: a5 9c        	lda	$9c                     ; 0x9c <__pal_size+0x1c>
    3919: 69 00        	adc	#$0
    391b: 86 d5        	stx	$d5                     ; 0xd5 <__pal_size+0x55>
    391d: 85 d6        	sta	$d6                     ; 0xd6 <__pal_size+0x56>
    391f: a5 9f        	lda	$9f                     ; 0x9f <__pal_size+0x1f>
    3921: 29 01        	and	#$1
    3923: a0 00        	ldy	#$0
    3925: aa           	tax
    3926: d0 4e        	bne	$3976 <printf+0x600>
    3928: a6 9d        	ldx	$9d                     ; 0x9d <__pal_size+0x1d>
    392a: b5 b9        	lda	$b9,x                   ; 0xb9 <__pal_size+0x39>
    392c: aa           	tax
    392d: a5 9b        	lda	$9b                     ; 0x9b <__pal_size+0x1b>
    392f: 85 17        	sta	$17                     ; 0x17 <__rc7>
    3931: a5 9a        	lda	$9a                     ; 0x9a <__pal_size+0x1a>
    3933: 85 1a        	sta	$1a                     ; 0x1a <__rc10>
    3935: a5 de        	lda	$de                     ; 0xde <__pal_size+0x5e>
    3937: 85 9a        	sta	$9a                     ; 0x9a <__pal_size+0x1a>
    3939: a5 dd        	lda	$dd                     ; 0xdd <__pal_size+0x5d>
    393b: 85 9b        	sta	$9b                     ; 0x9b <__pal_size+0x1b>
    393d: 8a           	txa
    393e: 10 46        	bpl	$3986 <printf+0x610>
    3940: a2 00        	ldx	#$0
    3942: 64 12        	stz	$12                     ; 0x12 <__rc2>
    3944: a9 00        	lda	#$0
    3946: 38           	sec
    3947: f5 ba        	sbc	$ba,x                   ; 0xba <__pal_size+0x3a>
    3949: a0 01        	ldy	#$1
    394b: 84 14        	sty	$14                     ; 0x14 <__rc4>
    394d: 88           	dey
    394e: b0 02        	bcs	$3952 <printf+0x5dc>
    3950: a0 01        	ldy	#$1
    3952: 38           	sec
    3953: e5 12        	sbc	$12                     ; 0x12 <__rc2>
    3955: 85 13        	sta	$13                     ; 0x13 <__rc3>
    3957: 64 12        	stz	$12                     ; 0x12 <__rc2>
    3959: b0 04        	bcs	$395f <printf+0x5e9>
    395b: a5 14        	lda	$14                     ; 0x14 <__rc4>
    395d: 85 12        	sta	$12                     ; 0x12 <__rc2>
    395f: 98           	tya
    3960: 05 12        	ora	$12                     ; 0x12 <__rc2>
    3962: 85 12        	sta	$12                     ; 0x12 <__rc2>
    3964: a5 13        	lda	$13                     ; 0x13 <__rc3>
    3966: 9d ba 00     	sta	$ba,x                   ; 0xba <__pal_size+0x3a>
    3969: e8           	inx
    396a: 86 13        	stx	$13                     ; 0x13 <__rc3>
    396c: a4 97        	ldy	$97                     ; 0x97 <__pal_size+0x17>
    396e: c4 13        	cpy	$13                     ; 0x13 <__rc3>
    3970: d0 d2        	bne	$3944 <printf+0x5ce>
    3972: a0 01        	ldy	#$1
    3974: 80 10        	bra	$3986 <printf+0x610>
    3976: a6 9b        	ldx	$9b                     ; 0x9b <__pal_size+0x1b>
    3978: 86 17        	stx	$17                     ; 0x17 <__rc7>
    397a: a6 9a        	ldx	$9a                     ; 0x9a <__pal_size+0x1a>
    397c: 86 1a        	stx	$1a                     ; 0x1a <__rc10>
    397e: a6 de        	ldx	$de                     ; 0xde <__pal_size+0x5e>
    3980: 86 9a        	stx	$9a                     ; 0x9a <__pal_size+0x1a>
    3982: a6 dd        	ldx	$dd                     ; 0xdd <__pal_size+0x5d>
    3984: 86 9b        	stx	$9b                     ; 0x9b <__pal_size+0x1b>
    3986: 84 18        	sty	$18                     ; 0x18 <__rc8>
    3988: a5 97        	lda	$97                     ; 0x97 <__pal_size+0x17>
    398a: 0a           	asl
    398b: 0a           	asl
    398c: 0a           	asl
    398d: 85 12        	sta	$12                     ; 0x12 <__rc2>
    398f: a2 00        	ldx	#$0
    3991: 8a           	txa
    3992: 4c 49 3a     	jmp	$3a49 <printf+0x6d3>
    3995: a4 13        	ldy	$13                     ; 0x13 <__rc3>
    3997: 99 a2 00     	sta	$a2,y                   ; 0xa2 <__pal_size+0x22>
    399a: a4 15        	ldy	$15                     ; 0x15 <__rc5>
    399c: c4 13        	cpy	$13                     ; 0x13 <__rc3>
    399e: f0 38        	beq	$39d8 <printf+0x662>
    39a0: e6 13        	inc	$13                     ; 0x13 <__rc3>
    39a2: a4 13        	ldy	$13                     ; 0x13 <__rc3>
    39a4: b9 a2 00     	lda	$a2,y                   ; 0xa2 <__pal_size+0x22>
    39a7: 0a           	asl
    39a8: e0 00        	cpx	#$0
    39aa: f0 02        	beq	$39ae <printf+0x638>
    39ac: 09 01        	ora	#$1
    39ae: a4 94        	ldy	$94                     ; 0x94 <__pal_size+0x14>
    39b0: 84 14        	sty	$14                     ; 0x14 <__rc4>
    39b2: c5 14        	cmp	$14                     ; 0x14 <__rc4>
    39b4: a2 01        	ldx	#$1
    39b6: b0 02        	bcs	$39ba <printf+0x644>
    39b8: a2 00        	ldx	#$0
    39ba: 90 d9        	bcc	$3995 <printf+0x61f>
    39bc: 84 14        	sty	$14                     ; 0x14 <__rc4>
    39be: 38           	sec
    39bf: e5 14        	sbc	$14                     ; 0x14 <__rc4>
    39c1: a4 13        	ldy	$13                     ; 0x13 <__rc3>
    39c3: 99 a2 00     	sta	$a2,y                   ; 0xa2 <__pal_size+0x22>
    39c6: a4 15        	ldy	$15                     ; 0x15 <__rc5>
    39c8: c4 13        	cpy	$13                     ; 0x13 <__rc3>
    39ca: d0 d4        	bne	$39a0 <printf+0x62a>
    39cc: a4 95        	ldy	$95                     ; 0x95 <__pal_size+0x15>
    39ce: a6 95        	ldx	$95                     ; 0x95 <__pal_size+0x15>
    39d0: e8           	inx
    39d1: a9 01        	lda	#$1
    39d3: 99 a2 00     	sta	$a2,y                   ; 0xa2 <__pal_size+0x22>
    39d6: 86 95        	stx	$95                     ; 0x95 <__pal_size+0x15>
    39d8: a6 97        	ldx	$97                     ; 0x97 <__pal_size+0x17>
    39da: b5 b9        	lda	$b9,x                   ; 0xb9 <__pal_size+0x39>
    39dc: aa           	tax
    39dd: 10 41        	bpl	$3a20 <printf+0x6aa>
    39df: a5 95        	lda	$95                     ; 0x95 <__pal_size+0x15>
    39e1: f0 2f        	beq	$3a12 <printf+0x69c>
    39e3: a2 00        	ldx	#$0
    39e5: a4 94        	ldy	$94                     ; 0x94 <__pal_size+0x14>
    39e7: 84 14        	sty	$14                     ; 0x14 <__rc4>
    39e9: b5 a2        	lda	$a2,x                   ; 0xa2 <__pal_size+0x22>
    39eb: 1a           	inc
    39ec: f6 a2        	inc	$a2,x                   ; 0xa2 <__pal_size+0x22>
    39ee: c5 14        	cmp	$14                     ; 0x14 <__rc4>
    39f0: 90 2e        	bcc	$3a20 <printf+0x6aa>
    39f2: a4 94        	ldy	$94                     ; 0x94 <__pal_size+0x14>
    39f4: 84 13        	sty	$13                     ; 0x13 <__rc3>
    39f6: 38           	sec
    39f7: e5 13        	sbc	$13                     ; 0x13 <__rc3>
    39f9: 9d a2 00     	sta	$a2,x                   ; 0xa2 <__pal_size+0x22>
    39fc: e8           	inx
    39fd: 86 13        	stx	$13                     ; 0x13 <__rc3>
    39ff: a4 95        	ldy	$95                     ; 0x95 <__pal_size+0x15>
    3a01: c4 13        	cpy	$13                     ; 0x13 <__rc3>
    3a03: d0 e4        	bne	$39e9 <printf+0x673>
    3a05: 80 0d        	bra	$3a14 <printf+0x69e>
    3a07: a6 97        	ldx	$97                     ; 0x97 <__pal_size+0x17>
    3a09: b5 b9        	lda	$b9,x                   ; 0xb9 <__pal_size+0x39>
    3a0b: aa           	tax
    3a0c: 64 95        	stz	$95                     ; 0x95 <__pal_size+0x15>
    3a0e: 30 04        	bmi	$3a14 <printf+0x69e>
    3a10: 80 0e        	bra	$3a20 <printf+0x6aa>
    3a12: 64 95        	stz	$95                     ; 0x95 <__pal_size+0x15>
    3a14: a4 95        	ldy	$95                     ; 0x95 <__pal_size+0x15>
    3a16: a6 95        	ldx	$95                     ; 0x95 <__pal_size+0x15>
    3a18: e8           	inx
    3a19: a9 01        	lda	#$1
    3a1b: 99 a2 00     	sta	$a2,y                   ; 0xa2 <__pal_size+0x22>
    3a1e: 86 95        	stx	$95                     ; 0x95 <__pal_size+0x15>
    3a20: a2 01        	ldx	#$1
    3a22: 86 16        	stx	$16                     ; 0x16 <__rc6>
    3a24: 64 13        	stz	$13                     ; 0x13 <__rc3>
    3a26: ca           	dex
    3a27: a4 97        	ldy	$97                     ; 0x97 <__pal_size+0x17>
    3a29: b5 ba        	lda	$ba,x                   ; 0xba <__pal_size+0x3a>
    3a2b: 0a           	asl
    3a2c: 64 14        	stz	$14                     ; 0x14 <__rc4>
    3a2e: 26 14        	rol	$14                     ; 0x14 <__rc4>
    3a30: 05 13        	ora	$13                     ; 0x13 <__rc3>
    3a32: 9d ba 00     	sta	$ba,x                   ; 0xba <__pal_size+0x3a>
    3a35: e8           	inx
    3a36: 86 15        	stx	$15                     ; 0x15 <__rc5>
    3a38: a5 14        	lda	$14                     ; 0x14 <__rc4>
    3a3a: 85 13        	sta	$13                     ; 0x13 <__rc3>
    3a3c: c4 15        	cpy	$15                     ; 0x15 <__rc5>
    3a3e: d0 e9        	bne	$3a29 <printf+0x6b3>
    3a40: a5 19        	lda	$19                     ; 0x19 <__rc9>
    3a42: 1a           	inc
    3a43: c5 12        	cmp	$12                     ; 0x12 <__rc2>
    3a45: a6 95        	ldx	$95                     ; 0x95 <__pal_size+0x15>
    3a47: b0 12        	bcs	$3a5b <printf+0x6e5>
    3a49: 85 19        	sta	$19                     ; 0x19 <__rc9>
    3a4b: 8a           	txa
    3a4c: f0 b9        	beq	$3a07 <printf+0x691>
    3a4e: 8a           	txa
    3a4f: 86 95        	stx	$95                     ; 0x95 <__pal_size+0x15>
    3a51: 3a           	dec
    3a52: 85 15        	sta	$15                     ; 0x15 <__rc5>
    3a54: a2 00        	ldx	#$0
    3a56: 64 13        	stz	$13                     ; 0x13 <__rc3>
    3a58: 4c a2 39     	jmp	$39a2 <printf+0x62c>
    3a5b: a4 16        	ldy	$16                     ; 0x16 <__rc6>
    3a5d: a5 9b        	lda	$9b                     ; 0x9b <__pal_size+0x1b>
    3a5f: 10 08        	bpl	$3a69 <printf+0x6f3>
    3a61: a2 01        	ldx	#$1
    3a63: 64 9b        	stz	$9b                     ; 0x9b <__pal_size+0x1b>
    3a65: 86 9a        	stx	$9a                     ; 0x9a <__pal_size+0x1a>
    3a67: a6 95        	ldx	$95                     ; 0x95 <__pal_size+0x15>
    3a69: a5 d9        	lda	$d9                     ; 0xd9 <__pal_size+0x59>
    3a6b: 85 9c        	sta	$9c                     ; 0x9c <__pal_size+0x1c>
    3a6d: a5 da        	lda	$da                     ; 0xda <__pal_size+0x5a>
    3a6f: 85 9d        	sta	$9d                     ; 0x9d <__pal_size+0x1d>
    3a71: a5 9c        	lda	$9c                     ; 0x9c <__pal_size+0x1c>
    3a73: 85 d9        	sta	$d9                     ; 0xd9 <__pal_size+0x59>
    3a75: a5 9d        	lda	$9d                     ; 0x9d <__pal_size+0x1d>
    3a77: 85 da        	sta	$da                     ; 0xda <__pal_size+0x5a>
    3a79: a5 96        	lda	$96                     ; 0x96 <__pal_size+0x16>
    3a7b: 29 04        	and	#$4
    3a7d: f0 2b        	beq	$3aaa <printf+0x734>
    3a7f: a5 94        	lda	$94                     ; 0x94 <__pal_size+0x14>
    3a81: c9 10        	cmp	#$10
    3a83: f0 14        	beq	$3a99 <printf+0x723>
    3a85: c9 08        	cmp	#$8
    3a87: d0 21        	bne	$3aaa <printf+0x734>
    3a89: a2 00        	ldx	#$0
    3a8b: e4 9b        	cpx	$9b                     ; 0x9b <__pal_size+0x1b>
    3a8d: f0 03        	beq	$3a92 <printf+0x71c>
    3a8f: 4c b0 40     	jmp	$40b0 <printf+0xd3a>
    3a92: a6 95        	ldx	$95                     ; 0x95 <__pal_size+0x15>
    3a94: e4 9a        	cpx	$9a                     ; 0x9a <__pal_size+0x1a>
    3a96: 4c b2 40     	jmp	$40b2 <printf+0xd3c>
    3a99: 8a           	txa
    3a9a: f0 0e        	beq	$3aaa <printf+0x734>
    3a9c: a5 96        	lda	$96                     ; 0x96 <__pal_size+0x16>
    3a9e: 29 80        	and	#$80
    3aa0: d0 03        	bne	$3aa5 <printf+0x72f>
    3aa2: 4c cb 40     	jmp	$40cb <printf+0xd55>
    3aa5: a2 78        	ldx	#$78
    3aa7: 4c cd 40     	jmp	$40cd <printf+0xd57>
    3aaa: a6 96        	ldx	$96                     ; 0x96 <__pal_size+0x16>
    3aac: a9 2d        	lda	#$2d
    3aae: e6 18        	inc	$18                     ; 0x18 <__rc8>
    3ab0: c6 18        	dec	$18                     ; 0x18 <__rc8>
    3ab2: f0 04        	beq	$3ab8 <printf+0x742>
    3ab4: 85 94        	sta	$94                     ; 0x94 <__pal_size+0x14>
    3ab6: 80 20        	bra	$3ad8 <printf+0x762>
    3ab8: 86 12        	stx	$12                     ; 0x12 <__rc2>
    3aba: 8a           	txa
    3abb: 29 02        	and	#$2
    3abd: a2 2b        	ldx	#$2b
    3abf: c9 00        	cmp	#$0
    3ac1: d0 13        	bne	$3ad6 <printf+0x760>
    3ac3: a5 12        	lda	$12                     ; 0x12 <__rc2>
    3ac5: 29 08        	and	#$8
    3ac7: d0 0b        	bne	$3ad4 <printf+0x75e>
    3ac9: a2 01        	ldx	#$1
    3acb: 86 9d        	stx	$9d                     ; 0x9d <__pal_size+0x1d>
    3acd: a9 00        	lda	#$0
    3acf: aa           	tax
    3ad0: 86 97        	stx	$97                     ; 0x97 <__pal_size+0x17>
    3ad2: 80 0b        	bra	$3adf <printf+0x769>
    3ad4: a2 20        	ldx	#$20
    3ad6: 86 94        	stx	$94                     ; 0x94 <__pal_size+0x14>
    3ad8: a2 00        	ldx	#$0
    3ada: 86 9d        	stx	$9d                     ; 0x9d <__pal_size+0x1d>
    3adc: 86 97        	stx	$97                     ; 0x97 <__pal_size+0x17>
    3ade: 98           	tya
    3adf: a6 9b        	ldx	$9b                     ; 0x9b <__pal_size+0x1b>
    3ae1: d0 06        	bne	$3ae9 <printf+0x773>
    3ae3: a6 9a        	ldx	$9a                     ; 0x9a <__pal_size+0x1a>
    3ae5: e4 95        	cpx	$95                     ; 0x95 <__pal_size+0x15>
    3ae7: 80 04        	bra	$3aed <printf+0x777>
    3ae9: a6 9b        	ldx	$9b                     ; 0x9b <__pal_size+0x1b>
    3aeb: e0 00        	cpx	#$0
    3aed: a6 9a        	ldx	$9a                     ; 0x9a <__pal_size+0x1a>
    3aef: 86 12        	stx	$12                     ; 0x12 <__rc2>
    3af1: a6 9b        	ldx	$9b                     ; 0x9b <__pal_size+0x1b>
    3af3: 86 13        	stx	$13                     ; 0x13 <__rc3>
    3af5: b0 06        	bcs	$3afd <printf+0x787>
    3af7: a6 95        	ldx	$95                     ; 0x95 <__pal_size+0x15>
    3af9: 86 12        	stx	$12                     ; 0x12 <__rc2>
    3afb: 64 13        	stz	$13                     ; 0x13 <__rc3>
    3afd: 85 18        	sta	$18                     ; 0x18 <__rc8>
    3aff: 18           	clc
    3b00: 65 12        	adc	$12                     ; 0x12 <__rc2>
    3b02: aa           	tax
    3b03: 85 14        	sta	$14                     ; 0x14 <__rc4>
    3b05: a5 13        	lda	$13                     ; 0x13 <__rc3>
    3b07: 69 00        	adc	#$0
    3b09: 85 15        	sta	$15                     ; 0x15 <__rc5>
    3b0b: c5 1a        	cmp	$1a                     ; 0x1a <__rc10>
    3b0d: d0 08        	bne	$3b17 <printf+0x7a1>
    3b0f: a5 1a        	lda	$1a                     ; 0x1a <__rc10>
    3b11: 85 16        	sta	$16                     ; 0x16 <__rc6>
    3b13: e4 17        	cpx	$17                     ; 0x17 <__rc7>
    3b15: 80 06        	bra	$3b1d <printf+0x7a7>
    3b17: a6 1a        	ldx	$1a                     ; 0x1a <__rc10>
    3b19: 86 16        	stx	$16                     ; 0x16 <__rc6>
    3b1b: c5 1a        	cmp	$1a                     ; 0x1a <__rc10>
    3b1d: 64 9e        	stz	$9e                     ; 0x9e <__pal_size+0x1e>
    3b1f: 64 9f        	stz	$9f                     ; 0x9f <__pal_size+0x1f>
    3b21: a6 95        	ldx	$95                     ; 0x95 <__pal_size+0x15>
    3b23: 90 03        	bcc	$3b28 <printf+0x7b2>
    3b25: 4c ec 3b     	jmp	$3bec <printf+0x876>
    3b28: a5 96        	lda	$96                     ; 0x96 <__pal_size+0x16>
    3b2a: 29 11        	and	#$11
    3b2c: f0 10        	beq	$3b3e <printf+0x7c8>
    3b2e: a5 17        	lda	$17                     ; 0x17 <__rc7>
    3b30: 38           	sec
    3b31: e5 14        	sbc	$14                     ; 0x14 <__rc4>
    3b33: 85 9e        	sta	$9e                     ; 0x9e <__pal_size+0x1e>
    3b35: a5 1a        	lda	$1a                     ; 0x1a <__rc10>
    3b37: e5 15        	sbc	$15                     ; 0x15 <__rc5>
    3b39: 85 9f        	sta	$9f                     ; 0x9f <__pal_size+0x1f>
    3b3b: 4c ec 3b     	jmp	$3bec <printf+0x876>
    3b3e: a6 c9        	ldx	$c9                     ; 0xc9 <__pal_size+0x49>
    3b40: 86 15        	stx	$15                     ; 0x15 <__rc5>
    3b42: 38           	sec
    3b43: a5 18        	lda	$18                     ; 0x18 <__rc8>
    3b45: e5 17        	sbc	$17                     ; 0x17 <__rc7>
    3b47: aa           	tax
    3b48: a9 00        	lda	#$0
    3b4a: e5 16        	sbc	$16                     ; 0x16 <__rc6>
    3b4c: 85 14        	sta	$14                     ; 0x14 <__rc4>
    3b4e: 18           	clc
    3b4f: 8a           	txa
    3b50: 65 12        	adc	$12                     ; 0x12 <__rc2>
    3b52: 85 96        	sta	$96                     ; 0x96 <__pal_size+0x16>
    3b54: a5 14        	lda	$14                     ; 0x14 <__rc4>
    3b56: 65 13        	adc	$13                     ; 0x13 <__rc3>
    3b58: 85 9e        	sta	$9e                     ; 0x9e <__pal_size+0x1e>
    3b5a: a5 ca        	lda	$ca                     ; 0xca <__pal_size+0x4a>
    3b5c: 4c d4 3b     	jmp	$3bd4 <printf+0x85e>
    3b5f: c5 c8        	cmp	$c8                     ; 0xc8 <__pal_size+0x48>
    3b61: a6 9e        	ldx	$9e                     ; 0x9e <__pal_size+0x1e>
    3b63: 86 12        	stx	$12                     ; 0x12 <__rc2>
    3b65: b0 46        	bcs	$3bad <printf+0x837>
    3b67: a2 01        	ldx	#$1
    3b69: 86 14        	stx	$14                     ; 0x14 <__rc4>
    3b6b: a6 d4        	ldx	$d4                     ; 0xd4 <__pal_size+0x54>
    3b6d: a0 00        	ldy	#$0
    3b6f: 84 12        	sty	$12                     ; 0x12 <__rc2>
    3b71: a0 00        	ldy	#$0
    3b73: 84 13        	sty	$13                     ; 0x13 <__rc3>
    3b75: e4 13        	cpx	$13                     ; 0x13 <__rc3>
    3b77: d0 1b        	bne	$3b94 <printf+0x81e>
    3b79: a6 d3        	ldx	$d3                     ; 0xd3 <__pal_size+0x53>
    3b7b: e4 12        	cpx	$12                     ; 0x12 <__rc2>
    3b7d: d0 15        	bne	$3b94 <printf+0x81e>
    3b7f: a4 14        	ldy	$14                     ; 0x14 <__rc4>
    3b81: 18           	clc
    3b82: aa           	tax
    3b83: a5 15        	lda	$15                     ; 0x15 <__rc5>
    3b85: 65 cd        	adc	$cd                     ; 0xcd <__pal_size+0x4d>
    3b87: 85 12        	sta	$12                     ; 0x12 <__rc2>
    3b89: 8a           	txa
    3b8a: 65 ce        	adc	$ce                     ; 0xce <__pal_size+0x4e>
    3b8c: 85 13        	sta	$13                     ; 0x13 <__rc3>
    3b8e: a9 20        	lda	#$20
    3b90: 92 12        	sta	($12)                   ; 0x12 <__rc2>
    3b92: 80 15        	bra	$3ba9 <printf+0x833>
    3b94: a2 01        	ldx	#$1
    3b96: 86 9c        	stx	$9c                     ; 0x9c <__pal_size+0x1c>
    3b98: a2 20        	ldx	#$20
    3b9a: 86 67        	stx	$67                     ; 0x67 <__putchar.s>
    3b9c: a2 67        	ldx	#$67
    3b9e: 86 12        	stx	$12                     ; 0x12 <__rc2>
    3ba0: a2 00        	ldx	#$0
    3ba2: 86 13        	stx	$13                     ; 0x13 <__rc3>
    3ba4: 20 05 28     	jsr	$2805 <textPrint>
    3ba7: a4 9c        	ldy	$9c                     ; 0x9c <__pal_size+0x1c>
    3ba9: a6 9e        	ldx	$9e                     ; 0x9e <__pal_size+0x1e>
    3bab: 86 12        	stx	$12                     ; 0x12 <__rc2>
    3bad: a6 c9        	ldx	$c9                     ; 0xc9 <__pal_size+0x49>
    3baf: a5 ca        	lda	$ca                     ; 0xca <__pal_size+0x4a>
    3bb1: e8           	inx
    3bb2: d0 01        	bne	$3bb5 <printf+0x83f>
    3bb4: 1a           	inc
    3bb5: 86 15        	stx	$15                     ; 0x15 <__rc5>
    3bb7: 86 c9        	stx	$c9                     ; 0xc9 <__pal_size+0x49>
    3bb9: 85 ca        	sta	$ca                     ; 0xca <__pal_size+0x4a>
    3bbb: a6 96        	ldx	$96                     ; 0x96 <__pal_size+0x16>
    3bbd: e8           	inx
    3bbe: d0 02        	bne	$3bc2 <printf+0x84c>
    3bc0: e6 12        	inc	$12                     ; 0x12 <__rc2>
    3bc2: 86 96        	stx	$96                     ; 0x96 <__pal_size+0x16>
    3bc4: 5a           	phy
    3bc5: a4 12        	ldy	$12                     ; 0x12 <__rc2>
    3bc7: 84 9e        	sty	$9e                     ; 0x9e <__pal_size+0x1e>
    3bc9: 7a           	ply
    3bca: e6 12        	inc	$12                     ; 0x12 <__rc2>
    3bcc: c6 12        	dec	$12                     ; 0x12 <__rc2>
    3bce: d0 04        	bne	$3bd4 <printf+0x85e>
    3bd0: e0 00        	cpx	#$0
    3bd2: f0 12        	beq	$3be6 <printf+0x870>
    3bd4: c5 c8        	cmp	$c8                     ; 0xc8 <__pal_size+0x48>
    3bd6: f0 03        	beq	$3bdb <printf+0x865>
    3bd8: 4c 5f 3b     	jmp	$3b5f <printf+0x7e9>
    3bdb: a6 c7        	ldx	$c7                     ; 0xc7 <__pal_size+0x47>
    3bdd: 86 12        	stx	$12                     ; 0x12 <__rc2>
    3bdf: a6 15        	ldx	$15                     ; 0x15 <__rc5>
    3be1: e4 12        	cpx	$12                     ; 0x12 <__rc2>
    3be3: 4c 61 3b     	jmp	$3b61 <printf+0x7eb>
    3be6: 64 9e        	stz	$9e                     ; 0x9e <__pal_size+0x1e>
    3be8: 64 9f        	stz	$9f                     ; 0x9f <__pal_size+0x1f>
    3bea: a6 95        	ldx	$95                     ; 0x95 <__pal_size+0x15>
    3bec: a5 9d        	lda	$9d                     ; 0x9d <__pal_size+0x1d>
    3bee: f0 03        	beq	$3bf3 <printf+0x87d>
    3bf0: 4c 5d 3c     	jmp	$3c5d <printf+0x8e7>
    3bf3: a6 c9        	ldx	$c9                     ; 0xc9 <__pal_size+0x49>
    3bf5: a5 ca        	lda	$ca                     ; 0xca <__pal_size+0x4a>
    3bf7: c5 c8        	cmp	$c8                     ; 0xc8 <__pal_size+0x48>
    3bf9: d0 10        	bne	$3c0b <printf+0x895>
    3bfb: 86 13        	stx	$13                     ; 0x13 <__rc3>
    3bfd: a6 c7        	ldx	$c7                     ; 0xc7 <__pal_size+0x47>
    3bff: 86 12        	stx	$12                     ; 0x12 <__rc2>
    3c01: a6 13        	ldx	$13                     ; 0x13 <__rc3>
    3c03: 86 15        	stx	$15                     ; 0x15 <__rc5>
    3c05: e4 12        	cpx	$12                     ; 0x12 <__rc2>
    3c07: 90 08        	bcc	$3c11 <printf+0x89b>
    3c09: 80 4a        	bra	$3c55 <printf+0x8df>
    3c0b: 86 15        	stx	$15                     ; 0x15 <__rc5>
    3c0d: c5 c8        	cmp	$c8                     ; 0xc8 <__pal_size+0x48>
    3c0f: b0 44        	bcs	$3c55 <printf+0x8df>
    3c11: a2 01        	ldx	#$1
    3c13: 86 14        	stx	$14                     ; 0x14 <__rc4>
    3c15: a6 d4        	ldx	$d4                     ; 0xd4 <__pal_size+0x54>
    3c17: a0 00        	ldy	#$0
    3c19: 84 12        	sty	$12                     ; 0x12 <__rc2>
    3c1b: a0 00        	ldy	#$0
    3c1d: 84 13        	sty	$13                     ; 0x13 <__rc3>
    3c1f: e4 13        	cpx	$13                     ; 0x13 <__rc3>
    3c21: d0 1d        	bne	$3c40 <printf+0x8ca>
    3c23: a6 d3        	ldx	$d3                     ; 0xd3 <__pal_size+0x53>
    3c25: e4 12        	cpx	$12                     ; 0x12 <__rc2>
    3c27: d0 17        	bne	$3c40 <printf+0x8ca>
    3c29: a4 14        	ldy	$14                     ; 0x14 <__rc4>
    3c2b: 18           	clc
    3c2c: 85 16        	sta	$16                     ; 0x16 <__rc6>
    3c2e: a5 15        	lda	$15                     ; 0x15 <__rc5>
    3c30: 65 cd        	adc	$cd                     ; 0xcd <__pal_size+0x4d>
    3c32: 85 12        	sta	$12                     ; 0x12 <__rc2>
    3c34: a5 16        	lda	$16                     ; 0x16 <__rc6>
    3c36: 65 ce        	adc	$ce                     ; 0xce <__pal_size+0x4e>
    3c38: 85 13        	sta	$13                     ; 0x13 <__rc3>
    3c3a: a5 94        	lda	$94                     ; 0x94 <__pal_size+0x14>
    3c3c: 92 12        	sta	($12)                   ; 0x12 <__rc2>
    3c3e: 80 15        	bra	$3c55 <printf+0x8df>
    3c40: a2 01        	ldx	#$1
    3c42: 86 9c        	stx	$9c                     ; 0x9c <__pal_size+0x1c>
    3c44: a6 94        	ldx	$94                     ; 0x94 <__pal_size+0x14>
    3c46: 86 67        	stx	$67                     ; 0x67 <__putchar.s>
    3c48: a2 67        	ldx	#$67
    3c4a: 86 12        	stx	$12                     ; 0x12 <__rc2>
    3c4c: a2 00        	ldx	#$0
    3c4e: 86 13        	stx	$13                     ; 0x13 <__rc3>
    3c50: 20 05 28     	jsr	$2805 <textPrint>
    3c53: a4 9c        	ldy	$9c                     ; 0x9c <__pal_size+0x1c>
    3c55: e6 c9        	inc	$c9                     ; 0xc9 <__pal_size+0x49>
    3c57: d0 02        	bne	$3c5b <printf+0x8e5>
    3c59: e6 ca        	inc	$ca                     ; 0xca <__pal_size+0x4a>
    3c5b: a6 95        	ldx	$95                     ; 0x95 <__pal_size+0x15>
    3c5d: a5 97        	lda	$97                     ; 0x97 <__pal_size+0x17>
    3c5f: d0 03        	bne	$3c64 <printf+0x8ee>
    3c61: 4c ce 3c     	jmp	$3cce <printf+0x958>
    3c64: a6 c9        	ldx	$c9                     ; 0xc9 <__pal_size+0x49>
    3c66: a5 ca        	lda	$ca                     ; 0xca <__pal_size+0x4a>
    3c68: c5 c8        	cmp	$c8                     ; 0xc8 <__pal_size+0x48>
    3c6a: d0 10        	bne	$3c7c <printf+0x906>
    3c6c: 86 13        	stx	$13                     ; 0x13 <__rc3>
    3c6e: a6 c7        	ldx	$c7                     ; 0xc7 <__pal_size+0x47>
    3c70: 86 12        	stx	$12                     ; 0x12 <__rc2>
    3c72: a6 13        	ldx	$13                     ; 0x13 <__rc3>
    3c74: 86 15        	stx	$15                     ; 0x15 <__rc5>
    3c76: e4 12        	cpx	$12                     ; 0x12 <__rc2>
    3c78: 90 08        	bcc	$3c82 <printf+0x90c>
    3c7a: 80 4a        	bra	$3cc6 <printf+0x950>
    3c7c: 86 15        	stx	$15                     ; 0x15 <__rc5>
    3c7e: c5 c8        	cmp	$c8                     ; 0xc8 <__pal_size+0x48>
    3c80: b0 44        	bcs	$3cc6 <printf+0x950>
    3c82: a2 01        	ldx	#$1
    3c84: 86 14        	stx	$14                     ; 0x14 <__rc4>
    3c86: a6 d4        	ldx	$d4                     ; 0xd4 <__pal_size+0x54>
    3c88: a0 00        	ldy	#$0
    3c8a: 84 12        	sty	$12                     ; 0x12 <__rc2>
    3c8c: a0 00        	ldy	#$0
    3c8e: 84 13        	sty	$13                     ; 0x13 <__rc3>
    3c90: e4 13        	cpx	$13                     ; 0x13 <__rc3>
    3c92: d0 1d        	bne	$3cb1 <printf+0x93b>
    3c94: a6 d3        	ldx	$d3                     ; 0xd3 <__pal_size+0x53>
    3c96: e4 12        	cpx	$12                     ; 0x12 <__rc2>
    3c98: d0 17        	bne	$3cb1 <printf+0x93b>
    3c9a: a4 14        	ldy	$14                     ; 0x14 <__rc4>
    3c9c: 18           	clc
    3c9d: 85 16        	sta	$16                     ; 0x16 <__rc6>
    3c9f: a5 15        	lda	$15                     ; 0x15 <__rc5>
    3ca1: 65 cd        	adc	$cd                     ; 0xcd <__pal_size+0x4d>
    3ca3: 85 12        	sta	$12                     ; 0x12 <__rc2>
    3ca5: a5 16        	lda	$16                     ; 0x16 <__rc6>
    3ca7: 65 ce        	adc	$ce                     ; 0xce <__pal_size+0x4e>
    3ca9: 85 13        	sta	$13                     ; 0x13 <__rc3>
    3cab: a5 dd        	lda	$dd                     ; 0xdd <__pal_size+0x5d>
    3cad: 92 12        	sta	($12)                   ; 0x12 <__rc2>
    3caf: 80 15        	bra	$3cc6 <printf+0x950>
    3cb1: a2 01        	ldx	#$1
    3cb3: 86 9c        	stx	$9c                     ; 0x9c <__pal_size+0x1c>
    3cb5: a6 dd        	ldx	$dd                     ; 0xdd <__pal_size+0x5d>
    3cb7: 86 67        	stx	$67                     ; 0x67 <__putchar.s>
    3cb9: a2 67        	ldx	#$67
    3cbb: 86 12        	stx	$12                     ; 0x12 <__rc2>
    3cbd: a2 00        	ldx	#$0
    3cbf: 86 13        	stx	$13                     ; 0x13 <__rc3>
    3cc1: 20 05 28     	jsr	$2805 <textPrint>
    3cc4: a4 9c        	ldy	$9c                     ; 0x9c <__pal_size+0x1c>
    3cc6: e6 c9        	inc	$c9                     ; 0xc9 <__pal_size+0x49>
    3cc8: d0 02        	bne	$3ccc <printf+0x956>
    3cca: e6 ca        	inc	$ca                     ; 0xca <__pal_size+0x4a>
    3ccc: a6 95        	ldx	$95                     ; 0x95 <__pal_size+0x15>
    3cce: a9 10        	lda	#$10
    3cd0: 25 c5        	and	$c5                     ; 0xc5 <__pal_size+0x45>
    3cd2: d0 03        	bne	$3cd7 <printf+0x961>
    3cd4: 4c 8c 3d     	jmp	$3d8c <printf+0xa16>
    3cd7: a5 c5        	lda	$c5                     ; 0xc5 <__pal_size+0x45>
    3cd9: 29 01        	and	#$1
    3cdb: f0 03        	beq	$3ce0 <printf+0x96a>
    3cdd: 4c 8c 3d     	jmp	$3d8c <printf+0xa16>
    3ce0: a5 9e        	lda	$9e                     ; 0x9e <__pal_size+0x1e>
    3ce2: 5a           	phy
    3ce3: a4 9f        	ldy	$9f                     ; 0x9f <__pal_size+0x1f>
    3ce5: 84 12        	sty	$12                     ; 0x12 <__rc2>
    3ce7: 7a           	ply
    3ce8: e6 12        	inc	$12                     ; 0x12 <__rc2>
    3cea: c6 12        	dec	$12                     ; 0x12 <__rc2>
    3cec: d0 07        	bne	$3cf5 <printf+0x97f>
    3cee: c9 00        	cmp	#$0
    3cf0: d0 03        	bne	$3cf5 <printf+0x97f>
    3cf2: 4c e0 40     	jmp	$40e0 <printf+0xd6a>
    3cf5: a6 c9        	ldx	$c9                     ; 0xc9 <__pal_size+0x49>
    3cf7: 86 15        	stx	$15                     ; 0x15 <__rc5>
    3cf9: a5 ca        	lda	$ca                     ; 0xca <__pal_size+0x4a>
    3cfb: 4c 72 3d     	jmp	$3d72 <printf+0x9fc>
    3cfe: c5 c8        	cmp	$c8                     ; 0xc8 <__pal_size+0x48>
    3d00: b0 42        	bcs	$3d44 <printf+0x9ce>
    3d02: a2 01        	ldx	#$1
    3d04: 86 14        	stx	$14                     ; 0x14 <__rc4>
    3d06: a6 d4        	ldx	$d4                     ; 0xd4 <__pal_size+0x54>
    3d08: a0 00        	ldy	#$0
    3d0a: 84 12        	sty	$12                     ; 0x12 <__rc2>
    3d0c: a0 00        	ldy	#$0
    3d0e: 84 13        	sty	$13                     ; 0x13 <__rc3>
    3d10: e4 13        	cpx	$13                     ; 0x13 <__rc3>
    3d12: d0 1b        	bne	$3d2f <printf+0x9b9>
    3d14: a6 d3        	ldx	$d3                     ; 0xd3 <__pal_size+0x53>
    3d16: e4 12        	cpx	$12                     ; 0x12 <__rc2>
    3d18: d0 15        	bne	$3d2f <printf+0x9b9>
    3d1a: a4 14        	ldy	$14                     ; 0x14 <__rc4>
    3d1c: 18           	clc
    3d1d: aa           	tax
    3d1e: a5 15        	lda	$15                     ; 0x15 <__rc5>
    3d20: 65 cd        	adc	$cd                     ; 0xcd <__pal_size+0x4d>
    3d22: 85 12        	sta	$12                     ; 0x12 <__rc2>
    3d24: 8a           	txa
    3d25: 65 ce        	adc	$ce                     ; 0xce <__pal_size+0x4e>
    3d27: 85 13        	sta	$13                     ; 0x13 <__rc3>
    3d29: a9 30        	lda	#$30
    3d2b: 92 12        	sta	($12)                   ; 0x12 <__rc2>
    3d2d: 80 15        	bra	$3d44 <printf+0x9ce>
    3d2f: a2 01        	ldx	#$1
    3d31: 86 9c        	stx	$9c                     ; 0x9c <__pal_size+0x1c>
    3d33: a2 30        	ldx	#$30
    3d35: 86 67        	stx	$67                     ; 0x67 <__putchar.s>
    3d37: a2 67        	ldx	#$67
    3d39: 86 12        	stx	$12                     ; 0x12 <__rc2>
    3d3b: a2 00        	ldx	#$0
    3d3d: 86 13        	stx	$13                     ; 0x13 <__rc3>
    3d3f: 20 05 28     	jsr	$2805 <textPrint>
    3d42: a4 9c        	ldy	$9c                     ; 0x9c <__pal_size+0x1c>
    3d44: a6 c9        	ldx	$c9                     ; 0xc9 <__pal_size+0x49>
    3d46: a5 ca        	lda	$ca                     ; 0xca <__pal_size+0x4a>
    3d48: e8           	inx
    3d49: d0 01        	bne	$3d4c <printf+0x9d6>
    3d4b: 1a           	inc
    3d4c: 86 15        	stx	$15                     ; 0x15 <__rc5>
    3d4e: 86 c9        	stx	$c9                     ; 0xc9 <__pal_size+0x49>
    3d50: 85 ca        	sta	$ca                     ; 0xca <__pal_size+0x4a>
    3d52: a6 9e        	ldx	$9e                     ; 0x9e <__pal_size+0x1e>
    3d54: 86 12        	stx	$12                     ; 0x12 <__rc2>
    3d56: a6 9f        	ldx	$9f                     ; 0x9f <__pal_size+0x1f>
    3d58: 86 13        	stx	$13                     ; 0x13 <__rc3>
    3d5a: a2 ff        	ldx	#$ff
    3d5c: c6 12        	dec	$12                     ; 0x12 <__rc2>
    3d5e: e4 12        	cpx	$12                     ; 0x12 <__rc2>
    3d60: d0 02        	bne	$3d64 <printf+0x9ee>
    3d62: c6 13        	dec	$13                     ; 0x13 <__rc3>
    3d64: a6 12        	ldx	$12                     ; 0x12 <__rc2>
    3d66: 86 9e        	stx	$9e                     ; 0x9e <__pal_size+0x1e>
    3d68: a6 13        	ldx	$13                     ; 0x13 <__rc3>
    3d6a: 86 9f        	stx	$9f                     ; 0x9f <__pal_size+0x1f>
    3d6c: d0 04        	bne	$3d72 <printf+0x9fc>
    3d6e: a6 12        	ldx	$12                     ; 0x12 <__rc2>
    3d70: f0 14        	beq	$3d86 <printf+0xa10>
    3d72: c5 c8        	cmp	$c8                     ; 0xc8 <__pal_size+0x48>
    3d74: f0 03        	beq	$3d79 <printf+0xa03>
    3d76: 4c fe 3c     	jmp	$3cfe <printf+0x988>
    3d79: a6 c7        	ldx	$c7                     ; 0xc7 <__pal_size+0x47>
    3d7b: 86 12        	stx	$12                     ; 0x12 <__rc2>
    3d7d: a6 15        	ldx	$15                     ; 0x15 <__rc5>
    3d7f: e4 12        	cpx	$12                     ; 0x12 <__rc2>
    3d81: b0 c1        	bcs	$3d44 <printf+0x9ce>
    3d83: 4c 02 3d     	jmp	$3d02 <printf+0x98c>
    3d86: 64 9e        	stz	$9e                     ; 0x9e <__pal_size+0x1e>
    3d88: 64 9f        	stz	$9f                     ; 0x9f <__pal_size+0x1f>
    3d8a: a6 95        	ldx	$95                     ; 0x95 <__pal_size+0x15>
    3d8c: a9 00        	lda	#$0
    3d8e: c5 9b        	cmp	$9b                     ; 0x9b <__pal_size+0x1b>
    3d90: d0 07        	bne	$3d99 <printf+0xa23>
    3d92: e4 9a        	cpx	$9a                     ; 0x9a <__pal_size+0x1a>
    3d94: 90 0a        	bcc	$3da0 <printf+0xa2a>
    3d96: 4c 2c 3e     	jmp	$3e2c <printf+0xab6>
    3d99: c5 9b        	cmp	$9b                     ; 0x9b <__pal_size+0x1b>
    3d9b: 90 03        	bcc	$3da0 <printf+0xa2a>
    3d9d: 4c 2c 3e     	jmp	$3e2c <printf+0xab6>
    3da0: a6 c9        	ldx	$c9                     ; 0xc9 <__pal_size+0x49>
    3da2: 86 15        	stx	$15                     ; 0x15 <__rc5>
    3da4: a5 ca        	lda	$ca                     ; 0xca <__pal_size+0x4a>
    3da6: a2 ff        	ldx	#$ff
    3da8: c6 9a        	dec	$9a                     ; 0x9a <__pal_size+0x1a>
    3daa: e4 9a        	cpx	$9a                     ; 0x9a <__pal_size+0x1a>
    3dac: d0 02        	bne	$3db0 <printf+0xa3a>
    3dae: c6 9b        	dec	$9b                     ; 0x9b <__pal_size+0x1b>
    3db0: c5 c8        	cmp	$c8                     ; 0xc8 <__pal_size+0x48>
    3db2: d0 0c        	bne	$3dc0 <printf+0xa4a>
    3db4: a6 c7        	ldx	$c7                     ; 0xc7 <__pal_size+0x47>
    3db6: 86 12        	stx	$12                     ; 0x12 <__rc2>
    3db8: a6 15        	ldx	$15                     ; 0x15 <__rc5>
    3dba: e4 12        	cpx	$12                     ; 0x12 <__rc2>
    3dbc: 90 06        	bcc	$3dc4 <printf+0xa4e>
    3dbe: 80 46        	bra	$3e06 <printf+0xa90>
    3dc0: c5 c8        	cmp	$c8                     ; 0xc8 <__pal_size+0x48>
    3dc2: b0 42        	bcs	$3e06 <printf+0xa90>
    3dc4: a2 01        	ldx	#$1
    3dc6: 86 14        	stx	$14                     ; 0x14 <__rc4>
    3dc8: a6 d4        	ldx	$d4                     ; 0xd4 <__pal_size+0x54>
    3dca: a0 00        	ldy	#$0
    3dcc: 84 12        	sty	$12                     ; 0x12 <__rc2>
    3dce: a0 00        	ldy	#$0
    3dd0: 84 13        	sty	$13                     ; 0x13 <__rc3>
    3dd2: e4 13        	cpx	$13                     ; 0x13 <__rc3>
    3dd4: d0 1b        	bne	$3df1 <printf+0xa7b>
    3dd6: a6 d3        	ldx	$d3                     ; 0xd3 <__pal_size+0x53>
    3dd8: e4 12        	cpx	$12                     ; 0x12 <__rc2>
    3dda: d0 15        	bne	$3df1 <printf+0xa7b>
    3ddc: a4 14        	ldy	$14                     ; 0x14 <__rc4>
    3dde: 18           	clc
    3ddf: aa           	tax
    3de0: a5 15        	lda	$15                     ; 0x15 <__rc5>
    3de2: 65 cd        	adc	$cd                     ; 0xcd <__pal_size+0x4d>
    3de4: 85 12        	sta	$12                     ; 0x12 <__rc2>
    3de6: 8a           	txa
    3de7: 65 ce        	adc	$ce                     ; 0xce <__pal_size+0x4e>
    3de9: 85 13        	sta	$13                     ; 0x13 <__rc3>
    3deb: a9 30        	lda	#$30
    3ded: 92 12        	sta	($12)                   ; 0x12 <__rc2>
    3def: 80 15        	bra	$3e06 <printf+0xa90>
    3df1: a2 01        	ldx	#$1
    3df3: 86 9c        	stx	$9c                     ; 0x9c <__pal_size+0x1c>
    3df5: a2 30        	ldx	#$30
    3df7: 86 67        	stx	$67                     ; 0x67 <__putchar.s>
    3df9: a2 67        	ldx	#$67
    3dfb: 86 12        	stx	$12                     ; 0x12 <__rc2>
    3dfd: a2 00        	ldx	#$0
    3dff: 86 13        	stx	$13                     ; 0x13 <__rc3>
    3e01: 20 05 28     	jsr	$2805 <textPrint>
    3e04: a4 9c        	ldy	$9c                     ; 0x9c <__pal_size+0x1c>
    3e06: a6 c9        	ldx	$c9                     ; 0xc9 <__pal_size+0x49>
    3e08: a5 ca        	lda	$ca                     ; 0xca <__pal_size+0x4a>
    3e0a: e8           	inx
    3e0b: d0 01        	bne	$3e0e <printf+0xa98>
    3e0d: 1a           	inc
    3e0e: 86 15        	stx	$15                     ; 0x15 <__rc5>
    3e10: 86 c9        	stx	$c9                     ; 0xc9 <__pal_size+0x49>
    3e12: 85 ca        	sta	$ca                     ; 0xca <__pal_size+0x4a>
    3e14: a2 00        	ldx	#$0
    3e16: e4 9b        	cpx	$9b                     ; 0x9b <__pal_size+0x1b>
    3e18: d0 09        	bne	$3e23 <printf+0xaad>
    3e1a: a6 95        	ldx	$95                     ; 0x95 <__pal_size+0x15>
    3e1c: e4 9a        	cpx	$9a                     ; 0x9a <__pal_size+0x1a>
    3e1e: b0 0c        	bcs	$3e2c <printf+0xab6>
    3e20: 4c a6 3d     	jmp	$3da6 <printf+0xa30>
    3e23: e4 9b        	cpx	$9b                     ; 0x9b <__pal_size+0x1b>
    3e25: a6 95        	ldx	$95                     ; 0x95 <__pal_size+0x15>
    3e27: b0 03        	bcs	$3e2c <printf+0xab6>
    3e29: 4c a6 3d     	jmp	$3da6 <printf+0xa30>
    3e2c: a5 d9        	lda	$d9                     ; 0xd9 <__pal_size+0x59>
    3e2e: 85 12        	sta	$12                     ; 0x12 <__rc2>
    3e30: a5 da        	lda	$da                     ; 0xda <__pal_size+0x5a>
    3e32: 85 13        	sta	$13                     ; 0x13 <__rc3>
    3e34: 5a           	phy
    3e35: a4 12        	ldy	$12                     ; 0x12 <__rc2>
    3e37: 84 94        	sty	$94                     ; 0x94 <__pal_size+0x14>
    3e39: 7a           	ply
    3e3a: 85 95        	sta	$95                     ; 0x95 <__pal_size+0x15>
    3e3c: 8a           	txa
    3e3d: d0 03        	bne	$3e42 <printf+0xacc>
    3e3f: 4c 85 3f     	jmp	$3f85 <printf+0xc0f>
    3e42: ca           	dex
    3e43: d0 03        	bne	$3e48 <printf+0xad2>
    3e45: 4c fe 3e     	jmp	$3efe <printf+0xb88>
    3e48: 86 9c        	stx	$9c                     ; 0x9c <__pal_size+0x1c>
    3e4a: a6 df        	ldx	$df                     ; 0xdf <__pal_size+0x5f>
    3e4c: 8a           	txa
    3e4d: 18           	clc
    3e4e: 65 9c        	adc	$9c                     ; 0x9c <__pal_size+0x1c>
    3e50: 85 9a        	sta	$9a                     ; 0x9a <__pal_size+0x1a>
    3e52: a5 e0        	lda	$e0                     ; 0xe0 <__pal_size+0x60>
    3e54: 69 00        	adc	#$0
    3e56: 85 9b        	sta	$9b                     ; 0x9b <__pal_size+0x1b>
    3e58: 4c ec 3e     	jmp	$3eec <printf+0xb76>
    3e5b: 85 13        	sta	$13                     ; 0x13 <__rc3>
    3e5d: a9 80        	lda	#$80
    3e5f: 25 c5        	and	$c5                     ; 0xc5 <__pal_size+0x45>
    3e61: f0 04        	beq	$3e67 <printf+0xaf1>
    3e63: a2 61        	ldx	#$61
    3e65: 80 02        	bra	$3e69 <printf+0xaf3>
    3e67: a2 41        	ldx	#$41
    3e69: 86 12        	stx	$12                     ; 0x12 <__rc2>
    3e6b: a2 01        	ldx	#$1
    3e6d: 86 14        	stx	$14                     ; 0x14 <__rc4>
    3e6f: 18           	clc
    3e70: a5 13        	lda	$13                     ; 0x13 <__rc3>
    3e72: 65 12        	adc	$12                     ; 0x12 <__rc2>
    3e74: 18           	clc
    3e75: 69 f6        	adc	#$f6
    3e77: a4 c9        	ldy	$c9                     ; 0xc9 <__pal_size+0x49>
    3e79: a6 ca        	ldx	$ca                     ; 0xca <__pal_size+0x4a>
    3e7b: e4 c8        	cpx	$c8                     ; 0xc8 <__pal_size+0x48>
    3e7d: d0 0c        	bne	$3e8b <printf+0xb15>
    3e7f: 86 16        	stx	$16                     ; 0x16 <__rc6>
    3e81: a6 c7        	ldx	$c7                     ; 0xc7 <__pal_size+0x47>
    3e83: 86 12        	stx	$12                     ; 0x12 <__rc2>
    3e85: 84 15        	sty	$15                     ; 0x15 <__rc5>
    3e87: c4 12        	cpy	$12                     ; 0x12 <__rc2>
    3e89: 80 06        	bra	$3e91 <printf+0xb1b>
    3e8b: 84 15        	sty	$15                     ; 0x15 <__rc5>
    3e8d: 86 16        	stx	$16                     ; 0x16 <__rc6>
    3e8f: e4 c8        	cpx	$c8                     ; 0xc8 <__pal_size+0x48>
    3e91: a4 14        	ldy	$14                     ; 0x14 <__rc4>
    3e93: b0 41        	bcs	$3ed6 <printf+0xb60>
    3e95: 85 14        	sta	$14                     ; 0x14 <__rc4>
    3e97: a9 01        	lda	#$1
    3e99: a6 d4        	ldx	$d4                     ; 0xd4 <__pal_size+0x54>
    3e9b: a0 00        	ldy	#$0
    3e9d: 84 12        	sty	$12                     ; 0x12 <__rc2>
    3e9f: a0 00        	ldy	#$0
    3ea1: 84 13        	sty	$13                     ; 0x13 <__rc3>
    3ea3: e4 13        	cpx	$13                     ; 0x13 <__rc3>
    3ea5: d0 1a        	bne	$3ec1 <printf+0xb4b>
    3ea7: a6 d3        	ldx	$d3                     ; 0xd3 <__pal_size+0x53>
    3ea9: e4 12        	cpx	$12                     ; 0x12 <__rc2>
    3eab: d0 14        	bne	$3ec1 <printf+0xb4b>
    3ead: a8           	tay
    3eae: 18           	clc
    3eaf: a5 15        	lda	$15                     ; 0x15 <__rc5>
    3eb1: 65 cd        	adc	$cd                     ; 0xcd <__pal_size+0x4d>
    3eb3: 85 12        	sta	$12                     ; 0x12 <__rc2>
    3eb5: a5 16        	lda	$16                     ; 0x16 <__rc6>
    3eb7: 65 ce        	adc	$ce                     ; 0xce <__pal_size+0x4e>
    3eb9: 85 13        	sta	$13                     ; 0x13 <__rc3>
    3ebb: a5 14        	lda	$14                     ; 0x14 <__rc4>
    3ebd: 92 12        	sta	($12)                   ; 0x12 <__rc2>
    3ebf: 80 15        	bra	$3ed6 <printf+0xb60>
    3ec1: a2 01        	ldx	#$1
    3ec3: 86 9d        	stx	$9d                     ; 0x9d <__pal_size+0x1d>
    3ec5: a6 14        	ldx	$14                     ; 0x14 <__rc4>
    3ec7: 86 67        	stx	$67                     ; 0x67 <__putchar.s>
    3ec9: a2 67        	ldx	#$67
    3ecb: 86 12        	stx	$12                     ; 0x12 <__rc2>
    3ecd: a2 00        	ldx	#$0
    3ecf: 86 13        	stx	$13                     ; 0x13 <__rc3>
    3ed1: 20 05 28     	jsr	$2805 <textPrint>
    3ed4: a4 9d        	ldy	$9d                     ; 0x9d <__pal_size+0x1d>
    3ed6: e6 c9        	inc	$c9                     ; 0xc9 <__pal_size+0x49>
    3ed8: d0 02        	bne	$3edc <printf+0xb66>
    3eda: e6 ca        	inc	$ca                     ; 0xca <__pal_size+0x4a>
    3edc: c6 9c        	dec	$9c                     ; 0x9c <__pal_size+0x1c>
    3ede: a2 ff        	ldx	#$ff
    3ee0: c6 9a        	dec	$9a                     ; 0x9a <__pal_size+0x1a>
    3ee2: e4 9a        	cpx	$9a                     ; 0x9a <__pal_size+0x1a>
    3ee4: d0 02        	bne	$3ee8 <printf+0xb72>
    3ee6: c6 9b        	dec	$9b                     ; 0x9b <__pal_size+0x1b>
    3ee8: a5 9c        	lda	$9c                     ; 0x9c <__pal_size+0x1c>
    3eea: f0 12        	beq	$3efe <printf+0xb88>
    3eec: b2 9a        	lda	($9a)                   ; 0x9a <__pal_size+0x1a>
    3eee: c9 0a        	cmp	#$a
    3ef0: 90 03        	bcc	$3ef5 <printf+0xb7f>
    3ef2: 4c 5b 3e     	jmp	$3e5b <printf+0xae5>
    3ef5: a2 01        	ldx	#$1
    3ef7: 86 14        	stx	$14                     ; 0x14 <__rc4>
    3ef9: 09 30        	ora	#$30
    3efb: 4c 77 3e     	jmp	$3e77 <printf+0xb01>
    3efe: a5 a2        	lda	$a2                     ; 0xa2 <__pal_size+0x22>
    3f00: c9 0a        	cmp	#$a
    3f02: b0 04        	bcs	$3f08 <printf+0xb92>
    3f04: 09 30        	ora	#$30
    3f06: 80 18        	bra	$3f20 <printf+0xbaa>
    3f08: 85 13        	sta	$13                     ; 0x13 <__rc3>
    3f0a: a9 80        	lda	#$80
    3f0c: 25 c5        	and	$c5                     ; 0xc5 <__pal_size+0x45>
    3f0e: f0 04        	beq	$3f14 <printf+0xb9e>
    3f10: a2 61        	ldx	#$61
    3f12: 80 02        	bra	$3f16 <printf+0xba0>
    3f14: a2 41        	ldx	#$41
    3f16: 86 12        	stx	$12                     ; 0x12 <__rc2>
    3f18: 18           	clc
    3f19: a5 13        	lda	$13                     ; 0x13 <__rc3>
    3f1b: 65 12        	adc	$12                     ; 0x12 <__rc2>
    3f1d: 18           	clc
    3f1e: 69 f6        	adc	#$f6
    3f20: a6 c9        	ldx	$c9                     ; 0xc9 <__pal_size+0x49>
    3f22: 86 15        	stx	$15                     ; 0x15 <__rc5>
    3f24: a6 ca        	ldx	$ca                     ; 0xca <__pal_size+0x4a>
    3f26: e4 c8        	cpx	$c8                     ; 0xc8 <__pal_size+0x48>
    3f28: d0 0e        	bne	$3f38 <printf+0xbc2>
    3f2a: 86 16        	stx	$16                     ; 0x16 <__rc6>
    3f2c: a6 c7        	ldx	$c7                     ; 0xc7 <__pal_size+0x47>
    3f2e: 86 12        	stx	$12                     ; 0x12 <__rc2>
    3f30: a6 15        	ldx	$15                     ; 0x15 <__rc5>
    3f32: e4 12        	cpx	$12                     ; 0x12 <__rc2>
    3f34: 90 08        	bcc	$3f3e <printf+0xbc8>
    3f36: 80 47        	bra	$3f7f <printf+0xc09>
    3f38: 86 16        	stx	$16                     ; 0x16 <__rc6>
    3f3a: e4 c8        	cpx	$c8                     ; 0xc8 <__pal_size+0x48>
    3f3c: b0 41        	bcs	$3f7f <printf+0xc09>
    3f3e: 85 14        	sta	$14                     ; 0x14 <__rc4>
    3f40: a9 01        	lda	#$1
    3f42: a6 d4        	ldx	$d4                     ; 0xd4 <__pal_size+0x54>
    3f44: a0 00        	ldy	#$0
    3f46: 84 12        	sty	$12                     ; 0x12 <__rc2>
    3f48: a0 00        	ldy	#$0
    3f4a: 84 13        	sty	$13                     ; 0x13 <__rc3>
    3f4c: e4 13        	cpx	$13                     ; 0x13 <__rc3>
    3f4e: d0 1a        	bne	$3f6a <printf+0xbf4>
    3f50: a6 d3        	ldx	$d3                     ; 0xd3 <__pal_size+0x53>
    3f52: e4 12        	cpx	$12                     ; 0x12 <__rc2>
    3f54: d0 14        	bne	$3f6a <printf+0xbf4>
    3f56: a8           	tay
    3f57: 18           	clc
    3f58: a5 15        	lda	$15                     ; 0x15 <__rc5>
    3f5a: 65 cd        	adc	$cd                     ; 0xcd <__pal_size+0x4d>
    3f5c: 85 12        	sta	$12                     ; 0x12 <__rc2>
    3f5e: a5 16        	lda	$16                     ; 0x16 <__rc6>
    3f60: 65 ce        	adc	$ce                     ; 0xce <__pal_size+0x4e>
    3f62: 85 13        	sta	$13                     ; 0x13 <__rc3>
    3f64: a5 14        	lda	$14                     ; 0x14 <__rc4>
    3f66: 92 12        	sta	($12)                   ; 0x12 <__rc2>
    3f68: 80 15        	bra	$3f7f <printf+0xc09>
    3f6a: a2 01        	ldx	#$1
    3f6c: 86 9a        	stx	$9a                     ; 0x9a <__pal_size+0x1a>
    3f6e: a6 14        	ldx	$14                     ; 0x14 <__rc4>
    3f70: 86 67        	stx	$67                     ; 0x67 <__putchar.s>
    3f72: a2 67        	ldx	#$67
    3f74: 86 12        	stx	$12                     ; 0x12 <__rc2>
    3f76: a2 00        	ldx	#$0
    3f78: 86 13        	stx	$13                     ; 0x13 <__rc3>
    3f7a: 20 05 28     	jsr	$2805 <textPrint>
    3f7d: a4 9a        	ldy	$9a                     ; 0x9a <__pal_size+0x1a>
    3f7f: e6 c9        	inc	$c9                     ; 0xc9 <__pal_size+0x49>
    3f81: d0 02        	bne	$3f85 <printf+0xc0f>
    3f83: e6 ca        	inc	$ca                     ; 0xca <__pal_size+0x4a>
    3f85: a5 c5        	lda	$c5                     ; 0xc5 <__pal_size+0x45>
    3f87: 29 01        	and	#$1
    3f89: d0 27        	bne	$3fb2 <printf+0xc3c>
    3f8b: a6 c9        	ldx	$c9                     ; 0xc9 <__pal_size+0x49>
    3f8d: 86 15        	stx	$15                     ; 0x15 <__rc5>
    3f8f: a5 ca        	lda	$ca                     ; 0xca <__pal_size+0x4a>
    3f91: a6 c7        	ldx	$c7                     ; 0xc7 <__pal_size+0x47>
    3f93: 86 14        	stx	$14                     ; 0x14 <__rc4>
    3f95: a6 c8        	ldx	$c8                     ; 0xc8 <__pal_size+0x48>
    3f97: 86 12        	stx	$12                     ; 0x12 <__rc2>
    3f99: 86 13        	stx	$13                     ; 0x13 <__rc3>
    3f9b: c5 12        	cmp	$12                     ; 0x12 <__rc2>
    3f9d: f0 03        	beq	$3fa2 <printf+0xc2c>
    3f9f: 4c 5b 40     	jmp	$405b <printf+0xce5>
    3fa2: a5 14        	lda	$14                     ; 0x14 <__rc4>
    3fa4: 85 12        	sta	$12                     ; 0x12 <__rc2>
    3fa6: a6 15        	ldx	$15                     ; 0x15 <__rc5>
    3fa8: e4 12        	cpx	$12                     ; 0x12 <__rc2>
    3faa: 90 03        	bcc	$3faf <printf+0xc39>
    3fac: 4c 63 40     	jmp	$4063 <printf+0xced>
    3faf: 4c 83 40     	jmp	$4083 <printf+0xd0d>
    3fb2: a6 c9        	ldx	$c9                     ; 0xc9 <__pal_size+0x49>
    3fb4: 86 15        	stx	$15                     ; 0x15 <__rc5>
    3fb6: a5 ca        	lda	$ca                     ; 0xca <__pal_size+0x4a>
    3fb8: a6 9e        	ldx	$9e                     ; 0x9e <__pal_size+0x1e>
    3fba: 5a           	phy
    3fbb: a4 9f        	ldy	$9f                     ; 0x9f <__pal_size+0x1f>
    3fbd: 84 12        	sty	$12                     ; 0x12 <__rc2>
    3fbf: 7a           	ply
    3fc0: e6 12        	inc	$12                     ; 0x12 <__rc2>
    3fc2: c6 12        	dec	$12                     ; 0x12 <__rc2>
    3fc4: f0 03        	beq	$3fc9 <printf+0xc53>
    3fc6: 4c 47 40     	jmp	$4047 <printf+0xcd1>
    3fc9: e0 00        	cpx	#$0
    3fcb: f0 c4        	beq	$3f91 <printf+0xc1b>
    3fcd: 4c 47 40     	jmp	$4047 <printf+0xcd1>
    3fd0: c5 c8        	cmp	$c8                     ; 0xc8 <__pal_size+0x48>
    3fd2: b0 42        	bcs	$4016 <printf+0xca0>
    3fd4: a2 01        	ldx	#$1
    3fd6: 86 14        	stx	$14                     ; 0x14 <__rc4>
    3fd8: a6 d4        	ldx	$d4                     ; 0xd4 <__pal_size+0x54>
    3fda: a0 00        	ldy	#$0
    3fdc: 84 12        	sty	$12                     ; 0x12 <__rc2>
    3fde: a0 00        	ldy	#$0
    3fe0: 84 13        	sty	$13                     ; 0x13 <__rc3>
    3fe2: e4 13        	cpx	$13                     ; 0x13 <__rc3>
    3fe4: d0 1b        	bne	$4001 <printf+0xc8b>
    3fe6: a6 d3        	ldx	$d3                     ; 0xd3 <__pal_size+0x53>
    3fe8: e4 12        	cpx	$12                     ; 0x12 <__rc2>
    3fea: d0 15        	bne	$4001 <printf+0xc8b>
    3fec: a4 14        	ldy	$14                     ; 0x14 <__rc4>
    3fee: 18           	clc
    3fef: aa           	tax
    3ff0: a5 15        	lda	$15                     ; 0x15 <__rc5>
    3ff2: 65 cd        	adc	$cd                     ; 0xcd <__pal_size+0x4d>
    3ff4: 85 12        	sta	$12                     ; 0x12 <__rc2>
    3ff6: 8a           	txa
    3ff7: 65 ce        	adc	$ce                     ; 0xce <__pal_size+0x4e>
    3ff9: 85 13        	sta	$13                     ; 0x13 <__rc3>
    3ffb: a9 20        	lda	#$20
    3ffd: 92 12        	sta	($12)                   ; 0x12 <__rc2>
    3fff: 80 15        	bra	$4016 <printf+0xca0>
    4001: a2 01        	ldx	#$1
    4003: 86 9a        	stx	$9a                     ; 0x9a <__pal_size+0x1a>
    4005: a2 20        	ldx	#$20
    4007: 86 67        	stx	$67                     ; 0x67 <__putchar.s>
    4009: a2 67        	ldx	#$67
    400b: 86 12        	stx	$12                     ; 0x12 <__rc2>
    400d: a2 00        	ldx	#$0
    400f: 86 13        	stx	$13                     ; 0x13 <__rc3>
    4011: 20 05 28     	jsr	$2805 <textPrint>
    4014: a4 9a        	ldy	$9a                     ; 0x9a <__pal_size+0x1a>
    4016: a6 c9        	ldx	$c9                     ; 0xc9 <__pal_size+0x49>
    4018: a5 ca        	lda	$ca                     ; 0xca <__pal_size+0x4a>
    401a: e8           	inx
    401b: d0 01        	bne	$401e <printf+0xca8>
    401d: 1a           	inc
    401e: 86 15        	stx	$15                     ; 0x15 <__rc5>
    4020: 86 c9        	stx	$c9                     ; 0xc9 <__pal_size+0x49>
    4022: 85 ca        	sta	$ca                     ; 0xca <__pal_size+0x4a>
    4024: a6 9e        	ldx	$9e                     ; 0x9e <__pal_size+0x1e>
    4026: 86 12        	stx	$12                     ; 0x12 <__rc2>
    4028: a6 9f        	ldx	$9f                     ; 0x9f <__pal_size+0x1f>
    402a: 86 13        	stx	$13                     ; 0x13 <__rc3>
    402c: a2 ff        	ldx	#$ff
    402e: c6 12        	dec	$12                     ; 0x12 <__rc2>
    4030: e4 12        	cpx	$12                     ; 0x12 <__rc2>
    4032: d0 02        	bne	$4036 <printf+0xcc0>
    4034: c6 13        	dec	$13                     ; 0x13 <__rc3>
    4036: a6 12        	ldx	$12                     ; 0x12 <__rc2>
    4038: 86 9e        	stx	$9e                     ; 0x9e <__pal_size+0x1e>
    403a: a6 13        	ldx	$13                     ; 0x13 <__rc3>
    403c: 86 9f        	stx	$9f                     ; 0x9f <__pal_size+0x1f>
    403e: d0 07        	bne	$4047 <printf+0xcd1>
    4040: a6 12        	ldx	$12                     ; 0x12 <__rc2>
    4042: d0 03        	bne	$4047 <printf+0xcd1>
    4044: 4c 91 3f     	jmp	$3f91 <printf+0xc1b>
    4047: c5 c8        	cmp	$c8                     ; 0xc8 <__pal_size+0x48>
    4049: f0 03        	beq	$404e <printf+0xcd8>
    404b: 4c d0 3f     	jmp	$3fd0 <printf+0xc5a>
    404e: a6 c7        	ldx	$c7                     ; 0xc7 <__pal_size+0x47>
    4050: 86 12        	stx	$12                     ; 0x12 <__rc2>
    4052: a6 15        	ldx	$15                     ; 0x15 <__rc5>
    4054: e4 12        	cpx	$12                     ; 0x12 <__rc2>
    4056: b0 be        	bcs	$4016 <printf+0xca0>
    4058: 4c d4 3f     	jmp	$3fd4 <printf+0xc5e>
    405b: 86 12        	stx	$12                     ; 0x12 <__rc2>
    405d: c5 12        	cmp	$12                     ; 0x12 <__rc2>
    405f: a5 14        	lda	$14                     ; 0x14 <__rc4>
    4061: 90 20        	bcc	$4083 <printf+0xd0d>
    4063: a6 13        	ldx	$13                     ; 0x13 <__rc3>
    4065: d0 03        	bne	$406a <printf+0xcf4>
    4067: aa           	tax
    4068: f0 19        	beq	$4083 <printf+0xd0d>
    406a: 18           	clc
    406b: 65 cd        	adc	$cd                     ; 0xcd <__pal_size+0x4d>
    406d: 85 12        	sta	$12                     ; 0x12 <__rc2>
    406f: a5 13        	lda	$13                     ; 0x13 <__rc3>
    4071: 65 ce        	adc	$ce                     ; 0xce <__pal_size+0x4e>
    4073: 85 13        	sta	$13                     ; 0x13 <__rc3>
    4075: a2 ff        	ldx	#$ff
    4077: c6 12        	dec	$12                     ; 0x12 <__rc2>
    4079: e4 12        	cpx	$12                     ; 0x12 <__rc2>
    407b: d0 02        	bne	$407f <printf+0xd09>
    407d: c6 13        	dec	$13                     ; 0x13 <__rc3>
    407f: a9 00        	lda	#$0
    4081: 92 12        	sta	($12)                   ; 0x12 <__rc2>
    4083: e6 98        	inc	$98                     ; 0x98 <__pal_size+0x18>
    4085: d0 02        	bne	$4089 <printf+0xd13>
    4087: e6 99        	inc	$99                     ; 0x99 <__pal_size+0x19>
    4089: a6 99        	ldx	$99                     ; 0x99 <__pal_size+0x19>
    408b: e4 95        	cpx	$95                     ; 0x95 <__pal_size+0x15>
    408d: f0 03        	beq	$4092 <printf+0xd1c>
    408f: 4c db 33     	jmp	$33db <printf+0x65>
    4092: a6 98        	ldx	$98                     ; 0x98 <__pal_size+0x18>
    4094: e4 94        	cpx	$94                     ; 0x94 <__pal_size+0x14>
    4096: f0 03        	beq	$409b <printf+0xd25>
    4098: 4c db 33     	jmp	$33db <printf+0x65>
    409b: a6 94        	ldx	$94                     ; 0x94 <__pal_size+0x14>
    409d: 86 d9        	stx	$d9                     ; 0xd9 <__pal_size+0x59>
    409f: a6 95        	ldx	$95                     ; 0x95 <__pal_size+0x15>
    40a1: 86 da        	stx	$da                     ; 0xda <__pal_size+0x5a>
    40a3: a6 d9        	ldx	$d9                     ; 0xd9 <__pal_size+0x59>
    40a5: 86 9c        	stx	$9c                     ; 0x9c <__pal_size+0x1c>
    40a7: a6 da        	ldx	$da                     ; 0xda <__pal_size+0x5a>
    40a9: 86 9d        	stx	$9d                     ; 0x9d <__pal_size+0x1d>
    40ab: b2 9c        	lda	($9c)                   ; 0x9c <__pal_size+0x1c>
    40ad: 4c ef 33     	jmp	$33ef <printf+0x79>
    40b0: e4 9b        	cpx	$9b                     ; 0x9b <__pal_size+0x1b>
    40b2: a6 96        	ldx	$96                     ; 0x96 <__pal_size+0x16>
    40b4: b0 03        	bcs	$40b9 <printf+0xd43>
    40b6: 4c ac 3a     	jmp	$3aac <printf+0x736>
    40b9: a5 95        	lda	$95                     ; 0x95 <__pal_size+0x15>
    40bb: 85 9a        	sta	$9a                     ; 0x9a <__pal_size+0x1a>
    40bd: 64 9b        	stz	$9b                     ; 0x9b <__pal_size+0x1b>
    40bf: e6 9a        	inc	$9a                     ; 0x9a <__pal_size+0x1a>
    40c1: f0 03        	beq	$40c6 <printf+0xd50>
    40c3: 4c ac 3a     	jmp	$3aac <printf+0x736>
    40c6: e6 9b        	inc	$9b                     ; 0x9b <__pal_size+0x1b>
    40c8: 4c ac 3a     	jmp	$3aac <printf+0x736>
    40cb: a2 58        	ldx	#$58
    40cd: 86 dd        	stx	$dd                     ; 0xdd <__pal_size+0x5d>
    40cf: a2 01        	ldx	#$1
    40d1: 86 97        	stx	$97                     ; 0x97 <__pal_size+0x17>
    40d3: a2 30        	ldx	#$30
    40d5: 86 94        	stx	$94                     ; 0x94 <__pal_size+0x14>
    40d7: a9 02        	lda	#$2
    40d9: a2 00        	ldx	#$0
    40db: 86 9d        	stx	$9d                     ; 0x9d <__pal_size+0x1d>
    40dd: 4c df 3a     	jmp	$3adf <printf+0x769>
    40e0: 64 9e        	stz	$9e                     ; 0x9e <__pal_size+0x1e>
    40e2: 64 9f        	stz	$9f                     ; 0x9f <__pal_size+0x1f>
    40e4: 4c 8c 3d     	jmp	$3d8c <printf+0xa16>
    40e7: 60           	rts

000040e8 <malloc>:
    40e8: a8           	tay
    40e9: 8a           	txa
    40ea: a2 00        	ldx	#$0
    40ec: 86 12        	stx	$12                     ; 0x12 <__rc2>
    40ee: a2 00        	ldx	#$0
    40f0: 86 13        	stx	$13                     ; 0x13 <__rc3>
    40f2: aa           	tax
    40f3: d0 07        	bne	$40fc <malloc+0x14>
    40f5: c0 00        	cpy	#$0
    40f7: d0 03        	bne	$40fc <malloc+0x14>
    40f9: 4c fe 41     	jmp	$41fe <malloc+0x116>
    40fc: 84 16        	sty	$16                     ; 0x16 <__rc6>
    40fe: aa           	tax
    40ff: d0 0e        	bne	$410f <malloc+0x27>
    4101: a6 16        	ldx	$16                     ; 0x16 <__rc6>
    4103: e0 07        	cpx	#$7
    4105: b0 0c        	bcs	$4113 <malloc+0x2b>
    4107: a2 08        	ldx	#$8
    4109: 86 95        	stx	$95                     ; 0x95 <__pal_size+0x15>
    410b: a9 00        	lda	#$0
    410d: 80 31        	bra	$4140 <malloc+0x58>
    410f: c9 00        	cmp	#$0
    4111: 90 f4        	bcc	$4107 <malloc+0x1f>
    4113: a8           	tay
    4114: a5 16        	lda	$16                     ; 0x16 <__rc6>
    4116: 29 01        	and	#$1
    4118: a2 02        	ldx	#$2
    411a: 64 14        	stz	$14                     ; 0x14 <__rc4>
    411c: c9 00        	cmp	#$0
    411e: f0 02        	beq	$4122 <malloc+0x3a>
    4120: a2 03        	ldx	#$3
    4122: 86 15        	stx	$15                     ; 0x15 <__rc5>
    4124: 18           	clc
    4125: a5 16        	lda	$16                     ; 0x16 <__rc6>
    4127: 65 15        	adc	$15                     ; 0x15 <__rc5>
    4129: aa           	tax
    412a: 98           	tya
    412b: 65 14        	adc	$14                     ; 0x14 <__rc4>
    412d: 90 03        	bcc	$4132 <malloc+0x4a>
    412f: 4c fe 41     	jmp	$41fe <malloc+0x116>
    4132: 86 14        	stx	$14                     ; 0x14 <__rc4>
    4134: 86 95        	stx	$95                     ; 0x95 <__pal_size+0x15>
    4136: aa           	tax
    4137: d0 07        	bne	$4140 <malloc+0x58>
    4139: a6 14        	ldx	$14                     ; 0x14 <__rc4>
    413b: d0 03        	bne	$4140 <malloc+0x58>
    413d: 4c fe 41     	jmp	$41fe <malloc+0x116>
    4140: 85 94        	sta	$94                     ; 0x94 <__pal_size+0x14>
    4142: a5 93        	lda	$93                     ; 0x93 <_ZN12_GLOBAL__N_111initializedE>
    4144: 29 01        	and	#$1
    4146: d0 3c        	bne	$4184 <malloc+0x9c>
    4148: a9 00        	lda	#$0
    414a: a2 10        	ldx	#$10
    414c: a0 90        	ldy	#$90
    414e: 84 14        	sty	$14                     ; 0x14 <__rc4>
    4150: a0 49        	ldy	#$49
    4152: 84 15        	sty	$15                     ; 0x15 <__rc5>
    4154: a4 12        	ldy	$12                     ; 0x12 <__rc2>
    4156: 84 96        	sty	$96                     ; 0x96 <__pal_size+0x16>
    4158: a4 13        	ldy	$13                     ; 0x13 <__rc3>
    415a: 84 97        	sty	$97                     ; 0x97 <__pal_size+0x17>
    415c: a0 90        	ldy	#$90
    415e: 84 12        	sty	$12                     ; 0x12 <__rc2>
    4160: a0 49        	ldy	#$49
    4162: 84 13        	sty	$13                     ; 0x13 <__rc3>
    4164: 20 4a 03     	jsr	$34a <_ZN12_GLOBAL__N_19FreeChunk6insertEPvj>
    4167: a6 96        	ldx	$96                     ; 0x96 <__pal_size+0x16>
    4169: 86 12        	stx	$12                     ; 0x12 <__rc2>
    416b: a6 97        	ldx	$97                     ; 0x97 <__pal_size+0x17>
    416d: 86 13        	stx	$13                     ; 0x13 <__rc3>
    416f: ae 91 49     	ldx	$4991                   ; 0x4991 <__heap_start+0x1>
    4172: a9 fe        	lda	#$fe
    4174: 2d 90 49     	and	$4990                   ; 0x4990 <__heap_start>
    4177: 8d 90 49     	sta	$4990                   ; 0x4990 <__heap_start>
    417a: 8e 91 49     	stx	$4991                   ; 0x4991 <__heap_start+0x1>
    417d: a2 01        	ldx	#$1
    417f: 8e 8a 49     	stx	$498a                   ; 0x498a <_ZN12_GLOBAL__N_19last_freeE>
    4182: 86 93        	stx	$93                     ; 0x93 <_ZN12_GLOBAL__N_111initializedE>
    4184: ae 8d 49     	ldx	$498d                   ; 0x498d <_ZN12_GLOBAL__N_19free_listE>
    4187: 86 16        	stx	$16                     ; 0x16 <__rc6>
    4189: ac 8e 49     	ldy	$498e                   ; 0x498e <_ZN12_GLOBAL__N_19free_listE+0x1>
    418c: 84 17        	sty	$17                     ; 0x17 <__rc7>
    418e: a9 00        	lda	#$0
    4190: 85 14        	sta	$14                     ; 0x14 <__rc4>
    4192: a9 00        	lda	#$0
    4194: 85 15        	sta	$15                     ; 0x15 <__rc5>
    4196: c4 15        	cpy	$15                     ; 0x15 <__rc5>
    4198: d0 07        	bne	$41a1 <malloc+0xb9>
    419a: e4 14        	cpx	$14                     ; 0x14 <__rc4>
    419c: d0 03        	bne	$41a1 <malloc+0xb9>
    419e: 4c fe 41     	jmp	$41fe <malloc+0x116>
    41a1: a2 00        	ldx	#$0
    41a3: a0 10        	ldy	#$10
    41a5: 86 14        	stx	$14                     ; 0x14 <__rc4>
    41a7: 84 15        	sty	$15                     ; 0x15 <__rc5>
    41a9: 18           	clc
    41aa: a9 90        	lda	#$90
    41ac: 65 14        	adc	$14                     ; 0x14 <__rc4>
    41ae: 85 18        	sta	$18                     ; 0x18 <__rc8>
    41b0: a9 49        	lda	#$49
    41b2: 65 15        	adc	$15                     ; 0x15 <__rc5>
    41b4: 85 98        	sta	$98                     ; 0x98 <__pal_size+0x18>
    41b6: a0 01        	ldy	#$1
    41b8: a6 94        	ldx	$94                     ; 0x94 <__pal_size+0x14>
    41ba: 86 19        	stx	$19                     ; 0x19 <__rc9>
    41bc: a6 16        	ldx	$16                     ; 0x16 <__rc6>
    41be: 86 14        	stx	$14                     ; 0x14 <__rc4>
    41c0: a6 17        	ldx	$17                     ; 0x17 <__rc7>
    41c2: 86 15        	stx	$15                     ; 0x15 <__rc5>
    41c4: b1 14        	lda	($14),y                 ; 0x14 <__rc4>
    41c6: c5 19        	cmp	$19                     ; 0x19 <__rc9>
    41c8: d0 0e        	bne	$41d8 <malloc+0xf0>
    41ca: b2 14        	lda	($14)                   ; 0x14 <__rc4>
    41cc: 29 fe        	and	#$fe
    41ce: a6 95        	ldx	$95                     ; 0x95 <__pal_size+0x15>
    41d0: 86 1a        	stx	$1a                     ; 0x1a <__rc10>
    41d2: c5 1a        	cmp	$1a                     ; 0x1a <__rc10>
    41d4: b0 29        	bcs	$41ff <malloc+0x117>
    41d6: 80 04        	bra	$41dc <malloc+0xf4>
    41d8: c5 19        	cmp	$19                     ; 0x19 <__rc9>
    41da: b0 23        	bcs	$41ff <malloc+0x117>
    41dc: a5 14        	lda	$14                     ; 0x14 <__rc4>
    41de: 18           	clc
    41df: 69 02        	adc	#$2
    41e1: 85 1a        	sta	$1a                     ; 0x1a <__rc10>
    41e3: a5 15        	lda	$15                     ; 0x15 <__rc5>
    41e5: 69 00        	adc	#$0
    41e7: 85 1b        	sta	$1b                     ; 0x1b <__rc11>
    41e9: a0 02        	ldy	#$2
    41eb: b1 14        	lda	($14),y                 ; 0x14 <__rc4>
    41ed: 85 14        	sta	$14                     ; 0x14 <__rc4>
    41ef: 88           	dey
    41f0: b1 1a        	lda	($1a),y                 ; 0x1a <__rc10>
    41f2: 85 15        	sta	$15                     ; 0x15 <__rc5>
    41f4: c5 17        	cmp	$17                     ; 0x17 <__rc7>
    41f6: d0 cc        	bne	$41c4 <malloc+0xdc>
    41f8: a5 14        	lda	$14                     ; 0x14 <__rc4>
    41fa: c5 16        	cmp	$16                     ; 0x16 <__rc6>
    41fc: d0 c6        	bne	$41c4 <malloc+0xdc>
    41fe: 60           	rts
    41ff: a6 18        	ldx	$18                     ; 0x18 <__rc8>
    4201: 86 99        	stx	$99                     ; 0x99 <__pal_size+0x19>
    4203: a6 14        	ldx	$14                     ; 0x14 <__rc4>
    4205: 86 12        	stx	$12                     ; 0x12 <__rc2>
    4207: a6 15        	ldx	$15                     ; 0x15 <__rc5>
    4209: 86 13        	stx	$13                     ; 0x13 <__rc3>
    420b: a6 14        	ldx	$14                     ; 0x14 <__rc4>
    420d: 86 96        	stx	$96                     ; 0x96 <__pal_size+0x16>
    420f: a6 15        	ldx	$15                     ; 0x15 <__rc5>
    4211: 86 97        	stx	$97                     ; 0x97 <__pal_size+0x17>
    4213: 20 9e 04     	jsr	$49e <_ZN12_GLOBAL__N_19FreeChunk6removeEv>
    4216: a6 96        	ldx	$96                     ; 0x96 <__pal_size+0x16>
    4218: 86 12        	stx	$12                     ; 0x12 <__rc2>
    421a: a6 97        	ldx	$97                     ; 0x97 <__pal_size+0x17>
    421c: 86 13        	stx	$13                     ; 0x13 <__rc3>
    421e: a0 01        	ldy	#$1
    4220: b1 12        	lda	($12),y                 ; 0x12 <__rc2>
    4222: 85 15        	sta	$15                     ; 0x15 <__rc5>
    4224: a9 fe        	lda	#$fe
    4226: 32 12        	and	($12)                   ; 0x12 <__rc2>
    4228: 38           	sec
    4229: a6 95        	ldx	$95                     ; 0x95 <__pal_size+0x15>
    422b: 86 14        	stx	$14                     ; 0x14 <__rc4>
    422d: 85 17        	sta	$17                     ; 0x17 <__rc7>
    422f: e5 14        	sbc	$14                     ; 0x14 <__rc4>
    4231: a8           	tay
    4232: a6 94        	ldx	$94                     ; 0x94 <__pal_size+0x14>
    4234: 86 14        	stx	$14                     ; 0x14 <__rc4>
    4236: a5 15        	lda	$15                     ; 0x15 <__rc5>
    4238: 85 16        	sta	$16                     ; 0x16 <__rc6>
    423a: e5 14        	sbc	$14                     ; 0x14 <__rc4>
    423c: d0 06        	bne	$4244 <malloc+0x15c>
    423e: 85 18        	sta	$18                     ; 0x18 <__rc8>
    4240: c0 08        	cpy	#$8
    4242: 80 04        	bra	$4248 <malloc+0x160>
    4244: 85 18        	sta	$18                     ; 0x18 <__rc8>
    4246: c9 00        	cmp	#$0
    4248: a6 99        	ldx	$99                     ; 0x99 <__pal_size+0x19>
    424a: 86 14        	stx	$14                     ; 0x14 <__rc4>
    424c: a6 98        	ldx	$98                     ; 0x98 <__pal_size+0x18>
    424e: 86 15        	stx	$15                     ; 0x15 <__rc5>
    4250: a5 17        	lda	$17                     ; 0x17 <__rc7>
    4252: 90 43        	bcc	$4297 <malloc+0x1af>
    4254: 18           	clc
    4255: a6 95        	ldx	$95                     ; 0x95 <__pal_size+0x15>
    4257: 86 95        	stx	$95                     ; 0x95 <__pal_size+0x15>
    4259: 8a           	txa
    425a: 65 12        	adc	$12                     ; 0x12 <__rc2>
    425c: 85 12        	sta	$12                     ; 0x12 <__rc2>
    425e: a6 94        	ldx	$94                     ; 0x94 <__pal_size+0x14>
    4260: 86 94        	stx	$94                     ; 0x94 <__pal_size+0x14>
    4262: a5 94        	lda	$94                     ; 0x94 <__pal_size+0x14>
    4264: 65 13        	adc	$13                     ; 0x13 <__rc3>
    4266: 85 13        	sta	$13                     ; 0x13 <__rc3>
    4268: a6 18        	ldx	$18                     ; 0x18 <__rc8>
    426a: 98           	tya
    426b: 20 4a 03     	jsr	$34a <_ZN12_GLOBAL__N_19FreeChunk6insertEPvj>
    426e: a6 96        	ldx	$96                     ; 0x96 <__pal_size+0x16>
    4270: 86 12        	stx	$12                     ; 0x12 <__rc2>
    4272: a6 97        	ldx	$97                     ; 0x97 <__pal_size+0x17>
    4274: 86 13        	stx	$13                     ; 0x13 <__rc3>
    4276: a5 95        	lda	$95                     ; 0x95 <__pal_size+0x15>
    4278: 29 fe        	and	#$fe
    427a: 85 14        	sta	$14                     ; 0x14 <__rc4>
    427c: a0 01        	ldy	#$1
    427e: 98           	tya
    427f: 32 12        	and	($12)                   ; 0x12 <__rc2>
    4281: 05 14        	ora	$14                     ; 0x14 <__rc4>
    4283: 92 12        	sta	($12)                   ; 0x12 <__rc2>
    4285: a5 94        	lda	$94                     ; 0x94 <__pal_size+0x14>
    4287: 91 12        	sta	($12),y                 ; 0x12 <__rc2>
    4289: a5 14        	lda	$14                     ; 0x14 <__rc4>
    428b: a6 94        	ldx	$94                     ; 0x94 <__pal_size+0x14>
    428d: 86 16        	stx	$16                     ; 0x16 <__rc6>
    428f: a6 99        	ldx	$99                     ; 0x99 <__pal_size+0x19>
    4291: 86 14        	stx	$14                     ; 0x14 <__rc4>
    4293: a6 98        	ldx	$98                     ; 0x98 <__pal_size+0x18>
    4295: 86 15        	stx	$15                     ; 0x15 <__rc5>
    4297: 18           	clc
    4298: 65 12        	adc	$12                     ; 0x12 <__rc2>
    429a: a8           	tay
    429b: a5 16        	lda	$16                     ; 0x16 <__rc6>
    429d: 65 13        	adc	$13                     ; 0x13 <__rc3>
    429f: c5 15        	cmp	$15                     ; 0x15 <__rc5>
    42a1: d0 09        	bne	$42ac <malloc+0x1c4>
    42a3: c4 14        	cpy	$14                     ; 0x14 <__rc4>
    42a5: d0 05        	bne	$42ac <malloc+0x1c4>
    42a7: 9c 8a 49     	stz	$498a                   ; 0x498a <_ZN12_GLOBAL__N_19last_freeE>
    42aa: 80 14        	bra	$42c0 <malloc+0x1d8>
    42ac: 84 14        	sty	$14                     ; 0x14 <__rc4>
    42ae: 85 15        	sta	$15                     ; 0x15 <__rc5>
    42b0: a0 01        	ldy	#$1
    42b2: b1 14        	lda	($14),y                 ; 0x14 <__rc4>
    42b4: 85 16        	sta	$16                     ; 0x16 <__rc6>
    42b6: a9 fe        	lda	#$fe
    42b8: 32 14        	and	($14)                   ; 0x14 <__rc4>
    42ba: 92 14        	sta	($14)                   ; 0x14 <__rc4>
    42bc: a5 16        	lda	$16                     ; 0x16 <__rc6>
    42be: 91 14        	sta	($14),y                 ; 0x14 <__rc4>
    42c0: a5 12        	lda	$12                     ; 0x12 <__rc2>
    42c2: 18           	clc
    42c3: 69 02        	adc	#$2
    42c5: 85 12        	sta	$12                     ; 0x12 <__rc2>
    42c7: a5 13        	lda	$13                     ; 0x13 <__rc3>
    42c9: 69 00        	adc	#$0
    42cb: 85 13        	sta	$13                     ; 0x13 <__rc3>
    42cd: 60           	rts

000042ce <memcpy>:
    42ce: a8           	tay
    42cf: 8a           	txa
    42d0: d0 03        	bne	$42d5 <memcpy+0x7>
    42d2: 98           	tya
    42d3: f0 24        	beq	$42f9 <memcpy+0x2b>
    42d5: a5 12        	lda	$12                     ; 0x12 <__rc2>
    42d7: 85 16        	sta	$16                     ; 0x16 <__rc6>
    42d9: a5 13        	lda	$13                     ; 0x13 <__rc3>
    42db: 85 17        	sta	$17                     ; 0x17 <__rc7>
    42dd: b2 14        	lda	($14)                   ; 0x14 <__rc4>
    42df: 92 16        	sta	($16)                   ; 0x16 <__rc6>
    42e1: e6 16        	inc	$16                     ; 0x16 <__rc6>
    42e3: d0 02        	bne	$42e7 <memcpy+0x19>
    42e5: e6 17        	inc	$17                     ; 0x17 <__rc7>
    42e7: e6 14        	inc	$14                     ; 0x14 <__rc4>
    42e9: d0 02        	bne	$42ed <memcpy+0x1f>
    42eb: e6 15        	inc	$15                     ; 0x15 <__rc5>
    42ed: 88           	dey
    42ee: c0 ff        	cpy	#$ff
    42f0: d0 01        	bne	$42f3 <memcpy+0x25>
    42f2: ca           	dex
    42f3: 8a           	txa
    42f4: d0 e7        	bne	$42dd <memcpy+0xf>
    42f6: 98           	tya
    42f7: d0 e4        	bne	$42dd <memcpy+0xf>
    42f9: 60           	rts

000042fa <__memset>:
    42fa: a4 14        	ldy	$14                     ; 0x14 <__rc4>
    42fc: d0 04        	bne	$4302 <__memset+0x8>
    42fe: e0 00        	cpx	#$0
    4300: f0 17        	beq	$4319 <__memset+0x1f>
    4302: 92 12        	sta	($12)                   ; 0x12 <__rc2>
    4304: e6 12        	inc	$12                     ; 0x12 <__rc2>
    4306: d0 02        	bne	$430a <__memset+0x10>
    4308: e6 13        	inc	$13                     ; 0x13 <__rc3>
    430a: ca           	dex
    430b: e0 ff        	cpx	#$ff
    430d: d0 02        	bne	$4311 <__memset+0x17>
    430f: c6 14        	dec	$14                     ; 0x14 <__rc4>
    4311: a4 14        	ldy	$14                     ; 0x14 <__rc4>
    4313: d0 ed        	bne	$4302 <__memset+0x8>
    4315: e0 00        	cpx	#$0
    4317: d0 e9        	bne	$4302 <__memset+0x8>
    4319: 60           	rts

0000431a <__umodhi3>:
    431a: a8           	tay
    431b: 8a           	txa
    431c: e6 13        	inc	$13                     ; 0x13 <__rc3>
    431e: c6 13        	dec	$13                     ; 0x13 <__rc3>
    4320: d0 09        	bne	$432b <__umodhi3+0x11>
    4322: e6 12        	inc	$12                     ; 0x12 <__rc2>
    4324: c6 12        	dec	$12                     ; 0x12 <__rc2>
    4326: d0 03        	bne	$432b <__umodhi3+0x11>
    4328: 4c bc 43     	jmp	$43bc <__umodhi3+0xa2>
    432b: c5 13        	cmp	$13                     ; 0x13 <__rc3>
    432d: d0 07        	bne	$4336 <__umodhi3+0x1c>
    432f: c4 12        	cpy	$12                     ; 0x12 <__rc2>
    4331: b0 0a        	bcs	$433d <__umodhi3+0x23>
    4333: 4c bc 43     	jmp	$43bc <__umodhi3+0xa2>
    4336: c5 13        	cmp	$13                     ; 0x13 <__rc3>
    4338: b0 03        	bcs	$433d <__umodhi3+0x23>
    433a: 4c bc 43     	jmp	$43bc <__umodhi3+0xa2>
    433d: 86 16        	stx	$16                     ; 0x16 <__rc6>
    433f: e6 13        	inc	$13                     ; 0x13 <__rc3>
    4341: c6 13        	dec	$13                     ; 0x13 <__rc3>
    4343: 10 03        	bpl	$4348 <__umodhi3+0x2e>
    4345: 4c b4 43     	jmp	$43b4 <__umodhi3+0x9a>
    4348: a2 00        	ldx	#$0
    434a: 5a           	phy
    434b: a4 12        	ldy	$12                     ; 0x12 <__rc2>
    434d: 84 14        	sty	$14                     ; 0x14 <__rc4>
    434f: a4 13        	ldy	$13                     ; 0x13 <__rc3>
    4351: 84 15        	sty	$15                     ; 0x15 <__rc5>
    4353: 7a           	ply
    4354: 06 14        	asl	$14                     ; 0x14 <__rc4>
    4356: 26 15        	rol	$15                     ; 0x15 <__rc5>
    4358: c5 15        	cmp	$15                     ; 0x15 <__rc5>
    435a: d0 08        	bne	$4364 <__umodhi3+0x4a>
    435c: c4 14        	cpy	$14                     ; 0x14 <__rc4>
    435e: a5 16        	lda	$16                     ; 0x16 <__rc6>
    4360: 90 19        	bcc	$437b <__umodhi3+0x61>
    4362: 80 04        	bra	$4368 <__umodhi3+0x4e>
    4364: c5 15        	cmp	$15                     ; 0x15 <__rc5>
    4366: 90 13        	bcc	$437b <__umodhi3+0x61>
    4368: e8           	inx
    4369: 5a           	phy
    436a: a4 14        	ldy	$14                     ; 0x14 <__rc4>
    436c: 84 12        	sty	$12                     ; 0x12 <__rc2>
    436e: a4 15        	ldy	$15                     ; 0x15 <__rc5>
    4370: 84 13        	sty	$13                     ; 0x13 <__rc3>
    4372: 7a           	ply
    4373: e6 15        	inc	$15                     ; 0x15 <__rc5>
    4375: c6 15        	dec	$15                     ; 0x15 <__rc5>
    4377: 10 db        	bpl	$4354 <__umodhi3+0x3a>
    4379: 80 08        	bra	$4383 <__umodhi3+0x69>
    437b: a5 12        	lda	$12                     ; 0x12 <__rc2>
    437d: 85 14        	sta	$14                     ; 0x14 <__rc4>
    437f: a5 13        	lda	$13                     ; 0x13 <__rc3>
    4381: 85 15        	sta	$15                     ; 0x15 <__rc5>
    4383: 38           	sec
    4384: 98           	tya
    4385: e5 14        	sbc	$14                     ; 0x14 <__rc4>
    4387: a8           	tay
    4388: a5 16        	lda	$16                     ; 0x16 <__rc6>
    438a: e5 15        	sbc	$15                     ; 0x15 <__rc5>
    438c: e0 00        	cpx	#$0
    438e: d0 08        	bne	$4398 <__umodhi3+0x7e>
    4390: 80 2a        	bra	$43bc <__umodhi3+0xa2>
    4392: c5 15        	cmp	$15                     ; 0x15 <__rc5>
    4394: b0 0e        	bcs	$43a4 <__umodhi3+0x8a>
    4396: 80 17        	bra	$43af <__umodhi3+0x95>
    4398: 46 15        	lsr	$15                     ; 0x15 <__rc5>
    439a: 66 14        	ror	$14                     ; 0x14 <__rc4>
    439c: c5 15        	cmp	$15                     ; 0x15 <__rc5>
    439e: d0 f2        	bne	$4392 <__umodhi3+0x78>
    43a0: c4 14        	cpy	$14                     ; 0x14 <__rc4>
    43a2: 90 0b        	bcc	$43af <__umodhi3+0x95>
    43a4: 85 12        	sta	$12                     ; 0x12 <__rc2>
    43a6: 38           	sec
    43a7: 98           	tya
    43a8: e5 14        	sbc	$14                     ; 0x14 <__rc4>
    43aa: a8           	tay
    43ab: a5 12        	lda	$12                     ; 0x12 <__rc2>
    43ad: e5 15        	sbc	$15                     ; 0x15 <__rc5>
    43af: ca           	dex
    43b0: d0 e6        	bne	$4398 <__umodhi3+0x7e>
    43b2: 80 08        	bra	$43bc <__umodhi3+0xa2>
    43b4: 38           	sec
    43b5: 98           	tya
    43b6: e5 12        	sbc	$12                     ; 0x12 <__rc2>
    43b8: a8           	tay
    43b9: 8a           	txa
    43ba: e5 13        	sbc	$13                     ; 0x13 <__rc3>
    43bc: aa           	tax
    43bd: 98           	tya
    43be: 60           	rts

000043bf <__mulsi3>:
    43bf: a4 17        	ldy	$17                     ; 0x17 <__rc7>
    43c1: d0 0f        	bne	$43d2 <__mulsi3+0x13>
    43c3: a4 16        	ldy	$16                     ; 0x16 <__rc6>
    43c5: d0 0b        	bne	$43d2 <__mulsi3+0x13>
    43c7: a4 15        	ldy	$15                     ; 0x15 <__rc5>
    43c9: d0 07        	bne	$43d2 <__mulsi3+0x13>
    43cb: a4 14        	ldy	$14                     ; 0x14 <__rc4>
    43cd: d0 03        	bne	$43d2 <__mulsi3+0x13>
    43cf: 4c 26 44     	jmp	$4426 <__mulsi3+0x67>
    43d2: 85 18        	sta	$18                     ; 0x18 <__rc8>
    43d4: 86 19        	stx	$19                     ; 0x19 <__rc9>
    43d6: a0 00        	ldy	#$0
    43d8: a2 00        	ldx	#$0
    43da: 64 1a        	stz	$1a                     ; 0x1a <__rc10>
    43dc: 98           	tya
    43dd: 46 17        	lsr	$17                     ; 0x17 <__rc7>
    43df: 66 16        	ror	$16                     ; 0x16 <__rc6>
    43e1: 66 15        	ror	$15                     ; 0x15 <__rc5>
    43e3: 66 14        	ror	$14                     ; 0x14 <__rc4>
    43e5: 90 15        	bcc	$43fc <__mulsi3+0x3d>
    43e7: 85 1b        	sta	$1b                     ; 0x1b <__rc11>
    43e9: 98           	tya
    43ea: 18           	clc
    43eb: 65 18        	adc	$18                     ; 0x18 <__rc8>
    43ed: a8           	tay
    43ee: 8a           	txa
    43ef: 65 19        	adc	$19                     ; 0x19 <__rc9>
    43f1: aa           	tax
    43f2: a5 1a        	lda	$1a                     ; 0x1a <__rc10>
    43f4: 65 12        	adc	$12                     ; 0x12 <__rc2>
    43f6: 85 1a        	sta	$1a                     ; 0x1a <__rc10>
    43f8: a5 1b        	lda	$1b                     ; 0x1b <__rc11>
    43fa: 65 13        	adc	$13                     ; 0x13 <__rc3>
    43fc: 06 18        	asl	$18                     ; 0x18 <__rc8>
    43fe: 26 19        	rol	$19                     ; 0x19 <__rc9>
    4400: 26 12        	rol	$12                     ; 0x12 <__rc2>
    4402: 26 13        	rol	$13                     ; 0x13 <__rc3>
    4404: e6 17        	inc	$17                     ; 0x17 <__rc7>
    4406: c6 17        	dec	$17                     ; 0x17 <__rc7>
    4408: d0 d3        	bne	$43dd <__mulsi3+0x1e>
    440a: e6 16        	inc	$16                     ; 0x16 <__rc6>
    440c: c6 16        	dec	$16                     ; 0x16 <__rc6>
    440e: d0 cd        	bne	$43dd <__mulsi3+0x1e>
    4410: e6 15        	inc	$15                     ; 0x15 <__rc5>
    4412: c6 15        	dec	$15                     ; 0x15 <__rc5>
    4414: d0 c7        	bne	$43dd <__mulsi3+0x1e>
    4416: e6 14        	inc	$14                     ; 0x14 <__rc4>
    4418: c6 14        	dec	$14                     ; 0x14 <__rc4>
    441a: d0 c1        	bne	$43dd <__mulsi3+0x1e>
    441c: 5a           	phy
    441d: a4 1a        	ldy	$1a                     ; 0x1a <__rc10>
    441f: 84 12        	sty	$12                     ; 0x12 <__rc2>
    4421: 7a           	ply
    4422: 85 13        	sta	$13                     ; 0x13 <__rc3>
    4424: 98           	tya
    4425: 60           	rts
    4426: a0 00        	ldy	#$0
    4428: a2 00        	ldx	#$0
    442a: 64 1a        	stz	$1a                     ; 0x1a <__rc10>
    442c: 98           	tya
    442d: 80 ed        	bra	$441c <__mulsi3+0x5d>
