
hackGfx.elf:	file format elf32-mos

SYMBOL TABLE:
00000000 l    df *ABS*	00000000 zero-bss.c
00000000 l    df *ABS*	00000000 zero-zp-bss.c
00000000 l    df *ABS*	00000000 copy-zp-data.c
00000000 l    df *ABS*	00000000 ld-temp.o
0000007b l     O .zp.bss	00000007 kernelEventData
00000030 l     O .zp.data	00000030 textColors
00000061 l     O .zp.bss	00000001 _col
00000062 l     O .zp.bss	00000001 _row
00000063 l     O .zp.bss	00000004 _BITMAP_BASE.0
00000067 l     O .zp.bss	00000004 _BITMAP_BASE.1
0000006b l     O .zp.bss	00000004 _BITMAP_BASE.2
0000006f l     O .zp.bss	00000001 _tileSize.1
00000070 l     O .zp.bss	00000001 _tileSize.2
00000082 l     O .zp.bss	00000001 kernelError
00002f88 l     F .text	000000a5 __umodhi3
00003476 l     O .bss	0000010e opl3_instrument_defs
00000079 l     O .zp.bss	00000002 theFile
00000087 l     O .zp.bss	00000004 gd3Location
0000279f l     F .text	00000179 fileRead
0000008b l     O .zp.bss	00000004 loopBackTo
00002d43 l     F .text	000001f4 copyToRAM
0000008f l     O .zp.bss	00000004 needle
00000093 l     O .zp.bss	00000004 samplesSoFar
0000009a l     O .zp.bss	00000002 _ZN12_GLOBAL__N_19free_sizeE
00000098 l     O .zp.bss	00000001 _ZN12_GLOBAL__N_111initializedE
0000009c l     O .zp.bss	00000002 _ZN12_GLOBAL__N_19free_listE
00000099 l     O .zp.bss	00000001 _ZN12_GLOBAL__N_19last_freeE
00002429 l     F .text	00000376 textPrint
00000078 l     O .zp.bss	00000001 tileAnim.1
0000034a l     F .text	0000014b _ZN12_GLOBAL__N_19FreeChunk6insertEPvj
00000077 l     O .zp.bss	00000001 wantSound
00000097 l     O .zp.bss	00000001 comeRightTrough
00000083 l     O .zp.bss	00000004 tooBigWait
00002918 l     F .text	0000042b opl3_shadow
0000302d l     F .text	00000070 __mulsi3
00000071 l     O .zp.bss	00000002 tm_xf
00000073 l     O .zp.bss	00000001 tm_x
00000060 l     O .zp.data	00000001 wantText
00000074 l     O .zp.bss	00000002 tm_xf1
00000076 l     O .zp.bss	00000001 tm_x1
00000518 g     F .text	00001f11 main
00010080 g       .pal	00000000 pal_end
00010000 g       .pal	00000000 pal_start
0004b400 g       .tile3	00000000 tile3_start
0004b900 g       .tile3	00000000 tile3_end
000004d2 g       .text	00000000 PEEK24
000004f4 g       .text	00000000 POKE24
00000014 g       *ABS*	00000000 __rc4
00000012 g       *ABS*	00000000 __rc2
00000346 g       .text	00000000 __after_main
00000332 g       .text	00000000 __do_init_stack
00000340 g       .text	00000000 __do_copy_zp_data
000004bb g     F .text	00000017 __copy_zp_data
0000033a g       .text	00000000 __do_zero_bss
00000495 g     F .text	00000013 __zero_bss
0000033d g       .text	00000000 __do_zero_zp_bss
000004a8 g     F .text	00000013 __zero_zp_bss
00002f37 g     F .text	00000005 exit
00000349 g       .text	00000000 _fini
00002f68  w    F .text	00000020 __memset
00001000  w      *ABS*	00000000 __heap_default_limit
00003584 g       .noinit	00000000 __heap_start
00002f3c  w    F .text	0000002c memcpy
00000010 g       *ABS*	00000000 __rc0
00000016 g       *ABS*	00000000 __rc6
00000018 g       *ABS*	00000000 __rc8
0000001a g       *ABS*	00000000 __rc10
0000001c g       *ABS*	00000000 __rc12
0000001e g       *ABS*	00000000 __rc14
00000020 g       *ABS*	00000000 __rc16
00000022 g       *ABS*	00000000 __rc18
00000024 g       *ABS*	00000000 __rc20
00000026 g       *ABS*	00000000 __rc22
00000028 g       *ABS*	00000000 __rc24
0000002a g       *ABS*	00000000 __rc26
0000002c g       *ABS*	00000000 __rc28
0000002e g       *ABS*	00000000 __rc30
0000002f g       *ABS*	00000000 __rc31
00000300 g       *ABS*	00000000 __f256_start
0000a000 g       *ABS*	00000000 __stack
0000a000 g       *ABS*	00000000 __SLOT_ADDR
0800a000 g       *ABS*	00000000 __block8_lma
00002000 g       *ABS*	00000000 __BLOCK_SIZE
0900a000 g       *ABS*	00000000 __block9_lma
0a00a000 g       *ABS*	00000000 __block10_lma
0b00a000 g       *ABS*	00000000 __block11_lma
0c00a000 g       *ABS*	00000000 __block12_lma
0d00a000 g       *ABS*	00000000 __block13_lma
0e00a000 g       *ABS*	00000000 __block14_lma
0f00a000 g       *ABS*	00000000 __block15_lma
1000a000 g       *ABS*	00000000 __block16_lma
1100a000 g       *ABS*	00000000 __block17_lma
1200a000 g       *ABS*	00000000 __block18_lma
1300a000 g       *ABS*	00000000 __block19_lma
1400a000 g       *ABS*	00000000 __block20_lma
1500a000 g       *ABS*	00000000 __block21_lma
1600a000 g       *ABS*	00000000 __block22_lma
1700a000 g       *ABS*	00000000 __block23_lma
00010000 g       *ABS*	00000000 __pal_lma
00000080 g       *ABS*	00000000 __pal_size
0004b400 g       *ABS*	00000000 __tile3_lma
00000500 g       *ABS*	00000000 __tile3_size
00003476 g       .bss	00000000 __bss_start
00010080 g       .pal	00000000 end_pal
0004b900 g       .tile3	00000000 end_tile3
00000332 g       .text	00000000 _start
0000002d g       *ABS*	00000000 __rc29
0000002b g       *ABS*	00000000 __rc27
00000029 g       *ABS*	00000000 __rc25
00000027 g       *ABS*	00000000 __rc23
00000025 g       *ABS*	00000000 __rc21
00000023 g       *ABS*	00000000 __rc19
00000021 g       *ABS*	00000000 __rc17
0000001f g       *ABS*	00000000 __rc15
0000001d g       *ABS*	00000000 __rc13
0000001b g       *ABS*	00000000 __rc11
00000019 g       *ABS*	00000000 __rc9
00000017 g       *ABS*	00000000 __rc7
00000015 g       *ABS*	00000000 __rc5
00000013 g       *ABS*	00000000 __rc3
00000011 g       *ABS*	00000000 __rc1
00000030 g       .zp.data	00000000 __zp_data_start
00000300 g       *ABS*	00000000 __zp_data_load_start
00000031 g       *ABS*	00000000 __zp_data_size
00000061 g       .zp.bss	00000000 __zp_bss_start
0000003d g       *ABS*	00000000 __zp_bss_size
00000332 g       .text	00000000 _init
0000309d g       .text	00000000 __init_array_start
0000309d g       .text	00000000 __init_array_end
0000309d g       .text	00000000 __fini_array_start
0000309d g       .text	00000000 __fini_array_end
00003476 g       .data	00000000 __data_start
00003476 g       .data	00000000 __data_end
00003476 g       *ABS*	00000000 __data_load_start
00000000 g       *ABS*	00000000 __data_size
00003584 g       .bss	00000000 __bss_end
0000010e g       *ABS*	00000000 __bss_size
00003584 g       .noinit	00000000 end_block8
00003584 g       .noinit	00000000 end_block9
00003584 g       .noinit	00000000 end_block10
00003584 g       .noinit	00000000 end_block11
00003584 g       .noinit	00000000 end_block12
00003584 g       .noinit	00000000 end_block13
00003584 g       .noinit	00000000 end_block14
00003584 g       .noinit	00000000 end_block15
00003584 g       .noinit	00000000 end_block16
00003584 g       .noinit	00000000 end_block17
00003584 g       .noinit	00000000 end_block18
00003584 g       .noinit	00000000 end_block19
00003584 g       .noinit	00000000 end_block20
00003584 g       .noinit	00000000 end_block21
00003584 g       .noinit	00000000 end_block22
00003584 g       .noinit	00000000 end_block23

Disassembly of section .text:

00000332 <_start>:
     332: a9 00        	lda	#$0
     334: 85 10        	sta	$10                     ; 0x10 <__rc0>
     336: a9 a0        	lda	#$a0
     338: 85 11        	sta	$11                     ; 0x11 <__rc1>

0000033a <__do_zero_bss>:
     33a: 20 95 04     	jsr	$495 <__zero_bss>

0000033d <__do_zero_zp_bss>:
     33d: 20 a8 04     	jsr	$4a8 <__zero_zp_bss>

00000340 <__do_copy_zp_data>:
     340: 20 bb 04     	jsr	$4bb <__copy_zp_data>
     343: 20 18 05     	jsr	$518 <main>

00000346 <__after_main>:
     346: 4c 37 2f     	jmp	$2f37 <exit>

00000349 <_fini>:
     349: 60           	rts

0000034a <_ZN12_GLOBAL__N_19FreeChunk6insertEPvj>:
     34a: 85 16        	sta	$16                     ; 0x16 <__rc6>
     34c: 29 fe        	and	#$fe
     34e: 85 14        	sta	$14                     ; 0x14 <__rc4>
     350: a0 01        	ldy	#$1
     352: 98           	tya
     353: 32 12        	and	($12)                   ; 0x12 <__rc2>
     355: 05 14        	ora	$14                     ; 0x14 <__rc4>
     357: 92 12        	sta	($12)                   ; 0x12 <__rc2>
     359: a5 12        	lda	$12                     ; 0x12 <__rc2>
     35b: 18           	clc
     35c: 65 14        	adc	$14                     ; 0x14 <__rc4>
     35e: 85 15        	sta	$15                     ; 0x15 <__rc5>
     360: 8a           	txa
     361: 65 13        	adc	$13                     ; 0x13 <__rc3>
     363: 85 14        	sta	$14                     ; 0x14 <__rc4>
     365: 18           	clc
     366: a5 15        	lda	$15                     ; 0x15 <__rc5>
     368: 69 fe        	adc	#$fe
     36a: 85 17        	sta	$17                     ; 0x17 <__rc7>
     36c: a5 14        	lda	$14                     ; 0x14 <__rc4>
     36e: 69 ff        	adc	#$ff
     370: 85 15        	sta	$15                     ; 0x15 <__rc5>
     372: a5 17        	lda	$17                     ; 0x17 <__rc7>
     374: 85 14        	sta	$14                     ; 0x14 <__rc4>
     376: 8a           	txa
     377: 91 12        	sta	($12),y                 ; 0x12 <__rc2>
     379: a5 16        	lda	$16                     ; 0x16 <__rc6>
     37b: 92 14        	sta	($14)                   ; 0x14 <__rc4>
     37d: 8a           	txa
     37e: 91 14        	sta	($14),y                 ; 0x14 <__rc4>
     380: a2 01        	ldx	#$1
     382: 86 18        	stx	$18                     ; 0x18 <__rc8>
     384: b1 12        	lda	($12),y                 ; 0x12 <__rc2>
     386: 85 14        	sta	$14                     ; 0x14 <__rc4>
     388: a9 fe        	lda	#$fe
     38a: 32 12        	and	($12)                   ; 0x12 <__rc2>
     38c: 18           	clc
     38d: 65 9a        	adc	$9a                     ; 0x9a <_ZN12_GLOBAL__N_19free_sizeE>
     38f: aa           	tax
     390: a5 14        	lda	$14                     ; 0x14 <__rc4>
     392: 65 9b        	adc	$9b                     ; 0x9b <_ZN12_GLOBAL__N_19free_sizeE+0x1>
     394: a8           	tay
     395: 18           	clc
     396: 8a           	txa
     397: 69 fe        	adc	#$fe
     399: aa           	tax
     39a: 98           	tya
     39b: 69 ff        	adc	#$ff
     39d: 86 9a        	stx	$9a                     ; 0x9a <_ZN12_GLOBAL__N_19free_sizeE>
     39f: 85 9b        	sta	$9b                     ; 0x9b <_ZN12_GLOBAL__N_19free_sizeE+0x1>
     3a1: a6 9c        	ldx	$9c                     ; 0x9c <_ZN12_GLOBAL__N_19free_listE>
     3a3: 86 16        	stx	$16                     ; 0x16 <__rc6>
     3a5: a4 9d        	ldy	$9d                     ; 0x9d <_ZN12_GLOBAL__N_19free_listE+0x1>
     3a7: a2 00        	ldx	#$0
     3a9: 86 14        	stx	$14                     ; 0x14 <__rc4>
     3ab: a2 00        	ldx	#$0
     3ad: 86 15        	stx	$15                     ; 0x15 <__rc5>
     3af: 84 17        	sty	$17                     ; 0x17 <__rc7>
     3b1: c4 15        	cpy	$15                     ; 0x15 <__rc5>
     3b3: d0 3c        	bne	$3f1 <_ZN12_GLOBAL__N_19FreeChunk6insertEPvj+0xa7>
     3b5: a6 16        	ldx	$16                     ; 0x16 <__rc6>
     3b7: e4 14        	cpx	$14                     ; 0x14 <__rc4>
     3b9: d0 36        	bne	$3f1 <_ZN12_GLOBAL__N_19FreeChunk6insertEPvj+0xa7>
     3bb: a0 04        	ldy	#$4
     3bd: a5 12        	lda	$12                     ; 0x12 <__rc2>
     3bf: 18           	clc
     3c0: 69 04        	adc	#$4
     3c2: 85 14        	sta	$14                     ; 0x14 <__rc4>
     3c4: a5 13        	lda	$13                     ; 0x13 <__rc3>
     3c6: 69 00        	adc	#$0
     3c8: 18           	clc
     3c9: 85 15        	sta	$15                     ; 0x15 <__rc5>
     3cb: a5 12        	lda	$12                     ; 0x12 <__rc2>
     3cd: 91 12        	sta	($12),y                 ; 0x12 <__rc2>
     3cf: a0 02        	ldy	#$2
     3d1: 85 17        	sta	$17                     ; 0x17 <__rc7>
     3d3: 69 02        	adc	#$2
     3d5: 85 16        	sta	$16                     ; 0x16 <__rc6>
     3d7: a5 17        	lda	$17                     ; 0x17 <__rc7>
     3d9: 91 12        	sta	($12),y                 ; 0x12 <__rc2>
     3db: a5 13        	lda	$13                     ; 0x13 <__rc3>
     3dd: 69 00        	adc	#$0
     3df: 85 17        	sta	$17                     ; 0x17 <__rc7>
     3e1: 88           	dey
     3e2: a5 13        	lda	$13                     ; 0x13 <__rc3>
     3e4: 91 14        	sta	($14),y                 ; 0x14 <__rc4>
     3e6: 91 16        	sta	($16),y                 ; 0x16 <__rc6>
     3e8: a6 12        	ldx	$12                     ; 0x12 <__rc2>
     3ea: 86 9c        	stx	$9c                     ; 0x9c <_ZN12_GLOBAL__N_19free_listE>
     3ec: a6 13        	ldx	$13                     ; 0x13 <__rc3>
     3ee: 86 9d        	stx	$9d                     ; 0x9d <_ZN12_GLOBAL__N_19free_listE+0x1>
     3f0: 60           	rts
     3f1: a6 12        	ldx	$12                     ; 0x12 <__rc2>
     3f3: a5 12        	lda	$12                     ; 0x12 <__rc2>
     3f5: 18           	clc
     3f6: 69 02        	adc	#$2
     3f8: 85 14        	sta	$14                     ; 0x14 <__rc4>
     3fa: a4 16        	ldy	$16                     ; 0x16 <__rc6>
     3fc: a5 13        	lda	$13                     ; 0x13 <__rc3>
     3fe: 69 00        	adc	#$0
     400: 85 15        	sta	$15                     ; 0x15 <__rc5>
     402: 84 19        	sty	$19                     ; 0x19 <__rc9>
     404: a4 17        	ldy	$17                     ; 0x17 <__rc7>
     406: 84 1a        	sty	$1a                     ; 0x1a <__rc10>
     408: a0 02        	ldy	#$2
     40a: a5 19        	lda	$19                     ; 0x19 <__rc9>
     40c: 91 12        	sta	($12),y                 ; 0x12 <__rc2>
     40e: 84 1d        	sty	$1d                     ; 0x1d <__rc13>
     410: a4 18        	ldy	$18                     ; 0x18 <__rc8>
     412: a5 1a        	lda	$1a                     ; 0x1a <__rc10>
     414: 91 14        	sta	($14),y                 ; 0x14 <__rc4>
     416: 84 1e        	sty	$1e                     ; 0x1e <__rc14>
     418: 18           	clc
     419: a5 19        	lda	$19                     ; 0x19 <__rc9>
     41b: 69 04        	adc	#$4
     41d: 85 18        	sta	$18                     ; 0x18 <__rc8>
     41f: a5 1a        	lda	$1a                     ; 0x1a <__rc10>
     421: 69 00        	adc	#$0
     423: 85 19        	sta	$19                     ; 0x19 <__rc9>
     425: 8a           	txa
     426: 18           	clc
     427: 69 04        	adc	#$4
     429: 85 1a        	sta	$1a                     ; 0x1a <__rc10>
     42b: a5 13        	lda	$13                     ; 0x13 <__rc3>
     42d: 69 00        	adc	#$0
     42f: 85 1b        	sta	$1b                     ; 0x1b <__rc11>
     431: a0 04        	ldy	#$4
     433: b1 16        	lda	($16),y                 ; 0x16 <__rc6>
     435: 85 16        	sta	$16                     ; 0x16 <__rc6>
     437: 85 22        	sta	$22                     ; 0x22 <__rc18>
     439: a4 1e        	ldy	$1e                     ; 0x1e <__rc14>
     43b: b1 18        	lda	($18),y                 ; 0x18 <__rc8>
     43d: 85 17        	sta	$17                     ; 0x17 <__rc7>
     43f: 85 19        	sta	$19                     ; 0x19 <__rc9>
     441: a0 04        	ldy	#$4
     443: a5 22        	lda	$22                     ; 0x22 <__rc18>
     445: 91 12        	sta	($12),y                 ; 0x12 <__rc2>
     447: 84 1f        	sty	$1f                     ; 0x1f <__rc15>
     449: a4 1e        	ldy	$1e                     ; 0x1e <__rc14>
     44b: a5 19        	lda	$19                     ; 0x19 <__rc9>
     44d: 91 1a        	sta	($1a),y                 ; 0x1a <__rc10>
     44f: 84 1a        	sty	$1a                     ; 0x1a <__rc10>
     451: 18           	clc
     452: a5 22        	lda	$22                     ; 0x22 <__rc18>
     454: 69 02        	adc	#$2
     456: 85 18        	sta	$18                     ; 0x18 <__rc8>
     458: a5 19        	lda	$19                     ; 0x19 <__rc9>
     45a: 69 00        	adc	#$0
     45c: 85 19        	sta	$19                     ; 0x19 <__rc9>
     45e: 8a           	txa
     45f: a4 1d        	ldy	$1d                     ; 0x1d <__rc13>
     461: 91 16        	sta	($16),y                 ; 0x16 <__rc6>
     463: a5 13        	lda	$13                     ; 0x13 <__rc3>
     465: a4 1a        	ldy	$1a                     ; 0x1a <__rc10>
     467: 91 18        	sta	($18),y                 ; 0x18 <__rc8>
     469: a4 1d        	ldy	$1d                     ; 0x1d <__rc13>
     46b: b1 12        	lda	($12),y                 ; 0x12 <__rc2>
     46d: 85 16        	sta	$16                     ; 0x16 <__rc6>
     46f: 85 19        	sta	$19                     ; 0x19 <__rc9>
     471: a4 1a        	ldy	$1a                     ; 0x1a <__rc10>
     473: b1 14        	lda	($14),y                 ; 0x14 <__rc4>
     475: 84 18        	sty	$18                     ; 0x18 <__rc8>
     477: 85 17        	sta	$17                     ; 0x17 <__rc7>
     479: 85 14        	sta	$14                     ; 0x14 <__rc4>
     47b: 8a           	txa
     47c: a4 1f        	ldy	$1f                     ; 0x1f <__rc15>
     47e: 91 16        	sta	($16),y                 ; 0x16 <__rc6>
     480: 18           	clc
     481: a5 19        	lda	$19                     ; 0x19 <__rc9>
     483: 69 04        	adc	#$4
     485: a8           	tay
     486: a5 14        	lda	$14                     ; 0x14 <__rc4>
     488: 69 00        	adc	#$0
     48a: 84 14        	sty	$14                     ; 0x14 <__rc4>
     48c: 85 15        	sta	$15                     ; 0x15 <__rc5>
     48e: a5 13        	lda	$13                     ; 0x13 <__rc3>
     490: a4 18        	ldy	$18                     ; 0x18 <__rc8>
     492: 91 14        	sta	($14),y                 ; 0x14 <__rc4>
     494: 60           	rts

00000495 <__zero_bss>:
     495: a2 0e        	ldx	#$e
     497: a0 01        	ldy	#$1
     499: a9 76        	lda	#$76
     49b: 85 12        	sta	$12                     ; 0x12 <__rc2>
     49d: a9 34        	lda	#$34
     49f: 85 13        	sta	$13                     ; 0x13 <__rc3>
     4a1: a9 00        	lda	#$0
     4a3: 84 14        	sty	$14                     ; 0x14 <__rc4>
     4a5: 4c 68 2f     	jmp	$2f68 <__memset>

000004a8 <__zero_zp_bss>:
     4a8: a2 3d        	ldx	#$3d
     4aa: a0 00        	ldy	#$0
     4ac: a9 61        	lda	#$61
     4ae: 85 12        	sta	$12                     ; 0x12 <__rc2>
     4b0: a9 00        	lda	#$0
     4b2: 85 13        	sta	$13                     ; 0x13 <__rc3>
     4b4: a9 00        	lda	#$0
     4b6: 84 14        	sty	$14                     ; 0x14 <__rc4>
     4b8: 4c 68 2f     	jmp	$2f68 <__memset>

000004bb <__copy_zp_data>:
     4bb: a9 31        	lda	#$31
     4bd: a2 00        	ldx	#$0
     4bf: a0 30        	ldy	#$30
     4c1: 84 12        	sty	$12                     ; 0x12 <__rc2>
     4c3: a0 00        	ldy	#$0
     4c5: 84 13        	sty	$13                     ; 0x13 <__rc3>
     4c7: a0 00        	ldy	#$0
     4c9: 84 14        	sty	$14                     ; 0x14 <__rc4>
     4cb: a0 03        	ldy	#$3
     4cd: 84 15        	sty	$15                     ; 0x15 <__rc5>
     4cf: 4c 3c 2f     	jmp	$2f3c <memcpy>

000004d2 <PEEK24>:
     4d2: 85 05        	sta	$5                      ; 0x5 <__data_size+0x5>
     4d4: 86 06        	stx	$6                      ; 0x6 <__data_size+0x6>
     4d6: a5 12        	lda	$12                     ; 0x12 <__rc2>
     4d8: 85 07        	sta	$7                      ; 0x7 <__data_size+0x7>
     4da: a6 00        	ldx	$0                      ; 0x0 <__data_size>
     4dc: a4 01        	ldy	$1                      ; 0x1 <__data_size+0x1>
     4de: 8a           	txa
     4df: 09 08        	ora	#$8
     4e1: 08           	php
     4e2: 78           	sei
     4e3: 85 00        	sta	$0                      ; 0x0 <__data_size>
     4e5: 98           	tya
     4e6: 09 30        	ora	#$30
     4e8: 85 01        	sta	$1                      ; 0x1 <__data_size+0x1>
     4ea: a7 05        	smb	$2,$5                   ; 0x5 <__data_size+0x5>
     4ec: 86 00        	stx	$0                      ; 0x0 <__data_size>
     4ee: 84 01        	sty	$1                      ; 0x1 <__data_size+0x1>
     4f0: 28           	plp
     4f1: a2 00        	ldx	#$0
     4f3: 60           	rts

000004f4 <POKE24>:
     4f4: 85 05        	sta	$5                      ; 0x5 <__data_size+0x5>
     4f6: 86 06        	stx	$6                      ; 0x6 <__data_size+0x6>
     4f8: a5 12        	lda	$12                     ; 0x12 <__rc2>
     4fa: 85 07        	sta	$7                      ; 0x7 <__data_size+0x7>
     4fc: a6 00        	ldx	$0                      ; 0x0 <__data_size>
     4fe: a4 01        	ldy	$1                      ; 0x1 <__data_size+0x1>
     500: 8a           	txa
     501: 09 08        	ora	#$8
     503: 08           	php
     504: 78           	sei
     505: 85 00        	sta	$0                      ; 0x0 <__data_size>
     507: 98           	tya
     508: 09 48        	ora	#$48
     50a: 85 01        	sta	$1                      ; 0x1 <__data_size+0x1>
     50c: a5 14        	lda	$14                     ; 0x14 <__rc4>
     50e: 87 05        	smb	$0,$5                   ; 0x5 <__data_size+0x5>
     510: 86 00        	stx	$0                      ; 0x0 <__data_size>
     512: 84 01        	sty	$1                      ; 0x1 <__data_size+0x1>
     514: 28           	plp
     515: a2 00        	ldx	#$0
     517: 60           	rts

00000518 <main>:
     518: 18           	clc
     519: a5 10        	lda	$10                     ; 0x10 <__rc0>
     51b: 69 df        	adc	#$df
     51d: 85 10        	sta	$10                     ; 0x10 <__rc0>
     51f: a5 11        	lda	$11                     ; 0x11 <__rc1>
     521: 69 ff        	adc	#$ff
     523: 85 11        	sta	$11                     ; 0x11 <__rc1>
     525: a6 24        	ldx	$24                     ; 0x24 <__rc20>
     527: da           	phx
     528: a6 25        	ldx	$25                     ; 0x25 <__rc21>
     52a: da           	phx
     52b: a6 26        	ldx	$26                     ; 0x26 <__rc22>
     52d: da           	phx
     52e: a6 27        	ldx	$27                     ; 0x27 <__rc23>
     530: da           	phx
     531: a5 28        	lda	$28                     ; 0x28 <__rc24>
     533: a0 07        	ldy	#$7
     535: 91 10        	sta	($10),y                 ; 0x10 <__rc0>
     537: a5 29        	lda	$29                     ; 0x29 <__rc25>
     539: 88           	dey
     53a: 91 10        	sta	($10),y                 ; 0x10 <__rc0>
     53c: a5 2a        	lda	$2a                     ; 0x2a <__rc26>
     53e: 88           	dey
     53f: 91 10        	sta	($10),y                 ; 0x10 <__rc0>
     541: a5 2b        	lda	$2b                     ; 0x2b <__rc27>
     543: 88           	dey
     544: 91 10        	sta	($10),y                 ; 0x10 <__rc0>
     546: a5 2c        	lda	$2c                     ; 0x2c <__rc28>
     548: 88           	dey
     549: 91 10        	sta	($10),y                 ; 0x10 <__rc0>
     54b: a5 2d        	lda	$2d                     ; 0x2d <__rc29>
     54d: 88           	dey
     54e: 91 10        	sta	($10),y                 ; 0x10 <__rc0>
     550: a5 2e        	lda	$2e                     ; 0x2e <__rc30>
     552: 88           	dey
     553: 91 10        	sta	($10),y                 ; 0x10 <__rc0>
     555: a5 2f        	lda	$2f                     ; 0x2f <__rc31>
     557: 88           	dey
     558: 91 10        	sta	($10),y                 ; 0x10 <__rc0>
     55a: 64 1d        	stz	$1d                     ; 0x1d <__rc13>
     55c: a2 00        	ldx	#$0
     55e: 86 18        	stx	$18                     ; 0x18 <__rc8>
     560: a2 d0        	ldx	#$d0
     562: 86 19        	stx	$19                     ; 0x19 <__rc9>
     564: a2 00        	ldx	#$0
     566: 86 14        	stx	$14                     ; 0x14 <__rc4>
     568: a2 d8        	ldx	#$d8
     56a: 86 15        	stx	$15                     ; 0x15 <__rc5>
     56c: a2 00        	ldx	#$0
     56e: a0 10        	ldy	#$10
     570: a9 84        	lda	#$84
     572: 86 12        	stx	$12                     ; 0x12 <__rc2>
     574: 84 13        	sty	$13                     ; 0x13 <__rc3>
     576: 18           	clc
     577: 65 12        	adc	$12                     ; 0x12 <__rc2>
     579: a0 08        	ldy	#$8
     57b: 91 10        	sta	($10),y                 ; 0x10 <__rc0>
     57d: a9 35        	lda	#$35
     57f: 65 13        	adc	$13                     ; 0x13 <__rc3>
     581: 85 1c        	sta	$1c                     ; 0x1c <__rc12>
     583: 64 01        	stz	$1                      ; 0x1 <__data_size+0x1>
     585: a2 3f        	ldx	#$3f
     587: 8e 00 d0     	stx	$d000                   ; 0xd000 <end_block9+0x9a7c>
     58a: a2 b3        	ldx	#$b3
     58c: 86 00        	stx	$0                      ; 0x0 <__data_size>
     58e: 64 08        	stz	$8                      ; 0x8 <__data_size+0x8>
     590: a2 01        	ldx	#$1
     592: 86 09        	stx	$9                      ; 0x9 <__data_size+0x9>
     594: e8           	inx
     595: 86 0a        	stx	$a                      ; 0xa <__data_size+0xa>
     597: e8           	inx
     598: 86 0b        	stx	$b                      ; 0xb <__data_size+0xb>
     59a: e8           	inx
     59b: 86 0c        	stx	$c                      ; 0xc <__data_size+0xc>
     59d: e8           	inx
     59e: 86 0d        	stx	$d                      ; 0xd <__data_size+0xd>
     5a0: a2 7b        	ldx	#$7b
     5a2: 86 f0        	stx	$f0                     ; 0xf0 <__pal_size+0x70>
     5a4: a2 00        	ldx	#$0
     5a6: 86 f1        	stx	$f1                     ; 0xf1 <__pal_size+0x71>
     5a8: a2 00        	ldx	#$0
     5aa: 86 1a        	stx	$1a                     ; 0x1a <__rc10>
     5ac: a2 d4        	ldx	#$d4
     5ae: 86 1b        	stx	$1b                     ; 0x1b <__rc11>
     5b0: a2 00        	ldx	#$0
     5b2: 86 16        	stx	$16                     ; 0x16 <__rc6>
     5b4: a2 dc        	ldx	#$dc
     5b6: 86 17        	stx	$17                     ; 0x17 <__rc7>
     5b8: a2 00        	ldx	#$0
     5ba: 86 12        	stx	$12                     ; 0x12 <__rc2>
     5bc: a2 c0        	ldx	#$c0
     5be: 86 13        	stx	$13                     ; 0x13 <__rc3>
     5c0: a6 01        	ldx	$1                      ; 0x1 <__data_size+0x1>
     5c2: a0 01        	ldy	#$1
     5c4: 84 01        	sty	$1                      ; 0x1 <__data_size+0x1>
     5c6: a5 1d        	lda	$1d                     ; 0x1d <__rc13>
     5c8: 92 18        	sta	($18)                   ; 0x18 <__rc8>
     5ca: 91 18        	sta	($18),y                 ; 0x18 <__rc8>
     5cc: c8           	iny
     5cd: 91 18        	sta	($18),y                 ; 0x18 <__rc8>
     5cf: c8           	iny
     5d0: a9 ff        	lda	#$ff
     5d2: 91 18        	sta	($18),y                 ; 0x18 <__rc8>
     5d4: 86 01        	stx	$1                      ; 0x1 <__data_size+0x1>
     5d6: a5 18        	lda	$18                     ; 0x18 <__rc8>
     5d8: 18           	clc
     5d9: 69 04        	adc	#$4
     5db: 85 18        	sta	$18                     ; 0x18 <__rc8>
     5dd: a5 19        	lda	$19                     ; 0x19 <__rc9>
     5df: 69 00        	adc	#$0
     5e1: e6 1d        	inc	$1d                     ; 0x1d <__rc13>
     5e3: 85 19        	sta	$19                     ; 0x19 <__rc9>
     5e5: d0 d9        	bne	$5c0 <main+0xa8>
     5e7: a9 00        	lda	#$0
     5e9: a6 01        	ldx	$1                      ; 0x1 <__data_size+0x1>
     5eb: a0 01        	ldy	#$1
     5ed: 84 01        	sty	$1                      ; 0x1 <__data_size+0x1>
     5ef: 92 1a        	sta	($1a)                   ; 0x1a <__rc10>
     5f1: 91 1a        	sta	($1a),y                 ; 0x1a <__rc10>
     5f3: c8           	iny
     5f4: 91 1a        	sta	($1a),y                 ; 0x1a <__rc10>
     5f6: c8           	iny
     5f7: 85 18        	sta	$18                     ; 0x18 <__rc8>
     5f9: a9 ff        	lda	#$ff
     5fb: 91 1a        	sta	($1a),y                 ; 0x1a <__rc10>
     5fd: 86 01        	stx	$1                      ; 0x1 <__data_size+0x1>
     5ff: a5 1a        	lda	$1a                     ; 0x1a <__rc10>
     601: 18           	clc
     602: 69 04        	adc	#$4
     604: 85 1a        	sta	$1a                     ; 0x1a <__rc10>
     606: a5 1b        	lda	$1b                     ; 0x1b <__rc11>
     608: 69 00        	adc	#$0
     60a: e6 18        	inc	$18                     ; 0x18 <__rc8>
     60c: 85 1b        	sta	$1b                     ; 0x1b <__rc11>
     60e: a5 18        	lda	$18                     ; 0x18 <__rc8>
     610: d0 d7        	bne	$5e9 <main+0xd1>
     612: a9 00        	lda	#$0
     614: a6 01        	ldx	$1                      ; 0x1 <__data_size+0x1>
     616: a0 01        	ldy	#$1
     618: 84 01        	sty	$1                      ; 0x1 <__data_size+0x1>
     61a: 92 14        	sta	($14)                   ; 0x14 <__rc4>
     61c: 91 14        	sta	($14),y                 ; 0x14 <__rc4>
     61e: c8           	iny
     61f: 91 14        	sta	($14),y                 ; 0x14 <__rc4>
     621: c8           	iny
     622: 85 18        	sta	$18                     ; 0x18 <__rc8>
     624: a9 ff        	lda	#$ff
     626: 91 14        	sta	($14),y                 ; 0x14 <__rc4>
     628: 86 01        	stx	$1                      ; 0x1 <__data_size+0x1>
     62a: a5 14        	lda	$14                     ; 0x14 <__rc4>
     62c: 18           	clc
     62d: 69 04        	adc	#$4
     62f: 85 14        	sta	$14                     ; 0x14 <__rc4>
     631: a5 15        	lda	$15                     ; 0x15 <__rc5>
     633: 69 00        	adc	#$0
     635: e6 18        	inc	$18                     ; 0x18 <__rc8>
     637: 85 15        	sta	$15                     ; 0x15 <__rc5>
     639: a5 18        	lda	$18                     ; 0x18 <__rc8>
     63b: d0 d7        	bne	$614 <main+0xfc>
     63d: a9 00        	lda	#$0
     63f: a6 01        	ldx	$1                      ; 0x1 <__data_size+0x1>
     641: a0 01        	ldy	#$1
     643: 84 01        	sty	$1                      ; 0x1 <__data_size+0x1>
     645: 92 16        	sta	($16)                   ; 0x16 <__rc6>
     647: 91 16        	sta	($16),y                 ; 0x16 <__rc6>
     649: c8           	iny
     64a: 91 16        	sta	($16),y                 ; 0x16 <__rc6>
     64c: c8           	iny
     64d: 85 14        	sta	$14                     ; 0x14 <__rc4>
     64f: a9 ff        	lda	#$ff
     651: 91 16        	sta	($16),y                 ; 0x16 <__rc6>
     653: 86 01        	stx	$1                      ; 0x1 <__data_size+0x1>
     655: a5 16        	lda	$16                     ; 0x16 <__rc6>
     657: 18           	clc
     658: 69 04        	adc	#$4
     65a: 85 16        	sta	$16                     ; 0x16 <__rc6>
     65c: a5 17        	lda	$17                     ; 0x17 <__rc7>
     65e: 69 00        	adc	#$0
     660: e6 14        	inc	$14                     ; 0x14 <__rc4>
     662: 85 17        	sta	$17                     ; 0x17 <__rc7>
     664: a5 14        	lda	$14                     ; 0x14 <__rc4>
     666: d0 d7        	bne	$63f <main+0x127>
     668: ad 02 d0     	lda	$d002                   ; 0xd002 <end_block9+0x9a7e>
     66b: 29 f0        	and	#$f0
     66d: 8d 02 d0     	sta	$d002                   ; 0xd002 <end_block9+0x9a7e>
     670: ad 02 d0     	lda	$d002                   ; 0xd002 <end_block9+0x9a7e>
     673: 29 0f        	and	#$f
     675: 09 10        	ora	#$10
     677: 8d 02 d0     	sta	$d002                   ; 0xd002 <end_block9+0x9a7e>
     67a: a2 02        	ldx	#$2
     67c: 8e 03 d0     	stx	$d003                   ; 0xd003 <end_block9+0x9a7f>
     67f: ad 01 d0     	lda	$d001                   ; 0xd001 <end_block9+0x9a7d>
     682: 29 f9        	and	#$f9
     684: 09 04        	ora	#$4
     686: 8d 01 d0     	sta	$d001                   ; 0xd001 <end_block9+0x9a7d>
     689: 64 14        	stz	$14                     ; 0x14 <__rc4>
     68b: 9c 10 d0     	stz	$d010                   ; 0xd010 <end_block9+0x9a8c>
     68e: a2 00        	ldx	#$0
     690: 64 15        	stz	$15                     ; 0x15 <__rc5>
     692: 86 18        	stx	$18                     ; 0x18 <__rc8>
     694: a4 18        	ldy	$18                     ; 0x18 <__rc8>
     696: b6 30        	ldx	$30,y                   ; 0x30 <textColors>
     698: 86 19        	stx	$19                     ; 0x19 <__rc9>
     69a: b6 31        	ldx	$31,y                   ; 0x31 <textColors+0x1>
     69c: 86 1a        	stx	$1a                     ; 0x1a <__rc10>
     69e: b6 32        	ldx	$32,y                   ; 0x32 <textColors+0x2>
     6a0: 86 1b        	stx	$1b                     ; 0x1b <__rc11>
     6a2: a6 15        	ldx	$15                     ; 0x15 <__rc5>
     6a4: 8e 00 de     	stx	$de00                   ; 0xde00 <end_block9+0xa87c>
     6a7: 86 17        	stx	$17                     ; 0x17 <__rc7>
     6a9: 9c 01 de     	stz	$de01                   ; 0xde01 <end_block9+0xa87d>
     6ac: a2 04        	ldx	#$4
     6ae: 8e 02 de     	stx	$de02                   ; 0xde02 <end_block9+0xa87e>
     6b1: 86 1e        	stx	$1e                     ; 0x1e <__rc14>
     6b3: 9c 03 de     	stz	$de03                   ; 0xde03 <end_block9+0xa87f>
     6b6: ad 10 de     	lda	$de10                   ; 0xde10 <end_block9+0xa88c>
     6b9: ac 11 de     	ldy	$de11                   ; 0xde11 <end_block9+0xa88d>
     6bc: 84 15        	sty	$15                     ; 0x15 <__rc5>
     6be: ac 12 de     	ldy	$de12                   ; 0xde12 <end_block9+0xa88e>
     6c1: ac 13 de     	ldy	$de13                   ; 0xde13 <end_block9+0xa88f>
     6c4: a2 00        	ldx	#$0
     6c6: 18           	clc
     6c7: 65 14        	adc	$14                     ; 0x14 <__rc4>
     6c9: a8           	tay
     6ca: 86 22        	stx	$22                     ; 0x22 <__rc18>
     6cc: a6 17        	ldx	$17                     ; 0x17 <__rc7>
     6ce: a9 d8        	lda	#$d8
     6d0: 65 15        	adc	$15                     ; 0x15 <__rc5>
     6d2: 84 16        	sty	$16                     ; 0x16 <__rc6>
     6d4: 85 17        	sta	$17                     ; 0x17 <__rc7>
     6d6: a5 1b        	lda	$1b                     ; 0x1b <__rc11>
     6d8: 92 16        	sta	($16)                   ; 0x16 <__rc6>
     6da: a0 01        	ldy	#$1
     6dc: a5 1a        	lda	$1a                     ; 0x1a <__rc10>
     6de: 91 16        	sta	($16),y                 ; 0x16 <__rc6>
     6e0: 84 1d        	sty	$1d                     ; 0x1d <__rc13>
     6e2: c8           	iny
     6e3: a5 19        	lda	$19                     ; 0x19 <__rc9>
     6e5: 91 16        	sta	($16),y                 ; 0x16 <__rc6>
     6e7: 84 1f        	sty	$1f                     ; 0x1f <__rc15>
     6e9: c8           	iny
     6ea: a9 ff        	lda	#$ff
     6ec: 91 16        	sta	($16),y                 ; 0x16 <__rc6>
     6ee: 85 24        	sta	$24                     ; 0x24 <__rc20>
     6f0: 84 23        	sty	$23                     ; 0x23 <__rc19>
     6f2: 8e 00 de     	stx	$de00                   ; 0xde00 <end_block9+0xa87c>
     6f5: 9c 01 de     	stz	$de01                   ; 0xde01 <end_block9+0xa87d>
     6f8: a4 1e        	ldy	$1e                     ; 0x1e <__rc14>
     6fa: 8c 02 de     	sty	$de02                   ; 0xde02 <end_block9+0xa87e>
     6fd: 9c 03 de     	stz	$de03                   ; 0xde03 <end_block9+0xa87f>
     700: ad 10 de     	lda	$de10                   ; 0xde10 <end_block9+0xa88c>
     703: 85 15        	sta	$15                     ; 0x15 <__rc5>
     705: ad 11 de     	lda	$de11                   ; 0xde11 <end_block9+0xa88d>
     708: 85 16        	sta	$16                     ; 0x16 <__rc6>
     70a: a9 40        	lda	#$40
     70c: a4 22        	ldy	$22                     ; 0x22 <__rc18>
     70e: c0 01        	cpy	#$1
     710: 65 15        	adc	$15                     ; 0x15 <__rc5>
     712: a8           	tay
     713: a9 d8        	lda	#$d8
     715: 65 16        	adc	$16                     ; 0x16 <__rc6>
     717: 85 17        	sta	$17                     ; 0x17 <__rc7>
     719: 84 16        	sty	$16                     ; 0x16 <__rc6>
     71b: ad 12 de     	lda	$de12                   ; 0xde12 <end_block9+0xa88e>
     71e: ad 13 de     	lda	$de13                   ; 0xde13 <end_block9+0xa88f>
     721: a5 1b        	lda	$1b                     ; 0x1b <__rc11>
     723: 92 16        	sta	($16)                   ; 0x16 <__rc6>
     725: a5 1a        	lda	$1a                     ; 0x1a <__rc10>
     727: a4 1d        	ldy	$1d                     ; 0x1d <__rc13>
     729: 91 16        	sta	($16),y                 ; 0x16 <__rc6>
     72b: a5 19        	lda	$19                     ; 0x19 <__rc9>
     72d: a4 1f        	ldy	$1f                     ; 0x1f <__rc15>
     72f: 91 16        	sta	($16),y                 ; 0x16 <__rc6>
     731: a4 23        	ldy	$23                     ; 0x23 <__rc19>
     733: a5 24        	lda	$24                     ; 0x24 <__rc20>
     735: 91 16        	sta	($16),y                 ; 0x16 <__rc6>
     737: e8           	inx
     738: 86 15        	stx	$15                     ; 0x15 <__rc5>
     73a: 18           	clc
     73b: a5 18        	lda	$18                     ; 0x18 <__rc8>
     73d: 69 03        	adc	#$3
     73f: aa           	tax
     740: c9 30        	cmp	#$30
     742: f0 03        	beq	$747 <main+0x22f>
     744: 4c 92 06     	jmp	$692 <main+0x17a>
     747: a6 01        	ldx	$1                      ; 0x1 <__data_size+0x1>
     749: 86 18        	stx	$18                     ; 0x18 <__rc8>
     74b: a2 50        	ldx	#$50
     74d: 8e 00 de     	stx	$de00                   ; 0xde00 <end_block9+0xa87c>
     750: 9c 01 de     	stz	$de01                   ; 0xde01 <end_block9+0xa87d>
     753: a2 1e        	ldx	#$1e
     755: 8e 02 de     	stx	$de02                   ; 0xde02 <end_block9+0xa87e>
     758: 9c 03 de     	stz	$de03                   ; 0xde03 <end_block9+0xa87f>
     75b: ae 10 de     	ldx	$de10                   ; 0xde10 <end_block9+0xa88c>
     75e: ac 11 de     	ldy	$de11                   ; 0xde11 <end_block9+0xa88d>
     761: ad 12 de     	lda	$de12                   ; 0xde12 <end_block9+0xa88e>
     764: ad 13 de     	lda	$de13                   ; 0xde13 <end_block9+0xa88f>
     767: a9 02        	lda	#$2
     769: 85 01        	sta	$1                      ; 0x1 <__data_size+0x1>
     76b: e0 01        	cpx	#$1
     76d: 98           	tya
     76e: e9 00        	sbc	#$0
     770: 50 02        	bvc	$774 <main+0x25c>
     772: 49 80        	eor	#$80
     774: c9 00        	cmp	#$0
     776: 10 03        	bpl	$77b <main+0x263>
     778: 4c d2 07     	jmp	$7d2 <main+0x2ba>
     77b: a9 20        	lda	#$20
     77d: 86 19        	stx	$19                     ; 0x19 <__rc9>
     77f: 86 14        	stx	$14                     ; 0x14 <__rc4>
     781: 84 15        	sty	$15                     ; 0x15 <__rc5>
     783: a2 00        	ldx	#$0
     785: 86 16        	stx	$16                     ; 0x16 <__rc6>
     787: a2 c0        	ldx	#$c0
     789: 86 17        	stx	$17                     ; 0x17 <__rc7>
     78b: 80 04        	bra	$791 <main+0x279>
     78d: a6 15        	ldx	$15                     ; 0x15 <__rc5>
     78f: f0 14        	beq	$7a5 <main+0x28d>
     791: 92 16        	sta	($16)                   ; 0x16 <__rc6>
     793: e6 16        	inc	$16                     ; 0x16 <__rc6>
     795: d0 02        	bne	$799 <main+0x281>
     797: e6 17        	inc	$17                     ; 0x17 <__rc7>
     799: a2 ff        	ldx	#$ff
     79b: c6 14        	dec	$14                     ; 0x14 <__rc4>
     79d: e4 14        	cpx	$14                     ; 0x14 <__rc4>
     79f: d0 ec        	bne	$78d <main+0x275>
     7a1: c6 15        	dec	$15                     ; 0x15 <__rc5>
     7a3: 80 e8        	bra	$78d <main+0x275>
     7a5: a6 14        	ldx	$14                     ; 0x14 <__rc4>
     7a7: d0 e8        	bne	$791 <main+0x279>
     7a9: a2 03        	ldx	#$3
     7ab: 86 01        	stx	$1                      ; 0x1 <__data_size+0x1>
     7ad: a6 19        	ldx	$19                     ; 0x19 <__rc9>
     7af: 80 03        	bra	$7b4 <main+0x29c>
     7b1: 98           	tya
     7b2: f0 19        	beq	$7cd <main+0x2b5>
     7b4: a9 f0        	lda	#$f0
     7b6: 92 12        	sta	($12)                   ; 0x12 <__rc2>
     7b8: e6 12        	inc	$12                     ; 0x12 <__rc2>
     7ba: f0 07        	beq	$7c3 <main+0x2ab>
     7bc: ca           	dex
     7bd: e0 ff        	cpx	#$ff
     7bf: d0 f0        	bne	$7b1 <main+0x299>
     7c1: 80 07        	bra	$7ca <main+0x2b2>
     7c3: e6 13        	inc	$13                     ; 0x13 <__rc3>
     7c5: ca           	dex
     7c6: e0 ff        	cpx	#$ff
     7c8: d0 e7        	bne	$7b1 <main+0x299>
     7ca: 88           	dey
     7cb: 80 e4        	bra	$7b1 <main+0x299>
     7cd: 8a           	txa
     7ce: d0 e4        	bne	$7b4 <main+0x29c>
     7d0: 80 04        	bra	$7d6 <main+0x2be>
     7d2: a2 03        	ldx	#$3
     7d4: 86 01        	stx	$1                      ; 0x1 <__data_size+0x1>
     7d6: a6 18        	ldx	$18                     ; 0x18 <__rc8>
     7d8: 86 01        	stx	$1                      ; 0x1 <__data_size+0x1>
     7da: 64 61        	stz	$61                     ; 0x61 <_col>
     7dc: 9c 14 d0     	stz	$d014                   ; 0xd014 <end_block9+0x9a90>
     7df: 9c 15 d0     	stz	$d015                   ; 0xd015 <end_block9+0x9a91>
     7e2: 64 62        	stz	$62                     ; 0x62 <_row>
     7e4: 9c 16 d0     	stz	$d016                   ; 0xd016 <end_block9+0x9a92>
     7e7: 9c 17 d0     	stz	$d017                   ; 0xd017 <end_block9+0x9a93>
     7ea: a2 40        	ldx	#$40
     7ec: 8e 00 de     	stx	$de00                   ; 0xde00 <end_block9+0xa87c>
     7ef: a2 01        	ldx	#$1
     7f1: 8e 01 de     	stx	$de01                   ; 0xde01 <end_block9+0xa87d>
     7f4: a2 f0        	ldx	#$f0
     7f6: 8e 02 de     	stx	$de02                   ; 0xde02 <end_block9+0xa87e>
     7f9: 9c 03 de     	stz	$de03                   ; 0xde03 <end_block9+0xa87f>
     7fc: ae 10 de     	ldx	$de10                   ; 0xde10 <end_block9+0xa88c>
     7ff: 86 17        	stx	$17                     ; 0x17 <__rc7>
     801: ae 11 de     	ldx	$de11                   ; 0xde11 <end_block9+0xa88d>
     804: 86 12        	stx	$12                     ; 0x12 <__rc2>
     806: ae 12 de     	ldx	$de12                   ; 0xde12 <end_block9+0xa88e>
     809: 86 13        	stx	$13                     ; 0x13 <__rc3>
     80b: ae 13 de     	ldx	$de13                   ; 0xde13 <end_block9+0xa88f>
     80e: 86 14        	stx	$14                     ; 0x14 <__rc4>
     810: a4 12        	ldy	$12                     ; 0x12 <__rc2>
     812: 84 15        	sty	$15                     ; 0x15 <__rc5>
     814: 06 15        	asl	$15                     ; 0x15 <__rc5>
     816: a5 13        	lda	$13                     ; 0x13 <__rc3>
     818: 2a           	rol
     819: 86 16        	stx	$16                     ; 0x16 <__rc6>
     81b: 26 16        	rol	$16                     ; 0x16 <__rc6>
     81d: 06 15        	asl	$15                     ; 0x15 <__rc5>
     81f: 2a           	rol
     820: 26 16        	rol	$16                     ; 0x16 <__rc6>
     822: 06 15        	asl	$15                     ; 0x15 <__rc5>
     824: 2a           	rol
     825: 26 16        	rol	$16                     ; 0x16 <__rc6>
     827: 85 15        	sta	$15                     ; 0x15 <__rc5>
     829: 8d 00 de     	sta	$de00                   ; 0xde00 <end_block9+0xa87c>
     82c: a5 16        	lda	$16                     ; 0x16 <__rc6>
     82e: 8d 01 de     	sta	$de01                   ; 0xde01 <end_block9+0xa87d>
     831: 9c 02 de     	stz	$de02                   ; 0xde02 <end_block9+0xa87e>
     834: a2 20        	ldx	#$20
     836: 8e 03 de     	stx	$de03                   ; 0xde03 <end_block9+0xa87f>
     839: ae 10 de     	ldx	$de10                   ; 0xde10 <end_block9+0xa88c>
     83c: 86 16        	stx	$16                     ; 0x16 <__rc6>
     83e: ae 11 de     	ldx	$de11                   ; 0xde11 <end_block9+0xa88d>
     841: 86 18        	stx	$18                     ; 0x18 <__rc8>
     843: ac 12 de     	ldy	$de12                   ; 0xde12 <end_block9+0xa88e>
     846: ae 13 de     	ldx	$de13                   ; 0xde13 <end_block9+0xa88f>
     849: e4 14        	cpx	$14                     ; 0x14 <__rc4>
     84b: d0 14        	bne	$861 <main+0x349>
     84d: c4 13        	cpy	$13                     ; 0x13 <__rc3>
     84f: d0 10        	bne	$861 <main+0x349>
     851: a6 18        	ldx	$18                     ; 0x18 <__rc8>
     853: e4 12        	cpx	$12                     ; 0x12 <__rc2>
     855: d0 0a        	bne	$861 <main+0x349>
     857: a6 16        	ldx	$16                     ; 0x16 <__rc6>
     859: e4 17        	cpx	$17                     ; 0x17 <__rc7>
     85b: d0 04        	bne	$861 <main+0x349>
     85d: a6 15        	ldx	$15                     ; 0x15 <__rc5>
     85f: 80 06        	bra	$867 <main+0x34f>
     861: a6 15        	ldx	$15                     ; 0x15 <__rc5>
     863: e8           	inx
     864: d0 01        	bne	$867 <main+0x34f>
     866: 1a           	inc
     867: 8e 00 de     	stx	$de00                   ; 0xde00 <end_block9+0xa87c>
     86a: 8d 01 de     	sta	$de01                   ; 0xde01 <end_block9+0xa87d>
     86d: 9c 02 de     	stz	$de02                   ; 0xde02 <end_block9+0xa87e>
     870: a2 20        	ldx	#$20
     872: 8e 03 de     	stx	$de03                   ; 0xde03 <end_block9+0xa87f>
     875: ae 10 de     	ldx	$de10                   ; 0xde10 <end_block9+0xa88c>
     878: 86 12        	stx	$12                     ; 0x12 <__rc2>
     87a: ae 11 de     	ldx	$de11                   ; 0xde11 <end_block9+0xa88d>
     87d: 86 13        	stx	$13                     ; 0x13 <__rc3>
     87f: ae 12 de     	ldx	$de12                   ; 0xde12 <end_block9+0xa88e>
     882: 86 14        	stx	$14                     ; 0x14 <__rc4>
     884: ae 13 de     	ldx	$de13                   ; 0xde13 <end_block9+0xa88f>
     887: 86 15        	stx	$15                     ; 0x15 <__rc5>
     889: a9 00        	lda	#$0
     88b: 38           	sec
     88c: e5 12        	sbc	$12                     ; 0x12 <__rc2>
     88e: 85 1a        	sta	$1a                     ; 0x1a <__rc10>
     890: a9 00        	lda	#$0
     892: e5 13        	sbc	$13                     ; 0x13 <__rc3>
     894: 85 18        	sta	$18                     ; 0x18 <__rc8>
     896: a9 08        	lda	#$8
     898: e5 14        	sbc	$14                     ; 0x14 <__rc4>
     89a: a8           	tay
     89b: a9 00        	lda	#$0
     89d: e5 15        	sbc	$15                     ; 0x15 <__rc5>
     89f: 85 16        	sta	$16                     ; 0x16 <__rc6>
     8a1: a6 18        	ldx	$18                     ; 0x18 <__rc8>
     8a3: 86 64        	stx	$64                     ; 0x64 <_BITMAP_BASE.0+0x1>
     8a5: 84 65        	sty	$65                     ; 0x65 <_BITMAP_BASE.0+0x2>
     8a7: 85 66        	sta	$66                     ; 0x66 <_BITMAP_BASE.0+0x3>
     8a9: a5 1a        	lda	$1a                     ; 0x1a <__rc10>
     8ab: 38           	sec
     8ac: e5 12        	sbc	$12                     ; 0x12 <__rc2>
     8ae: 85 17        	sta	$17                     ; 0x17 <__rc7>
     8b0: a5 18        	lda	$18                     ; 0x18 <__rc8>
     8b2: e5 13        	sbc	$13                     ; 0x13 <__rc3>
     8b4: 85 18        	sta	$18                     ; 0x18 <__rc8>
     8b6: 98           	tya
     8b7: e5 14        	sbc	$14                     ; 0x14 <__rc4>
     8b9: 85 19        	sta	$19                     ; 0x19 <__rc9>
     8bb: a5 16        	lda	$16                     ; 0x16 <__rc6>
     8bd: e5 15        	sbc	$15                     ; 0x15 <__rc5>
     8bf: 85 16        	sta	$16                     ; 0x16 <__rc6>
     8c1: 38           	sec
     8c2: a6 17        	ldx	$17                     ; 0x17 <__rc7>
     8c4: 86 67        	stx	$67                     ; 0x67 <_BITMAP_BASE.1>
     8c6: a4 18        	ldy	$18                     ; 0x18 <__rc8>
     8c8: 84 68        	sty	$68                     ; 0x68 <_BITMAP_BASE.1+0x1>
     8ca: a6 19        	ldx	$19                     ; 0x19 <__rc9>
     8cc: 86 69        	stx	$69                     ; 0x69 <_BITMAP_BASE.1+0x2>
     8ce: 85 6a        	sta	$6a                     ; 0x6a <_BITMAP_BASE.1+0x3>
     8d0: a5 17        	lda	$17                     ; 0x17 <__rc7>
     8d2: e5 12        	sbc	$12                     ; 0x12 <__rc2>
     8d4: 85 17        	sta	$17                     ; 0x17 <__rc7>
     8d6: a5 18        	lda	$18                     ; 0x18 <__rc8>
     8d8: e5 13        	sbc	$13                     ; 0x13 <__rc3>
     8da: aa           	tax
     8db: a5 19        	lda	$19                     ; 0x19 <__rc9>
     8dd: e5 14        	sbc	$14                     ; 0x14 <__rc4>
     8df: 85 13        	sta	$13                     ; 0x13 <__rc3>
     8e1: a5 16        	lda	$16                     ; 0x16 <__rc6>
     8e3: e5 15        	sbc	$15                     ; 0x15 <__rc5>
     8e5: 85 12        	sta	$12                     ; 0x12 <__rc2>
     8e7: a5 17        	lda	$17                     ; 0x17 <__rc7>
     8e9: 85 6b        	sta	$6b                     ; 0x6b <_BITMAP_BASE.2>
     8eb: 86 6c        	stx	$6c                     ; 0x6c <_BITMAP_BASE.2+0x1>
     8ed: a4 1a        	ldy	$1a                     ; 0x1a <__rc10>
     8ef: 84 63        	sty	$63                     ; 0x63 <_BITMAP_BASE.0>
     8f1: a6 13        	ldx	$13                     ; 0x13 <__rc3>
     8f3: 86 6d        	stx	$6d                     ; 0x6d <_BITMAP_BASE.2+0x2>
     8f5: a6 12        	ldx	$12                     ; 0x12 <__rc2>
     8f7: 86 6e        	stx	$6e                     ; 0x6e <_BITMAP_BASE.2+0x3>
     8f9: 8c 01 d1     	sty	$d101                   ; 0xd101 <end_block9+0x9b7d>
     8fc: a6 64        	ldx	$64                     ; 0x64 <_BITMAP_BASE.0+0x1>
     8fe: 8e 02 d1     	stx	$d102                   ; 0xd102 <end_block9+0x9b7e>
     901: a6 65        	ldx	$65                     ; 0x65 <_BITMAP_BASE.0+0x2>
     903: 8e 03 d1     	stx	$d103                   ; 0xd103 <end_block9+0x9b7f>
     906: a6 67        	ldx	$67                     ; 0x67 <_BITMAP_BASE.1>
     908: 8e 09 d1     	stx	$d109                   ; 0xd109 <end_block9+0x9b85>
     90b: a6 68        	ldx	$68                     ; 0x68 <_BITMAP_BASE.1+0x1>
     90d: 8e 0a d1     	stx	$d10a                   ; 0xd10a <end_block9+0x9b86>
     910: a6 69        	ldx	$69                     ; 0x69 <_BITMAP_BASE.1+0x2>
     912: 8e 0b d1     	stx	$d10b                   ; 0xd10b <end_block9+0x9b87>
     915: a6 6b        	ldx	$6b                     ; 0x6b <_BITMAP_BASE.2>
     917: 8e 11 d1     	stx	$d111                   ; 0xd111 <end_block9+0x9b8d>
     91a: a6 6c        	ldx	$6c                     ; 0x6c <_BITMAP_BASE.2+0x1>
     91c: 8e 12 d1     	stx	$d112                   ; 0xd112 <end_block9+0x9b8e>
     91f: a6 6d        	ldx	$6d                     ; 0x6d <_BITMAP_BASE.2+0x2>
     921: 8e 13 d1     	stx	$d113                   ; 0xd113 <end_block9+0x9b8f>
     924: 9c 00 d1     	stz	$d100                   ; 0xd100 <end_block9+0x9b7c>
     927: 9c 08 d1     	stz	$d108                   ; 0xd108 <end_block9+0x9b84>
     92a: 9c 10 d1     	stz	$d110                   ; 0xd110 <end_block9+0x9b8c>
     92d: a2 01        	ldx	#$1
     92f: 86 6f        	stx	$6f                     ; 0x6f <_tileSize.1>
     931: 86 70        	stx	$70                     ; 0x70 <_tileSize.2>
     933: a2 10        	ldx	#$10
     935: 8e 00 d2     	stx	$d200                   ; 0xd200 <end_block9+0x9c7c>
     938: a5 6f        	lda	$6f                     ; 0x6f <_tileSize.1>
     93a: 29 01        	and	#$1
     93c: a0 10        	ldy	#$10
     93e: c9 00        	cmp	#$0
     940: d0 02        	bne	$944 <main+0x42c>
     942: a0 00        	ldy	#$0
     944: 8c 0c d2     	sty	$d20c                   ; 0xd20c <end_block9+0x9c88>
     947: a5 70        	lda	$70                     ; 0x70 <_tileSize.2>
     949: 29 01        	and	#$1
     94b: d0 02        	bne	$94f <main+0x437>
     94d: a2 00        	ldx	#$0
     94f: 8e 18 d2     	stx	$d218                   ; 0xd218 <end_block9+0x9c94>
     952: a0 d9        	ldy	#$d9
     954: a2 40        	ldx	#$40
     956: 64 12        	stz	$12                     ; 0x12 <__rc2>
     958: 84 13        	sty	$13                     ; 0x13 <__rc3>
     95a: a9 00        	lda	#$0
     95c: 92 12        	sta	($12)                   ; 0x12 <__rc2>
     95e: a5 12        	lda	$12                     ; 0x12 <__rc2>
     960: ca           	dex
     961: 18           	clc
     962: 69 08        	adc	#$8
     964: 85 12        	sta	$12                     ; 0x12 <__rc2>
     966: 98           	tya
     967: 69 00        	adc	#$0
     969: a8           	tay
     96a: 8a           	txa
     96b: d0 eb        	bne	$958 <main+0x440>
     96d: 18           	clc
     96e: a5 10        	lda	$10                     ; 0x10 <__rc0>
     970: 69 10        	adc	#$10
     972: 85 18        	sta	$18                     ; 0x18 <__rc8>
     974: a5 11        	lda	$11                     ; 0x11 <__rc1>
     976: 69 00        	adc	#$0
     978: 85 19        	sta	$19                     ; 0x19 <__rc9>
     97a: a6 18        	ldx	$18                     ; 0x18 <__rc8>
     97c: 86 fb        	stx	$fb                     ; 0xfb <__pal_size+0x7b>
     97e: 85 fc        	sta	$fc                     ; 0xfc <__pal_size+0x7c>
     980: a2 08        	ldx	#$8
     982: 86 fd        	stx	$fd                     ; 0xfd <__pal_size+0x7d>
     984: 18           	clc
     985: a5 10        	lda	$10                     ; 0x10 <__rc0>
     987: 69 20        	adc	#$20
     989: 85 16        	sta	$16                     ; 0x16 <__rc6>
     98b: a5 11        	lda	$11                     ; 0x11 <__rc1>
     98d: 69 00        	adc	#$0
     98f: 85 17        	sta	$17                     ; 0x17 <__rc7>
     991: a2 82        	ldx	#$82
     993: 86 12        	stx	$12                     ; 0x12 <__rc2>
     995: a2 00        	ldx	#$0
     997: 86 13        	stx	$13                     ; 0x13 <__rc3>
     999: a0 06        	ldy	#$6
     99b: 5a           	phy
     99c: a5 16        	lda	$16                     ; 0x16 <__rc6>
     99e: a0 09        	ldy	#$9
     9a0: 91 10        	sta	($10),y                 ; 0x10 <__rc0>
     9a2: a5 17        	lda	$17                     ; 0x17 <__rc7>
     9a4: c8           	iny
     9a5: 91 10        	sta	($10),y                 ; 0x10 <__rc0>
     9a7: 7a           	ply
     9a8: 20 dc ff     	jsr	$ffdc <end_block9+0xca58>
     9ab: 92 16        	sta	($16)                   ; 0x16 <__rc6>
     9ad: a9 00        	lda	#$0
     9af: 6a           	ror
     9b0: 85 12        	sta	$12                     ; 0x12 <__rc2>
     9b2: b1 18        	lda	($18),y                 ; 0x18 <__rc8>
     9b4: 85 13        	sta	$13                     ; 0x13 <__rc3>
     9b6: a2 06        	ldx	#$6
     9b8: 86 12        	stx	$12                     ; 0x12 <__rc2>
     9ba: a0 07        	ldy	#$7
     9bc: b1 18        	lda	($18),y                 ; 0x18 <__rc8>
     9be: a6 13        	ldx	$13                     ; 0x13 <__rc3>
     9c0: 8e 00 de     	stx	$de00                   ; 0xde00 <end_block9+0xa87c>
     9c3: 9c 01 de     	stz	$de01                   ; 0xde01 <end_block9+0xa87d>
     9c6: 8d 02 de     	sta	$de02                   ; 0xde02 <end_block9+0xa87e>
     9c9: 9c 03 de     	stz	$de03                   ; 0xde03 <end_block9+0xa87f>
     9cc: ae 10 de     	ldx	$de10                   ; 0xde10 <end_block9+0xa88c>
     9cf: ac 11 de     	ldy	$de11                   ; 0xde11 <end_block9+0xa88d>
     9d2: ad 12 de     	lda	$de12                   ; 0xde12 <end_block9+0xa88e>
     9d5: ad 13 de     	lda	$de13                   ; 0xde13 <end_block9+0xa88f>
     9d8: 8e a4 d6     	stx	$d6a4                   ; 0xd6a4 <end_block9+0xa120>
     9db: 8c a5 d6     	sty	$d6a5                   ; 0xd6a5 <end_block9+0xa121>
     9de: a2 03        	ldx	#$3
     9e0: 8e a6 d6     	stx	$d6a6                   ; 0xd6a6 <end_block9+0xa122>
     9e3: a0 00        	ldy	#$0
     9e5: 64 01        	stz	$1                      ; 0x1 <__data_size+0x1>
     9e7: a2 7f        	ldx	#$7f
     9e9: 8e 00 d0     	stx	$d000                   ; 0xd000 <end_block9+0x9a7c>
     9ec: a2 10        	ldx	#$10
     9ee: 8e 01 d0     	stx	$d001                   ; 0xd001 <end_block9+0x9a7d>
     9f1: a2 50        	ldx	#$50
     9f3: 8e 02 d0     	stx	$d002                   ; 0xd002 <end_block9+0x9a7e>
     9f6: a6 12        	ldx	$12                     ; 0x12 <__rc2>
     9f8: 8e 03 d0     	stx	$d003                   ; 0xd003 <end_block9+0x9a7f>
     9fb: a2 01        	ldx	#$1
     9fd: 86 01        	stx	$1                      ; 0x1 <__data_size+0x1>
     9ff: a2 d0        	ldx	#$d0
     a01: 80 05        	bra	$a08 <main+0x4f0>
     a03: e8           	inx
     a04: e0 d3        	cpx	#$d3
     a06: f0 28        	beq	$a30 <main+0x518>
     a08: 84 16        	sty	$16                     ; 0x16 <__rc6>
     a0a: 98           	tya
     a0b: 18           	clc
     a0c: 69 00        	adc	#$0
     a0e: 85 14        	sta	$14                     ; 0x14 <__rc4>
     a10: 8a           	txa
     a11: 69 10        	adc	#$10
     a13: 85 15        	sta	$15                     ; 0x15 <__rc5>
     a15: 84 12        	sty	$12                     ; 0x12 <__rc2>
     a17: 86 13        	stx	$13                     ; 0x13 <__rc3>
     a19: a4 0f        	ldy	$f                      ; 0xf <__data_size+0xf>
     a1b: 78           	sei
     a1c: a9 08        	lda	#$8
     a1e: 85 0f        	sta	$f                      ; 0xf <__data_size+0xf>
     a20: b2 14        	lda	($14)                   ; 0x14 <__rc4>
     a22: 84 0f        	sty	$f                      ; 0xf <__data_size+0xf>
     a24: 58           	cli
     a25: 92 12        	sta	($12)                   ; 0x12 <__rc2>
     a27: a4 16        	ldy	$16                     ; 0x16 <__rc6>
     a29: c8           	iny
     a2a: f0 d7        	beq	$a03 <main+0x4eb>
     a2c: e0 d3        	cpx	#$d3
     a2e: d0 d8        	bne	$a08 <main+0x4f0>
     a30: c0 ff        	cpy	#$ff
     a32: d0 d4        	bne	$a08 <main+0x4f0>
     a34: a5 18        	lda	$18                     ; 0x18 <__rc8>
     a36: a0 0b        	ldy	#$b
     a38: 91 10        	sta	($10),y                 ; 0x10 <__rc0>
     a3a: a5 19        	lda	$19                     ; 0x19 <__rc9>
     a3c: c8           	iny
     a3d: 91 10        	sta	($10),y                 ; 0x10 <__rc0>
     a3f: a5 1c        	lda	$1c                     ; 0x1c <__rc12>
     a41: a0 0f        	ldy	#$f
     a43: 91 10        	sta	($10),y                 ; 0x10 <__rc0>
     a45: 64 01        	stz	$1                      ; 0x1 <__data_size+0x1>
     a47: 9c 0d d0     	stz	$d00d                   ; 0xd00d <end_block9+0x9a89>
     a4a: 9c 0e d0     	stz	$d00e                   ; 0xd00e <end_block9+0x9a8a>
     a4d: 9c 0f d0     	stz	$d00f                   ; 0xd00f <end_block9+0x9a8b>
     a50: a0 01        	ldy	#$1
     a52: 84 6f        	sty	$6f                     ; 0x6f <_tileSize.1>
     a54: 9c 0d d2     	stz	$d20d                   ; 0xd20d <end_block9+0x9c89>
     a57: 9c 0e d2     	stz	$d20e                   ; 0xd20e <end_block9+0x9c8a>
     a5a: a2 02        	ldx	#$2
     a5c: 8e 0f d2     	stx	$d20f                   ; 0xd20f <end_block9+0x9c8b>
     a5f: a2 50        	ldx	#$50
     a61: 8e 10 d2     	stx	$d210                   ; 0xd210 <end_block9+0x9c8c>
     a64: 86 12        	stx	$12                     ; 0x12 <__rc2>
     a66: 9c 11 d2     	stz	$d211                   ; 0xd211 <end_block9+0x9c8d>
     a69: a2 1f        	ldx	#$1f
     a6b: 8e 12 d2     	stx	$d212                   ; 0xd212 <end_block9+0x9c8e>
     a6e: 86 13        	stx	$13                     ; 0x13 <__rc3>
     a70: 9c 13 d2     	stz	$d213                   ; 0xd213 <end_block9+0x9c8f>
     a73: 9c 14 d2     	stz	$d214                   ; 0xd214 <end_block9+0x9c90>
     a76: 9c 15 d2     	stz	$d215                   ; 0xd215 <end_block9+0x9c91>
     a79: 9c 16 d2     	stz	$d216                   ; 0xd216 <end_block9+0x9c92>
     a7c: 9c 17 d2     	stz	$d217                   ; 0xd217 <end_block9+0x9c93>
     a7f: 84 70        	sty	$70                     ; 0x70 <_tileSize.2>
     a81: 9c 19 d2     	stz	$d219                   ; 0xd219 <end_block9+0x9c95>
     a84: a9 bf        	lda	#$bf
     a86: 8d 1a d2     	sta	$d21a                   ; 0xd21a <end_block9+0x9c96>
     a89: a9 04        	lda	#$4
     a8b: 8d 1b d2     	sta	$d21b                   ; 0xd21b <end_block9+0x9c97>
     a8e: a6 12        	ldx	$12                     ; 0x12 <__rc2>
     a90: 8e 1c d2     	stx	$d21c                   ; 0xd21c <end_block9+0x9c98>
     a93: 9c 1d d2     	stz	$d21d                   ; 0xd21d <end_block9+0x9c99>
     a96: a6 13        	ldx	$13                     ; 0x13 <__rc3>
     a98: 8e 1e d2     	stx	$d21e                   ; 0xd21e <end_block9+0x9c9a>
     a9b: 84 16        	sty	$16                     ; 0x16 <__rc6>
     a9d: 9c 1f d2     	stz	$d21f                   ; 0xd21f <end_block9+0x9c9b>
     aa0: 9c 20 d2     	stz	$d220                   ; 0xd220 <end_block9+0x9c9c>
     aa3: 9c 21 d2     	stz	$d221                   ; 0xd221 <end_block9+0x9c9d>
     aa6: 9c 22 d2     	stz	$d222                   ; 0xd222 <end_block9+0x9c9e>
     aa9: 9c 23 d2     	stz	$d223                   ; 0xd223 <end_block9+0x9c9f>
     aac: 9c 80 d2     	stz	$d280                   ; 0xd280 <end_block9+0x9cfc>
     aaf: a2 b4        	ldx	#$b4
     ab1: 8e 81 d2     	stx	$d281                   ; 0xd281 <end_block9+0x9cfd>
     ab4: 8d 82 d2     	sta	$d282                   ; 0xd282 <end_block9+0x9cfe>
     ab7: 9c 83 d2     	stz	$d283                   ; 0xd283 <end_block9+0x9cff>
     aba: a2 14        	ldx	#$14
     abc: 86 2f        	stx	$2f                     ; 0x2f <__rc31>
     abe: a9 00        	lda	#$0
     ac0: aa           	tax
     ac1: 85 12        	sta	$12                     ; 0x12 <__rc2>
     ac3: 8a           	txa
     ac4: a0 0d        	ldy	#$d
     ac6: 91 10        	sta	($10),y                 ; 0x10 <__rc0>
     ac8: 4a           	lsr
     ac9: 48           	pha
     aca: a5 12        	lda	$12                     ; 0x12 <__rc2>
     acc: c8           	iny
     acd: 91 10        	sta	($10),y                 ; 0x10 <__rc0>
     acf: 68           	pla
     ad0: 66 12        	ror	$12                     ; 0x12 <__rc2>
     ad2: 64 13        	stz	$13                     ; 0x13 <__rc3>
     ad4: 66 13        	ror	$13                     ; 0x13 <__rc3>
     ad6: 4a           	lsr
     ad7: 66 12        	ror	$12                     ; 0x12 <__rc2>
     ad9: 66 13        	ror	$13                     ; 0x13 <__rc3>
     adb: 4a           	lsr
     adc: 66 12        	ror	$12                     ; 0x12 <__rc2>
     ade: 66 13        	ror	$13                     ; 0x13 <__rc3>
     ae0: a5 13        	lda	$13                     ; 0x13 <__rc3>
     ae2: 0a           	asl
     ae3: a6 12        	ldx	$12                     ; 0x12 <__rc2>
     ae5: 86 14        	stx	$14                     ; 0x14 <__rc4>
     ae7: 26 14        	rol	$14                     ; 0x14 <__rc4>
     ae9: 0a           	asl
     aea: 26 14        	rol	$14                     ; 0x14 <__rc4>
     aec: 18           	clc
     aed: a2 01        	ldx	#$1
     aef: b0 02        	bcs	$af3 <main+0x5db>
     af1: a2 00        	ldx	#$0
     af3: 86 2a        	stx	$2a                     ; 0x2a <__rc26>
     af5: 65 13        	adc	$13                     ; 0x13 <__rc3>
     af7: 85 26        	sta	$26                     ; 0x26 <__rc22>
     af9: a8           	tay
     afa: a5 14        	lda	$14                     ; 0x14 <__rc4>
     afc: 65 12        	adc	$12                     ; 0x12 <__rc2>
     afe: aa           	tax
     aff: 85 27        	sta	$27                     ; 0x27 <__rc23>
     b01: 18           	clc
     b02: 98           	tya
     b03: 69 a0        	adc	#$a0
     b05: 85 2c        	sta	$2c                     ; 0x2c <__rc28>
     b07: 8a           	txa
     b08: 69 00        	adc	#$0
     b0a: 85 2d        	sta	$2d                     ; 0x2d <__rc29>
     b0c: 64 12        	stz	$12                     ; 0x12 <__rc2>
     b0e: a6 12        	ldx	$12                     ; 0x12 <__rc2>
     b10: a5 12        	lda	$12                     ; 0x12 <__rc2>
     b12: a4 2a        	ldy	$2a                     ; 0x2a <__rc26>
     b14: c0 01        	cpy	#$1
     b16: 65 26        	adc	$26                     ; 0x26 <__rc22>
     b18: 85 25        	sta	$25                     ; 0x25 <__rc21>
     b1a: a9 bf        	lda	#$bf
     b1c: 65 27        	adc	$27                     ; 0x27 <__rc23>
     b1e: 85 28        	sta	$28                     ; 0x28 <__rc24>
     b20: a9 04        	lda	#$4
     b22: 69 00        	adc	#$0
     b24: 85 29        	sta	$29                     ; 0x29 <__rc25>
     b26: a4 16        	ldy	$16                     ; 0x16 <__rc6>
     b28: 8c a6 d6     	sty	$d6a6                   ; 0xd6a6 <end_block9+0xa122>
     b2b: 86 2b        	stx	$2b                     ; 0x2b <__rc27>
     b2d: ad a4 d6     	lda	$d6a4                   ; 0xd6a4 <end_block9+0xa120>
     b30: ae a5 d6     	ldx	$d6a5                   ; 0xd6a5 <end_block9+0xa121>
     b33: 5a           	phy
     b34: a4 2f        	ldy	$2f                     ; 0x2f <__rc31>
     b36: 84 12        	sty	$12                     ; 0x12 <__rc2>
     b38: 7a           	ply
     b39: 64 13        	stz	$13                     ; 0x13 <__rc3>
     b3b: 84 2e        	sty	$2e                     ; 0x2e <__rc30>
     b3d: 20 88 2f     	jsr	$2f88 <__umodhi3>
     b40: 85 14        	sta	$14                     ; 0x14 <__rc4>
     b42: 86 15        	stx	$15                     ; 0x15 <__rc5>
     b44: a5 28        	lda	$28                     ; 0x28 <__rc24>
     b46: 85 12        	sta	$12                     ; 0x12 <__rc2>
     b48: 06 12        	asl	$12                     ; 0x12 <__rc2>
     b4a: 26 29        	rol	$29                     ; 0x29 <__rc25>
     b4c: 06 12        	asl	$12                     ; 0x12 <__rc2>
     b4e: 26 29        	rol	$29                     ; 0x29 <__rc25>
     b50: 06 12        	asl	$12                     ; 0x12 <__rc2>
     b52: 26 29        	rol	$29                     ; 0x29 <__rc25>
     b54: a4 29        	ldy	$29                     ; 0x29 <__rc25>
     b56: a6 0f        	ldx	$f                      ; 0xf <__data_size+0xf>
     b58: 78           	sei
     b59: 84 0f        	sty	$f                      ; 0xf <__data_size+0xf>
     b5b: 09 e0        	ora	#$e0
     b5d: a4 25        	ldy	$25                     ; 0x25 <__rc21>
     b5f: 84 12        	sty	$12                     ; 0x12 <__rc2>
     b61: 85 13        	sta	$13                     ; 0x13 <__rc3>
     b63: a5 14        	lda	$14                     ; 0x14 <__rc4>
     b65: 92 12        	sta	($12)                   ; 0x12 <__rc2>
     b67: a4 2e        	ldy	$2e                     ; 0x2e <__rc30>
     b69: a5 15        	lda	$15                     ; 0x15 <__rc5>
     b6b: 91 12        	sta	($12),y                 ; 0x12 <__rc2>
     b6d: 86 0f        	stx	$f                      ; 0xf <__data_size+0xf>
     b6f: 58           	cli
     b70: a5 2b        	lda	$2b                     ; 0x2b <__rc27>
     b72: a6 2a        	ldx	$2a                     ; 0x2a <__rc26>
     b74: e0 01        	cpx	#$1
     b76: 65 2c        	adc	$2c                     ; 0x2c <__rc28>
     b78: 85 13        	sta	$13                     ; 0x13 <__rc3>
     b7a: a9 bf        	lda	#$bf
     b7c: 65 2d        	adc	$2d                     ; 0x2d <__rc29>
     b7e: 85 14        	sta	$14                     ; 0x14 <__rc4>
     b80: a9 04        	lda	#$4
     b82: 69 00        	adc	#$0
     b84: a6 14        	ldx	$14                     ; 0x14 <__rc4>
     b86: 86 12        	stx	$12                     ; 0x12 <__rc2>
     b88: 06 12        	asl	$12                     ; 0x12 <__rc2>
     b8a: 2a           	rol
     b8b: 06 12        	asl	$12                     ; 0x12 <__rc2>
     b8d: 2a           	rol
     b8e: 06 12        	asl	$12                     ; 0x12 <__rc2>
     b90: 2a           	rol
     b91: a6 0f        	ldx	$f                      ; 0xf <__data_size+0xf>
     b93: 78           	sei
     b94: 85 0f        	sta	$f                      ; 0xf <__data_size+0xf>
     b96: a5 13        	lda	$13                     ; 0x13 <__rc3>
     b98: 85 12        	sta	$12                     ; 0x12 <__rc2>
     b9a: a5 14        	lda	$14                     ; 0x14 <__rc4>
     b9c: 09 e0        	ora	#$e0
     b9e: 85 13        	sta	$13                     ; 0x13 <__rc3>
     ba0: a9 00        	lda	#$0
     ba2: 92 12        	sta	($12)                   ; 0x12 <__rc2>
     ba4: 84 16        	sty	$16                     ; 0x16 <__rc6>
     ba6: 91 12        	sta	($12),y                 ; 0x12 <__rc2>
     ba8: 86 0f        	stx	$f                      ; 0xf <__data_size+0xf>
     baa: 58           	cli
     bab: 18           	clc
     bac: a5 2b        	lda	$2b                     ; 0x2b <__rc27>
     bae: 69 02        	adc	#$2
     bb0: 85 12        	sta	$12                     ; 0x12 <__rc2>
     bb2: c9 50        	cmp	#$50
     bb4: f0 03        	beq	$bb9 <main+0x6a1>
     bb6: 4c 0e 0b     	jmp	$b0e <main+0x5f6>
     bb9: a2 14        	ldx	#$14
     bbb: 86 2f        	stx	$2f                     ; 0x2f <__rc31>
     bbd: 18           	clc
     bbe: a0 0e        	ldy	#$e
     bc0: b1 10        	lda	($10),y                 ; 0x10 <__rc0>
     bc2: 85 14        	sta	$14                     ; 0x14 <__rc4>
     bc4: 69 02        	adc	#$2
     bc6: a8           	tay
     bc7: 5a           	phy
     bc8: a0 0d        	ldy	#$d
     bca: b1 10        	lda	($10),y                 ; 0x10 <__rc0>
     bcc: 7a           	ply
     bcd: aa           	tax
     bce: 69 00        	adc	#$0
     bd0: 85 12        	sta	$12                     ; 0x12 <__rc2>
     bd2: 8a           	txa
     bd3: d0 0c        	bne	$be1 <main+0x6c9>
     bd5: a6 14        	ldx	$14                     ; 0x14 <__rc4>
     bd7: e0 1d        	cpx	#$1d
     bd9: 98           	tya
     bda: a6 12        	ldx	$12                     ; 0x12 <__rc2>
     bdc: b0 0d        	bcs	$beb <main+0x6d3>
     bde: 4c c1 0a     	jmp	$ac1 <main+0x5a9>
     be1: e0 00        	cpx	#$0
     be3: 98           	tya
     be4: a6 12        	ldx	$12                     ; 0x12 <__rc2>
     be6: b0 03        	bcs	$beb <main+0x6d3>
     be8: 4c c1 0a     	jmp	$ac1 <main+0x5a9>
     beb: a2 01        	ldx	#$1
     bed: 86 29        	stx	$29                     ; 0x29 <__rc25>
     bef: ca           	dex
     bf0: 8a           	txa
     bf1: 48           	pha
     bf2: a0 0f        	ldy	#$f
     bf4: b1 10        	lda	($10),y                 ; 0x10 <__rc0>
     bf6: 85 1a        	sta	$1a                     ; 0x1a <__rc10>
     bf8: a0 0b        	ldy	#$b
     bfa: b1 10        	lda	($10),y                 ; 0x10 <__rc0>
     bfc: 85 24        	sta	$24                     ; 0x24 <__rc20>
     bfe: c8           	iny
     bff: b1 10        	lda	($10),y                 ; 0x10 <__rc0>
     c01: 85 25        	sta	$25                     ; 0x25 <__rc21>
     c03: 68           	pla
     c04: 85 19        	sta	$19                     ; 0x19 <__rc9>
     c06: 4a           	lsr
     c07: 86 18        	stx	$18                     ; 0x18 <__rc8>
     c09: 86 12        	stx	$12                     ; 0x12 <__rc2>
     c0b: 66 12        	ror	$12                     ; 0x12 <__rc2>
     c0d: 64 13        	stz	$13                     ; 0x13 <__rc3>
     c0f: 66 13        	ror	$13                     ; 0x13 <__rc3>
     c11: 4a           	lsr
     c12: 66 12        	ror	$12                     ; 0x12 <__rc2>
     c14: 66 13        	ror	$13                     ; 0x13 <__rc3>
     c16: 4a           	lsr
     c17: 66 12        	ror	$12                     ; 0x12 <__rc2>
     c19: 66 13        	ror	$13                     ; 0x13 <__rc3>
     c1b: a5 13        	lda	$13                     ; 0x13 <__rc3>
     c1d: 0a           	asl
     c1e: a6 12        	ldx	$12                     ; 0x12 <__rc2>
     c20: 86 14        	stx	$14                     ; 0x14 <__rc4>
     c22: 26 14        	rol	$14                     ; 0x14 <__rc4>
     c24: 0a           	asl
     c25: 26 14        	rol	$14                     ; 0x14 <__rc4>
     c27: 18           	clc
     c28: a2 01        	ldx	#$1
     c2a: b0 02        	bcs	$c2e <main+0x716>
     c2c: a2 00        	ldx	#$0
     c2e: 86 1d        	stx	$1d                     ; 0x1d <__rc13>
     c30: 65 13        	adc	$13                     ; 0x13 <__rc3>
     c32: aa           	tax
     c33: a5 14        	lda	$14                     ; 0x14 <__rc4>
     c35: 65 12        	adc	$12                     ; 0x12 <__rc2>
     c37: 85 15        	sta	$15                     ; 0x15 <__rc5>
     c39: 18           	clc
     c3a: 8a           	txa
     c3b: 69 a0        	adc	#$a0
     c3d: 85 12        	sta	$12                     ; 0x12 <__rc2>
     c3f: a5 15        	lda	$15                     ; 0x15 <__rc5>
     c41: 69 00        	adc	#$0
     c43: 85 13        	sta	$13                     ; 0x13 <__rc3>
     c45: 86 1b        	stx	$1b                     ; 0x1b <__rc11>
     c47: 86 14        	stx	$14                     ; 0x14 <__rc4>
     c49: a6 15        	ldx	$15                     ; 0x15 <__rc5>
     c4b: 86 1c        	stx	$1c                     ; 0x1c <__rc12>
     c4d: 64 1e        	stz	$1e                     ; 0x1e <__rc14>
     c4f: a5 1e        	lda	$1e                     ; 0x1e <__rc14>
     c51: 18           	clc
     c52: 69 50        	adc	#$50
     c54: 85 1f        	sta	$1f                     ; 0x1f <__rc15>
     c56: a6 1d        	ldx	$1d                     ; 0x1d <__rc13>
     c58: e0 01        	cpx	#$1
     c5a: 65 14        	adc	$14                     ; 0x14 <__rc4>
     c5c: 85 23        	sta	$23                     ; 0x23 <__rc19>
     c5e: a9 bf        	lda	#$bf
     c60: 65 15        	adc	$15                     ; 0x15 <__rc5>
     c62: 85 26        	sta	$26                     ; 0x26 <__rc22>
     c64: a9 04        	lda	#$4
     c66: 69 00        	adc	#$0
     c68: 85 27        	sta	$27                     ; 0x27 <__rc23>
     c6a: a5 1b        	lda	$1b                     ; 0x1b <__rc11>
     c6c: a6 1d        	ldx	$1d                     ; 0x1d <__rc13>
     c6e: e0 01        	cpx	#$1
     c70: 65 1e        	adc	$1e                     ; 0x1e <__rc14>
     c72: 85 16        	sta	$16                     ; 0x16 <__rc6>
     c74: a5 1c        	lda	$1c                     ; 0x1c <__rc12>
     c76: 69 00        	adc	#$0
     c78: a8           	tay
     c79: a9 00        	lda	#$0
     c7b: 69 00        	adc	#$0
     c7d: aa           	tax
     c7e: 18           	clc
     c7f: a5 16        	lda	$16                     ; 0x16 <__rc6>
     c81: 69 00        	adc	#$0
     c83: 85 17        	sta	$17                     ; 0x17 <__rc7>
     c85: 98           	tya
     c86: 69 bf        	adc	#$bf
     c88: a8           	tay
     c89: 8a           	txa
     c8a: 69 04        	adc	#$4
     c8c: 85 28        	sta	$28                     ; 0x28 <__rc24>
     c8e: 98           	tya
     c8f: 84 16        	sty	$16                     ; 0x16 <__rc6>
     c91: 06 16        	asl	$16                     ; 0x16 <__rc6>
     c93: 26 28        	rol	$28                     ; 0x28 <__rc24>
     c95: 06 16        	asl	$16                     ; 0x16 <__rc6>
     c97: 26 28        	rol	$28                     ; 0x28 <__rc24>
     c99: 06 16        	asl	$16                     ; 0x16 <__rc6>
     c9b: 26 28        	rol	$28                     ; 0x28 <__rc24>
     c9d: a4 28        	ldy	$28                     ; 0x28 <__rc24>
     c9f: a6 0f        	ldx	$f                      ; 0xf <__data_size+0xf>
     ca1: 78           	sei
     ca2: 84 0f        	sty	$f                      ; 0xf <__data_size+0xf>
     ca4: a4 17        	ldy	$17                     ; 0x17 <__rc7>
     ca6: 84 16        	sty	$16                     ; 0x16 <__rc6>
     ca8: 09 e0        	ora	#$e0
     caa: 85 17        	sta	$17                     ; 0x17 <__rc7>
     cac: b2 16        	lda	($16)                   ; 0x16 <__rc6>
     cae: 85 28        	sta	$28                     ; 0x28 <__rc24>
     cb0: 86 0f        	stx	$f                      ; 0xf <__data_size+0xf>
     cb2: 58           	cli
     cb3: a5 26        	lda	$26                     ; 0x26 <__rc22>
     cb5: 85 16        	sta	$16                     ; 0x16 <__rc6>
     cb7: 06 16        	asl	$16                     ; 0x16 <__rc6>
     cb9: 26 27        	rol	$27                     ; 0x27 <__rc23>
     cbb: 06 16        	asl	$16                     ; 0x16 <__rc6>
     cbd: 26 27        	rol	$27                     ; 0x27 <__rc23>
     cbf: 06 16        	asl	$16                     ; 0x16 <__rc6>
     cc1: 26 27        	rol	$27                     ; 0x27 <__rc23>
     cc3: a4 27        	ldy	$27                     ; 0x27 <__rc23>
     cc5: a6 0f        	ldx	$f                      ; 0xf <__data_size+0xf>
     cc7: 78           	sei
     cc8: 84 0f        	sty	$f                      ; 0xf <__data_size+0xf>
     cca: a4 29        	ldy	$29                     ; 0x29 <__rc25>
     ccc: 09 e0        	ora	#$e0
     cce: 5a           	phy
     ccf: a4 23        	ldy	$23                     ; 0x23 <__rc19>
     cd1: 84 16        	sty	$16                     ; 0x16 <__rc6>
     cd3: 7a           	ply
     cd4: 85 17        	sta	$17                     ; 0x17 <__rc7>
     cd6: a5 28        	lda	$28                     ; 0x28 <__rc24>
     cd8: 92 16        	sta	($16)                   ; 0x16 <__rc6>
     cda: a9 00        	lda	#$0
     cdc: 91 16        	sta	($16),y                 ; 0x16 <__rc6>
     cde: 84 23        	sty	$23                     ; 0x23 <__rc19>
     ce0: 86 0f        	stx	$f                      ; 0xf <__data_size+0xf>
     ce2: 58           	cli
     ce3: a5 1f        	lda	$1f                     ; 0x1f <__rc15>
     ce5: a6 1d        	ldx	$1d                     ; 0x1d <__rc13>
     ce7: e0 01        	cpx	#$1
     ce9: 65 12        	adc	$12                     ; 0x12 <__rc2>
     ceb: 85 17        	sta	$17                     ; 0x17 <__rc7>
     ced: a9 bf        	lda	#$bf
     cef: 65 13        	adc	$13                     ; 0x13 <__rc3>
     cf1: a8           	tay
     cf2: a9 04        	lda	#$4
     cf4: 69 00        	adc	#$0
     cf6: 84 16        	sty	$16                     ; 0x16 <__rc6>
     cf8: 06 16        	asl	$16                     ; 0x16 <__rc6>
     cfa: 2a           	rol
     cfb: 06 16        	asl	$16                     ; 0x16 <__rc6>
     cfd: 2a           	rol
     cfe: 06 16        	asl	$16                     ; 0x16 <__rc6>
     d00: 2a           	rol
     d01: a6 0f        	ldx	$f                      ; 0xf <__data_size+0xf>
     d03: 78           	sei
     d04: 85 0f        	sta	$f                      ; 0xf <__data_size+0xf>
     d06: a5 17        	lda	$17                     ; 0x17 <__rc7>
     d08: 85 16        	sta	$16                     ; 0x16 <__rc6>
     d0a: 98           	tya
     d0b: 09 e0        	ora	#$e0
     d0d: 85 17        	sta	$17                     ; 0x17 <__rc7>
     d0f: a9 00        	lda	#$0
     d11: 92 16        	sta	($16)                   ; 0x16 <__rc6>
     d13: a0 01        	ldy	#$1
     d15: 84 29        	sty	$29                     ; 0x29 <__rc25>
     d17: a4 23        	ldy	$23                     ; 0x23 <__rc19>
     d19: 91 16        	sta	($16),y                 ; 0x16 <__rc6>
     d1b: 86 0f        	stx	$f                      ; 0xf <__data_size+0xf>
     d1d: 58           	cli
     d1e: 18           	clc
     d1f: a5 1e        	lda	$1e                     ; 0x1e <__rc14>
     d21: 69 02        	adc	#$2
     d23: 85 1e        	sta	$1e                     ; 0x1e <__rc14>
     d25: c9 50        	cmp	#$50
     d27: f0 03        	beq	$d2c <main+0x814>
     d29: 4c 4f 0c     	jmp	$c4f <main+0x737>
     d2c: 18           	clc
     d2d: a5 18        	lda	$18                     ; 0x18 <__rc8>
     d2f: 69 02        	adc	#$2
     d31: 85 12        	sta	$12                     ; 0x12 <__rc2>
     d33: a5 19        	lda	$19                     ; 0x19 <__rc9>
     d35: 69 00        	adc	#$0
     d37: a6 19        	ldx	$19                     ; 0x19 <__rc9>
     d39: d0 0b        	bne	$d46 <main+0x82e>
     d3b: a4 18        	ldy	$18                     ; 0x18 <__rc8>
     d3d: c0 1d        	cpy	#$1d
     d3f: a6 12        	ldx	$12                     ; 0x12 <__rc2>
     d41: b0 0e        	bcs	$d51 <main+0x839>
     d43: 4c 04 0c     	jmp	$c04 <main+0x6ec>
     d46: a6 19        	ldx	$19                     ; 0x19 <__rc9>
     d48: e0 00        	cpx	#$0
     d4a: a6 12        	ldx	$12                     ; 0x12 <__rc2>
     d4c: b0 03        	bcs	$d51 <main+0x839>
     d4e: 4c 04 0c     	jmp	$c04 <main+0x6ec>
     d51: a5 24        	lda	$24                     ; 0x24 <__rc20>
     d53: a0 0b        	ldy	#$b
     d55: 91 10        	sta	($10),y                 ; 0x10 <__rc0>
     d57: a5 25        	lda	$25                     ; 0x25 <__rc21>
     d59: c8           	iny
     d5a: 91 10        	sta	($10),y                 ; 0x10 <__rc0>
     d5c: a5 1a        	lda	$1a                     ; 0x1a <__rc10>
     d5e: a0 0f        	ldy	#$f
     d60: 91 10        	sta	($10),y                 ; 0x10 <__rc0>
     d62: a2 14        	ldx	#$14
     d64: 86 2f        	stx	$2f                     ; 0x2f <__rc31>
     d66: 64 12        	stz	$12                     ; 0x12 <__rc2>
     d68: a9 00        	lda	#$0
     d6a: a0 0e        	ldy	#$e
     d6c: 91 10        	sta	($10),y                 ; 0x10 <__rc0>
     d6e: 4a           	lsr
     d6f: 48           	pha
     d70: a5 12        	lda	$12                     ; 0x12 <__rc2>
     d72: 88           	dey
     d73: 91 10        	sta	($10),y                 ; 0x10 <__rc0>
     d75: 68           	pla
     d76: 66 12        	ror	$12                     ; 0x12 <__rc2>
     d78: 64 13        	stz	$13                     ; 0x13 <__rc3>
     d7a: 66 13        	ror	$13                     ; 0x13 <__rc3>
     d7c: 4a           	lsr
     d7d: 66 12        	ror	$12                     ; 0x12 <__rc2>
     d7f: 66 13        	ror	$13                     ; 0x13 <__rc3>
     d81: 4a           	lsr
     d82: 66 12        	ror	$12                     ; 0x12 <__rc2>
     d84: 66 13        	ror	$13                     ; 0x13 <__rc3>
     d86: a5 13        	lda	$13                     ; 0x13 <__rc3>
     d88: 0a           	asl
     d89: a6 12        	ldx	$12                     ; 0x12 <__rc2>
     d8b: 86 14        	stx	$14                     ; 0x14 <__rc4>
     d8d: 26 14        	rol	$14                     ; 0x14 <__rc4>
     d8f: 0a           	asl
     d90: 26 14        	rol	$14                     ; 0x14 <__rc4>
     d92: 18           	clc
     d93: a2 01        	ldx	#$1
     d95: b0 02        	bcs	$d99 <main+0x881>
     d97: a2 00        	ldx	#$0
     d99: 86 2b        	stx	$2b                     ; 0x2b <__rc27>
     d9b: 65 13        	adc	$13                     ; 0x13 <__rc3>
     d9d: 85 26        	sta	$26                     ; 0x26 <__rc22>
     d9f: a8           	tay
     da0: a5 14        	lda	$14                     ; 0x14 <__rc4>
     da2: 65 12        	adc	$12                     ; 0x12 <__rc2>
     da4: aa           	tax
     da5: 85 27        	sta	$27                     ; 0x27 <__rc23>
     da7: 18           	clc
     da8: 98           	tya
     da9: 69 a0        	adc	#$a0
     dab: 85 2c        	sta	$2c                     ; 0x2c <__rc28>
     dad: 8a           	txa
     dae: 69 00        	adc	#$0
     db0: 85 2d        	sta	$2d                     ; 0x2d <__rc29>
     db2: 64 2a        	stz	$2a                     ; 0x2a <__rc26>
     db4: a5 2a        	lda	$2a                     ; 0x2a <__rc26>
     db6: a6 2b        	ldx	$2b                     ; 0x2b <__rc27>
     db8: e0 01        	cpx	#$1
     dba: 65 26        	adc	$26                     ; 0x26 <__rc22>
     dbc: 85 13        	sta	$13                     ; 0x13 <__rc3>
     dbe: a9 00        	lda	#$0
     dc0: 65 27        	adc	$27                     ; 0x27 <__rc23>
     dc2: 85 15        	sta	$15                     ; 0x15 <__rc5>
     dc4: a9 02        	lda	#$2
     dc6: 69 00        	adc	#$0
     dc8: a6 0f        	ldx	$f                      ; 0xf <__data_size+0xf>
     dca: 78           	sei
     dcb: a4 15        	ldy	$15                     ; 0x15 <__rc5>
     dcd: 84 12        	sty	$12                     ; 0x12 <__rc2>
     dcf: 06 12        	asl	$12                     ; 0x12 <__rc2>
     dd1: 2a           	rol
     dd2: 06 12        	asl	$12                     ; 0x12 <__rc2>
     dd4: 2a           	rol
     dd5: 06 12        	asl	$12                     ; 0x12 <__rc2>
     dd7: 2a           	rol
     dd8: 85 0f        	sta	$f                      ; 0xf <__data_size+0xf>
     dda: a5 15        	lda	$15                     ; 0x15 <__rc5>
     ddc: 09 e0        	ora	#$e0
     dde: a4 13        	ldy	$13                     ; 0x13 <__rc3>
     de0: 84 12        	sty	$12                     ; 0x12 <__rc2>
     de2: 85 13        	sta	$13                     ; 0x13 <__rc3>
     de4: a9 00        	lda	#$0
     de6: 92 12        	sta	($12)                   ; 0x12 <__rc2>
     de8: a0 01        	ldy	#$1
     dea: 91 12        	sta	($12),y                 ; 0x12 <__rc2>
     dec: 64 13        	stz	$13                     ; 0x13 <__rc3>
     dee: 86 0f        	stx	$f                      ; 0xf <__data_size+0xf>
     df0: 58           	cli
     df1: a5 2a        	lda	$2a                     ; 0x2a <__rc26>
     df3: a6 2b        	ldx	$2b                     ; 0x2b <__rc27>
     df5: e0 01        	cpx	#$1
     df7: 65 2c        	adc	$2c                     ; 0x2c <__rc28>
     df9: 85 24        	sta	$24                     ; 0x24 <__rc20>
     dfb: a9 00        	lda	#$0
     dfd: 65 2d        	adc	$2d                     ; 0x2d <__rc29>
     dff: 85 25        	sta	$25                     ; 0x25 <__rc21>
     e01: a9 02        	lda	#$2
     e03: 69 00        	adc	#$0
     e05: 85 28        	sta	$28                     ; 0x28 <__rc24>
     e07: 8c a6 d6     	sty	$d6a6                   ; 0xd6a6 <end_block9+0xa122>
     e0a: ad a4 d6     	lda	$d6a4                   ; 0xd6a4 <end_block9+0xa120>
     e0d: ae a5 d6     	ldx	$d6a5                   ; 0xd6a5 <end_block9+0xa121>
     e10: 5a           	phy
     e11: a4 2f        	ldy	$2f                     ; 0x2f <__rc31>
     e13: 84 12        	sty	$12                     ; 0x12 <__rc2>
     e15: 7a           	ply
     e16: 84 2e        	sty	$2e                     ; 0x2e <__rc30>
     e18: 20 88 2f     	jsr	$2f88 <__umodhi3>
     e1b: 85 14        	sta	$14                     ; 0x14 <__rc4>
     e1d: 86 15        	stx	$15                     ; 0x15 <__rc5>
     e1f: a5 25        	lda	$25                     ; 0x25 <__rc21>
     e21: 85 12        	sta	$12                     ; 0x12 <__rc2>
     e23: 06 12        	asl	$12                     ; 0x12 <__rc2>
     e25: 26 28        	rol	$28                     ; 0x28 <__rc24>
     e27: 06 12        	asl	$12                     ; 0x12 <__rc2>
     e29: 26 28        	rol	$28                     ; 0x28 <__rc24>
     e2b: 06 12        	asl	$12                     ; 0x12 <__rc2>
     e2d: 26 28        	rol	$28                     ; 0x28 <__rc24>
     e2f: a4 28        	ldy	$28                     ; 0x28 <__rc24>
     e31: a6 0f        	ldx	$f                      ; 0xf <__data_size+0xf>
     e33: 78           	sei
     e34: 84 0f        	sty	$f                      ; 0xf <__data_size+0xf>
     e36: a4 24        	ldy	$24                     ; 0x24 <__rc20>
     e38: 84 12        	sty	$12                     ; 0x12 <__rc2>
     e3a: 09 e0        	ora	#$e0
     e3c: 85 13        	sta	$13                     ; 0x13 <__rc3>
     e3e: a5 14        	lda	$14                     ; 0x14 <__rc4>
     e40: 92 12        	sta	($12)                   ; 0x12 <__rc2>
     e42: a4 2e        	ldy	$2e                     ; 0x2e <__rc30>
     e44: a5 15        	lda	$15                     ; 0x15 <__rc5>
     e46: 91 12        	sta	($12),y                 ; 0x12 <__rc2>
     e48: 86 0f        	stx	$f                      ; 0xf <__data_size+0xf>
     e4a: 58           	cli
     e4b: 18           	clc
     e4c: a5 2a        	lda	$2a                     ; 0x2a <__rc26>
     e4e: 69 02        	adc	#$2
     e50: 85 2a        	sta	$2a                     ; 0x2a <__rc26>
     e52: c9 50        	cmp	#$50
     e54: f0 03        	beq	$e59 <main+0x941>
     e56: 4c b4 0d     	jmp	$db4 <main+0x89c>
     e59: a2 14        	ldx	#$14
     e5b: 86 2f        	stx	$2f                     ; 0x2f <__rc31>
     e5d: 18           	clc
     e5e: a0 0d        	ldy	#$d
     e60: b1 10        	lda	($10),y                 ; 0x10 <__rc0>
     e62: a8           	tay
     e63: 69 02        	adc	#$2
     e65: 85 14        	sta	$14                     ; 0x14 <__rc4>
     e67: 5a           	phy
     e68: a0 0e        	ldy	#$e
     e6a: b1 10        	lda	($10),y                 ; 0x10 <__rc0>
     e6c: 7a           	ply
     e6d: aa           	tax
     e6e: 69 00        	adc	#$0
     e70: e0 00        	cpx	#$0
     e72: d0 0b        	bne	$e7f <main+0x967>
     e74: c0 1d        	cpy	#$1d
     e76: a6 14        	ldx	$14                     ; 0x14 <__rc4>
     e78: 86 12        	stx	$12                     ; 0x12 <__rc2>
     e7a: b0 0e        	bcs	$e8a <main+0x972>
     e7c: 4c 6a 0d     	jmp	$d6a <main+0x852>
     e7f: e0 00        	cpx	#$0
     e81: a6 14        	ldx	$14                     ; 0x14 <__rc4>
     e83: 86 12        	stx	$12                     ; 0x12 <__rc2>
     e85: b0 03        	bcs	$e8a <main+0x972>
     e87: 4c 6a 0d     	jmp	$d6a <main+0x852>
     e8a: a0 01        	ldy	#$1
     e8c: a2 00        	ldx	#$0
     e8e: 8a           	txa
     e8f: 48           	pha
     e90: 5a           	phy
     e91: a0 0f        	ldy	#$f
     e93: b1 10        	lda	($10),y                 ; 0x10 <__rc0>
     e95: 85 24        	sta	$24                     ; 0x24 <__rc20>
     e97: a0 09        	ldy	#$9
     e99: b1 10        	lda	($10),y                 ; 0x10 <__rc0>
     e9b: 85 2a        	sta	$2a                     ; 0x2a <__rc26>
     e9d: c8           	iny
     e9e: b1 10        	lda	($10),y                 ; 0x10 <__rc0>
     ea0: 85 2b        	sta	$2b                     ; 0x2b <__rc27>
     ea2: c8           	iny
     ea3: b1 10        	lda	($10),y                 ; 0x10 <__rc0>
     ea5: 85 28        	sta	$28                     ; 0x28 <__rc24>
     ea7: c8           	iny
     ea8: b1 10        	lda	($10),y                 ; 0x10 <__rc0>
     eaa: 7a           	ply
     eab: 85 29        	sta	$29                     ; 0x29 <__rc25>
     ead: 68           	pla
     eae: 85 19        	sta	$19                     ; 0x19 <__rc9>
     eb0: 4a           	lsr
     eb1: 86 18        	stx	$18                     ; 0x18 <__rc8>
     eb3: 86 12        	stx	$12                     ; 0x12 <__rc2>
     eb5: 66 12        	ror	$12                     ; 0x12 <__rc2>
     eb7: 64 13        	stz	$13                     ; 0x13 <__rc3>
     eb9: 66 13        	ror	$13                     ; 0x13 <__rc3>
     ebb: 4a           	lsr
     ebc: 66 12        	ror	$12                     ; 0x12 <__rc2>
     ebe: 66 13        	ror	$13                     ; 0x13 <__rc3>
     ec0: 4a           	lsr
     ec1: 66 12        	ror	$12                     ; 0x12 <__rc2>
     ec3: a6 12        	ldx	$12                     ; 0x12 <__rc2>
     ec5: 86 14        	stx	$14                     ; 0x14 <__rc4>
     ec7: 66 13        	ror	$13                     ; 0x13 <__rc3>
     ec9: a5 13        	lda	$13                     ; 0x13 <__rc3>
     ecb: 0a           	asl
     ecc: 26 12        	rol	$12                     ; 0x12 <__rc2>
     ece: 0a           	asl
     ecf: 26 12        	rol	$12                     ; 0x12 <__rc2>
     ed1: a6 12        	ldx	$12                     ; 0x12 <__rc2>
     ed3: 86 15        	stx	$15                     ; 0x15 <__rc5>
     ed5: 18           	clc
     ed6: a2 01        	ldx	#$1
     ed8: b0 02        	bcs	$edc <main+0x9c4>
     eda: a2 00        	ldx	#$0
     edc: 86 1a        	stx	$1a                     ; 0x1a <__rc10>
     ede: 65 13        	adc	$13                     ; 0x13 <__rc3>
     ee0: 85 12        	sta	$12                     ; 0x12 <__rc2>
     ee2: 85 16        	sta	$16                     ; 0x16 <__rc6>
     ee4: a5 15        	lda	$15                     ; 0x15 <__rc5>
     ee6: 65 14        	adc	$14                     ; 0x14 <__rc4>
     ee8: aa           	tax
     ee9: 85 13        	sta	$13                     ; 0x13 <__rc3>
     eeb: 18           	clc
     eec: a5 16        	lda	$16                     ; 0x16 <__rc6>
     eee: 69 a0        	adc	#$a0
     ef0: 85 14        	sta	$14                     ; 0x14 <__rc4>
     ef2: 8a           	txa
     ef3: 69 00        	adc	#$0
     ef5: 85 15        	sta	$15                     ; 0x15 <__rc5>
     ef7: 64 1b        	stz	$1b                     ; 0x1b <__rc11>
     ef9: a5 1b        	lda	$1b                     ; 0x1b <__rc11>
     efb: 18           	clc
     efc: 69 50        	adc	#$50
     efe: 85 1c        	sta	$1c                     ; 0x1c <__rc12>
     f00: 5a           	phy
     f01: a6 1a        	ldx	$1a                     ; 0x1a <__rc10>
     f03: e0 01        	cpx	#$1
     f05: 65 12        	adc	$12                     ; 0x12 <__rc2>
     f07: 85 17        	sta	$17                     ; 0x17 <__rc7>
     f09: a9 00        	lda	#$0
     f0b: 65 13        	adc	$13                     ; 0x13 <__rc3>
     f0d: 85 1d        	sta	$1d                     ; 0x1d <__rc13>
     f0f: a9 02        	lda	#$2
     f11: 69 00        	adc	#$0
     f13: a6 0f        	ldx	$f                      ; 0xf <__data_size+0xf>
     f15: 78           	sei
     f16: a4 1d        	ldy	$1d                     ; 0x1d <__rc13>
     f18: 84 16        	sty	$16                     ; 0x16 <__rc6>
     f1a: 06 16        	asl	$16                     ; 0x16 <__rc6>
     f1c: 2a           	rol
     f1d: 06 16        	asl	$16                     ; 0x16 <__rc6>
     f1f: 2a           	rol
     f20: 06 16        	asl	$16                     ; 0x16 <__rc6>
     f22: 2a           	rol
     f23: 85 0f        	sta	$f                      ; 0xf <__data_size+0xf>
     f25: a5 1d        	lda	$1d                     ; 0x1d <__rc13>
     f27: 09 e0        	ora	#$e0
     f29: a4 17        	ldy	$17                     ; 0x17 <__rc7>
     f2b: 84 16        	sty	$16                     ; 0x16 <__rc6>
     f2d: 7a           	ply
     f2e: 85 17        	sta	$17                     ; 0x17 <__rc7>
     f30: a9 00        	lda	#$0
     f32: 92 16        	sta	($16)                   ; 0x16 <__rc6>
     f34: 91 16        	sta	($16),y                 ; 0x16 <__rc6>
     f36: 86 0f        	stx	$f                      ; 0xf <__data_size+0xf>
     f38: a5 1c        	lda	$1c                     ; 0x1c <__rc12>
     f3a: a6 1a        	ldx	$1a                     ; 0x1a <__rc10>
     f3c: e0 01        	cpx	#$1
     f3e: 65 14        	adc	$14                     ; 0x14 <__rc4>
     f40: 85 1c        	sta	$1c                     ; 0x1c <__rc12>
     f42: a9 00        	lda	#$0
     f44: 65 15        	adc	$15                     ; 0x15 <__rc5>
     f46: 85 1d        	sta	$1d                     ; 0x1d <__rc13>
     f48: a9 02        	lda	#$2
     f4a: 69 00        	adc	#$0
     f4c: 85 1e        	sta	$1e                     ; 0x1e <__rc14>
     f4e: a5 1b        	lda	$1b                     ; 0x1b <__rc11>
     f50: a6 1a        	ldx	$1a                     ; 0x1a <__rc10>
     f52: e0 01        	cpx	#$1
     f54: 65 14        	adc	$14                     ; 0x14 <__rc4>
     f56: 85 17        	sta	$17                     ; 0x17 <__rc7>
     f58: a9 00        	lda	#$0
     f5a: 65 15        	adc	$15                     ; 0x15 <__rc5>
     f5c: 85 1f        	sta	$1f                     ; 0x1f <__rc15>
     f5e: a9 02        	lda	#$2
     f60: 69 00        	adc	#$0
     f62: a6 1f        	ldx	$1f                     ; 0x1f <__rc15>
     f64: 86 16        	stx	$16                     ; 0x16 <__rc6>
     f66: 06 16        	asl	$16                     ; 0x16 <__rc6>
     f68: 2a           	rol
     f69: 06 16        	asl	$16                     ; 0x16 <__rc6>
     f6b: 2a           	rol
     f6c: 06 16        	asl	$16                     ; 0x16 <__rc6>
     f6e: 2a           	rol
     f6f: 58           	cli
     f70: a6 0f        	ldx	$f                      ; 0xf <__data_size+0xf>
     f72: 78           	sei
     f73: 85 0f        	sta	$f                      ; 0xf <__data_size+0xf>
     f75: a5 17        	lda	$17                     ; 0x17 <__rc7>
     f77: 85 16        	sta	$16                     ; 0x16 <__rc6>
     f79: a5 1f        	lda	$1f                     ; 0x1f <__rc15>
     f7b: 09 e0        	ora	#$e0
     f7d: 85 17        	sta	$17                     ; 0x17 <__rc7>
     f7f: b2 16        	lda	($16)                   ; 0x16 <__rc6>
     f81: 85 1f        	sta	$1f                     ; 0x1f <__rc15>
     f83: 86 0f        	stx	$f                      ; 0xf <__data_size+0xf>
     f85: 58           	cli
     f86: a5 1d        	lda	$1d                     ; 0x1d <__rc13>
     f88: 85 16        	sta	$16                     ; 0x16 <__rc6>
     f8a: 06 16        	asl	$16                     ; 0x16 <__rc6>
     f8c: 26 1e        	rol	$1e                     ; 0x1e <__rc14>
     f8e: 06 16        	asl	$16                     ; 0x16 <__rc6>
     f90: 26 1e        	rol	$1e                     ; 0x1e <__rc14>
     f92: 06 16        	asl	$16                     ; 0x16 <__rc6>
     f94: 26 1e        	rol	$1e                     ; 0x1e <__rc14>
     f96: 84 16        	sty	$16                     ; 0x16 <__rc6>
     f98: a4 1e        	ldy	$1e                     ; 0x1e <__rc14>
     f9a: a6 0f        	ldx	$f                      ; 0xf <__data_size+0xf>
     f9c: 78           	sei
     f9d: 84 0f        	sty	$f                      ; 0xf <__data_size+0xf>
     f9f: a4 16        	ldy	$16                     ; 0x16 <__rc6>
     fa1: 48           	pha
     fa2: a5 1c        	lda	$1c                     ; 0x1c <__rc12>
     fa4: 85 16        	sta	$16                     ; 0x16 <__rc6>
     fa6: 68           	pla
     fa7: 09 e0        	ora	#$e0
     fa9: 85 17        	sta	$17                     ; 0x17 <__rc7>
     fab: a5 1f        	lda	$1f                     ; 0x1f <__rc15>
     fad: 92 16        	sta	($16)                   ; 0x16 <__rc6>
     faf: a9 00        	lda	#$0
     fb1: 91 16        	sta	($16),y                 ; 0x16 <__rc6>
     fb3: 86 0f        	stx	$f                      ; 0xf <__data_size+0xf>
     fb5: 58           	cli
     fb6: 18           	clc
     fb7: a5 1b        	lda	$1b                     ; 0x1b <__rc11>
     fb9: 69 02        	adc	#$2
     fbb: 85 1b        	sta	$1b                     ; 0x1b <__rc11>
     fbd: c9 50        	cmp	#$50
     fbf: f0 03        	beq	$fc4 <main+0xaac>
     fc1: 4c f9 0e     	jmp	$ef9 <main+0x9e1>
     fc4: a5 18        	lda	$18                     ; 0x18 <__rc8>
     fc6: 18           	clc
     fc7: 69 02        	adc	#$2
     fc9: 85 12        	sta	$12                     ; 0x12 <__rc2>
     fcb: a5 19        	lda	$19                     ; 0x19 <__rc9>
     fcd: 69 00        	adc	#$0
     fcf: a6 19        	ldx	$19                     ; 0x19 <__rc9>
     fd1: d0 0b        	bne	$fde <main+0xac6>
     fd3: a6 18        	ldx	$18                     ; 0x18 <__rc8>
     fd5: e0 1d        	cpx	#$1d
     fd7: a6 12        	ldx	$12                     ; 0x12 <__rc2>
     fd9: b0 0e        	bcs	$fe9 <main+0xad1>
     fdb: 4c ae 0e     	jmp	$eae <main+0x996>
     fde: a6 19        	ldx	$19                     ; 0x19 <__rc9>
     fe0: e0 00        	cpx	#$0
     fe2: a6 12        	ldx	$12                     ; 0x12 <__rc2>
     fe4: b0 03        	bcs	$fe9 <main+0xad1>
     fe6: 4c ae 0e     	jmp	$eae <main+0x996>
     fe9: a2 40        	ldx	#$40
     feb: 8e 14 d2     	stx	$d214                   ; 0xd214 <end_block9+0x9c90>
     fee: a2 01        	ldx	#$1
     ff0: 8e 15 d2     	stx	$d215                   ; 0xd215 <end_block9+0x9c91>
     ff3: 9c 16 d2     	stz	$d216                   ; 0xd216 <end_block9+0x9c92>
     ff6: 9c 17 d2     	stz	$d217                   ; 0xd217 <end_block9+0x9c93>
     ff9: 9c 20 d2     	stz	$d220                   ; 0xd220 <end_block9+0x9c9c>
     ffc: 9c 21 d2     	stz	$d221                   ; 0xd221 <end_block9+0x9c9d>
     fff: 9c 22 d2     	stz	$d222                   ; 0xd222 <end_block9+0x9c9e>
    1002: 9c 23 d2     	stz	$d223                   ; 0xd223 <end_block9+0x9c9f>
    1005: a5 70        	lda	$70                     ; 0x70 <_tileSize.2>
    1007: 29 01        	and	#$1
    1009: a2 11        	ldx	#$11
    100b: a0 11        	ldy	#$11
    100d: c9 00        	cmp	#$0
    100f: d0 02        	bne	$1013 <main+0xafb>
    1011: a0 01        	ldy	#$1
    1013: 8c 18 d2     	sty	$d218                   ; 0xd218 <end_block9+0x9c94>
    1016: a5 6f        	lda	$6f                     ; 0x6f <_tileSize.1>
    1018: 29 01        	and	#$1
    101a: d0 02        	bne	$101e <main+0xb06>
    101c: a2 01        	ldx	#$1
    101e: 8e 0c d2     	stx	$d20c                   ; 0xd20c <end_block9+0x9c88>
    1021: 64 01        	stz	$1                      ; 0x1 <__data_size+0x1>
    1023: a2 01        	ldx	#$1
    1025: 8e 80 d5     	stx	$d580                   ; 0xd580 <end_block9+0x9ffc>
    1028: a0 20        	ldy	#$20
    102a: 8c 81 d5     	sty	$d581                   ; 0xd581 <end_block9+0x9ffd>
    102d: a0 02        	ldy	#$2
    102f: 8c 80 d5     	sty	$d580                   ; 0xd580 <end_block9+0x9ffc>
    1032: 9c 81 d5     	stz	$d581                   ; 0xd581 <end_block9+0x9ffd>
    1035: c8           	iny
    1036: 8c 80 d5     	sty	$d580                   ; 0xd580 <end_block9+0x9ffc>
    1039: 9c 81 d5     	stz	$d581                   ; 0xd581 <end_block9+0x9ffd>
    103c: c8           	iny
    103d: 8c 82 d5     	sty	$d582                   ; 0xd582 <end_block9+0x9ffe>
    1040: 9c 81 d5     	stz	$d581                   ; 0xd581 <end_block9+0x9ffd>
    1043: c8           	iny
    1044: 8c 82 d5     	sty	$d582                   ; 0xd582 <end_block9+0x9ffe>
    1047: 8e 81 d5     	stx	$d581                   ; 0xd581 <end_block9+0x9ffd>
    104a: a2 08        	ldx	#$8
    104c: 8e 80 d5     	stx	$d580                   ; 0xd580 <end_block9+0x9ffc>
    104f: 9c 81 d5     	stz	$d581                   ; 0xd581 <end_block9+0x9ffd>
    1052: a2 bd        	ldx	#$bd
    1054: 8e 80 d5     	stx	$d580                   ; 0xd580 <end_block9+0x9ffc>
    1057: 9c 81 d5     	stz	$d581                   ; 0xd581 <end_block9+0x9ffd>
    105a: a2 c0        	ldx	#$c0
    105c: 8e 80 d5     	stx	$d580                   ; 0xd580 <end_block9+0x9ffc>
    105f: 8a           	txa
    1060: a2 30        	ldx	#$30
    1062: 8e 81 d5     	stx	$d581                   ; 0xd581 <end_block9+0x9ffd>
    1065: a0 c1        	ldy	#$c1
    1067: 8c 80 d5     	sty	$d580                   ; 0xd580 <end_block9+0x9ffc>
    106a: 84 13        	sty	$13                     ; 0x13 <__rc3>
    106c: 8e 81 d5     	stx	$d581                   ; 0xd581 <end_block9+0x9ffd>
    106f: c8           	iny
    1070: 8c 80 d5     	sty	$d580                   ; 0xd580 <end_block9+0x9ffc>
    1073: 84 14        	sty	$14                     ; 0x14 <__rc4>
    1075: 8e 81 d5     	stx	$d581                   ; 0xd581 <end_block9+0x9ffd>
    1078: c8           	iny
    1079: 8c 80 d5     	sty	$d580                   ; 0xd580 <end_block9+0x9ffc>
    107c: 84 15        	sty	$15                     ; 0x15 <__rc5>
    107e: 8e 81 d5     	stx	$d581                   ; 0xd581 <end_block9+0x9ffd>
    1081: c8           	iny
    1082: 8c 80 d5     	sty	$d580                   ; 0xd580 <end_block9+0x9ffc>
    1085: 84 16        	sty	$16                     ; 0x16 <__rc6>
    1087: 8e 81 d5     	stx	$d581                   ; 0xd581 <end_block9+0x9ffd>
    108a: c8           	iny
    108b: 8c 80 d5     	sty	$d580                   ; 0xd580 <end_block9+0x9ffc>
    108e: 84 17        	sty	$17                     ; 0x17 <__rc7>
    1090: 8e 81 d5     	stx	$d581                   ; 0xd581 <end_block9+0x9ffd>
    1093: c8           	iny
    1094: 8c 80 d5     	sty	$d580                   ; 0xd580 <end_block9+0x9ffc>
    1097: 84 18        	sty	$18                     ; 0x18 <__rc8>
    1099: 8e 81 d5     	stx	$d581                   ; 0xd581 <end_block9+0x9ffd>
    109c: c8           	iny
    109d: 8c 80 d5     	sty	$d580                   ; 0xd580 <end_block9+0x9ffc>
    10a0: 84 19        	sty	$19                     ; 0x19 <__rc9>
    10a2: 8e 81 d5     	stx	$d581                   ; 0xd581 <end_block9+0x9ffd>
    10a5: c8           	iny
    10a6: 8c 80 d5     	sty	$d580                   ; 0xd580 <end_block9+0x9ffc>
    10a9: 8e 81 d5     	stx	$d581                   ; 0xd581 <end_block9+0x9ffd>
    10ac: 8d 82 d5     	sta	$d582                   ; 0xd582 <end_block9+0x9ffe>
    10af: 8e 81 d5     	stx	$d581                   ; 0xd581 <end_block9+0x9ffd>
    10b2: a5 13        	lda	$13                     ; 0x13 <__rc3>
    10b4: 8d 82 d5     	sta	$d582                   ; 0xd582 <end_block9+0x9ffe>
    10b7: 8e 81 d5     	stx	$d581                   ; 0xd581 <end_block9+0x9ffd>
    10ba: a5 14        	lda	$14                     ; 0x14 <__rc4>
    10bc: 8d 82 d5     	sta	$d582                   ; 0xd582 <end_block9+0x9ffe>
    10bf: 8e 81 d5     	stx	$d581                   ; 0xd581 <end_block9+0x9ffd>
    10c2: a5 15        	lda	$15                     ; 0x15 <__rc5>
    10c4: 8d 82 d5     	sta	$d582                   ; 0xd582 <end_block9+0x9ffe>
    10c7: 8e 81 d5     	stx	$d581                   ; 0xd581 <end_block9+0x9ffd>
    10ca: a5 16        	lda	$16                     ; 0x16 <__rc6>
    10cc: 8d 82 d5     	sta	$d582                   ; 0xd582 <end_block9+0x9ffe>
    10cf: 8e 81 d5     	stx	$d581                   ; 0xd581 <end_block9+0x9ffd>
    10d2: a5 17        	lda	$17                     ; 0x17 <__rc7>
    10d4: 8d 82 d5     	sta	$d582                   ; 0xd582 <end_block9+0x9ffe>
    10d7: 8e 81 d5     	stx	$d581                   ; 0xd581 <end_block9+0x9ffd>
    10da: a5 18        	lda	$18                     ; 0x18 <__rc8>
    10dc: 8d 82 d5     	sta	$d582                   ; 0xd582 <end_block9+0x9ffe>
    10df: 8e 81 d5     	stx	$d581                   ; 0xd581 <end_block9+0x9ffd>
    10e2: a5 19        	lda	$19                     ; 0x19 <__rc9>
    10e4: 8d 82 d5     	sta	$d582                   ; 0xd582 <end_block9+0x9ffe>
    10e7: 8e 81 d5     	stx	$d581                   ; 0xd581 <end_block9+0x9ffd>
    10ea: 8c 82 d5     	sty	$d582                   ; 0xd582 <end_block9+0x9ffe>
    10ed: 8e 81 d5     	stx	$d581                   ; 0xd581 <end_block9+0x9ffd>
    10f0: a9 df        	lda	#$df
    10f2: 2d 82 34     	and	$3482                   ; 0x3482 <opl3_instrument_defs+0xc>
    10f5: a2 b0        	ldx	#$b0
    10f7: 8e 80 d5     	stx	$d580                   ; 0xd580 <end_block9+0x9ffc>
    10fa: 86 12        	stx	$12                     ; 0x12 <__rc2>
    10fc: 8d 81 d5     	sta	$d581                   ; 0xd581 <end_block9+0x9ffd>
    10ff: a9 df        	lda	#$df
    1101: 2d 91 34     	and	$3491                   ; 0x3491 <opl3_instrument_defs+0x1b>
    1104: e8           	inx
    1105: 8e 80 d5     	stx	$d580                   ; 0xd580 <end_block9+0x9ffc>
    1108: 86 13        	stx	$13                     ; 0x13 <__rc3>
    110a: 8d 81 d5     	sta	$d581                   ; 0xd581 <end_block9+0x9ffd>
    110d: a9 df        	lda	#$df
    110f: 2d a0 34     	and	$34a0                   ; 0x34a0 <opl3_instrument_defs+0x2a>
    1112: e8           	inx
    1113: 8e 80 d5     	stx	$d580                   ; 0xd580 <end_block9+0x9ffc>
    1116: 86 14        	stx	$14                     ; 0x14 <__rc4>
    1118: 8d 81 d5     	sta	$d581                   ; 0xd581 <end_block9+0x9ffd>
    111b: a9 df        	lda	#$df
    111d: 2d af 34     	and	$34af                   ; 0x34af <opl3_instrument_defs+0x39>
    1120: e8           	inx
    1121: 8e 80 d5     	stx	$d580                   ; 0xd580 <end_block9+0x9ffc>
    1124: 86 15        	stx	$15                     ; 0x15 <__rc5>
    1126: 8d 81 d5     	sta	$d581                   ; 0xd581 <end_block9+0x9ffd>
    1129: a9 df        	lda	#$df
    112b: 2d be 34     	and	$34be                   ; 0x34be <opl3_instrument_defs+0x48>
    112e: e8           	inx
    112f: 8e 80 d5     	stx	$d580                   ; 0xd580 <end_block9+0x9ffc>
    1132: 86 16        	stx	$16                     ; 0x16 <__rc6>
    1134: 8d 81 d5     	sta	$d581                   ; 0xd581 <end_block9+0x9ffd>
    1137: a9 df        	lda	#$df
    1139: 2d cd 34     	and	$34cd                   ; 0x34cd <opl3_instrument_defs+0x57>
    113c: e8           	inx
    113d: 8e 80 d5     	stx	$d580                   ; 0xd580 <end_block9+0x9ffc>
    1140: 86 17        	stx	$17                     ; 0x17 <__rc7>
    1142: 8d 81 d5     	sta	$d581                   ; 0xd581 <end_block9+0x9ffd>
    1145: a9 df        	lda	#$df
    1147: 2d dc 34     	and	$34dc                   ; 0x34dc <opl3_instrument_defs+0x66>
    114a: e8           	inx
    114b: 8e 80 d5     	stx	$d580                   ; 0xd580 <end_block9+0x9ffc>
    114e: 86 18        	stx	$18                     ; 0x18 <__rc8>
    1150: 8d 81 d5     	sta	$d581                   ; 0xd581 <end_block9+0x9ffd>
    1153: a9 df        	lda	#$df
    1155: 2d eb 34     	and	$34eb                   ; 0x34eb <opl3_instrument_defs+0x75>
    1158: a0 b7        	ldy	#$b7
    115a: 8c 80 d5     	sty	$d580                   ; 0xd580 <end_block9+0x9ffc>
    115d: 8d 81 d5     	sta	$d581                   ; 0xd581 <end_block9+0x9ffd>
    1160: a9 df        	lda	#$df
    1162: 2d fa 34     	and	$34fa                   ; 0x34fa <opl3_instrument_defs+0x84>
    1165: a2 b8        	ldx	#$b8
    1167: 8e 80 d5     	stx	$d580                   ; 0xd580 <end_block9+0x9ffc>
    116a: 86 19        	stx	$19                     ; 0x19 <__rc9>
    116c: 8d 81 d5     	sta	$d581                   ; 0xd581 <end_block9+0x9ffd>
    116f: a9 df        	lda	#$df
    1171: 2d 09 35     	and	$3509                   ; 0x3509 <opl3_instrument_defs+0x93>
    1174: a6 12        	ldx	$12                     ; 0x12 <__rc2>
    1176: 8e 82 d5     	stx	$d582                   ; 0xd582 <end_block9+0x9ffe>
    1179: 8d 81 d5     	sta	$d581                   ; 0xd581 <end_block9+0x9ffd>
    117c: a9 df        	lda	#$df
    117e: 2d 18 35     	and	$3518                   ; 0x3518 <opl3_instrument_defs+0xa2>
    1181: a6 13        	ldx	$13                     ; 0x13 <__rc3>
    1183: 8e 82 d5     	stx	$d582                   ; 0xd582 <end_block9+0x9ffe>
    1186: 8d 81 d5     	sta	$d581                   ; 0xd581 <end_block9+0x9ffd>
    1189: a9 df        	lda	#$df
    118b: 2d 27 35     	and	$3527                   ; 0x3527 <opl3_instrument_defs+0xb1>
    118e: a6 14        	ldx	$14                     ; 0x14 <__rc4>
    1190: 8e 82 d5     	stx	$d582                   ; 0xd582 <end_block9+0x9ffe>
    1193: 8d 81 d5     	sta	$d581                   ; 0xd581 <end_block9+0x9ffd>
    1196: a9 df        	lda	#$df
    1198: 2d 36 35     	and	$3536                   ; 0x3536 <opl3_instrument_defs+0xc0>
    119b: a6 15        	ldx	$15                     ; 0x15 <__rc5>
    119d: 8e 82 d5     	stx	$d582                   ; 0xd582 <end_block9+0x9ffe>
    11a0: 8d 81 d5     	sta	$d581                   ; 0xd581 <end_block9+0x9ffd>
    11a3: a9 df        	lda	#$df
    11a5: 2d 45 35     	and	$3545                   ; 0x3545 <opl3_instrument_defs+0xcf>
    11a8: a6 16        	ldx	$16                     ; 0x16 <__rc6>
    11aa: 8e 82 d5     	stx	$d582                   ; 0xd582 <end_block9+0x9ffe>
    11ad: 8d 81 d5     	sta	$d581                   ; 0xd581 <end_block9+0x9ffd>
    11b0: a9 df        	lda	#$df
    11b2: 2d 54 35     	and	$3554                   ; 0x3554 <opl3_instrument_defs+0xde>
    11b5: a6 17        	ldx	$17                     ; 0x17 <__rc7>
    11b7: 8e 82 d5     	stx	$d582                   ; 0xd582 <end_block9+0x9ffe>
    11ba: 8d 81 d5     	sta	$d581                   ; 0xd581 <end_block9+0x9ffd>
    11bd: a9 df        	lda	#$df
    11bf: 2d 63 35     	and	$3563                   ; 0x3563 <opl3_instrument_defs+0xed>
    11c2: a6 18        	ldx	$18                     ; 0x18 <__rc8>
    11c4: 8e 82 d5     	stx	$d582                   ; 0xd582 <end_block9+0x9ffe>
    11c7: 8d 81 d5     	sta	$d581                   ; 0xd581 <end_block9+0x9ffd>
    11ca: a9 df        	lda	#$df
    11cc: 2d 72 35     	and	$3572                   ; 0x3572 <opl3_instrument_defs+0xfc>
    11cf: 8c 82 d5     	sty	$d582                   ; 0xd582 <end_block9+0x9ffe>
    11d2: 8d 81 d5     	sta	$d581                   ; 0xd581 <end_block9+0x9ffd>
    11d5: a9 df        	lda	#$df
    11d7: 2d 81 35     	and	$3581                   ; 0x3581 <opl3_instrument_defs+0x10b>
    11da: a6 19        	ldx	$19                     ; 0x19 <__rc9>
    11dc: 8e 82 d5     	stx	$d582                   ; 0xd582 <end_block9+0x9ffe>
    11df: a2 00        	ldx	#$0
    11e1: 8d 81 d5     	sta	$d581                   ; 0xd581 <end_block9+0x9ffd>
    11e4: a0 74        	ldy	#$74
    11e6: 84 12        	sty	$12                     ; 0x12 <__rc2>
    11e8: a0 34        	ldy	#$34
    11ea: 84 13        	sty	$13                     ; 0x13 <__rc3>
    11ec: 80 0a        	bra	$11f8 <main+0xce0>
    11ee: a0 02        	ldy	#$2
    11f0: e6 12        	inc	$12                     ; 0x12 <__rc2>
    11f2: d0 02        	bne	$11f6 <main+0xcde>
    11f4: e6 13        	inc	$13                     ; 0x13 <__rc3>
    11f6: 5a           	phy
    11f7: fa           	plx
    11f8: b2 12        	lda	($12)                   ; 0x12 <__rc2>
    11fa: c9 61        	cmp	#$61
    11fc: f0 f0        	beq	$11ee <main+0xcd6>
    11fe: a0 01        	ldy	#$1
    1200: c9 77        	cmp	#$77
    1202: f0 05        	beq	$1209 <main+0xcf1>
    1204: a8           	tay
    1205: f0 08        	beq	$120f <main+0xcf7>
    1207: da           	phx
    1208: 7a           	ply
    1209: e6 12        	inc	$12                     ; 0x12 <__rc2>
    120b: f0 e7        	beq	$11f4 <main+0xcdc>
    120d: 80 e7        	bra	$11f6 <main+0xcde>
    120f: a0 2d        	ldy	#$2d
    1211: a9 34        	lda	#$34
    1213: 84 fb        	sty	$fb                     ; 0xfb <__pal_size+0x7b>
    1215: 85 fc        	sta	$fc                     ; 0xfc <__pal_size+0x7c>
    1217: a0 15        	ldy	#$15
    1219: 84 fd        	sty	$fd                     ; 0xfd <__pal_size+0x7d>
    121b: 64 f3        	stz	$f3                     ; 0xf3 <__pal_size+0x73>
    121d: 86 f5        	stx	$f5                     ; 0xf5 <__pal_size+0x75>
    121f: a2 82        	ldx	#$82
    1221: 86 12        	stx	$12                     ; 0x12 <__rc2>
    1223: a2 00        	ldx	#$0
    1225: 86 13        	stx	$13                     ; 0x13 <__rc3>
    1227: 20 5c ff     	jsr	$ff5c <end_block9+0xc9d8>
    122a: 92 28        	sta	($28)                   ; 0x28 <__rc24>
    122c: a9 00        	lda	#$0
    122e: 6a           	ror
    122f: 85 12        	sta	$12                     ; 0x12 <__rc2>
    1231: a6 82        	ldx	$82                     ; 0x82 <kernelError>
    1233: a0 00        	ldy	#$0
    1235: 84 26        	sty	$26                     ; 0x26 <__rc22>
    1237: a0 00        	ldy	#$0
    1239: 84 27        	sty	$27                     ; 0x27 <__rc23>
    123b: 8a           	txa
    123c: d0 03        	bne	$1241 <main+0xd29>
    123e: 4c bd 15     	jmp	$15bd <main+0x10a5>
    1241: a6 26        	ldx	$26                     ; 0x26 <__rc22>
    1243: a4 27        	ldy	$27                     ; 0x27 <__rc23>
    1245: 86 79        	stx	$79                     ; 0x79 <theFile>
    1247: 84 7a        	sty	$7a                     ; 0x7a <theFile+0x1>
    1249: 64 87        	stz	$87                     ; 0x87 <gd3Location>
    124b: 64 88        	stz	$88                     ; 0x88 <gd3Location+0x1>
    124d: 64 89        	stz	$89                     ; 0x89 <gd3Location+0x2>
    124f: 64 8a        	stz	$8a                     ; 0x8a <gd3Location+0x3>
    1251: a2 10        	ldx	#$10
    1253: 86 2d        	stx	$2d                     ; 0x2d <__rc29>
    1255: 64 2e        	stz	$2e                     ; 0x2e <__rc30>
    1257: 64 2c        	stz	$2c                     ; 0x2c <__rc28>
    1259: 80 16        	bra	$1271 <main+0xd59>
    125b: a2 05        	ldx	#$5
    125d: 8e 82 d5     	stx	$d582                   ; 0xd582 <end_block9+0x9ffe>
    1260: a2 01        	ldx	#$1
    1262: 8e 81 d5     	stx	$d581                   ; 0xd581 <end_block9+0x9ffd>
    1265: a6 12        	ldx	$12                     ; 0x12 <__rc2>
    1267: e8           	inx
    1268: 86 2e        	stx	$2e                     ; 0x2e <__rc30>
    126a: e0 08        	cpx	#$8
    126c: d0 03        	bne	$1271 <main+0xd59>
    126e: 4c bd 13     	jmp	$13bd <main+0xea5>
    1271: a6 28        	ldx	$28                     ; 0x28 <__rc24>
    1273: 86 12        	stx	$12                     ; 0x12 <__rc2>
    1275: a6 29        	ldx	$29                     ; 0x29 <__rc25>
    1277: 86 13        	stx	$13                     ; 0x13 <__rc3>
    1279: a6 26        	ldx	$26                     ; 0x26 <__rc22>
    127b: 86 14        	stx	$14                     ; 0x14 <__rc4>
    127d: a6 27        	ldx	$27                     ; 0x27 <__rc23>
    127f: 86 15        	stx	$15                     ; 0x15 <__rc5>
    1281: a2 00        	ldx	#$0
    1283: a5 2d        	lda	$2d                     ; 0x2d <__rc29>
    1285: 20 9f 27     	jsr	$279f <fileRead>
    1288: a6 2e        	ldx	$2e                     ; 0x2e <__rc30>
    128a: 86 12        	stx	$12                     ; 0x12 <__rc2>
    128c: e0 06        	cpx	#$6
    128e: b0 d5        	bcs	$1265 <main+0xd4d>
    1290: 8a           	txa
    1291: 0a           	asl
    1292: aa           	tax
    1293: 7c 9d 30     	jmp	($309d,x)               ; 0x309d <__BLOCK_SIZE+0x109d>
    1296: 18           	clc
    1297: a5 10        	lda	$10                     ; 0x10 <__rc0>
    1299: 69 10        	adc	#$10
    129b: 48           	pha
    129c: a5 11        	lda	$11                     ; 0x11 <__rc1>
    129e: 69 00        	adc	#$0
    12a0: a8           	tay
    12a1: 68           	pla
    12a2: aa           	tax
    12a3: 18           	clc
    12a4: 69 08        	adc	#$8
    12a6: 85 12        	sta	$12                     ; 0x12 <__rc2>
    12a8: 84 14        	sty	$14                     ; 0x14 <__rc4>
    12aa: 98           	tya
    12ab: 69 00        	adc	#$0
    12ad: 85 13        	sta	$13                     ; 0x13 <__rc3>
    12af: a0 01        	ldy	#$1
    12b1: b1 12        	lda	($12),y                 ; 0x12 <__rc2>
    12b3: c9 01        	cmp	#$1
    12b5: f0 03        	beq	$12ba <main+0xda2>
    12b7: 4c a9 13     	jmp	$13a9 <main+0xe91>
    12ba: 86 12        	stx	$12                     ; 0x12 <__rc2>
    12bc: a6 14        	ldx	$14                     ; 0x14 <__rc4>
    12be: 86 13        	stx	$13                     ; 0x13 <__rc3>
    12c0: a0 08        	ldy	#$8
    12c2: b1 12        	lda	($12),y                 ; 0x12 <__rc2>
    12c4: c9 50        	cmp	#$50
    12c6: 4c ab 13     	jmp	$13ab <main+0xe93>
    12c9: a5 2c        	lda	$2c                     ; 0x2c <__rc28>
    12cb: f0 03        	beq	$12d0 <main+0xdb8>
    12cd: 4c 65 12     	jmp	$1265 <main+0xd4d>
    12d0: a9 34        	lda	#$34
    12d2: 18           	clc
    12d3: a0 04        	ldy	#$4
    12d5: 71 28        	adc	($28),y                 ; 0x28 <__rc24>
    12d7: a6 2e        	ldx	$2e                     ; 0x2e <__rc30>
    12d9: 86 12        	stx	$12                     ; 0x12 <__rc2>
    12db: 85 2c        	sta	$2c                     ; 0x2c <__rc28>
    12dd: 4c 65 12     	jmp	$1265 <main+0xd4d>
    12e0: 18           	clc
    12e1: a5 10        	lda	$10                     ; 0x10 <__rc0>
    12e3: 69 10        	adc	#$10
    12e5: aa           	tax
    12e6: a0 01        	ldy	#$1
    12e8: b0 02        	bcs	$12ec <main+0xdd4>
    12ea: a0 00        	ldy	#$0
    12ec: 84 14        	sty	$14                     ; 0x14 <__rc4>
    12ee: 18           	clc
    12ef: a5 10        	lda	$10                     ; 0x10 <__rc0>
    12f1: 69 10        	adc	#$10
    12f3: 48           	pha
    12f4: a5 11        	lda	$11                     ; 0x11 <__rc1>
    12f6: 69 00        	adc	#$0
    12f8: a8           	tay
    12f9: 68           	pla
    12fa: 85 12        	sta	$12                     ; 0x12 <__rc2>
    12fc: 84 13        	sty	$13                     ; 0x13 <__rc3>
    12fe: 18           	clc
    12ff: 69 04        	adc	#$4
    1301: 85 17        	sta	$17                     ; 0x17 <__rc7>
    1303: 98           	tya
    1304: 69 00        	adc	#$0
    1306: a4 14        	ldy	$14                     ; 0x14 <__rc4>
    1308: c0 01        	cpy	#$1
    130a: 48           	pha
    130b: a5 11        	lda	$11                     ; 0x11 <__rc1>
    130d: 69 00        	adc	#$0
    130f: 85 16        	sta	$16                     ; 0x16 <__rc6>
    1311: 68           	pla
    1312: a4 17        	ldy	$17                     ; 0x17 <__rc7>
    1314: 84 14        	sty	$14                     ; 0x14 <__rc4>
    1316: 85 15        	sta	$15                     ; 0x15 <__rc5>
    1318: a0 04        	ldy	#$4
    131a: b1 12        	lda	($12),y                 ; 0x12 <__rc2>
    131c: 85 87        	sta	$87                     ; 0x87 <gd3Location>
    131e: a0 01        	ldy	#$1
    1320: b1 14        	lda	($14),y                 ; 0x14 <__rc4>
    1322: 84 17        	sty	$17                     ; 0x17 <__rc7>
    1324: 85 88        	sta	$88                     ; 0x88 <gd3Location+0x1>
    1326: c8           	iny
    1327: b1 14        	lda	($14),y                 ; 0x14 <__rc4>
    1329: 84 18        	sty	$18                     ; 0x18 <__rc8>
    132b: 85 89        	sta	$89                     ; 0x89 <gd3Location+0x2>
    132d: c8           	iny
    132e: b1 14        	lda	($14),y                 ; 0x14 <__rc4>
    1330: 84 19        	sty	$19                     ; 0x19 <__rc9>
    1332: 85 8a        	sta	$8a                     ; 0x8a <gd3Location+0x3>
    1334: 18           	clc
    1335: 8a           	txa
    1336: 69 0c        	adc	#$c
    1338: 85 14        	sta	$14                     ; 0x14 <__rc4>
    133a: a5 16        	lda	$16                     ; 0x16 <__rc6>
    133c: 69 00        	adc	#$0
    133e: 85 15        	sta	$15                     ; 0x15 <__rc5>
    1340: a0 0c        	ldy	#$c
    1342: b1 12        	lda	($12),y                 ; 0x12 <__rc2>
    1344: 85 8b        	sta	$8b                     ; 0x8b <loopBackTo>
    1346: a4 17        	ldy	$17                     ; 0x17 <__rc7>
    1348: b1 14        	lda	($14),y                 ; 0x14 <__rc4>
    134a: 85 8c        	sta	$8c                     ; 0x8c <loopBackTo+0x1>
    134c: a4 18        	ldy	$18                     ; 0x18 <__rc8>
    134e: b1 14        	lda	($14),y                 ; 0x14 <__rc4>
    1350: a6 2e        	ldx	$2e                     ; 0x2e <__rc30>
    1352: 86 12        	stx	$12                     ; 0x12 <__rc2>
    1354: 85 8d        	sta	$8d                     ; 0x8d <loopBackTo+0x2>
    1356: a4 19        	ldy	$19                     ; 0x19 <__rc9>
    1358: b1 14        	lda	($14),y                 ; 0x14 <__rc4>
    135a: 85 8e        	sta	$8e                     ; 0x8e <loopBackTo+0x3>
    135c: 4c 65 12     	jmp	$1265 <main+0xd4d>
    135f: b2 28        	lda	($28)                   ; 0x28 <__rc24>
    1361: d0 17        	bne	$137a <main+0xe62>
    1363: a0 01        	ldy	#$1
    1365: b1 28        	lda	($28),y                 ; 0x28 <__rc24>
    1367: a6 2e        	ldx	$2e                     ; 0x2e <__rc30>
    1369: 86 12        	stx	$12                     ; 0x12 <__rc2>
    136b: aa           	tax
    136c: d0 0c        	bne	$137a <main+0xe62>
    136e: a0 02        	ldy	#$2
    1370: b1 28        	lda	($28),y                 ; 0x28 <__rc24>
    1372: d0 06        	bne	$137a <main+0xe62>
    1374: a0 03        	ldy	#$3
    1376: b1 28        	lda	($28),y                 ; 0x28 <__rc24>
    1378: f0 08        	beq	$1382 <main+0xe6a>
    137a: a2 05        	ldx	#$5
    137c: 8e 82 d5     	stx	$d582                   ; 0xd582 <end_block9+0x9ffe>
    137f: 9c 81 d5     	stz	$d581                   ; 0xd581 <end_block9+0x9ffd>
    1382: a0 0c        	ldy	#$c
    1384: b1 28        	lda	($28),y                 ; 0x28 <__rc24>
    1386: f0 03        	beq	$138b <main+0xe73>
    1388: 4c 5b 12     	jmp	$125b <main+0xd43>
    138b: a0 0d        	ldy	#$d
    138d: b1 28        	lda	($28),y                 ; 0x28 <__rc24>
    138f: f0 03        	beq	$1394 <main+0xe7c>
    1391: 4c 5b 12     	jmp	$125b <main+0xd43>
    1394: a0 0e        	ldy	#$e
    1396: b1 28        	lda	($28),y                 ; 0x28 <__rc24>
    1398: f0 03        	beq	$139d <main+0xe85>
    139a: 4c 5b 12     	jmp	$125b <main+0xd43>
    139d: a0 0f        	ldy	#$f
    139f: b1 28        	lda	($28),y                 ; 0x28 <__rc24>
    13a1: f0 03        	beq	$13a6 <main+0xe8e>
    13a3: 4c 5b 12     	jmp	$125b <main+0xd43>
    13a6: 4c 65 12     	jmp	$1265 <main+0xd4d>
    13a9: c9 01        	cmp	#$1
    13ab: a2 40        	ldx	#$40
    13ad: 86 2c        	stx	$2c                     ; 0x2c <__rc28>
    13af: a6 2e        	ldx	$2e                     ; 0x2e <__rc30>
    13b1: 86 12        	stx	$12                     ; 0x12 <__rc2>
    13b3: b0 03        	bcs	$13b8 <main+0xea0>
    13b5: 4c 65 12     	jmp	$1265 <main+0xd4d>
    13b8: 64 2c        	stz	$2c                     ; 0x2c <__rc28>
    13ba: 4c 65 12     	jmp	$1265 <main+0xd4d>
    13bd: b2 26        	lda	($26)                   ; 0x26 <__rc22>
    13bf: 85 f3        	sta	$f3                     ; 0xf3 <__pal_size+0x73>
    13c1: a6 2c        	ldx	$2c                     ; 0x2c <__rc28>
    13c3: 86 f4        	stx	$f4                     ; 0xf4 <__pal_size+0x74>
    13c5: 64 f5        	stz	$f5                     ; 0xf5 <__pal_size+0x75>
    13c7: 64 f6        	stz	$f6                     ; 0xf6 <__pal_size+0x76>
    13c9: 64 f7        	stz	$f7                     ; 0xf7 <__pal_size+0x77>
    13cb: a2 82        	ldx	#$82
    13cd: 86 12        	stx	$12                     ; 0x12 <__rc2>
    13cf: a2 00        	ldx	#$0
    13d1: 86 13        	stx	$13                     ; 0x13 <__rc3>
    13d3: 20 74 ff     	jsr	$ff74 <end_block9+0xc9f0>
    13d6: 92 2a        	sta	($2a)                   ; 0x2a <__rc26>
    13d8: a9 00        	lda	#$0
    13da: 6a           	ror
    13db: 85 12        	sta	$12                     ; 0x12 <__rc2>
    13dd: a6 26        	ldx	$26                     ; 0x26 <__rc22>
    13df: 86 12        	stx	$12                     ; 0x12 <__rc2>
    13e1: a6 27        	ldx	$27                     ; 0x27 <__rc23>
    13e3: 86 13        	stx	$13                     ; 0x13 <__rc3>
    13e5: 20 43 2d     	jsr	$2d43 <copyToRAM>
    13e8: 64 8f        	stz	$8f                     ; 0x8f <needle>
    13ea: 64 90        	stz	$90                     ; 0x90 <needle+0x1>
    13ec: a2 10        	ldx	#$10
    13ee: 86 91        	stx	$91                     ; 0x91 <needle+0x2>
    13f0: 64 92        	stz	$92                     ; 0x92 <needle+0x3>
    13f2: a6 8b        	ldx	$8b                     ; 0x8b <loopBackTo>
    13f4: 86 16        	stx	$16                     ; 0x16 <__rc6>
    13f6: a5 8c        	lda	$8c                     ; 0x8c <loopBackTo+0x1>
    13f8: a4 8d        	ldy	$8d                     ; 0x8d <loopBackTo+0x2>
    13fa: a6 8e        	ldx	$8e                     ; 0x8e <loopBackTo+0x3>
    13fc: d0 0e        	bne	$140c <main+0xef4>
    13fe: c0 00        	cpy	#$0
    1400: d0 0a        	bne	$140c <main+0xef4>
    1402: c9 00        	cmp	#$0
    1404: d0 06        	bne	$140c <main+0xef4>
    1406: e6 16        	inc	$16                     ; 0x16 <__rc6>
    1408: c6 16        	dec	$16                     ; 0x16 <__rc6>
    140a: f0 40        	beq	$144c <main+0xf34>
    140c: 84 12        	sty	$12                     ; 0x12 <__rc2>
    140e: 85 13        	sta	$13                     ; 0x13 <__rc3>
    1410: 86 15        	stx	$15                     ; 0x15 <__rc5>
    1412: 38           	sec
    1413: a5 16        	lda	$16                     ; 0x16 <__rc6>
    1415: e5 2c        	sbc	$2c                     ; 0x2c <__rc28>
    1417: aa           	tax
    1418: a5 13        	lda	$13                     ; 0x13 <__rc3>
    141a: e9 00        	sbc	#$0
    141c: a8           	tay
    141d: a5 12        	lda	$12                     ; 0x12 <__rc2>
    141f: e9 00        	sbc	#$0
    1421: 85 13        	sta	$13                     ; 0x13 <__rc3>
    1423: a5 15        	lda	$15                     ; 0x15 <__rc5>
    1425: e9 00        	sbc	#$0
    1427: 85 15        	sta	$15                     ; 0x15 <__rc5>
    1429: 18           	clc
    142a: 8a           	txa
    142b: 69 00        	adc	#$0
    142d: 85 12        	sta	$12                     ; 0x12 <__rc2>
    142f: 98           	tya
    1430: 69 00        	adc	#$0
    1432: 85 14        	sta	$14                     ; 0x14 <__rc4>
    1434: a5 13        	lda	$13                     ; 0x13 <__rc3>
    1436: 69 10        	adc	#$10
    1438: 85 13        	sta	$13                     ; 0x13 <__rc3>
    143a: a5 15        	lda	$15                     ; 0x15 <__rc5>
    143c: 69 00        	adc	#$0
    143e: a6 12        	ldx	$12                     ; 0x12 <__rc2>
    1440: 86 8b        	stx	$8b                     ; 0x8b <loopBackTo>
    1442: a6 14        	ldx	$14                     ; 0x14 <__rc4>
    1444: 86 8c        	stx	$8c                     ; 0x8c <loopBackTo+0x1>
    1446: a6 13        	ldx	$13                     ; 0x13 <__rc3>
    1448: 86 8d        	stx	$8d                     ; 0x8d <loopBackTo+0x2>
    144a: 85 8e        	sta	$8e                     ; 0x8e <loopBackTo+0x3>
    144c: a6 87        	ldx	$87                     ; 0x87 <gd3Location>
    144e: 86 16        	stx	$16                     ; 0x16 <__rc6>
    1450: a6 88        	ldx	$88                     ; 0x88 <gd3Location+0x1>
    1452: a4 89        	ldy	$89                     ; 0x89 <gd3Location+0x2>
    1454: a5 8a        	lda	$8a                     ; 0x8a <gd3Location+0x3>
    1456: d0 0e        	bne	$1466 <main+0xf4e>
    1458: c0 00        	cpy	#$0
    145a: d0 0a        	bne	$1466 <main+0xf4e>
    145c: e0 00        	cpx	#$0
    145e: d0 06        	bne	$1466 <main+0xf4e>
    1460: e6 16        	inc	$16                     ; 0x16 <__rc6>
    1462: c6 16        	dec	$16                     ; 0x16 <__rc6>
    1464: f0 40        	beq	$14a6 <main+0xf8e>
    1466: 86 12        	stx	$12                     ; 0x12 <__rc2>
    1468: 84 13        	sty	$13                     ; 0x13 <__rc3>
    146a: 85 14        	sta	$14                     ; 0x14 <__rc4>
    146c: 38           	sec
    146d: a5 16        	lda	$16                     ; 0x16 <__rc6>
    146f: e5 2c        	sbc	$2c                     ; 0x2c <__rc28>
    1471: aa           	tax
    1472: a5 12        	lda	$12                     ; 0x12 <__rc2>
    1474: e9 00        	sbc	#$0
    1476: a8           	tay
    1477: a5 13        	lda	$13                     ; 0x13 <__rc3>
    1479: e9 00        	sbc	#$0
    147b: 85 13        	sta	$13                     ; 0x13 <__rc3>
    147d: a5 14        	lda	$14                     ; 0x14 <__rc4>
    147f: e9 00        	sbc	#$0
    1481: 85 15        	sta	$15                     ; 0x15 <__rc5>
    1483: 18           	clc
    1484: 8a           	txa
    1485: 69 14        	adc	#$14
    1487: 85 12        	sta	$12                     ; 0x12 <__rc2>
    1489: 98           	tya
    148a: 69 00        	adc	#$0
    148c: 85 14        	sta	$14                     ; 0x14 <__rc4>
    148e: a5 13        	lda	$13                     ; 0x13 <__rc3>
    1490: 69 10        	adc	#$10
    1492: 85 13        	sta	$13                     ; 0x13 <__rc3>
    1494: a5 15        	lda	$15                     ; 0x15 <__rc5>
    1496: 69 00        	adc	#$0
    1498: a6 12        	ldx	$12                     ; 0x12 <__rc2>
    149a: 86 87        	stx	$87                     ; 0x87 <gd3Location>
    149c: a6 14        	ldx	$14                     ; 0x14 <__rc4>
    149e: 86 88        	stx	$88                     ; 0x88 <gd3Location+0x1>
    14a0: a6 13        	ldx	$13                     ; 0x13 <__rc3>
    14a2: 86 89        	stx	$89                     ; 0x89 <gd3Location+0x2>
    14a4: 85 8a        	sta	$8a                     ; 0x8a <gd3Location+0x3>
    14a6: 64 93        	stz	$93                     ; 0x93 <samplesSoFar>
    14a8: 64 94        	stz	$94                     ; 0x94 <samplesSoFar+0x1>
    14aa: 64 95        	stz	$95                     ; 0x95 <samplesSoFar+0x2>
    14ac: 64 96        	stz	$96                     ; 0x96 <samplesSoFar+0x3>
    14ae: b2 26        	lda	($26)                   ; 0x26 <__rc22>
    14b0: 85 f3        	sta	$f3                     ; 0xf3 <__pal_size+0x73>
    14b2: a2 82        	ldx	#$82
    14b4: 86 14        	stx	$14                     ; 0x14 <__rc4>
    14b6: a2 00        	ldx	#$0
    14b8: 86 15        	stx	$15                     ; 0x15 <__rc5>
    14ba: a5 26        	lda	$26                     ; 0x26 <__rc22>
    14bc: 18           	clc
    14bd: 69 fe        	adc	#$fe
    14bf: 85 16        	sta	$16                     ; 0x16 <__rc6>
    14c1: a5 27        	lda	$27                     ; 0x27 <__rc23>
    14c3: 69 ff        	adc	#$ff
    14c5: a6 16        	ldx	$16                     ; 0x16 <__rc6>
    14c7: 86 12        	stx	$12                     ; 0x12 <__rc2>
    14c9: aa           	tax
    14ca: 85 13        	sta	$13                     ; 0x13 <__rc3>
    14cc: 20 68 ff     	jsr	$ff68 <end_block9+0xc9e4>
    14cf: 92 2a        	sta	($2a)                   ; 0x2a <__rc26>
    14d1: a9 00        	lda	#$0
    14d3: 6a           	ror
    14d4: 85 14        	sta	$14                     ; 0x14 <__rc4>
    14d6: b2 12        	lda	($12)                   ; 0x12 <__rc2>
    14d8: 85 1c        	sta	$1c                     ; 0x1c <__rc12>
    14da: a0 01        	ldy	#$1
    14dc: b1 12        	lda	($12),y                 ; 0x12 <__rc2>
    14de: 85 14        	sta	$14                     ; 0x14 <__rc4>
    14e0: a9 fe        	lda	#$fe
    14e2: 32 12        	and	($12)                   ; 0x12 <__rc2>
    14e4: 85 15        	sta	$15                     ; 0x15 <__rc5>
    14e6: a4 16        	ldy	$16                     ; 0x16 <__rc6>
    14e8: 84 1b        	sty	$1b                     ; 0x1b <__rc11>
    14ea: a5 16        	lda	$16                     ; 0x16 <__rc6>
    14ec: 18           	clc
    14ed: 65 15        	adc	$15                     ; 0x15 <__rc5>
    14ef: a8           	tay
    14f0: 8a           	txa
    14f1: 86 1a        	stx	$1a                     ; 0x1a <__rc10>
    14f3: 65 14        	adc	$14                     ; 0x14 <__rc4>
    14f5: c5 24        	cmp	$24                     ; 0x24 <__rc20>
    14f7: d0 1f        	bne	$1518 <main+0x1000>
    14f9: 48           	pha
    14fa: 5a           	phy
    14fb: a0 08        	ldy	#$8
    14fd: b1 10        	lda	($10),y                 ; 0x10 <__rc0>
    14ff: 7a           	ply
    1500: 85 16        	sta	$16                     ; 0x16 <__rc6>
    1502: 68           	pla
    1503: c4 16        	cpy	$16                     ; 0x16 <__rc6>
    1505: d0 11        	bne	$1518 <main+0x1000>
    1507: a2 00        	ldx	#$0
    1509: 86 16        	stx	$16                     ; 0x16 <__rc6>
    150b: a2 00        	ldx	#$0
    150d: 86 17        	stx	$17                     ; 0x17 <__rc7>
    150f: a5 1c        	lda	$1c                     ; 0x1c <__rc12>
    1511: 29 01        	and	#$1
    1513: d0 10        	bne	$1525 <main+0x100d>
    1515: 4c 40 17     	jmp	$1740 <main+0x1228>
    1518: 84 16        	sty	$16                     ; 0x16 <__rc6>
    151a: 85 17        	sta	$17                     ; 0x17 <__rc7>
    151c: a5 1c        	lda	$1c                     ; 0x1c <__rc12>
    151e: 29 01        	and	#$1
    1520: d0 03        	bne	$1525 <main+0x100d>
    1522: 4c 40 17     	jmp	$1740 <main+0x1228>
    1525: a5 26        	lda	$26                     ; 0x26 <__rc22>
    1527: 18           	clc
    1528: 69 fc        	adc	#$fc
    152a: 85 12        	sta	$12                     ; 0x12 <__rc2>
    152c: a5 27        	lda	$27                     ; 0x27 <__rc23>
    152e: 69 ff        	adc	#$ff
    1530: 85 13        	sta	$13                     ; 0x13 <__rc3>
    1532: a0 01        	ldy	#$1
    1534: 38           	sec
    1535: a9 00        	lda	#$0
    1537: f2 12        	sbc	($12)                   ; 0x12 <__rc2>
    1539: 85 18        	sta	$18                     ; 0x18 <__rc8>
    153b: a9 00        	lda	#$0
    153d: f1 12        	sbc	($12),y                 ; 0x12 <__rc2>
    153f: 85 13        	sta	$13                     ; 0x13 <__rc3>
    1541: a5 1b        	lda	$1b                     ; 0x1b <__rc11>
    1543: 18           	clc
    1544: 65 18        	adc	$18                     ; 0x18 <__rc8>
    1546: 85 12        	sta	$12                     ; 0x12 <__rc2>
    1548: 85 1f        	sta	$1f                     ; 0x1f <__rc15>
    154a: a5 1a        	lda	$1a                     ; 0x1a <__rc10>
    154c: 65 13        	adc	$13                     ; 0x13 <__rc3>
    154e: 85 13        	sta	$13                     ; 0x13 <__rc3>
    1550: 85 19        	sta	$19                     ; 0x19 <__rc9>
    1552: b1 12        	lda	($12),y                 ; 0x12 <__rc2>
    1554: 85 1b        	sta	$1b                     ; 0x1b <__rc11>
    1556: a2 01        	ldx	#$1
    1558: 86 1e        	stx	$1e                     ; 0x1e <__rc14>
    155a: a9 fe        	lda	#$fe
    155c: 32 12        	and	($12)                   ; 0x12 <__rc2>
    155e: a6 9a        	ldx	$9a                     ; 0x9a <_ZN12_GLOBAL__N_19free_sizeE>
    1560: 85 1d        	sta	$1d                     ; 0x1d <__rc13>
    1562: 85 18        	sta	$18                     ; 0x18 <__rc8>
    1564: 38           	sec
    1565: 8a           	txa
    1566: e5 18        	sbc	$18                     ; 0x18 <__rc8>
    1568: 85 1a        	sta	$1a                     ; 0x1a <__rc10>
    156a: a6 1b        	ldx	$1b                     ; 0x1b <__rc11>
    156c: 86 1c        	stx	$1c                     ; 0x1c <__rc12>
    156e: 86 18        	stx	$18                     ; 0x18 <__rc8>
    1570: a5 9b        	lda	$9b                     ; 0x9b <_ZN12_GLOBAL__N_19free_sizeE+0x1>
    1572: e5 18        	sbc	$18                     ; 0x18 <__rc8>
    1574: aa           	tax
    1575: 18           	clc
    1576: a5 1a        	lda	$1a                     ; 0x1a <__rc10>
    1578: 69 02        	adc	#$2
    157a: 85 18        	sta	$18                     ; 0x18 <__rc8>
    157c: 8a           	txa
    157d: 69 00        	adc	#$0
    157f: a6 18        	ldx	$18                     ; 0x18 <__rc8>
    1581: 86 9a        	stx	$9a                     ; 0x9a <_ZN12_GLOBAL__N_19free_sizeE>
    1583: 85 9b        	sta	$9b                     ; 0x9b <_ZN12_GLOBAL__N_19free_sizeE+0x1>
    1585: a6 1f        	ldx	$1f                     ; 0x1f <__rc15>
    1587: 86 1b        	stx	$1b                     ; 0x1b <__rc11>
    1589: a5 1f        	lda	$1f                     ; 0x1f <__rc15>
    158b: 18           	clc
    158c: 69 02        	adc	#$2
    158e: 85 18        	sta	$18                     ; 0x18 <__rc8>
    1590: a6 19        	ldx	$19                     ; 0x19 <__rc9>
    1592: 86 1a        	stx	$1a                     ; 0x1a <__rc10>
    1594: a5 19        	lda	$19                     ; 0x19 <__rc9>
    1596: 69 00        	adc	#$0
    1598: c8           	iny
    1599: 85 19        	sta	$19                     ; 0x19 <__rc9>
    159b: b1 12        	lda	($12),y                 ; 0x12 <__rc2>
    159d: aa           	tax
    159e: a4 1e        	ldy	$1e                     ; 0x1e <__rc14>
    15a0: b1 18        	lda	($18),y                 ; 0x18 <__rc8>
    15a2: 85 1f        	sta	$1f                     ; 0x1f <__rc15>
    15a4: c5 13        	cmp	$13                     ; 0x13 <__rc3>
    15a6: f0 03        	beq	$15ab <main+0x1093>
    15a8: 4c 9d 16     	jmp	$169d <main+0x1185>
    15ab: e4 12        	cpx	$12                     ; 0x12 <__rc2>
    15ad: f0 03        	beq	$15b2 <main+0x109a>
    15af: 4c 9d 16     	jmp	$169d <main+0x1185>
    15b2: a2 00        	ldx	#$0
    15b4: 86 18        	stx	$18                     ; 0x18 <__rc8>
    15b6: a2 00        	ldx	#$0
    15b8: 86 19        	stx	$19                     ; 0x19 <__rc9>
    15ba: 4c 2b 17     	jmp	$172b <main+0x1213>
    15bd: b2 28        	lda	($28)                   ; 0x28 <__rc24>
    15bf: 85 2e        	sta	$2e                     ; 0x2e <__rc30>
    15c1: a2 82        	ldx	#$82
    15c3: 86 12        	stx	$12                     ; 0x12 <__rc2>
    15c5: a2 00        	ldx	#$0
    15c7: 86 13        	stx	$13                     ; 0x13 <__rc3>
    15c9: 64 7b        	stz	$7b                     ; 0x7b <kernelEventData>
    15cb: 20 00 ff     	jsr	$ff00 <end_block9+0xc97c>
    15ce: 92 28        	sta	($28)                   ; 0x28 <__rc24>
    15d0: a9 00        	lda	#$0
    15d2: 6a           	ror
    15d3: 85 12        	sta	$12                     ; 0x12 <__rc2>
    15d5: a6 7b        	ldx	$7b                     ; 0x7b <kernelEventData>
    15d7: e0 28        	cpx	#$28
    15d9: d0 03        	bne	$15de <main+0x10c6>
    15db: 4c 41 12     	jmp	$1241 <main+0xd29>
    15de: e0 38        	cpx	#$38
    15e0: d0 03        	bne	$15e5 <main+0x10cd>
    15e2: 4c 41 12     	jmp	$1241 <main+0xd29>
    15e5: e0 2a        	cpx	#$2a
    15e7: d0 e0        	bne	$15c9 <main+0x10b1>
    15e9: a5 98        	lda	$98                     ; 0x98 <_ZN12_GLOBAL__N_111initializedE>
    15eb: 29 01        	and	#$1
    15ed: a6 9c        	ldx	$9c                     ; 0x9c <_ZN12_GLOBAL__N_19free_listE>
    15ef: a4 9d        	ldy	$9d                     ; 0x9d <_ZN12_GLOBAL__N_19free_listE+0x1>
    15f1: 86 12        	stx	$12                     ; 0x12 <__rc2>
    15f3: 84 13        	sty	$13                     ; 0x13 <__rc3>
    15f5: c9 00        	cmp	#$0
    15f7: f0 03        	beq	$15fc <main+0x10e4>
    15f9: 4c e6 1a     	jmp	$1ae6 <main+0x15ce>
    15fc: 86 16        	stx	$16                     ; 0x16 <__rc6>
    15fe: a2 10        	ldx	#$10
    1600: 86 14        	stx	$14                     ; 0x14 <__rc4>
    1602: a9 00        	lda	#$0
    1604: 29 fe        	and	#$fe
    1606: 85 15        	sta	$15                     ; 0x15 <__rc5>
    1608: a9 01        	lda	#$1
    160a: 2d 84 35     	and	$3584                   ; 0x3584 <end_block9>
    160d: 05 15        	ora	$15                     ; 0x15 <__rc5>
    160f: 8d 84 35     	sta	$3584                   ; 0x3584 <end_block9>
    1612: 8e 85 35     	stx	$3585                   ; 0x3585 <end_block9+0x1>
    1615: a9 84        	lda	#$84
    1617: 18           	clc
    1618: 65 15        	adc	$15                     ; 0x15 <__rc5>
    161a: aa           	tax
    161b: a9 35        	lda	#$35
    161d: 65 14        	adc	$14                     ; 0x14 <__rc4>
    161f: 85 14        	sta	$14                     ; 0x14 <__rc4>
    1621: 18           	clc
    1622: 8a           	txa
    1623: 69 fe        	adc	#$fe
    1625: aa           	tax
    1626: a5 14        	lda	$14                     ; 0x14 <__rc4>
    1628: 69 ff        	adc	#$ff
    162a: 85 15        	sta	$15                     ; 0x15 <__rc5>
    162c: 86 14        	stx	$14                     ; 0x14 <__rc4>
    162e: a9 00        	lda	#$0
    1630: 92 14        	sta	($14)                   ; 0x14 <__rc4>
    1632: 5a           	phy
    1633: fa           	plx
    1634: a0 01        	ldy	#$1
    1636: a9 10        	lda	#$10
    1638: 91 14        	sta	($14),y                 ; 0x14 <__rc4>
    163a: ac 85 35     	ldy	$3585                   ; 0x3585 <end_block9+0x1>
    163d: 84 19        	sty	$19                     ; 0x19 <__rc9>
    163f: a9 fe        	lda	#$fe
    1641: 2d 84 35     	and	$3584                   ; 0x3584 <end_block9>
    1644: a4 9b        	ldy	$9b                     ; 0x9b <_ZN12_GLOBAL__N_19free_sizeE+0x1>
    1646: 84 14        	sty	$14                     ; 0x14 <__rc4>
    1648: 85 18        	sta	$18                     ; 0x18 <__rc8>
    164a: 18           	clc
    164b: 65 9a        	adc	$9a                     ; 0x9a <_ZN12_GLOBAL__N_19free_sizeE>
    164d: a8           	tay
    164e: a5 14        	lda	$14                     ; 0x14 <__rc4>
    1650: 6d 85 35     	adc	$3585                   ; 0x3585 <end_block9+0x1>
    1653: 85 14        	sta	$14                     ; 0x14 <__rc4>
    1655: 18           	clc
    1656: 98           	tya
    1657: 69 fe        	adc	#$fe
    1659: 85 15        	sta	$15                     ; 0x15 <__rc5>
    165b: a5 14        	lda	$14                     ; 0x14 <__rc4>
    165d: 69 ff        	adc	#$ff
    165f: a4 15        	ldy	$15                     ; 0x15 <__rc5>
    1661: 84 9a        	sty	$9a                     ; 0x9a <_ZN12_GLOBAL__N_19free_sizeE>
    1663: 85 9b        	sta	$9b                     ; 0x9b <_ZN12_GLOBAL__N_19free_sizeE+0x1>
    1665: a0 00        	ldy	#$0
    1667: 84 14        	sty	$14                     ; 0x14 <__rc4>
    1669: a0 00        	ldy	#$0
    166b: 84 15        	sty	$15                     ; 0x15 <__rc5>
    166d: 8a           	txa
    166e: e4 15        	cpx	$15                     ; 0x15 <__rc5>
    1670: f0 03        	beq	$1675 <main+0x115d>
    1672: 4c 69 1a     	jmp	$1a69 <main+0x1551>
    1675: a6 16        	ldx	$16                     ; 0x16 <__rc6>
    1677: e4 14        	cpx	$14                     ; 0x14 <__rc4>
    1679: f0 03        	beq	$167e <main+0x1166>
    167b: 4c 69 1a     	jmp	$1a69 <main+0x1551>
    167e: a2 84        	ldx	#$84
    1680: a9 35        	lda	#$35
    1682: a0 84        	ldy	#$84
    1684: 84 12        	sty	$12                     ; 0x12 <__rc2>
    1686: a0 35        	ldy	#$35
    1688: 84 13        	sty	$13                     ; 0x13 <__rc3>
    168a: 8e 88 35     	stx	$3588                   ; 0x3588 <end_block9+0x4>
    168d: 8d 89 35     	sta	$3589                   ; 0x3589 <end_block9+0x5>
    1690: 8e 86 35     	stx	$3586                   ; 0x3586 <end_block9+0x2>
    1693: 8d 87 35     	sta	$3587                   ; 0x3587 <end_block9+0x3>
    1696: 86 9c        	stx	$9c                     ; 0x9c <_ZN12_GLOBAL__N_19free_listE>
    1698: 85 9d        	sta	$9d                     ; 0x9d <_ZN12_GLOBAL__N_19free_listE+0x1>
    169a: 4c d6 1a     	jmp	$1ad6 <main+0x15be>
    169d: 86 1e        	stx	$1e                     ; 0x1e <__rc14>
    169f: a5 1b        	lda	$1b                     ; 0x1b <__rc11>
    16a1: a6 1b        	ldx	$1b                     ; 0x1b <__rc11>
    16a3: 86 23        	stx	$23                     ; 0x23 <__rc19>
    16a5: 18           	clc
    16a6: 69 04        	adc	#$4
    16a8: 85 18        	sta	$18                     ; 0x18 <__rc8>
    16aa: a6 1a        	ldx	$1a                     ; 0x1a <__rc10>
    16ac: 86 25        	stx	$25                     ; 0x25 <__rc21>
    16ae: a5 1a        	lda	$1a                     ; 0x1a <__rc10>
    16b0: 69 00        	adc	#$0
    16b2: a0 04        	ldy	#$4
    16b4: 85 19        	sta	$19                     ; 0x19 <__rc9>
    16b6: b1 12        	lda	($12),y                 ; 0x12 <__rc2>
    16b8: 85 26        	sta	$26                     ; 0x26 <__rc22>
    16ba: a2 04        	ldx	#$4
    16bc: 86 22        	stx	$22                     ; 0x22 <__rc18>
    16be: 18           	clc
    16bf: 69 02        	adc	#$2
    16c1: 85 1a        	sta	$1a                     ; 0x1a <__rc10>
    16c3: a0 01        	ldy	#$1
    16c5: b1 18        	lda	($18),y                 ; 0x18 <__rc8>
    16c7: aa           	tax
    16c8: 84 27        	sty	$27                     ; 0x27 <__rc23>
    16ca: 69 00        	adc	#$0
    16cc: a4 1a        	ldy	$1a                     ; 0x1a <__rc10>
    16ce: 84 18        	sty	$18                     ; 0x18 <__rc8>
    16d0: 85 19        	sta	$19                     ; 0x19 <__rc9>
    16d2: a4 26        	ldy	$26                     ; 0x26 <__rc22>
    16d4: 84 1a        	sty	$1a                     ; 0x1a <__rc10>
    16d6: 86 1b        	stx	$1b                     ; 0x1b <__rc11>
    16d8: a5 1e        	lda	$1e                     ; 0x1e <__rc14>
    16da: a0 02        	ldy	#$2
    16dc: 91 1a        	sta	($1a),y                 ; 0x1a <__rc10>
    16de: 84 1a        	sty	$1a                     ; 0x1a <__rc10>
    16e0: a5 1f        	lda	$1f                     ; 0x1f <__rc15>
    16e2: a4 27        	ldy	$27                     ; 0x27 <__rc23>
    16e4: 91 18        	sta	($18),y                 ; 0x18 <__rc8>
    16e6: 18           	clc
    16e7: a5 23        	lda	$23                     ; 0x23 <__rc19>
    16e9: 69 02        	adc	#$2
    16eb: 85 18        	sta	$18                     ; 0x18 <__rc8>
    16ed: a5 25        	lda	$25                     ; 0x25 <__rc21>
    16ef: 69 00        	adc	#$0
    16f1: 85 19        	sta	$19                     ; 0x19 <__rc9>
    16f3: a4 1a        	ldy	$1a                     ; 0x1a <__rc10>
    16f5: b1 12        	lda	($12),y                 ; 0x12 <__rc2>
    16f7: 85 1a        	sta	$1a                     ; 0x1a <__rc10>
    16f9: a4 27        	ldy	$27                     ; 0x27 <__rc23>
    16fb: b1 18        	lda	($18),y                 ; 0x18 <__rc8>
    16fd: 84 1e        	sty	$1e                     ; 0x1e <__rc14>
    16ff: a4 1a        	ldy	$1a                     ; 0x1a <__rc10>
    1701: 84 18        	sty	$18                     ; 0x18 <__rc8>
    1703: 85 19        	sta	$19                     ; 0x19 <__rc9>
    1705: 85 1b        	sta	$1b                     ; 0x1b <__rc11>
    1707: a4 22        	ldy	$22                     ; 0x22 <__rc18>
    1709: a5 26        	lda	$26                     ; 0x26 <__rc22>
    170b: 91 18        	sta	($18),y                 ; 0x18 <__rc8>
    170d: 18           	clc
    170e: a5 1a        	lda	$1a                     ; 0x1a <__rc10>
    1710: 69 04        	adc	#$4
    1712: 85 1a        	sta	$1a                     ; 0x1a <__rc10>
    1714: a5 1b        	lda	$1b                     ; 0x1b <__rc11>
    1716: 69 00        	adc	#$0
    1718: 85 1b        	sta	$1b                     ; 0x1b <__rc11>
    171a: 8a           	txa
    171b: a4 1e        	ldy	$1e                     ; 0x1e <__rc14>
    171d: 91 1a        	sta	($1a),y                 ; 0x1a <__rc10>
    171f: a6 9d        	ldx	$9d                     ; 0x9d <_ZN12_GLOBAL__N_19free_listE+0x1>
    1721: e4 13        	cpx	$13                     ; 0x13 <__rc3>
    1723: d0 0e        	bne	$1733 <main+0x121b>
    1725: a6 9c        	ldx	$9c                     ; 0x9c <_ZN12_GLOBAL__N_19free_listE>
    1727: e4 12        	cpx	$12                     ; 0x12 <__rc2>
    1729: d0 08        	bne	$1733 <main+0x121b>
    172b: a6 18        	ldx	$18                     ; 0x18 <__rc8>
    172d: a4 19        	ldy	$19                     ; 0x19 <__rc9>
    172f: 86 9c        	stx	$9c                     ; 0x9c <_ZN12_GLOBAL__N_19free_listE>
    1731: 84 9d        	sty	$9d                     ; 0x9d <_ZN12_GLOBAL__N_19free_listE+0x1>
    1733: 18           	clc
    1734: a5 1d        	lda	$1d                     ; 0x1d <__rc13>
    1736: 65 15        	adc	$15                     ; 0x15 <__rc5>
    1738: 85 15        	sta	$15                     ; 0x15 <__rc5>
    173a: a5 1c        	lda	$1c                     ; 0x1c <__rc12>
    173c: 65 14        	adc	$14                     ; 0x14 <__rc4>
    173e: 85 14        	sta	$14                     ; 0x14 <__rc4>
    1740: a2 00        	ldx	#$0
    1742: 86 18        	stx	$18                     ; 0x18 <__rc8>
    1744: a2 00        	ldx	#$0
    1746: 86 19        	stx	$19                     ; 0x19 <__rc9>
    1748: a6 17        	ldx	$17                     ; 0x17 <__rc7>
    174a: e4 19        	cpx	$19                     ; 0x19 <__rc9>
    174c: d0 0c        	bne	$175a <main+0x1242>
    174e: a6 16        	ldx	$16                     ; 0x16 <__rc6>
    1750: e4 18        	cpx	$18                     ; 0x18 <__rc8>
    1752: d0 06        	bne	$175a <main+0x1242>
    1754: a2 01        	ldx	#$1
    1756: 86 99        	stx	$99                     ; 0x99 <_ZN12_GLOBAL__N_19last_freeE>
    1758: 80 3a        	bra	$1794 <main+0x127c>
    175a: b2 16        	lda	($16)                   ; 0x16 <__rc6>
    175c: 85 1e        	sta	$1e                     ; 0x1e <__rc14>
    175e: a0 01        	ldy	#$1
    1760: b1 16        	lda	($16),y                 ; 0x16 <__rc6>
    1762: a8           	tay
    1763: a9 fe        	lda	#$fe
    1765: 32 16        	and	($16)                   ; 0x16 <__rc6>
    1767: 18           	clc
    1768: 85 1d        	sta	$1d                     ; 0x1d <__rc13>
    176a: 65 16        	adc	$16                     ; 0x16 <__rc6>
    176c: aa           	tax
    176d: 98           	tya
    176e: 84 1c        	sty	$1c                     ; 0x1c <__rc12>
    1770: 65 17        	adc	$17                     ; 0x17 <__rc7>
    1772: c5 24        	cmp	$24                     ; 0x24 <__rc20>
    1774: d0 23        	bne	$1799 <main+0x1281>
    1776: 48           	pha
    1777: a0 08        	ldy	#$8
    1779: b1 10        	lda	($10),y                 ; 0x10 <__rc0>
    177b: 85 18        	sta	$18                     ; 0x18 <__rc8>
    177d: 68           	pla
    177e: e4 18        	cpx	$18                     ; 0x18 <__rc8>
    1780: d0 17        	bne	$1799 <main+0x1281>
    1782: a5 99        	lda	$99                     ; 0x99 <_ZN12_GLOBAL__N_19last_freeE>
    1784: 29 01        	and	#$1
    1786: d0 1b        	bne	$17a3 <main+0x128b>
    1788: a5 1e        	lda	$1e                     ; 0x1e <__rc14>
    178a: 09 01        	ora	#$1
    178c: 92 16        	sta	($16)                   ; 0x16 <__rc6>
    178e: a0 01        	ldy	#$1
    1790: a5 1c        	lda	$1c                     ; 0x1c <__rc12>
    1792: 91 16        	sta	($16),y                 ; 0x16 <__rc6>
    1794: a6 14        	ldx	$14                     ; 0x14 <__rc4>
    1796: 4c 8b 18     	jmp	$188b <main+0x1373>
    1799: 86 18        	stx	$18                     ; 0x18 <__rc8>
    179b: 85 19        	sta	$19                     ; 0x19 <__rc9>
    179d: a9 01        	lda	#$1
    179f: 32 18        	and	($18)                   ; 0x18 <__rc8>
    17a1: f0 e5        	beq	$1788 <main+0x1270>
    17a3: a5 9a        	lda	$9a                     ; 0x9a <_ZN12_GLOBAL__N_19free_sizeE>
    17a5: a6 9b        	ldx	$9b                     ; 0x9b <_ZN12_GLOBAL__N_19free_sizeE+0x1>
    17a7: 86 19        	stx	$19                     ; 0x19 <__rc9>
    17a9: 38           	sec
    17aa: e5 1d        	sbc	$1d                     ; 0x1d <__rc13>
    17ac: aa           	tax
    17ad: a5 19        	lda	$19                     ; 0x19 <__rc9>
    17af: e5 1c        	sbc	$1c                     ; 0x1c <__rc12>
    17b1: 85 18        	sta	$18                     ; 0x18 <__rc8>
    17b3: 18           	clc
    17b4: 8a           	txa
    17b5: 69 02        	adc	#$2
    17b7: 85 19        	sta	$19                     ; 0x19 <__rc9>
    17b9: a5 18        	lda	$18                     ; 0x18 <__rc8>
    17bb: 69 00        	adc	#$0
    17bd: a6 19        	ldx	$19                     ; 0x19 <__rc9>
    17bf: 86 9a        	stx	$9a                     ; 0x9a <_ZN12_GLOBAL__N_19free_sizeE>
    17c1: 85 9b        	sta	$9b                     ; 0x9b <_ZN12_GLOBAL__N_19free_sizeE+0x1>
    17c3: a5 16        	lda	$16                     ; 0x16 <__rc6>
    17c5: 18           	clc
    17c6: 69 02        	adc	#$2
    17c8: 85 18        	sta	$18                     ; 0x18 <__rc8>
    17ca: a5 17        	lda	$17                     ; 0x17 <__rc7>
    17cc: 69 00        	adc	#$0
    17ce: a0 02        	ldy	#$2
    17d0: 85 19        	sta	$19                     ; 0x19 <__rc9>
    17d2: b1 16        	lda	($16),y                 ; 0x16 <__rc6>
    17d4: aa           	tax
    17d5: 88           	dey
    17d6: b1 18        	lda	($18),y                 ; 0x18 <__rc8>
    17d8: 85 1f        	sta	$1f                     ; 0x1f <__rc15>
    17da: c5 17        	cmp	$17                     ; 0x17 <__rc7>
    17dc: d0 0f        	bne	$17ed <main+0x12d5>
    17de: e4 16        	cpx	$16                     ; 0x16 <__rc6>
    17e0: d0 0b        	bne	$17ed <main+0x12d5>
    17e2: a2 00        	ldx	#$0
    17e4: 86 18        	stx	$18                     ; 0x18 <__rc8>
    17e6: a2 00        	ldx	#$0
    17e8: 86 19        	stx	$19                     ; 0x19 <__rc9>
    17ea: 4c 77 18     	jmp	$1877 <main+0x135f>
    17ed: 86 1e        	stx	$1e                     ; 0x1e <__rc14>
    17ef: a6 16        	ldx	$16                     ; 0x16 <__rc6>
    17f1: a5 16        	lda	$16                     ; 0x16 <__rc6>
    17f3: 86 24        	stx	$24                     ; 0x24 <__rc20>
    17f5: 18           	clc
    17f6: 69 04        	adc	#$4
    17f8: 85 18        	sta	$18                     ; 0x18 <__rc8>
    17fa: a5 17        	lda	$17                     ; 0x17 <__rc7>
    17fc: 69 00        	adc	#$0
    17fe: a0 04        	ldy	#$4
    1800: 85 19        	sta	$19                     ; 0x19 <__rc9>
    1802: b1 16        	lda	($16),y                 ; 0x16 <__rc6>
    1804: 85 25        	sta	$25                     ; 0x25 <__rc21>
    1806: a2 04        	ldx	#$4
    1808: 86 22        	stx	$22                     ; 0x22 <__rc18>
    180a: 18           	clc
    180b: 69 02        	adc	#$2
    180d: 85 1a        	sta	$1a                     ; 0x1a <__rc10>
    180f: a0 01        	ldy	#$1
    1811: b1 18        	lda	($18),y                 ; 0x18 <__rc8>
    1813: aa           	tax
    1814: 84 26        	sty	$26                     ; 0x26 <__rc22>
    1816: 69 00        	adc	#$0
    1818: a4 1a        	ldy	$1a                     ; 0x1a <__rc10>
    181a: 84 18        	sty	$18                     ; 0x18 <__rc8>
    181c: 85 19        	sta	$19                     ; 0x19 <__rc9>
    181e: a4 25        	ldy	$25                     ; 0x25 <__rc21>
    1820: 84 1a        	sty	$1a                     ; 0x1a <__rc10>
    1822: 86 1b        	stx	$1b                     ; 0x1b <__rc11>
    1824: a5 1e        	lda	$1e                     ; 0x1e <__rc14>
    1826: a0 02        	ldy	#$2
    1828: 91 1a        	sta	($1a),y                 ; 0x1a <__rc10>
    182a: 84 1a        	sty	$1a                     ; 0x1a <__rc10>
    182c: a5 1f        	lda	$1f                     ; 0x1f <__rc15>
    182e: a4 26        	ldy	$26                     ; 0x26 <__rc22>
    1830: 91 18        	sta	($18),y                 ; 0x18 <__rc8>
    1832: 18           	clc
    1833: a5 24        	lda	$24                     ; 0x24 <__rc20>
    1835: 69 02        	adc	#$2
    1837: 85 18        	sta	$18                     ; 0x18 <__rc8>
    1839: a5 17        	lda	$17                     ; 0x17 <__rc7>
    183b: 69 00        	adc	#$0
    183d: 85 19        	sta	$19                     ; 0x19 <__rc9>
    183f: a4 1a        	ldy	$1a                     ; 0x1a <__rc10>
    1841: b1 16        	lda	($16),y                 ; 0x16 <__rc6>
    1843: 85 1a        	sta	$1a                     ; 0x1a <__rc10>
    1845: a4 26        	ldy	$26                     ; 0x26 <__rc22>
    1847: b1 18        	lda	($18),y                 ; 0x18 <__rc8>
    1849: 84 1e        	sty	$1e                     ; 0x1e <__rc14>
    184b: a4 1a        	ldy	$1a                     ; 0x1a <__rc10>
    184d: 84 18        	sty	$18                     ; 0x18 <__rc8>
    184f: 85 19        	sta	$19                     ; 0x19 <__rc9>
    1851: 85 1b        	sta	$1b                     ; 0x1b <__rc11>
    1853: a4 22        	ldy	$22                     ; 0x22 <__rc18>
    1855: a5 25        	lda	$25                     ; 0x25 <__rc21>
    1857: 91 18        	sta	($18),y                 ; 0x18 <__rc8>
    1859: 18           	clc
    185a: a5 1a        	lda	$1a                     ; 0x1a <__rc10>
    185c: 69 04        	adc	#$4
    185e: 85 1a        	sta	$1a                     ; 0x1a <__rc10>
    1860: a5 1b        	lda	$1b                     ; 0x1b <__rc11>
    1862: 69 00        	adc	#$0
    1864: 85 1b        	sta	$1b                     ; 0x1b <__rc11>
    1866: 8a           	txa
    1867: a4 1e        	ldy	$1e                     ; 0x1e <__rc14>
    1869: 91 1a        	sta	($1a),y                 ; 0x1a <__rc10>
    186b: a6 9d        	ldx	$9d                     ; 0x9d <_ZN12_GLOBAL__N_19free_listE+0x1>
    186d: e4 17        	cpx	$17                     ; 0x17 <__rc7>
    186f: d0 0e        	bne	$187f <main+0x1367>
    1871: a6 9c        	ldx	$9c                     ; 0x9c <_ZN12_GLOBAL__N_19free_listE>
    1873: e4 16        	cpx	$16                     ; 0x16 <__rc6>
    1875: d0 08        	bne	$187f <main+0x1367>
    1877: a6 18        	ldx	$18                     ; 0x18 <__rc8>
    1879: a4 19        	ldy	$19                     ; 0x19 <__rc9>
    187b: 86 9c        	stx	$9c                     ; 0x9c <_ZN12_GLOBAL__N_19free_listE>
    187d: 84 9d        	sty	$9d                     ; 0x9d <_ZN12_GLOBAL__N_19free_listE+0x1>
    187f: 18           	clc
    1880: a5 1d        	lda	$1d                     ; 0x1d <__rc13>
    1882: 65 15        	adc	$15                     ; 0x15 <__rc5>
    1884: 85 15        	sta	$15                     ; 0x15 <__rc5>
    1886: a5 1c        	lda	$1c                     ; 0x1c <__rc12>
    1888: 65 14        	adc	$14                     ; 0x14 <__rc4>
    188a: aa           	tax
    188b: a9 01        	lda	#$1
    188d: 32 12        	and	($12)                   ; 0x12 <__rc2>
    188f: a4 15        	ldy	$15                     ; 0x15 <__rc5>
    1891: 84 16        	sty	$16                     ; 0x16 <__rc6>
    1893: 05 15        	ora	$15                     ; 0x15 <__rc5>
    1895: 92 12        	sta	($12)                   ; 0x12 <__rc2>
    1897: a5 12        	lda	$12                     ; 0x12 <__rc2>
    1899: 18           	clc
    189a: 65 15        	adc	$15                     ; 0x15 <__rc5>
    189c: a8           	tay
    189d: 8a           	txa
    189e: 65 13        	adc	$13                     ; 0x13 <__rc3>
    18a0: 85 15        	sta	$15                     ; 0x15 <__rc5>
    18a2: 18           	clc
    18a3: 98           	tya
    18a4: 69 fe        	adc	#$fe
    18a6: 85 14        	sta	$14                     ; 0x14 <__rc4>
    18a8: a5 15        	lda	$15                     ; 0x15 <__rc5>
    18aa: 69 ff        	adc	#$ff
    18ac: 85 15        	sta	$15                     ; 0x15 <__rc5>
    18ae: a0 01        	ldy	#$1
    18b0: 8a           	txa
    18b1: 91 12        	sta	($12),y                 ; 0x12 <__rc2>
    18b3: a5 16        	lda	$16                     ; 0x16 <__rc6>
    18b5: 92 14        	sta	($14)                   ; 0x14 <__rc4>
    18b7: 8a           	txa
    18b8: 91 14        	sta	($14),y                 ; 0x14 <__rc4>
    18ba: b1 12        	lda	($12),y                 ; 0x12 <__rc2>
    18bc: 85 14        	sta	$14                     ; 0x14 <__rc4>
    18be: a9 fe        	lda	#$fe
    18c0: 32 12        	and	($12)                   ; 0x12 <__rc2>
    18c2: 18           	clc
    18c3: 65 9a        	adc	$9a                     ; 0x9a <_ZN12_GLOBAL__N_19free_sizeE>
    18c5: aa           	tax
    18c6: a5 14        	lda	$14                     ; 0x14 <__rc4>
    18c8: 65 9b        	adc	$9b                     ; 0x9b <_ZN12_GLOBAL__N_19free_sizeE+0x1>
    18ca: 85 14        	sta	$14                     ; 0x14 <__rc4>
    18cc: 18           	clc
    18cd: 8a           	txa
    18ce: 69 fe        	adc	#$fe
    18d0: 85 15        	sta	$15                     ; 0x15 <__rc5>
    18d2: a5 14        	lda	$14                     ; 0x14 <__rc4>
    18d4: 69 ff        	adc	#$ff
    18d6: a6 15        	ldx	$15                     ; 0x15 <__rc5>
    18d8: 86 9a        	stx	$9a                     ; 0x9a <_ZN12_GLOBAL__N_19free_sizeE>
    18da: 85 9b        	sta	$9b                     ; 0x9b <_ZN12_GLOBAL__N_19free_sizeE+0x1>
    18dc: a6 9c        	ldx	$9c                     ; 0x9c <_ZN12_GLOBAL__N_19free_listE>
    18de: 86 16        	stx	$16                     ; 0x16 <__rc6>
    18e0: a4 9d        	ldy	$9d                     ; 0x9d <_ZN12_GLOBAL__N_19free_listE+0x1>
    18e2: a2 00        	ldx	#$0
    18e4: 86 14        	stx	$14                     ; 0x14 <__rc4>
    18e6: a2 00        	ldx	#$0
    18e8: 86 15        	stx	$15                     ; 0x15 <__rc5>
    18ea: c4 15        	cpy	$15                     ; 0x15 <__rc5>
    18ec: d0 3e        	bne	$192c <main+0x1414>
    18ee: a6 16        	ldx	$16                     ; 0x16 <__rc6>
    18f0: e4 14        	cpx	$14                     ; 0x14 <__rc4>
    18f2: d0 38        	bne	$192c <main+0x1414>
    18f4: a0 04        	ldy	#$4
    18f6: a5 12        	lda	$12                     ; 0x12 <__rc2>
    18f8: 18           	clc
    18f9: 69 04        	adc	#$4
    18fb: 85 14        	sta	$14                     ; 0x14 <__rc4>
    18fd: a5 13        	lda	$13                     ; 0x13 <__rc3>
    18ff: 69 00        	adc	#$0
    1901: 18           	clc
    1902: 85 15        	sta	$15                     ; 0x15 <__rc5>
    1904: a5 12        	lda	$12                     ; 0x12 <__rc2>
    1906: 91 12        	sta	($12),y                 ; 0x12 <__rc2>
    1908: a0 02        	ldy	#$2
    190a: 85 17        	sta	$17                     ; 0x17 <__rc7>
    190c: 69 02        	adc	#$2
    190e: 85 16        	sta	$16                     ; 0x16 <__rc6>
    1910: a5 17        	lda	$17                     ; 0x17 <__rc7>
    1912: 91 12        	sta	($12),y                 ; 0x12 <__rc2>
    1914: a5 13        	lda	$13                     ; 0x13 <__rc3>
    1916: 69 00        	adc	#$0
    1918: 85 17        	sta	$17                     ; 0x17 <__rc7>
    191a: 88           	dey
    191b: a5 13        	lda	$13                     ; 0x13 <__rc3>
    191d: 91 14        	sta	($14),y                 ; 0x14 <__rc4>
    191f: 91 16        	sta	($16),y                 ; 0x16 <__rc6>
    1921: a6 12        	ldx	$12                     ; 0x12 <__rc2>
    1923: 86 9c        	stx	$9c                     ; 0x9c <_ZN12_GLOBAL__N_19free_listE>
    1925: a6 13        	ldx	$13                     ; 0x13 <__rc3>
    1927: 86 9d        	stx	$9d                     ; 0x9d <_ZN12_GLOBAL__N_19free_listE+0x1>
    1929: 4c d8 19     	jmp	$19d8 <main+0x14c0>
    192c: a6 12        	ldx	$12                     ; 0x12 <__rc2>
    192e: a5 12        	lda	$12                     ; 0x12 <__rc2>
    1930: 86 1c        	stx	$1c                     ; 0x1c <__rc12>
    1932: 18           	clc
    1933: 69 02        	adc	#$2
    1935: 85 14        	sta	$14                     ; 0x14 <__rc4>
    1937: a6 13        	ldx	$13                     ; 0x13 <__rc3>
    1939: 84 18        	sty	$18                     ; 0x18 <__rc8>
    193b: a5 13        	lda	$13                     ; 0x13 <__rc3>
    193d: 69 00        	adc	#$0
    193f: 85 15        	sta	$15                     ; 0x15 <__rc5>
    1941: a5 16        	lda	$16                     ; 0x16 <__rc6>
    1943: 84 17        	sty	$17                     ; 0x17 <__rc7>
    1945: a0 02        	ldy	#$2
    1947: 91 12        	sta	($12),y                 ; 0x12 <__rc2>
    1949: 85 19        	sta	$19                     ; 0x19 <__rc9>
    194b: 84 1d        	sty	$1d                     ; 0x1d <__rc13>
    194d: 88           	dey
    194e: a5 18        	lda	$18                     ; 0x18 <__rc8>
    1950: 91 14        	sta	($14),y                 ; 0x14 <__rc4>
    1952: 84 1e        	sty	$1e                     ; 0x1e <__rc14>
    1954: 18           	clc
    1955: a5 19        	lda	$19                     ; 0x19 <__rc9>
    1957: 69 04        	adc	#$4
    1959: a8           	tay
    195a: a5 18        	lda	$18                     ; 0x18 <__rc8>
    195c: 69 00        	adc	#$0
    195e: 84 18        	sty	$18                     ; 0x18 <__rc8>
    1960: 85 19        	sta	$19                     ; 0x19 <__rc9>
    1962: a5 1c        	lda	$1c                     ; 0x1c <__rc12>
    1964: 18           	clc
    1965: 69 04        	adc	#$4
    1967: 85 1a        	sta	$1a                     ; 0x1a <__rc10>
    1969: a5 13        	lda	$13                     ; 0x13 <__rc3>
    196b: 69 00        	adc	#$0
    196d: 85 1b        	sta	$1b                     ; 0x1b <__rc11>
    196f: a0 04        	ldy	#$4
    1971: b1 16        	lda	($16),y                 ; 0x16 <__rc6>
    1973: 85 16        	sta	$16                     ; 0x16 <__rc6>
    1975: 85 1f        	sta	$1f                     ; 0x1f <__rc15>
    1977: a4 1e        	ldy	$1e                     ; 0x1e <__rc14>
    1979: b1 18        	lda	($18),y                 ; 0x18 <__rc8>
    197b: a4 1e        	ldy	$1e                     ; 0x1e <__rc14>
    197d: 84 18        	sty	$18                     ; 0x18 <__rc8>
    197f: 85 17        	sta	$17                     ; 0x17 <__rc7>
    1981: 85 19        	sta	$19                     ; 0x19 <__rc9>
    1983: a0 04        	ldy	#$4
    1985: a5 1f        	lda	$1f                     ; 0x1f <__rc15>
    1987: 91 12        	sta	($12),y                 ; 0x12 <__rc2>
    1989: 84 1e        	sty	$1e                     ; 0x1e <__rc14>
    198b: a4 18        	ldy	$18                     ; 0x18 <__rc8>
    198d: a5 19        	lda	$19                     ; 0x19 <__rc9>
    198f: 91 1a        	sta	($1a),y                 ; 0x1a <__rc10>
    1991: 84 1a        	sty	$1a                     ; 0x1a <__rc10>
    1993: 18           	clc
    1994: a5 1f        	lda	$1f                     ; 0x1f <__rc15>
    1996: 69 02        	adc	#$2
    1998: 85 18        	sta	$18                     ; 0x18 <__rc8>
    199a: a5 19        	lda	$19                     ; 0x19 <__rc9>
    199c: 69 00        	adc	#$0
    199e: 85 19        	sta	$19                     ; 0x19 <__rc9>
    19a0: a5 1c        	lda	$1c                     ; 0x1c <__rc12>
    19a2: a4 1d        	ldy	$1d                     ; 0x1d <__rc13>
    19a4: 91 16        	sta	($16),y                 ; 0x16 <__rc6>
    19a6: a5 13        	lda	$13                     ; 0x13 <__rc3>
    19a8: a4 1a        	ldy	$1a                     ; 0x1a <__rc10>
    19aa: 91 18        	sta	($18),y                 ; 0x18 <__rc8>
    19ac: 84 17        	sty	$17                     ; 0x17 <__rc7>
    19ae: a4 1d        	ldy	$1d                     ; 0x1d <__rc13>
    19b0: b1 12        	lda	($12),y                 ; 0x12 <__rc2>
    19b2: 85 12        	sta	$12                     ; 0x12 <__rc2>
    19b4: 85 16        	sta	$16                     ; 0x16 <__rc6>
    19b6: a4 17        	ldy	$17                     ; 0x17 <__rc7>
    19b8: b1 14        	lda	($14),y                 ; 0x14 <__rc4>
    19ba: 84 14        	sty	$14                     ; 0x14 <__rc4>
    19bc: 85 13        	sta	$13                     ; 0x13 <__rc3>
    19be: 85 15        	sta	$15                     ; 0x15 <__rc5>
    19c0: a5 1c        	lda	$1c                     ; 0x1c <__rc12>
    19c2: a4 1e        	ldy	$1e                     ; 0x1e <__rc14>
    19c4: 91 12        	sta	($12),y                 ; 0x12 <__rc2>
    19c6: 18           	clc
    19c7: a5 16        	lda	$16                     ; 0x16 <__rc6>
    19c9: 69 04        	adc	#$4
    19cb: 85 12        	sta	$12                     ; 0x12 <__rc2>
    19cd: a5 15        	lda	$15                     ; 0x15 <__rc5>
    19cf: 69 00        	adc	#$0
    19d1: 85 13        	sta	$13                     ; 0x13 <__rc3>
    19d3: 8a           	txa
    19d4: a4 14        	ldy	$14                     ; 0x14 <__rc4>
    19d6: 91 12        	sta	($12),y                 ; 0x12 <__rc2>
    19d8: a2 82        	ldx	#$82
    19da: 86 26        	stx	$26                     ; 0x26 <__rc22>
    19dc: a2 00        	ldx	#$0
    19de: 86 27        	stx	$27                     ; 0x27 <__rc23>
    19e0: 64 7b        	stz	$7b                     ; 0x7b <kernelEventData>
    19e2: 20 00 ff     	jsr	$ff00 <end_block9+0xc97c>
    19e5: 92 2a        	sta	($2a)                   ; 0x2a <__rc26>
    19e7: a9 00        	lda	#$0
    19e9: 6a           	ror
    19ea: 85 26        	sta	$26                     ; 0x26 <__rc22>
    19ec: a6 7b        	ldx	$7b                     ; 0x7b <kernelEventData>
    19ee: e0 32        	cpx	#$32
    19f0: f0 04        	beq	$19f6 <main+0x14de>
    19f2: e0 38        	cpx	#$38
    19f4: d0 ea        	bne	$19e0 <main+0x14c8>
    19f6: a2 0a        	ldx	#$a
    19f8: 86 61        	stx	$61                     ; 0x61 <_col>
    19fa: 8e 14 d0     	stx	$d014                   ; 0xd014 <end_block9+0x9a90>
    19fd: 9c 15 d0     	stz	$d015                   ; 0xd015 <end_block9+0x9a91>
    1a00: 86 62        	stx	$62                     ; 0x62 <_row>
    1a02: 8e 16 d0     	stx	$d016                   ; 0xd016 <end_block9+0x9a92>
    1a05: 9c 17 d0     	stz	$d017                   ; 0xd017 <end_block9+0x9a93>
    1a08: a2 43        	ldx	#$43
    1a0a: 86 12        	stx	$12                     ; 0x12 <__rc2>
    1a0c: a2 34        	ldx	#$34
    1a0e: 86 13        	stx	$13                     ; 0x13 <__rc3>
    1a10: 20 29 24     	jsr	$2429 <textPrint>
    1a13: a2 14        	ldx	#$14
    1a15: 86 61        	stx	$61                     ; 0x61 <_col>
    1a17: 8e 14 d0     	stx	$d014                   ; 0xd014 <end_block9+0x9a90>
    1a1a: 9c 15 d0     	stz	$d015                   ; 0xd015 <end_block9+0x9a91>
    1a1d: a2 0c        	ldx	#$c
    1a1f: 86 62        	stx	$62                     ; 0x62 <_row>
    1a21: 8e 16 d0     	stx	$d016                   ; 0xd016 <end_block9+0x9a92>
    1a24: 9c 17 d0     	stz	$d017                   ; 0xd017 <end_block9+0x9a93>
    1a27: a2 25        	ldx	#$25
    1a29: 86 12        	stx	$12                     ; 0x12 <__rc2>
    1a2b: a2 34        	ldx	#$34
    1a2d: 86 13        	stx	$13                     ; 0x13 <__rc3>
    1a2f: 20 29 24     	jsr	$2429 <textPrint>
    1a32: a2 80        	ldx	#$80
    1a34: 86 f3        	stx	$f3                     ; 0xf3 <__pal_size+0x73>
    1a36: a2 02        	ldx	#$2
    1a38: 86 25        	stx	$25                     ; 0x25 <__rc21>
    1a3a: 20 f0 ff     	jsr	$fff0 <end_block9+0xca6c>
    1a3d: 92 28        	sta	($28)                   ; 0x28 <__rc24>
    1a3f: a9 00        	lda	#$0
    1a41: 6a           	ror
    1a42: 85 26        	sta	$26                     ; 0x26 <__rc22>
    1a44: 18           	clc
    1a45: 8a           	txa
    1a46: 72 28        	adc	($28)                   ; 0x28 <__rc24>
    1a48: 85 78        	sta	$78                     ; 0x78 <tileAnim.1>
    1a4a: 64 f3        	stz	$f3                     ; 0xf3 <__pal_size+0x73>
    1a4c: a6 78        	ldx	$78                     ; 0x78 <tileAnim.1>
    1a4e: 86 f4        	stx	$f4                     ; 0xf4 <__pal_size+0x74>
    1a50: 64 f5        	stz	$f5                     ; 0xf5 <__pal_size+0x75>
    1a52: 64 24        	stz	$24                     ; 0x24 <__rc20>
    1a54: a2 01        	ldx	#$1
    1a56: 86 2a        	stx	$2a                     ; 0x2a <__rc26>
    1a58: a2 3a        	ldx	#$3a
    1a5a: 86 2b        	stx	$2b                     ; 0x2b <__rc27>
    1a5c: 20 f0 ff     	jsr	$fff0 <end_block9+0xca6c>
    1a5f: 92 28        	sta	($28)                   ; 0x28 <__rc24>
    1a61: a9 00        	lda	#$0
    1a63: 6a           	ror
    1a64: 85 26        	sta	$26                     ; 0x26 <__rc22>
    1a66: 4c 93 1c     	jmp	$1c93 <main+0x177b>
    1a69: a6 16        	ldx	$16                     ; 0x16 <__rc6>
    1a6b: 8e 86 35     	stx	$3586                   ; 0x3586 <end_block9+0x2>
    1a6e: 8d 87 35     	sta	$3587                   ; 0x3587 <end_block9+0x3>
    1a71: 85 15        	sta	$15                     ; 0x15 <__rc5>
    1a73: a0 04        	ldy	#$4
    1a75: 18           	clc
    1a76: a5 16        	lda	$16                     ; 0x16 <__rc6>
    1a78: 69 04        	adc	#$4
    1a7a: 85 14        	sta	$14                     ; 0x14 <__rc4>
    1a7c: a5 15        	lda	$15                     ; 0x15 <__rc5>
    1a7e: 69 00        	adc	#$0
    1a80: 85 15        	sta	$15                     ; 0x15 <__rc5>
    1a82: b1 12        	lda	($12),y                 ; 0x12 <__rc2>
    1a84: 85 16        	sta	$16                     ; 0x16 <__rc6>
    1a86: a2 04        	ldx	#$4
    1a88: 86 1a        	stx	$1a                     ; 0x1a <__rc10>
    1a8a: a0 01        	ldy	#$1
    1a8c: b1 14        	lda	($14),y                 ; 0x14 <__rc4>
    1a8e: aa           	tax
    1a8f: 84 1b        	sty	$1b                     ; 0x1b <__rc11>
    1a91: a5 16        	lda	$16                     ; 0x16 <__rc6>
    1a93: 85 14        	sta	$14                     ; 0x14 <__rc4>
    1a95: 86 15        	stx	$15                     ; 0x15 <__rc5>
    1a97: 8d 88 35     	sta	$3588                   ; 0x3588 <end_block9+0x4>
    1a9a: 8e 89 35     	stx	$3589                   ; 0x3589 <end_block9+0x5>
    1a9d: 18           	clc
    1a9e: 69 02        	adc	#$2
    1aa0: 85 16        	sta	$16                     ; 0x16 <__rc6>
    1aa2: 8a           	txa
    1aa3: 69 00        	adc	#$0
    1aa5: 85 17        	sta	$17                     ; 0x17 <__rc7>
    1aa7: a9 84        	lda	#$84
    1aa9: c8           	iny
    1aaa: 91 14        	sta	($14),y                 ; 0x14 <__rc4>
    1aac: a9 35        	lda	#$35
    1aae: a4 1b        	ldy	$1b                     ; 0x1b <__rc11>
    1ab0: 91 16        	sta	($16),y                 ; 0x16 <__rc6>
    1ab2: ae 86 35     	ldx	$3586                   ; 0x3586 <end_block9+0x2>
    1ab5: ac 87 35     	ldy	$3587                   ; 0x3587 <end_block9+0x3>
    1ab8: 86 14        	stx	$14                     ; 0x14 <__rc4>
    1aba: 84 15        	sty	$15                     ; 0x15 <__rc5>
    1abc: 84 17        	sty	$17                     ; 0x17 <__rc7>
    1abe: a4 1a        	ldy	$1a                     ; 0x1a <__rc10>
    1ac0: a9 84        	lda	#$84
    1ac2: 91 14        	sta	($14),y                 ; 0x14 <__rc4>
    1ac4: 18           	clc
    1ac5: 8a           	txa
    1ac6: 69 04        	adc	#$4
    1ac8: 85 14        	sta	$14                     ; 0x14 <__rc4>
    1aca: a5 17        	lda	$17                     ; 0x17 <__rc7>
    1acc: 69 00        	adc	#$0
    1ace: 85 15        	sta	$15                     ; 0x15 <__rc5>
    1ad0: a9 35        	lda	#$35
    1ad2: a4 1b        	ldy	$1b                     ; 0x1b <__rc11>
    1ad4: 91 14        	sta	($14),y                 ; 0x14 <__rc4>
    1ad6: a6 19        	ldx	$19                     ; 0x19 <__rc9>
    1ad8: a4 18        	ldy	$18                     ; 0x18 <__rc8>
    1ada: 8c 84 35     	sty	$3584                   ; 0x3584 <end_block9>
    1add: 8e 85 35     	stx	$3585                   ; 0x3585 <end_block9+0x1>
    1ae0: a2 01        	ldx	#$1
    1ae2: 86 99        	stx	$99                     ; 0x99 <_ZN12_GLOBAL__N_19last_freeE>
    1ae4: 86 98        	stx	$98                     ; 0x98 <_ZN12_GLOBAL__N_111initializedE>
    1ae6: a0 01        	ldy	#$1
    1ae8: a6 12        	ldx	$12                     ; 0x12 <__rc2>
    1aea: 86 14        	stx	$14                     ; 0x14 <__rc4>
    1aec: a6 13        	ldx	$13                     ; 0x13 <__rc3>
    1aee: 86 15        	stx	$15                     ; 0x15 <__rc5>
    1af0: 80 1d        	bra	$1b0f <main+0x15f7>
    1af2: c9 00        	cmp	#$0
    1af4: 8a           	txa
    1af5: b0 26        	bcs	$1b1d <main+0x1605>
    1af7: a5 14        	lda	$14                     ; 0x14 <__rc4>
    1af9: 18           	clc
    1afa: 69 02        	adc	#$2
    1afc: 85 16        	sta	$16                     ; 0x16 <__rc6>
    1afe: a5 15        	lda	$15                     ; 0x15 <__rc5>
    1b00: 69 00        	adc	#$0
    1b02: 85 17        	sta	$17                     ; 0x17 <__rc7>
    1b04: a0 02        	ldy	#$2
    1b06: b1 14        	lda	($14),y                 ; 0x14 <__rc4>
    1b08: 85 14        	sta	$14                     ; 0x14 <__rc4>
    1b0a: 88           	dey
    1b0b: b1 16        	lda	($16),y                 ; 0x16 <__rc6>
    1b0d: 85 15        	sta	$15                     ; 0x15 <__rc5>
    1b0f: b2 14        	lda	($14)                   ; 0x14 <__rc4>
    1b11: aa           	tax
    1b12: b1 14        	lda	($14),y                 ; 0x14 <__rc4>
    1b14: 85 16        	sta	$16                     ; 0x16 <__rc6>
    1b16: d0 da        	bne	$1af2 <main+0x15da>
    1b18: 8a           	txa
    1b19: e0 08        	cpx	#$8
    1b1b: 90 da        	bcc	$1af7 <main+0x15df>
    1b1d: 29 fe        	and	#$fe
    1b1f: 85 17        	sta	$17                     ; 0x17 <__rc7>
    1b21: a5 9a        	lda	$9a                     ; 0x9a <_ZN12_GLOBAL__N_19free_sizeE>
    1b23: a6 9b        	ldx	$9b                     ; 0x9b <_ZN12_GLOBAL__N_19free_sizeE+0x1>
    1b25: 86 18        	stx	$18                     ; 0x18 <__rc8>
    1b27: 38           	sec
    1b28: e5 17        	sbc	$17                     ; 0x17 <__rc7>
    1b2a: aa           	tax
    1b2b: a5 18        	lda	$18                     ; 0x18 <__rc8>
    1b2d: e5 16        	sbc	$16                     ; 0x16 <__rc6>
    1b2f: 85 16        	sta	$16                     ; 0x16 <__rc6>
    1b31: 18           	clc
    1b32: 8a           	txa
    1b33: 69 02        	adc	#$2
    1b35: 85 17        	sta	$17                     ; 0x17 <__rc7>
    1b37: a5 16        	lda	$16                     ; 0x16 <__rc6>
    1b39: 69 00        	adc	#$0
    1b3b: a6 17        	ldx	$17                     ; 0x17 <__rc7>
    1b3d: 86 9a        	stx	$9a                     ; 0x9a <_ZN12_GLOBAL__N_19free_sizeE>
    1b3f: 85 9b        	sta	$9b                     ; 0x9b <_ZN12_GLOBAL__N_19free_sizeE+0x1>
    1b41: a0 02        	ldy	#$2
    1b43: a5 14        	lda	$14                     ; 0x14 <__rc4>
    1b45: 18           	clc
    1b46: 69 02        	adc	#$2
    1b48: 85 26        	sta	$26                     ; 0x26 <__rc22>
    1b4a: a5 15        	lda	$15                     ; 0x15 <__rc5>
    1b4c: 69 00        	adc	#$0
    1b4e: 85 27        	sta	$27                     ; 0x27 <__rc23>
    1b50: b1 14        	lda	($14),y                 ; 0x14 <__rc4>
    1b52: aa           	tax
    1b53: 88           	dey
    1b54: b1 26        	lda	($26),y                 ; 0x26 <__rc22>
    1b56: 85 1b        	sta	$1b                     ; 0x1b <__rc11>
    1b58: c5 15        	cmp	$15                     ; 0x15 <__rc5>
    1b5a: d0 0f        	bne	$1b6b <main+0x1653>
    1b5c: e4 14        	cpx	$14                     ; 0x14 <__rc4>
    1b5e: d0 0b        	bne	$1b6b <main+0x1653>
    1b60: a2 00        	ldx	#$0
    1b62: 86 16        	stx	$16                     ; 0x16 <__rc6>
    1b64: a2 00        	ldx	#$0
    1b66: 86 17        	stx	$17                     ; 0x17 <__rc7>
    1b68: 4c f1 1b     	jmp	$1bf1 <main+0x16d9>
    1b6b: 86 1a        	stx	$1a                     ; 0x1a <__rc10>
    1b6d: 18           	clc
    1b6e: a5 14        	lda	$14                     ; 0x14 <__rc4>
    1b70: 69 04        	adc	#$4
    1b72: 85 16        	sta	$16                     ; 0x16 <__rc6>
    1b74: a5 15        	lda	$15                     ; 0x15 <__rc5>
    1b76: 69 00        	adc	#$0
    1b78: a0 04        	ldy	#$4
    1b7a: 85 17        	sta	$17                     ; 0x17 <__rc7>
    1b7c: b1 14        	lda	($14),y                 ; 0x14 <__rc4>
    1b7e: 85 1f        	sta	$1f                     ; 0x1f <__rc15>
    1b80: a2 04        	ldx	#$4
    1b82: 86 1c        	stx	$1c                     ; 0x1c <__rc12>
    1b84: 18           	clc
    1b85: 69 02        	adc	#$2
    1b87: 85 18        	sta	$18                     ; 0x18 <__rc8>
    1b89: a0 01        	ldy	#$1
    1b8b: b1 16        	lda	($16),y                 ; 0x16 <__rc6>
    1b8d: aa           	tax
    1b8e: 84 22        	sty	$22                     ; 0x22 <__rc18>
    1b90: 69 00        	adc	#$0
    1b92: a4 18        	ldy	$18                     ; 0x18 <__rc8>
    1b94: 84 16        	sty	$16                     ; 0x16 <__rc6>
    1b96: 85 17        	sta	$17                     ; 0x17 <__rc7>
    1b98: a4 1f        	ldy	$1f                     ; 0x1f <__rc15>
    1b9a: 84 18        	sty	$18                     ; 0x18 <__rc8>
    1b9c: 86 19        	stx	$19                     ; 0x19 <__rc9>
    1b9e: a5 1a        	lda	$1a                     ; 0x1a <__rc10>
    1ba0: a0 02        	ldy	#$2
    1ba2: 91 18        	sta	($18),y                 ; 0x18 <__rc8>
    1ba4: 84 18        	sty	$18                     ; 0x18 <__rc8>
    1ba6: a5 1b        	lda	$1b                     ; 0x1b <__rc11>
    1ba8: a4 22        	ldy	$22                     ; 0x22 <__rc18>
    1baa: 91 16        	sta	($16),y                 ; 0x16 <__rc6>
    1bac: 18           	clc
    1bad: a5 14        	lda	$14                     ; 0x14 <__rc4>
    1baf: 69 02        	adc	#$2
    1bb1: 85 16        	sta	$16                     ; 0x16 <__rc6>
    1bb3: a5 15        	lda	$15                     ; 0x15 <__rc5>
    1bb5: 69 00        	adc	#$0
    1bb7: 85 17        	sta	$17                     ; 0x17 <__rc7>
    1bb9: a4 18        	ldy	$18                     ; 0x18 <__rc8>
    1bbb: b1 14        	lda	($14),y                 ; 0x14 <__rc4>
    1bbd: 85 18        	sta	$18                     ; 0x18 <__rc8>
    1bbf: a4 22        	ldy	$22                     ; 0x22 <__rc18>
    1bc1: b1 16        	lda	($16),y                 ; 0x16 <__rc6>
    1bc3: 84 1a        	sty	$1a                     ; 0x1a <__rc10>
    1bc5: a4 18        	ldy	$18                     ; 0x18 <__rc8>
    1bc7: 84 16        	sty	$16                     ; 0x16 <__rc6>
    1bc9: 85 17        	sta	$17                     ; 0x17 <__rc7>
    1bcb: 85 19        	sta	$19                     ; 0x19 <__rc9>
    1bcd: a4 1c        	ldy	$1c                     ; 0x1c <__rc12>
    1bcf: a5 1f        	lda	$1f                     ; 0x1f <__rc15>
    1bd1: 91 16        	sta	($16),y                 ; 0x16 <__rc6>
    1bd3: 18           	clc
    1bd4: a5 18        	lda	$18                     ; 0x18 <__rc8>
    1bd6: 69 04        	adc	#$4
    1bd8: 85 18        	sta	$18                     ; 0x18 <__rc8>
    1bda: a5 19        	lda	$19                     ; 0x19 <__rc9>
    1bdc: 69 00        	adc	#$0
    1bde: 85 19        	sta	$19                     ; 0x19 <__rc9>
    1be0: 8a           	txa
    1be1: a4 1a        	ldy	$1a                     ; 0x1a <__rc10>
    1be3: 91 18        	sta	($18),y                 ; 0x18 <__rc8>
    1be5: a6 13        	ldx	$13                     ; 0x13 <__rc3>
    1be7: e4 15        	cpx	$15                     ; 0x15 <__rc5>
    1be9: d0 0e        	bne	$1bf9 <main+0x16e1>
    1beb: a6 12        	ldx	$12                     ; 0x12 <__rc2>
    1bed: e4 14        	cpx	$14                     ; 0x14 <__rc4>
    1bef: d0 08        	bne	$1bf9 <main+0x16e1>
    1bf1: a6 16        	ldx	$16                     ; 0x16 <__rc6>
    1bf3: a4 17        	ldy	$17                     ; 0x17 <__rc7>
    1bf5: 86 9c        	stx	$9c                     ; 0x9c <_ZN12_GLOBAL__N_19free_listE>
    1bf7: 84 9d        	sty	$9d                     ; 0x9d <_ZN12_GLOBAL__N_19free_listE+0x1>
    1bf9: a0 01        	ldy	#$1
    1bfb: b1 14        	lda	($14),y                 ; 0x14 <__rc4>
    1bfd: 85 12        	sta	$12                     ; 0x12 <__rc2>
    1bff: a9 fe        	lda	#$fe
    1c01: 32 14        	and	($14)                   ; 0x14 <__rc4>
    1c03: 18           	clc
    1c04: aa           	tax
    1c05: 69 f8        	adc	#$f8
    1c07: a8           	tay
    1c08: a5 12        	lda	$12                     ; 0x12 <__rc2>
    1c0a: 69 ff        	adc	#$ff
    1c0c: f0 03        	beq	$1c11 <main+0x16f9>
    1c0e: 4c 83 1c     	jmp	$1c83 <main+0x176b>
    1c11: 85 16        	sta	$16                     ; 0x16 <__rc6>
    1c13: c0 08        	cpy	#$8
    1c15: 90 34        	bcc	$1c4b <main+0x1733>
    1c17: a5 14        	lda	$14                     ; 0x14 <__rc4>
    1c19: 18           	clc
    1c1a: 69 08        	adc	#$8
    1c1c: 85 12        	sta	$12                     ; 0x12 <__rc2>
    1c1e: a5 15        	lda	$15                     ; 0x15 <__rc5>
    1c20: 69 00        	adc	#$0
    1c22: 85 13        	sta	$13                     ; 0x13 <__rc3>
    1c24: a6 16        	ldx	$16                     ; 0x16 <__rc6>
    1c26: 98           	tya
    1c27: a4 14        	ldy	$14                     ; 0x14 <__rc4>
    1c29: 84 2c        	sty	$2c                     ; 0x2c <__rc28>
    1c2b: a4 15        	ldy	$15                     ; 0x15 <__rc5>
    1c2d: 84 2d        	sty	$2d                     ; 0x2d <__rc29>
    1c2f: 20 4a 03     	jsr	$34a <_ZN12_GLOBAL__N_19FreeChunk6insertEPvj>
    1c32: a6 2c        	ldx	$2c                     ; 0x2c <__rc28>
    1c34: 86 14        	stx	$14                     ; 0x14 <__rc4>
    1c36: a6 2d        	ldx	$2d                     ; 0x2d <__rc29>
    1c38: 86 15        	stx	$15                     ; 0x15 <__rc5>
    1c3a: a0 01        	ldy	#$1
    1c3c: 98           	tya
    1c3d: 32 2c        	and	($2c)                   ; 0x2c <__rc28>
    1c3f: 09 08        	ora	#$8
    1c41: 92 2c        	sta	($2c)                   ; 0x2c <__rc28>
    1c43: a2 08        	ldx	#$8
    1c45: 64 12        	stz	$12                     ; 0x12 <__rc2>
    1c47: a9 00        	lda	#$0
    1c49: 91 2c        	sta	($2c),y                 ; 0x2c <__rc28>
    1c4b: 18           	clc
    1c4c: 8a           	txa
    1c4d: 65 14        	adc	$14                     ; 0x14 <__rc4>
    1c4f: aa           	tax
    1c50: a5 12        	lda	$12                     ; 0x12 <__rc2>
    1c52: 65 15        	adc	$15                     ; 0x15 <__rc5>
    1c54: 85 13        	sta	$13                     ; 0x13 <__rc3>
    1c56: c5 24        	cmp	$24                     ; 0x24 <__rc20>
    1c58: d0 0e        	bne	$1c68 <main+0x1750>
    1c5a: a0 08        	ldy	#$8
    1c5c: b1 10        	lda	($10),y                 ; 0x10 <__rc0>
    1c5e: 85 12        	sta	$12                     ; 0x12 <__rc2>
    1c60: e4 12        	cpx	$12                     ; 0x12 <__rc2>
    1c62: d0 04        	bne	$1c68 <main+0x1750>
    1c64: 64 99        	stz	$99                     ; 0x99 <_ZN12_GLOBAL__N_19last_freeE>
    1c66: 80 12        	bra	$1c7a <main+0x1762>
    1c68: 86 12        	stx	$12                     ; 0x12 <__rc2>
    1c6a: a0 01        	ldy	#$1
    1c6c: b1 12        	lda	($12),y                 ; 0x12 <__rc2>
    1c6e: 85 16        	sta	$16                     ; 0x16 <__rc6>
    1c70: a9 fe        	lda	#$fe
    1c72: 32 12        	and	($12)                   ; 0x12 <__rc2>
    1c74: 92 12        	sta	($12)                   ; 0x12 <__rc2>
    1c76: a5 16        	lda	$16                     ; 0x16 <__rc6>
    1c78: 91 12        	sta	($12),y                 ; 0x12 <__rc2>
    1c7a: a0 02        	ldy	#$2
    1c7c: a5 2e        	lda	$2e                     ; 0x2e <__rc30>
    1c7e: 91 14        	sta	($14),y                 ; 0x14 <__rc4>
    1c80: 4c 41 12     	jmp	$1241 <main+0xd29>
    1c83: 85 16        	sta	$16                     ; 0x16 <__rc6>
    1c85: c9 00        	cmp	#$0
    1c87: 90 c2        	bcc	$1c4b <main+0x1733>
    1c89: 4c 17 1c     	jmp	$1c17 <main+0x16ff>
    1c8c: e0 92        	cpx	#$92
    1c8e: d0 03        	bne	$1c93 <main+0x177b>
    1c90: 4c 90 23     	jmp	$2390 <main+0x1e78>
    1c93: a5 77        	lda	$77                     ; 0x77 <wantSound>
    1c95: 29 01        	and	#$1
    1c97: f0 03        	beq	$1c9c <main+0x1784>
    1c99: 4c 27 21     	jmp	$2127 <main+0x1c0f>
    1c9c: ad 60 d6     	lda	$d660                   ; 0xd660 <end_block9+0xa0dc>
    1c9f: 29 10        	and	#$10
    1ca1: aa           	tax
    1ca2: a5 97        	lda	$97                     ; 0x97 <comeRightTrough>
    1ca4: 29 01        	and	#$1
    1ca6: e0 00        	cpx	#$0
    1ca8: d0 06        	bne	$1cb0 <main+0x1798>
    1caa: aa           	tax
    1cab: d0 0b        	bne	$1cb8 <main+0x17a0>
    1cad: 4c 27 21     	jmp	$2127 <main+0x1c0f>
    1cb0: aa           	tax
    1cb1: d0 05        	bne	$1cb8 <main+0x17a0>
    1cb3: a2 10        	ldx	#$10
    1cb5: 8e 60 d6     	stx	$d660                   ; 0xd660 <end_block9+0xa0dc>
    1cb8: a6 83        	ldx	$83                     ; 0x83 <tooBigWait>
    1cba: 86 16        	stx	$16                     ; 0x16 <__rc6>
    1cbc: a5 84        	lda	$84                     ; 0x84 <tooBigWait+0x1>
    1cbe: a4 85        	ldy	$85                     ; 0x85 <tooBigWait+0x2>
    1cc0: a6 86        	ldx	$86                     ; 0x86 <tooBigWait+0x3>
    1cc2: d0 0e        	bne	$1cd2 <main+0x17ba>
    1cc4: c0 00        	cpy	#$0
    1cc6: d0 0a        	bne	$1cd2 <main+0x17ba>
    1cc8: c9 00        	cmp	#$0
    1cca: d0 06        	bne	$1cd2 <main+0x17ba>
    1ccc: e6 16        	inc	$16                     ; 0x16 <__rc6>
    1cce: c6 16        	dec	$16                     ; 0x16 <__rc6>
    1cd0: f0 08        	beq	$1cda <main+0x17c2>
    1cd2: 85 13        	sta	$13                     ; 0x13 <__rc3>
    1cd4: a5 97        	lda	$97                     ; 0x97 <comeRightTrough>
    1cd6: 29 01        	and	#$1
    1cd8: f0 28        	beq	$1d02 <main+0x17ea>
    1cda: 64 97        	stz	$97                     ; 0x97 <comeRightTrough>
    1cdc: a6 8f        	ldx	$8f                     ; 0x8f <needle>
    1cde: 86 16        	stx	$16                     ; 0x16 <__rc6>
    1ce0: a6 90        	ldx	$90                     ; 0x90 <needle+0x1>
    1ce2: 86 17        	stx	$17                     ; 0x17 <__rc7>
    1ce4: a4 91        	ldy	$91                     ; 0x91 <needle+0x2>
    1ce6: a6 92        	ldx	$92                     ; 0x92 <needle+0x3>
    1ce8: d0 40        	bne	$1d2a <main+0x1812>
    1cea: c0 10        	cpy	#$10
    1cec: f0 03        	beq	$1cf1 <main+0x17d9>
    1cee: 4c a7 1d     	jmp	$1da7 <main+0x188f>
    1cf1: a5 17        	lda	$17                     ; 0x17 <__rc7>
    1cf3: c9 22        	cmp	#$22
    1cf5: f0 03        	beq	$1cfa <main+0x17e2>
    1cf7: 4c 12 1e     	jmp	$1e12 <main+0x18fa>
    1cfa: a5 16        	lda	$16                     ; 0x16 <__rc6>
    1cfc: c9 e0        	cmp	#$e0
    1cfe: b0 2e        	bcs	$1d2e <main+0x1816>
    1d00: 80 3c        	bra	$1d3e <main+0x1826>
    1d02: 84 14        	sty	$14                     ; 0x14 <__rc4>
    1d04: a9 02        	lda	#$2
    1d06: 8d 50 d6     	sta	$d650                   ; 0xd650 <end_block9+0xa0cc>
    1d09: e0 01        	cpx	#$1
    1d0b: f0 03        	beq	$1d10 <main+0x17f8>
    1d0d: 4c 9d 1d     	jmp	$1d9d <main+0x1885>
    1d10: a5 14        	lda	$14                     ; 0x14 <__rc4>
    1d12: f0 03        	beq	$1d17 <main+0x17ff>
    1d14: 4c b1 1d     	jmp	$1db1 <main+0x1899>
    1d17: a5 13        	lda	$13                     ; 0x13 <__rc3>
    1d19: f0 03        	beq	$1d1e <main+0x1806>
    1d1b: 4c 1c 1e     	jmp	$1e1c <main+0x1904>
    1d1e: a6 16        	ldx	$16                     ; 0x16 <__rc6>
    1d20: e0 00        	cpx	#$0
    1d22: b0 03        	bcs	$1d27 <main+0x180f>
    1d24: 4c 25 1e     	jmp	$1e25 <main+0x190d>
    1d27: 4c e0 20     	jmp	$20e0 <main+0x1bc8>
    1d2a: e0 00        	cpx	#$0
    1d2c: 90 10        	bcc	$1d3e <main+0x1826>
    1d2e: 64 93        	stz	$93                     ; 0x93 <samplesSoFar>
    1d30: 64 94        	stz	$94                     ; 0x94 <samplesSoFar+0x1>
    1d32: 64 95        	stz	$95                     ; 0x95 <samplesSoFar+0x2>
    1d34: 64 96        	stz	$96                     ; 0x96 <samplesSoFar+0x3>
    1d36: a0 10        	ldy	#$10
    1d38: 64 16        	stz	$16                     ; 0x16 <__rc6>
    1d3a: 64 17        	stz	$17                     ; 0x17 <__rc7>
    1d3c: a2 00        	ldx	#$0
    1d3e: a5 17        	lda	$17                     ; 0x17 <__rc7>
    1d40: 85 12        	sta	$12                     ; 0x12 <__rc2>
    1d42: 86 13        	stx	$13                     ; 0x13 <__rc3>
    1d44: a5 16        	lda	$16                     ; 0x16 <__rc6>
    1d46: 85 14        	sta	$14                     ; 0x14 <__rc4>
    1d48: 84 15        	sty	$15                     ; 0x15 <__rc5>
    1d4a: e6 14        	inc	$14                     ; 0x14 <__rc4>
    1d4c: d0 0a        	bne	$1d58 <main+0x1840>
    1d4e: e6 12        	inc	$12                     ; 0x12 <__rc2>
    1d50: d0 06        	bne	$1d58 <main+0x1840>
    1d52: e6 15        	inc	$15                     ; 0x15 <__rc5>
    1d54: d0 02        	bne	$1d58 <main+0x1840>
    1d56: e6 13        	inc	$13                     ; 0x13 <__rc3>
    1d58: a5 14        	lda	$14                     ; 0x14 <__rc4>
    1d5a: 85 8f        	sta	$8f                     ; 0x8f <needle>
    1d5c: a5 12        	lda	$12                     ; 0x12 <__rc2>
    1d5e: 85 90        	sta	$90                     ; 0x90 <needle+0x1>
    1d60: a5 15        	lda	$15                     ; 0x15 <__rc5>
    1d62: 85 91        	sta	$91                     ; 0x91 <needle+0x2>
    1d64: a5 13        	lda	$13                     ; 0x13 <__rc3>
    1d66: 85 92        	sta	$92                     ; 0x92 <needle+0x3>
    1d68: 84 12        	sty	$12                     ; 0x12 <__rc2>
    1d6a: 86 13        	stx	$13                     ; 0x13 <__rc3>
    1d6c: a6 17        	ldx	$17                     ; 0x17 <__rc7>
    1d6e: a5 16        	lda	$16                     ; 0x16 <__rc6>
    1d70: 20 d2 04     	jsr	$4d2 <PEEK24>
    1d73: 18           	clc
    1d74: 69 60        	adc	#$60
    1d76: c9 c8        	cmp	#$c8
    1d78: 90 03        	bcc	$1d7d <main+0x1865>
    1d7a: 4c f7 1d     	jmp	$1df7 <main+0x18df>
    1d7d: aa           	tax
    1d7e: bc a9 30     	ldy	$30a9,x                 ; 0x30a9 <__BLOCK_SIZE+0x10a9>
    1d81: bd 71 31     	lda	$3171,x                 ; 0x3171 <__BLOCK_SIZE+0x1171>
    1d84: aa           	tax
    1d85: 84 12        	sty	$12                     ; 0x12 <__rc2>
    1d87: 86 13        	stx	$13                     ; 0x13 <__rc3>
    1d89: 6c 12 00     	jmp	($12)                   ; 0x12 <__rc2>
    1d8c: a5 8f        	lda	$8f                     ; 0x8f <needle>
    1d8e: a6 90        	ldx	$90                     ; 0x90 <needle+0x1>
    1d90: 86 12        	stx	$12                     ; 0x12 <__rc2>
    1d92: a4 91        	ldy	$91                     ; 0x91 <needle+0x2>
    1d94: a6 92        	ldx	$92                     ; 0x92 <needle+0x3>
    1d96: 86 13        	stx	$13                     ; 0x13 <__rc3>
    1d98: 18           	clc
    1d99: 69 02        	adc	#$2
    1d9b: 80 3e        	bra	$1ddb <main+0x18c3>
    1d9d: e0 01        	cpx	#$1
    1d9f: b0 03        	bcs	$1da4 <main+0x188c>
    1da1: 4c 25 1e     	jmp	$1e25 <main+0x190d>
    1da4: 4c e0 20     	jmp	$20e0 <main+0x1bc8>
    1da7: c0 10        	cpy	#$10
    1da9: 90 03        	bcc	$1dae <main+0x1896>
    1dab: 4c 2e 1d     	jmp	$1d2e <main+0x1816>
    1dae: 4c 3e 1d     	jmp	$1d3e <main+0x1826>
    1db1: c0 00        	cpy	#$0
    1db3: b0 03        	bcs	$1db8 <main+0x18a0>
    1db5: 4c 25 1e     	jmp	$1e25 <main+0x190d>
    1db8: 4c e0 20     	jmp	$20e0 <main+0x1bc8>
    1dbb: a5 8f        	lda	$8f                     ; 0x8f <needle>
    1dbd: a6 90        	ldx	$90                     ; 0x90 <needle+0x1>
    1dbf: 86 12        	stx	$12                     ; 0x12 <__rc2>
    1dc1: a4 91        	ldy	$91                     ; 0x91 <needle+0x2>
    1dc3: a6 92        	ldx	$92                     ; 0x92 <needle+0x3>
    1dc5: 86 13        	stx	$13                     ; 0x13 <__rc3>
    1dc7: 18           	clc
    1dc8: 69 04        	adc	#$4
    1dca: 80 0f        	bra	$1ddb <main+0x18c3>
    1dcc: a5 8f        	lda	$8f                     ; 0x8f <needle>
    1dce: a6 90        	ldx	$90                     ; 0x90 <needle+0x1>
    1dd0: 86 12        	stx	$12                     ; 0x12 <__rc2>
    1dd2: a4 91        	ldy	$91                     ; 0x91 <needle+0x2>
    1dd4: a6 92        	ldx	$92                     ; 0x92 <needle+0x3>
    1dd6: 86 13        	stx	$13                     ; 0x13 <__rc3>
    1dd8: 18           	clc
    1dd9: 69 03        	adc	#$3
    1ddb: aa           	tax
    1ddc: a5 12        	lda	$12                     ; 0x12 <__rc2>
    1dde: 69 00        	adc	#$0
    1de0: 85 12        	sta	$12                     ; 0x12 <__rc2>
    1de2: 98           	tya
    1de3: 69 00        	adc	#$0
    1de5: 85 14        	sta	$14                     ; 0x14 <__rc4>
    1de7: a5 13        	lda	$13                     ; 0x13 <__rc3>
    1de9: 69 00        	adc	#$0
    1deb: 86 8f        	stx	$8f                     ; 0x8f <needle>
    1ded: a6 12        	ldx	$12                     ; 0x12 <__rc2>
    1def: 86 90        	stx	$90                     ; 0x90 <needle+0x1>
    1df1: a6 14        	ldx	$14                     ; 0x14 <__rc4>
    1df3: 86 91        	stx	$91                     ; 0x91 <needle+0x2>
    1df5: 85 92        	sta	$92                     ; 0x92 <needle+0x3>
    1df7: a0 01        	ldy	#$1
    1df9: a2 01        	ldx	#$1
    1dfb: 86 2a        	stx	$2a                     ; 0x2a <__rc26>
    1dfd: 84 97        	sty	$97                     ; 0x97 <comeRightTrough>
    1dff: 4c 27 21     	jmp	$2127 <main+0x1c0f>
    1e02: e6 8f        	inc	$8f                     ; 0x8f <needle>
    1e04: d0 0a        	bne	$1e10 <main+0x18f8>
    1e06: e6 90        	inc	$90                     ; 0x90 <needle+0x1>
    1e08: d0 06        	bne	$1e10 <main+0x18f8>
    1e0a: e6 91        	inc	$91                     ; 0x91 <needle+0x2>
    1e0c: d0 02        	bne	$1e10 <main+0x18f8>
    1e0e: e6 92        	inc	$92                     ; 0x92 <needle+0x3>
    1e10: 80 e5        	bra	$1df7 <main+0x18df>
    1e12: c9 22        	cmp	#$22
    1e14: 90 03        	bcc	$1e19 <main+0x1901>
    1e16: 4c 2e 1d     	jmp	$1d2e <main+0x1816>
    1e19: 4c 3e 1d     	jmp	$1d3e <main+0x1826>
    1e1c: a6 13        	ldx	$13                     ; 0x13 <__rc3>
    1e1e: e0 00        	cpx	#$0
    1e20: 90 03        	bcc	$1e25 <main+0x190d>
    1e22: 4c e0 20     	jmp	$20e0 <main+0x1bc8>
    1e25: a6 16        	ldx	$16                     ; 0x16 <__rc6>
    1e27: 8e 55 d6     	stx	$d655                   ; 0xd655 <end_block9+0xa0d1>
    1e2a: a6 13        	ldx	$13                     ; 0x13 <__rc3>
    1e2c: 8e 56 d6     	stx	$d656                   ; 0xd656 <end_block9+0xa0d2>
    1e2f: 8c 57 d6     	sty	$d657                   ; 0xd657 <end_block9+0xa0d3>
    1e32: 9c 54 d6     	stz	$d654                   ; 0xd654 <end_block9+0xa0d0>
    1e35: a0 02        	ldy	#$2
    1e37: a2 02        	ldx	#$2
    1e39: 86 25        	stx	$25                     ; 0x25 <__rc21>
    1e3b: 8c 50 d6     	sty	$d650                   ; 0xd650 <end_block9+0xa0cc>
    1e3e: a2 89        	ldx	#$89
    1e40: 8e 50 d6     	stx	$d650                   ; 0xd650 <end_block9+0xa0cc>
    1e43: 64 83        	stz	$83                     ; 0x83 <tooBigWait>
    1e45: 64 84        	stz	$84                     ; 0x84 <tooBigWait+0x1>
    1e47: 64 85        	stz	$85                     ; 0x85 <tooBigWait+0x2>
    1e49: 64 86        	stz	$86                     ; 0x86 <tooBigWait+0x3>
    1e4b: 4c 27 21     	jmp	$2127 <main+0x1c0f>
    1e4e: a6 8f        	ldx	$8f                     ; 0x8f <needle>
    1e50: 86 14        	stx	$14                     ; 0x14 <__rc4>
    1e52: a5 90        	lda	$90                     ; 0x90 <needle+0x1>
    1e54: a4 91        	ldy	$91                     ; 0x91 <needle+0x2>
    1e56: a6 92        	ldx	$92                     ; 0x92 <needle+0x3>
    1e58: e6 8f        	inc	$8f                     ; 0x8f <needle>
    1e5a: d0 0b        	bne	$1e67 <main+0x194f>
    1e5c: e6 90        	inc	$90                     ; 0x90 <needle+0x1>
    1e5e: d0 07        	bne	$1e67 <main+0x194f>
    1e60: e6 91        	inc	$91                     ; 0x91 <needle+0x2>
    1e62: d0 03        	bne	$1e67 <main+0x194f>
    1e64: 4c 05 24     	jmp	$2405 <main+0x1eed>
    1e67: 84 12        	sty	$12                     ; 0x12 <__rc2>
    1e69: 86 13        	stx	$13                     ; 0x13 <__rc3>
    1e6b: aa           	tax
    1e6c: a5 14        	lda	$14                     ; 0x14 <__rc4>
    1e6e: 20 d2 04     	jsr	$4d2 <PEEK24>
    1e71: 85 26        	sta	$26                     ; 0x26 <__rc22>
    1e73: a6 8f        	ldx	$8f                     ; 0x8f <needle>
    1e75: 86 14        	stx	$14                     ; 0x14 <__rc4>
    1e77: a5 90        	lda	$90                     ; 0x90 <needle+0x1>
    1e79: a4 91        	ldy	$91                     ; 0x91 <needle+0x2>
    1e7b: a6 92        	ldx	$92                     ; 0x92 <needle+0x3>
    1e7d: e6 8f        	inc	$8f                     ; 0x8f <needle>
    1e7f: d0 0b        	bne	$1e8c <main+0x1974>
    1e81: e6 90        	inc	$90                     ; 0x90 <needle+0x1>
    1e83: d0 07        	bne	$1e8c <main+0x1974>
    1e85: e6 91        	inc	$91                     ; 0x91 <needle+0x2>
    1e87: d0 03        	bne	$1e8c <main+0x1974>
    1e89: 4c 0a 24     	jmp	$240a <main+0x1ef2>
    1e8c: 84 12        	sty	$12                     ; 0x12 <__rc2>
    1e8e: 86 13        	stx	$13                     ; 0x13 <__rc3>
    1e90: aa           	tax
    1e91: a5 14        	lda	$14                     ; 0x14 <__rc4>
    1e93: 20 d2 04     	jsr	$4d2 <PEEK24>
    1e96: aa           	tax
    1e97: a5 26        	lda	$26                     ; 0x26 <__rc22>
    1e99: 8d 80 d5     	sta	$d580                   ; 0xd580 <end_block9+0x9ffc>
    1e9c: 8e 81 d5     	stx	$d581                   ; 0xd581 <end_block9+0x9ffd>
    1e9f: 64 12        	stz	$12                     ; 0x12 <__rc2>
    1ea1: 20 18 29     	jsr	$2918 <opl3_shadow>
    1ea4: 4c f7 1d     	jmp	$1df7 <main+0x18df>
    1ea7: a6 8f        	ldx	$8f                     ; 0x8f <needle>
    1ea9: 86 14        	stx	$14                     ; 0x14 <__rc4>
    1eab: a5 90        	lda	$90                     ; 0x90 <needle+0x1>
    1ead: a4 91        	ldy	$91                     ; 0x91 <needle+0x2>
    1eaf: a6 92        	ldx	$92                     ; 0x92 <needle+0x3>
    1eb1: e6 8f        	inc	$8f                     ; 0x8f <needle>
    1eb3: d0 07        	bne	$1ebc <main+0x19a4>
    1eb5: e6 90        	inc	$90                     ; 0x90 <needle+0x1>
    1eb7: d0 03        	bne	$1ebc <main+0x19a4>
    1eb9: 4c f3 23     	jmp	$23f3 <main+0x1edb>
    1ebc: 84 12        	sty	$12                     ; 0x12 <__rc2>
    1ebe: 86 13        	stx	$13                     ; 0x13 <__rc3>
    1ec0: aa           	tax
    1ec1: a5 14        	lda	$14                     ; 0x14 <__rc4>
    1ec3: 20 d2 04     	jsr	$4d2 <PEEK24>
    1ec6: 85 26        	sta	$26                     ; 0x26 <__rc22>
    1ec8: a6 8f        	ldx	$8f                     ; 0x8f <needle>
    1eca: 86 14        	stx	$14                     ; 0x14 <__rc4>
    1ecc: a5 90        	lda	$90                     ; 0x90 <needle+0x1>
    1ece: a4 91        	ldy	$91                     ; 0x91 <needle+0x2>
    1ed0: a6 92        	ldx	$92                     ; 0x92 <needle+0x3>
    1ed2: e6 8f        	inc	$8f                     ; 0x8f <needle>
    1ed4: d0 07        	bne	$1edd <main+0x19c5>
    1ed6: e6 90        	inc	$90                     ; 0x90 <needle+0x1>
    1ed8: d0 03        	bne	$1edd <main+0x19c5>
    1eda: 4c fc 23     	jmp	$23fc <main+0x1ee4>
    1edd: 84 12        	sty	$12                     ; 0x12 <__rc2>
    1edf: 86 13        	stx	$13                     ; 0x13 <__rc3>
    1ee1: aa           	tax
    1ee2: a5 14        	lda	$14                     ; 0x14 <__rc4>
    1ee4: 20 d2 04     	jsr	$4d2 <PEEK24>
    1ee7: 85 2c        	sta	$2c                     ; 0x2c <__rc28>
    1ee9: 18           	clc
    1eea: a5 26        	lda	$26                     ; 0x26 <__rc22>
    1eec: 65 93        	adc	$93                     ; 0x93 <samplesSoFar>
    1eee: a8           	tay
    1eef: a5 2c        	lda	$2c                     ; 0x2c <__rc28>
    1ef1: 65 94        	adc	$94                     ; 0x94 <samplesSoFar+0x1>
    1ef3: 85 13        	sta	$13                     ; 0x13 <__rc3>
    1ef5: a9 00        	lda	#$0
    1ef7: 65 95        	adc	$95                     ; 0x95 <samplesSoFar+0x2>
    1ef9: aa           	tax
    1efa: a9 00        	lda	#$0
    1efc: 65 96        	adc	$96                     ; 0x96 <samplesSoFar+0x3>
    1efe: 84 93        	sty	$93                     ; 0x93 <samplesSoFar>
    1f00: a4 13        	ldy	$13                     ; 0x13 <__rc3>
    1f02: 84 94        	sty	$94                     ; 0x94 <samplesSoFar+0x1>
    1f04: 86 95        	stx	$95                     ; 0x95 <samplesSoFar+0x2>
    1f06: 85 96        	sta	$96                     ; 0x96 <samplesSoFar+0x3>
    1f08: 64 12        	stz	$12                     ; 0x12 <__rc2>
    1f0a: 64 13        	stz	$13                     ; 0x13 <__rc3>
    1f0c: a6 2b        	ldx	$2b                     ; 0x2b <__rc27>
    1f0e: 86 14        	stx	$14                     ; 0x14 <__rc4>
    1f10: a6 25        	ldx	$25                     ; 0x25 <__rc21>
    1f12: 86 15        	stx	$15                     ; 0x15 <__rc5>
    1f14: 64 16        	stz	$16                     ; 0x16 <__rc6>
    1f16: 64 24        	stz	$24                     ; 0x24 <__rc20>
    1f18: 64 17        	stz	$17                     ; 0x17 <__rc7>
    1f1a: a6 2c        	ldx	$2c                     ; 0x2c <__rc28>
    1f1c: a5 26        	lda	$26                     ; 0x26 <__rc22>
    1f1e: 20 2d 30     	jsr	$302d <__mulsi3>
    1f21: a8           	tay
    1f22: 8a           	txa
    1f23: a6 12        	ldx	$12                     ; 0x12 <__rc2>
    1f25: 84 15        	sty	$15                     ; 0x15 <__rc5>
    1f27: 84 83        	sty	$83                     ; 0x83 <tooBigWait>
    1f29: 85 14        	sta	$14                     ; 0x14 <__rc4>
    1f2b: 85 84        	sta	$84                     ; 0x84 <tooBigWait+0x1>
    1f2d: a5 12        	lda	$12                     ; 0x12 <__rc2>
    1f2f: 86 85        	stx	$85                     ; 0x85 <tooBigWait+0x2>
    1f31: a6 13        	ldx	$13                     ; 0x13 <__rc3>
    1f33: 86 86        	stx	$86                     ; 0x86 <tooBigWait+0x3>
    1f35: a6 25        	ldx	$25                     ; 0x25 <__rc21>
    1f37: 8e 50 d6     	stx	$d650                   ; 0xd650 <end_block9+0xa0cc>
    1f3a: a4 2c        	ldy	$2c                     ; 0x2c <__rc28>
    1f3c: c0 72        	cpy	#$72
    1f3e: f0 03        	beq	$1f43 <main+0x1a2b>
    1f40: 4c d9 20     	jmp	$20d9 <main+0x1bc1>
    1f43: a4 26        	ldy	$26                     ; 0x26 <__rc22>
    1f45: c0 fa        	cpy	#$fa
    1f47: 90 03        	bcc	$1f4c <main+0x1a34>
    1f49: 4c e0 20     	jmp	$20e0 <main+0x1bc8>
    1f4c: a6 15        	ldx	$15                     ; 0x15 <__rc5>
    1f4e: 8e 55 d6     	stx	$d655                   ; 0xd655 <end_block9+0xa0d1>
    1f51: a6 14        	ldx	$14                     ; 0x14 <__rc4>
    1f53: 8e 56 d6     	stx	$d656                   ; 0xd656 <end_block9+0xa0d2>
    1f56: 8d 57 d6     	sta	$d657                   ; 0xd657 <end_block9+0xa0d3>
    1f59: 4c 32 1e     	jmp	$1e32 <main+0x191a>
    1f5c: a0 02        	ldy	#$2
    1f5e: 8c 50 d6     	sty	$d650                   ; 0xd650 <end_block9+0xa0cc>
    1f61: a2 66        	ldx	#$66
    1f63: 8e 55 d6     	stx	$d655                   ; 0xd655 <end_block9+0xa0d1>
    1f66: 8e 56 d6     	stx	$d656                   ; 0xd656 <end_block9+0xa0d2>
    1f69: a2 06        	ldx	#$6
    1f6b: 8e 57 d6     	stx	$d657                   ; 0xd657 <end_block9+0xa0d3>
    1f6e: 9c 54 d6     	stz	$d654                   ; 0xd654 <end_block9+0xa0d0>
    1f71: a2 02        	ldx	#$2
    1f73: 86 25        	stx	$25                     ; 0x25 <__rc21>
    1f75: 8c 50 d6     	sty	$d650                   ; 0xd650 <end_block9+0xa0cc>
    1f78: a2 89        	ldx	#$89
    1f7a: 8e 50 d6     	stx	$d650                   ; 0xd650 <end_block9+0xa0cc>
    1f7d: a5 93        	lda	$93                     ; 0x93 <samplesSoFar>
    1f7f: a6 94        	ldx	$94                     ; 0x94 <samplesSoFar+0x1>
    1f81: 86 12        	stx	$12                     ; 0x12 <__rc2>
    1f83: a4 95        	ldy	$95                     ; 0x95 <samplesSoFar+0x2>
    1f85: a6 96        	ldx	$96                     ; 0x96 <samplesSoFar+0x3>
    1f87: 86 13        	stx	$13                     ; 0x13 <__rc3>
    1f89: 18           	clc
    1f8a: 69 df        	adc	#$df
    1f8c: aa           	tax
    1f8d: a5 12        	lda	$12                     ; 0x12 <__rc2>
    1f8f: 69 02        	adc	#$2
    1f91: 4c c0 20     	jmp	$20c0 <main+0x1ba8>
    1f94: a5 8f        	lda	$8f                     ; 0x8f <needle>
    1f96: a6 90        	ldx	$90                     ; 0x90 <needle+0x1>
    1f98: 86 15        	stx	$15                     ; 0x15 <__rc5>
    1f9a: a6 91        	ldx	$91                     ; 0x91 <needle+0x2>
    1f9c: 86 16        	stx	$16                     ; 0x16 <__rc6>
    1f9e: a6 92        	ldx	$92                     ; 0x92 <needle+0x3>
    1fa0: 86 13        	stx	$13                     ; 0x13 <__rc3>
    1fa2: 18           	clc
    1fa3: 69 02        	adc	#$2
    1fa5: 85 14        	sta	$14                     ; 0x14 <__rc4>
    1fa7: a5 15        	lda	$15                     ; 0x15 <__rc5>
    1fa9: 69 00        	adc	#$0
    1fab: aa           	tax
    1fac: a5 16        	lda	$16                     ; 0x16 <__rc6>
    1fae: 69 00        	adc	#$0
    1fb0: a8           	tay
    1fb1: a5 13        	lda	$13                     ; 0x13 <__rc3>
    1fb3: 69 00        	adc	#$0
    1fb5: 85 13        	sta	$13                     ; 0x13 <__rc3>
    1fb7: a5 14        	lda	$14                     ; 0x14 <__rc4>
    1fb9: 85 8f        	sta	$8f                     ; 0x8f <needle>
    1fbb: 86 90        	stx	$90                     ; 0x90 <needle+0x1>
    1fbd: 98           	tya
    1fbe: 84 91        	sty	$91                     ; 0x91 <needle+0x2>
    1fc0: a4 13        	ldy	$13                     ; 0x13 <__rc3>
    1fc2: 84 92        	sty	$92                     ; 0x92 <needle+0x3>
    1fc4: 85 12        	sta	$12                     ; 0x12 <__rc2>
    1fc6: a5 14        	lda	$14                     ; 0x14 <__rc4>
    1fc8: 20 d2 04     	jsr	$4d2 <PEEK24>
    1fcb: a5 8f        	lda	$8f                     ; 0x8f <needle>
    1fcd: a6 90        	ldx	$90                     ; 0x90 <needle+0x1>
    1fcf: a4 91        	ldy	$91                     ; 0x91 <needle+0x2>
    1fd1: 84 12        	sty	$12                     ; 0x12 <__rc2>
    1fd3: a4 92        	ldy	$92                     ; 0x92 <needle+0x3>
    1fd5: 1a           	inc
    1fd6: d0 06        	bne	$1fde <main+0x1ac6>
    1fd8: e8           	inx
    1fd9: d0 03        	bne	$1fde <main+0x1ac6>
    1fdb: 4c 0f 24     	jmp	$240f <main+0x1ef7>
    1fde: 84 13        	sty	$13                     ; 0x13 <__rc3>
    1fe0: 20 d2 04     	jsr	$4d2 <PEEK24>
    1fe3: a5 8f        	lda	$8f                     ; 0x8f <needle>
    1fe5: a6 90        	ldx	$90                     ; 0x90 <needle+0x1>
    1fe7: a4 91        	ldy	$91                     ; 0x91 <needle+0x2>
    1fe9: 84 13        	sty	$13                     ; 0x13 <__rc3>
    1feb: a4 92        	ldy	$92                     ; 0x92 <needle+0x3>
    1fed: 18           	clc
    1fee: 69 02        	adc	#$2
    1ff0: 85 14        	sta	$14                     ; 0x14 <__rc4>
    1ff2: 8a           	txa
    1ff3: 69 00        	adc	#$0
    1ff5: aa           	tax
    1ff6: a5 13        	lda	$13                     ; 0x13 <__rc3>
    1ff8: 69 00        	adc	#$0
    1ffa: 85 12        	sta	$12                     ; 0x12 <__rc2>
    1ffc: 98           	tya
    1ffd: 69 00        	adc	#$0
    1fff: 85 13        	sta	$13                     ; 0x13 <__rc3>
    2001: a5 14        	lda	$14                     ; 0x14 <__rc4>
    2003: 20 d2 04     	jsr	$4d2 <PEEK24>
    2006: a5 8f        	lda	$8f                     ; 0x8f <needle>
    2008: a6 90        	ldx	$90                     ; 0x90 <needle+0x1>
    200a: a4 91        	ldy	$91                     ; 0x91 <needle+0x2>
    200c: 84 13        	sty	$13                     ; 0x13 <__rc3>
    200e: a4 92        	ldy	$92                     ; 0x92 <needle+0x3>
    2010: 18           	clc
    2011: 69 03        	adc	#$3
    2013: 85 14        	sta	$14                     ; 0x14 <__rc4>
    2015: 8a           	txa
    2016: 69 00        	adc	#$0
    2018: aa           	tax
    2019: a5 13        	lda	$13                     ; 0x13 <__rc3>
    201b: 69 00        	adc	#$0
    201d: 85 12        	sta	$12                     ; 0x12 <__rc2>
    201f: 98           	tya
    2020: 69 00        	adc	#$0
    2022: 85 13        	sta	$13                     ; 0x13 <__rc3>
    2024: a5 14        	lda	$14                     ; 0x14 <__rc4>
    2026: 20 d2 04     	jsr	$4d2 <PEEK24>
    2029: 4c 27 21     	jmp	$2127 <main+0x1c0f>
    202c: a6 8f        	ldx	$8f                     ; 0x8f <needle>
    202e: 86 14        	stx	$14                     ; 0x14 <__rc4>
    2030: a5 90        	lda	$90                     ; 0x90 <needle+0x1>
    2032: a4 91        	ldy	$91                     ; 0x91 <needle+0x2>
    2034: a6 92        	ldx	$92                     ; 0x92 <needle+0x3>
    2036: e6 8f        	inc	$8f                     ; 0x8f <needle>
    2038: d0 07        	bne	$2041 <main+0x1b29>
    203a: e6 90        	inc	$90                     ; 0x90 <needle+0x1>
    203c: d0 03        	bne	$2041 <main+0x1b29>
    203e: 4c 17 24     	jmp	$2417 <main+0x1eff>
    2041: 84 12        	sty	$12                     ; 0x12 <__rc2>
    2043: 86 13        	stx	$13                     ; 0x13 <__rc3>
    2045: aa           	tax
    2046: a5 14        	lda	$14                     ; 0x14 <__rc4>
    2048: 20 d2 04     	jsr	$4d2 <PEEK24>
    204b: 85 26        	sta	$26                     ; 0x26 <__rc22>
    204d: a6 8f        	ldx	$8f                     ; 0x8f <needle>
    204f: 86 14        	stx	$14                     ; 0x14 <__rc4>
    2051: a5 90        	lda	$90                     ; 0x90 <needle+0x1>
    2053: a4 91        	ldy	$91                     ; 0x91 <needle+0x2>
    2055: a6 92        	ldx	$92                     ; 0x92 <needle+0x3>
    2057: e6 8f        	inc	$8f                     ; 0x8f <needle>
    2059: d0 07        	bne	$2062 <main+0x1b4a>
    205b: e6 90        	inc	$90                     ; 0x90 <needle+0x1>
    205d: d0 03        	bne	$2062 <main+0x1b4a>
    205f: 4c 20 24     	jmp	$2420 <main+0x1f08>
    2062: 84 12        	sty	$12                     ; 0x12 <__rc2>
    2064: 86 13        	stx	$13                     ; 0x13 <__rc3>
    2066: aa           	tax
    2067: a5 14        	lda	$14                     ; 0x14 <__rc4>
    2069: 20 d2 04     	jsr	$4d2 <PEEK24>
    206c: aa           	tax
    206d: a5 26        	lda	$26                     ; 0x26 <__rc22>
    206f: 8d 82 d5     	sta	$d582                   ; 0xd582 <end_block9+0x9ffe>
    2072: 8e 81 d5     	stx	$d581                   ; 0xd581 <end_block9+0x9ffd>
    2075: a4 2a        	ldy	$2a                     ; 0x2a <__rc26>
    2077: 84 12        	sty	$12                     ; 0x12 <__rc2>
    2079: 84 26        	sty	$26                     ; 0x26 <__rc22>
    207b: 20 18 29     	jsr	$2918 <opl3_shadow>
    207e: a2 01        	ldx	#$1
    2080: 86 2a        	stx	$2a                     ; 0x2a <__rc26>
    2082: a6 26        	ldx	$26                     ; 0x26 <__rc22>
    2084: 86 97        	stx	$97                     ; 0x97 <comeRightTrough>
    2086: 4c 27 21     	jmp	$2127 <main+0x1c0f>
    2089: a0 02        	ldy	#$2
    208b: 8c 50 d6     	sty	$d650                   ; 0xd650 <end_block9+0xa0cc>
    208e: a2 15        	ldx	#$15
    2090: 8e 55 d6     	stx	$d655                   ; 0xd655 <end_block9+0xa0d1>
    2093: a2 ae        	ldx	#$ae
    2095: 8e 56 d6     	stx	$d656                   ; 0xd656 <end_block9+0xa0d2>
    2098: a2 07        	ldx	#$7
    209a: 8e 57 d6     	stx	$d657                   ; 0xd657 <end_block9+0xa0d3>
    209d: 9c 54 d6     	stz	$d654                   ; 0xd654 <end_block9+0xa0d0>
    20a0: a2 02        	ldx	#$2
    20a2: 86 25        	stx	$25                     ; 0x25 <__rc21>
    20a4: 8c 50 d6     	sty	$d650                   ; 0xd650 <end_block9+0xa0cc>
    20a7: a2 89        	ldx	#$89
    20a9: 8e 50 d6     	stx	$d650                   ; 0xd650 <end_block9+0xa0cc>
    20ac: a5 93        	lda	$93                     ; 0x93 <samplesSoFar>
    20ae: a6 94        	ldx	$94                     ; 0x94 <samplesSoFar+0x1>
    20b0: 86 12        	stx	$12                     ; 0x12 <__rc2>
    20b2: a4 95        	ldy	$95                     ; 0x95 <samplesSoFar+0x2>
    20b4: a6 96        	ldx	$96                     ; 0x96 <samplesSoFar+0x3>
    20b6: 86 13        	stx	$13                     ; 0x13 <__rc3>
    20b8: 18           	clc
    20b9: 69 72        	adc	#$72
    20bb: aa           	tax
    20bc: a5 12        	lda	$12                     ; 0x12 <__rc2>
    20be: 69 03        	adc	#$3
    20c0: 85 12        	sta	$12                     ; 0x12 <__rc2>
    20c2: 98           	tya
    20c3: 69 00        	adc	#$0
    20c5: 85 14        	sta	$14                     ; 0x14 <__rc4>
    20c7: a5 13        	lda	$13                     ; 0x13 <__rc3>
    20c9: 69 00        	adc	#$0
    20cb: 86 93        	stx	$93                     ; 0x93 <samplesSoFar>
    20cd: a6 12        	ldx	$12                     ; 0x12 <__rc2>
    20cf: 86 94        	stx	$94                     ; 0x94 <samplesSoFar+0x1>
    20d1: a6 14        	ldx	$14                     ; 0x14 <__rc4>
    20d3: 86 95        	stx	$95                     ; 0x95 <samplesSoFar+0x2>
    20d5: 85 96        	sta	$96                     ; 0x96 <samplesSoFar+0x3>
    20d7: 80 4e        	bra	$2127 <main+0x1c0f>
    20d9: c0 72        	cpy	#$72
    20db: b0 03        	bcs	$20e0 <main+0x1bc8>
    20dd: 4c 4c 1f     	jmp	$1f4c <main+0x1a34>
    20e0: a2 ff        	ldx	#$ff
    20e2: 8e 55 d6     	stx	$d655                   ; 0xd655 <end_block9+0xa0d1>
    20e5: 8e 56 d6     	stx	$d656                   ; 0xd656 <end_block9+0xa0d2>
    20e8: 8e 57 d6     	stx	$d657                   ; 0xd657 <end_block9+0xa0d3>
    20eb: 9c 54 d6     	stz	$d654                   ; 0xd654 <end_block9+0xa0d0>
    20ee: a0 02        	ldy	#$2
    20f0: a2 02        	ldx	#$2
    20f2: 86 25        	stx	$25                     ; 0x25 <__rc21>
    20f4: 8c 50 d6     	sty	$d650                   ; 0xd650 <end_block9+0xa0cc>
    20f7: a2 89        	ldx	#$89
    20f9: 8e 50 d6     	stx	$d650                   ; 0xd650 <end_block9+0xa0cc>
    20fc: a5 83        	lda	$83                     ; 0x83 <tooBigWait>
    20fe: a6 84        	ldx	$84                     ; 0x84 <tooBigWait+0x1>
    2100: 86 12        	stx	$12                     ; 0x12 <__rc2>
    2102: a4 85        	ldy	$85                     ; 0x85 <tooBigWait+0x2>
    2104: a6 86        	ldx	$86                     ; 0x86 <tooBigWait+0x3>
    2106: 86 13        	stx	$13                     ; 0x13 <__rc3>
    2108: 18           	clc
    2109: 69 01        	adc	#$1
    210b: aa           	tax
    210c: a5 12        	lda	$12                     ; 0x12 <__rc2>
    210e: 69 00        	adc	#$0
    2110: 85 12        	sta	$12                     ; 0x12 <__rc2>
    2112: 98           	tya
    2113: 69 00        	adc	#$0
    2115: 85 14        	sta	$14                     ; 0x14 <__rc4>
    2117: a5 13        	lda	$13                     ; 0x13 <__rc3>
    2119: 69 ff        	adc	#$ff
    211b: 86 83        	stx	$83                     ; 0x83 <tooBigWait>
    211d: a6 12        	ldx	$12                     ; 0x12 <__rc2>
    211f: 86 84        	stx	$84                     ; 0x84 <tooBigWait+0x1>
    2121: a6 14        	ldx	$14                     ; 0x14 <__rc4>
    2123: 86 85        	stx	$85                     ; 0x85 <tooBigWait+0x2>
    2125: 85 86        	sta	$86                     ; 0x86 <tooBigWait+0x3>
    2127: 64 7b        	stz	$7b                     ; 0x7b <kernelEventData>
    2129: a2 82        	ldx	#$82
    212b: 86 12        	stx	$12                     ; 0x12 <__rc2>
    212d: a2 00        	ldx	#$0
    212f: 86 13        	stx	$13                     ; 0x13 <__rc3>
    2131: 20 00 ff     	jsr	$ff00 <end_block9+0xc97c>
    2134: 92 28        	sta	($28)                   ; 0x28 <__rc24>
    2136: a9 00        	lda	#$0
    2138: 6a           	ror
    2139: 85 12        	sta	$12                     ; 0x12 <__rc2>
    213b: a6 7b        	ldx	$7b                     ; 0x7b <kernelEventData>
    213d: e0 52        	cpx	#$52
    213f: f0 22        	beq	$2163 <main+0x1c4b>
    2141: e0 08        	cpx	#$8
    2143: f0 03        	beq	$2148 <main+0x1c30>
    2145: 4c 93 1c     	jmp	$1c93 <main+0x177b>
    2148: a6 7f        	ldx	$7f                     ; 0x7f <kernelEventData+0x4>
    214a: e0 20        	cpx	#$20
    214c: f0 3b        	beq	$2189 <main+0x1c71>
    214e: e0 73        	cpx	#$73
    2150: f0 03        	beq	$2155 <main+0x1c3d>
    2152: 4c 8c 1c     	jmp	$1c8c <main+0x1774>
    2155: a5 77        	lda	$77                     ; 0x77 <wantSound>
    2157: 29 01        	and	#$1
    2159: d0 03        	bne	$215e <main+0x1c46>
    215b: 4c 69 22     	jmp	$2269 <main+0x1d51>
    215e: 64 77        	stz	$77                     ; 0x77 <wantSound>
    2160: 4c 93 1c     	jmp	$1c93 <main+0x177b>
    2163: a6 7f        	ldx	$7f                     ; 0x7f <kernelEventData+0x4>
    2165: f0 03        	beq	$216a <main+0x1c52>
    2167: 4c 93 1c     	jmp	$1c93 <main+0x177b>
    216a: a6 71        	ldx	$71                     ; 0x71 <tm_xf>
    216c: a5 72        	lda	$72                     ; 0x72 <tm_xf+0x1>
    216e: e8           	inx
    216f: d0 01        	bne	$2172 <main+0x1c5a>
    2171: 1a           	inc
    2172: da           	phx
    2173: 7a           	ply
    2174: aa           	tax
    2175: 84 71        	sty	$71                     ; 0x71 <tm_xf>
    2177: 85 72        	sta	$72                     ; 0x72 <tm_xf+0x1>
    2179: a5 73        	lda	$73                     ; 0x73 <tm_x>
    217b: e0 00        	cpx	#$0
    217d: d0 27        	bne	$21a6 <main+0x1c8e>
    217f: c0 09        	cpy	#$9
    2181: b0 27        	bcs	$21aa <main+0x1c92>
    2183: 84 12        	sty	$12                     ; 0x12 <__rc2>
    2185: 86 13        	stx	$13                     ; 0x13 <__rc3>
    2187: 80 38        	bra	$21c1 <main+0x1ca9>
    2189: a4 60        	ldy	$60                     ; 0x60 <wantText>
    218b: a2 01        	ldx	#$1
    218d: 98           	tya
    218e: f0 02        	beq	$2192 <main+0x1c7a>
    2190: a2 00        	ldx	#$0
    2192: 8a           	txa
    2193: d0 03        	bne	$2198 <main+0x1c80>
    2195: 4c 66 23     	jmp	$2366 <main+0x1e4e>
    2198: a0 01        	ldy	#$1
    219a: a9 7f        	lda	#$7f
    219c: e0 00        	cpx	#$0
    219e: d0 03        	bne	$21a3 <main+0x1c8b>
    21a0: 4c 6e 23     	jmp	$236e <main+0x1e56>
    21a3: 4c 70 23     	jmp	$2370 <main+0x1e58>
    21a6: e0 00        	cpx	#$0
    21a8: 90 d9        	bcc	$2183 <main+0x1c6b>
    21aa: 64 12        	stz	$12                     ; 0x12 <__rc2>
    21ac: 64 71        	stz	$71                     ; 0x71 <tm_xf>
    21ae: 64 72        	stz	$72                     ; 0x72 <tm_xf+0x1>
    21b0: 1a           	inc
    21b1: 85 73        	sta	$73                     ; 0x73 <tm_x>
    21b3: c9 28        	cmp	#$28
    21b5: 64 13        	stz	$13                     ; 0x13 <__rc3>
    21b7: 90 08        	bcc	$21c1 <main+0x1ca9>
    21b9: a9 00        	lda	#$0
    21bb: 64 73        	stz	$73                     ; 0x73 <tm_x>
    21bd: 64 12        	stz	$12                     ; 0x12 <__rc2>
    21bf: 64 13        	stz	$13                     ; 0x13 <__rc3>
    21c1: 0a           	asl
    21c2: aa           	tax
    21c3: a9 00        	lda	#$0
    21c5: 2a           	rol
    21c6: 86 14        	stx	$14                     ; 0x14 <__rc4>
    21c8: 06 14        	asl	$14                     ; 0x14 <__rc4>
    21ca: 2a           	rol
    21cb: 06 14        	asl	$14                     ; 0x14 <__rc4>
    21cd: 2a           	rol
    21ce: 06 14        	asl	$14                     ; 0x14 <__rc4>
    21d0: 2a           	rol
    21d1: aa           	tax
    21d2: a5 14        	lda	$14                     ; 0x14 <__rc4>
    21d4: 05 12        	ora	$12                     ; 0x12 <__rc2>
    21d6: 85 12        	sta	$12                     ; 0x12 <__rc2>
    21d8: 8a           	txa
    21d9: 05 13        	ora	$13                     ; 0x13 <__rc3>
    21db: a6 12        	ldx	$12                     ; 0x12 <__rc2>
    21dd: 8e 20 d2     	stx	$d220                   ; 0xd220 <end_block9+0x9c9c>
    21e0: 8d 21 d2     	sta	$d221                   ; 0xd221 <end_block9+0x9c9d>
    21e3: 9c 22 d2     	stz	$d222                   ; 0xd222 <end_block9+0x9c9e>
    21e6: 9c 23 d2     	stz	$d223                   ; 0xd223 <end_block9+0x9c9f>
    21e9: a6 74        	ldx	$74                     ; 0x74 <tm_xf1>
    21eb: a4 75        	ldy	$75                     ; 0x75 <tm_xf1+0x1>
    21ed: d0 06        	bne	$21f5 <main+0x1cdd>
    21ef: 8a           	txa
    21f0: d0 03        	bne	$21f5 <main+0x1cdd>
    21f2: 4c 78 23     	jmp	$2378 <main+0x1e60>
    21f5: ca           	dex
    21f6: e0 ff        	cpx	#$ff
    21f8: d0 01        	bne	$21fb <main+0x1ce3>
    21fa: 88           	dey
    21fb: 86 74        	stx	$74                     ; 0x74 <tm_xf1>
    21fd: 84 75        	sty	$75                     ; 0x75 <tm_xf1+0x1>
    21ff: a5 76        	lda	$76                     ; 0x76 <tm_x1>
    2201: 86 13        	stx	$13                     ; 0x13 <__rc3>
    2203: 84 12        	sty	$12                     ; 0x12 <__rc2>
    2205: 0a           	asl
    2206: aa           	tax
    2207: a9 00        	lda	#$0
    2209: 2a           	rol
    220a: 86 14        	stx	$14                     ; 0x14 <__rc4>
    220c: 06 14        	asl	$14                     ; 0x14 <__rc4>
    220e: 2a           	rol
    220f: 06 14        	asl	$14                     ; 0x14 <__rc4>
    2211: 2a           	rol
    2212: 06 14        	asl	$14                     ; 0x14 <__rc4>
    2214: 2a           	rol
    2215: aa           	tax
    2216: 18           	clc
    2217: a5 14        	lda	$14                     ; 0x14 <__rc4>
    2219: 65 13        	adc	$13                     ; 0x13 <__rc3>
    221b: 85 13        	sta	$13                     ; 0x13 <__rc3>
    221d: 8a           	txa
    221e: 65 12        	adc	$12                     ; 0x12 <__rc2>
    2220: a6 13        	ldx	$13                     ; 0x13 <__rc3>
    2222: 8e 14 d2     	stx	$d214                   ; 0xd214 <end_block9+0x9c90>
    2225: 8d 15 d2     	sta	$d215                   ; 0xd215 <end_block9+0x9c91>
    2228: 9c 16 d2     	stz	$d216                   ; 0xd216 <end_block9+0x9c92>
    222b: 9c 17 d2     	stz	$d217                   ; 0xd217 <end_block9+0x9c93>
    222e: a2 80        	ldx	#$80
    2230: 86 f3        	stx	$f3                     ; 0xf3 <__pal_size+0x73>
    2232: a2 82        	ldx	#$82
    2234: 86 12        	stx	$12                     ; 0x12 <__rc2>
    2236: a2 00        	ldx	#$0
    2238: 86 13        	stx	$13                     ; 0x13 <__rc3>
    223a: 20 f0 ff     	jsr	$fff0 <end_block9+0xca6c>
    223d: 92 28        	sta	($28)                   ; 0x28 <__rc24>
    223f: a9 00        	lda	#$0
    2241: 6a           	ror
    2242: 85 12        	sta	$12                     ; 0x12 <__rc2>
    2244: 18           	clc
    2245: a9 02        	lda	#$2
    2247: 72 28        	adc	($28)                   ; 0x28 <__rc24>
    2249: 85 78        	sta	$78                     ; 0x78 <tileAnim.1>
    224b: 64 f3        	stz	$f3                     ; 0xf3 <__pal_size+0x73>
    224d: a6 78        	ldx	$78                     ; 0x78 <tileAnim.1>
    224f: 86 f4        	stx	$f4                     ; 0xf4 <__pal_size+0x74>
    2251: 64 f5        	stz	$f5                     ; 0xf5 <__pal_size+0x75>
    2253: 20 f0 ff     	jsr	$fff0 <end_block9+0xca6c>
    2256: 92 28        	sta	($28)                   ; 0x28 <__rc24>
    2258: a9 00        	lda	#$0
    225a: 6a           	ror
    225b: 85 12        	sta	$12                     ; 0x12 <__rc2>
    225d: a6 7b        	ldx	$7b                     ; 0x7b <kernelEventData>
    225f: e0 08        	cpx	#$8
    2261: f0 03        	beq	$2266 <main+0x1d4e>
    2263: 4c 93 1c     	jmp	$1c93 <main+0x177b>
    2266: 4c 48 21     	jmp	$2148 <main+0x1c30>
    2269: a9 df        	lda	#$df
    226b: 2d 82 34     	and	$3482                   ; 0x3482 <opl3_instrument_defs+0xc>
    226e: a2 b0        	ldx	#$b0
    2270: 8e 80 d5     	stx	$d580                   ; 0xd580 <end_block9+0x9ffc>
    2273: 86 13        	stx	$13                     ; 0x13 <__rc3>
    2275: 8d 81 d5     	sta	$d581                   ; 0xd581 <end_block9+0x9ffd>
    2278: a9 df        	lda	#$df
    227a: 2d 91 34     	and	$3491                   ; 0x3491 <opl3_instrument_defs+0x1b>
    227d: a0 b1        	ldy	#$b1
    227f: 8c 80 d5     	sty	$d580                   ; 0xd580 <end_block9+0x9ffc>
    2282: 8d 81 d5     	sta	$d581                   ; 0xd581 <end_block9+0x9ffd>
    2285: a9 df        	lda	#$df
    2287: 2d a0 34     	and	$34a0                   ; 0x34a0 <opl3_instrument_defs+0x2a>
    228a: a2 b2        	ldx	#$b2
    228c: 8e 80 d5     	stx	$d580                   ; 0xd580 <end_block9+0x9ffc>
    228f: 86 12        	stx	$12                     ; 0x12 <__rc2>
    2291: 8d 81 d5     	sta	$d581                   ; 0xd581 <end_block9+0x9ffd>
    2294: a9 df        	lda	#$df
    2296: 2d af 34     	and	$34af                   ; 0x34af <opl3_instrument_defs+0x39>
    2299: e8           	inx
    229a: 8e 80 d5     	stx	$d580                   ; 0xd580 <end_block9+0x9ffc>
    229d: 86 15        	stx	$15                     ; 0x15 <__rc5>
    229f: 8d 81 d5     	sta	$d581                   ; 0xd581 <end_block9+0x9ffd>
    22a2: a9 df        	lda	#$df
    22a4: 2d be 34     	and	$34be                   ; 0x34be <opl3_instrument_defs+0x48>
    22a7: e8           	inx
    22a8: 8e 80 d5     	stx	$d580                   ; 0xd580 <end_block9+0x9ffc>
    22ab: 86 14        	stx	$14                     ; 0x14 <__rc4>
    22ad: 8d 81 d5     	sta	$d581                   ; 0xd581 <end_block9+0x9ffd>
    22b0: a9 df        	lda	#$df
    22b2: 2d cd 34     	and	$34cd                   ; 0x34cd <opl3_instrument_defs+0x57>
    22b5: e8           	inx
    22b6: 8e 80 d5     	stx	$d580                   ; 0xd580 <end_block9+0x9ffc>
    22b9: 86 17        	stx	$17                     ; 0x17 <__rc7>
    22bb: 8d 81 d5     	sta	$d581                   ; 0xd581 <end_block9+0x9ffd>
    22be: a9 df        	lda	#$df
    22c0: 2d dc 34     	and	$34dc                   ; 0x34dc <opl3_instrument_defs+0x66>
    22c3: e8           	inx
    22c4: 8e 80 d5     	stx	$d580                   ; 0xd580 <end_block9+0x9ffc>
    22c7: 86 16        	stx	$16                     ; 0x16 <__rc6>
    22c9: 8d 81 d5     	sta	$d581                   ; 0xd581 <end_block9+0x9ffd>
    22cc: a9 df        	lda	#$df
    22ce: 2d eb 34     	and	$34eb                   ; 0x34eb <opl3_instrument_defs+0x75>
    22d1: e8           	inx
    22d2: 8e 80 d5     	stx	$d580                   ; 0xd580 <end_block9+0x9ffc>
    22d5: 86 19        	stx	$19                     ; 0x19 <__rc9>
    22d7: 8d 81 d5     	sta	$d581                   ; 0xd581 <end_block9+0x9ffd>
    22da: a9 df        	lda	#$df
    22dc: 2d fa 34     	and	$34fa                   ; 0x34fa <opl3_instrument_defs+0x84>
    22df: e8           	inx
    22e0: 8e 80 d5     	stx	$d580                   ; 0xd580 <end_block9+0x9ffc>
    22e3: 86 18        	stx	$18                     ; 0x18 <__rc8>
    22e5: 8d 81 d5     	sta	$d581                   ; 0xd581 <end_block9+0x9ffd>
    22e8: a9 df        	lda	#$df
    22ea: 2d 09 35     	and	$3509                   ; 0x3509 <opl3_instrument_defs+0x93>
    22ed: a6 13        	ldx	$13                     ; 0x13 <__rc3>
    22ef: 8e 82 d5     	stx	$d582                   ; 0xd582 <end_block9+0x9ffe>
    22f2: 8d 81 d5     	sta	$d581                   ; 0xd581 <end_block9+0x9ffd>
    22f5: a9 df        	lda	#$df
    22f7: 2d 18 35     	and	$3518                   ; 0x3518 <opl3_instrument_defs+0xa2>
    22fa: 8c 82 d5     	sty	$d582                   ; 0xd582 <end_block9+0x9ffe>
    22fd: 8d 81 d5     	sta	$d581                   ; 0xd581 <end_block9+0x9ffd>
    2300: a9 df        	lda	#$df
    2302: 2d 27 35     	and	$3527                   ; 0x3527 <opl3_instrument_defs+0xb1>
    2305: a6 12        	ldx	$12                     ; 0x12 <__rc2>
    2307: 8e 82 d5     	stx	$d582                   ; 0xd582 <end_block9+0x9ffe>
    230a: 8d 81 d5     	sta	$d581                   ; 0xd581 <end_block9+0x9ffd>
    230d: a9 df        	lda	#$df
    230f: 2d 36 35     	and	$3536                   ; 0x3536 <opl3_instrument_defs+0xc0>
    2312: a6 15        	ldx	$15                     ; 0x15 <__rc5>
    2314: 8e 82 d5     	stx	$d582                   ; 0xd582 <end_block9+0x9ffe>
    2317: 8d 81 d5     	sta	$d581                   ; 0xd581 <end_block9+0x9ffd>
    231a: a9 df        	lda	#$df
    231c: 2d 45 35     	and	$3545                   ; 0x3545 <opl3_instrument_defs+0xcf>
    231f: a6 14        	ldx	$14                     ; 0x14 <__rc4>
    2321: 8e 82 d5     	stx	$d582                   ; 0xd582 <end_block9+0x9ffe>
    2324: 8d 81 d5     	sta	$d581                   ; 0xd581 <end_block9+0x9ffd>
    2327: a9 df        	lda	#$df
    2329: 2d 54 35     	and	$3554                   ; 0x3554 <opl3_instrument_defs+0xde>
    232c: a6 17        	ldx	$17                     ; 0x17 <__rc7>
    232e: 8e 82 d5     	stx	$d582                   ; 0xd582 <end_block9+0x9ffe>
    2331: 8d 81 d5     	sta	$d581                   ; 0xd581 <end_block9+0x9ffd>
    2334: a9 df        	lda	#$df
    2336: 2d 63 35     	and	$3563                   ; 0x3563 <opl3_instrument_defs+0xed>
    2339: a6 16        	ldx	$16                     ; 0x16 <__rc6>
    233b: 8e 82 d5     	stx	$d582                   ; 0xd582 <end_block9+0x9ffe>
    233e: 8d 81 d5     	sta	$d581                   ; 0xd581 <end_block9+0x9ffd>
    2341: a9 df        	lda	#$df
    2343: 2d 72 35     	and	$3572                   ; 0x3572 <opl3_instrument_defs+0xfc>
    2346: a6 19        	ldx	$19                     ; 0x19 <__rc9>
    2348: 8e 82 d5     	stx	$d582                   ; 0xd582 <end_block9+0x9ffe>
    234b: 8d 81 d5     	sta	$d581                   ; 0xd581 <end_block9+0x9ffd>
    234e: a9 df        	lda	#$df
    2350: 2d 81 35     	and	$3581                   ; 0x3581 <opl3_instrument_defs+0x10b>
    2353: a6 18        	ldx	$18                     ; 0x18 <__rc8>
    2355: 8e 82 d5     	stx	$d582                   ; 0xd582 <end_block9+0x9ffe>
    2358: 8d 81 d5     	sta	$d581                   ; 0xd581 <end_block9+0x9ffd>
    235b: a0 01        	ldy	#$1
    235d: a2 01        	ldx	#$1
    235f: 86 2a        	stx	$2a                     ; 0x2a <__rc26>
    2361: 84 77        	sty	$77                     ; 0x77 <wantSound>
    2363: 4c 93 1c     	jmp	$1c93 <main+0x177b>
    2366: a0 00        	ldy	#$0
    2368: a9 7f        	lda	#$7f
    236a: e0 00        	cpx	#$0
    236c: d0 02        	bne	$2370 <main+0x1e58>
    236e: a9 7e        	lda	#$7e
    2370: 84 60        	sty	$60                     ; 0x60 <wantText>
    2372: 8d 00 d0     	sta	$d000                   ; 0xd000 <end_block9+0x9a7c>
    2375: 4c 93 1c     	jmp	$1c93 <main+0x177b>
    2378: a2 08        	ldx	#$8
    237a: 86 74        	stx	$74                     ; 0x74 <tm_xf1>
    237c: 64 75        	stz	$75                     ; 0x75 <tm_xf1+0x1>
    237e: a5 76        	lda	$76                     ; 0x76 <tm_x1>
    2380: f0 03        	beq	$2385 <main+0x1e6d>
    2382: 3a           	dec
    2383: 80 02        	bra	$2387 <main+0x1e6f>
    2385: a9 27        	lda	#$27
    2387: 85 76        	sta	$76                     ; 0x76 <tm_x1>
    2389: 64 12        	stz	$12                     ; 0x12 <__rc2>
    238b: 86 13        	stx	$13                     ; 0x13 <__rc3>
    238d: 4c 05 22     	jmp	$2205 <main+0x1ced>
    2390: 78           	sei
    2391: a2 07        	ldx	#$7
    2393: 86 0f        	stx	$f                      ; 0xf <__data_size+0xf>
    2395: a2 de        	ldx	#$de
    2397: 8e a2 d6     	stx	$d6a2                   ; 0xd6a2 <end_block9+0xa11e>
    239a: a2 ad        	ldx	#$ad
    239c: 8e a3 d6     	stx	$d6a3                   ; 0xd6a3 <end_block9+0xa11f>
    239f: a2 f0        	ldx	#$f0
    23a1: 8e a0 d6     	stx	$d6a0                   ; 0xd6a0 <end_block9+0xa11c>
    23a4: 9c a0 d6     	stz	$d6a0                   ; 0xd6a0 <end_block9+0xa11c>
    23a7: 6c fc ff     	jmp	($fffc)                 ; 0xfffc <end_block9+0xca78>
    23aa: a2 00        	ldx	#$0
    23ac: 8a           	txa
    23ad: 85 20        	sta	$20                     ; 0x20 <__rc16>
    23af: a8           	tay
    23b0: b1 10        	lda	($10),y                 ; 0x10 <__rc0>
    23b2: 85 2f        	sta	$2f                     ; 0x2f <__rc31>
    23b4: c8           	iny
    23b5: b1 10        	lda	($10),y                 ; 0x10 <__rc0>
    23b7: 85 2e        	sta	$2e                     ; 0x2e <__rc30>
    23b9: c8           	iny
    23ba: b1 10        	lda	($10),y                 ; 0x10 <__rc0>
    23bc: 85 2d        	sta	$2d                     ; 0x2d <__rc29>
    23be: c8           	iny
    23bf: b1 10        	lda	($10),y                 ; 0x10 <__rc0>
    23c1: 85 2c        	sta	$2c                     ; 0x2c <__rc28>
    23c3: c8           	iny
    23c4: b1 10        	lda	($10),y                 ; 0x10 <__rc0>
    23c6: 85 2b        	sta	$2b                     ; 0x2b <__rc27>
    23c8: c8           	iny
    23c9: b1 10        	lda	($10),y                 ; 0x10 <__rc0>
    23cb: 85 2a        	sta	$2a                     ; 0x2a <__rc26>
    23cd: c8           	iny
    23ce: b1 10        	lda	($10),y                 ; 0x10 <__rc0>
    23d0: 85 29        	sta	$29                     ; 0x29 <__rc25>
    23d2: c8           	iny
    23d3: b1 10        	lda	($10),y                 ; 0x10 <__rc0>
    23d5: 85 28        	sta	$28                     ; 0x28 <__rc24>
    23d7: 7a           	ply
    23d8: 84 27        	sty	$27                     ; 0x27 <__rc23>
    23da: 7a           	ply
    23db: 84 26        	sty	$26                     ; 0x26 <__rc22>
    23dd: 7a           	ply
    23de: 84 25        	sty	$25                     ; 0x25 <__rc21>
    23e0: 7a           	ply
    23e1: 84 24        	sty	$24                     ; 0x24 <__rc20>
    23e3: 18           	clc
    23e4: a5 10        	lda	$10                     ; 0x10 <__rc0>
    23e6: 69 21        	adc	#$21
    23e8: 85 10        	sta	$10                     ; 0x10 <__rc0>
    23ea: a5 11        	lda	$11                     ; 0x11 <__rc1>
    23ec: 69 00        	adc	#$0
    23ee: 85 11        	sta	$11                     ; 0x11 <__rc1>
    23f0: a5 20        	lda	$20                     ; 0x20 <__rc16>
    23f2: 60           	rts
    23f3: e6 91        	inc	$91                     ; 0x91 <needle+0x2>
    23f5: d0 02        	bne	$23f9 <main+0x1ee1>
    23f7: e6 92        	inc	$92                     ; 0x92 <needle+0x3>
    23f9: 4c bc 1e     	jmp	$1ebc <main+0x19a4>
    23fc: e6 91        	inc	$91                     ; 0x91 <needle+0x2>
    23fe: d0 02        	bne	$2402 <main+0x1eea>
    2400: e6 92        	inc	$92                     ; 0x92 <needle+0x3>
    2402: 4c dd 1e     	jmp	$1edd <main+0x19c5>
    2405: e6 92        	inc	$92                     ; 0x92 <needle+0x3>
    2407: 4c 67 1e     	jmp	$1e67 <main+0x194f>
    240a: e6 92        	inc	$92                     ; 0x92 <needle+0x3>
    240c: 4c 8c 1e     	jmp	$1e8c <main+0x1974>
    240f: e6 12        	inc	$12                     ; 0x12 <__rc2>
    2411: d0 01        	bne	$2414 <main+0x1efc>
    2413: c8           	iny
    2414: 4c de 1f     	jmp	$1fde <main+0x1ac6>
    2417: e6 91        	inc	$91                     ; 0x91 <needle+0x2>
    2419: d0 02        	bne	$241d <main+0x1f05>
    241b: e6 92        	inc	$92                     ; 0x92 <needle+0x3>
    241d: 4c 41 20     	jmp	$2041 <main+0x1b29>
    2420: e6 91        	inc	$91                     ; 0x91 <needle+0x2>
    2422: d0 02        	bne	$2426 <main+0x1f0e>
    2424: e6 92        	inc	$92                     ; 0x92 <needle+0x3>
    2426: 4c 62 20     	jmp	$2062 <main+0x1b4a>

00002429 <textPrint>:
    2429: a6 01        	ldx	$1                      ; 0x1 <__data_size+0x1>
    242b: 86 1c        	stx	$1c                     ; 0x1c <__rc12>
    242d: a6 62        	ldx	$62                     ; 0x62 <_row>
    242f: a9 50        	lda	#$50
    2431: a8           	tay
    2432: 84 1d        	sty	$1d                     ; 0x1d <__rc13>
    2434: 8d 00 de     	sta	$de00                   ; 0xde00 <end_block9+0xa87c>
    2437: 9c 01 de     	stz	$de01                   ; 0xde01 <end_block9+0xa87d>
    243a: 8e 02 de     	stx	$de02                   ; 0xde02 <end_block9+0xa87e>
    243d: 9c 03 de     	stz	$de03                   ; 0xde03 <end_block9+0xa87f>
    2440: ae 10 de     	ldx	$de10                   ; 0xde10 <end_block9+0xa88c>
    2443: ac 11 de     	ldy	$de11                   ; 0xde11 <end_block9+0xa88d>
    2446: 84 15        	sty	$15                     ; 0x15 <__rc5>
    2448: ad 12 de     	lda	$de12                   ; 0xde12 <end_block9+0xa88e>
    244b: ac 13 de     	ldy	$de13                   ; 0xde13 <end_block9+0xa88f>
    244e: 84 18        	sty	$18                     ; 0x18 <__rc8>
    2450: 9c 08 de     	stz	$de08                   ; 0xde08 <end_block9+0xa884>
    2453: a0 c0        	ldy	#$c0
    2455: 8c 09 de     	sty	$de09                   ; 0xde09 <end_block9+0xa885>
    2458: 9c 0a de     	stz	$de0a                   ; 0xde0a <end_block9+0xa886>
    245b: 9c 0b de     	stz	$de0b                   ; 0xde0b <end_block9+0xa887>
    245e: 8e 0c de     	stx	$de0c                   ; 0xde0c <end_block9+0xa888>
    2461: 64 14        	stz	$14                     ; 0x14 <__rc4>
    2463: a2 00        	ldx	#$0
    2465: 86 16        	stx	$16                     ; 0x16 <__rc6>
    2467: a2 c0        	ldx	#$c0
    2469: 86 17        	stx	$17                     ; 0x17 <__rc7>
    246b: a6 15        	ldx	$15                     ; 0x15 <__rc5>
    246d: 8e 0d de     	stx	$de0d                   ; 0xde0d <end_block9+0xa889>
    2470: 8d 0e de     	sta	$de0e                   ; 0xde0e <end_block9+0xa88a>
    2473: a6 18        	ldx	$18                     ; 0x18 <__rc8>
    2475: 8e 0f de     	stx	$de0f                   ; 0xde0f <end_block9+0xa88b>
    2478: ac 18 de     	ldy	$de18                   ; 0xde18 <end_block9+0xa894>
    247b: ad 19 de     	lda	$de19                   ; 0xde19 <end_block9+0xa895>
    247e: ae 1a de     	ldx	$de1a                   ; 0xde1a <end_block9+0xa896>
    2481: ae 1b de     	ldx	$de1b                   ; 0xde1b <end_block9+0xa897>
    2484: 84 18        	sty	$18                     ; 0x18 <__rc8>
    2486: 85 19        	sta	$19                     ; 0x19 <__rc9>
    2488: 64 15        	stz	$15                     ; 0x15 <__rc5>
    248a: a2 20        	ldx	#$20
    248c: 4c 28 27     	jmp	$2728 <textPrint+0x2ff>
    248f: a5 1b        	lda	$1b                     ; 0x1b <__rc11>
    2491: f0 1c        	beq	$24af <textPrint+0x86>
    2493: b1 18        	lda	($18),y                 ; 0x18 <__rc8>
    2495: 92 18        	sta	($18)                   ; 0x18 <__rc8>
    2497: a9 ff        	lda	#$ff
    2499: c6 1a        	dec	$1a                     ; 0x1a <__rc10>
    249b: c5 1a        	cmp	$1a                     ; 0x1a <__rc10>
    249d: f0 06        	beq	$24a5 <textPrint+0x7c>
    249f: e6 18        	inc	$18                     ; 0x18 <__rc8>
    24a1: d0 ec        	bne	$248f <textPrint+0x66>
    24a3: 80 06        	bra	$24ab <textPrint+0x82>
    24a5: c6 1b        	dec	$1b                     ; 0x1b <__rc11>
    24a7: e6 18        	inc	$18                     ; 0x18 <__rc8>
    24a9: d0 e4        	bne	$248f <textPrint+0x66>
    24ab: e6 19        	inc	$19                     ; 0x19 <__rc9>
    24ad: 80 e0        	bra	$248f <textPrint+0x66>
    24af: a5 1a        	lda	$1a                     ; 0x1a <__rc10>
    24b1: d0 e0        	bne	$2493 <textPrint+0x6a>
    24b3: a9 02        	lda	#$2
    24b5: 85 01        	sta	$1                      ; 0x1 <__data_size+0x1>
    24b7: a9 10        	lda	#$10
    24b9: 5a           	phy
    24ba: a0 00        	ldy	#$0
    24bc: 84 18        	sty	$18                     ; 0x18 <__rc8>
    24be: a0 c0        	ldy	#$c0
    24c0: 84 19        	sty	$19                     ; 0x19 <__rc9>
    24c2: 7a           	ply
    24c3: 85 1a        	sta	$1a                     ; 0x1a <__rc10>
    24c5: a9 09        	lda	#$9
    24c7: 85 1b        	sta	$1b                     ; 0x1b <__rc11>
    24c9: 80 04        	bra	$24cf <textPrint+0xa6>
    24cb: a5 1b        	lda	$1b                     ; 0x1b <__rc11>
    24cd: f0 1c        	beq	$24eb <textPrint+0xc2>
    24cf: b1 18        	lda	($18),y                 ; 0x18 <__rc8>
    24d1: 92 18        	sta	($18)                   ; 0x18 <__rc8>
    24d3: a9 ff        	lda	#$ff
    24d5: c6 1a        	dec	$1a                     ; 0x1a <__rc10>
    24d7: c5 1a        	cmp	$1a                     ; 0x1a <__rc10>
    24d9: f0 06        	beq	$24e1 <textPrint+0xb8>
    24db: e6 18        	inc	$18                     ; 0x18 <__rc8>
    24dd: d0 ec        	bne	$24cb <textPrint+0xa2>
    24df: 80 06        	bra	$24e7 <textPrint+0xbe>
    24e1: c6 1b        	dec	$1b                     ; 0x1b <__rc11>
    24e3: e6 18        	inc	$18                     ; 0x18 <__rc8>
    24e5: d0 e4        	bne	$24cb <textPrint+0xa2>
    24e7: e6 19        	inc	$19                     ; 0x19 <__rc9>
    24e9: 80 e0        	bra	$24cb <textPrint+0xa2>
    24eb: a5 1a        	lda	$1a                     ; 0x1a <__rc10>
    24ed: d0 e0        	bne	$24cf <textPrint+0xa6>
    24ef: a0 50        	ldy	#$50
    24f1: 84 1d        	sty	$1d                     ; 0x1d <__rc13>
    24f3: a9 02        	lda	#$2
    24f5: 85 01        	sta	$1                      ; 0x1 <__data_size+0x1>
    24f7: a0 03        	ldy	#$3
    24f9: 84 01        	sty	$1                      ; 0x1 <__data_size+0x1>
    24fb: a0 f0        	ldy	#$f0
    24fd: 8c 10 c9     	sty	$c910                   ; 0xc910 <end_block9+0x938c>
    2500: 8c 11 c9     	sty	$c911                   ; 0xc911 <end_block9+0x938d>
    2503: 8c 12 c9     	sty	$c912                   ; 0xc912 <end_block9+0x938e>
    2506: 8c 13 c9     	sty	$c913                   ; 0xc913 <end_block9+0x938f>
    2509: 8c 14 c9     	sty	$c914                   ; 0xc914 <end_block9+0x9390>
    250c: 8c 15 c9     	sty	$c915                   ; 0xc915 <end_block9+0x9391>
    250f: 8c 16 c9     	sty	$c916                   ; 0xc916 <end_block9+0x9392>
    2512: 8c 17 c9     	sty	$c917                   ; 0xc917 <end_block9+0x9393>
    2515: 8c 18 c9     	sty	$c918                   ; 0xc918 <end_block9+0x9394>
    2518: 8c 19 c9     	sty	$c919                   ; 0xc919 <end_block9+0x9395>
    251b: 8c 1a c9     	sty	$c91a                   ; 0xc91a <end_block9+0x9396>
    251e: 8c 1b c9     	sty	$c91b                   ; 0xc91b <end_block9+0x9397>
    2521: 8c 1c c9     	sty	$c91c                   ; 0xc91c <end_block9+0x9398>
    2524: 8c 1d c9     	sty	$c91d                   ; 0xc91d <end_block9+0x9399>
    2527: 8c 1e c9     	sty	$c91e                   ; 0xc91e <end_block9+0x939a>
    252a: 8c 1f c9     	sty	$c91f                   ; 0xc91f <end_block9+0x939b>
    252d: 8c 20 c9     	sty	$c920                   ; 0xc920 <end_block9+0x939c>
    2530: 8c 21 c9     	sty	$c921                   ; 0xc921 <end_block9+0x939d>
    2533: 8c 22 c9     	sty	$c922                   ; 0xc922 <end_block9+0x939e>
    2536: 8c 23 c9     	sty	$c923                   ; 0xc923 <end_block9+0x939f>
    2539: 8c 24 c9     	sty	$c924                   ; 0xc924 <end_block9+0x93a0>
    253c: 8c 25 c9     	sty	$c925                   ; 0xc925 <end_block9+0x93a1>
    253f: 8c 26 c9     	sty	$c926                   ; 0xc926 <end_block9+0x93a2>
    2542: 8c 27 c9     	sty	$c927                   ; 0xc927 <end_block9+0x93a3>
    2545: 8c 28 c9     	sty	$c928                   ; 0xc928 <end_block9+0x93a4>
    2548: 8c 29 c9     	sty	$c929                   ; 0xc929 <end_block9+0x93a5>
    254b: 8c 2a c9     	sty	$c92a                   ; 0xc92a <end_block9+0x93a6>
    254e: 8c 2b c9     	sty	$c92b                   ; 0xc92b <end_block9+0x93a7>
    2551: 8c 2c c9     	sty	$c92c                   ; 0xc92c <end_block9+0x93a8>
    2554: 8c 2d c9     	sty	$c92d                   ; 0xc92d <end_block9+0x93a9>
    2557: 8c 2e c9     	sty	$c92e                   ; 0xc92e <end_block9+0x93aa>
    255a: 8c 2f c9     	sty	$c92f                   ; 0xc92f <end_block9+0x93ab>
    255d: 8c 30 c9     	sty	$c930                   ; 0xc930 <end_block9+0x93ac>
    2560: 8c 31 c9     	sty	$c931                   ; 0xc931 <end_block9+0x93ad>
    2563: 8c 32 c9     	sty	$c932                   ; 0xc932 <end_block9+0x93ae>
    2566: 8c 33 c9     	sty	$c933                   ; 0xc933 <end_block9+0x93af>
    2569: 8c 34 c9     	sty	$c934                   ; 0xc934 <end_block9+0x93b0>
    256c: 8c 35 c9     	sty	$c935                   ; 0xc935 <end_block9+0x93b1>
    256f: 8c 36 c9     	sty	$c936                   ; 0xc936 <end_block9+0x93b2>
    2572: 8c 37 c9     	sty	$c937                   ; 0xc937 <end_block9+0x93b3>
    2575: 8c 38 c9     	sty	$c938                   ; 0xc938 <end_block9+0x93b4>
    2578: 8c 39 c9     	sty	$c939                   ; 0xc939 <end_block9+0x93b5>
    257b: 8c 3a c9     	sty	$c93a                   ; 0xc93a <end_block9+0x93b6>
    257e: 8c 3b c9     	sty	$c93b                   ; 0xc93b <end_block9+0x93b7>
    2581: 8c 3c c9     	sty	$c93c                   ; 0xc93c <end_block9+0x93b8>
    2584: 8c 3d c9     	sty	$c93d                   ; 0xc93d <end_block9+0x93b9>
    2587: 8c 3e c9     	sty	$c93e                   ; 0xc93e <end_block9+0x93ba>
    258a: 8c 3f c9     	sty	$c93f                   ; 0xc93f <end_block9+0x93bb>
    258d: 8c 40 c9     	sty	$c940                   ; 0xc940 <end_block9+0x93bc>
    2590: 8c 41 c9     	sty	$c941                   ; 0xc941 <end_block9+0x93bd>
    2593: 8c 42 c9     	sty	$c942                   ; 0xc942 <end_block9+0x93be>
    2596: 8c 43 c9     	sty	$c943                   ; 0xc943 <end_block9+0x93bf>
    2599: 8c 44 c9     	sty	$c944                   ; 0xc944 <end_block9+0x93c0>
    259c: 8c 45 c9     	sty	$c945                   ; 0xc945 <end_block9+0x93c1>
    259f: 8c 46 c9     	sty	$c946                   ; 0xc946 <end_block9+0x93c2>
    25a2: 8c 47 c9     	sty	$c947                   ; 0xc947 <end_block9+0x93c3>
    25a5: 8c 48 c9     	sty	$c948                   ; 0xc948 <end_block9+0x93c4>
    25a8: 8c 49 c9     	sty	$c949                   ; 0xc949 <end_block9+0x93c5>
    25ab: 8c 4a c9     	sty	$c94a                   ; 0xc94a <end_block9+0x93c6>
    25ae: 8c 4b c9     	sty	$c94b                   ; 0xc94b <end_block9+0x93c7>
    25b1: 8c 4c c9     	sty	$c94c                   ; 0xc94c <end_block9+0x93c8>
    25b4: 8c 4d c9     	sty	$c94d                   ; 0xc94d <end_block9+0x93c9>
    25b7: 8c 4e c9     	sty	$c94e                   ; 0xc94e <end_block9+0x93ca>
    25ba: 8c 4f c9     	sty	$c94f                   ; 0xc94f <end_block9+0x93cb>
    25bd: 8c 50 c9     	sty	$c950                   ; 0xc950 <end_block9+0x93cc>
    25c0: 8c 51 c9     	sty	$c951                   ; 0xc951 <end_block9+0x93cd>
    25c3: 8c 52 c9     	sty	$c952                   ; 0xc952 <end_block9+0x93ce>
    25c6: 8c 53 c9     	sty	$c953                   ; 0xc953 <end_block9+0x93cf>
    25c9: 8c 54 c9     	sty	$c954                   ; 0xc954 <end_block9+0x93d0>
    25cc: 8c 55 c9     	sty	$c955                   ; 0xc955 <end_block9+0x93d1>
    25cf: 8c 56 c9     	sty	$c956                   ; 0xc956 <end_block9+0x93d2>
    25d2: 8c 57 c9     	sty	$c957                   ; 0xc957 <end_block9+0x93d3>
    25d5: 8c 58 c9     	sty	$c958                   ; 0xc958 <end_block9+0x93d4>
    25d8: 8c 59 c9     	sty	$c959                   ; 0xc959 <end_block9+0x93d5>
    25db: 8c 5a c9     	sty	$c95a                   ; 0xc95a <end_block9+0x93d6>
    25de: 8c 5b c9     	sty	$c95b                   ; 0xc95b <end_block9+0x93d7>
    25e1: 8c 5c c9     	sty	$c95c                   ; 0xc95c <end_block9+0x93d8>
    25e4: 8c 5d c9     	sty	$c95d                   ; 0xc95d <end_block9+0x93d9>
    25e7: 8c 5e c9     	sty	$c95e                   ; 0xc95e <end_block9+0x93da>
    25ea: 8c 5f c9     	sty	$c95f                   ; 0xc95f <end_block9+0x93db>
    25ed: 85 01        	sta	$1                      ; 0x1 <__data_size+0x1>
    25ef: 8e 10 c9     	stx	$c910                   ; 0xc910 <end_block9+0x938c>
    25f2: 8e 11 c9     	stx	$c911                   ; 0xc911 <end_block9+0x938d>
    25f5: 8e 12 c9     	stx	$c912                   ; 0xc912 <end_block9+0x938e>
    25f8: 8e 13 c9     	stx	$c913                   ; 0xc913 <end_block9+0x938f>
    25fb: 8e 14 c9     	stx	$c914                   ; 0xc914 <end_block9+0x9390>
    25fe: 8e 15 c9     	stx	$c915                   ; 0xc915 <end_block9+0x9391>
    2601: 8e 16 c9     	stx	$c916                   ; 0xc916 <end_block9+0x9392>
    2604: 8e 17 c9     	stx	$c917                   ; 0xc917 <end_block9+0x9393>
    2607: 8e 18 c9     	stx	$c918                   ; 0xc918 <end_block9+0x9394>
    260a: 8e 19 c9     	stx	$c919                   ; 0xc919 <end_block9+0x9395>
    260d: 8e 1a c9     	stx	$c91a                   ; 0xc91a <end_block9+0x9396>
    2610: 8e 1b c9     	stx	$c91b                   ; 0xc91b <end_block9+0x9397>
    2613: 8e 1c c9     	stx	$c91c                   ; 0xc91c <end_block9+0x9398>
    2616: 8e 1d c9     	stx	$c91d                   ; 0xc91d <end_block9+0x9399>
    2619: 8e 1e c9     	stx	$c91e                   ; 0xc91e <end_block9+0x939a>
    261c: 8e 1f c9     	stx	$c91f                   ; 0xc91f <end_block9+0x939b>
    261f: 8e 20 c9     	stx	$c920                   ; 0xc920 <end_block9+0x939c>
    2622: 8e 21 c9     	stx	$c921                   ; 0xc921 <end_block9+0x939d>
    2625: 8e 22 c9     	stx	$c922                   ; 0xc922 <end_block9+0x939e>
    2628: 8e 23 c9     	stx	$c923                   ; 0xc923 <end_block9+0x939f>
    262b: 8e 24 c9     	stx	$c924                   ; 0xc924 <end_block9+0x93a0>
    262e: 8e 25 c9     	stx	$c925                   ; 0xc925 <end_block9+0x93a1>
    2631: 8e 26 c9     	stx	$c926                   ; 0xc926 <end_block9+0x93a2>
    2634: 8e 27 c9     	stx	$c927                   ; 0xc927 <end_block9+0x93a3>
    2637: 8e 28 c9     	stx	$c928                   ; 0xc928 <end_block9+0x93a4>
    263a: 8e 29 c9     	stx	$c929                   ; 0xc929 <end_block9+0x93a5>
    263d: 8e 2a c9     	stx	$c92a                   ; 0xc92a <end_block9+0x93a6>
    2640: 8e 2b c9     	stx	$c92b                   ; 0xc92b <end_block9+0x93a7>
    2643: 8e 2c c9     	stx	$c92c                   ; 0xc92c <end_block9+0x93a8>
    2646: 8e 2d c9     	stx	$c92d                   ; 0xc92d <end_block9+0x93a9>
    2649: 8e 2e c9     	stx	$c92e                   ; 0xc92e <end_block9+0x93aa>
    264c: 8e 2f c9     	stx	$c92f                   ; 0xc92f <end_block9+0x93ab>
    264f: 8e 30 c9     	stx	$c930                   ; 0xc930 <end_block9+0x93ac>
    2652: 8e 31 c9     	stx	$c931                   ; 0xc931 <end_block9+0x93ad>
    2655: 8e 32 c9     	stx	$c932                   ; 0xc932 <end_block9+0x93ae>
    2658: 8e 33 c9     	stx	$c933                   ; 0xc933 <end_block9+0x93af>
    265b: 8e 34 c9     	stx	$c934                   ; 0xc934 <end_block9+0x93b0>
    265e: 8e 35 c9     	stx	$c935                   ; 0xc935 <end_block9+0x93b1>
    2661: 8e 36 c9     	stx	$c936                   ; 0xc936 <end_block9+0x93b2>
    2664: 8e 37 c9     	stx	$c937                   ; 0xc937 <end_block9+0x93b3>
    2667: 8e 38 c9     	stx	$c938                   ; 0xc938 <end_block9+0x93b4>
    266a: 8e 39 c9     	stx	$c939                   ; 0xc939 <end_block9+0x93b5>
    266d: 8e 3a c9     	stx	$c93a                   ; 0xc93a <end_block9+0x93b6>
    2670: 8e 3b c9     	stx	$c93b                   ; 0xc93b <end_block9+0x93b7>
    2673: 8e 3c c9     	stx	$c93c                   ; 0xc93c <end_block9+0x93b8>
    2676: 8e 3d c9     	stx	$c93d                   ; 0xc93d <end_block9+0x93b9>
    2679: 8e 3e c9     	stx	$c93e                   ; 0xc93e <end_block9+0x93ba>
    267c: 8e 3f c9     	stx	$c93f                   ; 0xc93f <end_block9+0x93bb>
    267f: 8e 40 c9     	stx	$c940                   ; 0xc940 <end_block9+0x93bc>
    2682: 8e 41 c9     	stx	$c941                   ; 0xc941 <end_block9+0x93bd>
    2685: 8e 42 c9     	stx	$c942                   ; 0xc942 <end_block9+0x93be>
    2688: 8e 43 c9     	stx	$c943                   ; 0xc943 <end_block9+0x93bf>
    268b: 8e 44 c9     	stx	$c944                   ; 0xc944 <end_block9+0x93c0>
    268e: 8e 45 c9     	stx	$c945                   ; 0xc945 <end_block9+0x93c1>
    2691: 8e 46 c9     	stx	$c946                   ; 0xc946 <end_block9+0x93c2>
    2694: 8e 47 c9     	stx	$c947                   ; 0xc947 <end_block9+0x93c3>
    2697: 8e 48 c9     	stx	$c948                   ; 0xc948 <end_block9+0x93c4>
    269a: 8e 49 c9     	stx	$c949                   ; 0xc949 <end_block9+0x93c5>
    269d: 8e 4a c9     	stx	$c94a                   ; 0xc94a <end_block9+0x93c6>
    26a0: 8e 4b c9     	stx	$c94b                   ; 0xc94b <end_block9+0x93c7>
    26a3: 8e 4c c9     	stx	$c94c                   ; 0xc94c <end_block9+0x93c8>
    26a6: 8e 4d c9     	stx	$c94d                   ; 0xc94d <end_block9+0x93c9>
    26a9: 8e 4e c9     	stx	$c94e                   ; 0xc94e <end_block9+0x93ca>
    26ac: 8e 4f c9     	stx	$c94f                   ; 0xc94f <end_block9+0x93cb>
    26af: 8e 50 c9     	stx	$c950                   ; 0xc950 <end_block9+0x93cc>
    26b2: 8e 51 c9     	stx	$c951                   ; 0xc951 <end_block9+0x93cd>
    26b5: 8e 52 c9     	stx	$c952                   ; 0xc952 <end_block9+0x93ce>
    26b8: 8e 53 c9     	stx	$c953                   ; 0xc953 <end_block9+0x93cf>
    26bb: 8e 54 c9     	stx	$c954                   ; 0xc954 <end_block9+0x93d0>
    26be: 8e 55 c9     	stx	$c955                   ; 0xc955 <end_block9+0x93d1>
    26c1: 8e 56 c9     	stx	$c956                   ; 0xc956 <end_block9+0x93d2>
    26c4: 8e 57 c9     	stx	$c957                   ; 0xc957 <end_block9+0x93d3>
    26c7: 8e 58 c9     	stx	$c958                   ; 0xc958 <end_block9+0x93d4>
    26ca: 8e 59 c9     	stx	$c959                   ; 0xc959 <end_block9+0x93d5>
    26cd: 8e 5a c9     	stx	$c95a                   ; 0xc95a <end_block9+0x93d6>
    26d0: 8e 5b c9     	stx	$c95b                   ; 0xc95b <end_block9+0x93d7>
    26d3: 8e 5c c9     	stx	$c95c                   ; 0xc95c <end_block9+0x93d8>
    26d6: 8e 5d c9     	stx	$c95d                   ; 0xc95d <end_block9+0x93d9>
    26d9: 8e 5e c9     	stx	$c95e                   ; 0xc95e <end_block9+0x93da>
    26dc: 8e 5f c9     	stx	$c95f                   ; 0xc95f <end_block9+0x93db>
    26df: c6 62        	dec	$62                     ; 0x62 <_row>
    26e1: 9c 08 de     	stz	$de08                   ; 0xde08 <end_block9+0xa884>
    26e4: a0 c0        	ldy	#$c0
    26e6: 8c 09 de     	sty	$de09                   ; 0xde09 <end_block9+0xa885>
    26e9: 9c 0a de     	stz	$de0a                   ; 0xde0a <end_block9+0xa886>
    26ec: 9c 0b de     	stz	$de0b                   ; 0xde0b <end_block9+0xa887>
    26ef: a0 1d        	ldy	#$1d
    26f1: 8c 0c de     	sty	$de0c                   ; 0xde0c <end_block9+0xa888>
    26f4: 9c 0d de     	stz	$de0d                   ; 0xde0d <end_block9+0xa889>
    26f7: 9c 0e de     	stz	$de0e                   ; 0xde0e <end_block9+0xa88a>
    26fa: 9c 0f de     	stz	$de0f                   ; 0xde0f <end_block9+0xa88b>
    26fd: ac 18 de     	ldy	$de18                   ; 0xde18 <end_block9+0xa894>
    2700: ad 19 de     	lda	$de19                   ; 0xde19 <end_block9+0xa895>
    2703: 85 19        	sta	$19                     ; 0x19 <__rc9>
    2705: ad 1a de     	lda	$de1a                   ; 0xde1a <end_block9+0xa896>
    2708: 84 18        	sty	$18                     ; 0x18 <__rc8>
    270a: ac 1b de     	ldy	$de1b                   ; 0xde1b <end_block9+0xa897>
    270d: e6 14        	inc	$14                     ; 0x14 <__rc4>
    270f: d0 02        	bne	$2713 <textPrint+0x2ea>
    2711: e6 15        	inc	$15                     ; 0x15 <__rc5>
    2713: 80 13        	bra	$2728 <textPrint+0x2ff>
    2715: a5 18        	lda	$18                     ; 0x18 <__rc8>
    2717: 18           	clc
    2718: 69 50        	adc	#$50
    271a: 85 18        	sta	$18                     ; 0x18 <__rc8>
    271c: a5 19        	lda	$19                     ; 0x19 <__rc9>
    271e: 69 00        	adc	#$0
    2720: 85 19        	sta	$19                     ; 0x19 <__rc9>
    2722: e6 14        	inc	$14                     ; 0x14 <__rc4>
    2724: d0 02        	bne	$2728 <textPrint+0x2ff>
    2726: e6 15        	inc	$15                     ; 0x15 <__rc5>
    2728: a5 12        	lda	$12                     ; 0x12 <__rc2>
    272a: 18           	clc
    272b: 65 14        	adc	$14                     ; 0x14 <__rc4>
    272d: 85 1a        	sta	$1a                     ; 0x1a <__rc10>
    272f: a5 13        	lda	$13                     ; 0x13 <__rc3>
    2731: 65 15        	adc	$15                     ; 0x15 <__rc5>
    2733: 85 1b        	sta	$1b                     ; 0x1b <__rc11>
    2735: b2 1a        	lda	($1a)                   ; 0x1a <__rc10>
    2737: c9 0a        	cmp	#$a
    2739: f0 24        	beq	$275f <textPrint+0x336>
    273b: c9 0d        	cmp	#$d
    273d: f0 20        	beq	$275f <textPrint+0x336>
    273f: a8           	tay
    2740: f0 46        	beq	$2788 <textPrint+0x35f>
    2742: a0 03        	ldy	#$3
    2744: 84 01        	sty	$1                      ; 0x1 <__data_size+0x1>
    2746: a4 61        	ldy	$61                     ; 0x61 <_col>
    2748: a9 f0        	lda	#$f0
    274a: 91 18        	sta	($18),y                 ; 0x18 <__rc8>
    274c: a0 02        	ldy	#$2
    274e: 84 01        	sty	$1                      ; 0x1 <__data_size+0x1>
    2750: b2 1a        	lda	($1a)                   ; 0x1a <__rc10>
    2752: a4 61        	ldy	$61                     ; 0x61 <_col>
    2754: 91 18        	sta	($18),y                 ; 0x18 <__rc8>
    2756: a4 61        	ldy	$61                     ; 0x61 <_col>
    2758: c8           	iny
    2759: e6 61        	inc	$61                     ; 0x61 <_col>
    275b: c0 50        	cpy	#$50
    275d: d0 c3        	bne	$2722 <textPrint+0x2f9>
    275f: 64 61        	stz	$61                     ; 0x61 <_col>
    2761: a4 62        	ldy	$62                     ; 0x62 <_row>
    2763: c8           	iny
    2764: e6 62        	inc	$62                     ; 0x62 <_row>
    2766: c0 1e        	cpy	#$1e
    2768: f0 03        	beq	$276d <textPrint+0x344>
    276a: 4c 15 27     	jmp	$2715 <textPrint+0x2ec>
    276d: a0 03        	ldy	#$3
    276f: 84 01        	sty	$1                      ; 0x1 <__data_size+0x1>
    2771: a0 09        	ldy	#$9
    2773: a9 10        	lda	#$10
    2775: 5a           	phy
    2776: a0 00        	ldy	#$0
    2778: 84 18        	sty	$18                     ; 0x18 <__rc8>
    277a: a0 c0        	ldy	#$c0
    277c: 84 19        	sty	$19                     ; 0x19 <__rc9>
    277e: 7a           	ply
    277f: 85 1a        	sta	$1a                     ; 0x1a <__rc10>
    2781: 84 1b        	sty	$1b                     ; 0x1b <__rc11>
    2783: a4 1d        	ldy	$1d                     ; 0x1d <__rc13>
    2785: 4c 93 24     	jmp	$2493 <textPrint+0x6a>
    2788: a6 1c        	ldx	$1c                     ; 0x1c <__rc12>
    278a: 86 01        	stx	$1                      ; 0x1 <__data_size+0x1>
    278c: a6 61        	ldx	$61                     ; 0x61 <_col>
    278e: a4 62        	ldy	$62                     ; 0x62 <_row>
    2790: 8e 14 d0     	stx	$d014                   ; 0xd014 <end_block9+0x9a90>
    2793: 9c 15 d0     	stz	$d015                   ; 0xd015 <end_block9+0x9a91>
    2796: 84 62        	sty	$62                     ; 0x62 <_row>
    2798: 8c 16 d0     	sty	$d016                   ; 0xd016 <end_block9+0x9a92>
    279b: 9c 17 d0     	stz	$d017                   ; 0xd017 <end_block9+0x9a93>
    279e: 60           	rts

0000279f <fileRead>:
    279f: 85 16        	sta	$16                     ; 0x16 <__rc6>
    27a1: 86 17        	stx	$17                     ; 0x17 <__rc7>
    27a3: 64 18        	stz	$18                     ; 0x18 <__rc8>
    27a5: a6 12        	ldx	$12                     ; 0x12 <__rc2>
    27a7: 86 19        	stx	$19                     ; 0x19 <__rc9>
    27a9: a6 13        	ldx	$13                     ; 0x13 <__rc3>
    27ab: 86 1a        	stx	$1a                     ; 0x1a <__rc10>
    27ad: a2 00        	ldx	#$0
    27af: 86 1b        	stx	$1b                     ; 0x1b <__rc11>
    27b1: a2 a7        	ldx	#$a7
    27b3: 86 a5        	stx	$a5                     ; 0xa5 <__pal_size+0x25>
    27b5: a2 00        	ldx	#$0
    27b7: 86 a6        	stx	$a6                     ; 0xa6 <__pal_size+0x26>
    27b9: a9 a8        	lda	#$a8
    27bb: 85 23        	sta	$23                     ; 0x23 <__rc19>
    27bd: 64 12        	stz	$12                     ; 0x12 <__rc2>
    27bf: a9 00        	lda	#$0
    27c1: 85 9e        	sta	$9e                     ; 0x9e <__pal_size+0x1e>
    27c3: a9 a9        	lda	#$a9
    27c5: 85 9f        	sta	$9f                     ; 0x9f <__pal_size+0x1f>
    27c7: a9 00        	lda	#$0
    27c9: 85 a0        	sta	$a0                     ; 0xa0 <__pal_size+0x20>
    27cb: a9 aa        	lda	#$aa
    27cd: 85 a1        	sta	$a1                     ; 0xa1 <__pal_size+0x21>
    27cf: a9 00        	lda	#$0
    27d1: 85 a2        	sta	$a2                     ; 0xa2 <__pal_size+0x22>
    27d3: a9 ab        	lda	#$ab
    27d5: 85 a3        	sta	$a3                     ; 0xa3 <__pal_size+0x23>
    27d7: a9 00        	lda	#$0
    27d9: 85 a4        	sta	$a4                     ; 0xa4 <__pal_size+0x24>
    27db: b2 14        	lda	($14)                   ; 0x14 <__rc4>
    27dd: a8           	tay
    27de: a6 19        	ldx	$19                     ; 0x19 <__rc9>
    27e0: 86 13        	stx	$13                     ; 0x13 <__rc3>
    27e2: a5 19        	lda	$19                     ; 0x19 <__rc9>
    27e4: a6 1b        	ldx	$1b                     ; 0x1b <__rc11>
    27e6: e0 01        	cpx	#$1
    27e8: 65 18        	adc	$18                     ; 0x18 <__rc8>
    27ea: aa           	tax
    27eb: a5 1a        	lda	$1a                     ; 0x1a <__rc10>
    27ed: 85 22        	sta	$22                     ; 0x22 <__rc18>
    27ef: a5 1a        	lda	$1a                     ; 0x1a <__rc10>
    27f1: 65 12        	adc	$12                     ; 0x12 <__rc2>
    27f3: c0 00        	cpy	#$0
    27f5: d0 03        	bne	$27fa <fileRead+0x5b>
    27f7: 4c 86 28     	jmp	$2886 <fileRead+0xe7>
    27fa: 85 1e        	sta	$1e                     ; 0x1e <__rc14>
    27fc: a5 16        	lda	$16                     ; 0x16 <__rc6>
    27fe: 38           	sec
    27ff: e5 18        	sbc	$18                     ; 0x18 <__rc8>
    2801: 84 f3        	sty	$f3                     ; 0xf3 <__pal_size+0x73>
    2803: 85 f4        	sta	$f4                     ; 0xf4 <__pal_size+0x74>
    2805: a5 9f        	lda	$9f                     ; 0x9f <__pal_size+0x1f>
    2807: 85 1a        	sta	$1a                     ; 0x1a <__rc10>
    2809: a5 a0        	lda	$a0                     ; 0xa0 <__pal_size+0x20>
    280b: 85 1b        	sta	$1b                     ; 0x1b <__rc11>
    280d: a9 82        	lda	#$82
    280f: 85 1c        	sta	$1c                     ; 0x1c <__rc12>
    2811: a9 00        	lda	#$0
    2813: 85 1d        	sta	$1d                     ; 0x1d <__rc13>
    2815: 20 60 ff     	jsr	$ff60 <end_block9+0xc9dc>
    2818: 92 1a        	sta	($1a)                   ; 0x1a <__rc10>
    281a: a9 00        	lda	#$0
    281c: 6a           	ror
    281d: 85 1c        	sta	$1c                     ; 0x1c <__rc12>
    281f: a4 82        	ldy	$82                     ; 0x82 <kernelError>
    2821: a9 ff        	lda	#$ff
    2823: 85 19        	sta	$19                     ; 0x19 <__rc9>
    2825: 98           	tya
    2826: f0 03        	beq	$282b <fileRead+0x8c>
    2828: 4c 04 29     	jmp	$2904 <fileRead+0x165>
    282b: 64 7b        	stz	$7b                     ; 0x7b <kernelEventData>
    282d: a5 a1        	lda	$a1                     ; 0xa1 <__pal_size+0x21>
    282f: 85 1a        	sta	$1a                     ; 0x1a <__rc10>
    2831: a5 a2        	lda	$a2                     ; 0xa2 <__pal_size+0x22>
    2833: 85 1b        	sta	$1b                     ; 0x1b <__rc11>
    2835: a9 82        	lda	#$82
    2837: 85 1c        	sta	$1c                     ; 0x1c <__rc12>
    2839: a9 00        	lda	#$0
    283b: 85 1d        	sta	$1d                     ; 0x1d <__rc13>
    283d: 20 00 ff     	jsr	$ff00 <end_block9+0xc97c>
    2840: 92 1a        	sta	($1a)                   ; 0x1a <__rc10>
    2842: a9 00        	lda	#$0
    2844: 6a           	ror
    2845: 85 1c        	sta	$1c                     ; 0x1c <__rc12>
    2847: a5 7b        	lda	$7b                     ; 0x7b <kernelEventData>
    2849: c9 38        	cmp	#$38
    284b: d0 03        	bne	$2850 <fileRead+0xb1>
    284d: 4c 04 29     	jmp	$2904 <fileRead+0x165>
    2850: c9 30        	cmp	#$30
    2852: d0 03        	bne	$2857 <fileRead+0xb8>
    2854: 4c 0d 29     	jmp	$290d <fileRead+0x16e>
    2857: c9 2c        	cmp	#$2c
    2859: d0 d0        	bne	$282b <fileRead+0x8c>
    285b: 86 fb        	stx	$fb                     ; 0xfb <__pal_size+0x7b>
    285d: a4 1e        	ldy	$1e                     ; 0x1e <__rc14>
    285f: 84 fc        	sty	$fc                     ; 0xfc <__pal_size+0x7c>
    2861: a5 81        	lda	$81                     ; 0x81 <kernelEventData+0x6>
    2863: 85 fd        	sta	$fd                     ; 0xfd <__pal_size+0x7d>
    2865: a5 a3        	lda	$a3                     ; 0xa3 <__pal_size+0x23>
    2867: 85 1a        	sta	$1a                     ; 0x1a <__rc10>
    2869: a5 a4        	lda	$a4                     ; 0xa4 <__pal_size+0x24>
    286b: 85 1b        	sta	$1b                     ; 0x1b <__rc11>
    286d: a9 82        	lda	#$82
    286f: 85 1c        	sta	$1c                     ; 0x1c <__rc12>
    2871: a9 00        	lda	#$0
    2873: 85 1d        	sta	$1d                     ; 0x1d <__rc13>
    2875: 20 04 ff     	jsr	$ff04 <end_block9+0xc980>
    2878: 92 1a        	sta	($1a)                   ; 0x1a <__rc10>
    287a: a9 00        	lda	#$0
    287c: 6a           	ror
    287d: 85 1c        	sta	$1c                     ; 0x1c <__rc12>
    287f: a5 81        	lda	$81                     ; 0x81 <kernelEventData+0x6>
    2881: d0 4b        	bne	$28ce <fileRead+0x12f>
    2883: 4c 12 29     	jmp	$2912 <fileRead+0x173>
    2886: 86 1a        	stx	$1a                     ; 0x1a <__rc10>
    2888: 85 1b        	sta	$1b                     ; 0x1b <__rc11>
    288a: 80 12        	bra	$289e <fileRead+0xff>
    288c: a6 23        	ldx	$23                     ; 0x23 <__rc19>
    288e: 86 1e        	stx	$1e                     ; 0x1e <__rc14>
    2890: a5 9e        	lda	$9e                     ; 0x9e <__pal_size+0x1e>
    2892: 85 1f        	sta	$1f                     ; 0x1f <__rc15>
    2894: 20 0c ff     	jsr	$ff0c <end_block9+0xc988>
    2897: 92 1e        	sta	($1e)                   ; 0x1e <__rc14>
    2899: a9 00        	lda	#$0
    289b: 6a           	ror
    289c: 85 1c        	sta	$1c                     ; 0x1c <__rc12>
    289e: 64 7b        	stz	$7b                     ; 0x7b <kernelEventData>
    28a0: a6 a5        	ldx	$a5                     ; 0xa5 <__pal_size+0x25>
    28a2: 86 1e        	stx	$1e                     ; 0x1e <__rc14>
    28a4: a6 a6        	ldx	$a6                     ; 0xa6 <__pal_size+0x26>
    28a6: 86 1f        	stx	$1f                     ; 0x1f <__rc15>
    28a8: a9 82        	lda	#$82
    28aa: 85 1c        	sta	$1c                     ; 0x1c <__rc12>
    28ac: a9 00        	lda	#$0
    28ae: 85 1d        	sta	$1d                     ; 0x1d <__rc13>
    28b0: 20 00 ff     	jsr	$ff00 <end_block9+0xc97c>
    28b3: 92 1e        	sta	($1e)                   ; 0x1e <__rc14>
    28b5: a9 00        	lda	#$0
    28b7: 6a           	ror
    28b8: 85 1c        	sta	$1c                     ; 0x1c <__rc12>
    28ba: a5 82        	lda	$82                     ; 0x82 <kernelError>
    28bc: d0 ce        	bne	$288c <fileRead+0xed>
    28be: a5 7b        	lda	$7b                     ; 0x7b <kernelEventData>
    28c0: c9 08        	cmp	#$8
    28c2: d0 da        	bne	$289e <fileRead+0xff>
    28c4: a5 81        	lda	$81                     ; 0x81 <kernelEventData+0x6>
    28c6: d0 d6        	bne	$289e <fileRead+0xff>
    28c8: a5 80        	lda	$80                     ; 0x80 <kernelEventData+0x5>
    28ca: 92 1a        	sta	($1a)                   ; 0x1a <__rc10>
    28cc: a9 01        	lda	#$1
    28ce: a0 00        	ldy	#$0
    28d0: 18           	clc
    28d1: b8           	clv
    28d2: a2 01        	ldx	#$1
    28d4: 70 02        	bvs	$28d8 <fileRead+0x139>
    28d6: a2 00        	ldx	#$0
    28d8: 86 1b        	stx	$1b                     ; 0x1b <__rc11>
    28da: 65 18        	adc	$18                     ; 0x18 <__rc8>
    28dc: 85 1c        	sta	$1c                     ; 0x1c <__rc12>
    28de: 98           	tya
    28df: 65 12        	adc	$12                     ; 0x12 <__rc2>
    28e1: aa           	tax
    28e2: c5 17        	cmp	$17                     ; 0x17 <__rc7>
    28e4: d0 06        	bne	$28ec <fileRead+0x14d>
    28e6: a4 1c        	ldy	$1c                     ; 0x1c <__rc12>
    28e8: c4 16        	cpy	$16                     ; 0x16 <__rc6>
    28ea: 80 04        	bra	$28f0 <fileRead+0x151>
    28ec: e4 17        	cpx	$17                     ; 0x17 <__rc7>
    28ee: a4 1c        	ldy	$1c                     ; 0x1c <__rc12>
    28f0: 84 18        	sty	$18                     ; 0x18 <__rc8>
    28f2: 85 12        	sta	$12                     ; 0x12 <__rc2>
    28f4: a4 13        	ldy	$13                     ; 0x13 <__rc3>
    28f6: 84 19        	sty	$19                     ; 0x19 <__rc9>
    28f8: a4 22        	ldy	$22                     ; 0x22 <__rc18>
    28fa: 84 1a        	sty	$1a                     ; 0x1a <__rc10>
    28fc: b0 03        	bcs	$2901 <fileRead+0x162>
    28fe: 4c db 27     	jmp	$27db <fileRead+0x3c>
    2901: a5 1c        	lda	$1c                     ; 0x1c <__rc12>
    2903: 60           	rts
    2904: a2 ff        	ldx	#$ff
    2906: a4 19        	ldy	$19                     ; 0x19 <__rc9>
    2908: 84 1c        	sty	$1c                     ; 0x1c <__rc12>
    290a: a5 1c        	lda	$1c                     ; 0x1c <__rc12>
    290c: 60           	rts
    290d: a6 12        	ldx	$12                     ; 0x12 <__rc2>
    290f: a5 18        	lda	$18                     ; 0x18 <__rc8>
    2911: 60           	rts
    2912: a9 00        	lda	#$0
    2914: a0 01        	ldy	#$1
    2916: 80 b8        	bra	$28d0 <fileRead+0x131>

00002918 <opl3_shadow>:
    2918: 86 16        	stx	$16                     ; 0x16 <__rc6>
    291a: a4 12        	ldy	$12                     ; 0x12 <__rc2>
    291c: a2 00        	ldx	#$0
    291e: 64 12        	stz	$12                     ; 0x12 <__rc2>
    2920: c0 00        	cpy	#$0
    2922: f0 04        	beq	$2928 <opl3_shadow+0x10>
    2924: a0 09        	ldy	#$9
    2926: 84 12        	sty	$12                     ; 0x12 <__rc2>
    2928: 18           	clc
    2929: 85 13        	sta	$13                     ; 0x13 <__rc3>
    292b: 69 80        	adc	#$80
    292d: c9 f6        	cmp	#$f6
    292f: 90 03        	bcc	$2934 <opl3_shadow+0x1c>
    2931: 4c 25 2a     	jmp	$2a25 <opl3_shadow+0x10d>
    2934: a8           	tay
    2935: b9 39 32     	lda	$3239,y                 ; 0x3239 <__BLOCK_SIZE+0x1239>
    2938: 48           	pha
    2939: b9 2f 33     	lda	$332f,y                 ; 0x332f <__BLOCK_SIZE+0x132f>
    293c: a8           	tay
    293d: 68           	pla
    293e: 85 14        	sta	$14                     ; 0x14 <__rc4>
    2940: 84 15        	sty	$15                     ; 0x15 <__rc5>
    2942: 6c 14 00     	jmp	($14)                   ; 0x14 <__rc4>
    2945: a5 13        	lda	$13                     ; 0x13 <__rc3>
    2947: 85 14        	sta	$14                     ; 0x14 <__rc4>
    2949: 49 80        	eor	#$80
    294b: c9 10        	cmp	#$10
    294d: b0 03        	bcs	$2952 <opl3_shadow+0x3a>
    294f: 4c 98 2b     	jmp	$2b98 <opl3_shadow+0x280>
    2952: 18           	clc
    2953: a5 14        	lda	$14                     ; 0x14 <__rc4>
    2955: 69 76        	adc	#$76
    2957: 4c a2 2b     	jmp	$2ba2 <opl3_shadow+0x28a>
    295a: a5 13        	lda	$13                     ; 0x13 <__rc3>
    295c: 85 14        	sta	$14                     ; 0x14 <__rc4>
    295e: 18           	clc
    295f: 69 dd        	adc	#$dd
    2961: c9 10        	cmp	#$10
    2963: b0 03        	bcs	$2968 <opl3_shadow+0x50>
    2965: 4c e3 2a     	jmp	$2ae3 <opl3_shadow+0x1cb>
    2968: a5 14        	lda	$14                     ; 0x14 <__rc4>
    296a: 18           	clc
    296b: 69 d3        	adc	#$d3
    296d: 4c ed 2a     	jmp	$2aed <opl3_shadow+0x1d5>
    2970: a5 13        	lda	$13                     ; 0x13 <__rc3>
    2972: 85 14        	sta	$14                     ; 0x14 <__rc4>
    2974: 18           	clc
    2975: 69 c0        	adc	#$c0
    2977: c9 10        	cmp	#$10
    2979: b0 03        	bcs	$297e <opl3_shadow+0x66>
    297b: 4c 1e 2b     	jmp	$2b1e <opl3_shadow+0x206>
    297e: a5 14        	lda	$14                     ; 0x14 <__rc4>
    2980: 18           	clc
    2981: 69 b6        	adc	#$b6
    2983: 4c 28 2b     	jmp	$2b28 <opl3_shadow+0x210>
    2986: a5 13        	lda	$13                     ; 0x13 <__rc3>
    2988: 18           	clc
    2989: 65 12        	adc	$12                     ; 0x12 <__rc2>
    298b: 18           	clc
    298c: 69 60        	adc	#$60
    298e: 85 12        	sta	$12                     ; 0x12 <__rc2>
    2990: 64 13        	stz	$13                     ; 0x13 <__rc3>
    2992: 0a           	asl
    2993: 26 13        	rol	$13                     ; 0x13 <__rc3>
    2995: 0a           	asl
    2996: 26 13        	rol	$13                     ; 0x13 <__rc3>
    2998: 0a           	asl
    2999: 26 13        	rol	$13                     ; 0x13 <__rc3>
    299b: 0a           	asl
    299c: 26 13        	rol	$13                     ; 0x13 <__rc3>
    299e: 38           	sec
    299f: e5 12        	sbc	$12                     ; 0x12 <__rc2>
    29a1: 85 12        	sta	$12                     ; 0x12 <__rc2>
    29a3: a5 13        	lda	$13                     ; 0x13 <__rc3>
    29a5: e9 00        	sbc	#$0
    29a7: 85 13        	sta	$13                     ; 0x13 <__rc3>
    29a9: a9 76        	lda	#$76
    29ab: 18           	clc
    29ac: 65 12        	adc	$12                     ; 0x12 <__rc2>
    29ae: 85 12        	sta	$12                     ; 0x12 <__rc2>
    29b0: a9 34        	lda	#$34
    29b2: 65 13        	adc	$13                     ; 0x13 <__rc3>
    29b4: 85 13        	sta	$13                     ; 0x13 <__rc3>
    29b6: a0 0b        	ldy	#$b
    29b8: a5 16        	lda	$16                     ; 0x16 <__rc6>
    29ba: 91 12        	sta	($12),y                 ; 0x12 <__rc2>
    29bc: 8a           	txa
    29bd: 60           	rts
    29be: a5 13        	lda	$13                     ; 0x13 <__rc3>
    29c0: 85 14        	sta	$14                     ; 0x14 <__rc4>
    29c2: 18           	clc
    29c3: 69 7d        	adc	#$7d
    29c5: c9 10        	cmp	#$10
    29c7: b0 03        	bcs	$29cc <opl3_shadow+0xb4>
    29c9: 4c 5b 2b     	jmp	$2b5b <opl3_shadow+0x243>
    29cc: a5 14        	lda	$14                     ; 0x14 <__rc4>
    29ce: 18           	clc
    29cf: 69 73        	adc	#$73
    29d1: 4c 65 2b     	jmp	$2b65 <opl3_shadow+0x24d>
    29d4: a5 13        	lda	$13                     ; 0x13 <__rc3>
    29d6: 18           	clc
    29d7: 65 12        	adc	$12                     ; 0x12 <__rc2>
    29d9: 18           	clc
    29da: 69 50        	adc	#$50
    29dc: 85 12        	sta	$12                     ; 0x12 <__rc2>
    29de: 64 15        	stz	$15                     ; 0x15 <__rc5>
    29e0: 0a           	asl
    29e1: 64 13        	stz	$13                     ; 0x13 <__rc3>
    29e3: 26 13        	rol	$13                     ; 0x13 <__rc3>
    29e5: 0a           	asl
    29e6: 26 13        	rol	$13                     ; 0x13 <__rc3>
    29e8: 0a           	asl
    29e9: 26 13        	rol	$13                     ; 0x13 <__rc3>
    29eb: 0a           	asl
    29ec: 26 13        	rol	$13                     ; 0x13 <__rc3>
    29ee: 38           	sec
    29ef: e5 12        	sbc	$12                     ; 0x12 <__rc2>
    29f1: 85 12        	sta	$12                     ; 0x12 <__rc2>
    29f3: a5 13        	lda	$13                     ; 0x13 <__rc3>
    29f5: e9 00        	sbc	#$0
    29f7: 85 13        	sta	$13                     ; 0x13 <__rc3>
    29f9: a9 76        	lda	#$76
    29fb: 18           	clc
    29fc: 65 12        	adc	$12                     ; 0x12 <__rc2>
    29fe: 85 12        	sta	$12                     ; 0x12 <__rc2>
    2a00: a9 34        	lda	#$34
    2a02: 65 13        	adc	$13                     ; 0x13 <__rc3>
    2a04: 85 13        	sta	$13                     ; 0x13 <__rc3>
    2a06: a0 0d        	ldy	#$d
    2a08: a9 20        	lda	#$20
    2a0a: 31 12        	and	($12),y                 ; 0x12 <__rc2>
    2a0c: aa           	tax
    2a0d: a5 16        	lda	$16                     ; 0x16 <__rc6>
    2a0f: 29 20        	and	#$20
    2a11: 85 14        	sta	$14                     ; 0x14 <__rc4>
    2a13: e4 14        	cpx	$14                     ; 0x14 <__rc4>
    2a15: f0 04        	beq	$2a1b <opl3_shadow+0x103>
    2a17: a2 01        	ldx	#$1
    2a19: 86 15        	stx	$15                     ; 0x15 <__rc5>
    2a1b: 91 12        	sta	($12),y                 ; 0x12 <__rc2>
    2a1d: a0 0c        	ldy	#$c
    2a1f: a5 16        	lda	$16                     ; 0x16 <__rc6>
    2a21: 91 12        	sta	($12),y                 ; 0x12 <__rc2>
    2a23: a6 15        	ldx	$15                     ; 0x15 <__rc5>
    2a25: 8a           	txa
    2a26: 60           	rts
    2a27: a5 13        	lda	$13                     ; 0x13 <__rc3>
    2a29: 85 14        	sta	$14                     ; 0x14 <__rc4>
    2a2b: 18           	clc
    2a2c: 69 e0        	adc	#$e0
    2a2e: c9 10        	cmp	#$10
    2a30: b0 03        	bcs	$2a35 <opl3_shadow+0x11d>
    2a32: 4c d5 2b     	jmp	$2bd5 <opl3_shadow+0x2bd>
    2a35: a5 14        	lda	$14                     ; 0x14 <__rc4>
    2a37: 18           	clc
    2a38: 69 d6        	adc	#$d6
    2a3a: 4c df 2b     	jmp	$2bdf <opl3_shadow+0x2c7>
    2a3d: a5 13        	lda	$13                     ; 0x13 <__rc3>
    2a3f: 85 14        	sta	$14                     ; 0x14 <__rc4>
    2a41: 18           	clc
    2a42: 69 bd        	adc	#$bd
    2a44: c9 10        	cmp	#$10
    2a46: b0 03        	bcs	$2a4b <opl3_shadow+0x133>
    2a48: 4c 12 2c     	jmp	$2c12 <opl3_shadow+0x2fa>
    2a4b: a5 14        	lda	$14                     ; 0x14 <__rc4>
    2a4d: 18           	clc
    2a4e: 69 b3        	adc	#$b3
    2a50: 4c 1c 2c     	jmp	$2c1c <opl3_shadow+0x304>
    2a53: a5 13        	lda	$13                     ; 0x13 <__rc3>
    2a55: 85 14        	sta	$14                     ; 0x14 <__rc4>
    2a57: 18           	clc
    2a58: 69 1d        	adc	#$1d
    2a5a: c9 10        	cmp	#$10
    2a5c: b0 03        	bcs	$2a61 <opl3_shadow+0x149>
    2a5e: 4c 4f 2c     	jmp	$2c4f <opl3_shadow+0x337>
    2a61: a5 14        	lda	$14                     ; 0x14 <__rc4>
    2a63: 18           	clc
    2a64: 69 13        	adc	#$13
    2a66: 4c 59 2c     	jmp	$2c59 <opl3_shadow+0x341>
    2a69: a5 13        	lda	$13                     ; 0x13 <__rc3>
    2a6b: 85 14        	sta	$14                     ; 0x14 <__rc4>
    2a6d: 18           	clc
    2a6e: 69 20        	adc	#$20
    2a70: c9 10        	cmp	#$10
    2a72: b0 03        	bcs	$2a77 <opl3_shadow+0x15f>
    2a74: 4c 8c 2c     	jmp	$2c8c <opl3_shadow+0x374>
    2a77: a5 14        	lda	$14                     ; 0x14 <__rc4>
    2a79: 18           	clc
    2a7a: 69 16        	adc	#$16
    2a7c: 4c 96 2c     	jmp	$2c96 <opl3_shadow+0x37e>
    2a7f: a5 13        	lda	$13                     ; 0x13 <__rc3>
    2a81: 18           	clc
    2a82: 65 12        	adc	$12                     ; 0x12 <__rc2>
    2a84: 18           	clc
    2a85: 69 40        	adc	#$40
    2a87: 85 12        	sta	$12                     ; 0x12 <__rc2>
    2a89: 64 13        	stz	$13                     ; 0x13 <__rc3>
    2a8b: 0a           	asl
    2a8c: 26 13        	rol	$13                     ; 0x13 <__rc3>
    2a8e: 0a           	asl
    2a8f: 26 13        	rol	$13                     ; 0x13 <__rc3>
    2a91: 0a           	asl
    2a92: 26 13        	rol	$13                     ; 0x13 <__rc3>
    2a94: 0a           	asl
    2a95: 26 13        	rol	$13                     ; 0x13 <__rc3>
    2a97: 38           	sec
    2a98: e5 12        	sbc	$12                     ; 0x12 <__rc2>
    2a9a: 85 12        	sta	$12                     ; 0x12 <__rc2>
    2a9c: a5 13        	lda	$13                     ; 0x13 <__rc3>
    2a9e: e9 00        	sbc	#$0
    2aa0: 85 13        	sta	$13                     ; 0x13 <__rc3>
    2aa2: a9 76        	lda	#$76
    2aa4: 18           	clc
    2aa5: 65 12        	adc	$12                     ; 0x12 <__rc2>
    2aa7: 85 12        	sta	$12                     ; 0x12 <__rc2>
    2aa9: a9 34        	lda	#$34
    2aab: 65 13        	adc	$13                     ; 0x13 <__rc3>
    2aad: 85 13        	sta	$13                     ; 0x13 <__rc3>
    2aaf: a0 0a        	ldy	#$a
    2ab1: a5 16        	lda	$16                     ; 0x16 <__rc6>
    2ab3: 91 12        	sta	($12),y                 ; 0x12 <__rc2>
    2ab5: 8a           	txa
    2ab6: 60           	rts
    2ab7: a5 13        	lda	$13                     ; 0x13 <__rc3>
    2ab9: 85 14        	sta	$14                     ; 0x14 <__rc4>
    2abb: 18           	clc
    2abc: 69 a0        	adc	#$a0
    2abe: c9 10        	cmp	#$10
    2ac0: b0 03        	bcs	$2ac5 <opl3_shadow+0x1ad>
    2ac2: 4c c9 2c     	jmp	$2cc9 <opl3_shadow+0x3b1>
    2ac5: a5 14        	lda	$14                     ; 0x14 <__rc4>
    2ac7: 18           	clc
    2ac8: 69 96        	adc	#$96
    2aca: 4c d3 2c     	jmp	$2cd3 <opl3_shadow+0x3bb>
    2acd: a5 13        	lda	$13                     ; 0x13 <__rc3>
    2acf: 85 14        	sta	$14                     ; 0x14 <__rc4>
    2ad1: 18           	clc
    2ad2: 69 9d        	adc	#$9d
    2ad4: c9 10        	cmp	#$10
    2ad6: b0 03        	bcs	$2adb <opl3_shadow+0x1c3>
    2ad8: 4c 06 2d     	jmp	$2d06 <opl3_shadow+0x3ee>
    2adb: a5 14        	lda	$14                     ; 0x14 <__rc4>
    2add: 18           	clc
    2ade: 69 93        	adc	#$93
    2ae0: 4c 10 2d     	jmp	$2d10 <opl3_shadow+0x3f8>
    2ae3: a8           	tay
    2ae4: c0 08        	cpy	#$8
    2ae6: 90 05        	bcc	$2aed <opl3_shadow+0x1d5>
    2ae8: 18           	clc
    2ae9: a5 14        	lda	$14                     ; 0x14 <__rc4>
    2aeb: 69 d8        	adc	#$d8
    2aed: 18           	clc
    2aee: 65 12        	adc	$12                     ; 0x12 <__rc2>
    2af0: 85 12        	sta	$12                     ; 0x12 <__rc2>
    2af2: 64 13        	stz	$13                     ; 0x13 <__rc3>
    2af4: 0a           	asl
    2af5: 26 13        	rol	$13                     ; 0x13 <__rc3>
    2af7: 0a           	asl
    2af8: 26 13        	rol	$13                     ; 0x13 <__rc3>
    2afa: 0a           	asl
    2afb: 26 13        	rol	$13                     ; 0x13 <__rc3>
    2afd: 0a           	asl
    2afe: 26 13        	rol	$13                     ; 0x13 <__rc3>
    2b00: 38           	sec
    2b01: e5 12        	sbc	$12                     ; 0x12 <__rc2>
    2b03: 85 12        	sta	$12                     ; 0x12 <__rc2>
    2b05: a5 13        	lda	$13                     ; 0x13 <__rc3>
    2b07: e9 00        	sbc	#$0
    2b09: 85 13        	sta	$13                     ; 0x13 <__rc3>
    2b0b: a9 76        	lda	#$76
    2b0d: 18           	clc
    2b0e: 65 12        	adc	$12                     ; 0x12 <__rc2>
    2b10: 85 12        	sta	$12                     ; 0x12 <__rc2>
    2b12: a9 34        	lda	#$34
    2b14: 65 13        	adc	$13                     ; 0x13 <__rc3>
    2b16: 85 13        	sta	$13                     ; 0x13 <__rc3>
    2b18: a5 16        	lda	$16                     ; 0x16 <__rc6>
    2b1a: 92 12        	sta	($12)                   ; 0x12 <__rc2>
    2b1c: 8a           	txa
    2b1d: 60           	rts
    2b1e: a8           	tay
    2b1f: c0 08        	cpy	#$8
    2b21: 90 05        	bcc	$2b28 <opl3_shadow+0x210>
    2b23: 18           	clc
    2b24: a5 14        	lda	$14                     ; 0x14 <__rc4>
    2b26: 69 bb        	adc	#$bb
    2b28: 18           	clc
    2b29: 65 12        	adc	$12                     ; 0x12 <__rc2>
    2b2b: 85 12        	sta	$12                     ; 0x12 <__rc2>
    2b2d: 64 13        	stz	$13                     ; 0x13 <__rc3>
    2b2f: 0a           	asl
    2b30: 26 13        	rol	$13                     ; 0x13 <__rc3>
    2b32: 0a           	asl
    2b33: 26 13        	rol	$13                     ; 0x13 <__rc3>
    2b35: 0a           	asl
    2b36: 26 13        	rol	$13                     ; 0x13 <__rc3>
    2b38: 0a           	asl
    2b39: 26 13        	rol	$13                     ; 0x13 <__rc3>
    2b3b: 38           	sec
    2b3c: e5 12        	sbc	$12                     ; 0x12 <__rc2>
    2b3e: 85 12        	sta	$12                     ; 0x12 <__rc2>
    2b40: a5 13        	lda	$13                     ; 0x13 <__rc3>
    2b42: e9 00        	sbc	#$0
    2b44: 85 13        	sta	$13                     ; 0x13 <__rc3>
    2b46: a9 76        	lda	#$76
    2b48: 18           	clc
    2b49: 65 12        	adc	$12                     ; 0x12 <__rc2>
    2b4b: 85 12        	sta	$12                     ; 0x12 <__rc2>
    2b4d: a9 34        	lda	#$34
    2b4f: 65 13        	adc	$13                     ; 0x13 <__rc3>
    2b51: 85 13        	sta	$13                     ; 0x13 <__rc3>
    2b53: a0 03        	ldy	#$3
    2b55: a5 16        	lda	$16                     ; 0x16 <__rc6>
    2b57: 91 12        	sta	($12),y                 ; 0x12 <__rc2>
    2b59: 8a           	txa
    2b5a: 60           	rts
    2b5b: a8           	tay
    2b5c: c0 08        	cpy	#$8
    2b5e: 90 05        	bcc	$2b65 <opl3_shadow+0x24d>
    2b60: 18           	clc
    2b61: a5 14        	lda	$14                     ; 0x14 <__rc4>
    2b63: 69 78        	adc	#$78
    2b65: 18           	clc
    2b66: 65 12        	adc	$12                     ; 0x12 <__rc2>
    2b68: 85 12        	sta	$12                     ; 0x12 <__rc2>
    2b6a: 64 13        	stz	$13                     ; 0x13 <__rc3>
    2b6c: 0a           	asl
    2b6d: 26 13        	rol	$13                     ; 0x13 <__rc3>
    2b6f: 0a           	asl
    2b70: 26 13        	rol	$13                     ; 0x13 <__rc3>
    2b72: 0a           	asl
    2b73: 26 13        	rol	$13                     ; 0x13 <__rc3>
    2b75: 0a           	asl
    2b76: 26 13        	rol	$13                     ; 0x13 <__rc3>
    2b78: 38           	sec
    2b79: e5 12        	sbc	$12                     ; 0x12 <__rc2>
    2b7b: 85 12        	sta	$12                     ; 0x12 <__rc2>
    2b7d: a5 13        	lda	$13                     ; 0x13 <__rc3>
    2b7f: e9 00        	sbc	#$0
    2b81: 85 13        	sta	$13                     ; 0x13 <__rc3>
    2b83: a9 76        	lda	#$76
    2b85: 18           	clc
    2b86: 65 12        	adc	$12                     ; 0x12 <__rc2>
    2b88: 85 12        	sta	$12                     ; 0x12 <__rc2>
    2b8a: a9 34        	lda	#$34
    2b8c: 65 13        	adc	$13                     ; 0x13 <__rc3>
    2b8e: 85 13        	sta	$13                     ; 0x13 <__rc3>
    2b90: a0 06        	ldy	#$6
    2b92: a5 16        	lda	$16                     ; 0x16 <__rc6>
    2b94: 91 12        	sta	($12),y                 ; 0x12 <__rc2>
    2b96: 8a           	txa
    2b97: 60           	rts
    2b98: a8           	tay
    2b99: c0 08        	cpy	#$8
    2b9b: 90 05        	bcc	$2ba2 <opl3_shadow+0x28a>
    2b9d: 18           	clc
    2b9e: a5 14        	lda	$14                     ; 0x14 <__rc4>
    2ba0: 69 7b        	adc	#$7b
    2ba2: 18           	clc
    2ba3: 65 12        	adc	$12                     ; 0x12 <__rc2>
    2ba5: 85 12        	sta	$12                     ; 0x12 <__rc2>
    2ba7: 64 13        	stz	$13                     ; 0x13 <__rc3>
    2ba9: 0a           	asl
    2baa: 26 13        	rol	$13                     ; 0x13 <__rc3>
    2bac: 0a           	asl
    2bad: 26 13        	rol	$13                     ; 0x13 <__rc3>
    2baf: 0a           	asl
    2bb0: 26 13        	rol	$13                     ; 0x13 <__rc3>
    2bb2: 0a           	asl
    2bb3: 26 13        	rol	$13                     ; 0x13 <__rc3>
    2bb5: 38           	sec
    2bb6: e5 12        	sbc	$12                     ; 0x12 <__rc2>
    2bb8: 85 12        	sta	$12                     ; 0x12 <__rc2>
    2bba: a5 13        	lda	$13                     ; 0x13 <__rc3>
    2bbc: e9 00        	sbc	#$0
    2bbe: 85 13        	sta	$13                     ; 0x13 <__rc3>
    2bc0: a9 76        	lda	#$76
    2bc2: 18           	clc
    2bc3: 65 12        	adc	$12                     ; 0x12 <__rc2>
    2bc5: 85 12        	sta	$12                     ; 0x12 <__rc2>
    2bc7: a9 34        	lda	#$34
    2bc9: 65 13        	adc	$13                     ; 0x13 <__rc3>
    2bcb: 85 13        	sta	$13                     ; 0x13 <__rc3>
    2bcd: a0 07        	ldy	#$7
    2bcf: a5 16        	lda	$16                     ; 0x16 <__rc6>
    2bd1: 91 12        	sta	($12),y                 ; 0x12 <__rc2>
    2bd3: 8a           	txa
    2bd4: 60           	rts
    2bd5: a8           	tay
    2bd6: c0 08        	cpy	#$8
    2bd8: 90 05        	bcc	$2bdf <opl3_shadow+0x2c7>
    2bda: 18           	clc
    2bdb: a5 14        	lda	$14                     ; 0x14 <__rc4>
    2bdd: 69 db        	adc	#$db
    2bdf: 18           	clc
    2be0: 65 12        	adc	$12                     ; 0x12 <__rc2>
    2be2: 85 12        	sta	$12                     ; 0x12 <__rc2>
    2be4: 64 13        	stz	$13                     ; 0x13 <__rc3>
    2be6: 0a           	asl
    2be7: 26 13        	rol	$13                     ; 0x13 <__rc3>
    2be9: 0a           	asl
    2bea: 26 13        	rol	$13                     ; 0x13 <__rc3>
    2bec: 0a           	asl
    2bed: 26 13        	rol	$13                     ; 0x13 <__rc3>
    2bef: 0a           	asl
    2bf0: 26 13        	rol	$13                     ; 0x13 <__rc3>
    2bf2: 38           	sec
    2bf3: e5 12        	sbc	$12                     ; 0x12 <__rc2>
    2bf5: 85 12        	sta	$12                     ; 0x12 <__rc2>
    2bf7: a5 13        	lda	$13                     ; 0x13 <__rc3>
    2bf9: e9 00        	sbc	#$0
    2bfb: 85 13        	sta	$13                     ; 0x13 <__rc3>
    2bfd: a9 76        	lda	#$76
    2bff: 18           	clc
    2c00: 65 12        	adc	$12                     ; 0x12 <__rc2>
    2c02: 85 12        	sta	$12                     ; 0x12 <__rc2>
    2c04: a9 34        	lda	#$34
    2c06: 65 13        	adc	$13                     ; 0x13 <__rc3>
    2c08: 85 13        	sta	$13                     ; 0x13 <__rc3>
    2c0a: a0 01        	ldy	#$1
    2c0c: a5 16        	lda	$16                     ; 0x16 <__rc6>
    2c0e: 91 12        	sta	($12),y                 ; 0x12 <__rc2>
    2c10: 8a           	txa
    2c11: 60           	rts
    2c12: a8           	tay
    2c13: c0 08        	cpy	#$8
    2c15: 90 05        	bcc	$2c1c <opl3_shadow+0x304>
    2c17: 18           	clc
    2c18: a5 14        	lda	$14                     ; 0x14 <__rc4>
    2c1a: 69 b8        	adc	#$b8
    2c1c: 18           	clc
    2c1d: 65 12        	adc	$12                     ; 0x12 <__rc2>
    2c1f: 85 12        	sta	$12                     ; 0x12 <__rc2>
    2c21: 64 13        	stz	$13                     ; 0x13 <__rc3>
    2c23: 0a           	asl
    2c24: 26 13        	rol	$13                     ; 0x13 <__rc3>
    2c26: 0a           	asl
    2c27: 26 13        	rol	$13                     ; 0x13 <__rc3>
    2c29: 0a           	asl
    2c2a: 26 13        	rol	$13                     ; 0x13 <__rc3>
    2c2c: 0a           	asl
    2c2d: 26 13        	rol	$13                     ; 0x13 <__rc3>
    2c2f: 38           	sec
    2c30: e5 12        	sbc	$12                     ; 0x12 <__rc2>
    2c32: 85 12        	sta	$12                     ; 0x12 <__rc2>
    2c34: a5 13        	lda	$13                     ; 0x13 <__rc3>
    2c36: e9 00        	sbc	#$0
    2c38: 85 13        	sta	$13                     ; 0x13 <__rc3>
    2c3a: a9 76        	lda	#$76
    2c3c: 18           	clc
    2c3d: 65 12        	adc	$12                     ; 0x12 <__rc2>
    2c3f: 85 12        	sta	$12                     ; 0x12 <__rc2>
    2c41: a9 34        	lda	#$34
    2c43: 65 13        	adc	$13                     ; 0x13 <__rc3>
    2c45: 85 13        	sta	$13                     ; 0x13 <__rc3>
    2c47: a0 02        	ldy	#$2
    2c49: a5 16        	lda	$16                     ; 0x16 <__rc6>
    2c4b: 91 12        	sta	($12),y                 ; 0x12 <__rc2>
    2c4d: 8a           	txa
    2c4e: 60           	rts
    2c4f: a8           	tay
    2c50: c0 08        	cpy	#$8
    2c52: 90 05        	bcc	$2c59 <opl3_shadow+0x341>
    2c54: 18           	clc
    2c55: a5 14        	lda	$14                     ; 0x14 <__rc4>
    2c57: 69 18        	adc	#$18
    2c59: 18           	clc
    2c5a: 65 12        	adc	$12                     ; 0x12 <__rc2>
    2c5c: 85 12        	sta	$12                     ; 0x12 <__rc2>
    2c5e: 64 13        	stz	$13                     ; 0x13 <__rc3>
    2c60: 0a           	asl
    2c61: 26 13        	rol	$13                     ; 0x13 <__rc3>
    2c63: 0a           	asl
    2c64: 26 13        	rol	$13                     ; 0x13 <__rc3>
    2c66: 0a           	asl
    2c67: 26 13        	rol	$13                     ; 0x13 <__rc3>
    2c69: 0a           	asl
    2c6a: 26 13        	rol	$13                     ; 0x13 <__rc3>
    2c6c: 38           	sec
    2c6d: e5 12        	sbc	$12                     ; 0x12 <__rc2>
    2c6f: 85 12        	sta	$12                     ; 0x12 <__rc2>
    2c71: a5 13        	lda	$13                     ; 0x13 <__rc3>
    2c73: e9 00        	sbc	#$0
    2c75: 85 13        	sta	$13                     ; 0x13 <__rc3>
    2c77: a9 76        	lda	#$76
    2c79: 18           	clc
    2c7a: 65 12        	adc	$12                     ; 0x12 <__rc2>
    2c7c: 85 12        	sta	$12                     ; 0x12 <__rc2>
    2c7e: a9 34        	lda	#$34
    2c80: 65 13        	adc	$13                     ; 0x13 <__rc3>
    2c82: 85 13        	sta	$13                     ; 0x13 <__rc3>
    2c84: a0 08        	ldy	#$8
    2c86: a5 16        	lda	$16                     ; 0x16 <__rc6>
    2c88: 91 12        	sta	($12),y                 ; 0x12 <__rc2>
    2c8a: 8a           	txa
    2c8b: 60           	rts
    2c8c: a8           	tay
    2c8d: c0 08        	cpy	#$8
    2c8f: 90 05        	bcc	$2c96 <opl3_shadow+0x37e>
    2c91: 18           	clc
    2c92: a5 14        	lda	$14                     ; 0x14 <__rc4>
    2c94: 69 1b        	adc	#$1b
    2c96: 18           	clc
    2c97: 65 12        	adc	$12                     ; 0x12 <__rc2>
    2c99: 85 12        	sta	$12                     ; 0x12 <__rc2>
    2c9b: 64 13        	stz	$13                     ; 0x13 <__rc3>
    2c9d: 0a           	asl
    2c9e: 26 13        	rol	$13                     ; 0x13 <__rc3>
    2ca0: 0a           	asl
    2ca1: 26 13        	rol	$13                     ; 0x13 <__rc3>
    2ca3: 0a           	asl
    2ca4: 26 13        	rol	$13                     ; 0x13 <__rc3>
    2ca6: 0a           	asl
    2ca7: 26 13        	rol	$13                     ; 0x13 <__rc3>
    2ca9: 38           	sec
    2caa: e5 12        	sbc	$12                     ; 0x12 <__rc2>
    2cac: 85 12        	sta	$12                     ; 0x12 <__rc2>
    2cae: a5 13        	lda	$13                     ; 0x13 <__rc3>
    2cb0: e9 00        	sbc	#$0
    2cb2: 85 13        	sta	$13                     ; 0x13 <__rc3>
    2cb4: a9 76        	lda	#$76
    2cb6: 18           	clc
    2cb7: 65 12        	adc	$12                     ; 0x12 <__rc2>
    2cb9: 85 12        	sta	$12                     ; 0x12 <__rc2>
    2cbb: a9 34        	lda	#$34
    2cbd: 65 13        	adc	$13                     ; 0x13 <__rc3>
    2cbf: 85 13        	sta	$13                     ; 0x13 <__rc3>
    2cc1: a0 09        	ldy	#$9
    2cc3: a5 16        	lda	$16                     ; 0x16 <__rc6>
    2cc5: 91 12        	sta	($12),y                 ; 0x12 <__rc2>
    2cc7: 8a           	txa
    2cc8: 60           	rts
    2cc9: a8           	tay
    2cca: c0 08        	cpy	#$8
    2ccc: 90 05        	bcc	$2cd3 <opl3_shadow+0x3bb>
    2cce: 18           	clc
    2ccf: a5 14        	lda	$14                     ; 0x14 <__rc4>
    2cd1: 69 9b        	adc	#$9b
    2cd3: 18           	clc
    2cd4: 65 12        	adc	$12                     ; 0x12 <__rc2>
    2cd6: 85 12        	sta	$12                     ; 0x12 <__rc2>
    2cd8: 64 13        	stz	$13                     ; 0x13 <__rc3>
    2cda: 0a           	asl
    2cdb: 26 13        	rol	$13                     ; 0x13 <__rc3>
    2cdd: 0a           	asl
    2cde: 26 13        	rol	$13                     ; 0x13 <__rc3>
    2ce0: 0a           	asl
    2ce1: 26 13        	rol	$13                     ; 0x13 <__rc3>
    2ce3: 0a           	asl
    2ce4: 26 13        	rol	$13                     ; 0x13 <__rc3>
    2ce6: 38           	sec
    2ce7: e5 12        	sbc	$12                     ; 0x12 <__rc2>
    2ce9: 85 12        	sta	$12                     ; 0x12 <__rc2>
    2ceb: a5 13        	lda	$13                     ; 0x13 <__rc3>
    2ced: e9 00        	sbc	#$0
    2cef: 85 13        	sta	$13                     ; 0x13 <__rc3>
    2cf1: a9 76        	lda	#$76
    2cf3: 18           	clc
    2cf4: 65 12        	adc	$12                     ; 0x12 <__rc2>
    2cf6: 85 12        	sta	$12                     ; 0x12 <__rc2>
    2cf8: a9 34        	lda	#$34
    2cfa: 65 13        	adc	$13                     ; 0x13 <__rc3>
    2cfc: 85 13        	sta	$13                     ; 0x13 <__rc3>
    2cfe: a0 05        	ldy	#$5
    2d00: a5 16        	lda	$16                     ; 0x16 <__rc6>
    2d02: 91 12        	sta	($12),y                 ; 0x12 <__rc2>
    2d04: 8a           	txa
    2d05: 60           	rts
    2d06: a8           	tay
    2d07: c0 08        	cpy	#$8
    2d09: 90 05        	bcc	$2d10 <opl3_shadow+0x3f8>
    2d0b: 18           	clc
    2d0c: a5 14        	lda	$14                     ; 0x14 <__rc4>
    2d0e: 69 98        	adc	#$98
    2d10: 18           	clc
    2d11: 65 12        	adc	$12                     ; 0x12 <__rc2>
    2d13: 85 12        	sta	$12                     ; 0x12 <__rc2>
    2d15: 64 13        	stz	$13                     ; 0x13 <__rc3>
    2d17: 0a           	asl
    2d18: 26 13        	rol	$13                     ; 0x13 <__rc3>
    2d1a: 0a           	asl
    2d1b: 26 13        	rol	$13                     ; 0x13 <__rc3>
    2d1d: 0a           	asl
    2d1e: 26 13        	rol	$13                     ; 0x13 <__rc3>
    2d20: 0a           	asl
    2d21: 26 13        	rol	$13                     ; 0x13 <__rc3>
    2d23: 38           	sec
    2d24: e5 12        	sbc	$12                     ; 0x12 <__rc2>
    2d26: 85 12        	sta	$12                     ; 0x12 <__rc2>
    2d28: a5 13        	lda	$13                     ; 0x13 <__rc3>
    2d2a: e9 00        	sbc	#$0
    2d2c: 85 13        	sta	$13                     ; 0x13 <__rc3>
    2d2e: a9 76        	lda	#$76
    2d30: 18           	clc
    2d31: 65 12        	adc	$12                     ; 0x12 <__rc2>
    2d33: 85 12        	sta	$12                     ; 0x12 <__rc2>
    2d35: a9 34        	lda	#$34
    2d37: 65 13        	adc	$13                     ; 0x13 <__rc3>
    2d39: 85 13        	sta	$13                     ; 0x13 <__rc3>
    2d3b: a0 04        	ldy	#$4
    2d3d: a5 16        	lda	$16                     ; 0x16 <__rc6>
    2d3f: 91 12        	sta	($12),y                 ; 0x12 <__rc2>
    2d41: 8a           	txa
    2d42: 60           	rts

00002d43 <copyToRAM>:
    2d43: 18           	clc
    2d44: a5 10        	lda	$10                     ; 0x10 <__rc0>
    2d46: 69 f8        	adc	#$f8
    2d48: 85 10        	sta	$10                     ; 0x10 <__rc0>
    2d4a: a5 11        	lda	$11                     ; 0x11 <__rc1>
    2d4c: 69 fe        	adc	#$fe
    2d4e: 85 11        	sta	$11                     ; 0x11 <__rc1>
    2d50: a5 12        	lda	$12                     ; 0x12 <__rc2>
    2d52: a6 13        	ldx	$13                     ; 0x13 <__rc3>
    2d54: 18           	clc
    2d55: 48           	pha
    2d56: a5 10        	lda	$10                     ; 0x10 <__rc0>
    2d58: 69 06        	adc	#$6
    2d5a: 85 12        	sta	$12                     ; 0x12 <__rc2>
    2d5c: a5 11        	lda	$11                     ; 0x11 <__rc1>
    2d5e: 69 01        	adc	#$1
    2d60: 85 13        	sta	$13                     ; 0x13 <__rc3>
    2d62: 68           	pla
    2d63: 92 12        	sta	($12)                   ; 0x12 <__rc2>
    2d65: a0 01        	ldy	#$1
    2d67: 8a           	txa
    2d68: 91 12        	sta	($12),y                 ; 0x12 <__rc2>
    2d6a: 18           	clc
    2d6b: a5 10        	lda	$10                     ; 0x10 <__rc0>
    2d6d: 69 05        	adc	#$5
    2d6f: 85 12        	sta	$12                     ; 0x12 <__rc2>
    2d71: a5 11        	lda	$11                     ; 0x11 <__rc1>
    2d73: 69 01        	adc	#$1
    2d75: 85 13        	sta	$13                     ; 0x13 <__rc3>
    2d77: 98           	tya
    2d78: 92 12        	sta	($12)                   ; 0x12 <__rc2>
    2d7a: 18           	clc
    2d7b: a5 10        	lda	$10                     ; 0x10 <__rc0>
    2d7d: 69 05        	adc	#$5
    2d7f: 85 12        	sta	$12                     ; 0x12 <__rc2>
    2d81: a5 11        	lda	$11                     ; 0x11 <__rc1>
    2d83: 69 00        	adc	#$0
    2d85: 85 13        	sta	$13                     ; 0x13 <__rc3>
    2d87: a9 00        	lda	#$0
    2d89: 92 12        	sta	($12)                   ; 0x12 <__rc2>
    2d8b: a9 00        	lda	#$0
    2d8d: 18           	clc
    2d8e: 48           	pha
    2d8f: a5 10        	lda	$10                     ; 0x10 <__rc0>
    2d91: 69 01        	adc	#$1
    2d93: 85 12        	sta	$12                     ; 0x12 <__rc2>
    2d95: a5 11        	lda	$11                     ; 0x11 <__rc1>
    2d97: 69 00        	adc	#$0
    2d99: 85 13        	sta	$13                     ; 0x13 <__rc3>
    2d9b: 68           	pla
    2d9c: 92 12        	sta	($12)                   ; 0x12 <__rc2>
    2d9e: 91 12        	sta	($12),y                 ; 0x12 <__rc2>
    2da0: c8           	iny
    2da1: 91 12        	sta	($12),y                 ; 0x12 <__rc2>
    2da3: c8           	iny
    2da4: 91 12        	sta	($12),y                 ; 0x12 <__rc2>
    2da6: 18           	clc
    2da7: a5 10        	lda	$10                     ; 0x10 <__rc0>
    2da9: 69 05        	adc	#$5
    2dab: 85 12        	sta	$12                     ; 0x12 <__rc2>
    2dad: a5 11        	lda	$11                     ; 0x11 <__rc1>
    2daf: 69 01        	adc	#$1
    2db1: 85 13        	sta	$13                     ; 0x13 <__rc3>
    2db3: b2 12        	lda	($12)                   ; 0x12 <__rc2>
    2db5: d0 03        	bne	$2dba <copyToRAM+0x77>
    2db7: 4c 29 2f     	jmp	$2f29 <copyToRAM+0x1e6>
    2dba: 18           	clc
    2dbb: a5 10        	lda	$10                     ; 0x10 <__rc0>
    2dbd: 69 06        	adc	#$6
    2dbf: 85 12        	sta	$12                     ; 0x12 <__rc2>
    2dc1: a5 11        	lda	$11                     ; 0x11 <__rc1>
    2dc3: 69 01        	adc	#$1
    2dc5: 85 13        	sta	$13                     ; 0x13 <__rc3>
    2dc7: b2 12        	lda	($12)                   ; 0x12 <__rc2>
    2dc9: 85 14        	sta	$14                     ; 0x14 <__rc4>
    2dcb: a0 01        	ldy	#$1
    2dcd: b1 12        	lda	($12),y                 ; 0x12 <__rc2>
    2dcf: 85 15        	sta	$15                     ; 0x15 <__rc5>
    2dd1: a9 ff        	lda	#$ff
    2dd3: a2 00        	ldx	#$0
    2dd5: 18           	clc
    2dd6: 48           	pha
    2dd7: a5 10        	lda	$10                     ; 0x10 <__rc0>
    2dd9: 69 06        	adc	#$6
    2ddb: 85 12        	sta	$12                     ; 0x12 <__rc2>
    2ddd: a5 11        	lda	$11                     ; 0x11 <__rc1>
    2ddf: 69 00        	adc	#$0
    2de1: 85 13        	sta	$13                     ; 0x13 <__rc3>
    2de3: 68           	pla
    2de4: 20 9f 27     	jsr	$279f <fileRead>
    2de7: 18           	clc
    2de8: 48           	pha
    2de9: a5 10        	lda	$10                     ; 0x10 <__rc0>
    2deb: 69 05        	adc	#$5
    2ded: 85 12        	sta	$12                     ; 0x12 <__rc2>
    2def: a5 11        	lda	$11                     ; 0x11 <__rc1>
    2df1: 69 00        	adc	#$0
    2df3: 85 13        	sta	$13                     ; 0x13 <__rc3>
    2df5: 68           	pla
    2df6: 92 12        	sta	($12)                   ; 0x12 <__rc2>
    2df8: b2 12        	lda	($12)                   ; 0x12 <__rc2>
    2dfa: c9 ff        	cmp	#$ff
    2dfc: f0 02        	beq	$2e00 <copyToRAM+0xbd>
    2dfe: 80 02        	bra	$2e02 <copyToRAM+0xbf>
    2e00: 80 15        	bra	$2e17 <copyToRAM+0xd4>
    2e02: 80 00        	bra	$2e04 <copyToRAM+0xc1>
    2e04: 80 00        	bra	$2e06 <copyToRAM+0xc3>
    2e06: 18           	clc
    2e07: a5 10        	lda	$10                     ; 0x10 <__rc0>
    2e09: 69 05        	adc	#$5
    2e0b: 85 12        	sta	$12                     ; 0x12 <__rc2>
    2e0d: a5 11        	lda	$11                     ; 0x11 <__rc1>
    2e0f: 69 01        	adc	#$1
    2e11: 85 13        	sta	$13                     ; 0x13 <__rc3>
    2e13: a9 00        	lda	#$0
    2e15: 92 12        	sta	($12)                   ; 0x12 <__rc2>
    2e17: 18           	clc
    2e18: a6 10        	ldx	$10                     ; 0x10 <__rc0>
    2e1a: 86 12        	stx	$12                     ; 0x12 <__rc2>
    2e1c: a6 11        	ldx	$11                     ; 0x11 <__rc1>
    2e1e: 86 13        	stx	$13                     ; 0x13 <__rc3>
    2e20: a9 00        	lda	#$0
    2e22: 92 12        	sta	($12)                   ; 0x12 <__rc2>
    2e24: 18           	clc
    2e25: a6 10        	ldx	$10                     ; 0x10 <__rc0>
    2e27: 86 12        	stx	$12                     ; 0x12 <__rc2>
    2e29: a6 11        	ldx	$11                     ; 0x11 <__rc1>
    2e2b: 86 13        	stx	$13                     ; 0x13 <__rc3>
    2e2d: b2 12        	lda	($12)                   ; 0x12 <__rc2>
    2e2f: 18           	clc
    2e30: 48           	pha
    2e31: a5 10        	lda	$10                     ; 0x10 <__rc0>
    2e33: 69 05        	adc	#$5
    2e35: 85 12        	sta	$12                     ; 0x12 <__rc2>
    2e37: a5 11        	lda	$11                     ; 0x11 <__rc1>
    2e39: 69 00        	adc	#$0
    2e3b: 85 13        	sta	$13                     ; 0x13 <__rc3>
    2e3d: 68           	pla
    2e3e: d2 12        	cmp	($12)                   ; 0x12 <__rc2>
    2e40: a9 00        	lda	#$0
    2e42: e9 00        	sbc	#$0
    2e44: 70 02        	bvs	$2e48 <copyToRAM+0x105>
    2e46: 80 04        	bra	$2e4c <copyToRAM+0x109>
    2e48: 49 80        	eor	#$80
    2e4a: 80 02        	bra	$2e4e <copyToRAM+0x10b>
    2e4c: 80 00        	bra	$2e4e <copyToRAM+0x10b>
    2e4e: aa           	tax
    2e4f: 30 05        	bmi	$2e56 <copyToRAM+0x113>
    2e51: 80 00        	bra	$2e53 <copyToRAM+0x110>
    2e53: 4c cb 2e     	jmp	$2ecb <copyToRAM+0x188>
    2e56: 18           	clc
    2e57: a6 10        	ldx	$10                     ; 0x10 <__rc0>
    2e59: 86 18        	stx	$18                     ; 0x18 <__rc8>
    2e5b: a6 11        	ldx	$11                     ; 0x11 <__rc1>
    2e5d: 86 19        	stx	$19                     ; 0x19 <__rc9>
    2e5f: 18           	clc
    2e60: a5 10        	lda	$10                     ; 0x10 <__rc0>
    2e62: 69 01        	adc	#$1
    2e64: 85 14        	sta	$14                     ; 0x14 <__rc4>
    2e66: a5 11        	lda	$11                     ; 0x11 <__rc1>
    2e68: 69 00        	adc	#$0
    2e6a: 85 15        	sta	$15                     ; 0x15 <__rc5>
    2e6c: b2 14        	lda	($14)                   ; 0x14 <__rc4>
    2e6e: a0 01        	ldy	#$1
    2e70: 18           	clc
    2e71: 72 18        	adc	($18)                   ; 0x18 <__rc8>
    2e73: 85 16        	sta	$16                     ; 0x16 <__rc6>
    2e75: a9 00        	lda	#$0
    2e77: 71 14        	adc	($14),y                 ; 0x14 <__rc4>
    2e79: aa           	tax
    2e7a: a9 00        	lda	#$0
    2e7c: c8           	iny
    2e7d: 71 14        	adc	($14),y                 ; 0x14 <__rc4>
    2e7f: 85 12        	sta	$12                     ; 0x12 <__rc2>
    2e81: c8           	iny
    2e82: a9 00        	lda	#$0
    2e84: 71 14        	adc	($14),y                 ; 0x14 <__rc4>
    2e86: a8           	tay
    2e87: 18           	clc
    2e88: a5 16        	lda	$16                     ; 0x16 <__rc6>
    2e8a: 69 00        	adc	#$0
    2e8c: 85 16        	sta	$16                     ; 0x16 <__rc6>
    2e8e: 8a           	txa
    2e8f: 69 00        	adc	#$0
    2e91: 85 17        	sta	$17                     ; 0x17 <__rc7>
    2e93: a5 12        	lda	$12                     ; 0x12 <__rc2>
    2e95: 69 10        	adc	#$10
    2e97: 85 12        	sta	$12                     ; 0x12 <__rc2>
    2e99: 98           	tya
    2e9a: 69 00        	adc	#$0
    2e9c: aa           	tax
    2e9d: 18           	clc
    2e9e: a5 10        	lda	$10                     ; 0x10 <__rc0>
    2ea0: 69 06        	adc	#$6
    2ea2: 85 14        	sta	$14                     ; 0x14 <__rc4>
    2ea4: a5 11        	lda	$11                     ; 0x11 <__rc1>
    2ea6: 69 00        	adc	#$0
    2ea8: 85 15        	sta	$15                     ; 0x15 <__rc5>
    2eaa: b2 18        	lda	($18)                   ; 0x18 <__rc8>
    2eac: a8           	tay
    2ead: b1 14        	lda	($14),y                 ; 0x14 <__rc4>
    2eaf: 86 13        	stx	$13                     ; 0x13 <__rc3>
    2eb1: 85 14        	sta	$14                     ; 0x14 <__rc4>
    2eb3: a6 17        	ldx	$17                     ; 0x17 <__rc7>
    2eb5: a5 16        	lda	$16                     ; 0x16 <__rc6>
    2eb7: 20 f4 04     	jsr	$4f4 <POKE24>
    2eba: 18           	clc
    2ebb: a6 10        	ldx	$10                     ; 0x10 <__rc0>
    2ebd: 86 12        	stx	$12                     ; 0x12 <__rc2>
    2ebf: a6 11        	ldx	$11                     ; 0x11 <__rc1>
    2ec1: 86 13        	stx	$13                     ; 0x13 <__rc3>
    2ec3: b2 12        	lda	($12)                   ; 0x12 <__rc2>
    2ec5: 1a           	inc
    2ec6: 92 12        	sta	($12)                   ; 0x12 <__rc2>
    2ec8: 4c 24 2e     	jmp	$2e24 <copyToRAM+0xe1>
    2ecb: 18           	clc
    2ecc: a5 10        	lda	$10                     ; 0x10 <__rc0>
    2ece: 69 05        	adc	#$5
    2ed0: 85 12        	sta	$12                     ; 0x12 <__rc2>
    2ed2: a5 11        	lda	$11                     ; 0x11 <__rc1>
    2ed4: 69 00        	adc	#$0
    2ed6: 85 13        	sta	$13                     ; 0x13 <__rc3>
    2ed8: b2 12        	lda	($12)                   ; 0x12 <__rc2>
    2eda: 85 14        	sta	$14                     ; 0x14 <__rc4>
    2edc: 18           	clc
    2edd: a5 10        	lda	$10                     ; 0x10 <__rc0>
    2edf: 69 01        	adc	#$1
    2ee1: 85 12        	sta	$12                     ; 0x12 <__rc2>
    2ee3: a5 11        	lda	$11                     ; 0x11 <__rc1>
    2ee5: 69 00        	adc	#$0
    2ee7: 85 13        	sta	$13                     ; 0x13 <__rc3>
    2ee9: a0 01        	ldy	#$1
    2eeb: b1 12        	lda	($12),y                 ; 0x12 <__rc2>
    2eed: 85 1a        	sta	$1a                     ; 0x1a <__rc10>
    2eef: a2 01        	ldx	#$1
    2ef1: 86 16        	stx	$16                     ; 0x16 <__rc6>
    2ef3: c8           	iny
    2ef4: b1 12        	lda	($12),y                 ; 0x12 <__rc2>
    2ef6: 85 18        	sta	$18                     ; 0x18 <__rc8>
    2ef8: e8           	inx
    2ef9: 86 15        	stx	$15                     ; 0x15 <__rc5>
    2efb: c8           	iny
    2efc: b1 12        	lda	($12),y                 ; 0x12 <__rc2>
    2efe: 85 19        	sta	$19                     ; 0x19 <__rc9>
    2f00: e8           	inx
    2f01: 86 17        	stx	$17                     ; 0x17 <__rc7>
    2f03: 18           	clc
    2f04: a5 14        	lda	$14                     ; 0x14 <__rc4>
    2f06: 72 12        	adc	($12)                   ; 0x12 <__rc2>
    2f08: 85 14        	sta	$14                     ; 0x14 <__rc4>
    2f0a: a5 1a        	lda	$1a                     ; 0x1a <__rc10>
    2f0c: 69 00        	adc	#$0
    2f0e: a4 16        	ldy	$16                     ; 0x16 <__rc6>
    2f10: 91 12        	sta	($12),y                 ; 0x12 <__rc2>
    2f12: a5 18        	lda	$18                     ; 0x18 <__rc8>
    2f14: 69 00        	adc	#$0
    2f16: a4 15        	ldy	$15                     ; 0x15 <__rc5>
    2f18: 91 12        	sta	($12),y                 ; 0x12 <__rc2>
    2f1a: a5 19        	lda	$19                     ; 0x19 <__rc9>
    2f1c: 69 00        	adc	#$0
    2f1e: a4 17        	ldy	$17                     ; 0x17 <__rc7>
    2f20: 91 12        	sta	($12),y                 ; 0x12 <__rc2>
    2f22: a5 14        	lda	$14                     ; 0x14 <__rc4>
    2f24: 92 12        	sta	($12)                   ; 0x12 <__rc2>
    2f26: 4c a6 2d     	jmp	$2da6 <copyToRAM+0x63>
    2f29: 18           	clc
    2f2a: a5 10        	lda	$10                     ; 0x10 <__rc0>
    2f2c: 69 08        	adc	#$8
    2f2e: 85 10        	sta	$10                     ; 0x10 <__rc0>
    2f30: a5 11        	lda	$11                     ; 0x11 <__rc1>
    2f32: 69 01        	adc	#$1
    2f34: 85 11        	sta	$11                     ; 0x11 <__rc1>
    2f36: 60           	rts

00002f37 <exit>:
    2f37: 20 49 03     	jsr	$349 <_fini>
    2f3a: 80 fe        	bra	$2f3a <exit+0x3>

00002f3c <memcpy>:
    2f3c: a8           	tay
    2f3d: 8a           	txa
    2f3e: d0 03        	bne	$2f43 <memcpy+0x7>
    2f40: 98           	tya
    2f41: f0 24        	beq	$2f67 <memcpy+0x2b>
    2f43: a5 12        	lda	$12                     ; 0x12 <__rc2>
    2f45: 85 16        	sta	$16                     ; 0x16 <__rc6>
    2f47: a5 13        	lda	$13                     ; 0x13 <__rc3>
    2f49: 85 17        	sta	$17                     ; 0x17 <__rc7>
    2f4b: b2 14        	lda	($14)                   ; 0x14 <__rc4>
    2f4d: 92 16        	sta	($16)                   ; 0x16 <__rc6>
    2f4f: e6 16        	inc	$16                     ; 0x16 <__rc6>
    2f51: d0 02        	bne	$2f55 <memcpy+0x19>
    2f53: e6 17        	inc	$17                     ; 0x17 <__rc7>
    2f55: e6 14        	inc	$14                     ; 0x14 <__rc4>
    2f57: d0 02        	bne	$2f5b <memcpy+0x1f>
    2f59: e6 15        	inc	$15                     ; 0x15 <__rc5>
    2f5b: 88           	dey
    2f5c: c0 ff        	cpy	#$ff
    2f5e: d0 01        	bne	$2f61 <memcpy+0x25>
    2f60: ca           	dex
    2f61: 8a           	txa
    2f62: d0 e7        	bne	$2f4b <memcpy+0xf>
    2f64: 98           	tya
    2f65: d0 e4        	bne	$2f4b <memcpy+0xf>
    2f67: 60           	rts

00002f68 <__memset>:
    2f68: a4 14        	ldy	$14                     ; 0x14 <__rc4>
    2f6a: d0 04        	bne	$2f70 <__memset+0x8>
    2f6c: e0 00        	cpx	#$0
    2f6e: f0 17        	beq	$2f87 <__memset+0x1f>
    2f70: 92 12        	sta	($12)                   ; 0x12 <__rc2>
    2f72: e6 12        	inc	$12                     ; 0x12 <__rc2>
    2f74: d0 02        	bne	$2f78 <__memset+0x10>
    2f76: e6 13        	inc	$13                     ; 0x13 <__rc3>
    2f78: ca           	dex
    2f79: e0 ff        	cpx	#$ff
    2f7b: d0 02        	bne	$2f7f <__memset+0x17>
    2f7d: c6 14        	dec	$14                     ; 0x14 <__rc4>
    2f7f: a4 14        	ldy	$14                     ; 0x14 <__rc4>
    2f81: d0 ed        	bne	$2f70 <__memset+0x8>
    2f83: e0 00        	cpx	#$0
    2f85: d0 e9        	bne	$2f70 <__memset+0x8>
    2f87: 60           	rts

00002f88 <__umodhi3>:
    2f88: a8           	tay
    2f89: 8a           	txa
    2f8a: e6 13        	inc	$13                     ; 0x13 <__rc3>
    2f8c: c6 13        	dec	$13                     ; 0x13 <__rc3>
    2f8e: d0 09        	bne	$2f99 <__umodhi3+0x11>
    2f90: e6 12        	inc	$12                     ; 0x12 <__rc2>
    2f92: c6 12        	dec	$12                     ; 0x12 <__rc2>
    2f94: d0 03        	bne	$2f99 <__umodhi3+0x11>
    2f96: 4c 2a 30     	jmp	$302a <__umodhi3+0xa2>
    2f99: c5 13        	cmp	$13                     ; 0x13 <__rc3>
    2f9b: d0 07        	bne	$2fa4 <__umodhi3+0x1c>
    2f9d: c4 12        	cpy	$12                     ; 0x12 <__rc2>
    2f9f: b0 0a        	bcs	$2fab <__umodhi3+0x23>
    2fa1: 4c 2a 30     	jmp	$302a <__umodhi3+0xa2>
    2fa4: c5 13        	cmp	$13                     ; 0x13 <__rc3>
    2fa6: b0 03        	bcs	$2fab <__umodhi3+0x23>
    2fa8: 4c 2a 30     	jmp	$302a <__umodhi3+0xa2>
    2fab: 86 16        	stx	$16                     ; 0x16 <__rc6>
    2fad: e6 13        	inc	$13                     ; 0x13 <__rc3>
    2faf: c6 13        	dec	$13                     ; 0x13 <__rc3>
    2fb1: 10 03        	bpl	$2fb6 <__umodhi3+0x2e>
    2fb3: 4c 22 30     	jmp	$3022 <__umodhi3+0x9a>
    2fb6: a2 00        	ldx	#$0
    2fb8: 5a           	phy
    2fb9: a4 12        	ldy	$12                     ; 0x12 <__rc2>
    2fbb: 84 14        	sty	$14                     ; 0x14 <__rc4>
    2fbd: a4 13        	ldy	$13                     ; 0x13 <__rc3>
    2fbf: 84 15        	sty	$15                     ; 0x15 <__rc5>
    2fc1: 7a           	ply
    2fc2: 06 14        	asl	$14                     ; 0x14 <__rc4>
    2fc4: 26 15        	rol	$15                     ; 0x15 <__rc5>
    2fc6: c5 15        	cmp	$15                     ; 0x15 <__rc5>
    2fc8: d0 08        	bne	$2fd2 <__umodhi3+0x4a>
    2fca: c4 14        	cpy	$14                     ; 0x14 <__rc4>
    2fcc: a5 16        	lda	$16                     ; 0x16 <__rc6>
    2fce: 90 19        	bcc	$2fe9 <__umodhi3+0x61>
    2fd0: 80 04        	bra	$2fd6 <__umodhi3+0x4e>
    2fd2: c5 15        	cmp	$15                     ; 0x15 <__rc5>
    2fd4: 90 13        	bcc	$2fe9 <__umodhi3+0x61>
    2fd6: e8           	inx
    2fd7: 5a           	phy
    2fd8: a4 14        	ldy	$14                     ; 0x14 <__rc4>
    2fda: 84 12        	sty	$12                     ; 0x12 <__rc2>
    2fdc: a4 15        	ldy	$15                     ; 0x15 <__rc5>
    2fde: 84 13        	sty	$13                     ; 0x13 <__rc3>
    2fe0: 7a           	ply
    2fe1: e6 15        	inc	$15                     ; 0x15 <__rc5>
    2fe3: c6 15        	dec	$15                     ; 0x15 <__rc5>
    2fe5: 10 db        	bpl	$2fc2 <__umodhi3+0x3a>
    2fe7: 80 08        	bra	$2ff1 <__umodhi3+0x69>
    2fe9: a5 12        	lda	$12                     ; 0x12 <__rc2>
    2feb: 85 14        	sta	$14                     ; 0x14 <__rc4>
    2fed: a5 13        	lda	$13                     ; 0x13 <__rc3>
    2fef: 85 15        	sta	$15                     ; 0x15 <__rc5>
    2ff1: 38           	sec
    2ff2: 98           	tya
    2ff3: e5 14        	sbc	$14                     ; 0x14 <__rc4>
    2ff5: a8           	tay
    2ff6: a5 16        	lda	$16                     ; 0x16 <__rc6>
    2ff8: e5 15        	sbc	$15                     ; 0x15 <__rc5>
    2ffa: e0 00        	cpx	#$0
    2ffc: d0 08        	bne	$3006 <__umodhi3+0x7e>
    2ffe: 80 2a        	bra	$302a <__umodhi3+0xa2>
    3000: c5 15        	cmp	$15                     ; 0x15 <__rc5>
    3002: b0 0e        	bcs	$3012 <__umodhi3+0x8a>
    3004: 80 17        	bra	$301d <__umodhi3+0x95>
    3006: 46 15        	lsr	$15                     ; 0x15 <__rc5>
    3008: 66 14        	ror	$14                     ; 0x14 <__rc4>
    300a: c5 15        	cmp	$15                     ; 0x15 <__rc5>
    300c: d0 f2        	bne	$3000 <__umodhi3+0x78>
    300e: c4 14        	cpy	$14                     ; 0x14 <__rc4>
    3010: 90 0b        	bcc	$301d <__umodhi3+0x95>
    3012: 85 12        	sta	$12                     ; 0x12 <__rc2>
    3014: 38           	sec
    3015: 98           	tya
    3016: e5 14        	sbc	$14                     ; 0x14 <__rc4>
    3018: a8           	tay
    3019: a5 12        	lda	$12                     ; 0x12 <__rc2>
    301b: e5 15        	sbc	$15                     ; 0x15 <__rc5>
    301d: ca           	dex
    301e: d0 e6        	bne	$3006 <__umodhi3+0x7e>
    3020: 80 08        	bra	$302a <__umodhi3+0xa2>
    3022: 38           	sec
    3023: 98           	tya
    3024: e5 12        	sbc	$12                     ; 0x12 <__rc2>
    3026: a8           	tay
    3027: 8a           	txa
    3028: e5 13        	sbc	$13                     ; 0x13 <__rc3>
    302a: aa           	tax
    302b: 98           	tya
    302c: 60           	rts

0000302d <__mulsi3>:
    302d: a4 17        	ldy	$17                     ; 0x17 <__rc7>
    302f: d0 0f        	bne	$3040 <__mulsi3+0x13>
    3031: a4 16        	ldy	$16                     ; 0x16 <__rc6>
    3033: d0 0b        	bne	$3040 <__mulsi3+0x13>
    3035: a4 15        	ldy	$15                     ; 0x15 <__rc5>
    3037: d0 07        	bne	$3040 <__mulsi3+0x13>
    3039: a4 14        	ldy	$14                     ; 0x14 <__rc4>
    303b: d0 03        	bne	$3040 <__mulsi3+0x13>
    303d: 4c 94 30     	jmp	$3094 <__mulsi3+0x67>
    3040: 85 18        	sta	$18                     ; 0x18 <__rc8>
    3042: 86 19        	stx	$19                     ; 0x19 <__rc9>
    3044: a0 00        	ldy	#$0
    3046: a2 00        	ldx	#$0
    3048: 64 1a        	stz	$1a                     ; 0x1a <__rc10>
    304a: 98           	tya
    304b: 46 17        	lsr	$17                     ; 0x17 <__rc7>
    304d: 66 16        	ror	$16                     ; 0x16 <__rc6>
    304f: 66 15        	ror	$15                     ; 0x15 <__rc5>
    3051: 66 14        	ror	$14                     ; 0x14 <__rc4>
    3053: 90 15        	bcc	$306a <__mulsi3+0x3d>
    3055: 85 1b        	sta	$1b                     ; 0x1b <__rc11>
    3057: 98           	tya
    3058: 18           	clc
    3059: 65 18        	adc	$18                     ; 0x18 <__rc8>
    305b: a8           	tay
    305c: 8a           	txa
    305d: 65 19        	adc	$19                     ; 0x19 <__rc9>
    305f: aa           	tax
    3060: a5 1a        	lda	$1a                     ; 0x1a <__rc10>
    3062: 65 12        	adc	$12                     ; 0x12 <__rc2>
    3064: 85 1a        	sta	$1a                     ; 0x1a <__rc10>
    3066: a5 1b        	lda	$1b                     ; 0x1b <__rc11>
    3068: 65 13        	adc	$13                     ; 0x13 <__rc3>
    306a: 06 18        	asl	$18                     ; 0x18 <__rc8>
    306c: 26 19        	rol	$19                     ; 0x19 <__rc9>
    306e: 26 12        	rol	$12                     ; 0x12 <__rc2>
    3070: 26 13        	rol	$13                     ; 0x13 <__rc3>
    3072: e6 17        	inc	$17                     ; 0x17 <__rc7>
    3074: c6 17        	dec	$17                     ; 0x17 <__rc7>
    3076: d0 d3        	bne	$304b <__mulsi3+0x1e>
    3078: e6 16        	inc	$16                     ; 0x16 <__rc6>
    307a: c6 16        	dec	$16                     ; 0x16 <__rc6>
    307c: d0 cd        	bne	$304b <__mulsi3+0x1e>
    307e: e6 15        	inc	$15                     ; 0x15 <__rc5>
    3080: c6 15        	dec	$15                     ; 0x15 <__rc5>
    3082: d0 c7        	bne	$304b <__mulsi3+0x1e>
    3084: e6 14        	inc	$14                     ; 0x14 <__rc4>
    3086: c6 14        	dec	$14                     ; 0x14 <__rc4>
    3088: d0 c1        	bne	$304b <__mulsi3+0x1e>
    308a: 5a           	phy
    308b: a4 1a        	ldy	$1a                     ; 0x1a <__rc10>
    308d: 84 12        	sty	$12                     ; 0x12 <__rc2>
    308f: 7a           	ply
    3090: 85 13        	sta	$13                     ; 0x13 <__rc3>
    3092: 98           	tya
    3093: 60           	rts
    3094: a0 00        	ldy	#$0
    3096: a2 00        	ldx	#$0
    3098: 64 1a        	stz	$1a                     ; 0x1a <__rc10>
    309a: 98           	tya
    309b: 80 ed        	bra	$308a <__mulsi3+0x5d>
