
callisto.elf:	file format elf32-mos

SYMBOL TABLE:
00000000 l    df *ABS*	00000000 zero-bss.c
00000000 l    df *ABS*	00000000 zero-zp-bss.c
00000000 l    df *ABS*	00000000 ld-temp.o
0000033b l     F .text	000003ea f256Init
00001e03 l     O .bss	00000007 kernelEventData
00001d97 l     O .rodata	00000030 textColors
00000030 l     O .zp.bss	00000001 _col
00000031 l     O .zp.bss	00000001 _row
00001e0a l     O .bss	00000001 kernelError
0000072b l     F .text	000004be f256main
00001b0e l     F .text	00000203 putchar
00000034 l     O .zp.bss	00000002 base
00000dd4 l     F .text	00000d3a printf
00000036 l     O .zp.bss	00000004 address
00000bee l     F .text	000000d7 _ZN12_GLOBAL__N_13putEcP6Status
00000cc5 l     F .text	0000010f _ZN12_GLOBAL__N_112print_stringEPKcP6Status
00000032 l     O .zp.bss	00000002 __putchar.s
00000725 g     F .text	00000006 main
00030000 g       .embedded16	00000000 embedded16_start
00020000 g       .embeddedCLUT	00000000 embeddedCLUT_start
00032c5b g       .embedded16	00000000 embedded16_end
00020400 g       .embeddedCLUT	00000000 embeddedCLUT_end
00073da1 g       .embedded32	00000000 embedded32_end
00040000 g       .embedded32	00000000 embedded32_start
00000311 g       .text	00000000 __after_main
00000300 g       .text	00000000 __do_init_stack
00000308 g       .text	00000000 __do_zero_bss
00000315 g     F .text	00000013 __zero_bss
0000030b g       .text	00000000 __do_zero_zp_bss
00000328 g     F .text	00000013 __zero_zp_bss
00000be9 g     F .text	00000005 exit
00000314 g       .text	00000000 _fini
00001d3d  w    F .text	00000020 __memset
00001000  w      *ABS*	00000000 __heap_default_limit
00001e0c g       .noinit	00000000 __heap_start
00001d11  w    F .text	0000002c memcpy
00000010 g       *ABS*	00000000 __rc0
00000012 g       *ABS*	00000000 __rc2
00000014 g       *ABS*	00000000 __rc4
00000016 g       *ABS*	00000000 __rc6
00000018 g       *ABS*	00000000 __rc8
0000001a g       *ABS*	00000000 __rc10
0000001c g       *ABS*	00000000 __rc12
0000001e g       *ABS*	00000000 __rc14
00000020 g       *ABS*	00000000 __rc16
00000022 g       *ABS*	00000000 __rc18
00000024 g       *ABS*	00000000 __rc20
00000026 g       *ABS*	00000000 __rc22
00000028 g       *ABS*	00000000 __rc24
0000002a g       *ABS*	00000000 __rc26
0000002c g       *ABS*	00000000 __rc28
0000002e g       *ABS*	00000000 __rc30
0000002f g       *ABS*	00000000 __rc31
00000300 g       *ABS*	00000000 __f256_start
0000a000 g       *ABS*	00000000 __stack
0000a000 g       *ABS*	00000000 __SLOT_ADDR
0800a000 g       *ABS*	00000000 __block8_lma
00002000 g       *ABS*	00000000 __BLOCK_SIZE
0900a000 g       *ABS*	00000000 __block9_lma
0a00a000 g       *ABS*	00000000 __block10_lma
0b00a000 g       *ABS*	00000000 __block11_lma
0c00a000 g       *ABS*	00000000 __block12_lma
0d00a000 g       *ABS*	00000000 __block13_lma
0e00a000 g       *ABS*	00000000 __block14_lma
0f00a000 g       *ABS*	00000000 __block15_lma
1000a000 g       *ABS*	00000000 __block16_lma
1100a000 g       *ABS*	00000000 __block17_lma
1200a000 g       *ABS*	00000000 __block18_lma
1300a000 g       *ABS*	00000000 __block19_lma
1400a000 g       *ABS*	00000000 __block20_lma
1500a000 g       *ABS*	00000000 __block21_lma
1600a000 g       *ABS*	00000000 __block22_lma
1700a000 g       *ABS*	00000000 __block23_lma
00020000 g       *ABS*	00000000 __embeddedCLUT_lma
00000400 g       *ABS*	00000000 __embeddedCLUT_size
00030000 g       *ABS*	00000000 __embedded16_lma
00002c5b g       *ABS*	00000000 __embedded16_size
00040000 g       *ABS*	00000000 __embedded32_lma
00033da1 g       *ABS*	00000000 __embedded32_size
00001e03 g       .bss	00000000 __bss_start
00020400 g       .embeddedCLUT	00000000 end_embeddedCLUT
00032c5b g       .embedded16	00000000 end_embedded16
00073da1 g       .embedded32	00000000 end_embedded32
00000300 g       .text	00000000 _start
0000002d g       *ABS*	00000000 __rc29
0000002b g       *ABS*	00000000 __rc27
00000029 g       *ABS*	00000000 __rc25
00000027 g       *ABS*	00000000 __rc23
00000025 g       *ABS*	00000000 __rc21
00000023 g       *ABS*	00000000 __rc19
00000021 g       *ABS*	00000000 __rc17
0000001f g       *ABS*	00000000 __rc15
0000001d g       *ABS*	00000000 __rc13
0000001b g       *ABS*	00000000 __rc11
00000019 g       *ABS*	00000000 __rc9
00000017 g       *ABS*	00000000 __rc7
00000015 g       *ABS*	00000000 __rc5
00000013 g       *ABS*	00000000 __rc3
00000011 g       *ABS*	00000000 __rc1
00000030 g       .zp.data	00000000 __zp_data_start
00000300 g       *ABS*	00000000 __zp_data_load_start
00000000 g       *ABS*	00000000 __zp_data_size
00000030 g       .zp.bss	00000000 __zp_bss_start
0000000a g       *ABS*	00000000 __zp_bss_size
00000300 g       .text	00000000 _init
00001d5d g       .text	00000000 __init_array_start
00001d5d g       .text	00000000 __init_array_end
00001d5d g       .text	00000000 __fini_array_start
00001d5d g       .text	00000000 __fini_array_end
00001e03 g       .data	00000000 __data_start
00001e03 g       .data	00000000 __data_end
00001e03 g       *ABS*	00000000 __data_load_start
00000000 g       *ABS*	00000000 __data_size
00001e0b g       .bss	00000000 __bss_end
00000008 g       *ABS*	00000000 __bss_size
00001e0b g       .noinit	00000000 end_block8
00001e0b g       .noinit	00000000 end_block9
00001e0b g       .noinit	00000000 end_block10
00001e0b g       .noinit	00000000 end_block11
00001e0b g       .noinit	00000000 end_block12
00001e0b g       .noinit	00000000 end_block13
00001e0b g       .noinit	00000000 end_block14
00001e0b g       .noinit	00000000 end_block15
00001e0b g       .noinit	00000000 end_block16
00001e0b g       .noinit	00000000 end_block17
00001e0b g       .noinit	00000000 end_block18
00001e0b g       .noinit	00000000 end_block19
00001e0b g       .noinit	00000000 end_block20
00001e0b g       .noinit	00000000 end_block21
00001e0b g       .noinit	00000000 end_block22
00001e0b g       .noinit	00000000 end_block23

Disassembly of section .text:

00000300 <_start>:
     300: a9 00        	lda	#$0
     302: 85 10        	sta	$10                     ; 0x10 <__rc0>
     304: a9 a0        	lda	#$a0
     306: 85 11        	sta	$11                     ; 0x11 <__rc1>

00000308 <__do_zero_bss>:
     308: 20 15 03     	jsr	$315 <__zero_bss>

0000030b <__do_zero_zp_bss>:
     30b: 20 28 03     	jsr	$328 <__zero_zp_bss>
     30e: 20 25 07     	jsr	$725 <main>

00000311 <__after_main>:
     311: 4c e9 0b     	jmp	$be9 <exit>

00000314 <_fini>:
     314: 60           	rts

00000315 <__zero_bss>:
     315: a2 08        	ldx	#$8
     317: a0 00        	ldy	#$0
     319: a9 03        	lda	#$3
     31b: 85 12        	sta	$12                     ; 0x12 <__rc2>
     31d: a9 1e        	lda	#$1e
     31f: 85 13        	sta	$13                     ; 0x13 <__rc3>
     321: a9 00        	lda	#$0
     323: 84 14        	sty	$14                     ; 0x14 <__rc4>
     325: 4c 3d 1d     	jmp	$1d3d <__memset>

00000328 <__zero_zp_bss>:
     328: a2 0a        	ldx	#$a
     32a: a0 00        	ldy	#$0
     32c: a9 30        	lda	#$30
     32e: 85 12        	sta	$12                     ; 0x12 <__rc2>
     330: a9 00        	lda	#$0
     332: 85 13        	sta	$13                     ; 0x13 <__rc3>
     334: a9 00        	lda	#$0
     336: 84 14        	sty	$14                     ; 0x14 <__rc4>
     338: 4c 3d 1d     	jmp	$1d3d <__memset>

0000033b <f256Init>:
     33b: 64 1c        	stz	$1c                     ; 0x1c <__rc12>
     33d: a2 00        	ldx	#$0
     33f: 86 1a        	stx	$1a                     ; 0x1a <__rc10>
     341: a2 d0        	ldx	#$d0
     343: 86 1b        	stx	$1b                     ; 0x1b <__rc11>
     345: a2 00        	ldx	#$0
     347: 86 16        	stx	$16                     ; 0x16 <__rc6>
     349: a2 d8        	ldx	#$d8
     34b: 86 17        	stx	$17                     ; 0x17 <__rc7>
     34d: a2 00        	ldx	#$0
     34f: 86 18        	stx	$18                     ; 0x18 <__rc8>
     351: a2 d4        	ldx	#$d4
     353: 86 19        	stx	$19                     ; 0x19 <__rc9>
     355: a2 00        	ldx	#$0
     357: 86 14        	stx	$14                     ; 0x14 <__rc4>
     359: a2 dc        	ldx	#$dc
     35b: 86 15        	stx	$15                     ; 0x15 <__rc5>
     35d: a2 00        	ldx	#$0
     35f: 86 12        	stx	$12                     ; 0x12 <__rc2>
     361: a2 c0        	ldx	#$c0
     363: 86 13        	stx	$13                     ; 0x13 <__rc3>
     365: 64 01        	stz	$1                      ; 0x1 <__zp_data_size+0x1>
     367: a2 3f        	ldx	#$3f
     369: 8e 00 d0     	stx	$d000                   ; 0xd000 <__heap_start+0xb1f4>
     36c: a2 b3        	ldx	#$b3
     36e: 86 00        	stx	$0                      ; 0x0 <__zp_data_size>
     370: 64 08        	stz	$8                      ; 0x8 <__bss_size>
     372: a2 01        	ldx	#$1
     374: 86 09        	stx	$9                      ; 0x9 <__bss_size+0x1>
     376: e8           	inx
     377: 86 0a        	stx	$a                      ; 0xa <__zp_bss_size>
     379: e8           	inx
     37a: 86 0b        	stx	$b                      ; 0xb <__zp_bss_size+0x1>
     37c: e8           	inx
     37d: 86 0c        	stx	$c                      ; 0xc <__zp_bss_size+0x2>
     37f: e8           	inx
     380: 86 0d        	stx	$d                      ; 0xd <__zp_bss_size+0x3>
     382: a2 03        	ldx	#$3
     384: a9 1e        	lda	#$1e
     386: 86 f0        	stx	$f0                     ; 0xf0 <__rc31+0xc1>
     388: 85 f1        	sta	$f1                     ; 0xf1 <__rc31+0xc2>
     38a: a6 01        	ldx	$1                      ; 0x1 <__zp_data_size+0x1>
     38c: a0 01        	ldy	#$1
     38e: 84 01        	sty	$1                      ; 0x1 <__zp_data_size+0x1>
     390: a5 1c        	lda	$1c                     ; 0x1c <__rc12>
     392: 92 1a        	sta	($1a)                   ; 0x1a <__rc10>
     394: 91 1a        	sta	($1a),y                 ; 0x1a <__rc10>
     396: c8           	iny
     397: 91 1a        	sta	($1a),y                 ; 0x1a <__rc10>
     399: c8           	iny
     39a: a9 ff        	lda	#$ff
     39c: 91 1a        	sta	($1a),y                 ; 0x1a <__rc10>
     39e: 86 01        	stx	$1                      ; 0x1 <__zp_data_size+0x1>
     3a0: a5 1a        	lda	$1a                     ; 0x1a <__rc10>
     3a2: 18           	clc
     3a3: 69 04        	adc	#$4
     3a5: 85 1a        	sta	$1a                     ; 0x1a <__rc10>
     3a7: a5 1b        	lda	$1b                     ; 0x1b <__rc11>
     3a9: 69 00        	adc	#$0
     3ab: e6 1c        	inc	$1c                     ; 0x1c <__rc12>
     3ad: 85 1b        	sta	$1b                     ; 0x1b <__rc11>
     3af: d0 d9        	bne	$38a <f256Init+0x4f>
     3b1: a9 00        	lda	#$0
     3b3: a6 01        	ldx	$1                      ; 0x1 <__zp_data_size+0x1>
     3b5: a0 01        	ldy	#$1
     3b7: 84 01        	sty	$1                      ; 0x1 <__zp_data_size+0x1>
     3b9: 92 18        	sta	($18)                   ; 0x18 <__rc8>
     3bb: 91 18        	sta	($18),y                 ; 0x18 <__rc8>
     3bd: c8           	iny
     3be: 91 18        	sta	($18),y                 ; 0x18 <__rc8>
     3c0: c8           	iny
     3c1: 85 1a        	sta	$1a                     ; 0x1a <__rc10>
     3c3: a9 ff        	lda	#$ff
     3c5: 91 18        	sta	($18),y                 ; 0x18 <__rc8>
     3c7: 86 01        	stx	$1                      ; 0x1 <__zp_data_size+0x1>
     3c9: a5 18        	lda	$18                     ; 0x18 <__rc8>
     3cb: 18           	clc
     3cc: 69 04        	adc	#$4
     3ce: 85 18        	sta	$18                     ; 0x18 <__rc8>
     3d0: a5 19        	lda	$19                     ; 0x19 <__rc9>
     3d2: 69 00        	adc	#$0
     3d4: e6 1a        	inc	$1a                     ; 0x1a <__rc10>
     3d6: 85 19        	sta	$19                     ; 0x19 <__rc9>
     3d8: a5 1a        	lda	$1a                     ; 0x1a <__rc10>
     3da: d0 d7        	bne	$3b3 <f256Init+0x78>
     3dc: a9 00        	lda	#$0
     3de: a6 01        	ldx	$1                      ; 0x1 <__zp_data_size+0x1>
     3e0: a0 01        	ldy	#$1
     3e2: 84 01        	sty	$1                      ; 0x1 <__zp_data_size+0x1>
     3e4: 92 16        	sta	($16)                   ; 0x16 <__rc6>
     3e6: 91 16        	sta	($16),y                 ; 0x16 <__rc6>
     3e8: c8           	iny
     3e9: 91 16        	sta	($16),y                 ; 0x16 <__rc6>
     3eb: c8           	iny
     3ec: 85 18        	sta	$18                     ; 0x18 <__rc8>
     3ee: a9 ff        	lda	#$ff
     3f0: 91 16        	sta	($16),y                 ; 0x16 <__rc6>
     3f2: 86 01        	stx	$1                      ; 0x1 <__zp_data_size+0x1>
     3f4: a5 16        	lda	$16                     ; 0x16 <__rc6>
     3f6: 18           	clc
     3f7: 69 04        	adc	#$4
     3f9: 85 16        	sta	$16                     ; 0x16 <__rc6>
     3fb: a5 17        	lda	$17                     ; 0x17 <__rc7>
     3fd: 69 00        	adc	#$0
     3ff: e6 18        	inc	$18                     ; 0x18 <__rc8>
     401: 85 17        	sta	$17                     ; 0x17 <__rc7>
     403: a5 18        	lda	$18                     ; 0x18 <__rc8>
     405: d0 d7        	bne	$3de <f256Init+0xa3>
     407: a9 00        	lda	#$0
     409: a6 01        	ldx	$1                      ; 0x1 <__zp_data_size+0x1>
     40b: a0 01        	ldy	#$1
     40d: 84 01        	sty	$1                      ; 0x1 <__zp_data_size+0x1>
     40f: 92 14        	sta	($14)                   ; 0x14 <__rc4>
     411: 91 14        	sta	($14),y                 ; 0x14 <__rc4>
     413: c8           	iny
     414: 91 14        	sta	($14),y                 ; 0x14 <__rc4>
     416: c8           	iny
     417: 85 16        	sta	$16                     ; 0x16 <__rc6>
     419: a9 ff        	lda	#$ff
     41b: 91 14        	sta	($14),y                 ; 0x14 <__rc4>
     41d: 86 01        	stx	$1                      ; 0x1 <__zp_data_size+0x1>
     41f: a5 14        	lda	$14                     ; 0x14 <__rc4>
     421: 18           	clc
     422: 69 04        	adc	#$4
     424: 85 14        	sta	$14                     ; 0x14 <__rc4>
     426: a5 15        	lda	$15                     ; 0x15 <__rc5>
     428: 69 00        	adc	#$0
     42a: e6 16        	inc	$16                     ; 0x16 <__rc6>
     42c: 85 15        	sta	$15                     ; 0x15 <__rc5>
     42e: a5 16        	lda	$16                     ; 0x16 <__rc6>
     430: d0 d7        	bne	$409 <f256Init+0xce>
     432: ad 02 d0     	lda	$d002                   ; 0xd002 <__heap_start+0xb1f6>
     435: 29 f0        	and	#$f0
     437: 8d 02 d0     	sta	$d002                   ; 0xd002 <__heap_start+0xb1f6>
     43a: ad 02 d0     	lda	$d002                   ; 0xd002 <__heap_start+0xb1f6>
     43d: 29 0f        	and	#$f
     43f: 09 10        	ora	#$10
     441: 8d 02 d0     	sta	$d002                   ; 0xd002 <__heap_start+0xb1f6>
     444: a2 02        	ldx	#$2
     446: 8e 03 d0     	stx	$d003                   ; 0xd003 <__heap_start+0xb1f7>
     449: ad 01 d0     	lda	$d001                   ; 0xd001 <__heap_start+0xb1f5>
     44c: 29 f9        	and	#$f9
     44e: 09 04        	ora	#$4
     450: 8d 01 d0     	sta	$d001                   ; 0xd001 <__heap_start+0xb1f5>
     453: 64 14        	stz	$14                     ; 0x14 <__rc4>
     455: 9c 10 d0     	stz	$d010                   ; 0xd010 <__heap_start+0xb204>
     458: a2 00        	ldx	#$0
     45a: 64 15        	stz	$15                     ; 0x15 <__rc5>
     45c: 86 18        	stx	$18                     ; 0x18 <__rc8>
     45e: a4 18        	ldy	$18                     ; 0x18 <__rc8>
     460: be 97 1d     	ldx	$1d97,y                 ; 0x1d97 <textColors>
     463: 86 19        	stx	$19                     ; 0x19 <__rc9>
     465: be 98 1d     	ldx	$1d98,y                 ; 0x1d98 <textColors+0x1>
     468: 86 1a        	stx	$1a                     ; 0x1a <__rc10>
     46a: be 99 1d     	ldx	$1d99,y                 ; 0x1d99 <textColors+0x2>
     46d: 86 1b        	stx	$1b                     ; 0x1b <__rc11>
     46f: a6 15        	ldx	$15                     ; 0x15 <__rc5>
     471: 8e 00 de     	stx	$de00                   ; 0xde00 <__heap_start+0xbff4>
     474: 86 17        	stx	$17                     ; 0x17 <__rc7>
     476: 9c 01 de     	stz	$de01                   ; 0xde01 <__heap_start+0xbff5>
     479: a2 04        	ldx	#$4
     47b: 8e 02 de     	stx	$de02                   ; 0xde02 <__heap_start+0xbff6>
     47e: 86 1d        	stx	$1d                     ; 0x1d <__rc13>
     480: 9c 03 de     	stz	$de03                   ; 0xde03 <__heap_start+0xbff7>
     483: ad 10 de     	lda	$de10                   ; 0xde10 <__heap_start+0xc004>
     486: ac 11 de     	ldy	$de11                   ; 0xde11 <__heap_start+0xc005>
     489: 84 15        	sty	$15                     ; 0x15 <__rc5>
     48b: ac 12 de     	ldy	$de12                   ; 0xde12 <__heap_start+0xc006>
     48e: ac 13 de     	ldy	$de13                   ; 0xde13 <__heap_start+0xc007>
     491: a2 00        	ldx	#$0
     493: 18           	clc
     494: 65 14        	adc	$14                     ; 0x14 <__rc4>
     496: a8           	tay
     497: 86 1f        	stx	$1f                     ; 0x1f <__rc15>
     499: a6 17        	ldx	$17                     ; 0x17 <__rc7>
     49b: a9 d8        	lda	#$d8
     49d: 65 15        	adc	$15                     ; 0x15 <__rc5>
     49f: 84 16        	sty	$16                     ; 0x16 <__rc6>
     4a1: 85 17        	sta	$17                     ; 0x17 <__rc7>
     4a3: a5 1b        	lda	$1b                     ; 0x1b <__rc11>
     4a5: 92 16        	sta	($16)                   ; 0x16 <__rc6>
     4a7: a0 01        	ldy	#$1
     4a9: a5 1a        	lda	$1a                     ; 0x1a <__rc10>
     4ab: 91 16        	sta	($16),y                 ; 0x16 <__rc6>
     4ad: 84 1c        	sty	$1c                     ; 0x1c <__rc12>
     4af: c8           	iny
     4b0: a5 19        	lda	$19                     ; 0x19 <__rc9>
     4b2: 91 16        	sta	($16),y                 ; 0x16 <__rc6>
     4b4: 84 1e        	sty	$1e                     ; 0x1e <__rc14>
     4b6: c8           	iny
     4b7: a9 ff        	lda	#$ff
     4b9: 91 16        	sta	($16),y                 ; 0x16 <__rc6>
     4bb: 85 23        	sta	$23                     ; 0x23 <__rc19>
     4bd: 84 22        	sty	$22                     ; 0x22 <__rc18>
     4bf: 8e 00 de     	stx	$de00                   ; 0xde00 <__heap_start+0xbff4>
     4c2: 9c 01 de     	stz	$de01                   ; 0xde01 <__heap_start+0xbff5>
     4c5: a4 1d        	ldy	$1d                     ; 0x1d <__rc13>
     4c7: 8c 02 de     	sty	$de02                   ; 0xde02 <__heap_start+0xbff6>
     4ca: 9c 03 de     	stz	$de03                   ; 0xde03 <__heap_start+0xbff7>
     4cd: ad 10 de     	lda	$de10                   ; 0xde10 <__heap_start+0xc004>
     4d0: 85 15        	sta	$15                     ; 0x15 <__rc5>
     4d2: ad 11 de     	lda	$de11                   ; 0xde11 <__heap_start+0xc005>
     4d5: 85 16        	sta	$16                     ; 0x16 <__rc6>
     4d7: a9 40        	lda	#$40
     4d9: a4 1f        	ldy	$1f                     ; 0x1f <__rc15>
     4db: c0 01        	cpy	#$1
     4dd: 65 15        	adc	$15                     ; 0x15 <__rc5>
     4df: a8           	tay
     4e0: a9 d8        	lda	#$d8
     4e2: 65 16        	adc	$16                     ; 0x16 <__rc6>
     4e4: 85 17        	sta	$17                     ; 0x17 <__rc7>
     4e6: 84 16        	sty	$16                     ; 0x16 <__rc6>
     4e8: ad 12 de     	lda	$de12                   ; 0xde12 <__heap_start+0xc006>
     4eb: ad 13 de     	lda	$de13                   ; 0xde13 <__heap_start+0xc007>
     4ee: a5 1b        	lda	$1b                     ; 0x1b <__rc11>
     4f0: 92 16        	sta	($16)                   ; 0x16 <__rc6>
     4f2: a5 1a        	lda	$1a                     ; 0x1a <__rc10>
     4f4: a4 1c        	ldy	$1c                     ; 0x1c <__rc12>
     4f6: 91 16        	sta	($16),y                 ; 0x16 <__rc6>
     4f8: a5 19        	lda	$19                     ; 0x19 <__rc9>
     4fa: a4 1e        	ldy	$1e                     ; 0x1e <__rc14>
     4fc: 91 16        	sta	($16),y                 ; 0x16 <__rc6>
     4fe: a4 22        	ldy	$22                     ; 0x22 <__rc18>
     500: a5 23        	lda	$23                     ; 0x23 <__rc19>
     502: 91 16        	sta	($16),y                 ; 0x16 <__rc6>
     504: e8           	inx
     505: 86 15        	stx	$15                     ; 0x15 <__rc5>
     507: 18           	clc
     508: a5 18        	lda	$18                     ; 0x18 <__rc8>
     50a: 69 03        	adc	#$3
     50c: aa           	tax
     50d: c9 30        	cmp	#$30
     50f: f0 03        	beq	$514 <f256Init+0x1d9>
     511: 4c 5c 04     	jmp	$45c <f256Init+0x121>
     514: a6 01        	ldx	$1                      ; 0x1 <__zp_data_size+0x1>
     516: 86 18        	stx	$18                     ; 0x18 <__rc8>
     518: a2 50        	ldx	#$50
     51a: 8e 00 de     	stx	$de00                   ; 0xde00 <__heap_start+0xbff4>
     51d: 9c 01 de     	stz	$de01                   ; 0xde01 <__heap_start+0xbff5>
     520: a2 1e        	ldx	#$1e
     522: 8e 02 de     	stx	$de02                   ; 0xde02 <__heap_start+0xbff6>
     525: 9c 03 de     	stz	$de03                   ; 0xde03 <__heap_start+0xbff7>
     528: ae 10 de     	ldx	$de10                   ; 0xde10 <__heap_start+0xc004>
     52b: ac 11 de     	ldy	$de11                   ; 0xde11 <__heap_start+0xc005>
     52e: ad 12 de     	lda	$de12                   ; 0xde12 <__heap_start+0xc006>
     531: ad 13 de     	lda	$de13                   ; 0xde13 <__heap_start+0xc007>
     534: a9 02        	lda	#$2
     536: 85 01        	sta	$1                      ; 0x1 <__zp_data_size+0x1>
     538: e0 01        	cpx	#$1
     53a: 98           	tya
     53b: e9 00        	sbc	#$0
     53d: 50 02        	bvc	$541 <f256Init+0x206>
     53f: 49 80        	eor	#$80
     541: c9 00        	cmp	#$0
     543: 30 50        	bmi	$595 <f256Init+0x25a>
     545: a9 20        	lda	#$20
     547: 86 19        	stx	$19                     ; 0x19 <__rc9>
     549: 86 14        	stx	$14                     ; 0x14 <__rc4>
     54b: 84 15        	sty	$15                     ; 0x15 <__rc5>
     54d: a2 00        	ldx	#$0
     54f: 86 16        	stx	$16                     ; 0x16 <__rc6>
     551: a2 c0        	ldx	#$c0
     553: 86 17        	stx	$17                     ; 0x17 <__rc7>
     555: 80 04        	bra	$55b <f256Init+0x220>
     557: a6 15        	ldx	$15                     ; 0x15 <__rc5>
     559: f0 14        	beq	$56f <f256Init+0x234>
     55b: 92 16        	sta	($16)                   ; 0x16 <__rc6>
     55d: e6 16        	inc	$16                     ; 0x16 <__rc6>
     55f: d0 02        	bne	$563 <f256Init+0x228>
     561: e6 17        	inc	$17                     ; 0x17 <__rc7>
     563: a2 ff        	ldx	#$ff
     565: c6 14        	dec	$14                     ; 0x14 <__rc4>
     567: e4 14        	cpx	$14                     ; 0x14 <__rc4>
     569: d0 ec        	bne	$557 <f256Init+0x21c>
     56b: c6 15        	dec	$15                     ; 0x15 <__rc5>
     56d: 80 e8        	bra	$557 <f256Init+0x21c>
     56f: a6 14        	ldx	$14                     ; 0x14 <__rc4>
     571: d0 e8        	bne	$55b <f256Init+0x220>
     573: a2 03        	ldx	#$3
     575: 86 01        	stx	$1                      ; 0x1 <__zp_data_size+0x1>
     577: a6 19        	ldx	$19                     ; 0x19 <__rc9>
     579: 80 03        	bra	$57e <f256Init+0x243>
     57b: 98           	tya
     57c: f0 12        	beq	$590 <f256Init+0x255>
     57e: a9 f0        	lda	#$f0
     580: 92 12        	sta	($12)                   ; 0x12 <__rc2>
     582: e6 12        	inc	$12                     ; 0x12 <__rc2>
     584: d0 02        	bne	$588 <f256Init+0x24d>
     586: e6 13        	inc	$13                     ; 0x13 <__rc3>
     588: ca           	dex
     589: e0 ff        	cpx	#$ff
     58b: d0 ee        	bne	$57b <f256Init+0x240>
     58d: 88           	dey
     58e: 80 eb        	bra	$57b <f256Init+0x240>
     590: 8a           	txa
     591: d0 eb        	bne	$57e <f256Init+0x243>
     593: 80 04        	bra	$599 <f256Init+0x25e>
     595: a2 03        	ldx	#$3
     597: 86 01        	stx	$1                      ; 0x1 <__zp_data_size+0x1>
     599: a6 18        	ldx	$18                     ; 0x18 <__rc8>
     59b: 86 01        	stx	$1                      ; 0x1 <__zp_data_size+0x1>
     59d: 64 30        	stz	$30                     ; 0x30 <_col>
     59f: 9c 14 d0     	stz	$d014                   ; 0xd014 <__heap_start+0xb208>
     5a2: 9c 15 d0     	stz	$d015                   ; 0xd015 <__heap_start+0xb209>
     5a5: 64 31        	stz	$31                     ; 0x31 <_row>
     5a7: 9c 16 d0     	stz	$d016                   ; 0xd016 <__heap_start+0xb20a>
     5aa: 9c 17 d0     	stz	$d017                   ; 0xd017 <__heap_start+0xb20b>
     5ad: a2 40        	ldx	#$40
     5af: 8e 00 de     	stx	$de00                   ; 0xde00 <__heap_start+0xbff4>
     5b2: a2 01        	ldx	#$1
     5b4: 8e 01 de     	stx	$de01                   ; 0xde01 <__heap_start+0xbff5>
     5b7: a2 f0        	ldx	#$f0
     5b9: 8e 02 de     	stx	$de02                   ; 0xde02 <__heap_start+0xbff6>
     5bc: 9c 03 de     	stz	$de03                   ; 0xde03 <__heap_start+0xbff7>
     5bf: ae 10 de     	ldx	$de10                   ; 0xde10 <__heap_start+0xc004>
     5c2: 86 17        	stx	$17                     ; 0x17 <__rc7>
     5c4: ae 11 de     	ldx	$de11                   ; 0xde11 <__heap_start+0xc005>
     5c7: 86 12        	stx	$12                     ; 0x12 <__rc2>
     5c9: ae 12 de     	ldx	$de12                   ; 0xde12 <__heap_start+0xc006>
     5cc: 86 13        	stx	$13                     ; 0x13 <__rc3>
     5ce: ae 13 de     	ldx	$de13                   ; 0xde13 <__heap_start+0xc007>
     5d1: 86 14        	stx	$14                     ; 0x14 <__rc4>
     5d3: a4 12        	ldy	$12                     ; 0x12 <__rc2>
     5d5: 84 15        	sty	$15                     ; 0x15 <__rc5>
     5d7: 06 15        	asl	$15                     ; 0x15 <__rc5>
     5d9: a5 13        	lda	$13                     ; 0x13 <__rc3>
     5db: 2a           	rol
     5dc: 86 16        	stx	$16                     ; 0x16 <__rc6>
     5de: 26 16        	rol	$16                     ; 0x16 <__rc6>
     5e0: 06 15        	asl	$15                     ; 0x15 <__rc5>
     5e2: 2a           	rol
     5e3: 26 16        	rol	$16                     ; 0x16 <__rc6>
     5e5: 06 15        	asl	$15                     ; 0x15 <__rc5>
     5e7: 2a           	rol
     5e8: 26 16        	rol	$16                     ; 0x16 <__rc6>
     5ea: 85 15        	sta	$15                     ; 0x15 <__rc5>
     5ec: 8d 00 de     	sta	$de00                   ; 0xde00 <__heap_start+0xbff4>
     5ef: a5 16        	lda	$16                     ; 0x16 <__rc6>
     5f1: 8d 01 de     	sta	$de01                   ; 0xde01 <__heap_start+0xbff5>
     5f4: 9c 02 de     	stz	$de02                   ; 0xde02 <__heap_start+0xbff6>
     5f7: a2 20        	ldx	#$20
     5f9: 8e 03 de     	stx	$de03                   ; 0xde03 <__heap_start+0xbff7>
     5fc: ae 10 de     	ldx	$de10                   ; 0xde10 <__heap_start+0xc004>
     5ff: 86 16        	stx	$16                     ; 0x16 <__rc6>
     601: ae 11 de     	ldx	$de11                   ; 0xde11 <__heap_start+0xc005>
     604: 86 18        	stx	$18                     ; 0x18 <__rc8>
     606: ac 12 de     	ldy	$de12                   ; 0xde12 <__heap_start+0xc006>
     609: ae 13 de     	ldx	$de13                   ; 0xde13 <__heap_start+0xc007>
     60c: e4 14        	cpx	$14                     ; 0x14 <__rc4>
     60e: d0 14        	bne	$624 <f256Init+0x2e9>
     610: c4 13        	cpy	$13                     ; 0x13 <__rc3>
     612: d0 10        	bne	$624 <f256Init+0x2e9>
     614: a6 18        	ldx	$18                     ; 0x18 <__rc8>
     616: e4 12        	cpx	$12                     ; 0x12 <__rc2>
     618: d0 0a        	bne	$624 <f256Init+0x2e9>
     61a: a6 16        	ldx	$16                     ; 0x16 <__rc6>
     61c: e4 17        	cpx	$17                     ; 0x17 <__rc7>
     61e: d0 04        	bne	$624 <f256Init+0x2e9>
     620: a6 15        	ldx	$15                     ; 0x15 <__rc5>
     622: 80 06        	bra	$62a <f256Init+0x2ef>
     624: a6 15        	ldx	$15                     ; 0x15 <__rc5>
     626: e8           	inx
     627: d0 01        	bne	$62a <f256Init+0x2ef>
     629: 1a           	inc
     62a: 8e 00 de     	stx	$de00                   ; 0xde00 <__heap_start+0xbff4>
     62d: 8d 01 de     	sta	$de01                   ; 0xde01 <__heap_start+0xbff5>
     630: 9c 02 de     	stz	$de02                   ; 0xde02 <__heap_start+0xbff6>
     633: a2 20        	ldx	#$20
     635: 8e 03 de     	stx	$de03                   ; 0xde03 <__heap_start+0xbff7>
     638: ae 10 de     	ldx	$de10                   ; 0xde10 <__heap_start+0xc004>
     63b: 86 12        	stx	$12                     ; 0x12 <__rc2>
     63d: ae 11 de     	ldx	$de11                   ; 0xde11 <__heap_start+0xc005>
     640: 86 13        	stx	$13                     ; 0x13 <__rc3>
     642: ae 12 de     	ldx	$de12                   ; 0xde12 <__heap_start+0xc006>
     645: 86 14        	stx	$14                     ; 0x14 <__rc4>
     647: 38           	sec
     648: a9 00        	lda	#$0
     64a: e5 12        	sbc	$12                     ; 0x12 <__rc2>
     64c: a8           	tay
     64d: a9 00        	lda	#$0
     64f: e5 13        	sbc	$13                     ; 0x13 <__rc3>
     651: 85 15        	sta	$15                     ; 0x15 <__rc5>
     653: a9 08        	lda	#$8
     655: e5 14        	sbc	$14                     ; 0x14 <__rc4>
     657: aa           	tax
     658: 38           	sec
     659: 98           	tya
     65a: 84 17        	sty	$17                     ; 0x17 <__rc7>
     65c: e5 12        	sbc	$12                     ; 0x12 <__rc2>
     65e: 85 16        	sta	$16                     ; 0x16 <__rc6>
     660: a5 15        	lda	$15                     ; 0x15 <__rc5>
     662: e5 13        	sbc	$13                     ; 0x13 <__rc3>
     664: 85 18        	sta	$18                     ; 0x18 <__rc8>
     666: 8a           	txa
     667: 86 19        	stx	$19                     ; 0x19 <__rc9>
     669: e5 14        	sbc	$14                     ; 0x14 <__rc4>
     66b: a8           	tay
     66c: 38           	sec
     66d: a5 16        	lda	$16                     ; 0x16 <__rc6>
     66f: e5 12        	sbc	$12                     ; 0x12 <__rc2>
     671: 85 12        	sta	$12                     ; 0x12 <__rc2>
     673: a5 18        	lda	$18                     ; 0x18 <__rc8>
     675: e5 13        	sbc	$13                     ; 0x13 <__rc3>
     677: 85 13        	sta	$13                     ; 0x13 <__rc3>
     679: 98           	tya
     67a: e5 14        	sbc	$14                     ; 0x14 <__rc4>
     67c: ae 13 de     	ldx	$de13                   ; 0xde13 <__heap_start+0xc007>
     67f: a6 17        	ldx	$17                     ; 0x17 <__rc7>
     681: 8e 01 d1     	stx	$d101                   ; 0xd101 <__heap_start+0xb2f5>
     684: a6 15        	ldx	$15                     ; 0x15 <__rc5>
     686: 8e 02 d1     	stx	$d102                   ; 0xd102 <__heap_start+0xb2f6>
     689: a6 19        	ldx	$19                     ; 0x19 <__rc9>
     68b: 8e 03 d1     	stx	$d103                   ; 0xd103 <__heap_start+0xb2f7>
     68e: a6 16        	ldx	$16                     ; 0x16 <__rc6>
     690: 8e 09 d1     	stx	$d109                   ; 0xd109 <__heap_start+0xb2fd>
     693: a6 18        	ldx	$18                     ; 0x18 <__rc8>
     695: 8e 0a d1     	stx	$d10a                   ; 0xd10a <__heap_start+0xb2fe>
     698: 8c 0b d1     	sty	$d10b                   ; 0xd10b <__heap_start+0xb2ff>
     69b: a6 12        	ldx	$12                     ; 0x12 <__rc2>
     69d: 8e 11 d1     	stx	$d111                   ; 0xd111 <__heap_start+0xb305>
     6a0: a6 13        	ldx	$13                     ; 0x13 <__rc3>
     6a2: 8e 12 d1     	stx	$d112                   ; 0xd112 <__heap_start+0xb306>
     6a5: 8d 13 d1     	sta	$d113                   ; 0xd113 <__heap_start+0xb307>
     6a8: 9c 00 d1     	stz	$d100                   ; 0xd100 <__heap_start+0xb2f4>
     6ab: 9c 08 d1     	stz	$d108                   ; 0xd108 <__heap_start+0xb2fc>
     6ae: 9c 10 d1     	stz	$d110                   ; 0xd110 <__heap_start+0xb304>
     6b1: a2 10        	ldx	#$10
     6b3: 8e 00 d2     	stx	$d200                   ; 0xd200 <__heap_start+0xb3f4>
     6b6: 8e 0c d2     	stx	$d20c                   ; 0xd20c <__heap_start+0xb400>
     6b9: 8e 18 d2     	stx	$d218                   ; 0xd218 <__heap_start+0xb40c>
     6bc: a0 d9        	ldy	#$d9
     6be: a2 40        	ldx	#$40
     6c0: 64 12        	stz	$12                     ; 0x12 <__rc2>
     6c2: 84 13        	sty	$13                     ; 0x13 <__rc3>
     6c4: a9 00        	lda	#$0
     6c6: 92 12        	sta	($12)                   ; 0x12 <__rc2>
     6c8: ca           	dex
     6c9: 18           	clc
     6ca: a5 12        	lda	$12                     ; 0x12 <__rc2>
     6cc: 69 08        	adc	#$8
     6ce: 85 12        	sta	$12                     ; 0x12 <__rc2>
     6d0: 98           	tya
     6d1: 69 00        	adc	#$0
     6d3: a8           	tay
     6d4: 8a           	txa
     6d5: d0 eb        	bne	$6c2 <f256Init+0x387>
     6d7: a2 3a        	ldx	#$3a
     6d9: a0 00        	ldy	#$0
     6db: 86 fb        	stx	$fb                     ; 0xfb <__rc31+0xcc>
     6dd: 84 fc        	sty	$fc                     ; 0xfc <__rc31+0xcd>
     6df: a2 08        	ldx	#$8
     6e1: 86 fd        	stx	$fd                     ; 0xfd <__rc31+0xce>
     6e3: a2 42        	ldx	#$42
     6e5: a0 00        	ldy	#$0
     6e7: 86 12        	stx	$12                     ; 0x12 <__rc2>
     6e9: 84 13        	sty	$13                     ; 0x13 <__rc3>
     6eb: a2 0a        	ldx	#$a
     6ed: 86 14        	stx	$14                     ; 0x14 <__rc4>
     6ef: a2 1e        	ldx	#$1e
     6f1: 86 15        	stx	$15                     ; 0x15 <__rc5>
     6f3: 20 dc ff     	jsr	$ffdc <__heap_start+0xe1d0>
     6f6: 92 12        	sta	($12)                   ; 0x12 <__rc2>
     6f8: a9 00        	lda	#$0
     6fa: 6a           	ror
     6fb: 85 14        	sta	$14                     ; 0x14 <__rc4>
     6fd: a6 40        	ldx	$40                     ; 0x40 <__rc31+0x11>
     6ff: a4 41        	ldy	$41                     ; 0x41 <__rc31+0x12>
     701: 8e 00 de     	stx	$de00                   ; 0xde00 <__heap_start+0xbff4>
     704: 9c 01 de     	stz	$de01                   ; 0xde01 <__heap_start+0xbff5>
     707: 8c 02 de     	sty	$de02                   ; 0xde02 <__heap_start+0xbff6>
     70a: 9c 03 de     	stz	$de03                   ; 0xde03 <__heap_start+0xbff7>
     70d: ae 10 de     	ldx	$de10                   ; 0xde10 <__heap_start+0xc004>
     710: ac 11 de     	ldy	$de11                   ; 0xde11 <__heap_start+0xc005>
     713: ad 12 de     	lda	$de12                   ; 0xde12 <__heap_start+0xc006>
     716: ad 13 de     	lda	$de13                   ; 0xde13 <__heap_start+0xc007>
     719: 8e a4 d6     	stx	$d6a4                   ; 0xd6a4 <__heap_start+0xb898>
     71c: 8c a5 d6     	sty	$d6a5                   ; 0xd6a5 <__heap_start+0xb899>
     71f: a2 03        	ldx	#$3
     721: 8e a6 d6     	stx	$d6a6                   ; 0xd6a6 <__heap_start+0xb89a>
     724: 60           	rts

00000725 <main>:
     725: 20 3b 03     	jsr	$33b <f256Init>
     728: 20 2b 07     	jsr	$72b <f256main>

0000072b <f256main>:
     72b: 18           	clc
     72c: a5 10        	lda	$10                     ; 0x10 <__rc0>
     72e: 69 fc        	adc	#$fc
     730: 85 10        	sta	$10                     ; 0x10 <__rc0>
     732: a5 11        	lda	$11                     ; 0x11 <__rc1>
     734: 69 ff        	adc	#$ff
     736: 85 11        	sta	$11                     ; 0x11 <__rc1>
     738: a9 6d        	lda	#$6d
     73a: a2 00        	ldx	#$0
     73c: 20 0e 1b     	jsr	$1b0e <putchar>
     73f: a9 61        	lda	#$61
     741: a2 00        	ldx	#$0
     743: 20 0e 1b     	jsr	$1b0e <putchar>
     746: a9 69        	lda	#$69
     748: a2 00        	ldx	#$0
     74a: 20 0e 1b     	jsr	$1b0e <putchar>
     74d: a9 6e        	lda	#$6e
     74f: a2 00        	ldx	#$0
     751: 20 0e 1b     	jsr	$1b0e <putchar>
     754: a9 2e        	lda	#$2e
     756: a2 00        	ldx	#$0
     758: 20 0e 1b     	jsr	$1b0e <putchar>
     75b: a9 63        	lda	#$63
     75d: a2 00        	ldx	#$0
     75f: 20 0e 1b     	jsr	$1b0e <putchar>
     762: a9 20        	lda	#$20
     764: a2 00        	ldx	#$0
     766: 20 0e 1b     	jsr	$1b0e <putchar>
     769: a2 00        	ldx	#$0
     76b: a9 74        	lda	#$74
     76d: 20 0e 1b     	jsr	$1b0e <putchar>
     770: a9 65        	lda	#$65
     772: a2 00        	ldx	#$0
     774: 20 0e 1b     	jsr	$1b0e <putchar>
     777: a9 73        	lda	#$73
     779: a2 00        	ldx	#$0
     77b: 20 0e 1b     	jsr	$1b0e <putchar>
     77e: a2 00        	ldx	#$0
     780: a9 74        	lda	#$74
     782: 20 0e 1b     	jsr	$1b0e <putchar>
     785: a9 0a        	lda	#$a
     787: a2 00        	ldx	#$0
     789: 20 0e 1b     	jsr	$1b0e <putchar>
     78c: a0 00        	ldy	#$0
     78e: a2 3f        	ldx	#$3f
     790: 8e 00 d0     	stx	$d000                   ; 0xd000 <__heap_start+0xb1f4>
     793: 9c 01 d0     	stz	$d001                   ; 0xd001 <__heap_start+0xb1f5>
     796: a2 54        	ldx	#$54
     798: 8e 02 d0     	stx	$d002                   ; 0xd002 <__heap_start+0xb1f6>
     79b: 9c 03 d0     	stz	$d003                   ; 0xd003 <__heap_start+0xb1f7>
     79e: a2 01        	ldx	#$1
     7a0: 86 01        	stx	$1                      ; 0x1 <__zp_data_size+0x1>
     7a2: a2 d0        	ldx	#$d0
     7a4: 80 05        	bra	$7ab <f256main+0x80>
     7a6: e8           	inx
     7a7: e0 d3        	cpx	#$d3
     7a9: f0 28        	beq	$7d3 <f256main+0xa8>
     7ab: 84 16        	sty	$16                     ; 0x16 <__rc6>
     7ad: 98           	tya
     7ae: 18           	clc
     7af: 69 00        	adc	#$0
     7b1: 85 14        	sta	$14                     ; 0x14 <__rc4>
     7b3: 8a           	txa
     7b4: 69 10        	adc	#$10
     7b6: 85 15        	sta	$15                     ; 0x15 <__rc5>
     7b8: 84 12        	sty	$12                     ; 0x12 <__rc2>
     7ba: 86 13        	stx	$13                     ; 0x13 <__rc3>
     7bc: a4 0f        	ldy	$f                      ; 0xf <__zp_bss_size+0x5>
     7be: 78           	sei
     7bf: a9 10        	lda	#$10
     7c1: 85 0f        	sta	$f                      ; 0xf <__zp_bss_size+0x5>
     7c3: b2 14        	lda	($14)                   ; 0x14 <__rc4>
     7c5: 84 0f        	sty	$f                      ; 0xf <__zp_bss_size+0x5>
     7c7: 58           	cli
     7c8: 92 12        	sta	($12)                   ; 0x12 <__rc2>
     7ca: a4 16        	ldy	$16                     ; 0x16 <__rc6>
     7cc: c8           	iny
     7cd: f0 d7        	beq	$7a6 <f256main+0x7b>
     7cf: e0 d3        	cpx	#$d3
     7d1: d0 d8        	bne	$7ab <f256main+0x80>
     7d3: c0 ff        	cpy	#$ff
     7d5: d0 d4        	bne	$7ab <f256main+0x80>
     7d7: a9 00        	lda	#$0
     7d9: 64 01        	stz	$1                      ; 0x1 <__zp_data_size+0x1>
     7db: 64 34        	stz	$34                     ; 0x34 <base>
     7dd: a2 d9        	ldx	#$d9
     7df: 86 35        	stx	$35                     ; 0x35 <base+0x1>
     7e1: 92 10        	sta	($10)                   ; 0x10 <__rc0>
     7e3: a0 01        	ldy	#$1
     7e5: 91 10        	sta	($10),y                 ; 0x10 <__rc0>
     7e7: a2 01        	ldx	#$1
     7e9: 86 24        	stx	$24                     ; 0x24 <__rc20>
     7eb: a2 f1        	ldx	#$f1
     7ed: 86 2e        	stx	$2e                     ; 0x2e <__rc30>
     7ef: a2 1d        	ldx	#$1d
     7f1: 86 2f        	stx	$2f                     ; 0x2f <__rc31>
     7f3: a2 f1        	ldx	#$f1
     7f5: 86 12        	stx	$12                     ; 0x12 <__rc2>
     7f7: a2 1d        	ldx	#$1d
     7f9: 86 13        	stx	$13                     ; 0x13 <__rc3>
     7fb: 20 d4 0d     	jsr	$dd4 <printf>
     7fe: a9 00        	lda	#$0
     800: 92 10        	sta	($10)                   ; 0x10 <__rc0>
     802: a4 24        	ldy	$24                     ; 0x24 <__rc20>
     804: 91 10        	sta	($10),y                 ; 0x10 <__rc0>
     806: a2 d6        	ldx	#$d6
     808: 86 26        	stx	$26                     ; 0x26 <__rc22>
     80a: a2 1d        	ldx	#$1d
     80c: 86 27        	stx	$27                     ; 0x27 <__rc23>
     80e: a2 d6        	ldx	#$d6
     810: 86 12        	stx	$12                     ; 0x12 <__rc2>
     812: a2 1d        	ldx	#$1d
     814: 86 13        	stx	$13                     ; 0x13 <__rc3>
     816: 20 d4 0d     	jsr	$dd4 <printf>
     819: a5 34        	lda	$34                     ; 0x34 <base>
     81b: a6 35        	ldx	$35                     ; 0x35 <base+0x1>
     81d: 92 10        	sta	($10)                   ; 0x10 <__rc0>
     81f: a4 24        	ldy	$24                     ; 0x24 <__rc20>
     821: 8a           	txa
     822: 91 10        	sta	($10),y                 ; 0x10 <__rc0>
     824: a2 e7        	ldx	#$e7
     826: 86 2a        	stx	$2a                     ; 0x2a <__rc26>
     828: a2 1d        	ldx	#$1d
     82a: 86 2b        	stx	$2b                     ; 0x2b <__rc27>
     82c: a2 e7        	ldx	#$e7
     82e: 86 12        	stx	$12                     ; 0x12 <__rc2>
     830: a2 1d        	ldx	#$1d
     832: 86 13        	stx	$13                     ; 0x13 <__rc3>
     834: 20 d4 0d     	jsr	$dd4 <printf>
     837: a9 04        	lda	#$4
     839: 85 36        	sta	$36                     ; 0x36 <address>
     83b: 64 37        	stz	$37                     ; 0x37 <address+0x1>
     83d: 85 38        	sta	$38                     ; 0x38 <address+0x2>
     83f: 64 39        	stz	$39                     ; 0x39 <address+0x3>
     841: 92 10        	sta	($10)                   ; 0x10 <__rc0>
     843: aa           	tax
     844: a4 24        	ldy	$24                     ; 0x24 <__rc20>
     846: a9 00        	lda	#$0
     848: 91 10        	sta	($10),y                 ; 0x10 <__rc0>
     84a: a0 02        	ldy	#$2
     84c: 8a           	txa
     84d: 91 10        	sta	($10),y                 ; 0x10 <__rc0>
     84f: a2 02        	ldx	#$2
     851: 86 2d        	stx	$2d                     ; 0x2d <__rc29>
     853: c8           	iny
     854: a9 00        	lda	#$0
     856: 91 10        	sta	($10),y                 ; 0x10 <__rc0>
     858: a2 c7        	ldx	#$c7
     85a: 86 28        	stx	$28                     ; 0x28 <__rc24>
     85c: a2 1d        	ldx	#$1d
     85e: 86 29        	stx	$29                     ; 0x29 <__rc25>
     860: a2 c7        	ldx	#$c7
     862: 86 12        	stx	$12                     ; 0x12 <__rc2>
     864: a2 1d        	ldx	#$1d
     866: 86 13        	stx	$13                     ; 0x13 <__rc3>
     868: 20 d4 0d     	jsr	$dd4 <printf>
     86b: a6 34        	ldx	$34                     ; 0x34 <base>
     86d: a4 35        	ldy	$35                     ; 0x35 <base+0x1>
     86f: 86 12        	stx	$12                     ; 0x12 <__rc2>
     871: 84 13        	sty	$13                     ; 0x13 <__rc3>
     873: a9 01        	lda	#$1
     875: 92 12        	sta	($12)                   ; 0x12 <__rc2>
     877: a5 36        	lda	$36                     ; 0x36 <address>
     879: a6 34        	ldx	$34                     ; 0x34 <base>
     87b: a4 35        	ldy	$35                     ; 0x35 <base+0x1>
     87d: e8           	inx
     87e: d0 01        	bne	$881 <f256main+0x156>
     880: c8           	iny
     881: 86 12        	stx	$12                     ; 0x12 <__rc2>
     883: 84 13        	sty	$13                     ; 0x13 <__rc3>
     885: 92 12        	sta	($12)                   ; 0x12 <__rc2>
     887: a6 37        	ldx	$37                     ; 0x37 <address+0x1>
     889: 86 14        	stx	$14                     ; 0x14 <__rc4>
     88b: a5 34        	lda	$34                     ; 0x34 <base>
     88d: a6 35        	ldx	$35                     ; 0x35 <base+0x1>
     88f: 86 12        	stx	$12                     ; 0x12 <__rc2>
     891: 18           	clc
     892: 69 02        	adc	#$2
     894: aa           	tax
     895: a5 12        	lda	$12                     ; 0x12 <__rc2>
     897: 69 00        	adc	#$0
     899: 86 12        	stx	$12                     ; 0x12 <__rc2>
     89b: 85 13        	sta	$13                     ; 0x13 <__rc3>
     89d: a5 14        	lda	$14                     ; 0x14 <__rc4>
     89f: 92 12        	sta	($12)                   ; 0x12 <__rc2>
     8a1: a6 38        	ldx	$38                     ; 0x38 <address+0x2>
     8a3: 86 14        	stx	$14                     ; 0x14 <__rc4>
     8a5: a5 34        	lda	$34                     ; 0x34 <base>
     8a7: a6 35        	ldx	$35                     ; 0x35 <base+0x1>
     8a9: 86 12        	stx	$12                     ; 0x12 <__rc2>
     8ab: 18           	clc
     8ac: 69 03        	adc	#$3
     8ae: aa           	tax
     8af: a5 12        	lda	$12                     ; 0x12 <__rc2>
     8b1: 69 00        	adc	#$0
     8b3: 86 12        	stx	$12                     ; 0x12 <__rc2>
     8b5: 85 13        	sta	$13                     ; 0x13 <__rc3>
     8b7: a5 14        	lda	$14                     ; 0x14 <__rc4>
     8b9: 92 12        	sta	($12)                   ; 0x12 <__rc2>
     8bb: a5 34        	lda	$34                     ; 0x34 <base>
     8bd: a6 35        	ldx	$35                     ; 0x35 <base+0x1>
     8bf: 86 12        	stx	$12                     ; 0x12 <__rc2>
     8c1: 18           	clc
     8c2: 69 04        	adc	#$4
     8c4: aa           	tax
     8c5: a5 12        	lda	$12                     ; 0x12 <__rc2>
     8c7: 69 00        	adc	#$0
     8c9: 86 12        	stx	$12                     ; 0x12 <__rc2>
     8cb: 85 13        	sta	$13                     ; 0x13 <__rc3>
     8cd: a9 32        	lda	#$32
     8cf: 92 12        	sta	($12)                   ; 0x12 <__rc2>
     8d1: aa           	tax
     8d2: 86 14        	stx	$14                     ; 0x14 <__rc4>
     8d4: a0 01        	ldy	#$1
     8d6: a9 00        	lda	#$0
     8d8: 91 12        	sta	($12),y                 ; 0x12 <__rc2>
     8da: a5 34        	lda	$34                     ; 0x34 <base>
     8dc: a6 35        	ldx	$35                     ; 0x35 <base+0x1>
     8de: 86 12        	stx	$12                     ; 0x12 <__rc2>
     8e0: 18           	clc
     8e1: 69 06        	adc	#$6
     8e3: aa           	tax
     8e4: a5 12        	lda	$12                     ; 0x12 <__rc2>
     8e6: 69 00        	adc	#$0
     8e8: 86 12        	stx	$12                     ; 0x12 <__rc2>
     8ea: 85 13        	sta	$13                     ; 0x13 <__rc3>
     8ec: a5 14        	lda	$14                     ; 0x14 <__rc4>
     8ee: 92 12        	sta	($12)                   ; 0x12 <__rc2>
     8f0: a9 00        	lda	#$0
     8f2: 91 12        	sta	($12),y                 ; 0x12 <__rc2>
     8f4: a2 08        	ldx	#$8
     8f6: 86 34        	stx	$34                     ; 0x34 <base>
     8f8: a2 d9        	ldx	#$d9
     8fa: 86 35        	stx	$35                     ; 0x35 <base+0x1>
     8fc: 98           	tya
     8fd: 92 10        	sta	($10)                   ; 0x10 <__rc0>
     8ff: 84 25        	sty	$25                     ; 0x25 <__rc21>
     901: a9 00        	lda	#$0
     903: 91 10        	sta	($10),y                 ; 0x10 <__rc0>
     905: a2 01        	ldx	#$1
     907: 86 24        	stx	$24                     ; 0x24 <__rc20>
     909: a2 f1        	ldx	#$f1
     90b: 86 12        	stx	$12                     ; 0x12 <__rc2>
     90d: a2 1d        	ldx	#$1d
     90f: 86 13        	stx	$13                     ; 0x13 <__rc3>
     911: 20 d4 0d     	jsr	$dd4 <printf>
     914: a5 25        	lda	$25                     ; 0x25 <__rc21>
     916: 92 10        	sta	($10)                   ; 0x10 <__rc0>
     918: a9 00        	lda	#$0
     91a: a4 24        	ldy	$24                     ; 0x24 <__rc20>
     91c: 91 10        	sta	($10),y                 ; 0x10 <__rc0>
     91e: a2 d6        	ldx	#$d6
     920: 86 12        	stx	$12                     ; 0x12 <__rc2>
     922: a2 1d        	ldx	#$1d
     924: 86 13        	stx	$13                     ; 0x13 <__rc3>
     926: 20 d4 0d     	jsr	$dd4 <printf>
     929: a5 34        	lda	$34                     ; 0x34 <base>
     92b: a6 35        	ldx	$35                     ; 0x35 <base+0x1>
     92d: 92 10        	sta	($10)                   ; 0x10 <__rc0>
     92f: a4 24        	ldy	$24                     ; 0x24 <__rc20>
     931: 8a           	txa
     932: 91 10        	sta	($10),y                 ; 0x10 <__rc0>
     934: a2 e7        	ldx	#$e7
     936: 86 12        	stx	$12                     ; 0x12 <__rc2>
     938: a2 1d        	ldx	#$1d
     93a: 86 13        	stx	$13                     ; 0x13 <__rc3>
     93c: 20 d4 0d     	jsr	$dd4 <printf>
     93f: a9 06        	lda	#$6
     941: 85 36        	sta	$36                     ; 0x36 <address>
     943: a2 04        	ldx	#$4
     945: 86 37        	stx	$37                     ; 0x37 <address+0x1>
     947: 86 38        	stx	$38                     ; 0x38 <address+0x2>
     949: 64 39        	stz	$39                     ; 0x39 <address+0x3>
     94b: 92 10        	sta	($10)                   ; 0x10 <__rc0>
     94d: a4 24        	ldy	$24                     ; 0x24 <__rc20>
     94f: 8a           	txa
     950: 91 10        	sta	($10),y                 ; 0x10 <__rc0>
     952: a4 2d        	ldy	$2d                     ; 0x2d <__rc29>
     954: 91 10        	sta	($10),y                 ; 0x10 <__rc0>
     956: 86 2c        	stx	$2c                     ; 0x2c <__rc28>
     958: a0 03        	ldy	#$3
     95a: a9 00        	lda	#$0
     95c: 91 10        	sta	($10),y                 ; 0x10 <__rc0>
     95e: a2 c7        	ldx	#$c7
     960: 86 12        	stx	$12                     ; 0x12 <__rc2>
     962: a2 1d        	ldx	#$1d
     964: 86 13        	stx	$13                     ; 0x13 <__rc3>
     966: 20 d4 0d     	jsr	$dd4 <printf>
     969: a6 34        	ldx	$34                     ; 0x34 <base>
     96b: a4 35        	ldy	$35                     ; 0x35 <base+0x1>
     96d: 86 12        	stx	$12                     ; 0x12 <__rc2>
     96f: 84 13        	sty	$13                     ; 0x13 <__rc3>
     971: a9 01        	lda	#$1
     973: 92 12        	sta	($12)                   ; 0x12 <__rc2>
     975: a5 36        	lda	$36                     ; 0x36 <address>
     977: a6 34        	ldx	$34                     ; 0x34 <base>
     979: a4 35        	ldy	$35                     ; 0x35 <base+0x1>
     97b: e8           	inx
     97c: d0 01        	bne	$97f <f256main+0x254>
     97e: c8           	iny
     97f: 86 12        	stx	$12                     ; 0x12 <__rc2>
     981: 84 13        	sty	$13                     ; 0x13 <__rc3>
     983: 92 12        	sta	($12)                   ; 0x12 <__rc2>
     985: a6 37        	ldx	$37                     ; 0x37 <address+0x1>
     987: 86 14        	stx	$14                     ; 0x14 <__rc4>
     989: a5 34        	lda	$34                     ; 0x34 <base>
     98b: a6 35        	ldx	$35                     ; 0x35 <base+0x1>
     98d: 86 12        	stx	$12                     ; 0x12 <__rc2>
     98f: 18           	clc
     990: 69 02        	adc	#$2
     992: aa           	tax
     993: a5 12        	lda	$12                     ; 0x12 <__rc2>
     995: 69 00        	adc	#$0
     997: 86 12        	stx	$12                     ; 0x12 <__rc2>
     999: 85 13        	sta	$13                     ; 0x13 <__rc3>
     99b: a5 14        	lda	$14                     ; 0x14 <__rc4>
     99d: 92 12        	sta	($12)                   ; 0x12 <__rc2>
     99f: a6 38        	ldx	$38                     ; 0x38 <address+0x2>
     9a1: 86 14        	stx	$14                     ; 0x14 <__rc4>
     9a3: a5 34        	lda	$34                     ; 0x34 <base>
     9a5: a6 35        	ldx	$35                     ; 0x35 <base+0x1>
     9a7: 86 12        	stx	$12                     ; 0x12 <__rc2>
     9a9: 18           	clc
     9aa: 69 03        	adc	#$3
     9ac: aa           	tax
     9ad: a5 12        	lda	$12                     ; 0x12 <__rc2>
     9af: 69 00        	adc	#$0
     9b1: 86 12        	stx	$12                     ; 0x12 <__rc2>
     9b3: 85 13        	sta	$13                     ; 0x13 <__rc3>
     9b5: a5 14        	lda	$14                     ; 0x14 <__rc4>
     9b7: 92 12        	sta	($12)                   ; 0x12 <__rc2>
     9b9: a5 34        	lda	$34                     ; 0x34 <base>
     9bb: a6 35        	ldx	$35                     ; 0x35 <base+0x1>
     9bd: 86 12        	stx	$12                     ; 0x12 <__rc2>
     9bf: 18           	clc
     9c0: 69 04        	adc	#$4
     9c2: aa           	tax
     9c3: a5 12        	lda	$12                     ; 0x12 <__rc2>
     9c5: 69 00        	adc	#$0
     9c7: 86 12        	stx	$12                     ; 0x12 <__rc2>
     9c9: 85 13        	sta	$13                     ; 0x13 <__rc3>
     9cb: a9 64        	lda	#$64
     9cd: 92 12        	sta	($12)                   ; 0x12 <__rc2>
     9cf: aa           	tax
     9d0: 86 14        	stx	$14                     ; 0x14 <__rc4>
     9d2: a4 24        	ldy	$24                     ; 0x24 <__rc20>
     9d4: a9 00        	lda	#$0
     9d6: 91 12        	sta	($12),y                 ; 0x12 <__rc2>
     9d8: a5 34        	lda	$34                     ; 0x34 <base>
     9da: a6 35        	ldx	$35                     ; 0x35 <base+0x1>
     9dc: 86 12        	stx	$12                     ; 0x12 <__rc2>
     9de: 18           	clc
     9df: 69 06        	adc	#$6
     9e1: aa           	tax
     9e2: a5 12        	lda	$12                     ; 0x12 <__rc2>
     9e4: 69 00        	adc	#$0
     9e6: 86 12        	stx	$12                     ; 0x12 <__rc2>
     9e8: 85 13        	sta	$13                     ; 0x13 <__rc3>
     9ea: a5 14        	lda	$14                     ; 0x14 <__rc4>
     9ec: 92 12        	sta	($12)                   ; 0x12 <__rc2>
     9ee: a9 00        	lda	#$0
     9f0: 91 12        	sta	($12),y                 ; 0x12 <__rc2>
     9f2: a2 10        	ldx	#$10
     9f4: 86 34        	stx	$34                     ; 0x34 <base>
     9f6: a2 d9        	ldx	#$d9
     9f8: 86 35        	stx	$35                     ; 0x35 <base+0x1>
     9fa: a5 2d        	lda	$2d                     ; 0x2d <__rc29>
     9fc: 92 10        	sta	($10)                   ; 0x10 <__rc0>
     9fe: 85 25        	sta	$25                     ; 0x25 <__rc21>
     a00: a9 00        	lda	#$0
     a02: 91 10        	sta	($10),y                 ; 0x10 <__rc0>
     a04: a2 f1        	ldx	#$f1
     a06: 86 12        	stx	$12                     ; 0x12 <__rc2>
     a08: a2 1d        	ldx	#$1d
     a0a: 86 13        	stx	$13                     ; 0x13 <__rc3>
     a0c: 20 d4 0d     	jsr	$dd4 <printf>
     a0f: a5 25        	lda	$25                     ; 0x25 <__rc21>
     a11: 92 10        	sta	($10)                   ; 0x10 <__rc0>
     a13: a9 00        	lda	#$0
     a15: a4 24        	ldy	$24                     ; 0x24 <__rc20>
     a17: 91 10        	sta	($10),y                 ; 0x10 <__rc0>
     a19: a2 d6        	ldx	#$d6
     a1b: 86 12        	stx	$12                     ; 0x12 <__rc2>
     a1d: a2 1d        	ldx	#$1d
     a1f: 86 13        	stx	$13                     ; 0x13 <__rc3>
     a21: 20 d4 0d     	jsr	$dd4 <printf>
     a24: a5 34        	lda	$34                     ; 0x34 <base>
     a26: a6 35        	ldx	$35                     ; 0x35 <base+0x1>
     a28: 92 10        	sta	($10)                   ; 0x10 <__rc0>
     a2a: a4 24        	ldy	$24                     ; 0x24 <__rc20>
     a2c: 8a           	txa
     a2d: 91 10        	sta	($10),y                 ; 0x10 <__rc0>
     a2f: a2 e7        	ldx	#$e7
     a31: 86 12        	stx	$12                     ; 0x12 <__rc2>
     a33: a2 1d        	ldx	#$1d
     a35: 86 13        	stx	$13                     ; 0x13 <__rc3>
     a37: 20 d4 0d     	jsr	$dd4 <printf>
     a3a: a2 08        	ldx	#$8
     a3c: 86 36        	stx	$36                     ; 0x36 <address>
     a3e: 86 37        	stx	$37                     ; 0x37 <address+0x1>
     a40: 86 12        	stx	$12                     ; 0x12 <__rc2>
     a42: a6 2c        	ldx	$2c                     ; 0x2c <__rc28>
     a44: 86 38        	stx	$38                     ; 0x38 <address+0x2>
     a46: 64 39        	stz	$39                     ; 0x39 <address+0x3>
     a48: a5 12        	lda	$12                     ; 0x12 <__rc2>
     a4a: 92 10        	sta	($10)                   ; 0x10 <__rc0>
     a4c: a4 24        	ldy	$24                     ; 0x24 <__rc20>
     a4e: 91 10        	sta	($10),y                 ; 0x10 <__rc0>
     a50: a4 2d        	ldy	$2d                     ; 0x2d <__rc29>
     a52: a5 2c        	lda	$2c                     ; 0x2c <__rc28>
     a54: 91 10        	sta	($10),y                 ; 0x10 <__rc0>
     a56: a0 03        	ldy	#$3
     a58: a9 00        	lda	#$0
     a5a: 91 10        	sta	($10),y                 ; 0x10 <__rc0>
     a5c: a2 c7        	ldx	#$c7
     a5e: 86 12        	stx	$12                     ; 0x12 <__rc2>
     a60: a2 1d        	ldx	#$1d
     a62: 86 13        	stx	$13                     ; 0x13 <__rc3>
     a64: 20 d4 0d     	jsr	$dd4 <printf>
     a67: a6 34        	ldx	$34                     ; 0x34 <base>
     a69: a4 35        	ldy	$35                     ; 0x35 <base+0x1>
     a6b: 86 12        	stx	$12                     ; 0x12 <__rc2>
     a6d: 84 13        	sty	$13                     ; 0x13 <__rc3>
     a6f: a9 01        	lda	#$1
     a71: 92 12        	sta	($12)                   ; 0x12 <__rc2>
     a73: a5 36        	lda	$36                     ; 0x36 <address>
     a75: a6 34        	ldx	$34                     ; 0x34 <base>
     a77: a4 35        	ldy	$35                     ; 0x35 <base+0x1>
     a79: e8           	inx
     a7a: d0 01        	bne	$a7d <f256main+0x352>
     a7c: c8           	iny
     a7d: 86 12        	stx	$12                     ; 0x12 <__rc2>
     a7f: 84 13        	sty	$13                     ; 0x13 <__rc3>
     a81: 92 12        	sta	($12)                   ; 0x12 <__rc2>
     a83: a6 37        	ldx	$37                     ; 0x37 <address+0x1>
     a85: 86 14        	stx	$14                     ; 0x14 <__rc4>
     a87: a5 34        	lda	$34                     ; 0x34 <base>
     a89: a6 35        	ldx	$35                     ; 0x35 <base+0x1>
     a8b: 86 12        	stx	$12                     ; 0x12 <__rc2>
     a8d: 18           	clc
     a8e: 69 02        	adc	#$2
     a90: aa           	tax
     a91: a5 12        	lda	$12                     ; 0x12 <__rc2>
     a93: 69 00        	adc	#$0
     a95: 86 12        	stx	$12                     ; 0x12 <__rc2>
     a97: 85 13        	sta	$13                     ; 0x13 <__rc3>
     a99: a5 14        	lda	$14                     ; 0x14 <__rc4>
     a9b: 92 12        	sta	($12)                   ; 0x12 <__rc2>
     a9d: a6 38        	ldx	$38                     ; 0x38 <address+0x2>
     a9f: 86 14        	stx	$14                     ; 0x14 <__rc4>
     aa1: a5 34        	lda	$34                     ; 0x34 <base>
     aa3: a6 35        	ldx	$35                     ; 0x35 <base+0x1>
     aa5: 86 12        	stx	$12                     ; 0x12 <__rc2>
     aa7: 18           	clc
     aa8: 69 03        	adc	#$3
     aaa: aa           	tax
     aab: a5 12        	lda	$12                     ; 0x12 <__rc2>
     aad: 69 00        	adc	#$0
     aaf: 86 12        	stx	$12                     ; 0x12 <__rc2>
     ab1: 85 13        	sta	$13                     ; 0x13 <__rc3>
     ab3: a5 14        	lda	$14                     ; 0x14 <__rc4>
     ab5: 92 12        	sta	($12)                   ; 0x12 <__rc2>
     ab7: a5 34        	lda	$34                     ; 0x34 <base>
     ab9: a6 35        	ldx	$35                     ; 0x35 <base+0x1>
     abb: 86 12        	stx	$12                     ; 0x12 <__rc2>
     abd: 18           	clc
     abe: 69 04        	adc	#$4
     ac0: aa           	tax
     ac1: a5 12        	lda	$12                     ; 0x12 <__rc2>
     ac3: 69 00        	adc	#$0
     ac5: 86 12        	stx	$12                     ; 0x12 <__rc2>
     ac7: 85 13        	sta	$13                     ; 0x13 <__rc3>
     ac9: a9 96        	lda	#$96
     acb: 92 12        	sta	($12)                   ; 0x12 <__rc2>
     acd: aa           	tax
     ace: 86 14        	stx	$14                     ; 0x14 <__rc4>
     ad0: a4 24        	ldy	$24                     ; 0x24 <__rc20>
     ad2: a9 00        	lda	#$0
     ad4: 91 12        	sta	($12),y                 ; 0x12 <__rc2>
     ad6: a5 34        	lda	$34                     ; 0x34 <base>
     ad8: a6 35        	ldx	$35                     ; 0x35 <base+0x1>
     ada: 86 12        	stx	$12                     ; 0x12 <__rc2>
     adc: 18           	clc
     add: 69 06        	adc	#$6
     adf: aa           	tax
     ae0: a5 12        	lda	$12                     ; 0x12 <__rc2>
     ae2: 69 00        	adc	#$0
     ae4: 86 12        	stx	$12                     ; 0x12 <__rc2>
     ae6: 85 13        	sta	$13                     ; 0x13 <__rc3>
     ae8: a5 14        	lda	$14                     ; 0x14 <__rc4>
     aea: 92 12        	sta	($12)                   ; 0x12 <__rc2>
     aec: a9 00        	lda	#$0
     aee: 91 12        	sta	($12),y                 ; 0x12 <__rc2>
     af0: a2 18        	ldx	#$18
     af2: 86 34        	stx	$34                     ; 0x34 <base>
     af4: a2 d9        	ldx	#$d9
     af6: 86 35        	stx	$35                     ; 0x35 <base+0x1>
     af8: a9 03        	lda	#$3
     afa: 92 10        	sta	($10)                   ; 0x10 <__rc0>
     afc: 85 25        	sta	$25                     ; 0x25 <__rc21>
     afe: a9 00        	lda	#$0
     b00: 91 10        	sta	($10),y                 ; 0x10 <__rc0>
     b02: a2 f1        	ldx	#$f1
     b04: 86 12        	stx	$12                     ; 0x12 <__rc2>
     b06: a2 1d        	ldx	#$1d
     b08: 86 13        	stx	$13                     ; 0x13 <__rc3>
     b0a: 20 d4 0d     	jsr	$dd4 <printf>
     b0d: a5 25        	lda	$25                     ; 0x25 <__rc21>
     b0f: 92 10        	sta	($10)                   ; 0x10 <__rc0>
     b11: a9 00        	lda	#$0
     b13: a4 24        	ldy	$24                     ; 0x24 <__rc20>
     b15: 91 10        	sta	($10),y                 ; 0x10 <__rc0>
     b17: a2 d6        	ldx	#$d6
     b19: 86 12        	stx	$12                     ; 0x12 <__rc2>
     b1b: a2 1d        	ldx	#$1d
     b1d: 86 13        	stx	$13                     ; 0x13 <__rc3>
     b1f: 20 d4 0d     	jsr	$dd4 <printf>
     b22: a5 34        	lda	$34                     ; 0x34 <base>
     b24: a6 35        	ldx	$35                     ; 0x35 <base+0x1>
     b26: 92 10        	sta	($10)                   ; 0x10 <__rc0>
     b28: a4 24        	ldy	$24                     ; 0x24 <__rc20>
     b2a: 8a           	txa
     b2b: 91 10        	sta	($10),y                 ; 0x10 <__rc0>
     b2d: a2 e7        	ldx	#$e7
     b2f: 86 12        	stx	$12                     ; 0x12 <__rc2>
     b31: a2 1d        	ldx	#$1d
     b33: 86 13        	stx	$13                     ; 0x13 <__rc3>
     b35: 20 d4 0d     	jsr	$dd4 <printf>
     b38: a2 0a        	ldx	#$a
     b3a: 86 36        	stx	$36                     ; 0x36 <address>
     b3c: 86 12        	stx	$12                     ; 0x12 <__rc2>
     b3e: a2 0c        	ldx	#$c
     b40: 86 37        	stx	$37                     ; 0x37 <address+0x1>
     b42: a5 2c        	lda	$2c                     ; 0x2c <__rc28>
     b44: 85 38        	sta	$38                     ; 0x38 <address+0x2>
     b46: 64 39        	stz	$39                     ; 0x39 <address+0x3>
     b48: a4 2d        	ldy	$2d                     ; 0x2d <__rc29>
     b4a: 91 10        	sta	($10),y                 ; 0x10 <__rc0>
     b4c: a5 12        	lda	$12                     ; 0x12 <__rc2>
     b4e: 92 10        	sta	($10)                   ; 0x10 <__rc0>
     b50: a4 24        	ldy	$24                     ; 0x24 <__rc20>
     b52: 8a           	txa
     b53: 91 10        	sta	($10),y                 ; 0x10 <__rc0>
     b55: a9 00        	lda	#$0
     b57: a0 03        	ldy	#$3
     b59: 91 10        	sta	($10),y                 ; 0x10 <__rc0>
     b5b: a2 c7        	ldx	#$c7
     b5d: 86 12        	stx	$12                     ; 0x12 <__rc2>
     b5f: a2 1d        	ldx	#$1d
     b61: 86 13        	stx	$13                     ; 0x13 <__rc3>
     b63: 20 d4 0d     	jsr	$dd4 <printf>
     b66: a6 34        	ldx	$34                     ; 0x34 <base>
     b68: a4 35        	ldy	$35                     ; 0x35 <base+0x1>
     b6a: 86 12        	stx	$12                     ; 0x12 <__rc2>
     b6c: 84 13        	sty	$13                     ; 0x13 <__rc3>
     b6e: a9 01        	lda	#$1
     b70: 92 12        	sta	($12)                   ; 0x12 <__rc2>
     b72: a5 36        	lda	$36                     ; 0x36 <address>
     b74: a6 34        	ldx	$34                     ; 0x34 <base>
     b76: a4 35        	ldy	$35                     ; 0x35 <base+0x1>
     b78: e8           	inx
     b79: d0 01        	bne	$b7c <f256main+0x451>
     b7b: c8           	iny
     b7c: 86 12        	stx	$12                     ; 0x12 <__rc2>
     b7e: 84 13        	sty	$13                     ; 0x13 <__rc3>
     b80: 92 12        	sta	($12)                   ; 0x12 <__rc2>
     b82: a5 34        	lda	$34                     ; 0x34 <base>
     b84: a6 35        	ldx	$35                     ; 0x35 <base+0x1>
     b86: 86 12        	stx	$12                     ; 0x12 <__rc2>
     b88: 18           	clc
     b89: 69 02        	adc	#$2
     b8b: aa           	tax
     b8c: a5 12        	lda	$12                     ; 0x12 <__rc2>
     b8e: 69 00        	adc	#$0
     b90: 85 13        	sta	$13                     ; 0x13 <__rc3>
     b92: a5 37        	lda	$37                     ; 0x37 <address+0x1>
     b94: 86 12        	stx	$12                     ; 0x12 <__rc2>
     b96: 92 12        	sta	($12)                   ; 0x12 <__rc2>
     b98: a5 34        	lda	$34                     ; 0x34 <base>
     b9a: a6 35        	ldx	$35                     ; 0x35 <base+0x1>
     b9c: 86 12        	stx	$12                     ; 0x12 <__rc2>
     b9e: 18           	clc
     b9f: 69 03        	adc	#$3
     ba1: aa           	tax
     ba2: a5 12        	lda	$12                     ; 0x12 <__rc2>
     ba4: 69 00        	adc	#$0
     ba6: 85 13        	sta	$13                     ; 0x13 <__rc3>
     ba8: a5 38        	lda	$38                     ; 0x38 <address+0x2>
     baa: 86 12        	stx	$12                     ; 0x12 <__rc2>
     bac: 92 12        	sta	($12)                   ; 0x12 <__rc2>
     bae: a5 34        	lda	$34                     ; 0x34 <base>
     bb0: a6 35        	ldx	$35                     ; 0x35 <base+0x1>
     bb2: 86 12        	stx	$12                     ; 0x12 <__rc2>
     bb4: 18           	clc
     bb5: 69 04        	adc	#$4
     bb7: aa           	tax
     bb8: a5 12        	lda	$12                     ; 0x12 <__rc2>
     bba: 69 00        	adc	#$0
     bbc: 86 12        	stx	$12                     ; 0x12 <__rc2>
     bbe: 85 13        	sta	$13                     ; 0x13 <__rc3>
     bc0: a9 c8        	lda	#$c8
     bc2: 92 12        	sta	($12)                   ; 0x12 <__rc2>
     bc4: aa           	tax
     bc5: 86 14        	stx	$14                     ; 0x14 <__rc4>
     bc7: a4 24        	ldy	$24                     ; 0x24 <__rc20>
     bc9: a9 00        	lda	#$0
     bcb: 91 12        	sta	($12),y                 ; 0x12 <__rc2>
     bcd: a5 34        	lda	$34                     ; 0x34 <base>
     bcf: a6 35        	ldx	$35                     ; 0x35 <base+0x1>
     bd1: 86 12        	stx	$12                     ; 0x12 <__rc2>
     bd3: 18           	clc
     bd4: 69 06        	adc	#$6
     bd6: aa           	tax
     bd7: a5 12        	lda	$12                     ; 0x12 <__rc2>
     bd9: 69 00        	adc	#$0
     bdb: 86 12        	stx	$12                     ; 0x12 <__rc2>
     bdd: 85 13        	sta	$13                     ; 0x13 <__rc3>
     bdf: a5 14        	lda	$14                     ; 0x14 <__rc4>
     be1: 92 12        	sta	($12)                   ; 0x12 <__rc2>
     be3: a9 00        	lda	#$0
     be5: 91 12        	sta	($12),y                 ; 0x12 <__rc2>
     be7: 80 fe        	bra	$be7 <f256main+0x4bc>

00000be9 <exit>:
     be9: 20 14 03     	jsr	$314 <_fini>
     bec: 80 fe        	bra	$bec <exit+0x3>

00000bee <_ZN12_GLOBAL__N_13putEcP6Status>:
     bee: 85 18        	sta	$18                     ; 0x18 <__rc8>
     bf0: a6 13        	ldx	$13                     ; 0x13 <__rc3>
     bf2: 18           	clc
     bf3: a5 12        	lda	$12                     ; 0x12 <__rc2>
     bf5: 69 05        	adc	#$5
     bf7: a8           	tay
     bf8: a5 13        	lda	$13                     ; 0x13 <__rc3>
     bfa: 86 15        	stx	$15                     ; 0x15 <__rc5>
     bfc: 69 00        	adc	#$0
     bfe: 18           	clc
     bff: 84 16        	sty	$16                     ; 0x16 <__rc6>
     c01: a0 05        	ldy	#$5
     c03: 85 17        	sta	$17                     ; 0x17 <__rc7>
     c05: b1 12        	lda	($12),y                 ; 0x12 <__rc2>
     c07: aa           	tax
     c08: a5 12        	lda	$12                     ; 0x12 <__rc2>
     c0a: 69 03        	adc	#$3
     c0c: 85 14        	sta	$14                     ; 0x14 <__rc4>
     c0e: a5 15        	lda	$15                     ; 0x15 <__rc5>
     c10: 69 00        	adc	#$0
     c12: 85 15        	sta	$15                     ; 0x15 <__rc5>
     c14: a0 01        	ldy	#$1
     c16: b1 16        	lda	($16),y                 ; 0x16 <__rc6>
     c18: d1 14        	cmp	($14),y                 ; 0x14 <__rc4>
     c1a: d0 11        	bne	$c2d <_ZN12_GLOBAL__N_13putEcP6Status+0x3f>
     c1c: a0 03        	ldy	#$3
     c1e: 85 17        	sta	$17                     ; 0x17 <__rc7>
     c20: b1 12        	lda	($12),y                 ; 0x12 <__rc2>
     c22: 85 14        	sta	$14                     ; 0x14 <__rc4>
     c24: 86 16        	stx	$16                     ; 0x16 <__rc6>
     c26: e4 14        	cpx	$14                     ; 0x14 <__rc4>
     c28: 90 0e        	bcc	$c38 <_ZN12_GLOBAL__N_13putEcP6Status+0x4a>
     c2a: 4c 99 0c     	jmp	$c99 <_ZN12_GLOBAL__N_13putEcP6Status+0xab>
     c2d: 86 16        	stx	$16                     ; 0x16 <__rc6>
     c2f: d1 14        	cmp	($14),y                 ; 0x14 <__rc4>
     c31: 85 17        	sta	$17                     ; 0x17 <__rc7>
     c33: 90 03        	bcc	$c38 <_ZN12_GLOBAL__N_13putEcP6Status+0x4a>
     c35: 4c 99 0c     	jmp	$c99 <_ZN12_GLOBAL__N_13putEcP6Status+0xab>
     c38: a5 12        	lda	$12                     ; 0x12 <__rc2>
     c3a: 18           	clc
     c3b: 69 0f        	adc	#$f
     c3d: 85 14        	sta	$14                     ; 0x14 <__rc4>
     c3f: a5 13        	lda	$13                     ; 0x13 <__rc3>
     c41: 69 00        	adc	#$0
     c43: 85 15        	sta	$15                     ; 0x15 <__rc5>
     c45: a0 01        	ldy	#$1
     c47: b1 14        	lda	($14),y                 ; 0x14 <__rc4>
     c49: a2 00        	ldx	#$0
     c4b: 86 14        	stx	$14                     ; 0x14 <__rc4>
     c4d: a2 00        	ldx	#$0
     c4f: 86 15        	stx	$15                     ; 0x15 <__rc5>
     c51: c5 15        	cmp	$15                     ; 0x15 <__rc5>
     c53: d0 2d        	bne	$c82 <_ZN12_GLOBAL__N_13putEcP6Status+0x94>
     c55: a0 0f        	ldy	#$f
     c57: b1 12        	lda	($12),y                 ; 0x12 <__rc2>
     c59: c5 14        	cmp	$14                     ; 0x14 <__rc4>
     c5b: d0 25        	bne	$c82 <_ZN12_GLOBAL__N_13putEcP6Status+0x94>
     c5d: a5 12        	lda	$12                     ; 0x12 <__rc2>
     c5f: 18           	clc
     c60: 69 09        	adc	#$9
     c62: 85 14        	sta	$14                     ; 0x14 <__rc4>
     c64: a5 13        	lda	$13                     ; 0x13 <__rc3>
     c66: 69 00        	adc	#$0
     c68: a0 09        	ldy	#$9
     c6a: 85 15        	sta	$15                     ; 0x15 <__rc5>
     c6c: 18           	clc
     c6d: a5 16        	lda	$16                     ; 0x16 <__rc6>
     c6f: 71 12        	adc	($12),y                 ; 0x12 <__rc2>
     c71: aa           	tax
     c72: a0 01        	ldy	#$1
     c74: a5 17        	lda	$17                     ; 0x17 <__rc7>
     c76: 71 14        	adc	($14),y                 ; 0x14 <__rc4>
     c78: 86 14        	stx	$14                     ; 0x14 <__rc4>
     c7a: 85 15        	sta	$15                     ; 0x15 <__rc5>
     c7c: a5 18        	lda	$18                     ; 0x18 <__rc8>
     c7e: 92 14        	sta	($14)                   ; 0x14 <__rc4>
     c80: 80 17        	bra	$c99 <_ZN12_GLOBAL__N_13putEcP6Status+0xab>
     c82: a6 12        	ldx	$12                     ; 0x12 <__rc2>
     c84: 86 91        	stx	$91                     ; 0x91 <__rc31+0x62>
     c86: a6 13        	ldx	$13                     ; 0x13 <__rc3>
     c88: 86 92        	stx	$92                     ; 0x92 <__rc31+0x63>
     c8a: a2 00        	ldx	#$0
     c8c: a5 18        	lda	$18                     ; 0x18 <__rc8>
     c8e: 20 0e 1b     	jsr	$1b0e <putchar>
     c91: a6 91        	ldx	$91                     ; 0x91 <__rc31+0x62>
     c93: 86 12        	stx	$12                     ; 0x12 <__rc2>
     c95: a6 92        	ldx	$92                     ; 0x92 <__rc31+0x63>
     c97: 86 13        	stx	$13                     ; 0x13 <__rc3>
     c99: a0 05        	ldy	#$5
     c9b: a5 12        	lda	$12                     ; 0x12 <__rc2>
     c9d: 18           	clc
     c9e: 69 05        	adc	#$5
     ca0: 85 14        	sta	$14                     ; 0x14 <__rc4>
     ca2: a5 13        	lda	$13                     ; 0x13 <__rc3>
     ca4: 69 00        	adc	#$0
     ca6: 85 15        	sta	$15                     ; 0x15 <__rc5>
     ca8: b1 12        	lda	($12),y                 ; 0x12 <__rc2>
     caa: aa           	tax
     cab: 84 16        	sty	$16                     ; 0x16 <__rc6>
     cad: a0 01        	ldy	#$1
     caf: b1 14        	lda	($14),y                 ; 0x14 <__rc4>
     cb1: 84 17        	sty	$17                     ; 0x17 <__rc7>
     cb3: e8           	inx
     cb4: d0 01        	bne	$cb7 <_ZN12_GLOBAL__N_13putEcP6Status+0xc9>
     cb6: 1a           	inc
     cb7: 85 18        	sta	$18                     ; 0x18 <__rc8>
     cb9: 8a           	txa
     cba: a4 16        	ldy	$16                     ; 0x16 <__rc6>
     cbc: 91 12        	sta	($12),y                 ; 0x12 <__rc2>
     cbe: a4 17        	ldy	$17                     ; 0x17 <__rc7>
     cc0: a5 18        	lda	$18                     ; 0x18 <__rc8>
     cc2: 91 14        	sta	($14),y                 ; 0x14 <__rc4>
     cc4: 60           	rts

00000cc5 <_ZN12_GLOBAL__N_112print_stringEPKcP6Status>:
     cc5: a6 12        	ldx	$12                     ; 0x12 <__rc2>
     cc7: 86 88        	stx	$88                     ; 0x88 <__rc31+0x59>
     cc9: a6 13        	ldx	$13                     ; 0x13 <__rc3>
     ccb: 86 89        	stx	$89                     ; 0x89 <__rc31+0x5a>
     ccd: a6 14        	ldx	$14                     ; 0x14 <__rc4>
     ccf: 86 8a        	stx	$8a                     ; 0x8a <__rc31+0x5b>
     cd1: a6 15        	ldx	$15                     ; 0x15 <__rc5>
     cd3: 86 8b        	stx	$8b                     ; 0x8b <__rc31+0x5c>
     cd5: a5 8a        	lda	$8a                     ; 0x8a <__rc31+0x5b>
     cd7: 18           	clc
     cd8: 69 0d        	adc	#$d
     cda: 85 12        	sta	$12                     ; 0x12 <__rc2>
     cdc: a5 8b        	lda	$8b                     ; 0x8b <__rc31+0x5c>
     cde: 69 00        	adc	#$0
     ce0: 85 13        	sta	$13                     ; 0x13 <__rc3>
     ce2: a0 01        	ldy	#$1
     ce4: b1 12        	lda	($12),y                 ; 0x12 <__rc2>
     ce6: 30 14        	bmi	$cfc <_ZN12_GLOBAL__N_112print_stringEPKcP6Status+0x37>
     ce8: a0 0d        	ldy	#$d
     cea: aa           	tax
     ceb: b1 8a        	lda	($8a),y                 ; 0x8a <__rc31+0x5b>
     ced: 86 8d        	stx	$8d                     ; 0x8d <__rc31+0x5e>
     cef: e0 00        	cpx	#$0
     cf1: d0 0e        	bne	$d01 <_ZN12_GLOBAL__N_112print_stringEPKcP6Status+0x3c>
     cf3: aa           	tax
     cf4: d0 0b        	bne	$d01 <_ZN12_GLOBAL__N_112print_stringEPKcP6Status+0x3c>
     cf6: 64 8c        	stz	$8c                     ; 0x8c <__rc31+0x5d>
     cf8: 64 8d        	stz	$8d                     ; 0x8d <__rc31+0x5e>
     cfa: 80 36        	bra	$d32 <_ZN12_GLOBAL__N_112print_stringEPKcP6Status+0x6d>
     cfc: a9 ff        	lda	#$ff
     cfe: aa           	tax
     cff: 86 8d        	stx	$8d                     ; 0x8d <__rc31+0x5e>
     d01: 85 8c        	sta	$8c                     ; 0x8c <__rc31+0x5d>
     d03: 64 12        	stz	$12                     ; 0x12 <__rc2>
     d05: a4 88        	ldy	$88                     ; 0x88 <__rc31+0x59>
     d07: a6 89        	ldx	$89                     ; 0x89 <__rc31+0x5a>
     d09: 86 16        	stx	$16                     ; 0x16 <__rc6>
     d0b: 64 13        	stz	$13                     ; 0x13 <__rc3>
     d0d: 98           	tya
     d0e: 18           	clc
     d0f: 65 12        	adc	$12                     ; 0x12 <__rc2>
     d11: 85 14        	sta	$14                     ; 0x14 <__rc4>
     d13: a5 89        	lda	$89                     ; 0x89 <__rc31+0x5a>
     d15: 65 13        	adc	$13                     ; 0x13 <__rc3>
     d17: 85 15        	sta	$15                     ; 0x15 <__rc5>
     d19: b2 14        	lda	($14)                   ; 0x14 <__rc4>
     d1b: d0 03        	bne	$d20 <_ZN12_GLOBAL__N_112print_stringEPKcP6Status+0x5b>
     d1d: 4c c9 0d     	jmp	$dc9 <_ZN12_GLOBAL__N_112print_stringEPKcP6Status+0x104>
     d20: e6 12        	inc	$12                     ; 0x12 <__rc2>
     d22: d0 02        	bne	$d26 <_ZN12_GLOBAL__N_112print_stringEPKcP6Status+0x61>
     d24: e6 13        	inc	$13                     ; 0x13 <__rc3>
     d26: a6 8d        	ldx	$8d                     ; 0x8d <__rc31+0x5e>
     d28: e4 13        	cpx	$13                     ; 0x13 <__rc3>
     d2a: d0 e1        	bne	$d0d <_ZN12_GLOBAL__N_112print_stringEPKcP6Status+0x48>
     d2c: a6 8c        	ldx	$8c                     ; 0x8c <__rc31+0x5d>
     d2e: e4 12        	cpx	$12                     ; 0x12 <__rc2>
     d30: d0 db        	bne	$d0d <_ZN12_GLOBAL__N_112print_stringEPKcP6Status+0x48>
     d32: a0 01        	ldy	#$1
     d34: b1 8a        	lda	($8a),y                 ; 0x8a <__rc31+0x5b>
     d36: 29 01        	and	#$1
     d38: f0 03        	beq	$d3d <_ZN12_GLOBAL__N_112print_stringEPKcP6Status+0x78>
     d3a: 4c 9b 0d     	jmp	$d9b <_ZN12_GLOBAL__N_112print_stringEPKcP6Status+0xd6>
     d3d: a5 8a        	lda	$8a                     ; 0x8a <__rc31+0x5b>
     d3f: 18           	clc
     d40: 69 0b        	adc	#$b
     d42: 85 14        	sta	$14                     ; 0x14 <__rc4>
     d44: a5 8b        	lda	$8b                     ; 0x8b <__rc31+0x5c>
     d46: 69 00        	adc	#$0
     d48: 85 15        	sta	$15                     ; 0x15 <__rc5>
     d4a: 84 12        	sty	$12                     ; 0x12 <__rc2>
     d4c: a0 0b        	ldy	#$b
     d4e: b1 8a        	lda	($8a),y                 ; 0x8a <__rc31+0x5b>
     d50: 85 13        	sta	$13                     ; 0x13 <__rc3>
     d52: a4 12        	ldy	$12                     ; 0x12 <__rc2>
     d54: b1 14        	lda	($14),y                 ; 0x14 <__rc4>
     d56: 85 12        	sta	$12                     ; 0x12 <__rc2>
     d58: a6 8d        	ldx	$8d                     ; 0x8d <__rc31+0x5e>
     d5a: e4 12        	cpx	$12                     ; 0x12 <__rc2>
     d5c: d0 08        	bne	$d66 <_ZN12_GLOBAL__N_112print_stringEPKcP6Status+0xa1>
     d5e: a6 8c        	ldx	$8c                     ; 0x8c <__rc31+0x5d>
     d60: e4 13        	cpx	$13                     ; 0x13 <__rc3>
     d62: 90 06        	bcc	$d6a <_ZN12_GLOBAL__N_112print_stringEPKcP6Status+0xa5>
     d64: 80 35        	bra	$d9b <_ZN12_GLOBAL__N_112print_stringEPKcP6Status+0xd6>
     d66: e4 12        	cpx	$12                     ; 0x12 <__rc2>
     d68: b0 31        	bcs	$d9b <_ZN12_GLOBAL__N_112print_stringEPKcP6Status+0xd6>
     d6a: 38           	sec
     d6b: a5 8c        	lda	$8c                     ; 0x8c <__rc31+0x5d>
     d6d: e5 13        	sbc	$13                     ; 0x13 <__rc3>
     d6f: a8           	tay
     d70: a5 8d        	lda	$8d                     ; 0x8d <__rc31+0x5e>
     d72: e5 12        	sbc	$12                     ; 0x12 <__rc2>
     d74: 85 8f        	sta	$8f                     ; 0x8f <__rc31+0x60>
     d76: a2 20        	ldx	#$20
     d78: 86 90        	stx	$90                     ; 0x90 <__rc31+0x61>
     d7a: a6 8a        	ldx	$8a                     ; 0x8a <__rc31+0x5b>
     d7c: 86 12        	stx	$12                     ; 0x12 <__rc2>
     d7e: a6 8b        	ldx	$8b                     ; 0x8b <__rc31+0x5c>
     d80: 86 13        	stx	$13                     ; 0x13 <__rc3>
     d82: 84 8e        	sty	$8e                     ; 0x8e <__rc31+0x5f>
     d84: a5 90        	lda	$90                     ; 0x90 <__rc31+0x61>
     d86: 20 ee 0b     	jsr	$bee <_ZN12_GLOBAL__N_13putEcP6Status>
     d89: a6 8f        	ldx	$8f                     ; 0x8f <__rc31+0x60>
     d8b: e6 8e        	inc	$8e                     ; 0x8e <__rc31+0x5f>
     d8d: d0 01        	bne	$d90 <_ZN12_GLOBAL__N_112print_stringEPKcP6Status+0xcb>
     d8f: e8           	inx
     d90: 86 8f        	stx	$8f                     ; 0x8f <__rc31+0x60>
     d92: a4 8e        	ldy	$8e                     ; 0x8e <__rc31+0x5f>
     d94: 8a           	txa
     d95: d0 e3        	bne	$d7a <_ZN12_GLOBAL__N_112print_stringEPKcP6Status+0xb5>
     d97: a5 8e        	lda	$8e                     ; 0x8e <__rc31+0x5f>
     d99: d0 df        	bne	$d7a <_ZN12_GLOBAL__N_112print_stringEPKcP6Status+0xb5>
     d9b: a5 8d        	lda	$8d                     ; 0x8d <__rc31+0x5e>
     d9d: d0 04        	bne	$da3 <_ZN12_GLOBAL__N_112print_stringEPKcP6Status+0xde>
     d9f: a5 8c        	lda	$8c                     ; 0x8c <__rc31+0x5d>
     da1: f0 25        	beq	$dc8 <_ZN12_GLOBAL__N_112print_stringEPKcP6Status+0x103>
     da3: a2 ff        	ldx	#$ff
     da5: c6 8c        	dec	$8c                     ; 0x8c <__rc31+0x5d>
     da7: e4 8c        	cpx	$8c                     ; 0x8c <__rc31+0x5d>
     da9: d0 02        	bne	$dad <_ZN12_GLOBAL__N_112print_stringEPKcP6Status+0xe8>
     dab: c6 8d        	dec	$8d                     ; 0x8d <__rc31+0x5e>
     dad: b2 88        	lda	($88)                   ; 0x88 <__rc31+0x59>
     daf: e6 88        	inc	$88                     ; 0x88 <__rc31+0x59>
     db1: d0 02        	bne	$db5 <_ZN12_GLOBAL__N_112print_stringEPKcP6Status+0xf0>
     db3: e6 89        	inc	$89                     ; 0x89 <__rc31+0x5a>
     db5: a6 8a        	ldx	$8a                     ; 0x8a <__rc31+0x5b>
     db7: 86 12        	stx	$12                     ; 0x12 <__rc2>
     db9: a6 8b        	ldx	$8b                     ; 0x8b <__rc31+0x5c>
     dbb: 86 13        	stx	$13                     ; 0x13 <__rc3>
     dbd: 20 ee 0b     	jsr	$bee <_ZN12_GLOBAL__N_13putEcP6Status>
     dc0: a5 8d        	lda	$8d                     ; 0x8d <__rc31+0x5e>
     dc2: d0 df        	bne	$da3 <_ZN12_GLOBAL__N_112print_stringEPKcP6Status+0xde>
     dc4: a5 8c        	lda	$8c                     ; 0x8c <__rc31+0x5d>
     dc6: d0 db        	bne	$da3 <_ZN12_GLOBAL__N_112print_stringEPKcP6Status+0xde>
     dc8: 60           	rts
     dc9: a6 12        	ldx	$12                     ; 0x12 <__rc2>
     dcb: 86 8c        	stx	$8c                     ; 0x8c <__rc31+0x5d>
     dcd: a6 13        	ldx	$13                     ; 0x13 <__rc3>
     dcf: 86 8d        	stx	$8d                     ; 0x8d <__rc31+0x5e>
     dd1: 4c 32 0d     	jmp	$d32 <_ZN12_GLOBAL__N_112print_stringEPKcP6Status+0x6d>

00000dd4 <printf>:
     dd4: a6 12        	ldx	$12                     ; 0x12 <__rc2>
     dd6: 86 3c        	stx	$3c                     ; 0x3c <__rc31+0xd>
     dd8: a6 13        	ldx	$13                     ; 0x13 <__rc3>
     dda: 86 3d        	stx	$3d                     ; 0x3d <__rc31+0xe>
     ddc: 18           	clc
     ddd: a6 10        	ldx	$10                     ; 0x10 <__rc0>
     ddf: a4 11        	ldy	$11                     ; 0x11 <__rc1>
     de1: 86 7d        	stx	$7d                     ; 0x7d <__rc31+0x4e>
     de3: 84 7e        	sty	$7e                     ; 0x7e <__rc31+0x4f>
     de5: a6 7d        	ldx	$7d                     ; 0x7d <__rc31+0x4e>
     de7: a4 7e        	ldy	$7e                     ; 0x7e <__rc31+0x4f>
     de9: 86 68        	stx	$68                     ; 0x68 <__rc31+0x39>
     deb: 84 69        	sty	$69                     ; 0x69 <__rc31+0x3a>
     ded: a2 ff        	ldx	#$ff
     def: 86 6d        	stx	$6d                     ; 0x6d <__rc31+0x3e>
     df1: 86 6e        	stx	$6e                     ; 0x6e <__rc31+0x3f>
     df3: 64 6f        	stz	$6f                     ; 0x6f <__rc31+0x40>
     df5: 64 70        	stz	$70                     ; 0x70 <__rc31+0x41>
     df7: e8           	inx
     df8: 86 12        	stx	$12                     ; 0x12 <__rc2>
     dfa: a2 00        	ldx	#$0
     dfc: 86 13        	stx	$13                     ; 0x13 <__rc3>
     dfe: a6 12        	ldx	$12                     ; 0x12 <__rc2>
     e00: a4 13        	ldy	$13                     ; 0x13 <__rc3>
     e02: 86 73        	stx	$73                     ; 0x73 <__rc31+0x44>
     e04: 84 74        	sty	$74                     ; 0x74 <__rc31+0x45>
     e06: a2 02        	ldx	#$2
     e08: 86 79        	stx	$79                     ; 0x79 <__rc31+0x4a>
     e0a: 64 7a        	stz	$7a                     ; 0x7a <__rc31+0x4b>
     e0c: a6 68        	ldx	$68                     ; 0x68 <__rc31+0x39>
     e0e: a4 69        	ldy	$69                     ; 0x69 <__rc31+0x3a>
     e10: 86 7b        	stx	$7b                     ; 0x7b <__rc31+0x4c>
     e12: 84 7c        	sty	$7c                     ; 0x7c <__rc31+0x4d>
     e14: a2 5f        	ldx	#$5f
     e16: a0 00        	ldy	#$0
     e18: 86 12        	stx	$12                     ; 0x12 <__rc2>
     e1a: 84 13        	sty	$13                     ; 0x13 <__rc3>
     e1c: a0 01        	ldy	#$1
     e1e: a9 46        	lda	#$46
     e20: 18           	clc
     e21: 69 02        	adc	#$2
     e23: 85 86        	sta	$86                     ; 0x86 <__rc31+0x57>
     e25: a9 00        	lda	#$0
     e27: 69 00        	adc	#$0
     e29: 85 87        	sta	$87                     ; 0x87 <__rc31+0x58>
     e2b: e6 12        	inc	$12                     ; 0x12 <__rc2>
     e2d: d0 02        	bne	$e31 <printf+0x5d>
     e2f: e6 13        	inc	$13                     ; 0x13 <__rc3>
     e31: a6 12        	ldx	$12                     ; 0x12 <__rc2>
     e33: 86 82        	stx	$82                     ; 0x82 <__rc31+0x53>
     e35: a6 13        	ldx	$13                     ; 0x13 <__rc3>
     e37: 86 83        	stx	$83                     ; 0x83 <__rc31+0x54>
     e39: a6 3c        	ldx	$3c                     ; 0x3c <__rc31+0xd>
     e3b: 86 3e        	stx	$3e                     ; 0x3e <__rc31+0xf>
     e3d: a6 3d        	ldx	$3d                     ; 0x3d <__rc31+0xe>
     e3f: 86 3f        	stx	$3f                     ; 0x3f <__rc31+0x10>
     e41: b2 3c        	lda	($3c)                   ; 0x3c <__rc31+0xd>
     e43: c9 25        	cmp	#$25
     e45: f0 26        	beq	$e6d <printf+0x99>
     e47: a2 00        	ldx	#$0
     e49: c9 00        	cmp	#$0
     e4b: d0 03        	bne	$e50 <printf+0x7c>
     e4d: 4c 0d 1b     	jmp	$1b0d <printf+0xd39>
     e50: 84 3c        	sty	$3c                     ; 0x3c <__rc31+0xd>
     e52: 20 0e 1b     	jsr	$1b0e <putchar>
     e55: a4 3c        	ldy	$3c                     ; 0x3c <__rc31+0xd>
     e57: e6 3e        	inc	$3e                     ; 0x3e <__rc31+0xf>
     e59: d0 02        	bne	$e5d <printf+0x89>
     e5b: e6 3f        	inc	$3f                     ; 0x3f <__rc31+0x10>
     e5d: e6 6f        	inc	$6f                     ; 0x6f <__rc31+0x40>
     e5f: d0 02        	bne	$e63 <printf+0x8f>
     e61: e6 70        	inc	$70                     ; 0x70 <__rc31+0x41>
     e63: a6 3e        	ldx	$3e                     ; 0x3e <__rc31+0xf>
     e65: 86 3c        	stx	$3c                     ; 0x3c <__rc31+0xd>
     e67: a6 3f        	ldx	$3f                     ; 0x3f <__rc31+0x10>
     e69: 86 3d        	stx	$3d                     ; 0x3d <__rc31+0xe>
     e6b: 80 cc        	bra	$e39 <printf+0x65>
     e6d: a6 3c        	ldx	$3c                     ; 0x3c <__rc31+0xd>
     e6f: 86 12        	stx	$12                     ; 0x12 <__rc2>
     e71: a6 3d        	ldx	$3d                     ; 0x3d <__rc31+0xe>
     e73: 86 13        	stx	$13                     ; 0x13 <__rc3>
     e75: e6 12        	inc	$12                     ; 0x12 <__rc2>
     e77: d0 02        	bne	$e7b <printf+0xa7>
     e79: e6 13        	inc	$13                     ; 0x13 <__rc3>
     e7b: b1 3e        	lda	($3e),y                 ; 0x3e <__rc31+0xf>
     e7d: c9 25        	cmp	#$25
     e7f: d0 18        	bne	$e99 <printf+0xc5>
     e81: a2 01        	ldx	#$1
     e83: 86 13        	stx	$13                     ; 0x13 <__rc3>
     e85: a5 6f        	lda	$6f                     ; 0x6f <__rc31+0x40>
     e87: a4 70        	ldy	$70                     ; 0x70 <__rc31+0x41>
     e89: c4 6e        	cpy	$6e                     ; 0x6e <__rc31+0x3f>
     e8b: f0 03        	beq	$e90 <printf+0xbc>
     e8d: 4c a9 0f     	jmp	$fa9 <printf+0x1d5>
     e90: a6 6d        	ldx	$6d                     ; 0x6d <__rc31+0x3e>
     e92: 86 12        	stx	$12                     ; 0x12 <__rc2>
     e94: c5 12        	cmp	$12                     ; 0x12 <__rc2>
     e96: 4c ab 0f     	jmp	$fab <printf+0x1d7>
     e99: a2 01        	ldx	#$1
     e9b: 86 15        	stx	$15                     ; 0x15 <__rc5>
     e9d: 64 6b        	stz	$6b                     ; 0x6b <__rc31+0x3c>
     e9f: 64 6c        	stz	$6c                     ; 0x6c <__rc31+0x3d>
     ea1: 64 6a        	stz	$6a                     ; 0x6a <__rc31+0x3b>
     ea3: 64 75        	stz	$75                     ; 0x75 <__rc31+0x46>
     ea5: 64 76        	stz	$76                     ; 0x76 <__rc31+0x47>
     ea7: a2 ff        	ldx	#$ff
     ea9: 86 77        	stx	$77                     ; 0x77 <__rc31+0x48>
     eab: 86 78        	stx	$78                     ; 0x78 <__rc31+0x49>
     ead: 64 3a        	stz	$3a                     ; 0x3a <__rc31+0xb>
     eaf: 80 33        	bra	$ee4 <printf+0x110>
     eb1: a2 02        	ldx	#$2
     eb3: 80 15        	bra	$eca <printf+0xf6>
     eb5: e0 20        	cpx	#$20
     eb7: f0 15        	beq	$ece <printf+0xfa>
     eb9: 86 16        	stx	$16                     ; 0x16 <__rc6>
     ebb: e0 23        	cpx	#$23
     ebd: f0 03        	beq	$ec2 <printf+0xee>
     ebf: 4c 41 0f     	jmp	$f41 <printf+0x16d>
     ec2: a5 3a        	lda	$3a                     ; 0x3a <__rc31+0xb>
     ec4: a2 04        	ldx	#$4
     ec6: 80 02        	bra	$eca <printf+0xf6>
     ec8: a2 10        	ldx	#$10
     eca: 86 14        	stx	$14                     ; 0x14 <__rc4>
     ecc: 80 06        	bra	$ed4 <printf+0x100>
     ece: a2 08        	ldx	#$8
     ed0: 86 14        	stx	$14                     ; 0x14 <__rc4>
     ed2: a5 3a        	lda	$3a                     ; 0x3a <__rc31+0xb>
     ed4: 05 14        	ora	$14                     ; 0x14 <__rc4>
     ed6: 85 3a        	sta	$3a                     ; 0x3a <__rc31+0xb>
     ed8: 85 6b        	sta	$6b                     ; 0x6b <__rc31+0x3c>
     eda: a2 00        	ldx	#$0
     edc: 86 6c        	stx	$6c                     ; 0x6c <__rc31+0x3d>
     ede: e6 12        	inc	$12                     ; 0x12 <__rc2>
     ee0: d0 02        	bne	$ee4 <printf+0x110>
     ee2: e6 13        	inc	$13                     ; 0x13 <__rc3>
     ee4: b2 12        	lda	($12)                   ; 0x12 <__rc2>
     ee6: 18           	clc
     ee7: aa           	tax
     ee8: 69 d6        	adc	#$d6
     eea: c9 07        	cmp	#$7
     eec: b0 c7        	bcs	$eb5 <printf+0xe1>
     eee: 86 16        	stx	$16                     ; 0x16 <__rc6>
     ef0: 0a           	asl
     ef1: aa           	tax
     ef2: a0 01        	ldy	#$1
     ef4: 84 14        	sty	$14                     ; 0x14 <__rc4>
     ef6: a5 3a        	lda	$3a                     ; 0x3a <__rc31+0xb>
     ef8: 7c 5d 1d     	jmp	($1d5d,x)               ; 0x1d5d <__heap_default_limit+0xd5d>
     efb: a5 7b        	lda	$7b                     ; 0x7b <__rc31+0x4c>
     efd: a6 7c        	ldx	$7c                     ; 0x7c <__rc31+0x4d>
     eff: 85 16        	sta	$16                     ; 0x16 <__rc6>
     f01: 86 17        	stx	$17                     ; 0x17 <__rc7>
     f03: 18           	clc
     f04: 69 02        	adc	#$2
     f06: a8           	tay
     f07: 8a           	txa
     f08: 69 00        	adc	#$0
     f0a: 84 7b        	sty	$7b                     ; 0x7b <__rc31+0x4c>
     f0c: 85 7c        	sta	$7c                     ; 0x7c <__rc31+0x4d>
     f0e: b2 16        	lda	($16)                   ; 0x16 <__rc6>
     f10: 85 15        	sta	$15                     ; 0x15 <__rc5>
     f12: a0 01        	ldy	#$1
     f14: b1 16        	lda	($16),y                 ; 0x16 <__rc6>
     f16: 85 14        	sta	$14                     ; 0x14 <__rc4>
     f18: 10 15        	bpl	$f2f <printf+0x15b>
     f1a: a5 3a        	lda	$3a                     ; 0x3a <__rc31+0xb>
     f1c: 09 01        	ora	#$1
     f1e: 85 3a        	sta	$3a                     ; 0x3a <__rc31+0xb>
     f20: 85 6b        	sta	$6b                     ; 0x6b <__rc31+0x3c>
     f22: a2 00        	ldx	#$0
     f24: 86 6c        	stx	$6c                     ; 0x6c <__rc31+0x3d>
     f26: 8a           	txa
     f27: 38           	sec
     f28: e5 15        	sbc	$15                     ; 0x15 <__rc5>
     f2a: 85 15        	sta	$15                     ; 0x15 <__rc5>
     f2c: 8a           	txa
     f2d: e5 14        	sbc	$14                     ; 0x14 <__rc4>
     f2f: a6 15        	ldx	$15                     ; 0x15 <__rc5>
     f31: 86 75        	stx	$75                     ; 0x75 <__rc31+0x46>
     f33: 85 76        	sta	$76                     ; 0x76 <__rc31+0x47>
     f35: e6 12        	inc	$12                     ; 0x12 <__rc2>
     f37: f0 03        	beq	$f3c <printf+0x168>
     f39: 4c 0c 10     	jmp	$100c <printf+0x238>
     f3c: e6 13        	inc	$13                     ; 0x13 <__rc3>
     f3e: 4c 0c 10     	jmp	$100c <printf+0x238>
     f41: 18           	clc
     f42: a5 16        	lda	$16                     ; 0x16 <__rc6>
     f44: 69 d0        	adc	#$d0
     f46: c9 0a        	cmp	#$a
     f48: 90 03        	bcc	$f4d <printf+0x179>
     f4a: 4c fe 0f     	jmp	$ffe <printf+0x22a>
     f4d: a6 16        	ldx	$16                     ; 0x16 <__rc6>
     f4f: 86 14        	stx	$14                     ; 0x14 <__rc4>
     f51: 64 16        	stz	$16                     ; 0x16 <__rc6>
     f53: 64 15        	stz	$15                     ; 0x15 <__rc5>
     f55: 64 17        	stz	$17                     ; 0x17 <__rc7>
     f57: a0 01        	ldy	#$1
     f59: a2 00        	ldx	#$0
     f5b: 06 16        	asl	$16                     ; 0x16 <__rc6>
     f5d: 26 17        	rol	$17                     ; 0x17 <__rc7>
     f5f: a5 16        	lda	$16                     ; 0x16 <__rc6>
     f61: 0a           	asl
     f62: 85 18        	sta	$18                     ; 0x18 <__rc8>
     f64: a5 17        	lda	$17                     ; 0x17 <__rc7>
     f66: 2a           	rol
     f67: 06 18        	asl	$18                     ; 0x18 <__rc8>
     f69: 2a           	rol
     f6a: 85 19        	sta	$19                     ; 0x19 <__rc9>
     f6c: a5 18        	lda	$18                     ; 0x18 <__rc8>
     f6e: 18           	clc
     f6f: 65 16        	adc	$16                     ; 0x16 <__rc6>
     f71: 85 16        	sta	$16                     ; 0x16 <__rc6>
     f73: a5 19        	lda	$19                     ; 0x19 <__rc9>
     f75: 65 17        	adc	$17                     ; 0x17 <__rc7>
     f77: 85 17        	sta	$17                     ; 0x17 <__rc7>
     f79: a5 16        	lda	$16                     ; 0x16 <__rc6>
     f7b: 18           	clc
     f7c: 65 14        	adc	$14                     ; 0x14 <__rc4>
     f7e: 85 14        	sta	$14                     ; 0x14 <__rc4>
     f80: a5 17        	lda	$17                     ; 0x17 <__rc7>
     f82: 65 15        	adc	$15                     ; 0x15 <__rc5>
     f84: 85 15        	sta	$15                     ; 0x15 <__rc5>
     f86: 18           	clc
     f87: a5 14        	lda	$14                     ; 0x14 <__rc4>
     f89: 69 d0        	adc	#$d0
     f8b: 85 16        	sta	$16                     ; 0x16 <__rc6>
     f8d: a5 15        	lda	$15                     ; 0x15 <__rc5>
     f8f: 69 ff        	adc	#$ff
     f91: 85 17        	sta	$17                     ; 0x17 <__rc7>
     f93: b1 12        	lda	($12),y                 ; 0x12 <__rc2>
     f95: 85 14        	sta	$14                     ; 0x14 <__rc4>
     f97: 18           	clc
     f98: 69 d0        	adc	#$d0
     f9a: e6 12        	inc	$12                     ; 0x12 <__rc2>
     f9c: d0 02        	bne	$fa0 <printf+0x1cc>
     f9e: e6 13        	inc	$13                     ; 0x13 <__rc3>
     fa0: c9 0a        	cmp	#$a
     fa2: 64 15        	stz	$15                     ; 0x15 <__rc5>
     fa4: 90 b5        	bcc	$f5b <printf+0x187>
     fa6: 4c 04 10     	jmp	$1004 <printf+0x230>
     fa9: c4 6e        	cpy	$6e                     ; 0x6e <__rc31+0x3f>
     fab: 84 16        	sty	$16                     ; 0x16 <__rc6>
     fad: a4 13        	ldy	$13                     ; 0x13 <__rc3>
     faf: b0 37        	bcs	$fe8 <printf+0x214>
     fb1: a2 01        	ldx	#$1
     fb3: 86 14        	stx	$14                     ; 0x14 <__rc4>
     fb5: a6 7a        	ldx	$7a                     ; 0x7a <__rc31+0x4b>
     fb7: a0 00        	ldy	#$0
     fb9: 84 12        	sty	$12                     ; 0x12 <__rc2>
     fbb: a0 00        	ldy	#$0
     fbd: 84 13        	sty	$13                     ; 0x13 <__rc3>
     fbf: e4 13        	cpx	$13                     ; 0x13 <__rc3>
     fc1: d0 19        	bne	$fdc <printf+0x208>
     fc3: a6 79        	ldx	$79                     ; 0x79 <__rc31+0x4a>
     fc5: e4 12        	cpx	$12                     ; 0x12 <__rc2>
     fc7: d0 13        	bne	$fdc <printf+0x208>
     fc9: a4 14        	ldy	$14                     ; 0x14 <__rc4>
     fcb: 18           	clc
     fcc: 65 73        	adc	$73                     ; 0x73 <__rc31+0x44>
     fce: 85 12        	sta	$12                     ; 0x12 <__rc2>
     fd0: a5 16        	lda	$16                     ; 0x16 <__rc6>
     fd2: 65 74        	adc	$74                     ; 0x74 <__rc31+0x45>
     fd4: 85 13        	sta	$13                     ; 0x13 <__rc3>
     fd6: a9 25        	lda	#$25
     fd8: 92 12        	sta	($12)                   ; 0x12 <__rc2>
     fda: 80 0c        	bra	$fe8 <printf+0x214>
     fdc: a2 01        	ldx	#$1
     fde: 86 3c        	stx	$3c                     ; 0x3c <__rc31+0xd>
     fe0: ca           	dex
     fe1: a9 25        	lda	#$25
     fe3: 20 0e 1b     	jsr	$1b0e <putchar>
     fe6: a4 3c        	ldy	$3c                     ; 0x3c <__rc31+0xd>
     fe8: e6 6f        	inc	$6f                     ; 0x6f <__rc31+0x40>
     fea: d0 02        	bne	$fee <printf+0x21a>
     fec: e6 70        	inc	$70                     ; 0x70 <__rc31+0x41>
     fee: a5 3e        	lda	$3e                     ; 0x3e <__rc31+0xf>
     ff0: 18           	clc
     ff1: 69 02        	adc	#$2
     ff3: 85 3c        	sta	$3c                     ; 0x3c <__rc31+0xd>
     ff5: a5 3f        	lda	$3f                     ; 0x3f <__rc31+0x10>
     ff7: 69 00        	adc	#$0
     ff9: 85 3d        	sta	$3d                     ; 0x3d <__rc31+0xe>
     ffb: 4c 39 0e     	jmp	$e39 <printf+0x65>
     ffe: 64 16        	stz	$16                     ; 0x16 <__rc6>
    1000: 64 17        	stz	$17                     ; 0x17 <__rc7>
    1002: a4 15        	ldy	$15                     ; 0x15 <__rc5>
    1004: a6 16        	ldx	$16                     ; 0x16 <__rc6>
    1006: 86 75        	stx	$75                     ; 0x75 <__rc31+0x46>
    1008: a5 17        	lda	$17                     ; 0x17 <__rc7>
    100a: 85 76        	sta	$76                     ; 0x76 <__rc31+0x47>
    100c: 86 1a        	stx	$1a                     ; 0x1a <__rc10>
    100e: 85 1e        	sta	$1e                     ; 0x1e <__rc14>
    1010: b2 12        	lda	($12)                   ; 0x12 <__rc2>
    1012: a2 ff        	ldx	#$ff
    1014: c9 2e        	cmp	#$2e
    1016: d0 39        	bne	$1051 <printf+0x27d>
    1018: b1 12        	lda	($12),y                 ; 0x12 <__rc2>
    101a: c9 2a        	cmp	#$2a
    101c: d0 38        	bne	$1056 <printf+0x282>
    101e: a5 7b        	lda	$7b                     ; 0x7b <__rc31+0x4c>
    1020: a6 7c        	ldx	$7c                     ; 0x7c <__rc31+0x4d>
    1022: 85 14        	sta	$14                     ; 0x14 <__rc4>
    1024: 86 15        	stx	$15                     ; 0x15 <__rc5>
    1026: 18           	clc
    1027: 69 02        	adc	#$2
    1029: 85 16        	sta	$16                     ; 0x16 <__rc6>
    102b: 8a           	txa
    102c: 69 00        	adc	#$0
    102e: a6 16        	ldx	$16                     ; 0x16 <__rc6>
    1030: 86 7b        	stx	$7b                     ; 0x7b <__rc31+0x4c>
    1032: 85 7c        	sta	$7c                     ; 0x7c <__rc31+0x4d>
    1034: a5 12        	lda	$12                     ; 0x12 <__rc2>
    1036: 18           	clc
    1037: 69 02        	adc	#$2
    1039: 85 12        	sta	$12                     ; 0x12 <__rc2>
    103b: a5 13        	lda	$13                     ; 0x13 <__rc3>
    103d: 69 00        	adc	#$0
    103f: 85 13        	sta	$13                     ; 0x13 <__rc3>
    1041: b2 14        	lda	($14)                   ; 0x14 <__rc4>
    1043: aa           	tax
    1044: b1 14        	lda	($14),y                 ; 0x14 <__rc4>
    1046: 86 18        	stx	$18                     ; 0x18 <__rc8>
    1048: 86 77        	stx	$77                     ; 0x77 <__rc31+0x48>
    104a: 85 19        	sta	$19                     ; 0x19 <__rc9>
    104c: 85 78        	sta	$78                     ; 0x78 <__rc31+0x49>
    104e: 4c 14 11     	jmp	$1114 <printf+0x340>
    1051: 86 18        	stx	$18                     ; 0x18 <__rc8>
    1053: 4c 24 11     	jmp	$1124 <printf+0x350>
    1056: 85 17        	sta	$17                     ; 0x17 <__rc7>
    1058: 18           	clc
    1059: 69 d0        	adc	#$d0
    105b: c9 0a        	cmp	#$a
    105d: 90 03        	bcc	$1062 <printf+0x28e>
    105f: 4c 06 11     	jmp	$1106 <printf+0x332>
    1062: 64 16        	stz	$16                     ; 0x16 <__rc6>
    1064: a2 01        	ldx	#$1
    1066: 64 18        	stz	$18                     ; 0x18 <__rc8>
    1068: 64 19        	stz	$19                     ; 0x19 <__rc9>
    106a: 84 1b        	sty	$1b                     ; 0x1b <__rc11>
    106c: 64 1c        	stz	$1c                     ; 0x1c <__rc12>
    106e: 18           	clc
    106f: a0 01        	ldy	#$1
    1071: b0 02        	bcs	$1075 <printf+0x2a1>
    1073: a0 00        	ldy	#$0
    1075: 84 1d        	sty	$1d                     ; 0x1d <__rc13>
    1077: a4 1c        	ldy	$1c                     ; 0x1c <__rc12>
    1079: 84 14        	sty	$14                     ; 0x14 <__rc4>
    107b: 86 15        	stx	$15                     ; 0x15 <__rc5>
    107d: 06 18        	asl	$18                     ; 0x18 <__rc8>
    107f: 26 19        	rol	$19                     ; 0x19 <__rc9>
    1081: a5 18        	lda	$18                     ; 0x18 <__rc8>
    1083: 0a           	asl
    1084: a8           	tay
    1085: a5 19        	lda	$19                     ; 0x19 <__rc9>
    1087: 2a           	rol
    1088: 84 1f        	sty	$1f                     ; 0x1f <__rc15>
    108a: 06 1f        	asl	$1f                     ; 0x1f <__rc15>
    108c: 2a           	rol
    108d: 85 22        	sta	$22                     ; 0x22 <__rc18>
    108f: a5 1f        	lda	$1f                     ; 0x1f <__rc15>
    1091: a4 1d        	ldy	$1d                     ; 0x1d <__rc13>
    1093: c0 01        	cpy	#$1
    1095: 65 18        	adc	$18                     ; 0x18 <__rc8>
    1097: 85 18        	sta	$18                     ; 0x18 <__rc8>
    1099: a5 22        	lda	$22                     ; 0x22 <__rc18>
    109b: 65 19        	adc	$19                     ; 0x19 <__rc9>
    109d: 85 19        	sta	$19                     ; 0x19 <__rc9>
    109f: a5 18        	lda	$18                     ; 0x18 <__rc8>
    10a1: a4 1d        	ldy	$1d                     ; 0x1d <__rc13>
    10a3: c0 01        	cpy	#$1
    10a5: 65 17        	adc	$17                     ; 0x17 <__rc7>
    10a7: 85 17        	sta	$17                     ; 0x17 <__rc7>
    10a9: a5 19        	lda	$19                     ; 0x19 <__rc9>
    10ab: 65 16        	adc	$16                     ; 0x16 <__rc6>
    10ad: 85 16        	sta	$16                     ; 0x16 <__rc6>
    10af: 18           	clc
    10b0: a5 17        	lda	$17                     ; 0x17 <__rc7>
    10b2: 69 d0        	adc	#$d0
    10b4: 85 18        	sta	$18                     ; 0x18 <__rc8>
    10b6: a5 16        	lda	$16                     ; 0x16 <__rc6>
    10b8: 69 ff        	adc	#$ff
    10ba: 85 19        	sta	$19                     ; 0x19 <__rc9>
    10bc: e8           	inx
    10bd: d0 02        	bne	$10c1 <printf+0x2ed>
    10bf: e6 1c        	inc	$1c                     ; 0x1c <__rc12>
    10c1: a5 12        	lda	$12                     ; 0x12 <__rc2>
    10c3: a4 1d        	ldy	$1d                     ; 0x1d <__rc13>
    10c5: c0 01        	cpy	#$1
    10c7: 65 15        	adc	$15                     ; 0x15 <__rc5>
    10c9: a8           	tay
    10ca: a5 13        	lda	$13                     ; 0x13 <__rc3>
    10cc: 65 14        	adc	$14                     ; 0x14 <__rc4>
    10ce: 84 16        	sty	$16                     ; 0x16 <__rc6>
    10d0: 85 17        	sta	$17                     ; 0x17 <__rc7>
    10d2: a4 1b        	ldy	$1b                     ; 0x1b <__rc11>
    10d4: b1 16        	lda	($16),y                 ; 0x16 <__rc6>
    10d6: 85 17        	sta	$17                     ; 0x17 <__rc7>
    10d8: 18           	clc
    10d9: 69 d0        	adc	#$d0
    10db: c9 0a        	cmp	#$a
    10dd: 64 16        	stz	$16                     ; 0x16 <__rc6>
    10df: b0 03        	bcs	$10e4 <printf+0x310>
    10e1: 4c 77 10     	jmp	$1077 <printf+0x2a3>
    10e4: a5 12        	lda	$12                     ; 0x12 <__rc2>
    10e6: a6 1d        	ldx	$1d                     ; 0x1d <__rc13>
    10e8: e0 01        	cpx	#$1
    10ea: 65 15        	adc	$15                     ; 0x15 <__rc5>
    10ec: 85 12        	sta	$12                     ; 0x12 <__rc2>
    10ee: a5 13        	lda	$13                     ; 0x13 <__rc3>
    10f0: 65 14        	adc	$14                     ; 0x14 <__rc4>
    10f2: 85 13        	sta	$13                     ; 0x13 <__rc3>
    10f4: e6 12        	inc	$12                     ; 0x12 <__rc2>
    10f6: d0 02        	bne	$10fa <printf+0x326>
    10f8: e6 13        	inc	$13                     ; 0x13 <__rc3>
    10fa: a6 18        	ldx	$18                     ; 0x18 <__rc8>
    10fc: 86 77        	stx	$77                     ; 0x77 <__rc31+0x48>
    10fe: a6 19        	ldx	$19                     ; 0x19 <__rc9>
    1100: 86 78        	stx	$78                     ; 0x78 <__rc31+0x49>
    1102: a4 1b        	ldy	$1b                     ; 0x1b <__rc11>
    1104: 80 0e        	bra	$1114 <printf+0x340>
    1106: e6 12        	inc	$12                     ; 0x12 <__rc2>
    1108: d0 02        	bne	$110c <printf+0x338>
    110a: e6 13        	inc	$13                     ; 0x13 <__rc3>
    110c: 64 18        	stz	$18                     ; 0x18 <__rc8>
    110e: 64 77        	stz	$77                     ; 0x77 <__rc31+0x48>
    1110: 64 78        	stz	$78                     ; 0x78 <__rc31+0x49>
    1112: 64 19        	stz	$19                     ; 0x19 <__rc9>
    1114: a5 3a        	lda	$3a                     ; 0x3a <__rc31+0xb>
    1116: 29 ef        	and	#$ef
    1118: 85 3a        	sta	$3a                     ; 0x3a <__rc31+0xb>
    111a: 85 6b        	sta	$6b                     ; 0x6b <__rc31+0x3c>
    111c: a2 00        	ldx	#$0
    111e: 86 6c        	stx	$6c                     ; 0x6c <__rc31+0x3d>
    1120: b2 12        	lda	($12)                   ; 0x12 <__rc2>
    1122: a6 19        	ldx	$19                     ; 0x19 <__rc9>
    1124: 86 15        	stx	$15                     ; 0x15 <__rc5>
    1126: a6 12        	ldx	$12                     ; 0x12 <__rc2>
    1128: 86 3c        	stx	$3c                     ; 0x3c <__rc31+0xd>
    112a: a6 13        	ldx	$13                     ; 0x13 <__rc3>
    112c: 86 3d        	stx	$3d                     ; 0x3d <__rc31+0xe>
    112e: e6 3c        	inc	$3c                     ; 0x3c <__rc31+0xd>
    1130: d0 02        	bne	$1134 <printf+0x360>
    1132: e6 3d        	inc	$3d                     ; 0x3d <__rc31+0xe>
    1134: 85 14        	sta	$14                     ; 0x14 <__rc4>
    1136: 38           	sec
    1137: e9 6c        	sbc	#$6c
    1139: 50 02        	bvc	$113d <printf+0x369>
    113b: 49 80        	eor	#$80
    113d: aa           	tax
    113e: 10 21        	bpl	$1161 <printf+0x38d>
    1140: a6 14        	ldx	$14                     ; 0x14 <__rc4>
    1142: e0 4c        	cpx	#$4c
    1144: f0 37        	beq	$117d <printf+0x3a9>
    1146: e0 68        	cpx	#$68
    1148: d0 03        	bne	$114d <printf+0x379>
    114a: 4c f8 11     	jmp	$11f8 <printf+0x424>
    114d: a4 14        	ldy	$14                     ; 0x14 <__rc4>
    114f: a9 01        	lda	#$1
    1151: a2 08        	ldx	#$8
    1153: c0 6a        	cpy	#$6a
    1155: d0 22        	bne	$1179 <printf+0x3a5>
    1157: a4 3c        	ldy	$3c                     ; 0x3c <__rc31+0xd>
    1159: 84 12        	sty	$12                     ; 0x12 <__rc2>
    115b: a4 3d        	ldy	$3d                     ; 0x3d <__rc31+0xe>
    115d: 84 13        	sty	$13                     ; 0x13 <__rc3>
    115f: 80 52        	bra	$11b3 <printf+0x3df>
    1161: a6 14        	ldx	$14                     ; 0x14 <__rc4>
    1163: e0 6c        	cpx	#$6c
    1165: f0 31        	beq	$1198 <printf+0x3c4>
    1167: e0 74        	cpx	#$74
    1169: f0 1e        	beq	$1189 <printf+0x3b5>
    116b: a9 01        	lda	#$1
    116d: e0 7a        	cpx	#$7a
    116f: d0 08        	bne	$1179 <printf+0x3a5>
    1171: a6 3c        	ldx	$3c                     ; 0x3c <__rc31+0xd>
    1173: 86 12        	stx	$12                     ; 0x12 <__rc2>
    1175: a6 3d        	ldx	$3d                     ; 0x3d <__rc31+0xe>
    1177: 86 13        	stx	$13                     ; 0x13 <__rc3>
    1179: a2 02        	ldx	#$2
    117b: 80 17        	bra	$1194 <printf+0x3c0>
    117d: a5 3a        	lda	$3a                     ; 0x3a <__rc31+0xb>
    117f: 09 40        	ora	#$40
    1181: 85 3a        	sta	$3a                     ; 0x3a <__rc31+0xb>
    1183: 85 6b        	sta	$6b                     ; 0x6b <__rc31+0x3c>
    1185: a2 00        	ldx	#$0
    1187: 86 6c        	stx	$6c                     ; 0x6c <__rc31+0x3d>
    1189: a6 3c        	ldx	$3c                     ; 0x3c <__rc31+0xd>
    118b: 86 12        	stx	$12                     ; 0x12 <__rc2>
    118d: a6 3d        	ldx	$3d                     ; 0x3d <__rc31+0xe>
    118f: 86 13        	stx	$13                     ; 0x13 <__rc3>
    1191: a2 02        	ldx	#$2
    1193: 98           	tya
    1194: a0 02        	ldy	#$2
    1196: 80 1d        	bra	$11b5 <printf+0x3e1>
    1198: b1 12        	lda	($12),y                 ; 0x12 <__rc2>
    119a: a2 04        	ldx	#$4
    119c: c9 6c        	cmp	#$6c
    119e: f0 03        	beq	$11a3 <printf+0x3cf>
    11a0: 4c 15 12     	jmp	$1215 <printf+0x441>
    11a3: a5 12        	lda	$12                     ; 0x12 <__rc2>
    11a5: 18           	clc
    11a6: 69 02        	adc	#$2
    11a8: 85 12        	sta	$12                     ; 0x12 <__rc2>
    11aa: a5 13        	lda	$13                     ; 0x13 <__rc3>
    11ac: 69 00        	adc	#$0
    11ae: 85 13        	sta	$13                     ; 0x13 <__rc3>
    11b0: a2 08        	ldx	#$8
    11b2: 98           	tya
    11b3: a0 08        	ldy	#$8
    11b5: 84 3b        	sty	$3b                     ; 0x3b <__rc31+0xc>
    11b7: a8           	tay
    11b8: b2 12        	lda	($12)                   ; 0x12 <__rc2>
    11ba: 5a           	phy
    11bb: a4 12        	ldy	$12                     ; 0x12 <__rc2>
    11bd: 84 3c        	sty	$3c                     ; 0x3c <__rc31+0xd>
    11bf: a4 13        	ldy	$13                     ; 0x13 <__rc3>
    11c1: 84 3d        	sty	$3d                     ; 0x3d <__rc31+0xe>
    11c3: 7a           	ply
    11c4: 86 44        	stx	$44                     ; 0x44 <__rc31+0x15>
    11c6: aa           	tax
    11c7: 18           	clc
    11c8: 69 9d        	adc	#$9d
    11ca: c9 16        	cmp	#$16
    11cc: b0 4c        	bcs	$121a <printf+0x446>
    11ce: 0a           	asl
    11cf: aa           	tax
    11d0: 7c 6b 1d     	jmp	($1d6b,x)               ; 0x1d6b <__heap_default_limit+0xd6b>
    11d3: a6 3c        	ldx	$3c                     ; 0x3c <__rc31+0xd>
    11d5: 86 80        	stx	$80                     ; 0x80 <__rc31+0x51>
    11d7: a6 3d        	ldx	$3d                     ; 0x3d <__rc31+0xe>
    11d9: 86 81        	stx	$81                     ; 0x81 <__rc31+0x52>
    11db: a6 15        	ldx	$15                     ; 0x15 <__rc5>
    11dd: 86 84        	stx	$84                     ; 0x84 <__rc31+0x55>
    11df: a6 18        	ldx	$18                     ; 0x18 <__rc8>
    11e1: 86 7f        	stx	$7f                     ; 0x7f <__rc31+0x50>
    11e3: a6 1e        	ldx	$1e                     ; 0x1e <__rc14>
    11e5: 86 85        	stx	$85                     ; 0x85 <__rc31+0x56>
    11e7: a6 1a        	ldx	$1a                     ; 0x1a <__rc10>
    11e9: 86 43        	stx	$43                     ; 0x43 <__rc31+0x14>
    11eb: a0 0a        	ldy	#$a
    11ed: a2 0a        	ldx	#$a
    11ef: 86 45        	stx	$45                     ; 0x45 <__rc31+0x16>
    11f1: 84 6a        	sty	$6a                     ; 0x6a <__rc31+0x3b>
    11f3: 64 42        	stz	$42                     ; 0x42 <__rc31+0x13>
    11f5: 4c 67 13     	jmp	$1367 <printf+0x593>
    11f8: b1 12        	lda	($12),y                 ; 0x12 <__rc2>
    11fa: a2 02        	ldx	#$2
    11fc: c9 68        	cmp	#$68
    11fe: d0 15        	bne	$1215 <printf+0x441>
    1200: a5 12        	lda	$12                     ; 0x12 <__rc2>
    1202: 18           	clc
    1203: 69 02        	adc	#$2
    1205: 85 12        	sta	$12                     ; 0x12 <__rc2>
    1207: a5 13        	lda	$13                     ; 0x13 <__rc3>
    1209: 69 00        	adc	#$0
    120b: 85 13        	sta	$13                     ; 0x13 <__rc3>
    120d: a2 01        	ldx	#$1
    120f: 86 3b        	stx	$3b                     ; 0x3b <__rc31+0xc>
    1211: e8           	inx
    1212: 4c b8 11     	jmp	$11b8 <printf+0x3e4>
    1215: 86 3b        	stx	$3b                     ; 0x3b <__rc31+0xc>
    1217: 4c c4 11     	jmp	$11c4 <printf+0x3f0>
    121a: e0 58        	cpx	#$58
    121c: f0 03        	beq	$1221 <printf+0x44d>
    121e: 4c c2 1a     	jmp	$1ac2 <printf+0xcee>
    1221: a6 3c        	ldx	$3c                     ; 0x3c <__rc31+0xd>
    1223: 86 80        	stx	$80                     ; 0x80 <__rc31+0x51>
    1225: a6 3d        	ldx	$3d                     ; 0x3d <__rc31+0xe>
    1227: 86 81        	stx	$81                     ; 0x81 <__rc31+0x52>
    1229: a6 15        	ldx	$15                     ; 0x15 <__rc5>
    122b: 86 84        	stx	$84                     ; 0x84 <__rc31+0x55>
    122d: a6 18        	ldx	$18                     ; 0x18 <__rc8>
    122f: 86 7f        	stx	$7f                     ; 0x7f <__rc31+0x50>
    1231: a6 1e        	ldx	$1e                     ; 0x1e <__rc14>
    1233: 86 85        	stx	$85                     ; 0x85 <__rc31+0x56>
    1235: a6 1a        	ldx	$1a                     ; 0x1a <__rc10>
    1237: 86 43        	stx	$43                     ; 0x43 <__rc31+0x14>
    1239: a2 10        	ldx	#$10
    123b: 86 6a        	stx	$6a                     ; 0x6a <__rc31+0x3b>
    123d: a9 00        	lda	#$0
    123f: 09 01        	ora	#$1
    1241: a6 3a        	ldx	$3a                     ; 0x3a <__rc31+0xb>
    1243: 80 49        	bra	$128e <printf+0x4ba>
    1245: a6 3c        	ldx	$3c                     ; 0x3c <__rc31+0xd>
    1247: 86 80        	stx	$80                     ; 0x80 <__rc31+0x51>
    1249: a6 3d        	ldx	$3d                     ; 0x3d <__rc31+0xe>
    124b: 86 81        	stx	$81                     ; 0x81 <__rc31+0x52>
    124d: a6 15        	ldx	$15                     ; 0x15 <__rc5>
    124f: 86 84        	stx	$84                     ; 0x84 <__rc31+0x55>
    1251: a6 18        	ldx	$18                     ; 0x18 <__rc8>
    1253: 86 7f        	stx	$7f                     ; 0x7f <__rc31+0x50>
    1255: a6 1e        	ldx	$1e                     ; 0x1e <__rc14>
    1257: 86 85        	stx	$85                     ; 0x85 <__rc31+0x56>
    1259: a6 1a        	ldx	$1a                     ; 0x1a <__rc10>
    125b: 86 43        	stx	$43                     ; 0x43 <__rc31+0x14>
    125d: a2 10        	ldx	#$10
    125f: 86 6a        	stx	$6a                     ; 0x6a <__rc31+0x3b>
    1261: a5 3a        	lda	$3a                     ; 0x3a <__rc31+0xb>
    1263: 09 84        	ora	#$84
    1265: 80 20        	bra	$1287 <printf+0x4b3>
    1267: a6 3c        	ldx	$3c                     ; 0x3c <__rc31+0xd>
    1269: 86 80        	stx	$80                     ; 0x80 <__rc31+0x51>
    126b: a6 3d        	ldx	$3d                     ; 0x3d <__rc31+0xe>
    126d: 86 81        	stx	$81                     ; 0x81 <__rc31+0x52>
    126f: a6 15        	ldx	$15                     ; 0x15 <__rc5>
    1271: 86 84        	stx	$84                     ; 0x84 <__rc31+0x55>
    1273: a6 18        	ldx	$18                     ; 0x18 <__rc8>
    1275: 86 7f        	stx	$7f                     ; 0x7f <__rc31+0x50>
    1277: a6 1e        	ldx	$1e                     ; 0x1e <__rc14>
    1279: 86 85        	stx	$85                     ; 0x85 <__rc31+0x56>
    127b: a6 1a        	ldx	$1a                     ; 0x1a <__rc10>
    127d: 86 43        	stx	$43                     ; 0x43 <__rc31+0x14>
    127f: a2 10        	ldx	#$10
    1281: 86 6a        	stx	$6a                     ; 0x6a <__rc31+0x3b>
    1283: a5 3a        	lda	$3a                     ; 0x3a <__rc31+0xb>
    1285: 09 80        	ora	#$80
    1287: aa           	tax
    1288: a9 00        	lda	#$0
    128a: 09 01        	ora	#$1
    128c: 86 3a        	stx	$3a                     ; 0x3a <__rc31+0xb>
    128e: 86 6b        	stx	$6b                     ; 0x6b <__rc31+0x3c>
    1290: 85 42        	sta	$42                     ; 0x42 <__rc31+0x13>
    1292: 85 6c        	sta	$6c                     ; 0x6c <__rc31+0x3d>
    1294: a2 10        	ldx	#$10
    1296: 86 45        	stx	$45                     ; 0x45 <__rc31+0x16>
    1298: 4c 67 13     	jmp	$1367 <printf+0x593>
    129b: a5 7b        	lda	$7b                     ; 0x7b <__rc31+0x4c>
    129d: a6 7c        	ldx	$7c                     ; 0x7c <__rc31+0x4d>
    129f: 85 12        	sta	$12                     ; 0x12 <__rc2>
    12a1: 86 13        	stx	$13                     ; 0x13 <__rc3>
    12a3: 18           	clc
    12a4: 69 02        	adc	#$2
    12a6: 85 14        	sta	$14                     ; 0x14 <__rc4>
    12a8: 8a           	txa
    12a9: 69 00        	adc	#$0
    12ab: a6 14        	ldx	$14                     ; 0x14 <__rc4>
    12ad: 86 7b        	stx	$7b                     ; 0x7b <__rc31+0x4c>
    12af: 85 7c        	sta	$7c                     ; 0x7c <__rc31+0x4d>
    12b1: b2 12        	lda	($12)                   ; 0x12 <__rc2>
    12b3: aa           	tax
    12b4: b1 12        	lda	($12),y                 ; 0x12 <__rc2>
    12b6: 86 12        	stx	$12                     ; 0x12 <__rc2>
    12b8: 85 13        	sta	$13                     ; 0x13 <__rc3>
    12ba: a5 6f        	lda	$6f                     ; 0x6f <__rc31+0x40>
    12bc: a6 70        	ldx	$70                     ; 0x70 <__rc31+0x41>
    12be: 92 12        	sta	($12)                   ; 0x12 <__rc2>
    12c0: 8a           	txa
    12c1: 91 12        	sta	($12),y                 ; 0x12 <__rc2>
    12c3: 4c aa 1a     	jmp	$1aaa <printf+0xcd6>
    12c6: a5 7b        	lda	$7b                     ; 0x7b <__rc31+0x4c>
    12c8: a6 7c        	ldx	$7c                     ; 0x7c <__rc31+0x4d>
    12ca: 85 12        	sta	$12                     ; 0x12 <__rc2>
    12cc: 86 13        	stx	$13                     ; 0x13 <__rc3>
    12ce: 18           	clc
    12cf: 69 02        	adc	#$2
    12d1: 85 14        	sta	$14                     ; 0x14 <__rc4>
    12d3: 8a           	txa
    12d4: 69 00        	adc	#$0
    12d6: a6 14        	ldx	$14                     ; 0x14 <__rc4>
    12d8: 86 7b        	stx	$7b                     ; 0x7b <__rc31+0x4c>
    12da: 85 7c        	sta	$7c                     ; 0x7c <__rc31+0x4d>
    12dc: b2 12        	lda	($12)                   ; 0x12 <__rc2>
    12de: aa           	tax
    12df: b1 12        	lda	($12),y                 ; 0x12 <__rc2>
    12e1: 86 12        	stx	$12                     ; 0x12 <__rc2>
    12e3: 85 13        	sta	$13                     ; 0x13 <__rc3>
    12e5: 80 42        	bra	$1329 <printf+0x555>
    12e7: a6 3c        	ldx	$3c                     ; 0x3c <__rc31+0xd>
    12e9: 86 80        	stx	$80                     ; 0x80 <__rc31+0x51>
    12eb: a6 3d        	ldx	$3d                     ; 0x3d <__rc31+0xe>
    12ed: 86 81        	stx	$81                     ; 0x81 <__rc31+0x52>
    12ef: a6 15        	ldx	$15                     ; 0x15 <__rc5>
    12f1: 86 84        	stx	$84                     ; 0x84 <__rc31+0x55>
    12f3: a6 18        	ldx	$18                     ; 0x18 <__rc8>
    12f5: 86 7f        	stx	$7f                     ; 0x7f <__rc31+0x50>
    12f7: a6 1e        	ldx	$1e                     ; 0x1e <__rc14>
    12f9: 86 85        	stx	$85                     ; 0x85 <__rc31+0x56>
    12fb: a6 1a        	ldx	$1a                     ; 0x1a <__rc10>
    12fd: 86 43        	stx	$43                     ; 0x43 <__rc31+0x14>
    12ff: a0 08        	ldy	#$8
    1301: a2 08        	ldx	#$8
    1303: 80 52        	bra	$1357 <printf+0x583>
    1305: a5 7b        	lda	$7b                     ; 0x7b <__rc31+0x4c>
    1307: a6 7c        	ldx	$7c                     ; 0x7c <__rc31+0x4d>
    1309: 85 12        	sta	$12                     ; 0x12 <__rc2>
    130b: 86 13        	stx	$13                     ; 0x13 <__rc3>
    130d: 18           	clc
    130e: 69 02        	adc	#$2
    1310: 85 14        	sta	$14                     ; 0x14 <__rc4>
    1312: 8a           	txa
    1313: 69 00        	adc	#$0
    1315: a6 14        	ldx	$14                     ; 0x14 <__rc4>
    1317: 86 7b        	stx	$7b                     ; 0x7b <__rc31+0x4c>
    1319: 85 7c        	sta	$7c                     ; 0x7c <__rc31+0x4d>
    131b: b2 12        	lda	($12)                   ; 0x12 <__rc2>
    131d: 85 5d        	sta	$5d                     ; 0x5d <__rc31+0x2e>
    131f: 64 5e        	stz	$5e                     ; 0x5e <__rc31+0x2f>
    1321: a2 5d        	ldx	#$5d
    1323: 86 12        	stx	$12                     ; 0x12 <__rc2>
    1325: a2 00        	ldx	#$0
    1327: 86 13        	stx	$13                     ; 0x13 <__rc3>
    1329: a2 6a        	ldx	#$6a
    132b: 86 14        	stx	$14                     ; 0x14 <__rc4>
    132d: a2 00        	ldx	#$0
    132f: 86 15        	stx	$15                     ; 0x15 <__rc5>
    1331: 84 40        	sty	$40                     ; 0x40 <__rc31+0x11>
    1333: 20 c5 0c     	jsr	$cc5 <_ZN12_GLOBAL__N_112print_stringEPKcP6Status>
    1336: a4 40        	ldy	$40                     ; 0x40 <__rc31+0x11>
    1338: 4c aa 1a     	jmp	$1aaa <printf+0xcd6>
    133b: a6 3c        	ldx	$3c                     ; 0x3c <__rc31+0xd>
    133d: 86 80        	stx	$80                     ; 0x80 <__rc31+0x51>
    133f: a6 3d        	ldx	$3d                     ; 0x3d <__rc31+0xe>
    1341: 86 81        	stx	$81                     ; 0x81 <__rc31+0x52>
    1343: a6 15        	ldx	$15                     ; 0x15 <__rc5>
    1345: 86 84        	stx	$84                     ; 0x84 <__rc31+0x55>
    1347: a6 18        	ldx	$18                     ; 0x18 <__rc8>
    1349: 86 7f        	stx	$7f                     ; 0x7f <__rc31+0x50>
    134b: a6 1e        	ldx	$1e                     ; 0x1e <__rc14>
    134d: 86 85        	stx	$85                     ; 0x85 <__rc31+0x56>
    134f: a6 1a        	ldx	$1a                     ; 0x1a <__rc10>
    1351: 86 43        	stx	$43                     ; 0x43 <__rc31+0x14>
    1353: a0 0a        	ldy	#$a
    1355: a2 0a        	ldx	#$a
    1357: 86 45        	stx	$45                     ; 0x45 <__rc31+0x16>
    1359: 84 6a        	sty	$6a                     ; 0x6a <__rc31+0x3b>
    135b: a9 00        	lda	#$0
    135d: 09 01        	ora	#$1
    135f: a6 3a        	ldx	$3a                     ; 0x3a <__rc31+0xb>
    1361: 86 6b        	stx	$6b                     ; 0x6b <__rc31+0x3c>
    1363: 85 42        	sta	$42                     ; 0x42 <__rc31+0x13>
    1365: 85 6c        	sta	$6c                     ; 0x6c <__rc31+0x3d>
    1367: a5 3b        	lda	$3b                     ; 0x3b <__rc31+0xc>
    1369: 85 5f        	sta	$5f                     ; 0x5f <__rc31+0x30>
    136b: a4 7b        	ldy	$7b                     ; 0x7b <__rc31+0x4c>
    136d: a6 7c        	ldx	$7c                     ; 0x7c <__rc31+0x4d>
    136f: 86 40        	stx	$40                     ; 0x40 <__rc31+0x11>
    1371: 84 14        	sty	$14                     ; 0x14 <__rc4>
    1373: 84 3c        	sty	$3c                     ; 0x3c <__rc31+0xd>
    1375: 86 15        	stx	$15                     ; 0x15 <__rc5>
    1377: a6 82        	ldx	$82                     ; 0x82 <__rc31+0x53>
    1379: 86 12        	stx	$12                     ; 0x12 <__rc2>
    137b: a6 83        	ldx	$83                     ; 0x83 <__rc31+0x54>
    137d: 86 13        	stx	$13                     ; 0x13 <__rc3>
    137f: a2 00        	ldx	#$0
    1381: 85 41        	sta	$41                     ; 0x41 <__rc31+0x12>
    1383: 20 11 1d     	jsr	$1d11 <memcpy>
    1386: 18           	clc
    1387: a5 3c        	lda	$3c                     ; 0x3c <__rc31+0xd>
    1389: 65 44        	adc	$44                     ; 0x44 <__rc31+0x15>
    138b: aa           	tax
    138c: a5 40        	lda	$40                     ; 0x40 <__rc31+0x11>
    138e: 69 00        	adc	#$0
    1390: 86 7b        	stx	$7b                     ; 0x7b <__rc31+0x4c>
    1392: 85 7c        	sta	$7c                     ; 0x7c <__rc31+0x4d>
    1394: a5 42        	lda	$42                     ; 0x42 <__rc31+0x13>
    1396: 29 01        	and	#$1
    1398: a0 00        	ldy	#$0
    139a: aa           	tax
    139b: f0 03        	beq	$13a0 <printf+0x5cc>
    139d: 4c f2 13     	jmp	$13f2 <printf+0x61e>
    13a0: a6 41        	ldx	$41                     ; 0x41 <__rc31+0x12>
    13a2: b5 5f        	lda	$5f,x                   ; 0x5f <__rc31+0x30>
    13a4: aa           	tax
    13a5: a5 43        	lda	$43                     ; 0x43 <__rc31+0x14>
    13a7: 85 17        	sta	$17                     ; 0x17 <__rc7>
    13a9: a5 85        	lda	$85                     ; 0x85 <__rc31+0x56>
    13ab: 85 1a        	sta	$1a                     ; 0x1a <__rc10>
    13ad: a5 84        	lda	$84                     ; 0x84 <__rc31+0x55>
    13af: 85 41        	sta	$41                     ; 0x41 <__rc31+0x12>
    13b1: a5 80        	lda	$80                     ; 0x80 <__rc31+0x51>
    13b3: 85 3c        	sta	$3c                     ; 0x3c <__rc31+0xd>
    13b5: a5 81        	lda	$81                     ; 0x81 <__rc31+0x52>
    13b7: 85 3d        	sta	$3d                     ; 0x3d <__rc31+0xe>
    13b9: 8a           	txa
    13ba: 10 4a        	bpl	$1406 <printf+0x632>
    13bc: a2 00        	ldx	#$0
    13be: 64 12        	stz	$12                     ; 0x12 <__rc2>
    13c0: a9 00        	lda	#$0
    13c2: 38           	sec
    13c3: f5 60        	sbc	$60,x                   ; 0x60 <__rc31+0x31>
    13c5: a0 01        	ldy	#$1
    13c7: 84 14        	sty	$14                     ; 0x14 <__rc4>
    13c9: 88           	dey
    13ca: b0 02        	bcs	$13ce <printf+0x5fa>
    13cc: a0 01        	ldy	#$1
    13ce: 38           	sec
    13cf: e5 12        	sbc	$12                     ; 0x12 <__rc2>
    13d1: 85 13        	sta	$13                     ; 0x13 <__rc3>
    13d3: 64 12        	stz	$12                     ; 0x12 <__rc2>
    13d5: b0 04        	bcs	$13db <printf+0x607>
    13d7: a5 14        	lda	$14                     ; 0x14 <__rc4>
    13d9: 85 12        	sta	$12                     ; 0x12 <__rc2>
    13db: 98           	tya
    13dc: 05 12        	ora	$12                     ; 0x12 <__rc2>
    13de: 85 12        	sta	$12                     ; 0x12 <__rc2>
    13e0: a5 13        	lda	$13                     ; 0x13 <__rc3>
    13e2: 9d 60 00     	sta	$60,x                   ; 0x60 <__rc31+0x31>
    13e5: e8           	inx
    13e6: 86 13        	stx	$13                     ; 0x13 <__rc3>
    13e8: a4 3b        	ldy	$3b                     ; 0x3b <__rc31+0xc>
    13ea: c4 13        	cpy	$13                     ; 0x13 <__rc3>
    13ec: d0 d2        	bne	$13c0 <printf+0x5ec>
    13ee: a0 01        	ldy	#$1
    13f0: 80 14        	bra	$1406 <printf+0x632>
    13f2: a6 43        	ldx	$43                     ; 0x43 <__rc31+0x14>
    13f4: 86 17        	stx	$17                     ; 0x17 <__rc7>
    13f6: a6 85        	ldx	$85                     ; 0x85 <__rc31+0x56>
    13f8: 86 1a        	stx	$1a                     ; 0x1a <__rc10>
    13fa: a6 84        	ldx	$84                     ; 0x84 <__rc31+0x55>
    13fc: 86 41        	stx	$41                     ; 0x41 <__rc31+0x12>
    13fe: a6 80        	ldx	$80                     ; 0x80 <__rc31+0x51>
    1400: 86 3c        	stx	$3c                     ; 0x3c <__rc31+0xd>
    1402: a6 81        	ldx	$81                     ; 0x81 <__rc31+0x52>
    1404: 86 3d        	stx	$3d                     ; 0x3d <__rc31+0xe>
    1406: 84 18        	sty	$18                     ; 0x18 <__rc8>
    1408: a5 3b        	lda	$3b                     ; 0x3b <__rc31+0xc>
    140a: 0a           	asl
    140b: 0a           	asl
    140c: 0a           	asl
    140d: 85 12        	sta	$12                     ; 0x12 <__rc2>
    140f: a2 00        	ldx	#$0
    1411: 8a           	txa
    1412: 4c c9 14     	jmp	$14c9 <printf+0x6f5>
    1415: a4 13        	ldy	$13                     ; 0x13 <__rc3>
    1417: 99 48 00     	sta	$48,y                   ; 0x48 <__rc31+0x19>
    141a: a4 15        	ldy	$15                     ; 0x15 <__rc5>
    141c: c4 13        	cpy	$13                     ; 0x13 <__rc3>
    141e: f0 38        	beq	$1458 <printf+0x684>
    1420: e6 13        	inc	$13                     ; 0x13 <__rc3>
    1422: a4 13        	ldy	$13                     ; 0x13 <__rc3>
    1424: b9 48 00     	lda	$48,y                   ; 0x48 <__rc31+0x19>
    1427: 0a           	asl
    1428: e0 00        	cpx	#$0
    142a: f0 02        	beq	$142e <printf+0x65a>
    142c: 09 01        	ora	#$1
    142e: a4 45        	ldy	$45                     ; 0x45 <__rc31+0x16>
    1430: 84 14        	sty	$14                     ; 0x14 <__rc4>
    1432: c5 14        	cmp	$14                     ; 0x14 <__rc4>
    1434: a2 01        	ldx	#$1
    1436: b0 02        	bcs	$143a <printf+0x666>
    1438: a2 00        	ldx	#$0
    143a: 90 d9        	bcc	$1415 <printf+0x641>
    143c: 84 14        	sty	$14                     ; 0x14 <__rc4>
    143e: 38           	sec
    143f: e5 14        	sbc	$14                     ; 0x14 <__rc4>
    1441: a4 13        	ldy	$13                     ; 0x13 <__rc3>
    1443: 99 48 00     	sta	$48,y                   ; 0x48 <__rc31+0x19>
    1446: a4 15        	ldy	$15                     ; 0x15 <__rc5>
    1448: c4 13        	cpy	$13                     ; 0x13 <__rc3>
    144a: d0 d4        	bne	$1420 <printf+0x64c>
    144c: a4 44        	ldy	$44                     ; 0x44 <__rc31+0x15>
    144e: a6 44        	ldx	$44                     ; 0x44 <__rc31+0x15>
    1450: e8           	inx
    1451: a9 01        	lda	#$1
    1453: 99 48 00     	sta	$48,y                   ; 0x48 <__rc31+0x19>
    1456: 86 44        	stx	$44                     ; 0x44 <__rc31+0x15>
    1458: a6 3b        	ldx	$3b                     ; 0x3b <__rc31+0xc>
    145a: b5 5f        	lda	$5f,x                   ; 0x5f <__rc31+0x30>
    145c: aa           	tax
    145d: 10 41        	bpl	$14a0 <printf+0x6cc>
    145f: a5 44        	lda	$44                     ; 0x44 <__rc31+0x15>
    1461: f0 2f        	beq	$1492 <printf+0x6be>
    1463: a2 00        	ldx	#$0
    1465: a4 45        	ldy	$45                     ; 0x45 <__rc31+0x16>
    1467: 84 14        	sty	$14                     ; 0x14 <__rc4>
    1469: b5 48        	lda	$48,x                   ; 0x48 <__rc31+0x19>
    146b: 1a           	inc
    146c: f6 48        	inc	$48,x                   ; 0x48 <__rc31+0x19>
    146e: c5 14        	cmp	$14                     ; 0x14 <__rc4>
    1470: 90 2e        	bcc	$14a0 <printf+0x6cc>
    1472: a4 45        	ldy	$45                     ; 0x45 <__rc31+0x16>
    1474: 84 13        	sty	$13                     ; 0x13 <__rc3>
    1476: 38           	sec
    1477: e5 13        	sbc	$13                     ; 0x13 <__rc3>
    1479: 9d 48 00     	sta	$48,x                   ; 0x48 <__rc31+0x19>
    147c: e8           	inx
    147d: 86 13        	stx	$13                     ; 0x13 <__rc3>
    147f: a4 44        	ldy	$44                     ; 0x44 <__rc31+0x15>
    1481: c4 13        	cpy	$13                     ; 0x13 <__rc3>
    1483: d0 e4        	bne	$1469 <printf+0x695>
    1485: 80 0d        	bra	$1494 <printf+0x6c0>
    1487: a6 3b        	ldx	$3b                     ; 0x3b <__rc31+0xc>
    1489: b5 5f        	lda	$5f,x                   ; 0x5f <__rc31+0x30>
    148b: aa           	tax
    148c: 64 44        	stz	$44                     ; 0x44 <__rc31+0x15>
    148e: 30 04        	bmi	$1494 <printf+0x6c0>
    1490: 80 0e        	bra	$14a0 <printf+0x6cc>
    1492: 64 44        	stz	$44                     ; 0x44 <__rc31+0x15>
    1494: a4 44        	ldy	$44                     ; 0x44 <__rc31+0x15>
    1496: a6 44        	ldx	$44                     ; 0x44 <__rc31+0x15>
    1498: e8           	inx
    1499: a9 01        	lda	#$1
    149b: 99 48 00     	sta	$48,y                   ; 0x48 <__rc31+0x19>
    149e: 86 44        	stx	$44                     ; 0x44 <__rc31+0x15>
    14a0: a2 01        	ldx	#$1
    14a2: 86 16        	stx	$16                     ; 0x16 <__rc6>
    14a4: 64 13        	stz	$13                     ; 0x13 <__rc3>
    14a6: ca           	dex
    14a7: a4 3b        	ldy	$3b                     ; 0x3b <__rc31+0xc>
    14a9: b5 60        	lda	$60,x                   ; 0x60 <__rc31+0x31>
    14ab: 0a           	asl
    14ac: 64 14        	stz	$14                     ; 0x14 <__rc4>
    14ae: 26 14        	rol	$14                     ; 0x14 <__rc4>
    14b0: 05 13        	ora	$13                     ; 0x13 <__rc3>
    14b2: 9d 60 00     	sta	$60,x                   ; 0x60 <__rc31+0x31>
    14b5: e8           	inx
    14b6: 86 15        	stx	$15                     ; 0x15 <__rc5>
    14b8: a5 14        	lda	$14                     ; 0x14 <__rc4>
    14ba: 85 13        	sta	$13                     ; 0x13 <__rc3>
    14bc: c4 15        	cpy	$15                     ; 0x15 <__rc5>
    14be: d0 e9        	bne	$14a9 <printf+0x6d5>
    14c0: a5 19        	lda	$19                     ; 0x19 <__rc9>
    14c2: 1a           	inc
    14c3: c5 12        	cmp	$12                     ; 0x12 <__rc2>
    14c5: a6 44        	ldx	$44                     ; 0x44 <__rc31+0x15>
    14c7: b0 12        	bcs	$14db <printf+0x707>
    14c9: 85 19        	sta	$19                     ; 0x19 <__rc9>
    14cb: 8a           	txa
    14cc: f0 b9        	beq	$1487 <printf+0x6b3>
    14ce: 8a           	txa
    14cf: 86 44        	stx	$44                     ; 0x44 <__rc31+0x15>
    14d1: 3a           	dec
    14d2: 85 15        	sta	$15                     ; 0x15 <__rc5>
    14d4: a2 00        	ldx	#$0
    14d6: 64 13        	stz	$13                     ; 0x13 <__rc3>
    14d8: 4c 22 14     	jmp	$1422 <printf+0x64e>
    14db: a4 16        	ldy	$16                     ; 0x16 <__rc6>
    14dd: a5 41        	lda	$41                     ; 0x41 <__rc31+0x12>
    14df: 30 06        	bmi	$14e7 <printf+0x713>
    14e1: a5 7f        	lda	$7f                     ; 0x7f <__rc31+0x50>
    14e3: 85 40        	sta	$40                     ; 0x40 <__rc31+0x11>
    14e5: 80 08        	bra	$14ef <printf+0x71b>
    14e7: a2 01        	ldx	#$1
    14e9: 64 41        	stz	$41                     ; 0x41 <__rc31+0x12>
    14eb: 86 40        	stx	$40                     ; 0x40 <__rc31+0x11>
    14ed: a6 44        	ldx	$44                     ; 0x44 <__rc31+0x15>
    14ef: a5 3a        	lda	$3a                     ; 0x3a <__rc31+0xb>
    14f1: 29 04        	and	#$4
    14f3: f0 2f        	beq	$1524 <printf+0x750>
    14f5: a5 45        	lda	$45                     ; 0x45 <__rc31+0x16>
    14f7: c9 10        	cmp	#$10
    14f9: f0 14        	beq	$150f <printf+0x73b>
    14fb: c9 08        	cmp	#$8
    14fd: d0 25        	bne	$1524 <printf+0x750>
    14ff: a2 00        	ldx	#$0
    1501: e4 41        	cpx	$41                     ; 0x41 <__rc31+0x12>
    1503: f0 03        	beq	$1508 <printf+0x734>
    1505: 4c d0 1a     	jmp	$1ad0 <printf+0xcfc>
    1508: a6 44        	ldx	$44                     ; 0x44 <__rc31+0x15>
    150a: e4 40        	cpx	$40                     ; 0x40 <__rc31+0x11>
    150c: 4c d2 1a     	jmp	$1ad2 <printf+0xcfe>
    150f: 8a           	txa
    1510: f0 12        	beq	$1524 <printf+0x750>
    1512: a5 3a        	lda	$3a                     ; 0x3a <__rc31+0xb>
    1514: a6 40        	ldx	$40                     ; 0x40 <__rc31+0x11>
    1516: 29 80        	and	#$80
    1518: d0 03        	bne	$151d <printf+0x749>
    151a: 4c eb 1a     	jmp	$1aeb <printf+0xd17>
    151d: 86 7f        	stx	$7f                     ; 0x7f <__rc31+0x50>
    151f: a2 78        	ldx	#$78
    1521: 4c ef 1a     	jmp	$1aef <printf+0xd1b>
    1524: a6 3a        	ldx	$3a                     ; 0x3a <__rc31+0xb>
    1526: a9 2d        	lda	#$2d
    1528: 85 80        	sta	$80                     ; 0x80 <__rc31+0x51>
    152a: a5 18        	lda	$18                     ; 0x18 <__rc8>
    152c: d0 22        	bne	$1550 <printf+0x77c>
    152e: 86 12        	stx	$12                     ; 0x12 <__rc2>
    1530: 8a           	txa
    1531: 29 02        	and	#$2
    1533: a2 2b        	ldx	#$2b
    1535: 86 80        	stx	$80                     ; 0x80 <__rc31+0x51>
    1537: aa           	tax
    1538: d0 16        	bne	$1550 <printf+0x77c>
    153a: a6 40        	ldx	$40                     ; 0x40 <__rc31+0x11>
    153c: 86 7f        	stx	$7f                     ; 0x7f <__rc31+0x50>
    153e: a5 12        	lda	$12                     ; 0x12 <__rc2>
    1540: 29 08        	and	#$8
    1542: f0 03        	beq	$1547 <printf+0x773>
    1544: 4c c9 1a     	jmp	$1ac9 <printf+0xcf5>
    1547: a2 01        	ldx	#$1
    1549: 86 43        	stx	$43                     ; 0x43 <__rc31+0x14>
    154b: 64 16        	stz	$16                     ; 0x16 <__rc6>
    154d: ca           	dex
    154e: 80 08        	bra	$1558 <printf+0x784>
    1550: a6 40        	ldx	$40                     ; 0x40 <__rc31+0x11>
    1552: 86 7f        	stx	$7f                     ; 0x7f <__rc31+0x50>
    1554: a2 00        	ldx	#$0
    1556: 86 43        	stx	$43                     ; 0x43 <__rc31+0x14>
    1558: 86 40        	stx	$40                     ; 0x40 <__rc31+0x11>
    155a: a5 41        	lda	$41                     ; 0x41 <__rc31+0x12>
    155c: d0 08        	bne	$1566 <printf+0x792>
    155e: a5 7f        	lda	$7f                     ; 0x7f <__rc31+0x50>
    1560: c5 44        	cmp	$44                     ; 0x44 <__rc31+0x15>
    1562: 85 12        	sta	$12                     ; 0x12 <__rc2>
    1564: 80 08        	bra	$156e <printf+0x79a>
    1566: a6 41        	ldx	$41                     ; 0x41 <__rc31+0x12>
    1568: e0 00        	cpx	#$0
    156a: a6 7f        	ldx	$7f                     ; 0x7f <__rc31+0x50>
    156c: 86 12        	stx	$12                     ; 0x12 <__rc2>
    156e: a6 41        	ldx	$41                     ; 0x41 <__rc31+0x12>
    1570: 86 13        	stx	$13                     ; 0x13 <__rc3>
    1572: b0 06        	bcs	$157a <printf+0x7a6>
    1574: a6 44        	ldx	$44                     ; 0x44 <__rc31+0x15>
    1576: 86 12        	stx	$12                     ; 0x12 <__rc2>
    1578: 64 13        	stz	$13                     ; 0x13 <__rc3>
    157a: a5 16        	lda	$16                     ; 0x16 <__rc6>
    157c: 18           	clc
    157d: 65 12        	adc	$12                     ; 0x12 <__rc2>
    157f: aa           	tax
    1580: 85 14        	sta	$14                     ; 0x14 <__rc4>
    1582: a5 13        	lda	$13                     ; 0x13 <__rc3>
    1584: 69 00        	adc	#$0
    1586: 85 15        	sta	$15                     ; 0x15 <__rc5>
    1588: c5 1a        	cmp	$1a                     ; 0x1a <__rc10>
    158a: d0 04        	bne	$1590 <printf+0x7bc>
    158c: e4 17        	cpx	$17                     ; 0x17 <__rc7>
    158e: 80 02        	bra	$1592 <printf+0x7be>
    1590: c5 1a        	cmp	$1a                     ; 0x1a <__rc10>
    1592: 64 45        	stz	$45                     ; 0x45 <__rc31+0x16>
    1594: 64 3b        	stz	$3b                     ; 0x3b <__rc31+0xc>
    1596: a6 44        	ldx	$44                     ; 0x44 <__rc31+0x15>
    1598: 90 03        	bcc	$159d <printf+0x7c9>
    159a: 4c 58 16     	jmp	$1658 <printf+0x884>
    159d: a5 3a        	lda	$3a                     ; 0x3a <__rc31+0xb>
    159f: 29 11        	and	#$11
    15a1: f0 10        	beq	$15b3 <printf+0x7df>
    15a3: a5 17        	lda	$17                     ; 0x17 <__rc7>
    15a5: 38           	sec
    15a6: e5 14        	sbc	$14                     ; 0x14 <__rc4>
    15a8: 85 45        	sta	$45                     ; 0x45 <__rc31+0x16>
    15aa: a5 1a        	lda	$1a                     ; 0x1a <__rc10>
    15ac: e5 15        	sbc	$15                     ; 0x15 <__rc5>
    15ae: 85 3b        	sta	$3b                     ; 0x3b <__rc31+0xc>
    15b0: 4c 58 16     	jmp	$1658 <printf+0x884>
    15b3: a6 6f        	ldx	$6f                     ; 0x6f <__rc31+0x40>
    15b5: 86 15        	stx	$15                     ; 0x15 <__rc5>
    15b7: 38           	sec
    15b8: a5 16        	lda	$16                     ; 0x16 <__rc6>
    15ba: e5 17        	sbc	$17                     ; 0x17 <__rc7>
    15bc: aa           	tax
    15bd: a9 00        	lda	#$0
    15bf: e5 1a        	sbc	$1a                     ; 0x1a <__rc10>
    15c1: 85 14        	sta	$14                     ; 0x14 <__rc4>
    15c3: 18           	clc
    15c4: 8a           	txa
    15c5: 65 12        	adc	$12                     ; 0x12 <__rc2>
    15c7: 85 3a        	sta	$3a                     ; 0x3a <__rc31+0xb>
    15c9: a5 14        	lda	$14                     ; 0x14 <__rc4>
    15cb: 65 13        	adc	$13                     ; 0x13 <__rc3>
    15cd: 85 3b        	sta	$3b                     ; 0x3b <__rc31+0xc>
    15cf: a5 70        	lda	$70                     ; 0x70 <__rc31+0x41>
    15d1: 4c 40 16     	jmp	$1640 <printf+0x86c>
    15d4: c5 6e        	cmp	$6e                     ; 0x6e <__rc31+0x3f>
    15d6: a6 3b        	ldx	$3b                     ; 0x3b <__rc31+0xc>
    15d8: 86 12        	stx	$12                     ; 0x12 <__rc2>
    15da: b0 3d        	bcs	$1619 <printf+0x845>
    15dc: a2 01        	ldx	#$1
    15de: 86 14        	stx	$14                     ; 0x14 <__rc4>
    15e0: a6 7a        	ldx	$7a                     ; 0x7a <__rc31+0x4b>
    15e2: a0 00        	ldy	#$0
    15e4: 84 12        	sty	$12                     ; 0x12 <__rc2>
    15e6: a0 00        	ldy	#$0
    15e8: 84 13        	sty	$13                     ; 0x13 <__rc3>
    15ea: e4 13        	cpx	$13                     ; 0x13 <__rc3>
    15ec: d0 1b        	bne	$1609 <printf+0x835>
    15ee: a6 79        	ldx	$79                     ; 0x79 <__rc31+0x4a>
    15f0: e4 12        	cpx	$12                     ; 0x12 <__rc2>
    15f2: d0 15        	bne	$1609 <printf+0x835>
    15f4: a4 14        	ldy	$14                     ; 0x14 <__rc4>
    15f6: 18           	clc
    15f7: aa           	tax
    15f8: a5 15        	lda	$15                     ; 0x15 <__rc5>
    15fa: 65 73        	adc	$73                     ; 0x73 <__rc31+0x44>
    15fc: 85 12        	sta	$12                     ; 0x12 <__rc2>
    15fe: 8a           	txa
    15ff: 65 74        	adc	$74                     ; 0x74 <__rc31+0x45>
    1601: 85 13        	sta	$13                     ; 0x13 <__rc3>
    1603: a9 20        	lda	#$20
    1605: 92 12        	sta	($12)                   ; 0x12 <__rc2>
    1607: 80 0c        	bra	$1615 <printf+0x841>
    1609: a2 01        	ldx	#$1
    160b: 86 42        	stx	$42                     ; 0x42 <__rc31+0x13>
    160d: ca           	dex
    160e: a9 20        	lda	#$20
    1610: 20 0e 1b     	jsr	$1b0e <putchar>
    1613: a4 42        	ldy	$42                     ; 0x42 <__rc31+0x13>
    1615: a6 3b        	ldx	$3b                     ; 0x3b <__rc31+0xc>
    1617: 86 12        	stx	$12                     ; 0x12 <__rc2>
    1619: a6 6f        	ldx	$6f                     ; 0x6f <__rc31+0x40>
    161b: a5 70        	lda	$70                     ; 0x70 <__rc31+0x41>
    161d: e8           	inx
    161e: d0 01        	bne	$1621 <printf+0x84d>
    1620: 1a           	inc
    1621: 86 15        	stx	$15                     ; 0x15 <__rc5>
    1623: 86 6f        	stx	$6f                     ; 0x6f <__rc31+0x40>
    1625: 85 70        	sta	$70                     ; 0x70 <__rc31+0x41>
    1627: a6 3a        	ldx	$3a                     ; 0x3a <__rc31+0xb>
    1629: e8           	inx
    162a: d0 02        	bne	$162e <printf+0x85a>
    162c: e6 12        	inc	$12                     ; 0x12 <__rc2>
    162e: 86 3a        	stx	$3a                     ; 0x3a <__rc31+0xb>
    1630: 5a           	phy
    1631: a4 12        	ldy	$12                     ; 0x12 <__rc2>
    1633: 84 3b        	sty	$3b                     ; 0x3b <__rc31+0xc>
    1635: 7a           	ply
    1636: e6 12        	inc	$12                     ; 0x12 <__rc2>
    1638: c6 12        	dec	$12                     ; 0x12 <__rc2>
    163a: d0 04        	bne	$1640 <printf+0x86c>
    163c: e0 00        	cpx	#$0
    163e: f0 12        	beq	$1652 <printf+0x87e>
    1640: c5 6e        	cmp	$6e                     ; 0x6e <__rc31+0x3f>
    1642: f0 03        	beq	$1647 <printf+0x873>
    1644: 4c d4 15     	jmp	$15d4 <printf+0x800>
    1647: a6 6d        	ldx	$6d                     ; 0x6d <__rc31+0x3e>
    1649: 86 12        	stx	$12                     ; 0x12 <__rc2>
    164b: a6 15        	ldx	$15                     ; 0x15 <__rc5>
    164d: e4 12        	cpx	$12                     ; 0x12 <__rc2>
    164f: 4c d6 15     	jmp	$15d6 <printf+0x802>
    1652: 64 45        	stz	$45                     ; 0x45 <__rc31+0x16>
    1654: 64 3b        	stz	$3b                     ; 0x3b <__rc31+0xc>
    1656: a6 44        	ldx	$44                     ; 0x44 <__rc31+0x15>
    1658: a5 43        	lda	$43                     ; 0x43 <__rc31+0x14>
    165a: f0 03        	beq	$165f <printf+0x88b>
    165c: 4c c0 16     	jmp	$16c0 <printf+0x8ec>
    165f: a6 6f        	ldx	$6f                     ; 0x6f <__rc31+0x40>
    1661: a5 70        	lda	$70                     ; 0x70 <__rc31+0x41>
    1663: c5 6e        	cmp	$6e                     ; 0x6e <__rc31+0x3f>
    1665: d0 10        	bne	$1677 <printf+0x8a3>
    1667: 86 13        	stx	$13                     ; 0x13 <__rc3>
    1669: a6 6d        	ldx	$6d                     ; 0x6d <__rc31+0x3e>
    166b: 86 12        	stx	$12                     ; 0x12 <__rc2>
    166d: a6 13        	ldx	$13                     ; 0x13 <__rc3>
    166f: 86 15        	stx	$15                     ; 0x15 <__rc5>
    1671: e4 12        	cpx	$12                     ; 0x12 <__rc2>
    1673: 90 08        	bcc	$167d <printf+0x8a9>
    1675: 80 41        	bra	$16b8 <printf+0x8e4>
    1677: 86 15        	stx	$15                     ; 0x15 <__rc5>
    1679: c5 6e        	cmp	$6e                     ; 0x6e <__rc31+0x3f>
    167b: b0 3b        	bcs	$16b8 <printf+0x8e4>
    167d: a2 01        	ldx	#$1
    167f: 86 14        	stx	$14                     ; 0x14 <__rc4>
    1681: a6 7a        	ldx	$7a                     ; 0x7a <__rc31+0x4b>
    1683: a0 00        	ldy	#$0
    1685: 84 12        	sty	$12                     ; 0x12 <__rc2>
    1687: a0 00        	ldy	#$0
    1689: 84 13        	sty	$13                     ; 0x13 <__rc3>
    168b: e4 13        	cpx	$13                     ; 0x13 <__rc3>
    168d: d0 1d        	bne	$16ac <printf+0x8d8>
    168f: a6 79        	ldx	$79                     ; 0x79 <__rc31+0x4a>
    1691: e4 12        	cpx	$12                     ; 0x12 <__rc2>
    1693: d0 17        	bne	$16ac <printf+0x8d8>
    1695: a4 14        	ldy	$14                     ; 0x14 <__rc4>
    1697: 18           	clc
    1698: 85 16        	sta	$16                     ; 0x16 <__rc6>
    169a: a5 15        	lda	$15                     ; 0x15 <__rc5>
    169c: 65 73        	adc	$73                     ; 0x73 <__rc31+0x44>
    169e: 85 12        	sta	$12                     ; 0x12 <__rc2>
    16a0: a5 16        	lda	$16                     ; 0x16 <__rc6>
    16a2: 65 74        	adc	$74                     ; 0x74 <__rc31+0x45>
    16a4: 85 13        	sta	$13                     ; 0x13 <__rc3>
    16a6: a5 80        	lda	$80                     ; 0x80 <__rc31+0x51>
    16a8: 92 12        	sta	($12)                   ; 0x12 <__rc2>
    16aa: 80 0c        	bra	$16b8 <printf+0x8e4>
    16ac: a2 01        	ldx	#$1
    16ae: 86 42        	stx	$42                     ; 0x42 <__rc31+0x13>
    16b0: ca           	dex
    16b1: a5 80        	lda	$80                     ; 0x80 <__rc31+0x51>
    16b3: 20 0e 1b     	jsr	$1b0e <putchar>
    16b6: a4 42        	ldy	$42                     ; 0x42 <__rc31+0x13>
    16b8: e6 6f        	inc	$6f                     ; 0x6f <__rc31+0x40>
    16ba: d0 02        	bne	$16be <printf+0x8ea>
    16bc: e6 70        	inc	$70                     ; 0x70 <__rc31+0x41>
    16be: a6 44        	ldx	$44                     ; 0x44 <__rc31+0x15>
    16c0: a5 40        	lda	$40                     ; 0x40 <__rc31+0x11>
    16c2: d0 03        	bne	$16c7 <printf+0x8f3>
    16c4: 4c 28 17     	jmp	$1728 <printf+0x954>
    16c7: a6 6f        	ldx	$6f                     ; 0x6f <__rc31+0x40>
    16c9: a5 70        	lda	$70                     ; 0x70 <__rc31+0x41>
    16cb: c5 6e        	cmp	$6e                     ; 0x6e <__rc31+0x3f>
    16cd: d0 10        	bne	$16df <printf+0x90b>
    16cf: 86 13        	stx	$13                     ; 0x13 <__rc3>
    16d1: a6 6d        	ldx	$6d                     ; 0x6d <__rc31+0x3e>
    16d3: 86 12        	stx	$12                     ; 0x12 <__rc2>
    16d5: a6 13        	ldx	$13                     ; 0x13 <__rc3>
    16d7: 86 15        	stx	$15                     ; 0x15 <__rc5>
    16d9: e4 12        	cpx	$12                     ; 0x12 <__rc2>
    16db: 90 08        	bcc	$16e5 <printf+0x911>
    16dd: 80 41        	bra	$1720 <printf+0x94c>
    16df: 86 15        	stx	$15                     ; 0x15 <__rc5>
    16e1: c5 6e        	cmp	$6e                     ; 0x6e <__rc31+0x3f>
    16e3: b0 3b        	bcs	$1720 <printf+0x94c>
    16e5: a2 01        	ldx	#$1
    16e7: 86 14        	stx	$14                     ; 0x14 <__rc4>
    16e9: a6 7a        	ldx	$7a                     ; 0x7a <__rc31+0x4b>
    16eb: a0 00        	ldy	#$0
    16ed: 84 12        	sty	$12                     ; 0x12 <__rc2>
    16ef: a0 00        	ldy	#$0
    16f1: 84 13        	sty	$13                     ; 0x13 <__rc3>
    16f3: e4 13        	cpx	$13                     ; 0x13 <__rc3>
    16f5: d0 1d        	bne	$1714 <printf+0x940>
    16f7: a6 79        	ldx	$79                     ; 0x79 <__rc31+0x4a>
    16f9: e4 12        	cpx	$12                     ; 0x12 <__rc2>
    16fb: d0 17        	bne	$1714 <printf+0x940>
    16fd: a4 14        	ldy	$14                     ; 0x14 <__rc4>
    16ff: 18           	clc
    1700: 85 16        	sta	$16                     ; 0x16 <__rc6>
    1702: a5 15        	lda	$15                     ; 0x15 <__rc5>
    1704: 65 73        	adc	$73                     ; 0x73 <__rc31+0x44>
    1706: 85 12        	sta	$12                     ; 0x12 <__rc2>
    1708: a5 16        	lda	$16                     ; 0x16 <__rc6>
    170a: 65 74        	adc	$74                     ; 0x74 <__rc31+0x45>
    170c: 85 13        	sta	$13                     ; 0x13 <__rc3>
    170e: a5 84        	lda	$84                     ; 0x84 <__rc31+0x55>
    1710: 92 12        	sta	($12)                   ; 0x12 <__rc2>
    1712: 80 0c        	bra	$1720 <printf+0x94c>
    1714: a2 01        	ldx	#$1
    1716: 86 42        	stx	$42                     ; 0x42 <__rc31+0x13>
    1718: ca           	dex
    1719: a5 84        	lda	$84                     ; 0x84 <__rc31+0x55>
    171b: 20 0e 1b     	jsr	$1b0e <putchar>
    171e: a4 42        	ldy	$42                     ; 0x42 <__rc31+0x13>
    1720: e6 6f        	inc	$6f                     ; 0x6f <__rc31+0x40>
    1722: d0 02        	bne	$1726 <printf+0x952>
    1724: e6 70        	inc	$70                     ; 0x70 <__rc31+0x41>
    1726: a6 44        	ldx	$44                     ; 0x44 <__rc31+0x15>
    1728: a9 10        	lda	#$10
    172a: 25 6b        	and	$6b                     ; 0x6b <__rc31+0x3c>
    172c: d0 07        	bne	$1735 <printf+0x961>
    172e: a5 7f        	lda	$7f                     ; 0x7f <__rc31+0x50>
    1730: 85 43        	sta	$43                     ; 0x43 <__rc31+0x14>
    1732: 4c e7 17     	jmp	$17e7 <printf+0xa13>
    1735: 86 13        	stx	$13                     ; 0x13 <__rc3>
    1737: a5 6b        	lda	$6b                     ; 0x6b <__rc31+0x3c>
    1739: 29 01        	and	#$1
    173b: a6 7f        	ldx	$7f                     ; 0x7f <__rc31+0x50>
    173d: 86 43        	stx	$43                     ; 0x43 <__rc31+0x14>
    173f: aa           	tax
    1740: f0 03        	beq	$1745 <printf+0x971>
    1742: 4c dd 17     	jmp	$17dd <printf+0xa09>
    1745: a5 45        	lda	$45                     ; 0x45 <__rc31+0x16>
    1747: a6 3b        	ldx	$3b                     ; 0x3b <__rc31+0xc>
    1749: 86 12        	stx	$12                     ; 0x12 <__rc2>
    174b: a6 12        	ldx	$12                     ; 0x12 <__rc2>
    174d: d0 06        	bne	$1755 <printf+0x981>
    174f: aa           	tax
    1750: d0 03        	bne	$1755 <printf+0x981>
    1752: 4c 04 1b     	jmp	$1b04 <printf+0xd30>
    1755: a6 6f        	ldx	$6f                     ; 0x6f <__rc31+0x40>
    1757: 86 15        	stx	$15                     ; 0x15 <__rc5>
    1759: a5 70        	lda	$70                     ; 0x70 <__rc31+0x41>
    175b: 4c c9 17     	jmp	$17c9 <printf+0x9f5>
    175e: c5 6e        	cmp	$6e                     ; 0x6e <__rc31+0x3f>
    1760: b0 39        	bcs	$179b <printf+0x9c7>
    1762: a2 01        	ldx	#$1
    1764: 86 14        	stx	$14                     ; 0x14 <__rc4>
    1766: a6 7a        	ldx	$7a                     ; 0x7a <__rc31+0x4b>
    1768: a0 00        	ldy	#$0
    176a: 84 12        	sty	$12                     ; 0x12 <__rc2>
    176c: a0 00        	ldy	#$0
    176e: 84 13        	sty	$13                     ; 0x13 <__rc3>
    1770: e4 13        	cpx	$13                     ; 0x13 <__rc3>
    1772: d0 1b        	bne	$178f <printf+0x9bb>
    1774: a6 79        	ldx	$79                     ; 0x79 <__rc31+0x4a>
    1776: e4 12        	cpx	$12                     ; 0x12 <__rc2>
    1778: d0 15        	bne	$178f <printf+0x9bb>
    177a: a4 14        	ldy	$14                     ; 0x14 <__rc4>
    177c: 18           	clc
    177d: aa           	tax
    177e: a5 15        	lda	$15                     ; 0x15 <__rc5>
    1780: 65 73        	adc	$73                     ; 0x73 <__rc31+0x44>
    1782: 85 12        	sta	$12                     ; 0x12 <__rc2>
    1784: 8a           	txa
    1785: 65 74        	adc	$74                     ; 0x74 <__rc31+0x45>
    1787: 85 13        	sta	$13                     ; 0x13 <__rc3>
    1789: a9 30        	lda	#$30
    178b: 92 12        	sta	($12)                   ; 0x12 <__rc2>
    178d: 80 0c        	bra	$179b <printf+0x9c7>
    178f: a2 01        	ldx	#$1
    1791: 86 42        	stx	$42                     ; 0x42 <__rc31+0x13>
    1793: ca           	dex
    1794: a9 30        	lda	#$30
    1796: 20 0e 1b     	jsr	$1b0e <putchar>
    1799: a4 42        	ldy	$42                     ; 0x42 <__rc31+0x13>
    179b: a6 6f        	ldx	$6f                     ; 0x6f <__rc31+0x40>
    179d: a5 70        	lda	$70                     ; 0x70 <__rc31+0x41>
    179f: e8           	inx
    17a0: d0 01        	bne	$17a3 <printf+0x9cf>
    17a2: 1a           	inc
    17a3: 86 15        	stx	$15                     ; 0x15 <__rc5>
    17a5: 86 6f        	stx	$6f                     ; 0x6f <__rc31+0x40>
    17a7: 85 70        	sta	$70                     ; 0x70 <__rc31+0x41>
    17a9: a6 45        	ldx	$45                     ; 0x45 <__rc31+0x16>
    17ab: 86 12        	stx	$12                     ; 0x12 <__rc2>
    17ad: a6 3b        	ldx	$3b                     ; 0x3b <__rc31+0xc>
    17af: 86 13        	stx	$13                     ; 0x13 <__rc3>
    17b1: a2 ff        	ldx	#$ff
    17b3: c6 12        	dec	$12                     ; 0x12 <__rc2>
    17b5: e4 12        	cpx	$12                     ; 0x12 <__rc2>
    17b7: d0 02        	bne	$17bb <printf+0x9e7>
    17b9: c6 13        	dec	$13                     ; 0x13 <__rc3>
    17bb: a6 12        	ldx	$12                     ; 0x12 <__rc2>
    17bd: 86 45        	stx	$45                     ; 0x45 <__rc31+0x16>
    17bf: a6 13        	ldx	$13                     ; 0x13 <__rc3>
    17c1: 86 3b        	stx	$3b                     ; 0x3b <__rc31+0xc>
    17c3: d0 04        	bne	$17c9 <printf+0x9f5>
    17c5: a6 12        	ldx	$12                     ; 0x12 <__rc2>
    17c7: f0 18        	beq	$17e1 <printf+0xa0d>
    17c9: c5 6e        	cmp	$6e                     ; 0x6e <__rc31+0x3f>
    17cb: f0 03        	beq	$17d0 <printf+0x9fc>
    17cd: 4c 5e 17     	jmp	$175e <printf+0x98a>
    17d0: a6 6d        	ldx	$6d                     ; 0x6d <__rc31+0x3e>
    17d2: 86 12        	stx	$12                     ; 0x12 <__rc2>
    17d4: a6 15        	ldx	$15                     ; 0x15 <__rc5>
    17d6: e4 12        	cpx	$12                     ; 0x12 <__rc2>
    17d8: b0 c1        	bcs	$179b <printf+0x9c7>
    17da: 4c 62 17     	jmp	$1762 <printf+0x98e>
    17dd: a6 13        	ldx	$13                     ; 0x13 <__rc3>
    17df: 80 06        	bra	$17e7 <printf+0xa13>
    17e1: 64 45        	stz	$45                     ; 0x45 <__rc31+0x16>
    17e3: 64 3b        	stz	$3b                     ; 0x3b <__rc31+0xc>
    17e5: a6 44        	ldx	$44                     ; 0x44 <__rc31+0x15>
    17e7: a9 00        	lda	#$0
    17e9: c5 41        	cmp	$41                     ; 0x41 <__rc31+0x12>
    17eb: d0 07        	bne	$17f4 <printf+0xa20>
    17ed: e4 43        	cpx	$43                     ; 0x43 <__rc31+0x14>
    17ef: 90 0a        	bcc	$17fb <printf+0xa27>
    17f1: 4c 7e 18     	jmp	$187e <printf+0xaaa>
    17f4: c5 41        	cmp	$41                     ; 0x41 <__rc31+0x12>
    17f6: 90 03        	bcc	$17fb <printf+0xa27>
    17f8: 4c 7e 18     	jmp	$187e <printf+0xaaa>
    17fb: a6 6f        	ldx	$6f                     ; 0x6f <__rc31+0x40>
    17fd: 86 15        	stx	$15                     ; 0x15 <__rc5>
    17ff: a5 70        	lda	$70                     ; 0x70 <__rc31+0x41>
    1801: a2 ff        	ldx	#$ff
    1803: c6 43        	dec	$43                     ; 0x43 <__rc31+0x14>
    1805: e4 43        	cpx	$43                     ; 0x43 <__rc31+0x14>
    1807: d0 02        	bne	$180b <printf+0xa37>
    1809: c6 41        	dec	$41                     ; 0x41 <__rc31+0x12>
    180b: c5 6e        	cmp	$6e                     ; 0x6e <__rc31+0x3f>
    180d: d0 0c        	bne	$181b <printf+0xa47>
    180f: a6 6d        	ldx	$6d                     ; 0x6d <__rc31+0x3e>
    1811: 86 12        	stx	$12                     ; 0x12 <__rc2>
    1813: a6 15        	ldx	$15                     ; 0x15 <__rc5>
    1815: e4 12        	cpx	$12                     ; 0x12 <__rc2>
    1817: 90 06        	bcc	$181f <printf+0xa4b>
    1819: 80 3d        	bra	$1858 <printf+0xa84>
    181b: c5 6e        	cmp	$6e                     ; 0x6e <__rc31+0x3f>
    181d: b0 39        	bcs	$1858 <printf+0xa84>
    181f: a2 01        	ldx	#$1
    1821: 86 14        	stx	$14                     ; 0x14 <__rc4>
    1823: a6 7a        	ldx	$7a                     ; 0x7a <__rc31+0x4b>
    1825: a0 00        	ldy	#$0
    1827: 84 12        	sty	$12                     ; 0x12 <__rc2>
    1829: a0 00        	ldy	#$0
    182b: 84 13        	sty	$13                     ; 0x13 <__rc3>
    182d: e4 13        	cpx	$13                     ; 0x13 <__rc3>
    182f: d0 1b        	bne	$184c <printf+0xa78>
    1831: a6 79        	ldx	$79                     ; 0x79 <__rc31+0x4a>
    1833: e4 12        	cpx	$12                     ; 0x12 <__rc2>
    1835: d0 15        	bne	$184c <printf+0xa78>
    1837: a4 14        	ldy	$14                     ; 0x14 <__rc4>
    1839: 18           	clc
    183a: aa           	tax
    183b: a5 15        	lda	$15                     ; 0x15 <__rc5>
    183d: 65 73        	adc	$73                     ; 0x73 <__rc31+0x44>
    183f: 85 12        	sta	$12                     ; 0x12 <__rc2>
    1841: 8a           	txa
    1842: 65 74        	adc	$74                     ; 0x74 <__rc31+0x45>
    1844: 85 13        	sta	$13                     ; 0x13 <__rc3>
    1846: a9 30        	lda	#$30
    1848: 92 12        	sta	($12)                   ; 0x12 <__rc2>
    184a: 80 0c        	bra	$1858 <printf+0xa84>
    184c: a2 01        	ldx	#$1
    184e: 86 42        	stx	$42                     ; 0x42 <__rc31+0x13>
    1850: ca           	dex
    1851: a9 30        	lda	#$30
    1853: 20 0e 1b     	jsr	$1b0e <putchar>
    1856: a4 42        	ldy	$42                     ; 0x42 <__rc31+0x13>
    1858: a6 6f        	ldx	$6f                     ; 0x6f <__rc31+0x40>
    185a: a5 70        	lda	$70                     ; 0x70 <__rc31+0x41>
    185c: e8           	inx
    185d: d0 01        	bne	$1860 <printf+0xa8c>
    185f: 1a           	inc
    1860: 86 15        	stx	$15                     ; 0x15 <__rc5>
    1862: 86 6f        	stx	$6f                     ; 0x6f <__rc31+0x40>
    1864: 85 70        	sta	$70                     ; 0x70 <__rc31+0x41>
    1866: a2 00        	ldx	#$0
    1868: e4 41        	cpx	$41                     ; 0x41 <__rc31+0x12>
    186a: d0 09        	bne	$1875 <printf+0xaa1>
    186c: a6 44        	ldx	$44                     ; 0x44 <__rc31+0x15>
    186e: e4 43        	cpx	$43                     ; 0x43 <__rc31+0x14>
    1870: b0 0c        	bcs	$187e <printf+0xaaa>
    1872: 4c 01 18     	jmp	$1801 <printf+0xa2d>
    1875: e4 41        	cpx	$41                     ; 0x41 <__rc31+0x12>
    1877: a6 44        	ldx	$44                     ; 0x44 <__rc31+0x15>
    1879: b0 03        	bcs	$187e <printf+0xaaa>
    187b: 4c 01 18     	jmp	$1801 <printf+0xa2d>
    187e: 8a           	txa
    187f: d0 03        	bne	$1884 <printf+0xab0>
    1881: 4c b5 19     	jmp	$19b5 <printf+0xbe1>
    1884: ca           	dex
    1885: d0 03        	bne	$188a <printf+0xab6>
    1887: 4c 37 19     	jmp	$1937 <printf+0xb63>
    188a: 86 42        	stx	$42                     ; 0x42 <__rc31+0x13>
    188c: a6 86        	ldx	$86                     ; 0x86 <__rc31+0x57>
    188e: 8a           	txa
    188f: 18           	clc
    1890: 65 42        	adc	$42                     ; 0x42 <__rc31+0x13>
    1892: 85 40        	sta	$40                     ; 0x40 <__rc31+0x11>
    1894: a5 87        	lda	$87                     ; 0x87 <__rc31+0x58>
    1896: 69 00        	adc	#$0
    1898: 85 41        	sta	$41                     ; 0x41 <__rc31+0x12>
    189a: 4c 25 19     	jmp	$1925 <printf+0xb51>
    189d: 85 13        	sta	$13                     ; 0x13 <__rc3>
    189f: a9 80        	lda	#$80
    18a1: 25 6b        	and	$6b                     ; 0x6b <__rc31+0x3c>
    18a3: f0 04        	beq	$18a9 <printf+0xad5>
    18a5: a2 61        	ldx	#$61
    18a7: 80 02        	bra	$18ab <printf+0xad7>
    18a9: a2 41        	ldx	#$41
    18ab: 86 12        	stx	$12                     ; 0x12 <__rc2>
    18ad: a2 01        	ldx	#$1
    18af: 86 14        	stx	$14                     ; 0x14 <__rc4>
    18b1: 18           	clc
    18b2: a5 13        	lda	$13                     ; 0x13 <__rc3>
    18b4: 65 12        	adc	$12                     ; 0x12 <__rc2>
    18b6: 18           	clc
    18b7: 69 f6        	adc	#$f6
    18b9: a4 6f        	ldy	$6f                     ; 0x6f <__rc31+0x40>
    18bb: a6 70        	ldx	$70                     ; 0x70 <__rc31+0x41>
    18bd: e4 6e        	cpx	$6e                     ; 0x6e <__rc31+0x3f>
    18bf: d0 0c        	bne	$18cd <printf+0xaf9>
    18c1: 86 16        	stx	$16                     ; 0x16 <__rc6>
    18c3: a6 6d        	ldx	$6d                     ; 0x6d <__rc31+0x3e>
    18c5: 86 12        	stx	$12                     ; 0x12 <__rc2>
    18c7: 84 15        	sty	$15                     ; 0x15 <__rc5>
    18c9: c4 12        	cpy	$12                     ; 0x12 <__rc2>
    18cb: 80 06        	bra	$18d3 <printf+0xaff>
    18cd: 84 15        	sty	$15                     ; 0x15 <__rc5>
    18cf: 86 16        	stx	$16                     ; 0x16 <__rc6>
    18d1: e4 6e        	cpx	$6e                     ; 0x6e <__rc31+0x3f>
    18d3: a4 14        	ldy	$14                     ; 0x14 <__rc4>
    18d5: b0 38        	bcs	$190f <printf+0xb3b>
    18d7: 85 14        	sta	$14                     ; 0x14 <__rc4>
    18d9: a9 01        	lda	#$1
    18db: a6 7a        	ldx	$7a                     ; 0x7a <__rc31+0x4b>
    18dd: a0 00        	ldy	#$0
    18df: 84 12        	sty	$12                     ; 0x12 <__rc2>
    18e1: a0 00        	ldy	#$0
    18e3: 84 13        	sty	$13                     ; 0x13 <__rc3>
    18e5: e4 13        	cpx	$13                     ; 0x13 <__rc3>
    18e7: d0 1a        	bne	$1903 <printf+0xb2f>
    18e9: a6 79        	ldx	$79                     ; 0x79 <__rc31+0x4a>
    18eb: e4 12        	cpx	$12                     ; 0x12 <__rc2>
    18ed: d0 14        	bne	$1903 <printf+0xb2f>
    18ef: a8           	tay
    18f0: 18           	clc
    18f1: a5 15        	lda	$15                     ; 0x15 <__rc5>
    18f3: 65 73        	adc	$73                     ; 0x73 <__rc31+0x44>
    18f5: 85 12        	sta	$12                     ; 0x12 <__rc2>
    18f7: a5 16        	lda	$16                     ; 0x16 <__rc6>
    18f9: 65 74        	adc	$74                     ; 0x74 <__rc31+0x45>
    18fb: 85 13        	sta	$13                     ; 0x13 <__rc3>
    18fd: a5 14        	lda	$14                     ; 0x14 <__rc4>
    18ff: 92 12        	sta	($12)                   ; 0x12 <__rc2>
    1901: 80 0c        	bra	$190f <printf+0xb3b>
    1903: a2 01        	ldx	#$1
    1905: 86 43        	stx	$43                     ; 0x43 <__rc31+0x14>
    1907: ca           	dex
    1908: a5 14        	lda	$14                     ; 0x14 <__rc4>
    190a: 20 0e 1b     	jsr	$1b0e <putchar>
    190d: a4 43        	ldy	$43                     ; 0x43 <__rc31+0x14>
    190f: e6 6f        	inc	$6f                     ; 0x6f <__rc31+0x40>
    1911: d0 02        	bne	$1915 <printf+0xb41>
    1913: e6 70        	inc	$70                     ; 0x70 <__rc31+0x41>
    1915: c6 42        	dec	$42                     ; 0x42 <__rc31+0x13>
    1917: a2 ff        	ldx	#$ff
    1919: c6 40        	dec	$40                     ; 0x40 <__rc31+0x11>
    191b: e4 40        	cpx	$40                     ; 0x40 <__rc31+0x11>
    191d: d0 02        	bne	$1921 <printf+0xb4d>
    191f: c6 41        	dec	$41                     ; 0x41 <__rc31+0x12>
    1921: a5 42        	lda	$42                     ; 0x42 <__rc31+0x13>
    1923: f0 12        	beq	$1937 <printf+0xb63>
    1925: b2 40        	lda	($40)                   ; 0x40 <__rc31+0x11>
    1927: c9 0a        	cmp	#$a
    1929: 90 03        	bcc	$192e <printf+0xb5a>
    192b: 4c 9d 18     	jmp	$189d <printf+0xac9>
    192e: a2 01        	ldx	#$1
    1930: 86 14        	stx	$14                     ; 0x14 <__rc4>
    1932: 09 30        	ora	#$30
    1934: 4c b9 18     	jmp	$18b9 <printf+0xae5>
    1937: a5 48        	lda	$48                     ; 0x48 <__rc31+0x19>
    1939: c9 0a        	cmp	#$a
    193b: b0 04        	bcs	$1941 <printf+0xb6d>
    193d: 09 30        	ora	#$30
    193f: 80 18        	bra	$1959 <printf+0xb85>
    1941: 85 13        	sta	$13                     ; 0x13 <__rc3>
    1943: a9 80        	lda	#$80
    1945: 25 6b        	and	$6b                     ; 0x6b <__rc31+0x3c>
    1947: f0 04        	beq	$194d <printf+0xb79>
    1949: a2 61        	ldx	#$61
    194b: 80 02        	bra	$194f <printf+0xb7b>
    194d: a2 41        	ldx	#$41
    194f: 86 12        	stx	$12                     ; 0x12 <__rc2>
    1951: 18           	clc
    1952: a5 13        	lda	$13                     ; 0x13 <__rc3>
    1954: 65 12        	adc	$12                     ; 0x12 <__rc2>
    1956: 18           	clc
    1957: 69 f6        	adc	#$f6
    1959: a6 6f        	ldx	$6f                     ; 0x6f <__rc31+0x40>
    195b: 86 15        	stx	$15                     ; 0x15 <__rc5>
    195d: a6 70        	ldx	$70                     ; 0x70 <__rc31+0x41>
    195f: e4 6e        	cpx	$6e                     ; 0x6e <__rc31+0x3f>
    1961: d0 0e        	bne	$1971 <printf+0xb9d>
    1963: 86 16        	stx	$16                     ; 0x16 <__rc6>
    1965: a6 6d        	ldx	$6d                     ; 0x6d <__rc31+0x3e>
    1967: 86 12        	stx	$12                     ; 0x12 <__rc2>
    1969: a6 15        	ldx	$15                     ; 0x15 <__rc5>
    196b: e4 12        	cpx	$12                     ; 0x12 <__rc2>
    196d: 90 08        	bcc	$1977 <printf+0xba3>
    196f: 80 3e        	bra	$19af <printf+0xbdb>
    1971: 86 16        	stx	$16                     ; 0x16 <__rc6>
    1973: e4 6e        	cpx	$6e                     ; 0x6e <__rc31+0x3f>
    1975: b0 38        	bcs	$19af <printf+0xbdb>
    1977: 85 14        	sta	$14                     ; 0x14 <__rc4>
    1979: a9 01        	lda	#$1
    197b: a6 7a        	ldx	$7a                     ; 0x7a <__rc31+0x4b>
    197d: a0 00        	ldy	#$0
    197f: 84 12        	sty	$12                     ; 0x12 <__rc2>
    1981: a0 00        	ldy	#$0
    1983: 84 13        	sty	$13                     ; 0x13 <__rc3>
    1985: e4 13        	cpx	$13                     ; 0x13 <__rc3>
    1987: d0 1a        	bne	$19a3 <printf+0xbcf>
    1989: a6 79        	ldx	$79                     ; 0x79 <__rc31+0x4a>
    198b: e4 12        	cpx	$12                     ; 0x12 <__rc2>
    198d: d0 14        	bne	$19a3 <printf+0xbcf>
    198f: a8           	tay
    1990: 18           	clc
    1991: a5 15        	lda	$15                     ; 0x15 <__rc5>
    1993: 65 73        	adc	$73                     ; 0x73 <__rc31+0x44>
    1995: 85 12        	sta	$12                     ; 0x12 <__rc2>
    1997: a5 16        	lda	$16                     ; 0x16 <__rc6>
    1999: 65 74        	adc	$74                     ; 0x74 <__rc31+0x45>
    199b: 85 13        	sta	$13                     ; 0x13 <__rc3>
    199d: a5 14        	lda	$14                     ; 0x14 <__rc4>
    199f: 92 12        	sta	($12)                   ; 0x12 <__rc2>
    19a1: 80 0c        	bra	$19af <printf+0xbdb>
    19a3: a2 01        	ldx	#$1
    19a5: 86 40        	stx	$40                     ; 0x40 <__rc31+0x11>
    19a7: ca           	dex
    19a8: a5 14        	lda	$14                     ; 0x14 <__rc4>
    19aa: 20 0e 1b     	jsr	$1b0e <putchar>
    19ad: a4 40        	ldy	$40                     ; 0x40 <__rc31+0x11>
    19af: e6 6f        	inc	$6f                     ; 0x6f <__rc31+0x40>
    19b1: d0 02        	bne	$19b5 <printf+0xbe1>
    19b3: e6 70        	inc	$70                     ; 0x70 <__rc31+0x41>
    19b5: a5 6b        	lda	$6b                     ; 0x6b <__rc31+0x3c>
    19b7: 29 01        	and	#$1
    19b9: d0 27        	bne	$19e2 <printf+0xc0e>
    19bb: a6 6f        	ldx	$6f                     ; 0x6f <__rc31+0x40>
    19bd: 86 15        	stx	$15                     ; 0x15 <__rc5>
    19bf: a5 70        	lda	$70                     ; 0x70 <__rc31+0x41>
    19c1: a6 6d        	ldx	$6d                     ; 0x6d <__rc31+0x3e>
    19c3: 86 14        	stx	$14                     ; 0x14 <__rc4>
    19c5: a6 6e        	ldx	$6e                     ; 0x6e <__rc31+0x3f>
    19c7: 86 12        	stx	$12                     ; 0x12 <__rc2>
    19c9: 86 13        	stx	$13                     ; 0x13 <__rc3>
    19cb: c5 12        	cmp	$12                     ; 0x12 <__rc2>
    19cd: f0 03        	beq	$19d2 <printf+0xbfe>
    19cf: 4c 82 1a     	jmp	$1a82 <printf+0xcae>
    19d2: a5 14        	lda	$14                     ; 0x14 <__rc4>
    19d4: 85 12        	sta	$12                     ; 0x12 <__rc2>
    19d6: a6 15        	ldx	$15                     ; 0x15 <__rc5>
    19d8: e4 12        	cpx	$12                     ; 0x12 <__rc2>
    19da: 90 03        	bcc	$19df <printf+0xc0b>
    19dc: 4c 8a 1a     	jmp	$1a8a <printf+0xcb6>
    19df: 4c aa 1a     	jmp	$1aaa <printf+0xcd6>
    19e2: a6 6f        	ldx	$6f                     ; 0x6f <__rc31+0x40>
    19e4: 86 15        	stx	$15                     ; 0x15 <__rc5>
    19e6: a5 70        	lda	$70                     ; 0x70 <__rc31+0x41>
    19e8: a6 45        	ldx	$45                     ; 0x45 <__rc31+0x16>
    19ea: 5a           	phy
    19eb: a4 3b        	ldy	$3b                     ; 0x3b <__rc31+0xc>
    19ed: 84 12        	sty	$12                     ; 0x12 <__rc2>
    19ef: 7a           	ply
    19f0: e6 12        	inc	$12                     ; 0x12 <__rc2>
    19f2: c6 12        	dec	$12                     ; 0x12 <__rc2>
    19f4: f0 03        	beq	$19f9 <printf+0xc25>
    19f6: 4c 6e 1a     	jmp	$1a6e <printf+0xc9a>
    19f9: e0 00        	cpx	#$0
    19fb: f0 c4        	beq	$19c1 <printf+0xbed>
    19fd: 4c 6e 1a     	jmp	$1a6e <printf+0xc9a>
    1a00: c5 6e        	cmp	$6e                     ; 0x6e <__rc31+0x3f>
    1a02: b0 39        	bcs	$1a3d <printf+0xc69>
    1a04: a2 01        	ldx	#$1
    1a06: 86 14        	stx	$14                     ; 0x14 <__rc4>
    1a08: a6 7a        	ldx	$7a                     ; 0x7a <__rc31+0x4b>
    1a0a: a0 00        	ldy	#$0
    1a0c: 84 12        	sty	$12                     ; 0x12 <__rc2>
    1a0e: a0 00        	ldy	#$0
    1a10: 84 13        	sty	$13                     ; 0x13 <__rc3>
    1a12: e4 13        	cpx	$13                     ; 0x13 <__rc3>
    1a14: d0 1b        	bne	$1a31 <printf+0xc5d>
    1a16: a6 79        	ldx	$79                     ; 0x79 <__rc31+0x4a>
    1a18: e4 12        	cpx	$12                     ; 0x12 <__rc2>
    1a1a: d0 15        	bne	$1a31 <printf+0xc5d>
    1a1c: a4 14        	ldy	$14                     ; 0x14 <__rc4>
    1a1e: 18           	clc
    1a1f: aa           	tax
    1a20: a5 15        	lda	$15                     ; 0x15 <__rc5>
    1a22: 65 73        	adc	$73                     ; 0x73 <__rc31+0x44>
    1a24: 85 12        	sta	$12                     ; 0x12 <__rc2>
    1a26: 8a           	txa
    1a27: 65 74        	adc	$74                     ; 0x74 <__rc31+0x45>
    1a29: 85 13        	sta	$13                     ; 0x13 <__rc3>
    1a2b: a9 20        	lda	#$20
    1a2d: 92 12        	sta	($12)                   ; 0x12 <__rc2>
    1a2f: 80 0c        	bra	$1a3d <printf+0xc69>
    1a31: a2 01        	ldx	#$1
    1a33: 86 40        	stx	$40                     ; 0x40 <__rc31+0x11>
    1a35: ca           	dex
    1a36: a9 20        	lda	#$20
    1a38: 20 0e 1b     	jsr	$1b0e <putchar>
    1a3b: a4 40        	ldy	$40                     ; 0x40 <__rc31+0x11>
    1a3d: a6 6f        	ldx	$6f                     ; 0x6f <__rc31+0x40>
    1a3f: a5 70        	lda	$70                     ; 0x70 <__rc31+0x41>
    1a41: e8           	inx
    1a42: d0 01        	bne	$1a45 <printf+0xc71>
    1a44: 1a           	inc
    1a45: 86 15        	stx	$15                     ; 0x15 <__rc5>
    1a47: 86 6f        	stx	$6f                     ; 0x6f <__rc31+0x40>
    1a49: 85 70        	sta	$70                     ; 0x70 <__rc31+0x41>
    1a4b: a6 45        	ldx	$45                     ; 0x45 <__rc31+0x16>
    1a4d: 86 12        	stx	$12                     ; 0x12 <__rc2>
    1a4f: a6 3b        	ldx	$3b                     ; 0x3b <__rc31+0xc>
    1a51: 86 13        	stx	$13                     ; 0x13 <__rc3>
    1a53: a2 ff        	ldx	#$ff
    1a55: c6 12        	dec	$12                     ; 0x12 <__rc2>
    1a57: e4 12        	cpx	$12                     ; 0x12 <__rc2>
    1a59: d0 02        	bne	$1a5d <printf+0xc89>
    1a5b: c6 13        	dec	$13                     ; 0x13 <__rc3>
    1a5d: a6 12        	ldx	$12                     ; 0x12 <__rc2>
    1a5f: 86 45        	stx	$45                     ; 0x45 <__rc31+0x16>
    1a61: a6 13        	ldx	$13                     ; 0x13 <__rc3>
    1a63: 86 3b        	stx	$3b                     ; 0x3b <__rc31+0xc>
    1a65: d0 07        	bne	$1a6e <printf+0xc9a>
    1a67: a6 12        	ldx	$12                     ; 0x12 <__rc2>
    1a69: d0 03        	bne	$1a6e <printf+0xc9a>
    1a6b: 4c c1 19     	jmp	$19c1 <printf+0xbed>
    1a6e: c5 6e        	cmp	$6e                     ; 0x6e <__rc31+0x3f>
    1a70: f0 03        	beq	$1a75 <printf+0xca1>
    1a72: 4c 00 1a     	jmp	$1a00 <printf+0xc2c>
    1a75: a6 6d        	ldx	$6d                     ; 0x6d <__rc31+0x3e>
    1a77: 86 12        	stx	$12                     ; 0x12 <__rc2>
    1a79: a6 15        	ldx	$15                     ; 0x15 <__rc5>
    1a7b: e4 12        	cpx	$12                     ; 0x12 <__rc2>
    1a7d: b0 be        	bcs	$1a3d <printf+0xc69>
    1a7f: 4c 04 1a     	jmp	$1a04 <printf+0xc30>
    1a82: 86 12        	stx	$12                     ; 0x12 <__rc2>
    1a84: c5 12        	cmp	$12                     ; 0x12 <__rc2>
    1a86: a5 14        	lda	$14                     ; 0x14 <__rc4>
    1a88: 90 20        	bcc	$1aaa <printf+0xcd6>
    1a8a: a6 13        	ldx	$13                     ; 0x13 <__rc3>
    1a8c: d0 03        	bne	$1a91 <printf+0xcbd>
    1a8e: aa           	tax
    1a8f: f0 19        	beq	$1aaa <printf+0xcd6>
    1a91: 18           	clc
    1a92: 65 73        	adc	$73                     ; 0x73 <__rc31+0x44>
    1a94: 85 12        	sta	$12                     ; 0x12 <__rc2>
    1a96: a5 13        	lda	$13                     ; 0x13 <__rc3>
    1a98: 65 74        	adc	$74                     ; 0x74 <__rc31+0x45>
    1a9a: 85 13        	sta	$13                     ; 0x13 <__rc3>
    1a9c: a2 ff        	ldx	#$ff
    1a9e: c6 12        	dec	$12                     ; 0x12 <__rc2>
    1aa0: e4 12        	cpx	$12                     ; 0x12 <__rc2>
    1aa2: d0 02        	bne	$1aa6 <printf+0xcd2>
    1aa4: c6 13        	dec	$13                     ; 0x13 <__rc3>
    1aa6: a9 00        	lda	#$0
    1aa8: 92 12        	sta	($12)                   ; 0x12 <__rc2>
    1aaa: e6 3c        	inc	$3c                     ; 0x3c <__rc31+0xd>
    1aac: d0 02        	bne	$1ab0 <printf+0xcdc>
    1aae: e6 3d        	inc	$3d                     ; 0x3d <__rc31+0xe>
    1ab0: a6 3d        	ldx	$3d                     ; 0x3d <__rc31+0xe>
    1ab2: e4 3f        	cpx	$3f                     ; 0x3f <__rc31+0x10>
    1ab4: f0 03        	beq	$1ab9 <printf+0xce5>
    1ab6: 4c 39 0e     	jmp	$e39 <printf+0x65>
    1ab9: a6 3c        	ldx	$3c                     ; 0x3c <__rc31+0xd>
    1abb: e4 3e        	cpx	$3e                     ; 0x3e <__rc31+0xf>
    1abd: f0 03        	beq	$1ac2 <printf+0xcee>
    1abf: 4c 39 0e     	jmp	$e39 <printf+0x65>
    1ac2: b2 3e        	lda	($3e)                   ; 0x3e <__rc31+0xf>
    1ac4: a2 00        	ldx	#$0
    1ac6: 4c 50 0e     	jmp	$e50 <printf+0x7c>
    1ac9: a2 20        	ldx	#$20
    1acb: 86 80        	stx	$80                     ; 0x80 <__rc31+0x51>
    1acd: 4c 54 15     	jmp	$1554 <printf+0x780>
    1ad0: e4 41        	cpx	$41                     ; 0x41 <__rc31+0x12>
    1ad2: a6 3a        	ldx	$3a                     ; 0x3a <__rc31+0xb>
    1ad4: b0 03        	bcs	$1ad9 <printf+0xd05>
    1ad6: 4c 26 15     	jmp	$1526 <printf+0x752>
    1ad9: a5 44        	lda	$44                     ; 0x44 <__rc31+0x15>
    1adb: 85 40        	sta	$40                     ; 0x40 <__rc31+0x11>
    1add: 64 41        	stz	$41                     ; 0x41 <__rc31+0x12>
    1adf: e6 40        	inc	$40                     ; 0x40 <__rc31+0x11>
    1ae1: f0 03        	beq	$1ae6 <printf+0xd12>
    1ae3: 4c 26 15     	jmp	$1526 <printf+0x752>
    1ae6: e6 41        	inc	$41                     ; 0x41 <__rc31+0x12>
    1ae8: 4c 26 15     	jmp	$1526 <printf+0x752>
    1aeb: 86 7f        	stx	$7f                     ; 0x7f <__rc31+0x50>
    1aed: a2 58        	ldx	#$58
    1aef: 86 84        	stx	$84                     ; 0x84 <__rc31+0x55>
    1af1: a2 01        	ldx	#$1
    1af3: 86 40        	stx	$40                     ; 0x40 <__rc31+0x11>
    1af5: a2 30        	ldx	#$30
    1af7: 86 80        	stx	$80                     ; 0x80 <__rc31+0x51>
    1af9: a2 02        	ldx	#$2
    1afb: 86 16        	stx	$16                     ; 0x16 <__rc6>
    1afd: a2 00        	ldx	#$0
    1aff: 86 43        	stx	$43                     ; 0x43 <__rc31+0x14>
    1b01: 4c 5a 15     	jmp	$155a <printf+0x786>
    1b04: a6 13        	ldx	$13                     ; 0x13 <__rc3>
    1b06: 64 45        	stz	$45                     ; 0x45 <__rc31+0x16>
    1b08: 64 3b        	stz	$3b                     ; 0x3b <__rc31+0xc>
    1b0a: 4c e7 17     	jmp	$17e7 <printf+0xa13>
    1b0d: 60           	rts

00001b0e <putchar>:
    1b0e: 86 12        	stx	$12                     ; 0x12 <__rc2>
    1b10: 85 93        	sta	$93                     ; 0x93 <__rc31+0x64>
    1b12: 85 32        	sta	$32                     ; 0x32 <__putchar.s>
    1b14: a6 01        	ldx	$1                      ; 0x1 <__zp_data_size+0x1>
    1b16: 86 94        	stx	$94                     ; 0x94 <__rc31+0x65>
    1b18: a6 31        	ldx	$31                     ; 0x31 <_row>
    1b1a: a0 50        	ldy	#$50
    1b1c: 8c 00 de     	sty	$de00                   ; 0xde00 <__heap_start+0xbff4>
    1b1f: 9c 01 de     	stz	$de01                   ; 0xde01 <__heap_start+0xbff5>
    1b22: 8e 02 de     	stx	$de02                   ; 0xde02 <__heap_start+0xbff6>
    1b25: 9c 03 de     	stz	$de03                   ; 0xde03 <__heap_start+0xbff7>
    1b28: ae 10 de     	ldx	$de10                   ; 0xde10 <__heap_start+0xc004>
    1b2b: 86 13        	stx	$13                     ; 0x13 <__rc3>
    1b2d: ad 11 de     	lda	$de11                   ; 0xde11 <__heap_start+0xc005>
    1b30: ae 12 de     	ldx	$de12                   ; 0xde12 <__heap_start+0xc006>
    1b33: 86 1a        	stx	$1a                     ; 0x1a <__rc10>
    1b35: ae 13 de     	ldx	$de13                   ; 0xde13 <__heap_start+0xc007>
    1b38: 86 1b        	stx	$1b                     ; 0x1b <__rc11>
    1b3a: 9c 08 de     	stz	$de08                   ; 0xde08 <__heap_start+0xbffc>
    1b3d: a2 c0        	ldx	#$c0
    1b3f: 8e 09 de     	stx	$de09                   ; 0xde09 <__heap_start+0xbffd>
    1b42: 9c 0a de     	stz	$de0a                   ; 0xde0a <__heap_start+0xbffe>
    1b45: 9c 0b de     	stz	$de0b                   ; 0xde0b <__heap_start+0xbfff>
    1b48: a6 13        	ldx	$13                     ; 0x13 <__rc3>
    1b4a: 8e 0c de     	stx	$de0c                   ; 0xde0c <__heap_start+0xc000>
    1b4d: 8d 0d de     	sta	$de0d                   ; 0xde0d <__heap_start+0xc001>
    1b50: 64 13        	stz	$13                     ; 0x13 <__rc3>
    1b52: a2 00        	ldx	#$0
    1b54: 86 14        	stx	$14                     ; 0x14 <__rc4>
    1b56: a2 c0        	ldx	#$c0
    1b58: 86 15        	stx	$15                     ; 0x15 <__rc5>
    1b5a: a2 11        	ldx	#$11
    1b5c: 86 16        	stx	$16                     ; 0x16 <__rc6>
    1b5e: a2 c9        	ldx	#$c9
    1b60: 86 17        	stx	$17                     ; 0x17 <__rc7>
    1b62: a2 10        	ldx	#$10
    1b64: 86 18        	stx	$18                     ; 0x18 <__rc8>
    1b66: a2 c9        	ldx	#$c9
    1b68: 86 19        	stx	$19                     ; 0x19 <__rc9>
    1b6a: a6 1a        	ldx	$1a                     ; 0x1a <__rc10>
    1b6c: 8e 0e de     	stx	$de0e                   ; 0xde0e <__heap_start+0xc002>
    1b6f: a6 1b        	ldx	$1b                     ; 0x1b <__rc11>
    1b71: 8e 0f de     	stx	$de0f                   ; 0xde0f <__heap_start+0xc003>
    1b74: ae 18 de     	ldx	$de18                   ; 0xde18 <__heap_start+0xc00c>
    1b77: 86 1c        	stx	$1c                     ; 0x1c <__rc12>
    1b79: ad 19 de     	lda	$de19                   ; 0xde19 <__heap_start+0xc00d>
    1b7c: ae 1a de     	ldx	$de1a                   ; 0xde1a <__heap_start+0xc00e>
    1b7f: ae 1b de     	ldx	$de1b                   ; 0xde1b <__heap_start+0xc00f>
    1b82: 85 1d        	sta	$1d                     ; 0x1d <__rc13>
    1b84: 64 1a        	stz	$1a                     ; 0x1a <__rc10>
    1b86: a2 f0        	ldx	#$f0
    1b88: 86 95        	stx	$95                     ; 0x95 <__rc31+0x66>
    1b8a: a2 20        	ldx	#$20
    1b8c: 86 96        	stx	$96                     ; 0x96 <__rc31+0x67>
    1b8e: 80 13        	bra	$1ba3 <putchar+0x95>
    1b90: a5 1c        	lda	$1c                     ; 0x1c <__rc12>
    1b92: 18           	clc
    1b93: 69 50        	adc	#$50
    1b95: 85 1c        	sta	$1c                     ; 0x1c <__rc12>
    1b97: a5 1d        	lda	$1d                     ; 0x1d <__rc13>
    1b99: 69 00        	adc	#$0
    1b9b: 85 1d        	sta	$1d                     ; 0x1d <__rc13>
    1b9d: e6 13        	inc	$13                     ; 0x13 <__rc3>
    1b9f: d0 02        	bne	$1ba3 <putchar+0x95>
    1ba1: e6 1a        	inc	$1a                     ; 0x1a <__rc10>
    1ba3: a9 32        	lda	#$32
    1ba5: 18           	clc
    1ba6: 65 13        	adc	$13                     ; 0x13 <__rc3>
    1ba8: 85 1e        	sta	$1e                     ; 0x1e <__rc14>
    1baa: a9 00        	lda	#$0
    1bac: 65 1a        	adc	$1a                     ; 0x1a <__rc10>
    1bae: 85 1f        	sta	$1f                     ; 0x1f <__rc15>
    1bb0: b2 1e        	lda	($1e)                   ; 0x1e <__rc14>
    1bb2: c9 0a        	cmp	#$a
    1bb4: f0 2e        	beq	$1be4 <putchar+0xd6>
    1bb6: c9 0d        	cmp	#$d
    1bb8: f0 2a        	beq	$1be4 <putchar+0xd6>
    1bba: aa           	tax
    1bbb: d0 03        	bne	$1bc0 <putchar+0xb2>
    1bbd: 4c f6 1c     	jmp	$1cf6 <putchar+0x1e8>
    1bc0: a2 03        	ldx	#$3
    1bc2: 86 01        	stx	$1                      ; 0x1 <__zp_data_size+0x1>
    1bc4: 84 1b        	sty	$1b                     ; 0x1b <__rc11>
    1bc6: a4 30        	ldy	$30                     ; 0x30 <_col>
    1bc8: a9 f0        	lda	#$f0
    1bca: aa           	tax
    1bcb: 86 95        	stx	$95                     ; 0x95 <__rc31+0x66>
    1bcd: 91 1c        	sta	($1c),y                 ; 0x1c <__rc12>
    1bcf: a2 02        	ldx	#$2
    1bd1: 86 01        	stx	$1                      ; 0x1 <__zp_data_size+0x1>
    1bd3: b2 1e        	lda	($1e)                   ; 0x1e <__rc14>
    1bd5: a4 30        	ldy	$30                     ; 0x30 <_col>
    1bd7: 91 1c        	sta	($1c),y                 ; 0x1c <__rc12>
    1bd9: a4 1b        	ldy	$1b                     ; 0x1b <__rc11>
    1bdb: a6 30        	ldx	$30                     ; 0x30 <_col>
    1bdd: e8           	inx
    1bde: e6 30        	inc	$30                     ; 0x30 <_col>
    1be0: e0 50        	cpx	#$50
    1be2: d0 b9        	bne	$1b9d <putchar+0x8f>
    1be4: 64 30        	stz	$30                     ; 0x30 <_col>
    1be6: a6 31        	ldx	$31                     ; 0x31 <_row>
    1be8: e8           	inx
    1be9: e6 31        	inc	$31                     ; 0x31 <_row>
    1beb: e0 1e        	cpx	#$1e
    1bed: f0 03        	beq	$1bf2 <putchar+0xe4>
    1bef: 4c 90 1b     	jmp	$1b90 <putchar+0x82>
    1bf2: a2 03        	ldx	#$3
    1bf4: 86 01        	stx	$1                      ; 0x1 <__zp_data_size+0x1>
    1bf6: a2 09        	ldx	#$9
    1bf8: a9 10        	lda	#$10
    1bfa: 5a           	phy
    1bfb: a0 00        	ldy	#$0
    1bfd: 84 1c        	sty	$1c                     ; 0x1c <__rc12>
    1bff: a0 c0        	ldy	#$c0
    1c01: 84 1d        	sty	$1d                     ; 0x1d <__rc13>
    1c03: 7a           	ply
    1c04: 85 1b        	sta	$1b                     ; 0x1b <__rc11>
    1c06: b1 1c        	lda	($1c),y                 ; 0x1c <__rc12>
    1c08: 92 1c        	sta	($1c)                   ; 0x1c <__rc12>
    1c0a: a9 ff        	lda	#$ff
    1c0c: c6 1b        	dec	$1b                     ; 0x1b <__rc11>
    1c0e: c5 1b        	cmp	$1b                     ; 0x1b <__rc11>
    1c10: d0 01        	bne	$1c13 <putchar+0x105>
    1c12: ca           	dex
    1c13: e6 1c        	inc	$1c                     ; 0x1c <__rc12>
    1c15: d0 02        	bne	$1c19 <putchar+0x10b>
    1c17: e6 1d        	inc	$1d                     ; 0x1d <__rc13>
    1c19: 8a           	txa
    1c1a: d0 ea        	bne	$1c06 <putchar+0xf8>
    1c1c: a5 1b        	lda	$1b                     ; 0x1b <__rc11>
    1c1e: d0 e6        	bne	$1c06 <putchar+0xf8>
    1c20: a2 02        	ldx	#$2
    1c22: 86 01        	stx	$1                      ; 0x1 <__zp_data_size+0x1>
    1c24: a2 09        	ldx	#$9
    1c26: a9 10        	lda	#$10
    1c28: 5a           	phy
    1c29: a0 00        	ldy	#$0
    1c2b: 84 1c        	sty	$1c                     ; 0x1c <__rc12>
    1c2d: a0 c0        	ldy	#$c0
    1c2f: 84 1d        	sty	$1d                     ; 0x1d <__rc13>
    1c31: 7a           	ply
    1c32: 85 1b        	sta	$1b                     ; 0x1b <__rc11>
    1c34: b1 1c        	lda	($1c),y                 ; 0x1c <__rc12>
    1c36: 92 1c        	sta	($1c)                   ; 0x1c <__rc12>
    1c38: a9 ff        	lda	#$ff
    1c3a: c6 1b        	dec	$1b                     ; 0x1b <__rc11>
    1c3c: c5 1b        	cmp	$1b                     ; 0x1b <__rc11>
    1c3e: d0 01        	bne	$1c41 <putchar+0x133>
    1c40: ca           	dex
    1c41: e6 1c        	inc	$1c                     ; 0x1c <__rc12>
    1c43: d0 02        	bne	$1c47 <putchar+0x139>
    1c45: e6 1d        	inc	$1d                     ; 0x1d <__rc13>
    1c47: 8a           	txa
    1c48: d0 ea        	bne	$1c34 <putchar+0x126>
    1c4a: a5 1b        	lda	$1b                     ; 0x1b <__rc11>
    1c4c: d0 e6        	bne	$1c34 <putchar+0x126>
    1c4e: a2 50        	ldx	#$50
    1c50: 86 1b        	stx	$1b                     ; 0x1b <__rc11>
    1c52: a2 02        	ldx	#$2
    1c54: 86 01        	stx	$1                      ; 0x1 <__zp_data_size+0x1>
    1c56: e8           	inx
    1c57: 86 01        	stx	$1                      ; 0x1 <__zp_data_size+0x1>
    1c59: a2 50        	ldx	#$50
    1c5b: a0 11        	ldy	#$11
    1c5d: 84 1c        	sty	$1c                     ; 0x1c <__rc12>
    1c5f: a0 c9        	ldy	#$c9
    1c61: 84 1d        	sty	$1d                     ; 0x1d <__rc13>
    1c63: a0 10        	ldy	#$10
    1c65: 84 1e        	sty	$1e                     ; 0x1e <__rc14>
    1c67: a0 c9        	ldy	#$c9
    1c69: 84 1f        	sty	$1f                     ; 0x1f <__rc15>
    1c6b: a5 95        	lda	$95                     ; 0x95 <__rc31+0x66>
    1c6d: a4 1e        	ldy	$1e                     ; 0x1e <__rc14>
    1c6f: 84 22        	sty	$22                     ; 0x22 <__rc18>
    1c71: a4 1f        	ldy	$1f                     ; 0x1f <__rc15>
    1c73: 84 23        	sty	$23                     ; 0x23 <__rc19>
    1c75: a4 1c        	ldy	$1c                     ; 0x1c <__rc12>
    1c77: 84 1e        	sty	$1e                     ; 0x1e <__rc14>
    1c79: a4 1d        	ldy	$1d                     ; 0x1d <__rc13>
    1c7b: 84 1f        	sty	$1f                     ; 0x1f <__rc15>
    1c7d: 92 22        	sta	($22)                   ; 0x22 <__rc18>
    1c7f: e6 1c        	inc	$1c                     ; 0x1c <__rc12>
    1c81: d0 02        	bne	$1c85 <putchar+0x177>
    1c83: e6 1d        	inc	$1d                     ; 0x1d <__rc13>
    1c85: ca           	dex
    1c86: d0 e5        	bne	$1c6d <putchar+0x15f>
    1c88: a2 f0        	ldx	#$f0
    1c8a: 86 95        	stx	$95                     ; 0x95 <__rc31+0x66>
    1c8c: a2 02        	ldx	#$2
    1c8e: 86 01        	stx	$1                      ; 0x1 <__zp_data_size+0x1>
    1c90: a2 50        	ldx	#$50
    1c92: a0 11        	ldy	#$11
    1c94: 84 1c        	sty	$1c                     ; 0x1c <__rc12>
    1c96: a0 c9        	ldy	#$c9
    1c98: 84 1d        	sty	$1d                     ; 0x1d <__rc13>
    1c9a: a0 10        	ldy	#$10
    1c9c: 84 1e        	sty	$1e                     ; 0x1e <__rc14>
    1c9e: a0 c9        	ldy	#$c9
    1ca0: 84 1f        	sty	$1f                     ; 0x1f <__rc15>
    1ca2: a5 96        	lda	$96                     ; 0x96 <__rc31+0x67>
    1ca4: a4 1e        	ldy	$1e                     ; 0x1e <__rc14>
    1ca6: 84 22        	sty	$22                     ; 0x22 <__rc18>
    1ca8: a4 1f        	ldy	$1f                     ; 0x1f <__rc15>
    1caa: 84 23        	sty	$23                     ; 0x23 <__rc19>
    1cac: a4 1c        	ldy	$1c                     ; 0x1c <__rc12>
    1cae: 84 1e        	sty	$1e                     ; 0x1e <__rc14>
    1cb0: a4 1d        	ldy	$1d                     ; 0x1d <__rc13>
    1cb2: 84 1f        	sty	$1f                     ; 0x1f <__rc15>
    1cb4: 92 22        	sta	($22)                   ; 0x22 <__rc18>
    1cb6: e6 1c        	inc	$1c                     ; 0x1c <__rc12>
    1cb8: d0 02        	bne	$1cbc <putchar+0x1ae>
    1cba: e6 1d        	inc	$1d                     ; 0x1d <__rc13>
    1cbc: ca           	dex
    1cbd: d0 e5        	bne	$1ca4 <putchar+0x196>
    1cbf: a2 20        	ldx	#$20
    1cc1: 86 96        	stx	$96                     ; 0x96 <__rc31+0x67>
    1cc3: c6 31        	dec	$31                     ; 0x31 <_row>
    1cc5: 9c 08 de     	stz	$de08                   ; 0xde08 <__heap_start+0xbffc>
    1cc8: a2 c0        	ldx	#$c0
    1cca: 8e 09 de     	stx	$de09                   ; 0xde09 <__heap_start+0xbffd>
    1ccd: 9c 0a de     	stz	$de0a                   ; 0xde0a <__heap_start+0xbffe>
    1cd0: 9c 0b de     	stz	$de0b                   ; 0xde0b <__heap_start+0xbfff>
    1cd3: a2 1d        	ldx	#$1d
    1cd5: 8e 0c de     	stx	$de0c                   ; 0xde0c <__heap_start+0xc000>
    1cd8: 9c 0d de     	stz	$de0d                   ; 0xde0d <__heap_start+0xc001>
    1cdb: 9c 0e de     	stz	$de0e                   ; 0xde0e <__heap_start+0xc002>
    1cde: 9c 0f de     	stz	$de0f                   ; 0xde0f <__heap_start+0xc003>
    1ce1: ae 18 de     	ldx	$de18                   ; 0xde18 <__heap_start+0xc00c>
    1ce4: ac 19 de     	ldy	$de19                   ; 0xde19 <__heap_start+0xc00d>
    1ce7: ad 1a de     	lda	$de1a                   ; 0xde1a <__heap_start+0xc00e>
    1cea: ad 1b de     	lda	$de1b                   ; 0xde1b <__heap_start+0xc00f>
    1ced: 86 1c        	stx	$1c                     ; 0x1c <__rc12>
    1cef: 84 1d        	sty	$1d                     ; 0x1d <__rc13>
    1cf1: a4 1b        	ldy	$1b                     ; 0x1b <__rc11>
    1cf3: 4c 9d 1b     	jmp	$1b9d <putchar+0x8f>
    1cf6: a6 94        	ldx	$94                     ; 0x94 <__rc31+0x65>
    1cf8: 86 01        	stx	$1                      ; 0x1 <__zp_data_size+0x1>
    1cfa: a6 30        	ldx	$30                     ; 0x30 <_col>
    1cfc: a4 31        	ldy	$31                     ; 0x31 <_row>
    1cfe: 8e 14 d0     	stx	$d014                   ; 0xd014 <__heap_start+0xb208>
    1d01: 9c 15 d0     	stz	$d015                   ; 0xd015 <__heap_start+0xb209>
    1d04: 84 31        	sty	$31                     ; 0x31 <_row>
    1d06: 8c 16 d0     	sty	$d016                   ; 0xd016 <__heap_start+0xb20a>
    1d09: 9c 17 d0     	stz	$d017                   ; 0xd017 <__heap_start+0xb20b>
    1d0c: a6 12        	ldx	$12                     ; 0x12 <__rc2>
    1d0e: a5 93        	lda	$93                     ; 0x93 <__rc31+0x64>
    1d10: 60           	rts

00001d11 <memcpy>:
    1d11: a8           	tay
    1d12: 8a           	txa
    1d13: d0 03        	bne	$1d18 <memcpy+0x7>
    1d15: 98           	tya
    1d16: f0 24        	beq	$1d3c <memcpy+0x2b>
    1d18: a5 12        	lda	$12                     ; 0x12 <__rc2>
    1d1a: 85 16        	sta	$16                     ; 0x16 <__rc6>
    1d1c: a5 13        	lda	$13                     ; 0x13 <__rc3>
    1d1e: 85 17        	sta	$17                     ; 0x17 <__rc7>
    1d20: b2 14        	lda	($14)                   ; 0x14 <__rc4>
    1d22: 92 16        	sta	($16)                   ; 0x16 <__rc6>
    1d24: e6 16        	inc	$16                     ; 0x16 <__rc6>
    1d26: d0 02        	bne	$1d2a <memcpy+0x19>
    1d28: e6 17        	inc	$17                     ; 0x17 <__rc7>
    1d2a: e6 14        	inc	$14                     ; 0x14 <__rc4>
    1d2c: d0 02        	bne	$1d30 <memcpy+0x1f>
    1d2e: e6 15        	inc	$15                     ; 0x15 <__rc5>
    1d30: 88           	dey
    1d31: c0 ff        	cpy	#$ff
    1d33: d0 01        	bne	$1d36 <memcpy+0x25>
    1d35: ca           	dex
    1d36: 8a           	txa
    1d37: d0 e7        	bne	$1d20 <memcpy+0xf>
    1d39: 98           	tya
    1d3a: d0 e4        	bne	$1d20 <memcpy+0xf>
    1d3c: 60           	rts

00001d3d <__memset>:
    1d3d: a4 14        	ldy	$14                     ; 0x14 <__rc4>
    1d3f: d0 04        	bne	$1d45 <__memset+0x8>
    1d41: e0 00        	cpx	#$0
    1d43: f0 17        	beq	$1d5c <__memset+0x1f>
    1d45: 92 12        	sta	($12)                   ; 0x12 <__rc2>
    1d47: e6 12        	inc	$12                     ; 0x12 <__rc2>
    1d49: d0 02        	bne	$1d4d <__memset+0x10>
    1d4b: e6 13        	inc	$13                     ; 0x13 <__rc3>
    1d4d: ca           	dex
    1d4e: e0 ff        	cpx	#$ff
    1d50: d0 02        	bne	$1d54 <__memset+0x17>
    1d52: c6 14        	dec	$14                     ; 0x14 <__rc4>
    1d54: a4 14        	ldy	$14                     ; 0x14 <__rc4>
    1d56: d0 ed        	bne	$1d45 <__memset+0x8>
    1d58: e0 00        	cpx	#$0
    1d5a: d0 e9        	bne	$1d45 <__memset+0x8>
    1d5c: 60           	rts
