
ether.elf:	file format elf32-mos

SYMBOL TABLE:
00000000 l    df *ABS*	00000000 zero-zp-bss.c
00000000 l    df *ABS*	00000000 copy-zp-data.c
00000000 l    df *ABS*	00000000 ld-temp.o
00000388 l     F .text	00000395 f256Init
0000007e l     O .zp.bss	00000007 kernelEventData
00001b94 l     O .rodata	00000030 textColors
00000079 l     O .zp.bss	00000001 _col
0000007a l     O .zp.bss	00000001 _row
0000007d l     O .zp.bss	00000001 kernelError
00000723 l     F .text	00000258 f256main
000009bc l     F .text	00000060 lilpause
0000177d l     F .text	0000009e printf
00001ad5 l     F .text	00000039 puts
0000097b l     F .text	00000041 getchar
0000181b l     F .text	000000e2 sprintf
00000a21 l     F .text	00000b76 _ZN12_GLOBAL__N_15printEPKcP6Status
00001597 l     F .text	000000d7 _ZN12_GLOBAL__N_13putEcP6Status
0000166e l     F .text	0000010f _ZN12_GLOBAL__N_112print_stringEPKcP6Status
000018fd l     F .text	000001d8 putchar
0000007b l     O .zp.bss	00000002 __putchar.s
0000071d g     F .text	00000006 main
0000035a g       .text	00000000 __after_main
00000349 g       .text	00000000 __do_init_stack
00000354 g       .text	00000000 __do_copy_zp_data
00000371 g     F .text	00000017 __copy_zp_data
00000351 g       .text	00000000 __do_zero_zp_bss
0000035e g     F .text	00000013 __zero_zp_bss
00000a1c g     F .text	00000005 exit
0000035d g       .text	00000000 _fini
00001b3a  w    F .text	00000020 __memset
00001000  w      *ABS*	00000000 __heap_default_limit
00001c68 g       .noinit	00000000 __heap_start
00001b0e  w    F .text	0000002c memcpy
00000010 g       *ABS*	00000000 __rc0
00000012 g       *ABS*	00000000 __rc2
00000014 g       *ABS*	00000000 __rc4
00000016 g       *ABS*	00000000 __rc6
00000018 g       *ABS*	00000000 __rc8
0000001a g       *ABS*	00000000 __rc10
0000001c g       *ABS*	00000000 __rc12
0000001e g       *ABS*	00000000 __rc14
00000020 g       *ABS*	00000000 __rc16
00000022 g       *ABS*	00000000 __rc18
00000024 g       *ABS*	00000000 __rc20
00000026 g       *ABS*	00000000 __rc22
00000028 g       *ABS*	00000000 __rc24
0000002a g       *ABS*	00000000 __rc26
0000002c g       *ABS*	00000000 __rc28
0000002e g       *ABS*	00000000 __rc30
0000002f g       *ABS*	00000000 __rc31
00000300 g       *ABS*	00000000 __f256_start
0000a000 g       *ABS*	00000000 __stack
0000a000 g       *ABS*	00000000 __SLOT_ADDR
0800a000 g       *ABS*	00000000 __block8_lma
00002000 g       *ABS*	00000000 __BLOCK_SIZE
0900a000 g       *ABS*	00000000 __block9_lma
0a00a000 g       *ABS*	00000000 __block10_lma
0b00a000 g       *ABS*	00000000 __block11_lma
0c00a000 g       *ABS*	00000000 __block12_lma
0d00a000 g       *ABS*	00000000 __block13_lma
0e00a000 g       *ABS*	00000000 __block14_lma
0f00a000 g       *ABS*	00000000 __block15_lma
1000a000 g       *ABS*	00000000 __block16_lma
1100a000 g       *ABS*	00000000 __block17_lma
1200a000 g       *ABS*	00000000 __block18_lma
1300a000 g       *ABS*	00000000 __block19_lma
1400a000 g       *ABS*	00000000 __block20_lma
1500a000 g       *ABS*	00000000 __block21_lma
1600a000 g       *ABS*	00000000 __block22_lma
1700a000 g       *ABS*	00000000 __block23_lma
00001c55 g       .bss	00000000 __bss_start
00000349 g       .text	00000000 _start
0000002d g       *ABS*	00000000 __rc29
0000002b g       *ABS*	00000000 __rc27
00000029 g       *ABS*	00000000 __rc25
00000027 g       *ABS*	00000000 __rc23
00000025 g       *ABS*	00000000 __rc21
00000023 g       *ABS*	00000000 __rc19
00000021 g       *ABS*	00000000 __rc17
0000001f g       *ABS*	00000000 __rc15
0000001d g       *ABS*	00000000 __rc13
0000001b g       *ABS*	00000000 __rc11
00000019 g       *ABS*	00000000 __rc9
00000017 g       *ABS*	00000000 __rc7
00000015 g       *ABS*	00000000 __rc5
00000013 g       *ABS*	00000000 __rc3
00000011 g       *ABS*	00000000 __rc1
00000030 g       .zp.data	00000000 __zp_data_start
00000300 g       *ABS*	00000000 __zp_data_load_start
00000049 g       *ABS*	00000000 __zp_data_size
00000079 g       .zp.bss	00000000 __zp_bss_start
0000000c g       *ABS*	00000000 __zp_bss_size
00000349 g       .text	00000000 _init
00001b5a g       .text	00000000 __init_array_start
00001b5a g       .text	00000000 __init_array_end
00001b5a g       .text	00000000 __fini_array_start
00001b5a g       .text	00000000 __fini_array_end
00001c55 g       .data	00000000 __data_start
00001c55 g       .data	00000000 __data_end
00001c55 g       *ABS*	00000000 __data_load_start
00000000 g       *ABS*	00000000 __data_size
00001c55 g       .bss	00000000 __bss_end
00000000 g       *ABS*	00000000 __bss_size
00001c68 g       .noinit	00000000 end_block8
00001c68 g       .noinit	00000000 end_block9
00001c68 g       .noinit	00000000 end_block10
00001c68 g       .noinit	00000000 end_block11
00001c68 g       .noinit	00000000 end_block12
00001c68 g       .noinit	00000000 end_block13
00001c68 g       .noinit	00000000 end_block14
00001c68 g       .noinit	00000000 end_block15
00001c68 g       .noinit	00000000 end_block16
00001c68 g       .noinit	00000000 end_block17
00001c68 g       .noinit	00000000 end_block18
00001c68 g       .noinit	00000000 end_block19
00001c68 g       .noinit	00000000 end_block20
00001c68 g       .noinit	00000000 end_block21
00001c68 g       .noinit	00000000 end_block22
00001c68 g       .noinit	00000000 end_block23

Disassembly of section .text:

00000349 <_start>:
     349: a9 00        	lda	#$0
     34b: 85 10        	sta	$10                     ; 0x10 <__rc0>
     34d: a9 a0        	lda	#$a0
     34f: 85 11        	sta	$11                     ; 0x11 <__rc1>

00000351 <__do_zero_zp_bss>:
     351: 20 5e 03     	jsr	$35e <__zero_zp_bss>

00000354 <__do_copy_zp_data>:
     354: 20 71 03     	jsr	$371 <__copy_zp_data>
     357: 20 1d 07     	jsr	$71d <main>

0000035a <__after_main>:
     35a: 4c 1c 0a     	jmp	$a1c <exit>

0000035d <_fini>:
     35d: 60           	rts

0000035e <__zero_zp_bss>:
     35e: a2 0c        	ldx	#$c
     360: a0 00        	ldy	#$0
     362: a9 79        	lda	#$79
     364: 85 12        	sta	$12                     ; 0x12 <__rc2>
     366: a9 00        	lda	#$0
     368: 85 13        	sta	$13                     ; 0x13 <__rc3>
     36a: a9 00        	lda	#$0
     36c: 84 14        	sty	$14                     ; 0x14 <__rc4>
     36e: 4c 3a 1b     	jmp	$1b3a <__memset>

00000371 <__copy_zp_data>:
     371: a9 49        	lda	#$49
     373: a2 00        	ldx	#$0
     375: a0 30        	ldy	#$30
     377: 84 12        	sty	$12                     ; 0x12 <__rc2>
     379: a0 00        	ldy	#$0
     37b: 84 13        	sty	$13                     ; 0x13 <__rc3>
     37d: a0 00        	ldy	#$0
     37f: 84 14        	sty	$14                     ; 0x14 <__rc4>
     381: a0 03        	ldy	#$3
     383: 84 15        	sty	$15                     ; 0x15 <__rc5>
     385: 4c 0e 1b     	jmp	$1b0e <memcpy>

00000388 <f256Init>:
     388: 64 14        	stz	$14                     ; 0x14 <__rc4>
     38a: a2 00        	ldx	#$0
     38c: 86 12        	stx	$12                     ; 0x12 <__rc2>
     38e: a2 c0        	ldx	#$c0
     390: 86 13        	stx	$13                     ; 0x13 <__rc3>
     392: 64 01        	stz	$1                      ; 0x1 <__data_size+0x1>
     394: a2 3f        	ldx	#$3f
     396: 8e 00 d0     	stx	$d000                   ; 0xd000 <end_block9+0xb398>
     399: a2 b3        	ldx	#$b3
     39b: 86 00        	stx	$0                      ; 0x0 <__data_size>
     39d: 64 08        	stz	$8                      ; 0x8 <__data_size+0x8>
     39f: a2 01        	ldx	#$1
     3a1: 86 09        	stx	$9                      ; 0x9 <__data_size+0x9>
     3a3: e8           	inx
     3a4: 86 0a        	stx	$a                      ; 0xa <__data_size+0xa>
     3a6: e8           	inx
     3a7: 86 0b        	stx	$b                      ; 0xb <__data_size+0xb>
     3a9: e8           	inx
     3aa: 86 0c        	stx	$c                      ; 0xc <__zp_bss_size>
     3ac: e8           	inx
     3ad: 86 0d        	stx	$d                      ; 0xd <__zp_bss_size+0x1>
     3af: a2 7e        	ldx	#$7e
     3b1: a0 00        	ldy	#$0
     3b3: 86 f0        	stx	$f0                     ; 0xf0 <__zp_data_size+0xa7>
     3b5: 84 f1        	sty	$f1                     ; 0xf1 <__zp_data_size+0xa8>
     3b7: a2 00        	ldx	#$0
     3b9: 86 18        	stx	$18                     ; 0x18 <__rc8>
     3bb: ca           	dex
     3bc: 86 19        	stx	$19                     ; 0x19 <__rc9>
     3be: 8a           	txa
     3bf: 0a           	asl
     3c0: 0a           	asl
     3c1: 18           	clc
     3c2: 69 d4        	adc	#$d4
     3c4: 85 1a        	sta	$1a                     ; 0x1a <__rc10>
     3c6: a0 00        	ldy	#$0
     3c8: 64 17        	stz	$17                     ; 0x17 <__rc7>
     3ca: 64 16        	stz	$16                     ; 0x16 <__rc6>
     3cc: a6 19        	ldx	$19                     ; 0x19 <__rc9>
     3ce: e0 03        	cpx	#$3
     3d0: a6 01        	ldx	$1                      ; 0x1 <__data_size+0x1>
     3d2: 86 1c        	stx	$1c                     ; 0x1c <__rc12>
     3d4: a2 d0        	ldx	#$d0
     3d6: 84 1b        	sty	$1b                     ; 0x1b <__rc11>
     3d8: b0 02        	bcs	$3dc <f256Init+0x54>
     3da: a6 1a        	ldx	$1a                     ; 0x1a <__rc10>
     3dc: 86 15        	stx	$15                     ; 0x15 <__rc5>
     3de: a5 17        	lda	$17                     ; 0x17 <__rc7>
     3e0: 18           	clc
     3e1: 65 14        	adc	$14                     ; 0x14 <__rc4>
     3e3: a8           	tay
     3e4: a6 17        	ldx	$17                     ; 0x17 <__rc7>
     3e6: a5 16        	lda	$16                     ; 0x16 <__rc6>
     3e8: 85 1d        	sta	$1d                     ; 0x1d <__rc13>
     3ea: a5 16        	lda	$16                     ; 0x16 <__rc6>
     3ec: 65 15        	adc	$15                     ; 0x15 <__rc5>
     3ee: 84 16        	sty	$16                     ; 0x16 <__rc6>
     3f0: a0 01        	ldy	#$1
     3f2: 84 01        	sty	$1                      ; 0x1 <__data_size+0x1>
     3f4: 85 17        	sta	$17                     ; 0x17 <__rc7>
     3f6: a5 1b        	lda	$1b                     ; 0x1b <__rc11>
     3f8: 92 16        	sta	($16)                   ; 0x16 <__rc6>
     3fa: 91 16        	sta	($16),y                 ; 0x16 <__rc6>
     3fc: c8           	iny
     3fd: 91 16        	sta	($16),y                 ; 0x16 <__rc6>
     3ff: 85 15        	sta	$15                     ; 0x15 <__rc5>
     401: c8           	iny
     402: a9 ff        	lda	#$ff
     404: 91 16        	sta	($16),y                 ; 0x16 <__rc6>
     406: 8a           	txa
     407: a6 1c        	ldx	$1c                     ; 0x1c <__rc12>
     409: 86 01        	stx	$1                      ; 0x1 <__data_size+0x1>
     40b: 18           	clc
     40c: 69 04        	adc	#$4
     40e: 85 17        	sta	$17                     ; 0x17 <__rc7>
     410: a5 1d        	lda	$1d                     ; 0x1d <__rc13>
     412: 69 00        	adc	#$0
     414: e6 15        	inc	$15                     ; 0x15 <__rc5>
     416: a4 15        	ldy	$15                     ; 0x15 <__rc5>
     418: 85 16        	sta	$16                     ; 0x16 <__rc6>
     41a: c9 04        	cmp	#$4
     41c: f0 03        	beq	$421 <f256Init+0x99>
     41e: 4c cc 03     	jmp	$3cc <f256Init+0x44>
     421: a5 17        	lda	$17                     ; 0x17 <__rc7>
     423: f0 03        	beq	$428 <f256Init+0xa0>
     425: 4c cc 03     	jmp	$3cc <f256Init+0x44>
     428: a6 18        	ldx	$18                     ; 0x18 <__rc8>
     42a: e8           	inx
     42b: e0 04        	cpx	#$4
     42d: f0 03        	beq	$432 <f256Init+0xaa>
     42f: 4c b9 03     	jmp	$3b9 <f256Init+0x31>
     432: ad 02 d0     	lda	$d002                   ; 0xd002 <end_block9+0xb39a>
     435: 29 f0        	and	#$f0
     437: 8d 02 d0     	sta	$d002                   ; 0xd002 <end_block9+0xb39a>
     43a: ad 02 d0     	lda	$d002                   ; 0xd002 <end_block9+0xb39a>
     43d: 29 0f        	and	#$f
     43f: 09 10        	ora	#$10
     441: 8d 02 d0     	sta	$d002                   ; 0xd002 <end_block9+0xb39a>
     444: a2 02        	ldx	#$2
     446: 8e 03 d0     	stx	$d003                   ; 0xd003 <end_block9+0xb39b>
     449: ad 01 d0     	lda	$d001                   ; 0xd001 <end_block9+0xb399>
     44c: 29 f9        	and	#$f9
     44e: 09 04        	ora	#$4
     450: 8d 01 d0     	sta	$d001                   ; 0xd001 <end_block9+0xb399>
     453: 64 14        	stz	$14                     ; 0x14 <__rc4>
     455: 9c 10 d0     	stz	$d010                   ; 0xd010 <end_block9+0xb3a8>
     458: a2 00        	ldx	#$0
     45a: 64 15        	stz	$15                     ; 0x15 <__rc5>
     45c: 86 18        	stx	$18                     ; 0x18 <__rc8>
     45e: a4 18        	ldy	$18                     ; 0x18 <__rc8>
     460: be 94 1b     	ldx	$1b94,y                 ; 0x1b94 <textColors>
     463: 86 19        	stx	$19                     ; 0x19 <__rc9>
     465: be 95 1b     	ldx	$1b95,y                 ; 0x1b95 <textColors+0x1>
     468: 86 1a        	stx	$1a                     ; 0x1a <__rc10>
     46a: be 96 1b     	ldx	$1b96,y                 ; 0x1b96 <textColors+0x2>
     46d: 86 1b        	stx	$1b                     ; 0x1b <__rc11>
     46f: a6 15        	ldx	$15                     ; 0x15 <__rc5>
     471: 8e 00 de     	stx	$de00                   ; 0xde00 <end_block9+0xc198>
     474: 86 17        	stx	$17                     ; 0x17 <__rc7>
     476: 9c 01 de     	stz	$de01                   ; 0xde01 <end_block9+0xc199>
     479: a2 04        	ldx	#$4
     47b: 8e 02 de     	stx	$de02                   ; 0xde02 <end_block9+0xc19a>
     47e: 86 1d        	stx	$1d                     ; 0x1d <__rc13>
     480: 9c 03 de     	stz	$de03                   ; 0xde03 <end_block9+0xc19b>
     483: ad 10 de     	lda	$de10                   ; 0xde10 <end_block9+0xc1a8>
     486: ac 11 de     	ldy	$de11                   ; 0xde11 <end_block9+0xc1a9>
     489: 84 15        	sty	$15                     ; 0x15 <__rc5>
     48b: ac 12 de     	ldy	$de12                   ; 0xde12 <end_block9+0xc1aa>
     48e: ac 13 de     	ldy	$de13                   ; 0xde13 <end_block9+0xc1ab>
     491: a2 00        	ldx	#$0
     493: 18           	clc
     494: 65 14        	adc	$14                     ; 0x14 <__rc4>
     496: a8           	tay
     497: 86 1f        	stx	$1f                     ; 0x1f <__rc15>
     499: a6 17        	ldx	$17                     ; 0x17 <__rc7>
     49b: a9 d8        	lda	#$d8
     49d: 65 15        	adc	$15                     ; 0x15 <__rc5>
     49f: 84 16        	sty	$16                     ; 0x16 <__rc6>
     4a1: 85 17        	sta	$17                     ; 0x17 <__rc7>
     4a3: a5 1b        	lda	$1b                     ; 0x1b <__rc11>
     4a5: 92 16        	sta	($16)                   ; 0x16 <__rc6>
     4a7: a0 01        	ldy	#$1
     4a9: a5 1a        	lda	$1a                     ; 0x1a <__rc10>
     4ab: 91 16        	sta	($16),y                 ; 0x16 <__rc6>
     4ad: 84 1c        	sty	$1c                     ; 0x1c <__rc12>
     4af: c8           	iny
     4b0: a5 19        	lda	$19                     ; 0x19 <__rc9>
     4b2: 91 16        	sta	($16),y                 ; 0x16 <__rc6>
     4b4: 84 1e        	sty	$1e                     ; 0x1e <__rc14>
     4b6: c8           	iny
     4b7: a9 ff        	lda	#$ff
     4b9: 91 16        	sta	($16),y                 ; 0x16 <__rc6>
     4bb: 85 23        	sta	$23                     ; 0x23 <__rc19>
     4bd: 84 22        	sty	$22                     ; 0x22 <__rc18>
     4bf: 8e 00 de     	stx	$de00                   ; 0xde00 <end_block9+0xc198>
     4c2: 9c 01 de     	stz	$de01                   ; 0xde01 <end_block9+0xc199>
     4c5: a4 1d        	ldy	$1d                     ; 0x1d <__rc13>
     4c7: 8c 02 de     	sty	$de02                   ; 0xde02 <end_block9+0xc19a>
     4ca: 9c 03 de     	stz	$de03                   ; 0xde03 <end_block9+0xc19b>
     4cd: ad 10 de     	lda	$de10                   ; 0xde10 <end_block9+0xc1a8>
     4d0: 85 15        	sta	$15                     ; 0x15 <__rc5>
     4d2: ad 11 de     	lda	$de11                   ; 0xde11 <end_block9+0xc1a9>
     4d5: 85 16        	sta	$16                     ; 0x16 <__rc6>
     4d7: a9 40        	lda	#$40
     4d9: a4 1f        	ldy	$1f                     ; 0x1f <__rc15>
     4db: c0 01        	cpy	#$1
     4dd: 65 15        	adc	$15                     ; 0x15 <__rc5>
     4df: a8           	tay
     4e0: a9 d8        	lda	#$d8
     4e2: 65 16        	adc	$16                     ; 0x16 <__rc6>
     4e4: 85 17        	sta	$17                     ; 0x17 <__rc7>
     4e6: 84 16        	sty	$16                     ; 0x16 <__rc6>
     4e8: ad 12 de     	lda	$de12                   ; 0xde12 <end_block9+0xc1aa>
     4eb: ad 13 de     	lda	$de13                   ; 0xde13 <end_block9+0xc1ab>
     4ee: a5 1b        	lda	$1b                     ; 0x1b <__rc11>
     4f0: 92 16        	sta	($16)                   ; 0x16 <__rc6>
     4f2: a5 1a        	lda	$1a                     ; 0x1a <__rc10>
     4f4: a4 1c        	ldy	$1c                     ; 0x1c <__rc12>
     4f6: 91 16        	sta	($16),y                 ; 0x16 <__rc6>
     4f8: a5 19        	lda	$19                     ; 0x19 <__rc9>
     4fa: a4 1e        	ldy	$1e                     ; 0x1e <__rc14>
     4fc: 91 16        	sta	($16),y                 ; 0x16 <__rc6>
     4fe: a4 22        	ldy	$22                     ; 0x22 <__rc18>
     500: a5 23        	lda	$23                     ; 0x23 <__rc19>
     502: 91 16        	sta	($16),y                 ; 0x16 <__rc6>
     504: e8           	inx
     505: 86 15        	stx	$15                     ; 0x15 <__rc5>
     507: 18           	clc
     508: a5 18        	lda	$18                     ; 0x18 <__rc8>
     50a: 69 03        	adc	#$3
     50c: aa           	tax
     50d: c9 30        	cmp	#$30
     50f: f0 03        	beq	$514 <f256Init+0x18c>
     511: 4c 5c 04     	jmp	$45c <f256Init+0xd4>
     514: a6 01        	ldx	$1                      ; 0x1 <__data_size+0x1>
     516: 86 18        	stx	$18                     ; 0x18 <__rc8>
     518: a2 50        	ldx	#$50
     51a: 8e 00 de     	stx	$de00                   ; 0xde00 <end_block9+0xc198>
     51d: 9c 01 de     	stz	$de01                   ; 0xde01 <end_block9+0xc199>
     520: a2 1e        	ldx	#$1e
     522: 8e 02 de     	stx	$de02                   ; 0xde02 <end_block9+0xc19a>
     525: 9c 03 de     	stz	$de03                   ; 0xde03 <end_block9+0xc19b>
     528: ae 10 de     	ldx	$de10                   ; 0xde10 <end_block9+0xc1a8>
     52b: ac 11 de     	ldy	$de11                   ; 0xde11 <end_block9+0xc1a9>
     52e: ad 12 de     	lda	$de12                   ; 0xde12 <end_block9+0xc1aa>
     531: ad 13 de     	lda	$de13                   ; 0xde13 <end_block9+0xc1ab>
     534: a9 02        	lda	#$2
     536: 85 01        	sta	$1                      ; 0x1 <__data_size+0x1>
     538: e0 01        	cpx	#$1
     53a: 98           	tya
     53b: e9 00        	sbc	#$0
     53d: 50 02        	bvc	$541 <f256Init+0x1b9>
     53f: 49 80        	eor	#$80
     541: c9 00        	cmp	#$0
     543: 30 48        	bmi	$58d <f256Init+0x205>
     545: a9 20        	lda	#$20
     547: 86 19        	stx	$19                     ; 0x19 <__rc9>
     549: 86 14        	stx	$14                     ; 0x14 <__rc4>
     54b: 84 15        	sty	$15                     ; 0x15 <__rc5>
     54d: a2 00        	ldx	#$0
     54f: 86 16        	stx	$16                     ; 0x16 <__rc6>
     551: a2 c0        	ldx	#$c0
     553: 86 17        	stx	$17                     ; 0x17 <__rc7>
     555: 92 16        	sta	($16)                   ; 0x16 <__rc6>
     557: e6 16        	inc	$16                     ; 0x16 <__rc6>
     559: d0 02        	bne	$55d <f256Init+0x1d5>
     55b: e6 17        	inc	$17                     ; 0x17 <__rc7>
     55d: a2 ff        	ldx	#$ff
     55f: c6 14        	dec	$14                     ; 0x14 <__rc4>
     561: e4 14        	cpx	$14                     ; 0x14 <__rc4>
     563: d0 02        	bne	$567 <f256Init+0x1df>
     565: c6 15        	dec	$15                     ; 0x15 <__rc5>
     567: a6 15        	ldx	$15                     ; 0x15 <__rc5>
     569: d0 ea        	bne	$555 <f256Init+0x1cd>
     56b: a6 14        	ldx	$14                     ; 0x14 <__rc4>
     56d: d0 e6        	bne	$555 <f256Init+0x1cd>
     56f: a2 03        	ldx	#$3
     571: 86 01        	stx	$1                      ; 0x1 <__data_size+0x1>
     573: a6 19        	ldx	$19                     ; 0x19 <__rc9>
     575: a9 f0        	lda	#$f0
     577: 92 12        	sta	($12)                   ; 0x12 <__rc2>
     579: e6 12        	inc	$12                     ; 0x12 <__rc2>
     57b: d0 02        	bne	$57f <f256Init+0x1f7>
     57d: e6 13        	inc	$13                     ; 0x13 <__rc3>
     57f: ca           	dex
     580: e0 ff        	cpx	#$ff
     582: d0 01        	bne	$585 <f256Init+0x1fd>
     584: 88           	dey
     585: 98           	tya
     586: d0 ed        	bne	$575 <f256Init+0x1ed>
     588: 8a           	txa
     589: d0 ea        	bne	$575 <f256Init+0x1ed>
     58b: 80 04        	bra	$591 <f256Init+0x209>
     58d: a2 03        	ldx	#$3
     58f: 86 01        	stx	$1                      ; 0x1 <__data_size+0x1>
     591: a6 18        	ldx	$18                     ; 0x18 <__rc8>
     593: 86 01        	stx	$1                      ; 0x1 <__data_size+0x1>
     595: 64 79        	stz	$79                     ; 0x79 <_col>
     597: 9c 14 d0     	stz	$d014                   ; 0xd014 <end_block9+0xb3ac>
     59a: 9c 15 d0     	stz	$d015                   ; 0xd015 <end_block9+0xb3ad>
     59d: 64 7a        	stz	$7a                     ; 0x7a <_row>
     59f: 9c 16 d0     	stz	$d016                   ; 0xd016 <end_block9+0xb3ae>
     5a2: 9c 17 d0     	stz	$d017                   ; 0xd017 <end_block9+0xb3af>
     5a5: a2 40        	ldx	#$40
     5a7: 8e 00 de     	stx	$de00                   ; 0xde00 <end_block9+0xc198>
     5aa: a2 01        	ldx	#$1
     5ac: 8e 01 de     	stx	$de01                   ; 0xde01 <end_block9+0xc199>
     5af: a2 f0        	ldx	#$f0
     5b1: 8e 02 de     	stx	$de02                   ; 0xde02 <end_block9+0xc19a>
     5b4: 9c 03 de     	stz	$de03                   ; 0xde03 <end_block9+0xc19b>
     5b7: ae 10 de     	ldx	$de10                   ; 0xde10 <end_block9+0xc1a8>
     5ba: 86 17        	stx	$17                     ; 0x17 <__rc7>
     5bc: ae 11 de     	ldx	$de11                   ; 0xde11 <end_block9+0xc1a9>
     5bf: 86 12        	stx	$12                     ; 0x12 <__rc2>
     5c1: ae 12 de     	ldx	$de12                   ; 0xde12 <end_block9+0xc1aa>
     5c4: 86 13        	stx	$13                     ; 0x13 <__rc3>
     5c6: ae 13 de     	ldx	$de13                   ; 0xde13 <end_block9+0xc1ab>
     5c9: 86 14        	stx	$14                     ; 0x14 <__rc4>
     5cb: a4 12        	ldy	$12                     ; 0x12 <__rc2>
     5cd: 84 15        	sty	$15                     ; 0x15 <__rc5>
     5cf: 06 15        	asl	$15                     ; 0x15 <__rc5>
     5d1: a5 13        	lda	$13                     ; 0x13 <__rc3>
     5d3: 2a           	rol
     5d4: 86 16        	stx	$16                     ; 0x16 <__rc6>
     5d6: 26 16        	rol	$16                     ; 0x16 <__rc6>
     5d8: 06 15        	asl	$15                     ; 0x15 <__rc5>
     5da: 2a           	rol
     5db: 26 16        	rol	$16                     ; 0x16 <__rc6>
     5dd: 06 15        	asl	$15                     ; 0x15 <__rc5>
     5df: 2a           	rol
     5e0: 26 16        	rol	$16                     ; 0x16 <__rc6>
     5e2: 85 15        	sta	$15                     ; 0x15 <__rc5>
     5e4: 8d 00 de     	sta	$de00                   ; 0xde00 <end_block9+0xc198>
     5e7: a5 16        	lda	$16                     ; 0x16 <__rc6>
     5e9: 8d 01 de     	sta	$de01                   ; 0xde01 <end_block9+0xc199>
     5ec: 9c 02 de     	stz	$de02                   ; 0xde02 <end_block9+0xc19a>
     5ef: a2 20        	ldx	#$20
     5f1: 8e 03 de     	stx	$de03                   ; 0xde03 <end_block9+0xc19b>
     5f4: ae 10 de     	ldx	$de10                   ; 0xde10 <end_block9+0xc1a8>
     5f7: 86 16        	stx	$16                     ; 0x16 <__rc6>
     5f9: ae 11 de     	ldx	$de11                   ; 0xde11 <end_block9+0xc1a9>
     5fc: 86 18        	stx	$18                     ; 0x18 <__rc8>
     5fe: ac 12 de     	ldy	$de12                   ; 0xde12 <end_block9+0xc1aa>
     601: ae 13 de     	ldx	$de13                   ; 0xde13 <end_block9+0xc1ab>
     604: e4 14        	cpx	$14                     ; 0x14 <__rc4>
     606: d0 14        	bne	$61c <f256Init+0x294>
     608: c4 13        	cpy	$13                     ; 0x13 <__rc3>
     60a: d0 10        	bne	$61c <f256Init+0x294>
     60c: a6 18        	ldx	$18                     ; 0x18 <__rc8>
     60e: e4 12        	cpx	$12                     ; 0x12 <__rc2>
     610: d0 0a        	bne	$61c <f256Init+0x294>
     612: a6 16        	ldx	$16                     ; 0x16 <__rc6>
     614: e4 17        	cpx	$17                     ; 0x17 <__rc7>
     616: d0 04        	bne	$61c <f256Init+0x294>
     618: a6 15        	ldx	$15                     ; 0x15 <__rc5>
     61a: 80 06        	bra	$622 <f256Init+0x29a>
     61c: a6 15        	ldx	$15                     ; 0x15 <__rc5>
     61e: e8           	inx
     61f: d0 01        	bne	$622 <f256Init+0x29a>
     621: 1a           	inc
     622: 8e 00 de     	stx	$de00                   ; 0xde00 <end_block9+0xc198>
     625: 8d 01 de     	sta	$de01                   ; 0xde01 <end_block9+0xc199>
     628: 9c 02 de     	stz	$de02                   ; 0xde02 <end_block9+0xc19a>
     62b: a2 20        	ldx	#$20
     62d: 8e 03 de     	stx	$de03                   ; 0xde03 <end_block9+0xc19b>
     630: ae 10 de     	ldx	$de10                   ; 0xde10 <end_block9+0xc1a8>
     633: 86 12        	stx	$12                     ; 0x12 <__rc2>
     635: ae 11 de     	ldx	$de11                   ; 0xde11 <end_block9+0xc1a9>
     638: 86 13        	stx	$13                     ; 0x13 <__rc3>
     63a: ae 12 de     	ldx	$de12                   ; 0xde12 <end_block9+0xc1aa>
     63d: 86 14        	stx	$14                     ; 0x14 <__rc4>
     63f: a9 00        	lda	#$0
     641: 38           	sec
     642: e5 12        	sbc	$12                     ; 0x12 <__rc2>
     644: a8           	tay
     645: a9 00        	lda	#$0
     647: e5 13        	sbc	$13                     ; 0x13 <__rc3>
     649: 85 15        	sta	$15                     ; 0x15 <__rc5>
     64b: a9 08        	lda	#$8
     64d: e5 14        	sbc	$14                     ; 0x14 <__rc4>
     64f: aa           	tax
     650: 98           	tya
     651: 84 17        	sty	$17                     ; 0x17 <__rc7>
     653: 38           	sec
     654: e5 12        	sbc	$12                     ; 0x12 <__rc2>
     656: 85 16        	sta	$16                     ; 0x16 <__rc6>
     658: a5 15        	lda	$15                     ; 0x15 <__rc5>
     65a: e5 13        	sbc	$13                     ; 0x13 <__rc3>
     65c: 85 18        	sta	$18                     ; 0x18 <__rc8>
     65e: 8a           	txa
     65f: 86 19        	stx	$19                     ; 0x19 <__rc9>
     661: e5 14        	sbc	$14                     ; 0x14 <__rc4>
     663: a8           	tay
     664: 38           	sec
     665: a5 16        	lda	$16                     ; 0x16 <__rc6>
     667: e5 12        	sbc	$12                     ; 0x12 <__rc2>
     669: 85 12        	sta	$12                     ; 0x12 <__rc2>
     66b: a5 18        	lda	$18                     ; 0x18 <__rc8>
     66d: e5 13        	sbc	$13                     ; 0x13 <__rc3>
     66f: 85 13        	sta	$13                     ; 0x13 <__rc3>
     671: 98           	tya
     672: e5 14        	sbc	$14                     ; 0x14 <__rc4>
     674: ae 13 de     	ldx	$de13                   ; 0xde13 <end_block9+0xc1ab>
     677: a6 17        	ldx	$17                     ; 0x17 <__rc7>
     679: 8e 01 d1     	stx	$d101                   ; 0xd101 <end_block9+0xb499>
     67c: a6 15        	ldx	$15                     ; 0x15 <__rc5>
     67e: 8e 02 d1     	stx	$d102                   ; 0xd102 <end_block9+0xb49a>
     681: a6 19        	ldx	$19                     ; 0x19 <__rc9>
     683: 8e 03 d1     	stx	$d103                   ; 0xd103 <end_block9+0xb49b>
     686: a6 16        	ldx	$16                     ; 0x16 <__rc6>
     688: 8e 09 d1     	stx	$d109                   ; 0xd109 <end_block9+0xb4a1>
     68b: a6 18        	ldx	$18                     ; 0x18 <__rc8>
     68d: 8e 0a d1     	stx	$d10a                   ; 0xd10a <end_block9+0xb4a2>
     690: 8c 0b d1     	sty	$d10b                   ; 0xd10b <end_block9+0xb4a3>
     693: a6 12        	ldx	$12                     ; 0x12 <__rc2>
     695: 8e 11 d1     	stx	$d111                   ; 0xd111 <end_block9+0xb4a9>
     698: a6 13        	ldx	$13                     ; 0x13 <__rc3>
     69a: 8e 12 d1     	stx	$d112                   ; 0xd112 <end_block9+0xb4aa>
     69d: 8d 13 d1     	sta	$d113                   ; 0xd113 <end_block9+0xb4ab>
     6a0: 9c 00 d1     	stz	$d100                   ; 0xd100 <end_block9+0xb498>
     6a3: 9c 08 d1     	stz	$d108                   ; 0xd108 <end_block9+0xb4a0>
     6a6: 9c 10 d1     	stz	$d110                   ; 0xd110 <end_block9+0xb4a8>
     6a9: a2 10        	ldx	#$10
     6ab: 8e 00 d2     	stx	$d200                   ; 0xd200 <end_block9+0xb598>
     6ae: 8e 0c d2     	stx	$d20c                   ; 0xd20c <end_block9+0xb5a4>
     6b1: 8e 18 d2     	stx	$d218                   ; 0xd218 <end_block9+0xb5b0>
     6b4: a0 d9        	ldy	#$d9
     6b6: a2 40        	ldx	#$40
     6b8: 64 12        	stz	$12                     ; 0x12 <__rc2>
     6ba: 84 13        	sty	$13                     ; 0x13 <__rc3>
     6bc: a9 00        	lda	#$0
     6be: 92 12        	sta	($12)                   ; 0x12 <__rc2>
     6c0: ca           	dex
     6c1: 18           	clc
     6c2: a5 12        	lda	$12                     ; 0x12 <__rc2>
     6c4: 69 08        	adc	#$8
     6c6: 85 12        	sta	$12                     ; 0x12 <__rc2>
     6c8: 98           	tya
     6c9: 69 00        	adc	#$0
     6cb: a8           	tay
     6cc: 8a           	txa
     6cd: d0 eb        	bne	$6ba <f256Init+0x332>
     6cf: a2 85        	ldx	#$85
     6d1: a0 00        	ldy	#$0
     6d3: 86 fb        	stx	$fb                     ; 0xfb <__zp_data_size+0xb2>
     6d5: 84 fc        	sty	$fc                     ; 0xfc <__zp_data_size+0xb3>
     6d7: a2 08        	ldx	#$8
     6d9: 86 fd        	stx	$fd                     ; 0xfd <__zp_data_size+0xb4>
     6db: a2 8d        	ldx	#$8d
     6dd: a0 00        	ldy	#$0
     6df: 86 12        	stx	$12                     ; 0x12 <__rc2>
     6e1: 84 13        	sty	$13                     ; 0x13 <__rc3>
     6e3: a2 7d        	ldx	#$7d
     6e5: 86 14        	stx	$14                     ; 0x14 <__rc4>
     6e7: a2 00        	ldx	#$0
     6e9: 86 15        	stx	$15                     ; 0x15 <__rc5>
     6eb: 20 dc ff     	jsr	$ffdc <end_block9+0xe374>
     6ee: 92 12        	sta	($12)                   ; 0x12 <__rc2>
     6f0: a9 00        	lda	#$0
     6f2: 6a           	ror
     6f3: 85 14        	sta	$14                     ; 0x14 <__rc4>
     6f5: a6 8b        	ldx	$8b                     ; 0x8b <__zp_data_size+0x42>
     6f7: a4 8c        	ldy	$8c                     ; 0x8c <__zp_data_size+0x43>
     6f9: 8e 00 de     	stx	$de00                   ; 0xde00 <end_block9+0xc198>
     6fc: 9c 01 de     	stz	$de01                   ; 0xde01 <end_block9+0xc199>
     6ff: 8c 02 de     	sty	$de02                   ; 0xde02 <end_block9+0xc19a>
     702: 9c 03 de     	stz	$de03                   ; 0xde03 <end_block9+0xc19b>
     705: ae 10 de     	ldx	$de10                   ; 0xde10 <end_block9+0xc1a8>
     708: ac 11 de     	ldy	$de11                   ; 0xde11 <end_block9+0xc1a9>
     70b: ad 12 de     	lda	$de12                   ; 0xde12 <end_block9+0xc1aa>
     70e: ad 13 de     	lda	$de13                   ; 0xde13 <end_block9+0xc1ab>
     711: 8e a4 d6     	stx	$d6a4                   ; 0xd6a4 <end_block9+0xba3c>
     714: 8c a5 d6     	sty	$d6a5                   ; 0xd6a5 <end_block9+0xba3d>
     717: a2 03        	ldx	#$3
     719: 8e a6 d6     	stx	$d6a6                   ; 0xd6a6 <end_block9+0xba3e>
     71c: 60           	rts

0000071d <main>:
     71d: 20 88 03     	jsr	$388 <f256Init>
     720: 20 23 07     	jsr	$723 <f256main>

00000723 <f256main>:
     723: 18           	clc
     724: a5 10        	lda	$10                     ; 0x10 <__rc0>
     726: 69 fc        	adc	#$fc
     728: 85 10        	sta	$10                     ; 0x10 <__rc0>
     72a: a5 11        	lda	$11                     ; 0x11 <__rc1>
     72c: 69 ff        	adc	#$ff
     72e: 85 11        	sta	$11                     ; 0x11 <__rc1>
     730: 64 01        	stz	$1                      ; 0x1 <__data_size+0x1>
     732: a2 07        	ldx	#$7
     734: 8e 00 d0     	stx	$d000                   ; 0xd000 <end_block9+0xb398>
     737: a2 10        	ldx	#$10
     739: 8e 01 d0     	stx	$d001                   ; 0xd001 <end_block9+0xb399>
     73c: 9c 80 dd     	stz	$dd80                   ; 0xdd80 <end_block9+0xc118>
     73f: a9 0a        	lda	#$a
     741: 20 bc 09     	jsr	$9bc <lilpause>
     744: a2 01        	ldx	#$1
     746: 8e 00 de     	stx	$de00                   ; 0xde00 <end_block9+0xc198>
     749: 86 12        	stx	$12                     ; 0x12 <__rc2>
     74b: 9c 01 de     	stz	$de01                   ; 0xde01 <end_block9+0xc199>
     74e: a2 bc        	ldx	#$bc
     750: 8e 02 de     	stx	$de02                   ; 0xde02 <end_block9+0xc19a>
     753: 9c 03 de     	stz	$de03                   ; 0xde03 <end_block9+0xc19b>
     756: ae 10 de     	ldx	$de10                   ; 0xde10 <end_block9+0xc1a8>
     759: ac 11 de     	ldy	$de11                   ; 0xde11 <end_block9+0xc1a9>
     75c: ad 12 de     	lda	$de12                   ; 0xde12 <end_block9+0xc1aa>
     75f: ad 13 de     	lda	$de13                   ; 0xde13 <end_block9+0xc1ab>
     762: 8e 06 de     	stx	$de06                   ; 0xde06 <end_block9+0xc19e>
     765: 8c 07 de     	sty	$de07                   ; 0xde07 <end_block9+0xc19f>
     768: a9 64        	lda	#$64
     76a: 8d 04 de     	sta	$de04                   ; 0xde04 <end_block9+0xc19c>
     76d: 85 15        	sta	$15                     ; 0x15 <__rc5>
     76f: 9c 05 de     	stz	$de05                   ; 0xde05 <end_block9+0xc19d>
     772: ad 16 de     	lda	$de16                   ; 0xde16 <end_block9+0xc1ae>
     775: 85 14        	sta	$14                     ; 0x14 <__rc4>
     777: ad 17 de     	lda	$de17                   ; 0xde17 <end_block9+0xc1af>
     77a: 85 13        	sta	$13                     ; 0x13 <__rc3>
     77c: ad 14 de     	lda	$de14                   ; 0xde14 <end_block9+0xc1ac>
     77f: ad 15 de     	lda	$de15                   ; 0xde15 <end_block9+0xc1ad>
     782: 8e 06 de     	stx	$de06                   ; 0xde06 <end_block9+0xc19e>
     785: 8c 07 de     	sty	$de07                   ; 0xde07 <end_block9+0xc19f>
     788: a6 15        	ldx	$15                     ; 0x15 <__rc5>
     78a: 8e 04 de     	stx	$de04                   ; 0xde04 <end_block9+0xc19c>
     78d: 9c 05 de     	stz	$de05                   ; 0xde05 <end_block9+0xc19d>
     790: ad 14 de     	lda	$de14                   ; 0xde14 <end_block9+0xc1ac>
     793: ae 15 de     	ldx	$de15                   ; 0xde15 <end_block9+0xc1ad>
     796: 92 10        	sta	($10)                   ; 0x10 <__rc0>
     798: a4 12        	ldy	$12                     ; 0x12 <__rc2>
     79a: 8a           	txa
     79b: 91 10        	sta	($10),y                 ; 0x10 <__rc0>
     79d: a0 02        	ldy	#$2
     79f: a5 14        	lda	$14                     ; 0x14 <__rc4>
     7a1: 91 10        	sta	($10),y                 ; 0x10 <__rc0>
     7a3: c8           	iny
     7a4: a5 13        	lda	$13                     ; 0x13 <__rc3>
     7a6: 91 10        	sta	($10),y                 ; 0x10 <__rc0>
     7a8: 20 7d 17     	jsr	$177d <printf>
     7ab: a2 1e        	ldx	#$1e
     7ad: 86 28        	stx	$28                     ; 0x28 <__rc24>
     7af: a2 05        	ldx	#$5
     7b1: 86 27        	stx	$27                     ; 0x27 <__rc23>
     7b3: a2 85        	ldx	#$85
     7b5: a0 00        	ldy	#$0
     7b7: 86 29        	stx	$29                     ; 0x29 <__rc25>
     7b9: 86 24        	stx	$24                     ; 0x24 <__rc20>
     7bb: 84 2a        	sty	$2a                     ; 0x2a <__rc26>
     7bd: 84 25        	sty	$25                     ; 0x25 <__rc21>
     7bf: 80 5d        	bra	$81e <f256main+0xfb>
     7c1: a4 28        	ldy	$28                     ; 0x28 <__rc24>
     7c3: a6 29        	ldx	$29                     ; 0x29 <__rc25>
     7c5: 86 12        	stx	$12                     ; 0x12 <__rc2>
     7c7: a6 2a        	ldx	$2a                     ; 0x2a <__rc26>
     7c9: 86 13        	stx	$13                     ; 0x13 <__rc3>
     7cb: 8d 81 dd     	sta	$dd81                   ; 0xdd81 <end_block9+0xc119>
     7ce: b1 12        	lda	($12),y                 ; 0x12 <__rc2>
     7d0: e6 12        	inc	$12                     ; 0x12 <__rc2>
     7d2: d0 02        	bne	$7d6 <f256main+0xb3>
     7d4: e6 13        	inc	$13                     ; 0x13 <__rc3>
     7d6: aa           	tax
     7d7: d0 f2        	bne	$7cb <f256main+0xa8>
     7d9: a2 0d        	ldx	#$d
     7db: 8e 81 dd     	stx	$dd81                   ; 0xdd81 <end_block9+0xc119>
     7de: a2 0a        	ldx	#$a
     7e0: 8e 81 dd     	stx	$dd81                   ; 0xdd81 <end_block9+0xc119>
     7e3: ae 82 dd     	ldx	$dd82                   ; 0xdd82 <end_block9+0xc11a>
     7e6: ac 83 dd     	ldy	$dd83                   ; 0xdd83 <end_block9+0xc11b>
     7e9: d0 03        	bne	$7ee <f256main+0xcb>
     7eb: 8a           	txa
     7ec: f0 f5        	beq	$7e3 <f256main+0xc0>
     7ee: ae 81 dd     	ldx	$dd81                   ; 0xdd81 <end_block9+0xc119>
     7f1: e0 3e        	cpx	#$3e
     7f3: d0 ee        	bne	$7e3 <f256main+0xc0>
     7f5: a2 68        	ldx	#$68
     7f7: 8e 81 dd     	stx	$dd81                   ; 0xdd81 <end_block9+0xc119>
     7fa: a2 65        	ldx	#$65
     7fc: 8e 81 dd     	stx	$dd81                   ; 0xdd81 <end_block9+0xc119>
     7ff: a2 6c        	ldx	#$6c
     801: 8e 81 dd     	stx	$dd81                   ; 0xdd81 <end_block9+0xc119>
     804: 8e 81 dd     	stx	$dd81                   ; 0xdd81 <end_block9+0xc119>
     807: a2 6f        	ldx	#$6f
     809: 8e 81 dd     	stx	$dd81                   ; 0xdd81 <end_block9+0xc119>
     80c: a5 26        	lda	$26                     ; 0x26 <__rc22>
     80e: 85 28        	sta	$28                     ; 0x28 <__rc24>
     810: 20 bc 09     	jsr	$9bc <lilpause>
     813: a2 d5        	ldx	#$d5
     815: 86 12        	stx	$12                     ; 0x12 <__rc2>
     817: a2 1b        	ldx	#$1b
     819: 86 13        	stx	$13                     ; 0x13 <__rc3>
     81b: 20 d5 1a     	jsr	$1ad5 <puts>
     81e: 20 7b 09     	jsr	$97b <getchar>
     821: a2 c4        	ldx	#$c4
     823: 86 12        	stx	$12                     ; 0x12 <__rc2>
     825: a2 1b        	ldx	#$1b
     827: 86 13        	stx	$13                     ; 0x13 <__rc3>
     829: 20 d5 1a     	jsr	$1ad5 <puts>
     82c: a2 04        	ldx	#$4
     82e: 86 12        	stx	$12                     ; 0x12 <__rc2>
     830: a2 1c        	ldx	#$1c
     832: 86 13        	stx	$13                     ; 0x13 <__rc3>
     834: 20 d5 1a     	jsr	$1ad5 <puts>
     837: a2 41        	ldx	#$41
     839: 8e 81 dd     	stx	$dd81                   ; 0xdd81 <end_block9+0xc119>
     83c: 86 2b        	stx	$2b                     ; 0x2b <__rc27>
     83e: a2 54        	ldx	#$54
     840: 8e 81 dd     	stx	$dd81                   ; 0xdd81 <end_block9+0xc119>
     843: 86 26        	stx	$26                     ; 0x26 <__rc22>
     845: a2 0d        	ldx	#$d
     847: 8e 81 dd     	stx	$dd81                   ; 0xdd81 <end_block9+0xc119>
     84a: 86 2c        	stx	$2c                     ; 0x2c <__rc28>
     84c: a2 0a        	ldx	#$a
     84e: 8e 81 dd     	stx	$dd81                   ; 0xdd81 <end_block9+0xc119>
     851: 86 2d        	stx	$2d                     ; 0x2d <__rc29>
     853: a5 28        	lda	$28                     ; 0x28 <__rc24>
     855: 20 bc 09     	jsr	$9bc <lilpause>
     858: a5 27        	lda	$27                     ; 0x27 <__rc23>
     85a: 20 bc 09     	jsr	$9bc <lilpause>
     85d: a6 2b        	ldx	$2b                     ; 0x2b <__rc27>
     85f: 8e 81 dd     	stx	$dd81                   ; 0xdd81 <end_block9+0xc119>
     862: a4 26        	ldy	$26                     ; 0x26 <__rc22>
     864: 8c 81 dd     	sty	$dd81                   ; 0xdd81 <end_block9+0xc119>
     867: a2 2b        	ldx	#$2b
     869: 8e 81 dd     	stx	$dd81                   ; 0xdd81 <end_block9+0xc119>
     86c: a2 52        	ldx	#$52
     86e: 8e 81 dd     	stx	$dd81                   ; 0xdd81 <end_block9+0xc119>
     871: e8           	inx
     872: 8e 81 dd     	stx	$dd81                   ; 0xdd81 <end_block9+0xc119>
     875: 8c 81 dd     	sty	$dd81                   ; 0xdd81 <end_block9+0xc119>
     878: a6 2c        	ldx	$2c                     ; 0x2c <__rc28>
     87a: 8e 81 dd     	stx	$dd81                   ; 0xdd81 <end_block9+0xc119>
     87d: a6 2d        	ldx	$2d                     ; 0x2d <__rc29>
     87f: 8e 81 dd     	stx	$dd81                   ; 0xdd81 <end_block9+0xc119>
     882: a6 28        	ldx	$28                     ; 0x28 <__rc24>
     884: 86 26        	stx	$26                     ; 0x26 <__rc22>
     886: a5 28        	lda	$28                     ; 0x28 <__rc24>
     888: 20 bc 09     	jsr	$9bc <lilpause>
     88b: a5 27        	lda	$27                     ; 0x27 <__rc23>
     88d: 20 bc 09     	jsr	$9bc <lilpause>
     890: a4 2b        	ldy	$2b                     ; 0x2b <__rc27>
     892: a2 01        	ldx	#$1
     894: 8c 81 dd     	sty	$dd81                   ; 0xdd81 <end_block9+0xc119>
     897: b4 30        	ldy	$30,x                   ; 0x30 <__zp_data_start>
     899: e8           	inx
     89a: e0 0c        	cpx	#$c
     89c: d0 f6        	bne	$894 <f256main+0x171>
     89e: a2 0d        	ldx	#$d
     8a0: 8e 81 dd     	stx	$dd81                   ; 0xdd81 <end_block9+0xc119>
     8a3: a2 0a        	ldx	#$a
     8a5: 8e 81 dd     	stx	$dd81                   ; 0xdd81 <end_block9+0xc119>
     8a8: a5 26        	lda	$26                     ; 0x26 <__rc22>
     8aa: 20 bc 09     	jsr	$9bc <lilpause>
     8ad: a5 27        	lda	$27                     ; 0x27 <__rc23>
     8af: 20 bc 09     	jsr	$9bc <lilpause>
     8b2: a0 41        	ldy	#$41
     8b4: a2 01        	ldx	#$1
     8b6: 8c 81 dd     	sty	$dd81                   ; 0xdd81 <end_block9+0xc119>
     8b9: b4 3c        	ldy	$3c,x                   ; 0x3c <__zp_data_start+0xc>
     8bb: e8           	inx
     8bc: e0 0e        	cpx	#$e
     8be: d0 f6        	bne	$8b6 <f256main+0x193>
     8c0: a2 0d        	ldx	#$d
     8c2: 8e 81 dd     	stx	$dd81                   ; 0xdd81 <end_block9+0xc119>
     8c5: a2 0a        	ldx	#$a
     8c7: 8e 81 dd     	stx	$dd81                   ; 0xdd81 <end_block9+0xc119>
     8ca: a5 26        	lda	$26                     ; 0x26 <__rc22>
     8cc: 20 bc 09     	jsr	$9bc <lilpause>
     8cf: a5 27        	lda	$27                     ; 0x27 <__rc23>
     8d1: 20 bc 09     	jsr	$9bc <lilpause>
     8d4: a0 41        	ldy	#$41
     8d6: a2 01        	ldx	#$1
     8d8: 8c 81 dd     	sty	$dd81                   ; 0xdd81 <end_block9+0xc119>
     8db: b4 4a        	ldy	$4a,x                   ; 0x4a <__zp_data_start+0x1a>
     8dd: e8           	inx
     8de: e0 0b        	cpx	#$b
     8e0: d0 f6        	bne	$8d8 <f256main+0x1b5>
     8e2: a0 42        	ldy	#$42
     8e4: a2 01        	ldx	#$1
     8e6: 8c 81 dd     	sty	$dd81                   ; 0xdd81 <end_block9+0xc119>
     8e9: b4 71        	ldy	$71,x                   ; 0x71 <__zp_data_start+0x41>
     8eb: e8           	inx
     8ec: e0 08        	cpx	#$8
     8ee: d0 f6        	bne	$8e6 <f256main+0x1c3>
     8f0: a2 22        	ldx	#$22
     8f2: 8e 81 dd     	stx	$dd81                   ; 0xdd81 <end_block9+0xc119>
     8f5: a0 2c        	ldy	#$2c
     8f7: 8c 81 dd     	sty	$dd81                   ; 0xdd81 <end_block9+0xc119>
     8fa: 8e 81 dd     	stx	$dd81                   ; 0xdd81 <end_block9+0xc119>
     8fd: a0 6c        	ldy	#$6c
     8ff: a2 01        	ldx	#$1
     901: a9 1e        	lda	#$1e
     903: 8c 81 dd     	sty	$dd81                   ; 0xdd81 <end_block9+0xc119>
     906: bc 1a 1c     	ldy	$1c1a,x                 ; 0x1c1a <textColors+0x86>
     909: e8           	inx
     90a: e0 12        	cpx	#$12
     90c: d0 f5        	bne	$903 <f256main+0x1e0>
     90e: a2 22        	ldx	#$22
     910: 8e 81 dd     	stx	$dd81                   ; 0xdd81 <end_block9+0xc119>
     913: a2 0d        	ldx	#$d
     915: 8e 81 dd     	stx	$dd81                   ; 0xdd81 <end_block9+0xc119>
     918: a2 0a        	ldx	#$a
     91a: 8e 81 dd     	stx	$dd81                   ; 0xdd81 <end_block9+0xc119>
     91d: 85 26        	sta	$26                     ; 0x26 <__rc22>
     91f: 20 bc 09     	jsr	$9bc <lilpause>
     922: a0 41        	ldy	#$41
     924: a2 01        	ldx	#$1
     926: 8c 81 dd     	sty	$dd81                   ; 0xdd81 <end_block9+0xc119>
     929: b4 55        	ldy	$55,x                   ; 0x55 <__zp_data_start+0x25>
     92b: e8           	inx
     92c: e0 0e        	cpx	#$e
     92e: d0 f6        	bne	$926 <f256main+0x203>
     930: a5 26        	lda	$26                     ; 0x26 <__rc22>
     932: 20 bc 09     	jsr	$9bc <lilpause>
     935: a0 41        	ldy	#$41
     937: a2 01        	ldx	#$1
     939: 8c 81 dd     	sty	$dd81                   ; 0xdd81 <end_block9+0xc119>
     93c: bc 2c 1c     	ldy	$1c2c,x                 ; 0x1c2c <textColors+0x98>
     93f: e8           	inx
     940: e0 29        	cpx	#$29
     942: d0 f5        	bne	$939 <f256main+0x216>
     944: a5 26        	lda	$26                     ; 0x26 <__rc22>
     946: 20 bc 09     	jsr	$9bc <lilpause>
     949: a0 41        	ldy	#$41
     94b: a2 01        	ldx	#$1
     94d: 8c 81 dd     	sty	$dd81                   ; 0xdd81 <end_block9+0xc119>
     950: b4 63        	ldy	$63,x                   ; 0x63 <__zp_data_start+0x33>
     952: e8           	inx
     953: e0 0e        	cpx	#$e
     955: d0 f6        	bne	$94d <f256main+0x22a>
     957: a9 05        	lda	#$5
     959: aa           	tax
     95a: 86 27        	stx	$27                     ; 0x27 <__rc23>
     95c: 92 10        	sta	($10)                   ; 0x10 <__rc0>
     95e: a0 01        	ldy	#$1
     960: a9 00        	lda	#$0
     962: 91 10        	sta	($10),y                 ; 0x10 <__rc0>
     964: 84 28        	sty	$28                     ; 0x28 <__rc24>
     966: a6 24        	ldx	$24                     ; 0x24 <__rc20>
     968: 86 12        	stx	$12                     ; 0x12 <__rc2>
     96a: a6 25        	ldx	$25                     ; 0x25 <__rc21>
     96c: 86 13        	stx	$13                     ; 0x13 <__rc3>
     96e: 20 1b 18     	jsr	$181b <sprintf>
     971: a5 85        	lda	$85                     ; 0x85 <__zp_data_size+0x3c>
     973: f0 03        	beq	$978 <f256main+0x255>
     975: 4c c1 07     	jmp	$7c1 <f256main+0x9e>
     978: 4c d9 07     	jmp	$7d9 <f256main+0xb6>

0000097b <getchar>:
     97b: a2 8d        	ldx	#$8d
     97d: a0 00        	ldy	#$0
     97f: 86 12        	stx	$12                     ; 0x12 <__rc2>
     981: 84 13        	sty	$13                     ; 0x13 <__rc3>
     983: a2 8e        	ldx	#$8e
     985: a0 00        	ldy	#$0
     987: a9 7d        	lda	#$7d
     989: 85 14        	sta	$14                     ; 0x14 <__rc4>
     98b: a9 00        	lda	#$0
     98d: 85 15        	sta	$15                     ; 0x15 <__rc5>
     98f: 80 0a        	bra	$99b <getchar+0x20>
     991: a5 7e        	lda	$7e                     ; 0x7e <kernelEventData>
     993: c9 08        	cmp	#$8
     995: d0 04        	bne	$99b <getchar+0x20>
     997: a5 84        	lda	$84                     ; 0x84 <kernelEventData+0x6>
     999: f0 20        	beq	$9bb <getchar+0x40>
     99b: 64 7e        	stz	$7e                     ; 0x7e <kernelEventData>
     99d: 20 00 ff     	jsr	$ff00 <end_block9+0xe298>
     9a0: 92 12        	sta	($12)                   ; 0x12 <__rc2>
     9a2: a9 00        	lda	#$0
     9a4: 6a           	ror
     9a5: 85 14        	sta	$14                     ; 0x14 <__rc4>
     9a7: a5 7d        	lda	$7d                     ; 0x7d <kernelError>
     9a9: f0 e6        	beq	$991 <getchar+0x16>
     9ab: 86 16        	stx	$16                     ; 0x16 <__rc6>
     9ad: 84 17        	sty	$17                     ; 0x17 <__rc7>
     9af: 20 0c ff     	jsr	$ff0c <end_block9+0xe2a4>
     9b2: 92 16        	sta	($16)                   ; 0x16 <__rc6>
     9b4: a9 00        	lda	#$0
     9b6: 6a           	ror
     9b7: 85 14        	sta	$14                     ; 0x14 <__rc4>
     9b9: 80 e0        	bra	$99b <getchar+0x20>
     9bb: 60           	rts

000009bc <lilpause>:
     9bc: 85 16        	sta	$16                     ; 0x16 <__rc6>
     9be: a2 80        	ldx	#$80
     9c0: 86 f3        	stx	$f3                     ; 0xf3 <__zp_data_size+0xaa>
     9c2: a2 8e        	ldx	#$8e
     9c4: a0 00        	ldy	#$0
     9c6: 86 14        	stx	$14                     ; 0x14 <__rc4>
     9c8: 84 15        	sty	$15                     ; 0x15 <__rc5>
     9ca: a2 7d        	ldx	#$7d
     9cc: 86 12        	stx	$12                     ; 0x12 <__rc2>
     9ce: a2 00        	ldx	#$0
     9d0: 86 13        	stx	$13                     ; 0x13 <__rc3>
     9d2: 20 f0 ff     	jsr	$fff0 <end_block9+0xe388>
     9d5: 92 14        	sta	($14)                   ; 0x14 <__rc4>
     9d7: a9 00        	lda	#$0
     9d9: 6a           	ror
     9da: 85 12        	sta	$12                     ; 0x12 <__rc2>
     9dc: a5 16        	lda	$16                     ; 0x16 <__rc6>
     9de: 18           	clc
     9df: 65 8e        	adc	$8e                     ; 0x8e <__zp_data_size+0x45>
     9e1: 64 f3        	stz	$f3                     ; 0xf3 <__zp_data_size+0xaa>
     9e3: 85 f4        	sta	$f4                     ; 0xf4 <__zp_data_size+0xab>
     9e5: a2 d5        	ldx	#$d5
     9e7: 86 f5        	stx	$f5                     ; 0xf5 <__zp_data_size+0xac>
     9e9: a2 8d        	ldx	#$8d
     9eb: a0 00        	ldy	#$0
     9ed: 86 16        	stx	$16                     ; 0x16 <__rc6>
     9ef: 84 17        	sty	$17                     ; 0x17 <__rc7>
     9f1: a2 8f        	ldx	#$8f
     9f3: a0 00        	ldy	#$0
     9f5: 86 14        	stx	$14                     ; 0x14 <__rc4>
     9f7: 84 15        	sty	$15                     ; 0x15 <__rc5>
     9f9: 20 f0 ff     	jsr	$fff0 <end_block9+0xe388>
     9fc: 92 16        	sta	($16)                   ; 0x16 <__rc6>
     9fe: a9 00        	lda	#$0
     a00: 6a           	ror
     a01: 85 12        	sta	$12                     ; 0x12 <__rc2>
     a03: 64 7e        	stz	$7e                     ; 0x7e <kernelEventData>
     a05: 20 00 ff     	jsr	$ff00 <end_block9+0xe298>
     a08: 92 14        	sta	($14)                   ; 0x14 <__rc4>
     a0a: a9 00        	lda	#$0
     a0c: 6a           	ror
     a0d: 85 12        	sta	$12                     ; 0x12 <__rc2>
     a0f: a6 7e        	ldx	$7e                     ; 0x7e <kernelEventData>
     a11: e0 52        	cpx	#$52
     a13: d0 ee        	bne	$a03 <lilpause+0x47>
     a15: a6 82        	ldx	$82                     ; 0x82 <kernelEventData+0x4>
     a17: e0 d5        	cpx	#$d5
     a19: d0 e8        	bne	$a03 <lilpause+0x47>
     a1b: 60           	rts

00000a1c <exit>:
     a1c: 20 5d 03     	jsr	$35d <_fini>
     a1f: 80 fe        	bra	$a1f <exit+0x3>

00000a21 <_ZN12_GLOBAL__N_15printEPKcP6Status>:
     a21: a6 14        	ldx	$14                     ; 0x14 <__rc4>
     a23: 86 aa        	stx	$aa                     ; 0xaa <__zp_data_size+0x61>
     a25: a6 15        	ldx	$15                     ; 0x15 <__rc5>
     a27: 86 ab        	stx	$ab                     ; 0xab <__zp_data_size+0x62>
     a29: a6 12        	ldx	$12                     ; 0x12 <__rc2>
     a2b: 86 14        	stx	$14                     ; 0x14 <__rc4>
     a2d: a6 13        	ldx	$13                     ; 0x13 <__rc3>
     a2f: 86 15        	stx	$15                     ; 0x15 <__rc5>
     a31: e6 14        	inc	$14                     ; 0x14 <__rc4>
     a33: d0 02        	bne	$a37 <_ZN12_GLOBAL__N_15printEPKcP6Status+0x16>
     a35: e6 15        	inc	$15                     ; 0x15 <__rc5>
     a37: a0 01        	ldy	#$1
     a39: b1 12        	lda	($12),y                 ; 0x12 <__rc2>
     a3b: c9 25        	cmp	#$25
     a3d: d0 23        	bne	$a62 <_ZN12_GLOBAL__N_15printEPKcP6Status+0x41>
     a3f: a9 25        	lda	#$25
     a41: a6 12        	ldx	$12                     ; 0x12 <__rc2>
     a43: 86 ac        	stx	$ac                     ; 0xac <__zp_data_size+0x63>
     a45: a6 13        	ldx	$13                     ; 0x13 <__rc3>
     a47: 86 ad        	stx	$ad                     ; 0xad <__zp_data_size+0x64>
     a49: a6 aa        	ldx	$aa                     ; 0xaa <__zp_data_size+0x61>
     a4b: 86 12        	stx	$12                     ; 0x12 <__rc2>
     a4d: a6 ab        	ldx	$ab                     ; 0xab <__zp_data_size+0x62>
     a4f: 86 13        	stx	$13                     ; 0x13 <__rc3>
     a51: 20 97 15     	jsr	$1597 <_ZN12_GLOBAL__N_13putEcP6Status>
     a54: a5 ac        	lda	$ac                     ; 0xac <__zp_data_size+0x63>
     a56: 18           	clc
     a57: 69 02        	adc	#$2
     a59: 85 12        	sta	$12                     ; 0x12 <__rc2>
     a5b: a5 ad        	lda	$ad                     ; 0xad <__zp_data_size+0x64>
     a5d: 69 00        	adc	#$0
     a5f: 85 13        	sta	$13                     ; 0x13 <__rc3>
     a61: 60           	rts
     a62: a6 aa        	ldx	$aa                     ; 0xaa <__zp_data_size+0x61>
     a64: a5 aa        	lda	$aa                     ; 0xaa <__zp_data_size+0x61>
     a66: 86 17        	stx	$17                     ; 0x17 <__rc7>
     a68: 18           	clc
     a69: 69 0b        	adc	#$b
     a6b: 85 18        	sta	$18                     ; 0x18 <__rc8>
     a6d: a5 ab        	lda	$ab                     ; 0xab <__zp_data_size+0x62>
     a6f: 69 00        	adc	#$0
     a71: a2 10        	ldx	#$10
     a73: 86 b1        	stx	$b1                     ; 0xb1 <__zp_data_size+0x68>
     a75: 85 19        	sta	$19                     ; 0x19 <__rc9>
     a77: a0 0b        	ldy	#$b
     a79: a9 00        	lda	#$0
     a7b: 91 aa        	sta	($aa),y                 ; 0xaa <__zp_data_size+0x61>
     a7d: 18           	clc
     a7e: a5 17        	lda	$17                     ; 0x17 <__rc7>
     a80: 69 0d        	adc	#$d
     a82: a8           	tay
     a83: a5 ab        	lda	$ab                     ; 0xab <__zp_data_size+0x62>
     a85: 69 00        	adc	#$0
     a87: a2 02        	ldx	#$2
     a89: 86 1f        	stx	$1f                     ; 0x1f <__rc15>
     a8b: 84 16        	sty	$16                     ; 0x16 <__rc6>
     a8d: a0 0d        	ldy	#$d
     a8f: 85 17        	sta	$17                     ; 0x17 <__rc7>
     a91: a9 ff        	lda	#$ff
     a93: 91 aa        	sta	($aa),y                 ; 0xaa <__zp_data_size+0x61>
     a95: a0 01        	ldy	#$1
     a97: 91 16        	sta	($16),y                 ; 0x16 <__rc6>
     a99: 18           	clc
     a9a: a2 00        	ldx	#$0
     a9c: 86 d7        	stx	$d7                     ; 0xd7 <__zp_data_size+0x8e>
     a9e: a6 aa        	ldx	$aa                     ; 0xaa <__zp_data_size+0x61>
     aa0: 86 16        	stx	$16                     ; 0x16 <__rc6>
     aa2: a6 ab        	ldx	$ab                     ; 0xab <__zp_data_size+0x62>
     aa4: 86 17        	stx	$17                     ; 0x17 <__rc7>
     aa6: e6 16        	inc	$16                     ; 0x16 <__rc6>
     aa8: d0 02        	bne	$aac <_ZN12_GLOBAL__N_15printEPKcP6Status+0x8b>
     aaa: e6 17        	inc	$17                     ; 0x17 <__rc7>
     aac: a9 00        	lda	#$0
     aae: 91 aa        	sta	($aa),y                 ; 0xaa <__zp_data_size+0x61>
     ab0: 91 16        	sta	($16),y                 ; 0x16 <__rc6>
     ab2: 92 aa        	sta	($aa)                   ; 0xaa <__zp_data_size+0x61>
     ab4: 91 18        	sta	($18),y                 ; 0x18 <__rc8>
     ab6: 64 b0        	stz	$b0                     ; 0xb0 <__zp_data_size+0x67>
     ab8: 80 33        	bra	$aed <_ZN12_GLOBAL__N_15printEPKcP6Status+0xcc>
     aba: a2 02        	ldx	#$2
     abc: 80 15        	bra	$ad3 <_ZN12_GLOBAL__N_15printEPKcP6Status+0xb2>
     abe: e0 20        	cpx	#$20
     ac0: f0 15        	beq	$ad7 <_ZN12_GLOBAL__N_15printEPKcP6Status+0xb6>
     ac2: 86 19        	stx	$19                     ; 0x19 <__rc9>
     ac4: e0 23        	cpx	#$23
     ac6: f0 03        	beq	$acb <_ZN12_GLOBAL__N_15printEPKcP6Status+0xaa>
     ac8: 4c 3c 0b     	jmp	$b3c <_ZN12_GLOBAL__N_15printEPKcP6Status+0x11b>
     acb: a5 b0        	lda	$b0                     ; 0xb0 <__zp_data_size+0x67>
     acd: a2 04        	ldx	#$4
     acf: 80 02        	bra	$ad3 <_ZN12_GLOBAL__N_15printEPKcP6Status+0xb2>
     ad1: a2 10        	ldx	#$10
     ad3: 86 18        	stx	$18                     ; 0x18 <__rc8>
     ad5: 80 06        	bra	$add <_ZN12_GLOBAL__N_15printEPKcP6Status+0xbc>
     ad7: a2 08        	ldx	#$8
     ad9: 86 18        	stx	$18                     ; 0x18 <__rc8>
     adb: a5 b0        	lda	$b0                     ; 0xb0 <__zp_data_size+0x67>
     add: 05 18        	ora	$18                     ; 0x18 <__rc8>
     adf: 85 b0        	sta	$b0                     ; 0xb0 <__zp_data_size+0x67>
     ae1: 91 aa        	sta	($aa),y                 ; 0xaa <__zp_data_size+0x61>
     ae3: a9 00        	lda	#$0
     ae5: 91 16        	sta	($16),y                 ; 0x16 <__rc6>
     ae7: e6 14        	inc	$14                     ; 0x14 <__rc4>
     ae9: d0 02        	bne	$aed <_ZN12_GLOBAL__N_15printEPKcP6Status+0xcc>
     aeb: e6 15        	inc	$15                     ; 0x15 <__rc5>
     aed: b2 14        	lda	($14)                   ; 0x14 <__rc4>
     aef: 18           	clc
     af0: aa           	tax
     af1: 69 d6        	adc	#$d6
     af3: c9 07        	cmp	#$7
     af5: b0 c7        	bcs	$abe <_ZN12_GLOBAL__N_15printEPKcP6Status+0x9d>
     af7: 86 19        	stx	$19                     ; 0x19 <__rc9>
     af9: 0a           	asl
     afa: aa           	tax
     afb: a9 01        	lda	#$1
     afd: 85 18        	sta	$18                     ; 0x18 <__rc8>
     aff: a5 b0        	lda	$b0                     ; 0xb0 <__zp_data_size+0x67>
     b01: 7c 5a 1b     	jmp	($1b5a,x)               ; 0x1b5a <__heap_default_limit+0xb5a>
     b04: a0 11        	ldy	#$11
     b06: a5 aa        	lda	$aa                     ; 0xaa <__zp_data_size+0x61>
     b08: 18           	clc
     b09: 69 11        	adc	#$11
     b0b: 85 16        	sta	$16                     ; 0x16 <__rc6>
     b0d: a5 ab        	lda	$ab                     ; 0xab <__zp_data_size+0x62>
     b0f: 69 00        	adc	#$0
     b11: 85 17        	sta	$17                     ; 0x17 <__rc7>
     b13: b1 aa        	lda	($aa),y                 ; 0xaa <__zp_data_size+0x61>
     b15: 85 18        	sta	$18                     ; 0x18 <__rc8>
     b17: 18           	clc
     b18: 69 02        	adc	#$2
     b1a: 91 aa        	sta	($aa),y                 ; 0xaa <__zp_data_size+0x61>
     b1c: a0 01        	ldy	#$1
     b1e: b1 16        	lda	($16),y                 ; 0x16 <__rc6>
     b20: 85 19        	sta	$19                     ; 0x19 <__rc9>
     b22: 69 00        	adc	#$0
     b24: 91 16        	sta	($16),y                 ; 0x16 <__rc6>
     b26: b2 18        	lda	($18)                   ; 0x18 <__rc8>
     b28: 85 17        	sta	$17                     ; 0x17 <__rc7>
     b2a: b1 18        	lda	($18),y                 ; 0x18 <__rc8>
     b2c: 85 16        	sta	$16                     ; 0x16 <__rc6>
     b2e: 10 03        	bpl	$b33 <_ZN12_GLOBAL__N_15printEPKcP6Status+0x112>
     b30: 4c d1 0b     	jmp	$bd1 <_ZN12_GLOBAL__N_15printEPKcP6Status+0x1b0>
     b33: a6 17        	ldx	$17                     ; 0x17 <__rc7>
     b35: 86 1b        	stx	$1b                     ; 0x1b <__rc11>
     b37: 85 1a        	sta	$1a                     ; 0x1a <__rc10>
     b39: 4c fa 0b     	jmp	$bfa <_ZN12_GLOBAL__N_15printEPKcP6Status+0x1d9>
     b3c: 18           	clc
     b3d: a5 19        	lda	$19                     ; 0x19 <__rc9>
     b3f: 69 d0        	adc	#$d0
     b41: c9 0a        	cmp	#$a
     b43: 90 03        	bcc	$b48 <_ZN12_GLOBAL__N_15printEPKcP6Status+0x127>
     b45: 4c ab 0b     	jmp	$bab <_ZN12_GLOBAL__N_15printEPKcP6Status+0x18a>
     b48: a6 19        	ldx	$19                     ; 0x19 <__rc9>
     b4a: 86 16        	stx	$16                     ; 0x16 <__rc6>
     b4c: 64 18        	stz	$18                     ; 0x18 <__rc8>
     b4e: a0 01        	ldy	#$1
     b50: 64 17        	stz	$17                     ; 0x17 <__rc7>
     b52: 64 19        	stz	$19                     ; 0x19 <__rc9>
     b54: 06 18        	asl	$18                     ; 0x18 <__rc8>
     b56: 26 19        	rol	$19                     ; 0x19 <__rc9>
     b58: a5 18        	lda	$18                     ; 0x18 <__rc8>
     b5a: 0a           	asl
     b5b: aa           	tax
     b5c: a5 19        	lda	$19                     ; 0x19 <__rc9>
     b5e: 2a           	rol
     b5f: 86 1a        	stx	$1a                     ; 0x1a <__rc10>
     b61: 06 1a        	asl	$1a                     ; 0x1a <__rc10>
     b63: 2a           	rol
     b64: aa           	tax
     b65: a9 00        	lda	#$0
     b67: 85 1b        	sta	$1b                     ; 0x1b <__rc11>
     b69: a5 1a        	lda	$1a                     ; 0x1a <__rc10>
     b6b: 5a           	phy
     b6c: a4 1b        	ldy	$1b                     ; 0x1b <__rc11>
     b6e: c0 01        	cpy	#$1
     b70: 7a           	ply
     b71: 65 18        	adc	$18                     ; 0x18 <__rc8>
     b73: 85 18        	sta	$18                     ; 0x18 <__rc8>
     b75: 8a           	txa
     b76: 65 19        	adc	$19                     ; 0x19 <__rc9>
     b78: 85 19        	sta	$19                     ; 0x19 <__rc9>
     b7a: a5 18        	lda	$18                     ; 0x18 <__rc8>
     b7c: a6 1b        	ldx	$1b                     ; 0x1b <__rc11>
     b7e: e0 01        	cpx	#$1
     b80: 65 16        	adc	$16                     ; 0x16 <__rc6>
     b82: 85 16        	sta	$16                     ; 0x16 <__rc6>
     b84: a5 19        	lda	$19                     ; 0x19 <__rc9>
     b86: 65 17        	adc	$17                     ; 0x17 <__rc7>
     b88: aa           	tax
     b89: 18           	clc
     b8a: a5 16        	lda	$16                     ; 0x16 <__rc6>
     b8c: 69 d0        	adc	#$d0
     b8e: 85 18        	sta	$18                     ; 0x18 <__rc8>
     b90: 8a           	txa
     b91: 69 ff        	adc	#$ff
     b93: 85 19        	sta	$19                     ; 0x19 <__rc9>
     b95: b1 14        	lda	($14),y                 ; 0x14 <__rc4>
     b97: 85 16        	sta	$16                     ; 0x16 <__rc6>
     b99: 18           	clc
     b9a: 69 d0        	adc	#$d0
     b9c: e6 14        	inc	$14                     ; 0x14 <__rc4>
     b9e: d0 02        	bne	$ba2 <_ZN12_GLOBAL__N_15printEPKcP6Status+0x181>
     ba0: e6 15        	inc	$15                     ; 0x15 <__rc5>
     ba2: c9 0a        	cmp	#$a
     ba4: 64 17        	stz	$17                     ; 0x17 <__rc7>
     ba6: b0 07        	bcs	$baf <_ZN12_GLOBAL__N_15printEPKcP6Status+0x18e>
     ba8: 4c 54 0b     	jmp	$b54 <_ZN12_GLOBAL__N_15printEPKcP6Status+0x133>
     bab: 64 18        	stz	$18                     ; 0x18 <__rc8>
     bad: 64 19        	stz	$19                     ; 0x19 <__rc9>
     baf: a5 aa        	lda	$aa                     ; 0xaa <__zp_data_size+0x61>
     bb1: 18           	clc
     bb2: 69 0b        	adc	#$b
     bb4: 85 16        	sta	$16                     ; 0x16 <__rc6>
     bb6: a5 ab        	lda	$ab                     ; 0xab <__zp_data_size+0x62>
     bb8: 69 00        	adc	#$0
     bba: 85 17        	sta	$17                     ; 0x17 <__rc7>
     bbc: a0 0b        	ldy	#$b
     bbe: a5 18        	lda	$18                     ; 0x18 <__rc8>
     bc0: 91 aa        	sta	($aa),y                 ; 0xaa <__zp_data_size+0x61>
     bc2: a6 18        	ldx	$18                     ; 0x18 <__rc8>
     bc4: a0 01        	ldy	#$1
     bc6: a5 19        	lda	$19                     ; 0x19 <__rc9>
     bc8: 91 16        	sta	($16),y                 ; 0x16 <__rc6>
     bca: 86 16        	stx	$16                     ; 0x16 <__rc6>
     bcc: 85 17        	sta	$17                     ; 0x17 <__rc7>
     bce: 4c 23 0c     	jmp	$c23 <_ZN12_GLOBAL__N_15printEPKcP6Status+0x202>
     bd1: a5 b0        	lda	$b0                     ; 0xb0 <__zp_data_size+0x67>
     bd3: 09 01        	ora	#$1
     bd5: aa           	tax
     bd6: a5 aa        	lda	$aa                     ; 0xaa <__zp_data_size+0x61>
     bd8: 85 18        	sta	$18                     ; 0x18 <__rc8>
     bda: a5 ab        	lda	$ab                     ; 0xab <__zp_data_size+0x62>
     bdc: 85 19        	sta	$19                     ; 0x19 <__rc9>
     bde: 38           	sec
     bdf: a9 00        	lda	#$0
     be1: e5 17        	sbc	$17                     ; 0x17 <__rc7>
     be3: 85 1b        	sta	$1b                     ; 0x1b <__rc11>
     be5: a9 00        	lda	#$0
     be7: e5 16        	sbc	$16                     ; 0x16 <__rc6>
     be9: 85 1a        	sta	$1a                     ; 0x1a <__rc10>
     beb: e6 18        	inc	$18                     ; 0x18 <__rc8>
     bed: d0 02        	bne	$bf1 <_ZN12_GLOBAL__N_15printEPKcP6Status+0x1d0>
     bef: e6 19        	inc	$19                     ; 0x19 <__rc9>
     bf1: 8a           	txa
     bf2: 86 b0        	stx	$b0                     ; 0xb0 <__zp_data_size+0x67>
     bf4: 91 aa        	sta	($aa),y                 ; 0xaa <__zp_data_size+0x61>
     bf6: a9 00        	lda	#$0
     bf8: 91 18        	sta	($18),y                 ; 0x18 <__rc8>
     bfa: a2 01        	ldx	#$1
     bfc: a5 aa        	lda	$aa                     ; 0xaa <__zp_data_size+0x61>
     bfe: 18           	clc
     bff: 69 0b        	adc	#$b
     c01: 85 16        	sta	$16                     ; 0x16 <__rc6>
     c03: a5 ab        	lda	$ab                     ; 0xab <__zp_data_size+0x62>
     c05: 69 00        	adc	#$0
     c07: 85 17        	sta	$17                     ; 0x17 <__rc7>
     c09: a0 0b        	ldy	#$b
     c0b: a5 1b        	lda	$1b                     ; 0x1b <__rc11>
     c0d: 91 aa        	sta	($aa),y                 ; 0xaa <__zp_data_size+0x61>
     c0f: 85 18        	sta	$18                     ; 0x18 <__rc8>
     c11: a5 1a        	lda	$1a                     ; 0x1a <__rc10>
     c13: a0 01        	ldy	#$1
     c15: 91 16        	sta	($16),y                 ; 0x16 <__rc6>
     c17: a6 18        	ldx	$18                     ; 0x18 <__rc8>
     c19: 86 16        	stx	$16                     ; 0x16 <__rc6>
     c1b: 85 17        	sta	$17                     ; 0x17 <__rc7>
     c1d: e6 14        	inc	$14                     ; 0x14 <__rc4>
     c1f: d0 02        	bne	$c23 <_ZN12_GLOBAL__N_15printEPKcP6Status+0x202>
     c21: e6 15        	inc	$15                     ; 0x15 <__rc5>
     c23: b2 14        	lda	($14)                   ; 0x14 <__rc4>
     c25: a2 ff        	ldx	#$ff
     c27: c9 2e        	cmp	#$2e
     c29: f0 03        	beq	$c2e <_ZN12_GLOBAL__N_15printEPKcP6Status+0x20d>
     c2b: 4c b3 0c     	jmp	$cb3 <_ZN12_GLOBAL__N_15printEPKcP6Status+0x292>
     c2e: a6 14        	ldx	$14                     ; 0x14 <__rc4>
     c30: 86 18        	stx	$18                     ; 0x18 <__rc8>
     c32: a6 15        	ldx	$15                     ; 0x15 <__rc5>
     c34: 86 19        	stx	$19                     ; 0x19 <__rc9>
     c36: e6 18        	inc	$18                     ; 0x18 <__rc8>
     c38: d0 02        	bne	$c3c <_ZN12_GLOBAL__N_15printEPKcP6Status+0x21b>
     c3a: e6 19        	inc	$19                     ; 0x19 <__rc9>
     c3c: a0 01        	ldy	#$1
     c3e: b1 14        	lda	($14),y                 ; 0x14 <__rc4>
     c40: c9 2a        	cmp	#$2a
     c42: f0 03        	beq	$c47 <_ZN12_GLOBAL__N_15printEPKcP6Status+0x226>
     c44: 4c ba 0c     	jmp	$cba <_ZN12_GLOBAL__N_15printEPKcP6Status+0x299>
     c47: 84 19        	sty	$19                     ; 0x19 <__rc9>
     c49: a0 11        	ldy	#$11
     c4b: b1 aa        	lda	($aa),y                 ; 0xaa <__zp_data_size+0x61>
     c4d: 85 18        	sta	$18                     ; 0x18 <__rc8>
     c4f: 18           	clc
     c50: 69 02        	adc	#$2
     c52: a2 01        	ldx	#$1
     c54: b0 02        	bcs	$c58 <_ZN12_GLOBAL__N_15printEPKcP6Status+0x237>
     c56: a2 00        	ldx	#$0
     c58: 86 1d        	stx	$1d                     ; 0x1d <__rc13>
     c5a: 91 aa        	sta	($aa),y                 ; 0xaa <__zp_data_size+0x61>
     c5c: a5 aa        	lda	$aa                     ; 0xaa <__zp_data_size+0x61>
     c5e: 18           	clc
     c5f: 69 11        	adc	#$11
     c61: 85 1a        	sta	$1a                     ; 0x1a <__rc10>
     c63: a5 ab        	lda	$ab                     ; 0xab <__zp_data_size+0x62>
     c65: 69 00        	adc	#$0
     c67: 85 1b        	sta	$1b                     ; 0x1b <__rc11>
     c69: a4 19        	ldy	$19                     ; 0x19 <__rc9>
     c6b: b1 1a        	lda	($1a),y                 ; 0x1a <__rc10>
     c6d: 85 19        	sta	$19                     ; 0x19 <__rc9>
     c6f: a6 1d        	ldx	$1d                     ; 0x1d <__rc13>
     c71: e0 01        	cpx	#$1
     c73: 69 00        	adc	#$0
     c75: 91 1a        	sta	($1a),y                 ; 0x1a <__rc10>
     c77: b2 18        	lda	($18)                   ; 0x18 <__rc8>
     c79: 85 1b        	sta	$1b                     ; 0x1b <__rc11>
     c7b: 18           	clc
     c7c: a5 aa        	lda	$aa                     ; 0xaa <__zp_data_size+0x61>
     c7e: 69 0d        	adc	#$d
     c80: 85 1a        	sta	$1a                     ; 0x1a <__rc10>
     c82: a5 ab        	lda	$ab                     ; 0xab <__zp_data_size+0x62>
     c84: 69 00        	adc	#$0
     c86: aa           	tax
     c87: b1 18        	lda	($18),y                 ; 0x18 <__rc8>
     c89: 84 1d        	sty	$1d                     ; 0x1d <__rc13>
     c8b: 85 1c        	sta	$1c                     ; 0x1c <__rc12>
     c8d: a4 1a        	ldy	$1a                     ; 0x1a <__rc10>
     c8f: 84 18        	sty	$18                     ; 0x18 <__rc8>
     c91: 86 19        	stx	$19                     ; 0x19 <__rc9>
     c93: a5 1b        	lda	$1b                     ; 0x1b <__rc11>
     c95: 85 1a        	sta	$1a                     ; 0x1a <__rc10>
     c97: a0 0d        	ldy	#$d
     c99: 91 aa        	sta	($aa),y                 ; 0xaa <__zp_data_size+0x61>
     c9b: a5 1c        	lda	$1c                     ; 0x1c <__rc12>
     c9d: 85 1e        	sta	$1e                     ; 0x1e <__rc14>
     c9f: a4 1d        	ldy	$1d                     ; 0x1d <__rc13>
     ca1: 91 18        	sta	($18),y                 ; 0x18 <__rc8>
     ca3: a5 14        	lda	$14                     ; 0x14 <__rc4>
     ca5: 18           	clc
     ca6: 69 02        	adc	#$2
     ca8: 85 18        	sta	$18                     ; 0x18 <__rc8>
     caa: a5 15        	lda	$15                     ; 0x15 <__rc5>
     cac: 69 00        	adc	#$0
     cae: 85 19        	sta	$19                     ; 0x19 <__rc9>
     cb0: 4c 8e 0d     	jmp	$d8e <_ZN12_GLOBAL__N_15printEPKcP6Status+0x36d>
     cb3: 86 1a        	stx	$1a                     ; 0x1a <__rc10>
     cb5: 86 1b        	stx	$1b                     ; 0x1b <__rc11>
     cb7: 4c b8 0d     	jmp	$db8 <_ZN12_GLOBAL__N_15printEPKcP6Status+0x397>
     cba: 18           	clc
     cbb: 85 1c        	sta	$1c                     ; 0x1c <__rc12>
     cbd: 69 d0        	adc	#$d0
     cbf: c9 0a        	cmp	#$a
     cc1: 90 03        	bcc	$cc6 <_ZN12_GLOBAL__N_15printEPKcP6Status+0x2a5>
     cc3: 4c 73 0d     	jmp	$d73 <_ZN12_GLOBAL__N_15printEPKcP6Status+0x352>
     cc6: 64 1b        	stz	$1b                     ; 0x1b <__rc11>
     cc8: 64 22        	stz	$22                     ; 0x22 <__rc18>
     cca: 64 1e        	stz	$1e                     ; 0x1e <__rc14>
     ccc: a2 01        	ldx	#$1
     cce: 64 1a        	stz	$1a                     ; 0x1a <__rc10>
     cd0: 5a           	phy
     cd1: a4 1a        	ldy	$1a                     ; 0x1a <__rc10>
     cd3: 84 18        	sty	$18                     ; 0x18 <__rc8>
     cd5: 86 19        	stx	$19                     ; 0x19 <__rc9>
     cd7: a5 22        	lda	$22                     ; 0x22 <__rc18>
     cd9: 0a           	asl
     cda: 85 1d        	sta	$1d                     ; 0x1d <__rc13>
     cdc: 26 1e        	rol	$1e                     ; 0x1e <__rc14>
     cde: 0a           	asl
     cdf: a4 1e        	ldy	$1e                     ; 0x1e <__rc14>
     ce1: 84 22        	sty	$22                     ; 0x22 <__rc18>
     ce3: 26 22        	rol	$22                     ; 0x22 <__rc18>
     ce5: 0a           	asl
     ce6: 26 22        	rol	$22                     ; 0x22 <__rc18>
     ce8: 18           	clc
     ce9: a0 01        	ldy	#$1
     ceb: b0 02        	bcs	$cef <_ZN12_GLOBAL__N_15printEPKcP6Status+0x2ce>
     ced: a0 00        	ldy	#$0
     cef: 84 23        	sty	$23                     ; 0x23 <__rc19>
     cf1: 65 1d        	adc	$1d                     ; 0x1d <__rc13>
     cf3: 85 ac        	sta	$ac                     ; 0xac <__zp_data_size+0x63>
     cf5: a5 22        	lda	$22                     ; 0x22 <__rc18>
     cf7: 65 1e        	adc	$1e                     ; 0x1e <__rc14>
     cf9: 85 1d        	sta	$1d                     ; 0x1d <__rc13>
     cfb: a4 23        	ldy	$23                     ; 0x23 <__rc19>
     cfd: c0 01        	cpy	#$1
     cff: a5 ac        	lda	$ac                     ; 0xac <__zp_data_size+0x63>
     d01: 65 1c        	adc	$1c                     ; 0x1c <__rc12>
     d03: 85 1c        	sta	$1c                     ; 0x1c <__rc12>
     d05: a5 1d        	lda	$1d                     ; 0x1d <__rc13>
     d07: 65 1b        	adc	$1b                     ; 0x1b <__rc11>
     d09: 85 1b        	sta	$1b                     ; 0x1b <__rc11>
     d0b: 18           	clc
     d0c: a5 1c        	lda	$1c                     ; 0x1c <__rc12>
     d0e: 69 d0        	adc	#$d0
     d10: 85 1c        	sta	$1c                     ; 0x1c <__rc12>
     d12: a5 1b        	lda	$1b                     ; 0x1b <__rc11>
     d14: 69 ff        	adc	#$ff
     d16: 85 1e        	sta	$1e                     ; 0x1e <__rc14>
     d18: a4 1c        	ldy	$1c                     ; 0x1c <__rc12>
     d1a: 84 22        	sty	$22                     ; 0x22 <__rc18>
     d1c: e8           	inx
     d1d: d0 02        	bne	$d21 <_ZN12_GLOBAL__N_15printEPKcP6Status+0x300>
     d1f: e6 1a        	inc	$1a                     ; 0x1a <__rc10>
     d21: a5 14        	lda	$14                     ; 0x14 <__rc4>
     d23: a4 23        	ldy	$23                     ; 0x23 <__rc19>
     d25: c0 01        	cpy	#$1
     d27: 7a           	ply
     d28: 65 19        	adc	$19                     ; 0x19 <__rc9>
     d2a: 85 1c        	sta	$1c                     ; 0x1c <__rc12>
     d2c: a5 15        	lda	$15                     ; 0x15 <__rc5>
     d2e: 65 18        	adc	$18                     ; 0x18 <__rc8>
     d30: 85 1d        	sta	$1d                     ; 0x1d <__rc13>
     d32: b1 1c        	lda	($1c),y                 ; 0x1c <__rc12>
     d34: 85 1c        	sta	$1c                     ; 0x1c <__rc12>
     d36: 18           	clc
     d37: 69 d0        	adc	#$d0
     d39: c9 0a        	cmp	#$a
     d3b: 64 1b        	stz	$1b                     ; 0x1b <__rc11>
     d3d: b0 03        	bcs	$d42 <_ZN12_GLOBAL__N_15printEPKcP6Status+0x321>
     d3f: 4c d0 0c     	jmp	$cd0 <_ZN12_GLOBAL__N_15printEPKcP6Status+0x2af>
     d42: a5 14        	lda	$14                     ; 0x14 <__rc4>
     d44: 18           	clc
     d45: 65 19        	adc	$19                     ; 0x19 <__rc9>
     d47: aa           	tax
     d48: a5 15        	lda	$15                     ; 0x15 <__rc5>
     d4a: 65 18        	adc	$18                     ; 0x18 <__rc8>
     d4c: 86 18        	stx	$18                     ; 0x18 <__rc8>
     d4e: 85 19        	sta	$19                     ; 0x19 <__rc9>
     d50: a5 aa        	lda	$aa                     ; 0xaa <__zp_data_size+0x61>
     d52: 18           	clc
     d53: 69 0d        	adc	#$d
     d55: 85 14        	sta	$14                     ; 0x14 <__rc4>
     d57: a5 ab        	lda	$ab                     ; 0xab <__zp_data_size+0x62>
     d59: 69 00        	adc	#$0
     d5b: a0 0d        	ldy	#$d
     d5d: 85 15        	sta	$15                     ; 0x15 <__rc5>
     d5f: a5 22        	lda	$22                     ; 0x22 <__rc18>
     d61: 85 1a        	sta	$1a                     ; 0x1a <__rc10>
     d63: 91 aa        	sta	($aa),y                 ; 0xaa <__zp_data_size+0x61>
     d65: a0 01        	ldy	#$1
     d67: a5 1e        	lda	$1e                     ; 0x1e <__rc14>
     d69: 91 14        	sta	($14),y                 ; 0x14 <__rc4>
     d6b: e6 18        	inc	$18                     ; 0x18 <__rc8>
     d6d: d0 1f        	bne	$d8e <_ZN12_GLOBAL__N_15printEPKcP6Status+0x36d>
     d6f: e6 19        	inc	$19                     ; 0x19 <__rc9>
     d71: 80 1b        	bra	$d8e <_ZN12_GLOBAL__N_15printEPKcP6Status+0x36d>
     d73: a0 0d        	ldy	#$d
     d75: a5 aa        	lda	$aa                     ; 0xaa <__zp_data_size+0x61>
     d77: 18           	clc
     d78: 69 0d        	adc	#$d
     d7a: 85 14        	sta	$14                     ; 0x14 <__rc4>
     d7c: a5 ab        	lda	$ab                     ; 0xab <__zp_data_size+0x62>
     d7e: 69 00        	adc	#$0
     d80: 85 15        	sta	$15                     ; 0x15 <__rc5>
     d82: a9 00        	lda	#$0
     d84: 91 aa        	sta	($aa),y                 ; 0xaa <__zp_data_size+0x61>
     d86: a0 01        	ldy	#$1
     d88: 64 1a        	stz	$1a                     ; 0x1a <__rc10>
     d8a: 91 14        	sta	($14),y                 ; 0x14 <__rc4>
     d8c: 64 1e        	stz	$1e                     ; 0x1e <__rc14>
     d8e: a5 b0        	lda	$b0                     ; 0xb0 <__zp_data_size+0x67>
     d90: 29 ef        	and	#$ef
     d92: a6 aa        	ldx	$aa                     ; 0xaa <__zp_data_size+0x61>
     d94: 86 14        	stx	$14                     ; 0x14 <__rc4>
     d96: a6 ab        	ldx	$ab                     ; 0xab <__zp_data_size+0x62>
     d98: 86 15        	stx	$15                     ; 0x15 <__rc5>
     d9a: e6 14        	inc	$14                     ; 0x14 <__rc4>
     d9c: d0 02        	bne	$da0 <_ZN12_GLOBAL__N_15printEPKcP6Status+0x37f>
     d9e: e6 15        	inc	$15                     ; 0x15 <__rc5>
     da0: a0 01        	ldy	#$1
     da2: 85 b0        	sta	$b0                     ; 0xb0 <__zp_data_size+0x67>
     da4: 91 aa        	sta	($aa),y                 ; 0xaa <__zp_data_size+0x61>
     da6: a9 00        	lda	#$0
     da8: 91 14        	sta	($14),y                 ; 0x14 <__rc4>
     daa: b2 18        	lda	($18)                   ; 0x18 <__rc8>
     dac: a6 1e        	ldx	$1e                     ; 0x1e <__rc14>
     dae: 86 1b        	stx	$1b                     ; 0x1b <__rc11>
     db0: a6 18        	ldx	$18                     ; 0x18 <__rc8>
     db2: 86 14        	stx	$14                     ; 0x14 <__rc4>
     db4: a6 19        	ldx	$19                     ; 0x19 <__rc9>
     db6: 86 15        	stx	$15                     ; 0x15 <__rc5>
     db8: a6 14        	ldx	$14                     ; 0x14 <__rc4>
     dba: 86 18        	stx	$18                     ; 0x18 <__rc8>
     dbc: a6 15        	ldx	$15                     ; 0x15 <__rc5>
     dbe: 86 19        	stx	$19                     ; 0x19 <__rc9>
     dc0: e6 18        	inc	$18                     ; 0x18 <__rc8>
     dc2: d0 02        	bne	$dc6 <_ZN12_GLOBAL__N_15printEPKcP6Status+0x3a5>
     dc4: e6 19        	inc	$19                     ; 0x19 <__rc9>
     dc6: 38           	sec
     dc7: aa           	tax
     dc8: e9 6c        	sbc	#$6c
     dca: 50 02        	bvc	$dce <_ZN12_GLOBAL__N_15printEPKcP6Status+0x3ad>
     dcc: 49 80        	eor	#$80
     dce: a8           	tay
     dcf: 10 20        	bpl	$df1 <_ZN12_GLOBAL__N_15printEPKcP6Status+0x3d0>
     dd1: e0 4c        	cpx	#$4c
     dd3: f0 3a        	beq	$e0f <_ZN12_GLOBAL__N_15printEPKcP6Status+0x3ee>
     dd5: 8a           	txa
     dd6: e0 68        	cpx	#$68
     dd8: d0 03        	bne	$ddd <_ZN12_GLOBAL__N_15printEPKcP6Status+0x3bc>
     dda: 4c a5 0e     	jmp	$ea5 <_ZN12_GLOBAL__N_15printEPKcP6Status+0x484>
     ddd: a0 08        	ldy	#$8
     ddf: a6 1f        	ldx	$1f                     ; 0x1f <__rc15>
     de1: c9 6a        	cmp	#$6a
     de3: d0 26        	bne	$e0b <_ZN12_GLOBAL__N_15printEPKcP6Status+0x3ea>
     de5: a6 18        	ldx	$18                     ; 0x18 <__rc8>
     de7: 86 14        	stx	$14                     ; 0x14 <__rc4>
     de9: a6 19        	ldx	$19                     ; 0x19 <__rc9>
     deb: 86 15        	stx	$15                     ; 0x15 <__rc5>
     ded: a2 08        	ldx	#$8
     def: 80 46        	bra	$e37 <_ZN12_GLOBAL__N_15printEPKcP6Status+0x416>
     df1: e0 6c        	cpx	#$6c
     df3: d0 03        	bne	$df8 <_ZN12_GLOBAL__N_15printEPKcP6Status+0x3d7>
     df5: 4c 87 0e     	jmp	$e87 <_ZN12_GLOBAL__N_15printEPKcP6Status+0x466>
     df8: 8a           	txa
     df9: e0 74        	cpx	#$74
     dfb: f0 2e        	beq	$e2b <_ZN12_GLOBAL__N_15printEPKcP6Status+0x40a>
     dfd: a6 1f        	ldx	$1f                     ; 0x1f <__rc15>
     dff: c9 7a        	cmp	#$7a
     e01: d0 08        	bne	$e0b <_ZN12_GLOBAL__N_15printEPKcP6Status+0x3ea>
     e03: a4 18        	ldy	$18                     ; 0x18 <__rc8>
     e05: 84 14        	sty	$14                     ; 0x14 <__rc4>
     e07: a4 19        	ldy	$19                     ; 0x19 <__rc9>
     e09: 84 15        	sty	$15                     ; 0x15 <__rc5>
     e0b: a0 02        	ldy	#$2
     e0d: 80 28        	bra	$e37 <_ZN12_GLOBAL__N_15printEPKcP6Status+0x416>
     e0f: a5 b0        	lda	$b0                     ; 0xb0 <__zp_data_size+0x67>
     e11: 09 40        	ora	#$40
     e13: a6 aa        	ldx	$aa                     ; 0xaa <__zp_data_size+0x61>
     e15: 86 14        	stx	$14                     ; 0x14 <__rc4>
     e17: a6 ab        	ldx	$ab                     ; 0xab <__zp_data_size+0x62>
     e19: 86 15        	stx	$15                     ; 0x15 <__rc5>
     e1b: e6 14        	inc	$14                     ; 0x14 <__rc4>
     e1d: d0 02        	bne	$e21 <_ZN12_GLOBAL__N_15printEPKcP6Status+0x400>
     e1f: e6 15        	inc	$15                     ; 0x15 <__rc5>
     e21: a0 01        	ldy	#$1
     e23: 85 b0        	sta	$b0                     ; 0xb0 <__zp_data_size+0x67>
     e25: 91 aa        	sta	($aa),y                 ; 0xaa <__zp_data_size+0x61>
     e27: a9 00        	lda	#$0
     e29: 91 14        	sta	($14),y                 ; 0x14 <__rc4>
     e2b: a6 18        	ldx	$18                     ; 0x18 <__rc8>
     e2d: 86 14        	stx	$14                     ; 0x14 <__rc4>
     e2f: a6 19        	ldx	$19                     ; 0x19 <__rc9>
     e31: 86 15        	stx	$15                     ; 0x15 <__rc5>
     e33: a0 02        	ldy	#$2
     e35: a6 1f        	ldx	$1f                     ; 0x1f <__rc15>
     e37: b2 14        	lda	($14)                   ; 0x14 <__rc4>
     e39: 5a           	phy
     e3a: a4 14        	ldy	$14                     ; 0x14 <__rc4>
     e3c: 84 18        	sty	$18                     ; 0x18 <__rc8>
     e3e: a4 15        	ldy	$15                     ; 0x15 <__rc5>
     e40: 84 19        	sty	$19                     ; 0x19 <__rc9>
     e42: 7a           	ply
     e43: 86 ac        	stx	$ac                     ; 0xac <__zp_data_size+0x63>
     e45: 5a           	phy
     e46: fa           	plx
     e47: 18           	clc
     e48: a8           	tay
     e49: 69 9d        	adc	#$9d
     e4b: c9 16        	cmp	#$16
     e4d: 86 b2        	stx	$b2                     ; 0xb2 <__zp_data_size+0x69>
     e4f: 90 03        	bcc	$e54 <_ZN12_GLOBAL__N_15printEPKcP6Status+0x433>
     e51: 4c c4 0e     	jmp	$ec4 <_ZN12_GLOBAL__N_15printEPKcP6Status+0x4a3>
     e54: 0a           	asl
     e55: aa           	tax
     e56: 7c 68 1b     	jmp	($1b68,x)               ; 0x1b68 <__heap_default_limit+0xb68>
     e59: a5 1b        	lda	$1b                     ; 0x1b <__rc11>
     e5b: 85 d8        	sta	$d8                     ; 0xd8 <__zp_data_size+0x8f>
     e5d: a4 1a        	ldy	$1a                     ; 0x1a <__rc10>
     e5f: 84 d9        	sty	$d9                     ; 0xd9 <__zp_data_size+0x90>
     e61: a6 16        	ldx	$16                     ; 0x16 <__rc6>
     e63: 86 db        	stx	$db                     ; 0xdb <__zp_data_size+0x92>
     e65: a6 17        	ldx	$17                     ; 0x17 <__rc7>
     e67: 86 da        	stx	$da                     ; 0xda <__zp_data_size+0x91>
     e69: a6 18        	ldx	$18                     ; 0x18 <__rc8>
     e6b: 86 12        	stx	$12                     ; 0x12 <__rc2>
     e6d: a6 19        	ldx	$19                     ; 0x19 <__rc9>
     e6f: 86 13        	stx	$13                     ; 0x13 <__rc3>
     e71: a6 12        	ldx	$12                     ; 0x12 <__rc2>
     e73: 86 d5        	stx	$d5                     ; 0xd5 <__zp_data_size+0x8c>
     e75: a6 13        	ldx	$13                     ; 0x13 <__rc3>
     e77: 86 d6        	stx	$d6                     ; 0xd6 <__zp_data_size+0x8d>
     e79: a9 0a        	lda	#$a
     e7b: aa           	tax
     e7c: 86 b1        	stx	$b1                     ; 0xb1 <__zp_data_size+0x68>
     e7e: 92 aa        	sta	($aa)                   ; 0xaa <__zp_data_size+0x61>
     e80: a2 00        	ldx	#$0
     e82: 86 dc        	stx	$dc                     ; 0xdc <__zp_data_size+0x93>
     e84: 4c cf 10     	jmp	$10cf <_ZN12_GLOBAL__N_15printEPKcP6Status+0x6ae>
     e87: a0 01        	ldy	#$1
     e89: b1 14        	lda	($14),y                 ; 0x14 <__rc4>
     e8b: a2 04        	ldx	#$4
     e8d: c9 6c        	cmp	#$6c
     e8f: d0 2e        	bne	$ebf <_ZN12_GLOBAL__N_15printEPKcP6Status+0x49e>
     e91: a5 14        	lda	$14                     ; 0x14 <__rc4>
     e93: 18           	clc
     e94: 69 02        	adc	#$2
     e96: 85 14        	sta	$14                     ; 0x14 <__rc4>
     e98: a5 15        	lda	$15                     ; 0x15 <__rc5>
     e9a: 69 00        	adc	#$0
     e9c: 85 15        	sta	$15                     ; 0x15 <__rc5>
     e9e: a2 08        	ldx	#$8
     ea0: a0 08        	ldy	#$8
     ea2: 4c 37 0e     	jmp	$e37 <_ZN12_GLOBAL__N_15printEPKcP6Status+0x416>
     ea5: a0 01        	ldy	#$1
     ea7: b1 14        	lda	($14),y                 ; 0x14 <__rc4>
     ea9: a2 02        	ldx	#$2
     eab: c9 68        	cmp	#$68
     ead: d0 10        	bne	$ebf <_ZN12_GLOBAL__N_15printEPKcP6Status+0x49e>
     eaf: a5 14        	lda	$14                     ; 0x14 <__rc4>
     eb1: 18           	clc
     eb2: 69 02        	adc	#$2
     eb4: 85 14        	sta	$14                     ; 0x14 <__rc4>
     eb6: a5 15        	lda	$15                     ; 0x15 <__rc5>
     eb8: 69 00        	adc	#$0
     eba: 85 15        	sta	$15                     ; 0x15 <__rc5>
     ebc: 4c 35 0e     	jmp	$e35 <_ZN12_GLOBAL__N_15printEPKcP6Status+0x414>
     ebf: 86 ac        	stx	$ac                     ; 0xac <__zp_data_size+0x63>
     ec1: 4c 47 0e     	jmp	$e47 <_ZN12_GLOBAL__N_15printEPKcP6Status+0x426>
     ec4: c0 58        	cpy	#$58
     ec6: f0 03        	beq	$ecb <_ZN12_GLOBAL__N_15printEPKcP6Status+0x4aa>
     ec8: 4c 64 15     	jmp	$1564 <_ZN12_GLOBAL__N_15printEPKcP6Status+0xb43>
     ecb: a5 1b        	lda	$1b                     ; 0x1b <__rc11>
     ecd: 85 d8        	sta	$d8                     ; 0xd8 <__zp_data_size+0x8f>
     ecf: a4 1a        	ldy	$1a                     ; 0x1a <__rc10>
     ed1: 84 d9        	sty	$d9                     ; 0xd9 <__zp_data_size+0x90>
     ed3: a6 16        	ldx	$16                     ; 0x16 <__rc6>
     ed5: 86 db        	stx	$db                     ; 0xdb <__zp_data_size+0x92>
     ed7: a6 17        	ldx	$17                     ; 0x17 <__rc7>
     ed9: 86 da        	stx	$da                     ; 0xda <__zp_data_size+0x91>
     edb: a6 18        	ldx	$18                     ; 0x18 <__rc8>
     edd: 86 12        	stx	$12                     ; 0x12 <__rc2>
     edf: a6 19        	ldx	$19                     ; 0x19 <__rc9>
     ee1: 86 13        	stx	$13                     ; 0x13 <__rc3>
     ee3: a6 12        	ldx	$12                     ; 0x12 <__rc2>
     ee5: 86 d5        	stx	$d5                     ; 0xd5 <__zp_data_size+0x8c>
     ee7: a6 13        	ldx	$13                     ; 0x13 <__rc3>
     ee9: 86 d6        	stx	$d6                     ; 0xd6 <__zp_data_size+0x8d>
     eeb: a9 10        	lda	#$10
     eed: 4c af 10     	jmp	$10af <_ZN12_GLOBAL__N_15printEPKcP6Status+0x68e>
     ef0: a5 1b        	lda	$1b                     ; 0x1b <__rc11>
     ef2: 85 d8        	sta	$d8                     ; 0xd8 <__zp_data_size+0x8f>
     ef4: a4 1a        	ldy	$1a                     ; 0x1a <__rc10>
     ef6: 84 d9        	sty	$d9                     ; 0xd9 <__zp_data_size+0x90>
     ef8: a6 16        	ldx	$16                     ; 0x16 <__rc6>
     efa: 86 db        	stx	$db                     ; 0xdb <__zp_data_size+0x92>
     efc: a6 17        	ldx	$17                     ; 0x17 <__rc7>
     efe: 86 da        	stx	$da                     ; 0xda <__zp_data_size+0x91>
     f00: a6 18        	ldx	$18                     ; 0x18 <__rc8>
     f02: 86 12        	stx	$12                     ; 0x12 <__rc2>
     f04: a6 19        	ldx	$19                     ; 0x19 <__rc9>
     f06: 86 13        	stx	$13                     ; 0x13 <__rc3>
     f08: a6 12        	ldx	$12                     ; 0x12 <__rc2>
     f0a: 86 d5        	stx	$d5                     ; 0xd5 <__zp_data_size+0x8c>
     f0c: a6 13        	ldx	$13                     ; 0x13 <__rc3>
     f0e: 86 d6        	stx	$d6                     ; 0xd6 <__zp_data_size+0x8d>
     f10: a9 10        	lda	#$10
     f12: 92 aa        	sta	($aa)                   ; 0xaa <__zp_data_size+0x61>
     f14: a5 b0        	lda	$b0                     ; 0xb0 <__zp_data_size+0x67>
     f16: 09 84        	ora	#$84
     f18: 80 28        	bra	$f42 <_ZN12_GLOBAL__N_15printEPKcP6Status+0x521>
     f1a: a5 1b        	lda	$1b                     ; 0x1b <__rc11>
     f1c: 85 d8        	sta	$d8                     ; 0xd8 <__zp_data_size+0x8f>
     f1e: a4 1a        	ldy	$1a                     ; 0x1a <__rc10>
     f20: 84 d9        	sty	$d9                     ; 0xd9 <__zp_data_size+0x90>
     f22: a6 16        	ldx	$16                     ; 0x16 <__rc6>
     f24: 86 db        	stx	$db                     ; 0xdb <__zp_data_size+0x92>
     f26: a6 17        	ldx	$17                     ; 0x17 <__rc7>
     f28: 86 da        	stx	$da                     ; 0xda <__zp_data_size+0x91>
     f2a: a6 18        	ldx	$18                     ; 0x18 <__rc8>
     f2c: 86 12        	stx	$12                     ; 0x12 <__rc2>
     f2e: a6 19        	ldx	$19                     ; 0x19 <__rc9>
     f30: 86 13        	stx	$13                     ; 0x13 <__rc3>
     f32: a6 12        	ldx	$12                     ; 0x12 <__rc2>
     f34: 86 d5        	stx	$d5                     ; 0xd5 <__zp_data_size+0x8c>
     f36: a6 13        	ldx	$13                     ; 0x13 <__rc3>
     f38: 86 d6        	stx	$d6                     ; 0xd6 <__zp_data_size+0x8d>
     f3a: a9 10        	lda	#$10
     f3c: 92 aa        	sta	($aa)                   ; 0xaa <__zp_data_size+0x61>
     f3e: a5 b0        	lda	$b0                     ; 0xb0 <__zp_data_size+0x67>
     f40: 09 80        	ora	#$80
     f42: 85 14        	sta	$14                     ; 0x14 <__rc4>
     f44: a9 00        	lda	#$0
     f46: 09 01        	ora	#$1
     f48: aa           	tax
     f49: a4 aa        	ldy	$aa                     ; 0xaa <__zp_data_size+0x61>
     f4b: 84 12        	sty	$12                     ; 0x12 <__rc2>
     f4d: a4 ab        	ldy	$ab                     ; 0xab <__zp_data_size+0x62>
     f4f: 84 13        	sty	$13                     ; 0x13 <__rc3>
     f51: e6 12        	inc	$12                     ; 0x12 <__rc2>
     f53: d0 02        	bne	$f57 <_ZN12_GLOBAL__N_15printEPKcP6Status+0x536>
     f55: e6 13        	inc	$13                     ; 0x13 <__rc3>
     f57: a0 01        	ldy	#$1
     f59: a5 14        	lda	$14                     ; 0x14 <__rc4>
     f5b: 85 b0        	sta	$b0                     ; 0xb0 <__zp_data_size+0x67>
     f5d: 4c c8 10     	jmp	$10c8 <_ZN12_GLOBAL__N_15printEPKcP6Status+0x6a7>
     f60: a4 aa        	ldy	$aa                     ; 0xaa <__zp_data_size+0x61>
     f62: a5 aa        	lda	$aa                     ; 0xaa <__zp_data_size+0x61>
     f64: 84 16        	sty	$16                     ; 0x16 <__rc6>
     f66: 18           	clc
     f67: 69 11        	adc	#$11
     f69: 85 12        	sta	$12                     ; 0x12 <__rc2>
     f6b: a5 ab        	lda	$ab                     ; 0xab <__zp_data_size+0x62>
     f6d: 69 00        	adc	#$0
     f6f: 85 13        	sta	$13                     ; 0x13 <__rc3>
     f71: a0 11        	ldy	#$11
     f73: b1 aa        	lda	($aa),y                 ; 0xaa <__zp_data_size+0x61>
     f75: 85 14        	sta	$14                     ; 0x14 <__rc4>
     f77: 18           	clc
     f78: 69 02        	adc	#$2
     f7a: 91 aa        	sta	($aa),y                 ; 0xaa <__zp_data_size+0x61>
     f7c: a0 01        	ldy	#$1
     f7e: b1 12        	lda	($12),y                 ; 0x12 <__rc2>
     f80: 85 15        	sta	$15                     ; 0x15 <__rc5>
     f82: 69 00        	adc	#$0
     f84: 18           	clc
     f85: 91 12        	sta	($12),y                 ; 0x12 <__rc2>
     f87: b2 14        	lda	($14)                   ; 0x14 <__rc4>
     f89: 85 12        	sta	$12                     ; 0x12 <__rc2>
     f8b: b1 14        	lda	($14),y                 ; 0x14 <__rc4>
     f8d: 84 17        	sty	$17                     ; 0x17 <__rc7>
     f8f: 85 13        	sta	$13                     ; 0x13 <__rc3>
     f91: a5 16        	lda	$16                     ; 0x16 <__rc6>
     f93: 69 05        	adc	#$5
     f95: 85 14        	sta	$14                     ; 0x14 <__rc4>
     f97: a5 ab        	lda	$ab                     ; 0xab <__zp_data_size+0x62>
     f99: 69 00        	adc	#$0
     f9b: 85 15        	sta	$15                     ; 0x15 <__rc5>
     f9d: a0 05        	ldy	#$5
     f9f: b1 aa        	lda	($aa),y                 ; 0xaa <__zp_data_size+0x61>
     fa1: 85 16        	sta	$16                     ; 0x16 <__rc6>
     fa3: a4 17        	ldy	$17                     ; 0x17 <__rc7>
     fa5: b1 14        	lda	($14),y                 ; 0x14 <__rc4>
     fa7: 85 14        	sta	$14                     ; 0x14 <__rc4>
     fa9: a5 16        	lda	$16                     ; 0x16 <__rc6>
     fab: 92 12        	sta	($12)                   ; 0x12 <__rc2>
     fad: a5 14        	lda	$14                     ; 0x14 <__rc4>
     faf: 91 12        	sta	($12),y                 ; 0x12 <__rc2>
     fb1: e6 18        	inc	$18                     ; 0x18 <__rc8>
     fb3: d0 02        	bne	$fb7 <_ZN12_GLOBAL__N_15printEPKcP6Status+0x596>
     fb5: e6 19        	inc	$19                     ; 0x19 <__rc9>
     fb7: a6 18        	ldx	$18                     ; 0x18 <__rc8>
     fb9: 86 12        	stx	$12                     ; 0x12 <__rc2>
     fbb: a6 19        	ldx	$19                     ; 0x19 <__rc9>
     fbd: 4c 87 10     	jmp	$1087 <_ZN12_GLOBAL__N_15printEPKcP6Status+0x666>
     fc0: a0 11        	ldy	#$11
     fc2: a5 aa        	lda	$aa                     ; 0xaa <__zp_data_size+0x61>
     fc4: 18           	clc
     fc5: 69 11        	adc	#$11
     fc7: 85 12        	sta	$12                     ; 0x12 <__rc2>
     fc9: a5 ab        	lda	$ab                     ; 0xab <__zp_data_size+0x62>
     fcb: 69 00        	adc	#$0
     fcd: 85 13        	sta	$13                     ; 0x13 <__rc3>
     fcf: b1 aa        	lda	($aa),y                 ; 0xaa <__zp_data_size+0x61>
     fd1: aa           	tax
     fd2: 84 17        	sty	$17                     ; 0x17 <__rc7>
     fd4: a0 01        	ldy	#$1
     fd6: b1 12        	lda	($12),y                 ; 0x12 <__rc2>
     fd8: 86 14        	stx	$14                     ; 0x14 <__rc4>
     fda: 85 15        	sta	$15                     ; 0x15 <__rc5>
     fdc: a8           	tay
     fdd: 18           	clc
     fde: 8a           	txa
     fdf: 69 02        	adc	#$2
     fe1: 85 16        	sta	$16                     ; 0x16 <__rc6>
     fe3: 98           	tya
     fe4: 69 00        	adc	#$0
     fe6: 85 1a        	sta	$1a                     ; 0x1a <__rc10>
     fe8: a5 16        	lda	$16                     ; 0x16 <__rc6>
     fea: a4 17        	ldy	$17                     ; 0x17 <__rc7>
     fec: 91 aa        	sta	($aa),y                 ; 0xaa <__zp_data_size+0x61>
     fee: a0 01        	ldy	#$1
     ff0: a5 1a        	lda	$1a                     ; 0x1a <__rc10>
     ff2: 91 12        	sta	($12),y                 ; 0x12 <__rc2>
     ff4: b2 14        	lda	($14)                   ; 0x14 <__rc4>
     ff6: 85 12        	sta	$12                     ; 0x12 <__rc2>
     ff8: b1 14        	lda	($14),y                 ; 0x14 <__rc4>
     ffa: 85 13        	sta	$13                     ; 0x13 <__rc3>
     ffc: 4c 68 10     	jmp	$1068 <_ZN12_GLOBAL__N_15printEPKcP6Status+0x647>
     fff: a5 1b        	lda	$1b                     ; 0x1b <__rc11>
    1001: 85 d8        	sta	$d8                     ; 0xd8 <__zp_data_size+0x8f>
    1003: a4 1a        	ldy	$1a                     ; 0x1a <__rc10>
    1005: 84 d9        	sty	$d9                     ; 0xd9 <__zp_data_size+0x90>
    1007: a6 16        	ldx	$16                     ; 0x16 <__rc6>
    1009: 86 db        	stx	$db                     ; 0xdb <__zp_data_size+0x92>
    100b: a6 17        	ldx	$17                     ; 0x17 <__rc7>
    100d: 86 da        	stx	$da                     ; 0xda <__zp_data_size+0x91>
    100f: a6 18        	ldx	$18                     ; 0x18 <__rc8>
    1011: 86 12        	stx	$12                     ; 0x12 <__rc2>
    1013: a6 19        	ldx	$19                     ; 0x19 <__rc9>
    1015: 86 13        	stx	$13                     ; 0x13 <__rc3>
    1017: a6 12        	ldx	$12                     ; 0x12 <__rc2>
    1019: 86 d5        	stx	$d5                     ; 0xd5 <__zp_data_size+0x8c>
    101b: a6 13        	ldx	$13                     ; 0x13 <__rc3>
    101d: 86 d6        	stx	$d6                     ; 0xd6 <__zp_data_size+0x8d>
    101f: a9 08        	lda	#$8
    1021: 4c ac 10     	jmp	$10ac <_ZN12_GLOBAL__N_15printEPKcP6Status+0x68b>
    1024: a0 11        	ldy	#$11
    1026: a5 aa        	lda	$aa                     ; 0xaa <__zp_data_size+0x61>
    1028: 18           	clc
    1029: 69 11        	adc	#$11
    102b: 85 12        	sta	$12                     ; 0x12 <__rc2>
    102d: a5 ab        	lda	$ab                     ; 0xab <__zp_data_size+0x62>
    102f: 69 00        	adc	#$0
    1031: 85 13        	sta	$13                     ; 0x13 <__rc3>
    1033: b1 aa        	lda	($aa),y                 ; 0xaa <__zp_data_size+0x61>
    1035: aa           	tax
    1036: 84 17        	sty	$17                     ; 0x17 <__rc7>
    1038: a0 01        	ldy	#$1
    103a: b1 12        	lda	($12),y                 ; 0x12 <__rc2>
    103c: 84 1a        	sty	$1a                     ; 0x1a <__rc10>
    103e: 86 14        	stx	$14                     ; 0x14 <__rc4>
    1040: 85 15        	sta	$15                     ; 0x15 <__rc5>
    1042: a8           	tay
    1043: 18           	clc
    1044: 8a           	txa
    1045: 69 02        	adc	#$2
    1047: 85 16        	sta	$16                     ; 0x16 <__rc6>
    1049: 98           	tya
    104a: 69 00        	adc	#$0
    104c: 85 1b        	sta	$1b                     ; 0x1b <__rc11>
    104e: a5 16        	lda	$16                     ; 0x16 <__rc6>
    1050: a4 17        	ldy	$17                     ; 0x17 <__rc7>
    1052: 91 aa        	sta	($aa),y                 ; 0xaa <__zp_data_size+0x61>
    1054: a4 1a        	ldy	$1a                     ; 0x1a <__rc10>
    1056: a5 1b        	lda	$1b                     ; 0x1b <__rc11>
    1058: 91 12        	sta	($12),y                 ; 0x12 <__rc2>
    105a: b2 14        	lda	($14)                   ; 0x14 <__rc4>
    105c: 85 b5        	sta	$b5                     ; 0xb5 <__zp_data_size+0x6c>
    105e: 64 b6        	stz	$b6                     ; 0xb6 <__zp_data_size+0x6d>
    1060: a2 b5        	ldx	#$b5
    1062: a0 00        	ldy	#$0
    1064: 86 12        	stx	$12                     ; 0x12 <__rc2>
    1066: 84 13        	sty	$13                     ; 0x13 <__rc3>
    1068: a6 18        	ldx	$18                     ; 0x18 <__rc8>
    106a: 86 ac        	stx	$ac                     ; 0xac <__zp_data_size+0x63>
    106c: a6 19        	ldx	$19                     ; 0x19 <__rc9>
    106e: 86 ad        	stx	$ad                     ; 0xad <__zp_data_size+0x64>
    1070: a6 aa        	ldx	$aa                     ; 0xaa <__zp_data_size+0x61>
    1072: 86 14        	stx	$14                     ; 0x14 <__rc4>
    1074: a6 ab        	ldx	$ab                     ; 0xab <__zp_data_size+0x62>
    1076: 86 15        	stx	$15                     ; 0x15 <__rc5>
    1078: 20 6e 16     	jsr	$166e <_ZN12_GLOBAL__N_112print_stringEPKcP6Status>
    107b: e6 ac        	inc	$ac                     ; 0xac <__zp_data_size+0x63>
    107d: d0 02        	bne	$1081 <_ZN12_GLOBAL__N_15printEPKcP6Status+0x660>
    107f: e6 ad        	inc	$ad                     ; 0xad <__zp_data_size+0x64>
    1081: a6 ac        	ldx	$ac                     ; 0xac <__zp_data_size+0x63>
    1083: 86 12        	stx	$12                     ; 0x12 <__rc2>
    1085: a6 ad        	ldx	$ad                     ; 0xad <__zp_data_size+0x64>
    1087: 86 13        	stx	$13                     ; 0x13 <__rc3>
    1089: 60           	rts
    108a: a5 1b        	lda	$1b                     ; 0x1b <__rc11>
    108c: 85 d8        	sta	$d8                     ; 0xd8 <__zp_data_size+0x8f>
    108e: a4 1a        	ldy	$1a                     ; 0x1a <__rc10>
    1090: 84 d9        	sty	$d9                     ; 0xd9 <__zp_data_size+0x90>
    1092: a6 16        	ldx	$16                     ; 0x16 <__rc6>
    1094: 86 db        	stx	$db                     ; 0xdb <__zp_data_size+0x92>
    1096: a6 17        	ldx	$17                     ; 0x17 <__rc7>
    1098: 86 da        	stx	$da                     ; 0xda <__zp_data_size+0x91>
    109a: a6 18        	ldx	$18                     ; 0x18 <__rc8>
    109c: 86 12        	stx	$12                     ; 0x12 <__rc2>
    109e: a6 19        	ldx	$19                     ; 0x19 <__rc9>
    10a0: 86 13        	stx	$13                     ; 0x13 <__rc3>
    10a2: a6 12        	ldx	$12                     ; 0x12 <__rc2>
    10a4: 86 d5        	stx	$d5                     ; 0xd5 <__zp_data_size+0x8c>
    10a6: a6 13        	ldx	$13                     ; 0x13 <__rc3>
    10a8: 86 d6        	stx	$d6                     ; 0xd6 <__zp_data_size+0x8d>
    10aa: a9 0a        	lda	#$a
    10ac: aa           	tax
    10ad: 86 b1        	stx	$b1                     ; 0xb1 <__zp_data_size+0x68>
    10af: 92 aa        	sta	($aa)                   ; 0xaa <__zp_data_size+0x61>
    10b1: a9 00        	lda	#$0
    10b3: 09 01        	ora	#$1
    10b5: aa           	tax
    10b6: a4 aa        	ldy	$aa                     ; 0xaa <__zp_data_size+0x61>
    10b8: 84 12        	sty	$12                     ; 0x12 <__rc2>
    10ba: a4 ab        	ldy	$ab                     ; 0xab <__zp_data_size+0x62>
    10bc: 84 13        	sty	$13                     ; 0x13 <__rc3>
    10be: e6 12        	inc	$12                     ; 0x12 <__rc2>
    10c0: d0 02        	bne	$10c4 <_ZN12_GLOBAL__N_15printEPKcP6Status+0x6a3>
    10c2: e6 13        	inc	$13                     ; 0x13 <__rc3>
    10c4: a0 01        	ldy	#$1
    10c6: a5 b0        	lda	$b0                     ; 0xb0 <__zp_data_size+0x67>
    10c8: 91 aa        	sta	($aa),y                 ; 0xaa <__zp_data_size+0x61>
    10ca: 8a           	txa
    10cb: 86 dc        	stx	$dc                     ; 0xdc <__zp_data_size+0x93>
    10cd: 91 12        	sta	($12),y                 ; 0x12 <__rc2>
    10cf: a2 cc        	ldx	#$cc
    10d1: a0 00        	ldy	#$0
    10d3: 86 12        	stx	$12                     ; 0x12 <__rc2>
    10d5: 84 13        	sty	$13                     ; 0x13 <__rc3>
    10d7: e6 12        	inc	$12                     ; 0x12 <__rc2>
    10d9: d0 02        	bne	$10dd <_ZN12_GLOBAL__N_15printEPKcP6Status+0x6bc>
    10db: e6 13        	inc	$13                     ; 0x13 <__rc3>
    10dd: a0 11        	ldy	#$11
    10df: a2 00        	ldx	#$0
    10e1: a5 aa        	lda	$aa                     ; 0xaa <__zp_data_size+0x61>
    10e3: 18           	clc
    10e4: 69 11        	adc	#$11
    10e6: 85 ae        	sta	$ae                     ; 0xae <__zp_data_size+0x65>
    10e8: a5 ab        	lda	$ab                     ; 0xab <__zp_data_size+0x62>
    10ea: 69 00        	adc	#$0
    10ec: 85 af        	sta	$af                     ; 0xaf <__zp_data_size+0x66>
    10ee: b1 aa        	lda	($aa),y                 ; 0xaa <__zp_data_size+0x61>
    10f0: 85 ad        	sta	$ad                     ; 0xad <__zp_data_size+0x64>
    10f2: a0 01        	ldy	#$1
    10f4: b1 ae        	lda	($ae),y                 ; 0xae <__zp_data_size+0x65>
    10f6: a4 ad        	ldy	$ad                     ; 0xad <__zp_data_size+0x64>
    10f8: 84 14        	sty	$14                     ; 0x14 <__rc4>
    10fa: 85 15        	sta	$15                     ; 0x15 <__rc5>
    10fc: 85 b4        	sta	$b4                     ; 0xb4 <__zp_data_size+0x6b>
    10fe: 64 b3        	stz	$b3                     ; 0xb3 <__zp_data_size+0x6a>
    1100: a5 b2        	lda	$b2                     ; 0xb2 <__zp_data_size+0x69>
    1102: a4 b2        	ldy	$b2                     ; 0xb2 <__zp_data_size+0x69>
    1104: 84 dd        	sty	$dd                     ; 0xdd <__zp_data_size+0x94>
    1106: 20 0e 1b     	jsr	$1b0e <memcpy>
    1109: a2 00        	ldx	#$0
    110b: 86 18        	stx	$18                     ; 0x18 <__rc8>
    110d: 18           	clc
    110e: a5 ad        	lda	$ad                     ; 0xad <__zp_data_size+0x64>
    1110: 65 ac        	adc	$ac                     ; 0xac <__zp_data_size+0x63>
    1112: aa           	tax
    1113: a5 b4        	lda	$b4                     ; 0xb4 <__zp_data_size+0x6b>
    1115: 69 00        	adc	#$0
    1117: 85 12        	sta	$12                     ; 0x12 <__rc2>
    1119: a0 11        	ldy	#$11
    111b: 8a           	txa
    111c: 91 aa        	sta	($aa),y                 ; 0xaa <__zp_data_size+0x61>
    111e: a5 12        	lda	$12                     ; 0x12 <__rc2>
    1120: a0 01        	ldy	#$1
    1122: 91 ae        	sta	($ae),y                 ; 0xae <__zp_data_size+0x65>
    1124: a5 dc        	lda	$dc                     ; 0xdc <__zp_data_size+0x93>
    1126: 29 01        	and	#$1
    1128: d0 4f        	bne	$1179 <_ZN12_GLOBAL__N_15printEPKcP6Status+0x758>
    112a: a6 dd        	ldx	$dd                     ; 0xdd <__zp_data_size+0x94>
    112c: b4 cc        	ldy	$cc,x                   ; 0xcc <__zp_data_size+0x83>
    112e: a6 da        	ldx	$da                     ; 0xda <__zp_data_size+0x91>
    1130: 86 12        	stx	$12                     ; 0x12 <__rc2>
    1132: a6 db        	ldx	$db                     ; 0xdb <__zp_data_size+0x92>
    1134: 86 13        	stx	$13                     ; 0x13 <__rc3>
    1136: a6 d9        	ldx	$d9                     ; 0xd9 <__zp_data_size+0x90>
    1138: 86 ac        	stx	$ac                     ; 0xac <__zp_data_size+0x63>
    113a: a6 d8        	ldx	$d8                     ; 0xd8 <__zp_data_size+0x8f>
    113c: 86 ad        	stx	$ad                     ; 0xad <__zp_data_size+0x64>
    113e: 98           	tya
    113f: 10 48        	bpl	$1189 <_ZN12_GLOBAL__N_15printEPKcP6Status+0x768>
    1141: a2 00        	ldx	#$0
    1143: 64 14        	stz	$14                     ; 0x14 <__rc4>
    1145: 38           	sec
    1146: a9 00        	lda	#$0
    1148: f5 cd        	sbc	$cd,x                   ; 0xcd <__zp_data_size+0x84>
    114a: a0 01        	ldy	#$1
    114c: 84 16        	sty	$16                     ; 0x16 <__rc6>
    114e: 88           	dey
    114f: b0 02        	bcs	$1153 <_ZN12_GLOBAL__N_15printEPKcP6Status+0x732>
    1151: a0 01        	ldy	#$1
    1153: 38           	sec
    1154: e5 14        	sbc	$14                     ; 0x14 <__rc4>
    1156: 85 15        	sta	$15                     ; 0x15 <__rc5>
    1158: 64 14        	stz	$14                     ; 0x14 <__rc4>
    115a: b0 04        	bcs	$1160 <_ZN12_GLOBAL__N_15printEPKcP6Status+0x73f>
    115c: a5 16        	lda	$16                     ; 0x16 <__rc6>
    115e: 85 14        	sta	$14                     ; 0x14 <__rc4>
    1160: 98           	tya
    1161: 05 14        	ora	$14                     ; 0x14 <__rc4>
    1163: 85 14        	sta	$14                     ; 0x14 <__rc4>
    1165: a5 15        	lda	$15                     ; 0x15 <__rc5>
    1167: 9d cd 00     	sta	$cd,x                   ; 0xcd <__zp_data_size+0x84>
    116a: e8           	inx
    116b: 86 15        	stx	$15                     ; 0x15 <__rc5>
    116d: a4 b2        	ldy	$b2                     ; 0xb2 <__zp_data_size+0x69>
    116f: c4 15        	cpy	$15                     ; 0x15 <__rc5>
    1171: d0 d2        	bne	$1145 <_ZN12_GLOBAL__N_15printEPKcP6Status+0x724>
    1173: a2 01        	ldx	#$1
    1175: 86 18        	stx	$18                     ; 0x18 <__rc8>
    1177: 80 10        	bra	$1189 <_ZN12_GLOBAL__N_15printEPKcP6Status+0x768>
    1179: a6 da        	ldx	$da                     ; 0xda <__zp_data_size+0x91>
    117b: 86 12        	stx	$12                     ; 0x12 <__rc2>
    117d: a6 db        	ldx	$db                     ; 0xdb <__zp_data_size+0x92>
    117f: 86 13        	stx	$13                     ; 0x13 <__rc3>
    1181: a6 d9        	ldx	$d9                     ; 0xd9 <__zp_data_size+0x90>
    1183: 86 ac        	stx	$ac                     ; 0xac <__zp_data_size+0x63>
    1185: a6 d8        	ldx	$d8                     ; 0xd8 <__zp_data_size+0x8f>
    1187: 86 ad        	stx	$ad                     ; 0xad <__zp_data_size+0x64>
    1189: a5 b2        	lda	$b2                     ; 0xb2 <__zp_data_size+0x69>
    118b: 0a           	asl
    118c: 0a           	asl
    118d: 0a           	asl
    118e: 85 14        	sta	$14                     ; 0x14 <__rc4>
    1190: a0 00        	ldy	#$0
    1192: 98           	tya
    1193: f0 50        	beq	$11e5 <_ZN12_GLOBAL__N_15printEPKcP6Status+0x7c4>
    1195: 84 17        	sty	$17                     ; 0x17 <__rc7>
    1197: 88           	dey
    1198: 84 19        	sty	$19                     ; 0x19 <__rc9>
    119a: a2 00        	ldx	#$0
    119c: 64 15        	stz	$15                     ; 0x15 <__rc5>
    119e: 80 0d        	bra	$11ad <_ZN12_GLOBAL__N_15printEPKcP6Status+0x78c>
    11a0: a4 15        	ldy	$15                     ; 0x15 <__rc5>
    11a2: 99 b7 00     	sta	$b7,y                   ; 0xb7 <__zp_data_size+0x6e>
    11a5: a4 19        	ldy	$19                     ; 0x19 <__rc9>
    11a7: c4 15        	cpy	$15                     ; 0x15 <__rc5>
    11a9: f0 46        	beq	$11f1 <_ZN12_GLOBAL__N_15printEPKcP6Status+0x7d0>
    11ab: e6 15        	inc	$15                     ; 0x15 <__rc5>
    11ad: a4 15        	ldy	$15                     ; 0x15 <__rc5>
    11af: b9 b7 00     	lda	$b7,y                   ; 0xb7 <__zp_data_size+0x6e>
    11b2: 0a           	asl
    11b3: e0 00        	cpx	#$0
    11b5: f0 02        	beq	$11b9 <_ZN12_GLOBAL__N_15printEPKcP6Status+0x798>
    11b7: 09 01        	ora	#$1
    11b9: a4 b1        	ldy	$b1                     ; 0xb1 <__zp_data_size+0x68>
    11bb: 84 16        	sty	$16                     ; 0x16 <__rc6>
    11bd: c5 16        	cmp	$16                     ; 0x16 <__rc6>
    11bf: a2 01        	ldx	#$1
    11c1: b0 02        	bcs	$11c5 <_ZN12_GLOBAL__N_15printEPKcP6Status+0x7a4>
    11c3: a2 00        	ldx	#$0
    11c5: 90 d9        	bcc	$11a0 <_ZN12_GLOBAL__N_15printEPKcP6Status+0x77f>
    11c7: 84 16        	sty	$16                     ; 0x16 <__rc6>
    11c9: 38           	sec
    11ca: e5 16        	sbc	$16                     ; 0x16 <__rc6>
    11cc: a4 15        	ldy	$15                     ; 0x15 <__rc5>
    11ce: 99 b7 00     	sta	$b7,y                   ; 0xb7 <__zp_data_size+0x6e>
    11d1: a4 19        	ldy	$19                     ; 0x19 <__rc9>
    11d3: c4 15        	cpy	$15                     ; 0x15 <__rc5>
    11d5: d0 d4        	bne	$11ab <_ZN12_GLOBAL__N_15printEPKcP6Status+0x78a>
    11d7: a4 17        	ldy	$17                     ; 0x17 <__rc7>
    11d9: a6 17        	ldx	$17                     ; 0x17 <__rc7>
    11db: e8           	inx
    11dc: a9 01        	lda	#$1
    11de: 99 b7 00     	sta	$b7,y                   ; 0xb7 <__zp_data_size+0x6e>
    11e1: da           	phx
    11e2: 7a           	ply
    11e3: 80 0e        	bra	$11f3 <_ZN12_GLOBAL__N_15printEPKcP6Status+0x7d2>
    11e5: a6 b2        	ldx	$b2                     ; 0xb2 <__zp_data_size+0x69>
    11e7: b5 cc        	lda	$cc,x                   ; 0xcc <__zp_data_size+0x83>
    11e9: aa           	tax
    11ea: a0 00        	ldy	#$0
    11ec: 8a           	txa
    11ed: 30 36        	bmi	$1225 <_ZN12_GLOBAL__N_15printEPKcP6Status+0x804>
    11ef: 80 3e        	bra	$122f <_ZN12_GLOBAL__N_15printEPKcP6Status+0x80e>
    11f1: a4 17        	ldy	$17                     ; 0x17 <__rc7>
    11f3: a6 b2        	ldx	$b2                     ; 0xb2 <__zp_data_size+0x69>
    11f5: b5 cc        	lda	$cc,x                   ; 0xcc <__zp_data_size+0x83>
    11f7: aa           	tax
    11f8: 10 35        	bpl	$122f <_ZN12_GLOBAL__N_15printEPKcP6Status+0x80e>
    11fa: 98           	tya
    11fb: f0 26        	beq	$1223 <_ZN12_GLOBAL__N_15printEPKcP6Status+0x802>
    11fd: 84 16        	sty	$16                     ; 0x16 <__rc6>
    11ff: a2 00        	ldx	#$0
    1201: a4 b1        	ldy	$b1                     ; 0xb1 <__zp_data_size+0x68>
    1203: b5 b7        	lda	$b7,x                   ; 0xb7 <__zp_data_size+0x6e>
    1205: 1a           	inc
    1206: f6 b7        	inc	$b7,x                   ; 0xb7 <__zp_data_size+0x6e>
    1208: 84 15        	sty	$15                     ; 0x15 <__rc5>
    120a: c5 15        	cmp	$15                     ; 0x15 <__rc5>
    120c: 90 4e        	bcc	$125c <_ZN12_GLOBAL__N_15printEPKcP6Status+0x83b>
    120e: 84 15        	sty	$15                     ; 0x15 <__rc5>
    1210: 38           	sec
    1211: e5 15        	sbc	$15                     ; 0x15 <__rc5>
    1213: 9d b7 00     	sta	$b7,x                   ; 0xb7 <__zp_data_size+0x6e>
    1216: e8           	inx
    1217: 86 15        	stx	$15                     ; 0x15 <__rc5>
    1219: a5 16        	lda	$16                     ; 0x16 <__rc6>
    121b: c5 15        	cmp	$15                     ; 0x15 <__rc5>
    121d: d0 e4        	bne	$1203 <_ZN12_GLOBAL__N_15printEPKcP6Status+0x7e2>
    121f: a4 16        	ldy	$16                     ; 0x16 <__rc6>
    1221: 80 02        	bra	$1225 <_ZN12_GLOBAL__N_15printEPKcP6Status+0x804>
    1223: a0 00        	ldy	#$0
    1225: 5a           	phy
    1226: fa           	plx
    1227: e8           	inx
    1228: a9 01        	lda	#$1
    122a: 99 b7 00     	sta	$b7,y                   ; 0xb7 <__zp_data_size+0x6e>
    122d: da           	phx
    122e: 7a           	ply
    122f: 84 19        	sty	$19                     ; 0x19 <__rc9>
    1231: 64 15        	stz	$15                     ; 0x15 <__rc5>
    1233: a2 00        	ldx	#$0
    1235: a4 b2        	ldy	$b2                     ; 0xb2 <__zp_data_size+0x69>
    1237: b5 cd        	lda	$cd,x                   ; 0xcd <__zp_data_size+0x84>
    1239: 0a           	asl
    123a: 64 16        	stz	$16                     ; 0x16 <__rc6>
    123c: 26 16        	rol	$16                     ; 0x16 <__rc6>
    123e: 05 15        	ora	$15                     ; 0x15 <__rc5>
    1240: 9d cd 00     	sta	$cd,x                   ; 0xcd <__zp_data_size+0x84>
    1243: e8           	inx
    1244: 86 17        	stx	$17                     ; 0x17 <__rc7>
    1246: a5 16        	lda	$16                     ; 0x16 <__rc6>
    1248: 85 15        	sta	$15                     ; 0x15 <__rc5>
    124a: c4 17        	cpy	$17                     ; 0x17 <__rc7>
    124c: d0 e9        	bne	$1237 <_ZN12_GLOBAL__N_15printEPKcP6Status+0x816>
    124e: a6 b3        	ldx	$b3                     ; 0xb3 <__zp_data_size+0x6a>
    1250: e8           	inx
    1251: 86 b3        	stx	$b3                     ; 0xb3 <__zp_data_size+0x6a>
    1253: e4 14        	cpx	$14                     ; 0x14 <__rc4>
    1255: a4 19        	ldy	$19                     ; 0x19 <__rc9>
    1257: b0 07        	bcs	$1260 <_ZN12_GLOBAL__N_15printEPKcP6Status+0x83f>
    1259: 4c 92 11     	jmp	$1192 <_ZN12_GLOBAL__N_15printEPKcP6Status+0x771>
    125c: a4 16        	ldy	$16                     ; 0x16 <__rc6>
    125e: 80 cf        	bra	$122f <_ZN12_GLOBAL__N_15printEPKcP6Status+0x80e>
    1260: a5 b0        	lda	$b0                     ; 0xb0 <__zp_data_size+0x67>
    1262: a6 ad        	ldx	$ad                     ; 0xad <__zp_data_size+0x64>
    1264: 10 06        	bpl	$126c <_ZN12_GLOBAL__N_15printEPKcP6Status+0x84b>
    1266: a2 01        	ldx	#$1
    1268: 64 ad        	stz	$ad                     ; 0xad <__zp_data_size+0x64>
    126a: 86 ac        	stx	$ac                     ; 0xac <__zp_data_size+0x63>
    126c: 29 04        	and	#$4
    126e: f0 29        	beq	$1299 <_ZN12_GLOBAL__N_15printEPKcP6Status+0x878>
    1270: a6 b1        	ldx	$b1                     ; 0xb1 <__zp_data_size+0x68>
    1272: e0 10        	cpx	#$10
    1274: f0 12        	beq	$1288 <_ZN12_GLOBAL__N_15printEPKcP6Status+0x867>
    1276: e0 08        	cpx	#$8
    1278: d0 1f        	bne	$1299 <_ZN12_GLOBAL__N_15printEPKcP6Status+0x878>
    127a: a2 00        	ldx	#$0
    127c: e4 ad        	cpx	$ad                     ; 0xad <__zp_data_size+0x64>
    127e: f0 03        	beq	$1283 <_ZN12_GLOBAL__N_15printEPKcP6Status+0x862>
    1280: 4c 65 15     	jmp	$1565 <_ZN12_GLOBAL__N_15printEPKcP6Status+0xb44>
    1283: c4 ac        	cpy	$ac                     ; 0xac <__zp_data_size+0x63>
    1285: 4c 67 15     	jmp	$1567 <_ZN12_GLOBAL__N_15printEPKcP6Status+0xb46>
    1288: 98           	tya
    1289: f0 0e        	beq	$1299 <_ZN12_GLOBAL__N_15printEPKcP6Status+0x878>
    128b: a5 b0        	lda	$b0                     ; 0xb0 <__zp_data_size+0x67>
    128d: 29 80        	and	#$80
    128f: d0 03        	bne	$1294 <_ZN12_GLOBAL__N_15printEPKcP6Status+0x873>
    1291: 4c 7a 15     	jmp	$157a <_ZN12_GLOBAL__N_15printEPKcP6Status+0xb59>
    1294: a2 78        	ldx	#$78
    1296: 4c 7c 15     	jmp	$157c <_ZN12_GLOBAL__N_15printEPKcP6Status+0xb5b>
    1299: a5 b0        	lda	$b0                     ; 0xb0 <__zp_data_size+0x67>
    129b: a2 2d        	ldx	#$2d
    129d: e6 18        	inc	$18                     ; 0x18 <__rc8>
    129f: c6 18        	dec	$18                     ; 0x18 <__rc8>
    12a1: d0 1a        	bne	$12bd <_ZN12_GLOBAL__N_15printEPKcP6Status+0x89c>
    12a3: 85 14        	sta	$14                     ; 0x14 <__rc4>
    12a5: 29 02        	and	#$2
    12a7: a2 2b        	ldx	#$2b
    12a9: c9 00        	cmp	#$0
    12ab: d0 10        	bne	$12bd <_ZN12_GLOBAL__N_15printEPKcP6Status+0x89c>
    12ad: a5 14        	lda	$14                     ; 0x14 <__rc4>
    12af: 29 08        	and	#$8
    12b1: d0 08        	bne	$12bb <_ZN12_GLOBAL__N_15printEPKcP6Status+0x89a>
    12b3: a2 01        	ldx	#$1
    12b5: 86 b3        	stx	$b3                     ; 0xb3 <__zp_data_size+0x6a>
    12b7: a9 00        	lda	#$0
    12b9: 80 0a        	bra	$12c5 <_ZN12_GLOBAL__N_15printEPKcP6Status+0x8a4>
    12bb: a2 20        	ldx	#$20
    12bd: 86 b2        	stx	$b2                     ; 0xb2 <__zp_data_size+0x69>
    12bf: a2 00        	ldx	#$0
    12c1: 86 b3        	stx	$b3                     ; 0xb3 <__zp_data_size+0x6a>
    12c3: a9 01        	lda	#$1
    12c5: a6 ad        	ldx	$ad                     ; 0xad <__zp_data_size+0x64>
    12c7: d0 08        	bne	$12d1 <_ZN12_GLOBAL__N_15printEPKcP6Status+0x8b0>
    12c9: a6 ac        	ldx	$ac                     ; 0xac <__zp_data_size+0x63>
    12cb: 84 14        	sty	$14                     ; 0x14 <__rc4>
    12cd: e4 14        	cpx	$14                     ; 0x14 <__rc4>
    12cf: 80 04        	bra	$12d5 <_ZN12_GLOBAL__N_15printEPKcP6Status+0x8b4>
    12d1: a6 ad        	ldx	$ad                     ; 0xad <__zp_data_size+0x64>
    12d3: e0 00        	cpx	#$0
    12d5: a6 ac        	ldx	$ac                     ; 0xac <__zp_data_size+0x63>
    12d7: 86 14        	stx	$14                     ; 0x14 <__rc4>
    12d9: a6 ad        	ldx	$ad                     ; 0xad <__zp_data_size+0x64>
    12db: 86 15        	stx	$15                     ; 0x15 <__rc5>
    12dd: b0 04        	bcs	$12e3 <_ZN12_GLOBAL__N_15printEPKcP6Status+0x8c2>
    12df: 84 14        	sty	$14                     ; 0x14 <__rc4>
    12e1: 64 15        	stz	$15                     ; 0x15 <__rc5>
    12e3: 18           	clc
    12e4: aa           	tax
    12e5: 65 14        	adc	$14                     ; 0x14 <__rc4>
    12e7: 85 18        	sta	$18                     ; 0x18 <__rc8>
    12e9: 85 16        	sta	$16                     ; 0x16 <__rc6>
    12eb: a5 15        	lda	$15                     ; 0x15 <__rc5>
    12ed: 69 00        	adc	#$0
    12ef: 85 17        	sta	$17                     ; 0x17 <__rc7>
    12f1: 84 af        	sty	$af                     ; 0xaf <__zp_data_size+0x66>
    12f3: c5 12        	cmp	$12                     ; 0x12 <__rc2>
    12f5: d0 06        	bne	$12fd <_ZN12_GLOBAL__N_15printEPKcP6Status+0x8dc>
    12f7: a4 18        	ldy	$18                     ; 0x18 <__rc8>
    12f9: c4 13        	cpy	$13                     ; 0x13 <__rc3>
    12fb: 80 02        	bra	$12ff <_ZN12_GLOBAL__N_15printEPKcP6Status+0x8de>
    12fd: c5 12        	cmp	$12                     ; 0x12 <__rc2>
    12ff: 64 ae        	stz	$ae                     ; 0xae <__zp_data_size+0x65>
    1301: 90 05        	bcc	$1308 <_ZN12_GLOBAL__N_15printEPKcP6Status+0x8e7>
    1303: 64 b0        	stz	$b0                     ; 0xb0 <__zp_data_size+0x67>
    1305: 4c 59 13     	jmp	$1359 <_ZN12_GLOBAL__N_15printEPKcP6Status+0x938>
    1308: a5 b0        	lda	$b0                     ; 0xb0 <__zp_data_size+0x67>
    130a: 29 11        	and	#$11
    130c: f0 0f        	beq	$131d <_ZN12_GLOBAL__N_15printEPKcP6Status+0x8fc>
    130e: a5 13        	lda	$13                     ; 0x13 <__rc3>
    1310: 38           	sec
    1311: e5 16        	sbc	$16                     ; 0x16 <__rc6>
    1313: 85 ae        	sta	$ae                     ; 0xae <__zp_data_size+0x65>
    1315: a5 12        	lda	$12                     ; 0x12 <__rc2>
    1317: e5 17        	sbc	$17                     ; 0x17 <__rc7>
    1319: 85 b0        	sta	$b0                     ; 0xb0 <__zp_data_size+0x67>
    131b: 80 3c        	bra	$1359 <_ZN12_GLOBAL__N_15printEPKcP6Status+0x938>
    131d: 8a           	txa
    131e: 38           	sec
    131f: e5 13        	sbc	$13                     ; 0x13 <__rc3>
    1321: aa           	tax
    1322: a9 00        	lda	#$0
    1324: e5 12        	sbc	$12                     ; 0x12 <__rc2>
    1326: 85 12        	sta	$12                     ; 0x12 <__rc2>
    1328: 18           	clc
    1329: 8a           	txa
    132a: 65 14        	adc	$14                     ; 0x14 <__rc4>
    132c: 85 ae        	sta	$ae                     ; 0xae <__zp_data_size+0x65>
    132e: a5 12        	lda	$12                     ; 0x12 <__rc2>
    1330: 65 15        	adc	$15                     ; 0x15 <__rc5>
    1332: 85 b0        	sta	$b0                     ; 0xb0 <__zp_data_size+0x67>
    1334: a2 20        	ldx	#$20
    1336: 86 b4        	stx	$b4                     ; 0xb4 <__zp_data_size+0x6b>
    1338: a6 aa        	ldx	$aa                     ; 0xaa <__zp_data_size+0x61>
    133a: 86 12        	stx	$12                     ; 0x12 <__rc2>
    133c: a6 ab        	ldx	$ab                     ; 0xab <__zp_data_size+0x62>
    133e: 86 13        	stx	$13                     ; 0x13 <__rc3>
    1340: a5 b4        	lda	$b4                     ; 0xb4 <__zp_data_size+0x6b>
    1342: 20 97 15     	jsr	$1597 <_ZN12_GLOBAL__N_13putEcP6Status>
    1345: a6 b0        	ldx	$b0                     ; 0xb0 <__zp_data_size+0x67>
    1347: e6 ae        	inc	$ae                     ; 0xae <__zp_data_size+0x65>
    1349: d0 01        	bne	$134c <_ZN12_GLOBAL__N_15printEPKcP6Status+0x92b>
    134b: e8           	inx
    134c: 86 b0        	stx	$b0                     ; 0xb0 <__zp_data_size+0x67>
    134e: 8a           	txa
    134f: d0 e7        	bne	$1338 <_ZN12_GLOBAL__N_15printEPKcP6Status+0x917>
    1351: a5 ae        	lda	$ae                     ; 0xae <__zp_data_size+0x65>
    1353: d0 e3        	bne	$1338 <_ZN12_GLOBAL__N_15printEPKcP6Status+0x917>
    1355: 64 b0        	stz	$b0                     ; 0xb0 <__zp_data_size+0x67>
    1357: 64 ae        	stz	$ae                     ; 0xae <__zp_data_size+0x65>
    1359: a5 b3        	lda	$b3                     ; 0xb3 <__zp_data_size+0x6a>
    135b: d0 0d        	bne	$136a <_ZN12_GLOBAL__N_15printEPKcP6Status+0x949>
    135d: a6 aa        	ldx	$aa                     ; 0xaa <__zp_data_size+0x61>
    135f: 86 12        	stx	$12                     ; 0x12 <__rc2>
    1361: a6 ab        	ldx	$ab                     ; 0xab <__zp_data_size+0x62>
    1363: 86 13        	stx	$13                     ; 0x13 <__rc3>
    1365: a5 b2        	lda	$b2                     ; 0xb2 <__zp_data_size+0x69>
    1367: 20 97 15     	jsr	$1597 <_ZN12_GLOBAL__N_13putEcP6Status>
    136a: a6 d7        	ldx	$d7                     ; 0xd7 <__zp_data_size+0x8e>
    136c: f0 0d        	beq	$137b <_ZN12_GLOBAL__N_15printEPKcP6Status+0x95a>
    136e: a6 aa        	ldx	$aa                     ; 0xaa <__zp_data_size+0x61>
    1370: 86 12        	stx	$12                     ; 0x12 <__rc2>
    1372: a6 ab        	ldx	$ab                     ; 0xab <__zp_data_size+0x62>
    1374: 86 13        	stx	$13                     ; 0x13 <__rc3>
    1376: a5 b1        	lda	$b1                     ; 0xb1 <__zp_data_size+0x68>
    1378: 20 97 15     	jsr	$1597 <_ZN12_GLOBAL__N_13putEcP6Status>
    137b: a0 01        	ldy	#$1
    137d: b1 aa        	lda	($aa),y                 ; 0xaa <__zp_data_size+0x61>
    137f: aa           	tax
    1380: 29 10        	and	#$10
    1382: f0 3a        	beq	$13be <_ZN12_GLOBAL__N_15printEPKcP6Status+0x99d>
    1384: 8a           	txa
    1385: 29 01        	and	#$1
    1387: a6 af        	ldx	$af                     ; 0xaf <__zp_data_size+0x66>
    1389: a8           	tay
    138a: d0 34        	bne	$13c0 <_ZN12_GLOBAL__N_15printEPKcP6Status+0x99f>
    138c: a5 b0        	lda	$b0                     ; 0xb0 <__zp_data_size+0x67>
    138e: d0 07        	bne	$1397 <_ZN12_GLOBAL__N_15printEPKcP6Status+0x976>
    1390: a5 ae        	lda	$ae                     ; 0xae <__zp_data_size+0x65>
    1392: d0 03        	bne	$1397 <_ZN12_GLOBAL__N_15printEPKcP6Status+0x976>
    1394: 4c 90 15     	jmp	$1590 <_ZN12_GLOBAL__N_15printEPKcP6Status+0xb6f>
    1397: a2 30        	ldx	#$30
    1399: 86 b1        	stx	$b1                     ; 0xb1 <__zp_data_size+0x68>
    139b: a6 aa        	ldx	$aa                     ; 0xaa <__zp_data_size+0x61>
    139d: 86 12        	stx	$12                     ; 0x12 <__rc2>
    139f: a6 ab        	ldx	$ab                     ; 0xab <__zp_data_size+0x62>
    13a1: 86 13        	stx	$13                     ; 0x13 <__rc3>
    13a3: a5 b1        	lda	$b1                     ; 0xb1 <__zp_data_size+0x68>
    13a5: 20 97 15     	jsr	$1597 <_ZN12_GLOBAL__N_13putEcP6Status>
    13a8: a2 ff        	ldx	#$ff
    13aa: c6 ae        	dec	$ae                     ; 0xae <__zp_data_size+0x65>
    13ac: e4 ae        	cpx	$ae                     ; 0xae <__zp_data_size+0x65>
    13ae: d0 02        	bne	$13b2 <_ZN12_GLOBAL__N_15printEPKcP6Status+0x991>
    13b0: c6 b0        	dec	$b0                     ; 0xb0 <__zp_data_size+0x67>
    13b2: a5 b0        	lda	$b0                     ; 0xb0 <__zp_data_size+0x67>
    13b4: d0 e5        	bne	$139b <_ZN12_GLOBAL__N_15printEPKcP6Status+0x97a>
    13b6: a5 ae        	lda	$ae                     ; 0xae <__zp_data_size+0x65>
    13b8: d0 e1        	bne	$139b <_ZN12_GLOBAL__N_15printEPKcP6Status+0x97a>
    13ba: 64 ae        	stz	$ae                     ; 0xae <__zp_data_size+0x65>
    13bc: 64 b0        	stz	$b0                     ; 0xb0 <__zp_data_size+0x67>
    13be: a6 af        	ldx	$af                     ; 0xaf <__zp_data_size+0x66>
    13c0: a0 00        	ldy	#$0
    13c2: c4 ad        	cpy	$ad                     ; 0xad <__zp_data_size+0x64>
    13c4: d0 06        	bne	$13cc <_ZN12_GLOBAL__N_15printEPKcP6Status+0x9ab>
    13c6: e4 ac        	cpx	$ac                     ; 0xac <__zp_data_size+0x63>
    13c8: 90 06        	bcc	$13d0 <_ZN12_GLOBAL__N_15printEPKcP6Status+0x9af>
    13ca: 80 33        	bra	$13ff <_ZN12_GLOBAL__N_15printEPKcP6Status+0x9de>
    13cc: c4 ad        	cpy	$ad                     ; 0xad <__zp_data_size+0x64>
    13ce: b0 2f        	bcs	$13ff <_ZN12_GLOBAL__N_15printEPKcP6Status+0x9de>
    13d0: a2 30        	ldx	#$30
    13d2: 86 b1        	stx	$b1                     ; 0xb1 <__zp_data_size+0x68>
    13d4: a2 ff        	ldx	#$ff
    13d6: c6 ac        	dec	$ac                     ; 0xac <__zp_data_size+0x63>
    13d8: e4 ac        	cpx	$ac                     ; 0xac <__zp_data_size+0x63>
    13da: d0 02        	bne	$13de <_ZN12_GLOBAL__N_15printEPKcP6Status+0x9bd>
    13dc: c6 ad        	dec	$ad                     ; 0xad <__zp_data_size+0x64>
    13de: a6 aa        	ldx	$aa                     ; 0xaa <__zp_data_size+0x61>
    13e0: 86 12        	stx	$12                     ; 0x12 <__rc2>
    13e2: a6 ab        	ldx	$ab                     ; 0xab <__zp_data_size+0x62>
    13e4: 86 13        	stx	$13                     ; 0x13 <__rc3>
    13e6: a5 b1        	lda	$b1                     ; 0xb1 <__zp_data_size+0x68>
    13e8: 20 97 15     	jsr	$1597 <_ZN12_GLOBAL__N_13putEcP6Status>
    13eb: a2 00        	ldx	#$0
    13ed: e4 ad        	cpx	$ad                     ; 0xad <__zp_data_size+0x64>
    13ef: d0 08        	bne	$13f9 <_ZN12_GLOBAL__N_15printEPKcP6Status+0x9d8>
    13f1: a6 af        	ldx	$af                     ; 0xaf <__zp_data_size+0x66>
    13f3: e4 ac        	cpx	$ac                     ; 0xac <__zp_data_size+0x63>
    13f5: 90 dd        	bcc	$13d4 <_ZN12_GLOBAL__N_15printEPKcP6Status+0x9b3>
    13f7: 80 06        	bra	$13ff <_ZN12_GLOBAL__N_15printEPKcP6Status+0x9de>
    13f9: e4 ad        	cpx	$ad                     ; 0xad <__zp_data_size+0x64>
    13fb: a6 af        	ldx	$af                     ; 0xaf <__zp_data_size+0x66>
    13fd: 90 d5        	bcc	$13d4 <_ZN12_GLOBAL__N_15printEPKcP6Status+0x9b3>
    13ff: a4 ae        	ldy	$ae                     ; 0xae <__zp_data_size+0x65>
    1401: 84 af        	sty	$af                     ; 0xaf <__zp_data_size+0x66>
    1403: 8a           	txa
    1404: d0 03        	bne	$1409 <_ZN12_GLOBAL__N_15printEPKcP6Status+0x9e8>
    1406: 4c 99 14     	jmp	$1499 <_ZN12_GLOBAL__N_15printEPKcP6Status+0xa78>
    1409: ca           	dex
    140a: d0 03        	bne	$140f <_ZN12_GLOBAL__N_15printEPKcP6Status+0x9ee>
    140c: 4c 6a 14     	jmp	$146a <_ZN12_GLOBAL__N_15printEPKcP6Status+0xa49>
    140f: 86 ae        	stx	$ae                     ; 0xae <__zp_data_size+0x65>
    1411: a9 b5        	lda	#$b5
    1413: 18           	clc
    1414: 65 ae        	adc	$ae                     ; 0xae <__zp_data_size+0x65>
    1416: aa           	tax
    1417: a9 00        	lda	#$0
    1419: 69 00        	adc	#$0
    141b: 85 12        	sta	$12                     ; 0x12 <__rc2>
    141d: 18           	clc
    141e: 8a           	txa
    141f: 69 02        	adc	#$2
    1421: 85 ac        	sta	$ac                     ; 0xac <__zp_data_size+0x63>
    1423: a5 12        	lda	$12                     ; 0x12 <__rc2>
    1425: 69 00        	adc	#$0
    1427: 85 ad        	sta	$ad                     ; 0xad <__zp_data_size+0x64>
    1429: 80 35        	bra	$1460 <_ZN12_GLOBAL__N_15printEPKcP6Status+0xa3f>
    142b: 85 13        	sta	$13                     ; 0x13 <__rc3>
    142d: a9 80        	lda	#$80
    142f: a0 01        	ldy	#$1
    1431: 31 aa        	and	($aa),y                 ; 0xaa <__zp_data_size+0x61>
    1433: f0 04        	beq	$1439 <_ZN12_GLOBAL__N_15printEPKcP6Status+0xa18>
    1435: a2 61        	ldx	#$61
    1437: 80 02        	bra	$143b <_ZN12_GLOBAL__N_15printEPKcP6Status+0xa1a>
    1439: a2 41        	ldx	#$41
    143b: 86 12        	stx	$12                     ; 0x12 <__rc2>
    143d: 18           	clc
    143e: a5 13        	lda	$13                     ; 0x13 <__rc3>
    1440: 65 12        	adc	$12                     ; 0x12 <__rc2>
    1442: 18           	clc
    1443: 69 f6        	adc	#$f6
    1445: a6 aa        	ldx	$aa                     ; 0xaa <__zp_data_size+0x61>
    1447: 86 12        	stx	$12                     ; 0x12 <__rc2>
    1449: a6 ab        	ldx	$ab                     ; 0xab <__zp_data_size+0x62>
    144b: 86 13        	stx	$13                     ; 0x13 <__rc3>
    144d: 20 97 15     	jsr	$1597 <_ZN12_GLOBAL__N_13putEcP6Status>
    1450: c6 ae        	dec	$ae                     ; 0xae <__zp_data_size+0x65>
    1452: a2 ff        	ldx	#$ff
    1454: c6 ac        	dec	$ac                     ; 0xac <__zp_data_size+0x63>
    1456: e4 ac        	cpx	$ac                     ; 0xac <__zp_data_size+0x63>
    1458: d0 02        	bne	$145c <_ZN12_GLOBAL__N_15printEPKcP6Status+0xa3b>
    145a: c6 ad        	dec	$ad                     ; 0xad <__zp_data_size+0x64>
    145c: a5 ae        	lda	$ae                     ; 0xae <__zp_data_size+0x65>
    145e: f0 0a        	beq	$146a <_ZN12_GLOBAL__N_15printEPKcP6Status+0xa49>
    1460: b2 ac        	lda	($ac)                   ; 0xac <__zp_data_size+0x63>
    1462: c9 0a        	cmp	#$a
    1464: b0 c5        	bcs	$142b <_ZN12_GLOBAL__N_15printEPKcP6Status+0xa0a>
    1466: 09 30        	ora	#$30
    1468: 80 db        	bra	$1445 <_ZN12_GLOBAL__N_15printEPKcP6Status+0xa24>
    146a: a5 b7        	lda	$b7                     ; 0xb7 <__zp_data_size+0x6e>
    146c: c9 0a        	cmp	#$a
    146e: b0 04        	bcs	$1474 <_ZN12_GLOBAL__N_15printEPKcP6Status+0xa53>
    1470: 09 30        	ora	#$30
    1472: 80 1a        	bra	$148e <_ZN12_GLOBAL__N_15printEPKcP6Status+0xa6d>
    1474: 85 13        	sta	$13                     ; 0x13 <__rc3>
    1476: a0 01        	ldy	#$1
    1478: a9 80        	lda	#$80
    147a: 31 aa        	and	($aa),y                 ; 0xaa <__zp_data_size+0x61>
    147c: f0 04        	beq	$1482 <_ZN12_GLOBAL__N_15printEPKcP6Status+0xa61>
    147e: a2 61        	ldx	#$61
    1480: 80 02        	bra	$1484 <_ZN12_GLOBAL__N_15printEPKcP6Status+0xa63>
    1482: a2 41        	ldx	#$41
    1484: 86 12        	stx	$12                     ; 0x12 <__rc2>
    1486: a5 13        	lda	$13                     ; 0x13 <__rc3>
    1488: 18           	clc
    1489: 65 12        	adc	$12                     ; 0x12 <__rc2>
    148b: 18           	clc
    148c: 69 f6        	adc	#$f6
    148e: a6 aa        	ldx	$aa                     ; 0xaa <__zp_data_size+0x61>
    1490: 86 12        	stx	$12                     ; 0x12 <__rc2>
    1492: a6 ab        	ldx	$ab                     ; 0xab <__zp_data_size+0x62>
    1494: 86 13        	stx	$13                     ; 0x13 <__rc3>
    1496: 20 97 15     	jsr	$1597 <_ZN12_GLOBAL__N_13putEcP6Status>
    1499: a0 01        	ldy	#$1
    149b: 98           	tya
    149c: 31 aa        	and	($aa),y                 ; 0xaa <__zp_data_size+0x61>
    149e: f0 2b        	beq	$14cb <_ZN12_GLOBAL__N_15printEPKcP6Status+0xaaa>
    14a0: a5 b0        	lda	$b0                     ; 0xb0 <__zp_data_size+0x67>
    14a2: d0 04        	bne	$14a8 <_ZN12_GLOBAL__N_15printEPKcP6Status+0xa87>
    14a4: a5 af        	lda	$af                     ; 0xaf <__zp_data_size+0x66>
    14a6: f0 23        	beq	$14cb <_ZN12_GLOBAL__N_15printEPKcP6Status+0xaaa>
    14a8: a2 20        	ldx	#$20
    14aa: 86 ac        	stx	$ac                     ; 0xac <__zp_data_size+0x63>
    14ac: a6 aa        	ldx	$aa                     ; 0xaa <__zp_data_size+0x61>
    14ae: 86 12        	stx	$12                     ; 0x12 <__rc2>
    14b0: a6 ab        	ldx	$ab                     ; 0xab <__zp_data_size+0x62>
    14b2: 86 13        	stx	$13                     ; 0x13 <__rc3>
    14b4: a5 ac        	lda	$ac                     ; 0xac <__zp_data_size+0x63>
    14b6: 20 97 15     	jsr	$1597 <_ZN12_GLOBAL__N_13putEcP6Status>
    14b9: a2 ff        	ldx	#$ff
    14bb: c6 af        	dec	$af                     ; 0xaf <__zp_data_size+0x66>
    14bd: e4 af        	cpx	$af                     ; 0xaf <__zp_data_size+0x66>
    14bf: d0 02        	bne	$14c3 <_ZN12_GLOBAL__N_15printEPKcP6Status+0xaa2>
    14c1: c6 b0        	dec	$b0                     ; 0xb0 <__zp_data_size+0x67>
    14c3: a5 b0        	lda	$b0                     ; 0xb0 <__zp_data_size+0x67>
    14c5: d0 e5        	bne	$14ac <_ZN12_GLOBAL__N_15printEPKcP6Status+0xa8b>
    14c7: a5 af        	lda	$af                     ; 0xaf <__zp_data_size+0x66>
    14c9: d0 e1        	bne	$14ac <_ZN12_GLOBAL__N_15printEPKcP6Status+0xa8b>
    14cb: a4 aa        	ldy	$aa                     ; 0xaa <__zp_data_size+0x61>
    14cd: 18           	clc
    14ce: a5 aa        	lda	$aa                     ; 0xaa <__zp_data_size+0x61>
    14d0: 84 14        	sty	$14                     ; 0x14 <__rc4>
    14d2: 69 05        	adc	#$5
    14d4: 85 12        	sta	$12                     ; 0x12 <__rc2>
    14d6: a5 ab        	lda	$ab                     ; 0xab <__zp_data_size+0x62>
    14d8: 69 00        	adc	#$0
    14da: 18           	clc
    14db: 85 13        	sta	$13                     ; 0x13 <__rc3>
    14dd: a0 01        	ldy	#$1
    14df: a5 14        	lda	$14                     ; 0x14 <__rc4>
    14e1: 69 03        	adc	#$3
    14e3: 85 14        	sta	$14                     ; 0x14 <__rc4>
    14e5: a5 ab        	lda	$ab                     ; 0xab <__zp_data_size+0x62>
    14e7: 69 00        	adc	#$0
    14e9: aa           	tax
    14ea: b1 12        	lda	($12),y                 ; 0x12 <__rc2>
    14ec: 84 17        	sty	$17                     ; 0x17 <__rc7>
    14ee: 85 15        	sta	$15                     ; 0x15 <__rc5>
    14f0: a4 14        	ldy	$14                     ; 0x14 <__rc4>
    14f2: 84 12        	sty	$12                     ; 0x12 <__rc2>
    14f4: 86 13        	stx	$13                     ; 0x13 <__rc3>
    14f6: a0 03        	ldy	#$3
    14f8: b1 aa        	lda	($aa),y                 ; 0xaa <__zp_data_size+0x61>
    14fa: 85 16        	sta	$16                     ; 0x16 <__rc6>
    14fc: a4 17        	ldy	$17                     ; 0x17 <__rc7>
    14fe: b1 12        	lda	($12),y                 ; 0x12 <__rc2>
    1500: 85 17        	sta	$17                     ; 0x17 <__rc7>
    1502: 85 12        	sta	$12                     ; 0x12 <__rc2>
    1504: a4 15        	ldy	$15                     ; 0x15 <__rc5>
    1506: c4 12        	cpy	$12                     ; 0x12 <__rc2>
    1508: d0 0c        	bne	$1516 <_ZN12_GLOBAL__N_15printEPKcP6Status+0xaf5>
    150a: a6 16        	ldx	$16                     ; 0x16 <__rc6>
    150c: a0 05        	ldy	#$5
    150e: b1 aa        	lda	($aa),y                 ; 0xaa <__zp_data_size+0x61>
    1510: 86 12        	stx	$12                     ; 0x12 <__rc2>
    1512: c5 12        	cmp	$12                     ; 0x12 <__rc2>
    1514: 80 08        	bra	$151e <_ZN12_GLOBAL__N_15printEPKcP6Status+0xafd>
    1516: 84 13        	sty	$13                     ; 0x13 <__rc3>
    1518: 85 12        	sta	$12                     ; 0x12 <__rc2>
    151a: a6 13        	ldx	$13                     ; 0x13 <__rc3>
    151c: e4 12        	cpx	$12                     ; 0x12 <__rc2>
    151e: a6 d5        	ldx	$d5                     ; 0xd5 <__zp_data_size+0x8c>
    1520: 86 12        	stx	$12                     ; 0x12 <__rc2>
    1522: a6 d6        	ldx	$d6                     ; 0xd6 <__zp_data_size+0x8d>
    1524: 86 13        	stx	$13                     ; 0x13 <__rc3>
    1526: 90 36        	bcc	$155e <_ZN12_GLOBAL__N_15printEPKcP6Status+0xb3d>
    1528: a6 16        	ldx	$16                     ; 0x16 <__rc6>
    152a: a5 17        	lda	$17                     ; 0x17 <__rc7>
    152c: d0 03        	bne	$1531 <_ZN12_GLOBAL__N_15printEPKcP6Status+0xb10>
    152e: 8a           	txa
    152f: f0 2d        	beq	$155e <_ZN12_GLOBAL__N_15printEPKcP6Status+0xb3d>
    1531: a5 aa        	lda	$aa                     ; 0xaa <__zp_data_size+0x61>
    1533: 18           	clc
    1534: 69 09        	adc	#$9
    1536: 85 14        	sta	$14                     ; 0x14 <__rc4>
    1538: a5 ab        	lda	$ab                     ; 0xab <__zp_data_size+0x62>
    153a: 69 00        	adc	#$0
    153c: a0 09        	ldy	#$9
    153e: 85 15        	sta	$15                     ; 0x15 <__rc5>
    1540: 18           	clc
    1541: a5 16        	lda	$16                     ; 0x16 <__rc6>
    1543: 71 aa        	adc	($aa),y                 ; 0xaa <__zp_data_size+0x61>
    1545: aa           	tax
    1546: a0 01        	ldy	#$1
    1548: a5 17        	lda	$17                     ; 0x17 <__rc7>
    154a: 71 14        	adc	($14),y                 ; 0x14 <__rc4>
    154c: 86 14        	stx	$14                     ; 0x14 <__rc4>
    154e: 85 15        	sta	$15                     ; 0x15 <__rc5>
    1550: a2 ff        	ldx	#$ff
    1552: c6 14        	dec	$14                     ; 0x14 <__rc4>
    1554: e4 14        	cpx	$14                     ; 0x14 <__rc4>
    1556: d0 02        	bne	$155a <_ZN12_GLOBAL__N_15printEPKcP6Status+0xb39>
    1558: c6 15        	dec	$15                     ; 0x15 <__rc5>
    155a: a9 00        	lda	#$0
    155c: 92 14        	sta	($14)                   ; 0x14 <__rc4>
    155e: e6 12        	inc	$12                     ; 0x12 <__rc2>
    1560: d0 02        	bne	$1564 <_ZN12_GLOBAL__N_15printEPKcP6Status+0xb43>
    1562: e6 13        	inc	$13                     ; 0x13 <__rc3>
    1564: 60           	rts
    1565: e4 ad        	cpx	$ad                     ; 0xad <__zp_data_size+0x64>
    1567: a5 b0        	lda	$b0                     ; 0xb0 <__zp_data_size+0x67>
    1569: b0 03        	bcs	$156e <_ZN12_GLOBAL__N_15printEPKcP6Status+0xb4d>
    156b: 4c 9b 12     	jmp	$129b <_ZN12_GLOBAL__N_15printEPKcP6Status+0x87a>
    156e: 84 ac        	sty	$ac                     ; 0xac <__zp_data_size+0x63>
    1570: e6 ac        	inc	$ac                     ; 0xac <__zp_data_size+0x63>
    1572: d0 01        	bne	$1575 <_ZN12_GLOBAL__N_15printEPKcP6Status+0xb54>
    1574: e8           	inx
    1575: 86 ad        	stx	$ad                     ; 0xad <__zp_data_size+0x64>
    1577: 4c 9b 12     	jmp	$129b <_ZN12_GLOBAL__N_15printEPKcP6Status+0x87a>
    157a: a2 58        	ldx	#$58
    157c: 86 b1        	stx	$b1                     ; 0xb1 <__zp_data_size+0x68>
    157e: 38           	sec
    157f: a2 01        	ldx	#$1
    1581: 86 d7        	stx	$d7                     ; 0xd7 <__zp_data_size+0x8e>
    1583: a2 30        	ldx	#$30
    1585: 86 b2        	stx	$b2                     ; 0xb2 <__zp_data_size+0x69>
    1587: a9 02        	lda	#$2
    1589: a2 00        	ldx	#$0
    158b: 86 b3        	stx	$b3                     ; 0xb3 <__zp_data_size+0x6a>
    158d: 4c c5 12     	jmp	$12c5 <_ZN12_GLOBAL__N_15printEPKcP6Status+0x8a4>
    1590: 64 ae        	stz	$ae                     ; 0xae <__zp_data_size+0x65>
    1592: 64 b0        	stz	$b0                     ; 0xb0 <__zp_data_size+0x67>
    1594: 4c c0 13     	jmp	$13c0 <_ZN12_GLOBAL__N_15printEPKcP6Status+0x99f>

00001597 <_ZN12_GLOBAL__N_13putEcP6Status>:
    1597: 85 18        	sta	$18                     ; 0x18 <__rc8>
    1599: a6 13        	ldx	$13                     ; 0x13 <__rc3>
    159b: 18           	clc
    159c: a5 12        	lda	$12                     ; 0x12 <__rc2>
    159e: 69 05        	adc	#$5
    15a0: a8           	tay
    15a1: a5 13        	lda	$13                     ; 0x13 <__rc3>
    15a3: 86 15        	stx	$15                     ; 0x15 <__rc5>
    15a5: 69 00        	adc	#$0
    15a7: 18           	clc
    15a8: 84 16        	sty	$16                     ; 0x16 <__rc6>
    15aa: a0 05        	ldy	#$5
    15ac: 85 17        	sta	$17                     ; 0x17 <__rc7>
    15ae: b1 12        	lda	($12),y                 ; 0x12 <__rc2>
    15b0: aa           	tax
    15b1: a5 12        	lda	$12                     ; 0x12 <__rc2>
    15b3: 69 03        	adc	#$3
    15b5: 85 14        	sta	$14                     ; 0x14 <__rc4>
    15b7: a5 15        	lda	$15                     ; 0x15 <__rc5>
    15b9: 69 00        	adc	#$0
    15bb: 85 15        	sta	$15                     ; 0x15 <__rc5>
    15bd: a0 01        	ldy	#$1
    15bf: b1 16        	lda	($16),y                 ; 0x16 <__rc6>
    15c1: d1 14        	cmp	($14),y                 ; 0x14 <__rc4>
    15c3: d0 11        	bne	$15d6 <_ZN12_GLOBAL__N_13putEcP6Status+0x3f>
    15c5: a0 03        	ldy	#$3
    15c7: 85 17        	sta	$17                     ; 0x17 <__rc7>
    15c9: b1 12        	lda	($12),y                 ; 0x12 <__rc2>
    15cb: 85 14        	sta	$14                     ; 0x14 <__rc4>
    15cd: 86 16        	stx	$16                     ; 0x16 <__rc6>
    15cf: e4 14        	cpx	$14                     ; 0x14 <__rc4>
    15d1: 90 0e        	bcc	$15e1 <_ZN12_GLOBAL__N_13putEcP6Status+0x4a>
    15d3: 4c 42 16     	jmp	$1642 <_ZN12_GLOBAL__N_13putEcP6Status+0xab>
    15d6: 86 16        	stx	$16                     ; 0x16 <__rc6>
    15d8: d1 14        	cmp	($14),y                 ; 0x14 <__rc4>
    15da: 85 17        	sta	$17                     ; 0x17 <__rc7>
    15dc: 90 03        	bcc	$15e1 <_ZN12_GLOBAL__N_13putEcP6Status+0x4a>
    15de: 4c 42 16     	jmp	$1642 <_ZN12_GLOBAL__N_13putEcP6Status+0xab>
    15e1: a5 12        	lda	$12                     ; 0x12 <__rc2>
    15e3: 18           	clc
    15e4: 69 0f        	adc	#$f
    15e6: 85 14        	sta	$14                     ; 0x14 <__rc4>
    15e8: a5 13        	lda	$13                     ; 0x13 <__rc3>
    15ea: 69 00        	adc	#$0
    15ec: 85 15        	sta	$15                     ; 0x15 <__rc5>
    15ee: a0 01        	ldy	#$1
    15f0: b1 14        	lda	($14),y                 ; 0x14 <__rc4>
    15f2: a2 00        	ldx	#$0
    15f4: 86 14        	stx	$14                     ; 0x14 <__rc4>
    15f6: a2 00        	ldx	#$0
    15f8: 86 15        	stx	$15                     ; 0x15 <__rc5>
    15fa: c5 15        	cmp	$15                     ; 0x15 <__rc5>
    15fc: d0 2d        	bne	$162b <_ZN12_GLOBAL__N_13putEcP6Status+0x94>
    15fe: a0 0f        	ldy	#$f
    1600: b1 12        	lda	($12),y                 ; 0x12 <__rc2>
    1602: c5 14        	cmp	$14                     ; 0x14 <__rc4>
    1604: d0 25        	bne	$162b <_ZN12_GLOBAL__N_13putEcP6Status+0x94>
    1606: a5 12        	lda	$12                     ; 0x12 <__rc2>
    1608: 18           	clc
    1609: 69 09        	adc	#$9
    160b: 85 14        	sta	$14                     ; 0x14 <__rc4>
    160d: a5 13        	lda	$13                     ; 0x13 <__rc3>
    160f: 69 00        	adc	#$0
    1611: a0 09        	ldy	#$9
    1613: 85 15        	sta	$15                     ; 0x15 <__rc5>
    1615: 18           	clc
    1616: a5 16        	lda	$16                     ; 0x16 <__rc6>
    1618: 71 12        	adc	($12),y                 ; 0x12 <__rc2>
    161a: aa           	tax
    161b: a0 01        	ldy	#$1
    161d: a5 17        	lda	$17                     ; 0x17 <__rc7>
    161f: 71 14        	adc	($14),y                 ; 0x14 <__rc4>
    1621: 86 14        	stx	$14                     ; 0x14 <__rc4>
    1623: 85 15        	sta	$15                     ; 0x15 <__rc5>
    1625: a5 18        	lda	$18                     ; 0x18 <__rc8>
    1627: 92 14        	sta	($14)                   ; 0x14 <__rc4>
    1629: 80 17        	bra	$1642 <_ZN12_GLOBAL__N_13putEcP6Status+0xab>
    162b: a6 12        	ldx	$12                     ; 0x12 <__rc2>
    162d: 86 e7        	stx	$e7                     ; 0xe7 <__zp_data_size+0x9e>
    162f: a6 13        	ldx	$13                     ; 0x13 <__rc3>
    1631: 86 e8        	stx	$e8                     ; 0xe8 <__zp_data_size+0x9f>
    1633: a2 00        	ldx	#$0
    1635: a5 18        	lda	$18                     ; 0x18 <__rc8>
    1637: 20 fd 18     	jsr	$18fd <putchar>
    163a: a6 e7        	ldx	$e7                     ; 0xe7 <__zp_data_size+0x9e>
    163c: 86 12        	stx	$12                     ; 0x12 <__rc2>
    163e: a6 e8        	ldx	$e8                     ; 0xe8 <__zp_data_size+0x9f>
    1640: 86 13        	stx	$13                     ; 0x13 <__rc3>
    1642: a0 05        	ldy	#$5
    1644: a5 12        	lda	$12                     ; 0x12 <__rc2>
    1646: 18           	clc
    1647: 69 05        	adc	#$5
    1649: 85 14        	sta	$14                     ; 0x14 <__rc4>
    164b: a5 13        	lda	$13                     ; 0x13 <__rc3>
    164d: 69 00        	adc	#$0
    164f: 85 15        	sta	$15                     ; 0x15 <__rc5>
    1651: b1 12        	lda	($12),y                 ; 0x12 <__rc2>
    1653: aa           	tax
    1654: 84 16        	sty	$16                     ; 0x16 <__rc6>
    1656: a0 01        	ldy	#$1
    1658: b1 14        	lda	($14),y                 ; 0x14 <__rc4>
    165a: 84 17        	sty	$17                     ; 0x17 <__rc7>
    165c: e8           	inx
    165d: d0 01        	bne	$1660 <_ZN12_GLOBAL__N_13putEcP6Status+0xc9>
    165f: 1a           	inc
    1660: 85 18        	sta	$18                     ; 0x18 <__rc8>
    1662: 8a           	txa
    1663: a4 16        	ldy	$16                     ; 0x16 <__rc6>
    1665: 91 12        	sta	($12),y                 ; 0x12 <__rc2>
    1667: a4 17        	ldy	$17                     ; 0x17 <__rc7>
    1669: a5 18        	lda	$18                     ; 0x18 <__rc8>
    166b: 91 14        	sta	($14),y                 ; 0x14 <__rc4>
    166d: 60           	rts

0000166e <_ZN12_GLOBAL__N_112print_stringEPKcP6Status>:
    166e: a6 12        	ldx	$12                     ; 0x12 <__rc2>
    1670: 86 de        	stx	$de                     ; 0xde <__zp_data_size+0x95>
    1672: a6 13        	ldx	$13                     ; 0x13 <__rc3>
    1674: 86 df        	stx	$df                     ; 0xdf <__zp_data_size+0x96>
    1676: a6 14        	ldx	$14                     ; 0x14 <__rc4>
    1678: 86 e0        	stx	$e0                     ; 0xe0 <__zp_data_size+0x97>
    167a: a6 15        	ldx	$15                     ; 0x15 <__rc5>
    167c: 86 e1        	stx	$e1                     ; 0xe1 <__zp_data_size+0x98>
    167e: a5 e0        	lda	$e0                     ; 0xe0 <__zp_data_size+0x97>
    1680: 18           	clc
    1681: 69 0d        	adc	#$d
    1683: 85 12        	sta	$12                     ; 0x12 <__rc2>
    1685: a5 e1        	lda	$e1                     ; 0xe1 <__zp_data_size+0x98>
    1687: 69 00        	adc	#$0
    1689: 85 13        	sta	$13                     ; 0x13 <__rc3>
    168b: a0 01        	ldy	#$1
    168d: b1 12        	lda	($12),y                 ; 0x12 <__rc2>
    168f: 30 14        	bmi	$16a5 <_ZN12_GLOBAL__N_112print_stringEPKcP6Status+0x37>
    1691: a0 0d        	ldy	#$d
    1693: aa           	tax
    1694: b1 e0        	lda	($e0),y                 ; 0xe0 <__zp_data_size+0x97>
    1696: 86 e3        	stx	$e3                     ; 0xe3 <__zp_data_size+0x9a>
    1698: e0 00        	cpx	#$0
    169a: d0 0e        	bne	$16aa <_ZN12_GLOBAL__N_112print_stringEPKcP6Status+0x3c>
    169c: aa           	tax
    169d: d0 0b        	bne	$16aa <_ZN12_GLOBAL__N_112print_stringEPKcP6Status+0x3c>
    169f: 64 e2        	stz	$e2                     ; 0xe2 <__zp_data_size+0x99>
    16a1: 64 e3        	stz	$e3                     ; 0xe3 <__zp_data_size+0x9a>
    16a3: 80 36        	bra	$16db <_ZN12_GLOBAL__N_112print_stringEPKcP6Status+0x6d>
    16a5: a9 ff        	lda	#$ff
    16a7: aa           	tax
    16a8: 86 e3        	stx	$e3                     ; 0xe3 <__zp_data_size+0x9a>
    16aa: 85 e2        	sta	$e2                     ; 0xe2 <__zp_data_size+0x99>
    16ac: 64 12        	stz	$12                     ; 0x12 <__rc2>
    16ae: a4 de        	ldy	$de                     ; 0xde <__zp_data_size+0x95>
    16b0: a6 df        	ldx	$df                     ; 0xdf <__zp_data_size+0x96>
    16b2: 86 16        	stx	$16                     ; 0x16 <__rc6>
    16b4: 64 13        	stz	$13                     ; 0x13 <__rc3>
    16b6: 98           	tya
    16b7: 18           	clc
    16b8: 65 12        	adc	$12                     ; 0x12 <__rc2>
    16ba: 85 14        	sta	$14                     ; 0x14 <__rc4>
    16bc: a5 df        	lda	$df                     ; 0xdf <__zp_data_size+0x96>
    16be: 65 13        	adc	$13                     ; 0x13 <__rc3>
    16c0: 85 15        	sta	$15                     ; 0x15 <__rc5>
    16c2: b2 14        	lda	($14)                   ; 0x14 <__rc4>
    16c4: d0 03        	bne	$16c9 <_ZN12_GLOBAL__N_112print_stringEPKcP6Status+0x5b>
    16c6: 4c 72 17     	jmp	$1772 <_ZN12_GLOBAL__N_112print_stringEPKcP6Status+0x104>
    16c9: e6 12        	inc	$12                     ; 0x12 <__rc2>
    16cb: d0 02        	bne	$16cf <_ZN12_GLOBAL__N_112print_stringEPKcP6Status+0x61>
    16cd: e6 13        	inc	$13                     ; 0x13 <__rc3>
    16cf: a6 e3        	ldx	$e3                     ; 0xe3 <__zp_data_size+0x9a>
    16d1: e4 13        	cpx	$13                     ; 0x13 <__rc3>
    16d3: d0 e1        	bne	$16b6 <_ZN12_GLOBAL__N_112print_stringEPKcP6Status+0x48>
    16d5: a6 e2        	ldx	$e2                     ; 0xe2 <__zp_data_size+0x99>
    16d7: e4 12        	cpx	$12                     ; 0x12 <__rc2>
    16d9: d0 db        	bne	$16b6 <_ZN12_GLOBAL__N_112print_stringEPKcP6Status+0x48>
    16db: a0 01        	ldy	#$1
    16dd: b1 e0        	lda	($e0),y                 ; 0xe0 <__zp_data_size+0x97>
    16df: 29 01        	and	#$1
    16e1: f0 03        	beq	$16e6 <_ZN12_GLOBAL__N_112print_stringEPKcP6Status+0x78>
    16e3: 4c 44 17     	jmp	$1744 <_ZN12_GLOBAL__N_112print_stringEPKcP6Status+0xd6>
    16e6: a5 e0        	lda	$e0                     ; 0xe0 <__zp_data_size+0x97>
    16e8: 18           	clc
    16e9: 69 0b        	adc	#$b
    16eb: 85 14        	sta	$14                     ; 0x14 <__rc4>
    16ed: a5 e1        	lda	$e1                     ; 0xe1 <__zp_data_size+0x98>
    16ef: 69 00        	adc	#$0
    16f1: 85 15        	sta	$15                     ; 0x15 <__rc5>
    16f3: 84 12        	sty	$12                     ; 0x12 <__rc2>
    16f5: a0 0b        	ldy	#$b
    16f7: b1 e0        	lda	($e0),y                 ; 0xe0 <__zp_data_size+0x97>
    16f9: 85 13        	sta	$13                     ; 0x13 <__rc3>
    16fb: a4 12        	ldy	$12                     ; 0x12 <__rc2>
    16fd: b1 14        	lda	($14),y                 ; 0x14 <__rc4>
    16ff: 85 12        	sta	$12                     ; 0x12 <__rc2>
    1701: a6 e3        	ldx	$e3                     ; 0xe3 <__zp_data_size+0x9a>
    1703: e4 12        	cpx	$12                     ; 0x12 <__rc2>
    1705: d0 08        	bne	$170f <_ZN12_GLOBAL__N_112print_stringEPKcP6Status+0xa1>
    1707: a6 e2        	ldx	$e2                     ; 0xe2 <__zp_data_size+0x99>
    1709: e4 13        	cpx	$13                     ; 0x13 <__rc3>
    170b: 90 06        	bcc	$1713 <_ZN12_GLOBAL__N_112print_stringEPKcP6Status+0xa5>
    170d: 80 35        	bra	$1744 <_ZN12_GLOBAL__N_112print_stringEPKcP6Status+0xd6>
    170f: e4 12        	cpx	$12                     ; 0x12 <__rc2>
    1711: b0 31        	bcs	$1744 <_ZN12_GLOBAL__N_112print_stringEPKcP6Status+0xd6>
    1713: 38           	sec
    1714: a5 e2        	lda	$e2                     ; 0xe2 <__zp_data_size+0x99>
    1716: e5 13        	sbc	$13                     ; 0x13 <__rc3>
    1718: a8           	tay
    1719: a5 e3        	lda	$e3                     ; 0xe3 <__zp_data_size+0x9a>
    171b: e5 12        	sbc	$12                     ; 0x12 <__rc2>
    171d: 85 e5        	sta	$e5                     ; 0xe5 <__zp_data_size+0x9c>
    171f: a2 20        	ldx	#$20
    1721: 86 e6        	stx	$e6                     ; 0xe6 <__zp_data_size+0x9d>
    1723: a6 e0        	ldx	$e0                     ; 0xe0 <__zp_data_size+0x97>
    1725: 86 12        	stx	$12                     ; 0x12 <__rc2>
    1727: a6 e1        	ldx	$e1                     ; 0xe1 <__zp_data_size+0x98>
    1729: 86 13        	stx	$13                     ; 0x13 <__rc3>
    172b: 84 e4        	sty	$e4                     ; 0xe4 <__zp_data_size+0x9b>
    172d: a5 e6        	lda	$e6                     ; 0xe6 <__zp_data_size+0x9d>
    172f: 20 97 15     	jsr	$1597 <_ZN12_GLOBAL__N_13putEcP6Status>
    1732: a6 e5        	ldx	$e5                     ; 0xe5 <__zp_data_size+0x9c>
    1734: e6 e4        	inc	$e4                     ; 0xe4 <__zp_data_size+0x9b>
    1736: d0 01        	bne	$1739 <_ZN12_GLOBAL__N_112print_stringEPKcP6Status+0xcb>
    1738: e8           	inx
    1739: 86 e5        	stx	$e5                     ; 0xe5 <__zp_data_size+0x9c>
    173b: a4 e4        	ldy	$e4                     ; 0xe4 <__zp_data_size+0x9b>
    173d: 8a           	txa
    173e: d0 e3        	bne	$1723 <_ZN12_GLOBAL__N_112print_stringEPKcP6Status+0xb5>
    1740: a5 e4        	lda	$e4                     ; 0xe4 <__zp_data_size+0x9b>
    1742: d0 df        	bne	$1723 <_ZN12_GLOBAL__N_112print_stringEPKcP6Status+0xb5>
    1744: a5 e3        	lda	$e3                     ; 0xe3 <__zp_data_size+0x9a>
    1746: d0 04        	bne	$174c <_ZN12_GLOBAL__N_112print_stringEPKcP6Status+0xde>
    1748: a5 e2        	lda	$e2                     ; 0xe2 <__zp_data_size+0x99>
    174a: f0 25        	beq	$1771 <_ZN12_GLOBAL__N_112print_stringEPKcP6Status+0x103>
    174c: a2 ff        	ldx	#$ff
    174e: c6 e2        	dec	$e2                     ; 0xe2 <__zp_data_size+0x99>
    1750: e4 e2        	cpx	$e2                     ; 0xe2 <__zp_data_size+0x99>
    1752: d0 02        	bne	$1756 <_ZN12_GLOBAL__N_112print_stringEPKcP6Status+0xe8>
    1754: c6 e3        	dec	$e3                     ; 0xe3 <__zp_data_size+0x9a>
    1756: b2 de        	lda	($de)                   ; 0xde <__zp_data_size+0x95>
    1758: e6 de        	inc	$de                     ; 0xde <__zp_data_size+0x95>
    175a: d0 02        	bne	$175e <_ZN12_GLOBAL__N_112print_stringEPKcP6Status+0xf0>
    175c: e6 df        	inc	$df                     ; 0xdf <__zp_data_size+0x96>
    175e: a6 e0        	ldx	$e0                     ; 0xe0 <__zp_data_size+0x97>
    1760: 86 12        	stx	$12                     ; 0x12 <__rc2>
    1762: a6 e1        	ldx	$e1                     ; 0xe1 <__zp_data_size+0x98>
    1764: 86 13        	stx	$13                     ; 0x13 <__rc3>
    1766: 20 97 15     	jsr	$1597 <_ZN12_GLOBAL__N_13putEcP6Status>
    1769: a5 e3        	lda	$e3                     ; 0xe3 <__zp_data_size+0x9a>
    176b: d0 df        	bne	$174c <_ZN12_GLOBAL__N_112print_stringEPKcP6Status+0xde>
    176d: a5 e2        	lda	$e2                     ; 0xe2 <__zp_data_size+0x99>
    176f: d0 db        	bne	$174c <_ZN12_GLOBAL__N_112print_stringEPKcP6Status+0xde>
    1771: 60           	rts
    1772: a6 12        	ldx	$12                     ; 0x12 <__rc2>
    1774: 86 e2        	stx	$e2                     ; 0xe2 <__zp_data_size+0x99>
    1776: a6 13        	ldx	$13                     ; 0x13 <__rc3>
    1778: 86 e3        	stx	$e3                     ; 0xe3 <__zp_data_size+0x9a>
    177a: 4c db 16     	jmp	$16db <_ZN12_GLOBAL__N_112print_stringEPKcP6Status+0x6d>

0000177d <printf>:
    177d: 18           	clc
    177e: a6 10        	ldx	$10                     ; 0x10 <__rc0>
    1780: a4 11        	ldy	$11                     ; 0x11 <__rc1>
    1782: 86 93        	stx	$93                     ; 0x93 <__zp_data_size+0x4a>
    1784: 84 94        	sty	$94                     ; 0x94 <__zp_data_size+0x4b>
    1786: a6 93        	ldx	$93                     ; 0x93 <__zp_data_size+0x4a>
    1788: a4 94        	ldy	$94                     ; 0x94 <__zp_data_size+0x4b>
    178a: 86 91        	stx	$91                     ; 0x91 <__zp_data_size+0x48>
    178c: 84 92        	sty	$92                     ; 0x92 <__zp_data_size+0x49>
    178e: a2 ff        	ldx	#$ff
    1790: 8e 58 1c     	stx	$1c58                   ; 0x1c58 <__bss_start+0x3>
    1793: 8e 59 1c     	stx	$1c59                   ; 0x1c59 <__bss_start+0x4>
    1796: 9c 5a 1c     	stz	$1c5a                   ; 0x1c5a <__bss_start+0x5>
    1799: 9c 5b 1c     	stz	$1c5b                   ; 0x1c5b <__bss_start+0x6>
    179c: e8           	inx
    179d: 86 12        	stx	$12                     ; 0x12 <__rc2>
    179f: a2 00        	ldx	#$0
    17a1: 86 13        	stx	$13                     ; 0x13 <__rc3>
    17a3: a6 12        	ldx	$12                     ; 0x12 <__rc2>
    17a5: a4 13        	ldy	$13                     ; 0x13 <__rc3>
    17a7: 8e 5e 1c     	stx	$1c5e                   ; 0x1c5e <__bss_start+0x9>
    17aa: 8c 5f 1c     	sty	$1c5f                   ; 0x1c5f <__bss_start+0xa>
    17ad: a2 02        	ldx	#$2
    17af: 8e 64 1c     	stx	$1c64                   ; 0x1c64 <__bss_start+0xf>
    17b2: 9c 65 1c     	stz	$1c65                   ; 0x1c65 <__bss_start+0x10>
    17b5: a6 91        	ldx	$91                     ; 0x91 <__zp_data_size+0x48>
    17b7: a4 92        	ldy	$92                     ; 0x92 <__zp_data_size+0x49>
    17b9: 8e 66 1c     	stx	$1c66                   ; 0x1c66 <__bss_start+0x11>
    17bc: 8c 67 1c     	sty	$1c67                   ; 0x1c67 <__bss_start+0x12>
    17bf: a2 e6        	ldx	#$e6
    17c1: 86 12        	stx	$12                     ; 0x12 <__rc2>
    17c3: a2 1b        	ldx	#$1b
    17c5: 86 13        	stx	$13                     ; 0x13 <__rc3>
    17c7: a2 55        	ldx	#$55
    17c9: 86 8f        	stx	$8f                     ; 0x8f <__zp_data_size+0x46>
    17cb: a2 1c        	ldx	#$1c
    17cd: 86 90        	stx	$90                     ; 0x90 <__zp_data_size+0x47>
    17cf: a6 12        	ldx	$12                     ; 0x12 <__rc2>
    17d1: 86 8d        	stx	$8d                     ; 0x8d <__zp_data_size+0x44>
    17d3: a6 13        	ldx	$13                     ; 0x13 <__rc3>
    17d5: 86 8e        	stx	$8e                     ; 0x8e <__zp_data_size+0x45>
    17d7: b2 12        	lda	($12)                   ; 0x12 <__rc2>
    17d9: a2 00        	ldx	#$0
    17db: c9 25        	cmp	#$25
    17dd: f0 1e        	beq	$17fd <printf+0x80>
    17df: a8           	tay
    17e0: f0 38        	beq	$181a <printf+0x9d>
    17e2: 20 fd 18     	jsr	$18fd <putchar>
    17e5: e6 8d        	inc	$8d                     ; 0x8d <__zp_data_size+0x44>
    17e7: d0 02        	bne	$17eb <printf+0x6e>
    17e9: e6 8e        	inc	$8e                     ; 0x8e <__zp_data_size+0x45>
    17eb: ee 5a 1c     	inc	$1c5a                   ; 0x1c5a <__bss_start+0x5>
    17ee: d0 03        	bne	$17f3 <printf+0x76>
    17f0: ee 5b 1c     	inc	$1c5b                   ; 0x1c5b <__bss_start+0x6>
    17f3: a6 8d        	ldx	$8d                     ; 0x8d <__zp_data_size+0x44>
    17f5: 86 12        	stx	$12                     ; 0x12 <__rc2>
    17f7: a6 8e        	ldx	$8e                     ; 0x8e <__zp_data_size+0x45>
    17f9: 86 13        	stx	$13                     ; 0x13 <__rc3>
    17fb: 80 d2        	bra	$17cf <printf+0x52>
    17fd: a6 8f        	ldx	$8f                     ; 0x8f <__zp_data_size+0x46>
    17ff: 86 14        	stx	$14                     ; 0x14 <__rc4>
    1801: a6 90        	ldx	$90                     ; 0x90 <__zp_data_size+0x47>
    1803: 86 15        	stx	$15                     ; 0x15 <__rc5>
    1805: 20 21 0a     	jsr	$a21 <_ZN12_GLOBAL__N_15printEPKcP6Status>
    1808: a6 13        	ldx	$13                     ; 0x13 <__rc3>
    180a: e4 8e        	cpx	$8e                     ; 0x8e <__zp_data_size+0x45>
    180c: d0 c1        	bne	$17cf <printf+0x52>
    180e: a6 12        	ldx	$12                     ; 0x12 <__rc2>
    1810: e4 8d        	cpx	$8d                     ; 0x8d <__zp_data_size+0x44>
    1812: d0 bb        	bne	$17cf <printf+0x52>
    1814: b2 8d        	lda	($8d)                   ; 0x8d <__zp_data_size+0x44>
    1816: a2 00        	ldx	#$0
    1818: 80 c8        	bra	$17e2 <printf+0x65>
    181a: 60           	rts

0000181b <sprintf>:
    181b: a6 12        	ldx	$12                     ; 0x12 <__rc2>
    181d: 86 8d        	stx	$8d                     ; 0x8d <__zp_data_size+0x44>
    181f: a6 13        	ldx	$13                     ; 0x13 <__rc3>
    1821: 86 8e        	stx	$8e                     ; 0x8e <__zp_data_size+0x45>
    1823: 18           	clc
    1824: a6 10        	ldx	$10                     ; 0x10 <__rc0>
    1826: a4 11        	ldy	$11                     ; 0x11 <__rc1>
    1828: 86 a8        	stx	$a8                     ; 0xa8 <__zp_data_size+0x5f>
    182a: 84 a9        	sty	$a9                     ; 0xa9 <__zp_data_size+0x60>
    182c: a6 a8        	ldx	$a8                     ; 0xa8 <__zp_data_size+0x5f>
    182e: a4 a9        	ldy	$a9                     ; 0xa9 <__zp_data_size+0x60>
    1830: 86 93        	stx	$93                     ; 0x93 <__zp_data_size+0x4a>
    1832: 84 94        	sty	$94                     ; 0x94 <__zp_data_size+0x4b>
    1834: a2 ff        	ldx	#$ff
    1836: 86 98        	stx	$98                     ; 0x98 <__zp_data_size+0x4f>
    1838: 86 99        	stx	$99                     ; 0x99 <__zp_data_size+0x50>
    183a: 64 9a        	stz	$9a                     ; 0x9a <__zp_data_size+0x51>
    183c: 64 9b        	stz	$9b                     ; 0x9b <__zp_data_size+0x52>
    183e: a6 8d        	ldx	$8d                     ; 0x8d <__zp_data_size+0x44>
    1840: a4 8e        	ldy	$8e                     ; 0x8e <__zp_data_size+0x45>
    1842: 86 9e        	stx	$9e                     ; 0x9e <__zp_data_size+0x55>
    1844: 84 9f        	sty	$9f                     ; 0x9f <__zp_data_size+0x56>
    1846: a2 00        	ldx	#$0
    1848: 86 12        	stx	$12                     ; 0x12 <__rc2>
    184a: a2 00        	ldx	#$0
    184c: 86 13        	stx	$13                     ; 0x13 <__rc3>
    184e: a6 12        	ldx	$12                     ; 0x12 <__rc2>
    1850: a4 13        	ldy	$13                     ; 0x13 <__rc3>
    1852: 86 a4        	stx	$a4                     ; 0xa4 <__zp_data_size+0x5b>
    1854: 84 a5        	sty	$a5                     ; 0xa5 <__zp_data_size+0x5c>
    1856: a6 93        	ldx	$93                     ; 0x93 <__zp_data_size+0x4a>
    1858: a4 94        	ldy	$94                     ; 0x94 <__zp_data_size+0x4b>
    185a: 86 a6        	stx	$a6                     ; 0xa6 <__zp_data_size+0x5d>
    185c: 84 a7        	sty	$a7                     ; 0xa7 <__zp_data_size+0x5e>
    185e: a2 01        	ldx	#$1
    1860: 86 12        	stx	$12                     ; 0x12 <__rc2>
    1862: a2 1c        	ldx	#$1c
    1864: 86 13        	stx	$13                     ; 0x13 <__rc3>
    1866: a2 95        	ldx	#$95
    1868: 86 91        	stx	$91                     ; 0x91 <__zp_data_size+0x48>
    186a: a2 00        	ldx	#$0
    186c: 86 92        	stx	$92                     ; 0x92 <__zp_data_size+0x49>
    186e: 80 17        	bra	$1887 <sprintf+0x6c>
    1870: a6 91        	ldx	$91                     ; 0x91 <__zp_data_size+0x48>
    1872: 86 14        	stx	$14                     ; 0x14 <__rc4>
    1874: a6 92        	ldx	$92                     ; 0x92 <__zp_data_size+0x49>
    1876: 86 15        	stx	$15                     ; 0x15 <__rc5>
    1878: 20 21 0a     	jsr	$a21 <_ZN12_GLOBAL__N_15printEPKcP6Status>
    187b: a6 13        	ldx	$13                     ; 0x13 <__rc3>
    187d: e4 90        	cpx	$90                     ; 0x90 <__zp_data_size+0x47>
    187f: d0 06        	bne	$1887 <sprintf+0x6c>
    1881: a6 12        	ldx	$12                     ; 0x12 <__rc2>
    1883: e4 8f        	cpx	$8f                     ; 0x8f <__zp_data_size+0x46>
    1885: f0 11        	beq	$1898 <sprintf+0x7d>
    1887: a6 12        	ldx	$12                     ; 0x12 <__rc2>
    1889: 86 8f        	stx	$8f                     ; 0x8f <__zp_data_size+0x46>
    188b: a6 13        	ldx	$13                     ; 0x13 <__rc3>
    188d: 86 90        	stx	$90                     ; 0x90 <__zp_data_size+0x47>
    188f: b2 12        	lda	($12)                   ; 0x12 <__rc2>
    1891: c9 25        	cmp	#$25
    1893: f0 db        	beq	$1870 <sprintf+0x55>
    1895: aa           	tax
    1896: f0 43        	beq	$18db <sprintf+0xc0>
    1898: a6 9a        	ldx	$9a                     ; 0x9a <__zp_data_size+0x51>
    189a: 86 12        	stx	$12                     ; 0x12 <__rc2>
    189c: a4 9b        	ldy	$9b                     ; 0x9b <__zp_data_size+0x52>
    189e: 84 13        	sty	$13                     ; 0x13 <__rc3>
    18a0: c0 ff        	cpy	#$ff
    18a2: d0 04        	bne	$18a8 <sprintf+0x8d>
    18a4: e0 ff        	cpx	#$ff
    18a6: f0 15        	beq	$18bd <sprintf+0xa2>
    18a8: b2 8f        	lda	($8f)                   ; 0x8f <__zp_data_size+0x46>
    18aa: 85 16        	sta	$16                     ; 0x16 <__rc6>
    18ac: a5 8d        	lda	$8d                     ; 0x8d <__zp_data_size+0x44>
    18ae: 18           	clc
    18af: 65 12        	adc	$12                     ; 0x12 <__rc2>
    18b1: 85 14        	sta	$14                     ; 0x14 <__rc4>
    18b3: a5 8e        	lda	$8e                     ; 0x8e <__zp_data_size+0x45>
    18b5: 65 13        	adc	$13                     ; 0x13 <__rc3>
    18b7: 85 15        	sta	$15                     ; 0x15 <__rc5>
    18b9: a5 16        	lda	$16                     ; 0x16 <__rc6>
    18bb: 92 14        	sta	($14)                   ; 0x14 <__rc4>
    18bd: e6 12        	inc	$12                     ; 0x12 <__rc2>
    18bf: d0 02        	bne	$18c3 <sprintf+0xa8>
    18c1: e6 13        	inc	$13                     ; 0x13 <__rc3>
    18c3: a6 12        	ldx	$12                     ; 0x12 <__rc2>
    18c5: a4 13        	ldy	$13                     ; 0x13 <__rc3>
    18c7: 86 9a        	stx	$9a                     ; 0x9a <__zp_data_size+0x51>
    18c9: 84 9b        	sty	$9b                     ; 0x9b <__zp_data_size+0x52>
    18cb: e6 8f        	inc	$8f                     ; 0x8f <__zp_data_size+0x46>
    18cd: d0 02        	bne	$18d1 <sprintf+0xb6>
    18cf: e6 90        	inc	$90                     ; 0x90 <__zp_data_size+0x47>
    18d1: a6 8f        	ldx	$8f                     ; 0x8f <__zp_data_size+0x46>
    18d3: 86 12        	stx	$12                     ; 0x12 <__rc2>
    18d5: a6 90        	ldx	$90                     ; 0x90 <__zp_data_size+0x47>
    18d7: 86 13        	stx	$13                     ; 0x13 <__rc3>
    18d9: 80 ac        	bra	$1887 <sprintf+0x6c>
    18db: a6 9a        	ldx	$9a                     ; 0x9a <__zp_data_size+0x51>
    18dd: 86 12        	stx	$12                     ; 0x12 <__rc2>
    18df: a4 9b        	ldy	$9b                     ; 0x9b <__zp_data_size+0x52>
    18e1: 84 13        	sty	$13                     ; 0x13 <__rc3>
    18e3: c0 ff        	cpy	#$ff
    18e5: d0 04        	bne	$18eb <sprintf+0xd0>
    18e7: e0 ff        	cpx	#$ff
    18e9: f0 11        	beq	$18fc <sprintf+0xe1>
    18eb: a5 8d        	lda	$8d                     ; 0x8d <__zp_data_size+0x44>
    18ed: 18           	clc
    18ee: 65 12        	adc	$12                     ; 0x12 <__rc2>
    18f0: 85 12        	sta	$12                     ; 0x12 <__rc2>
    18f2: a5 8e        	lda	$8e                     ; 0x8e <__zp_data_size+0x45>
    18f4: 65 13        	adc	$13                     ; 0x13 <__rc3>
    18f6: 85 13        	sta	$13                     ; 0x13 <__rc3>
    18f8: a9 00        	lda	#$0
    18fa: 92 12        	sta	($12)                   ; 0x12 <__rc2>
    18fc: 60           	rts

000018fd <putchar>:
    18fd: 86 12        	stx	$12                     ; 0x12 <__rc2>
    18ff: 85 ea        	sta	$ea                     ; 0xea <__zp_data_size+0xa1>
    1901: 85 7b        	sta	$7b                     ; 0x7b <__putchar.s>
    1903: a6 01        	ldx	$1                      ; 0x1 <__data_size+0x1>
    1905: 86 e9        	stx	$e9                     ; 0xe9 <__zp_data_size+0xa0>
    1907: a6 7a        	ldx	$7a                     ; 0x7a <_row>
    1909: a0 50        	ldy	#$50
    190b: 98           	tya
    190c: 85 ec        	sta	$ec                     ; 0xec <__zp_data_size+0xa3>
    190e: 8c 00 de     	sty	$de00                   ; 0xde00 <end_block9+0xc198>
    1911: 9c 01 de     	stz	$de01                   ; 0xde01 <end_block9+0xc199>
    1914: 8e 02 de     	stx	$de02                   ; 0xde02 <end_block9+0xc19a>
    1917: 9c 03 de     	stz	$de03                   ; 0xde03 <end_block9+0xc19b>
    191a: ae 10 de     	ldx	$de10                   ; 0xde10 <end_block9+0xc1a8>
    191d: 86 13        	stx	$13                     ; 0x13 <__rc3>
    191f: ac 11 de     	ldy	$de11                   ; 0xde11 <end_block9+0xc1a9>
    1922: ad 12 de     	lda	$de12                   ; 0xde12 <end_block9+0xc1aa>
    1925: ae 13 de     	ldx	$de13                   ; 0xde13 <end_block9+0xc1ab>
    1928: 86 1a        	stx	$1a                     ; 0x1a <__rc10>
    192a: 9c 08 de     	stz	$de08                   ; 0xde08 <end_block9+0xc1a0>
    192d: a2 c0        	ldx	#$c0
    192f: 8e 09 de     	stx	$de09                   ; 0xde09 <end_block9+0xc1a1>
    1932: 9c 0a de     	stz	$de0a                   ; 0xde0a <end_block9+0xc1a2>
    1935: 9c 0b de     	stz	$de0b                   ; 0xde0b <end_block9+0xc1a3>
    1938: a6 13        	ldx	$13                     ; 0x13 <__rc3>
    193a: 8e 0c de     	stx	$de0c                   ; 0xde0c <end_block9+0xc1a4>
    193d: 8c 0d de     	sty	$de0d                   ; 0xde0d <end_block9+0xc1a5>
    1940: 64 13        	stz	$13                     ; 0x13 <__rc3>
    1942: a2 00        	ldx	#$0
    1944: 86 14        	stx	$14                     ; 0x14 <__rc4>
    1946: a2 c0        	ldx	#$c0
    1948: 86 15        	stx	$15                     ; 0x15 <__rc5>
    194a: a2 11        	ldx	#$11
    194c: 86 16        	stx	$16                     ; 0x16 <__rc6>
    194e: a2 c9        	ldx	#$c9
    1950: 86 17        	stx	$17                     ; 0x17 <__rc7>
    1952: a2 10        	ldx	#$10
    1954: 86 18        	stx	$18                     ; 0x18 <__rc8>
    1956: a2 c9        	ldx	#$c9
    1958: 86 19        	stx	$19                     ; 0x19 <__rc9>
    195a: 8d 0e de     	sta	$de0e                   ; 0xde0e <end_block9+0xc1a6>
    195d: a6 1a        	ldx	$1a                     ; 0x1a <__rc10>
    195f: 8e 0f de     	stx	$de0f                   ; 0xde0f <end_block9+0xc1a7>
    1962: ad 18 de     	lda	$de18                   ; 0xde18 <end_block9+0xc1b0>
    1965: ac 19 de     	ldy	$de19                   ; 0xde19 <end_block9+0xc1b1>
    1968: ae 1a de     	ldx	$de1a                   ; 0xde1a <end_block9+0xc1b2>
    196b: ae 1b de     	ldx	$de1b                   ; 0xde1b <end_block9+0xc1b3>
    196e: 85 1c        	sta	$1c                     ; 0x1c <__rc12>
    1970: 84 1d        	sty	$1d                     ; 0x1d <__rc13>
    1972: 64 1a        	stz	$1a                     ; 0x1a <__rc10>
    1974: a2 f0        	ldx	#$f0
    1976: 86 eb        	stx	$eb                     ; 0xeb <__zp_data_size+0xa2>
    1978: a2 20        	ldx	#$20
    197a: 86 1b        	stx	$1b                     ; 0x1b <__rc11>
    197c: 80 13        	bra	$1991 <putchar+0x94>
    197e: a5 1c        	lda	$1c                     ; 0x1c <__rc12>
    1980: 18           	clc
    1981: 69 50        	adc	#$50
    1983: 85 1c        	sta	$1c                     ; 0x1c <__rc12>
    1985: a5 1d        	lda	$1d                     ; 0x1d <__rc13>
    1987: 69 00        	adc	#$0
    1989: 85 1d        	sta	$1d                     ; 0x1d <__rc13>
    198b: e6 13        	inc	$13                     ; 0x13 <__rc3>
    198d: d0 02        	bne	$1991 <putchar+0x94>
    198f: e6 1a        	inc	$1a                     ; 0x1a <__rc10>
    1991: a9 7b        	lda	#$7b
    1993: 18           	clc
    1994: 65 13        	adc	$13                     ; 0x13 <__rc3>
    1996: 85 1e        	sta	$1e                     ; 0x1e <__rc14>
    1998: a9 00        	lda	#$0
    199a: 65 1a        	adc	$1a                     ; 0x1a <__rc10>
    199c: 85 1f        	sta	$1f                     ; 0x1f <__rc15>
    199e: b2 1e        	lda	($1e)                   ; 0x1e <__rc14>
    19a0: c9 0a        	cmp	#$a
    19a2: f0 2a        	beq	$19ce <putchar+0xd1>
    19a4: c9 0d        	cmp	#$d
    19a6: f0 26        	beq	$19ce <putchar+0xd1>
    19a8: aa           	tax
    19a9: d0 03        	bne	$19ae <putchar+0xb1>
    19ab: 4c ba 1a     	jmp	$1aba <putchar+0x1bd>
    19ae: a2 03        	ldx	#$3
    19b0: 86 01        	stx	$1                      ; 0x1 <__data_size+0x1>
    19b2: a4 79        	ldy	$79                     ; 0x79 <_col>
    19b4: a9 f0        	lda	#$f0
    19b6: aa           	tax
    19b7: 86 eb        	stx	$eb                     ; 0xeb <__zp_data_size+0xa2>
    19b9: 91 1c        	sta	($1c),y                 ; 0x1c <__rc12>
    19bb: a2 02        	ldx	#$2
    19bd: 86 01        	stx	$1                      ; 0x1 <__data_size+0x1>
    19bf: b2 1e        	lda	($1e)                   ; 0x1e <__rc14>
    19c1: a4 79        	ldy	$79                     ; 0x79 <_col>
    19c3: 91 1c        	sta	($1c),y                 ; 0x1c <__rc12>
    19c5: a6 79        	ldx	$79                     ; 0x79 <_col>
    19c7: e8           	inx
    19c8: e6 79        	inc	$79                     ; 0x79 <_col>
    19ca: e0 50        	cpx	#$50
    19cc: d0 bd        	bne	$198b <putchar+0x8e>
    19ce: 64 79        	stz	$79                     ; 0x79 <_col>
    19d0: a6 7a        	ldx	$7a                     ; 0x7a <_row>
    19d2: e8           	inx
    19d3: e6 7a        	inc	$7a                     ; 0x7a <_row>
    19d5: e0 1e        	cpx	#$1e
    19d7: f0 03        	beq	$19dc <putchar+0xdf>
    19d9: 4c 7e 19     	jmp	$197e <putchar+0x81>
    19dc: a2 03        	ldx	#$3
    19de: 86 01        	stx	$1                      ; 0x1 <__data_size+0x1>
    19e0: a2 01        	ldx	#$1
    19e2: 86 1b        	stx	$1b                     ; 0x1b <__rc11>
    19e4: a2 09        	ldx	#$9
    19e6: a0 10        	ldy	#$10
    19e8: a9 00        	lda	#$0
    19ea: 85 1c        	sta	$1c                     ; 0x1c <__rc12>
    19ec: a9 c0        	lda	#$c0
    19ee: 85 1d        	sta	$1d                     ; 0x1d <__rc13>
    19f0: 84 1e        	sty	$1e                     ; 0x1e <__rc14>
    19f2: a4 ec        	ldy	$ec                     ; 0xec <__zp_data_size+0xa3>
    19f4: b1 1c        	lda	($1c),y                 ; 0x1c <__rc12>
    19f6: 92 1c        	sta	($1c)                   ; 0x1c <__rc12>
    19f8: a9 ff        	lda	#$ff
    19fa: c6 1e        	dec	$1e                     ; 0x1e <__rc14>
    19fc: c5 1e        	cmp	$1e                     ; 0x1e <__rc14>
    19fe: d0 01        	bne	$1a01 <putchar+0x104>
    1a00: ca           	dex
    1a01: e6 1c        	inc	$1c                     ; 0x1c <__rc12>
    1a03: d0 02        	bne	$1a07 <putchar+0x10a>
    1a05: e6 1d        	inc	$1d                     ; 0x1d <__rc13>
    1a07: 8a           	txa
    1a08: d0 ea        	bne	$19f4 <putchar+0xf7>
    1a0a: a5 1e        	lda	$1e                     ; 0x1e <__rc14>
    1a0c: d0 e6        	bne	$19f4 <putchar+0xf7>
    1a0e: a2 50        	ldx	#$50
    1a10: 86 ec        	stx	$ec                     ; 0xec <__zp_data_size+0xa3>
    1a12: a2 02        	ldx	#$2
    1a14: 86 01        	stx	$1                      ; 0x1 <__data_size+0x1>
    1a16: a2 00        	ldx	#$0
    1a18: a5 1b        	lda	$1b                     ; 0x1b <__rc11>
    1a1a: d0 c6        	bne	$19e2 <putchar+0xe5>
    1a1c: a2 03        	ldx	#$3
    1a1e: 86 01        	stx	$1                      ; 0x1 <__data_size+0x1>
    1a20: a2 50        	ldx	#$50
    1a22: a0 11        	ldy	#$11
    1a24: 84 1c        	sty	$1c                     ; 0x1c <__rc12>
    1a26: a0 c9        	ldy	#$c9
    1a28: 84 1d        	sty	$1d                     ; 0x1d <__rc13>
    1a2a: a0 10        	ldy	#$10
    1a2c: 84 1e        	sty	$1e                     ; 0x1e <__rc14>
    1a2e: a0 c9        	ldy	#$c9
    1a30: 84 1f        	sty	$1f                     ; 0x1f <__rc15>
    1a32: a5 eb        	lda	$eb                     ; 0xeb <__zp_data_size+0xa2>
    1a34: a4 1e        	ldy	$1e                     ; 0x1e <__rc14>
    1a36: 84 22        	sty	$22                     ; 0x22 <__rc18>
    1a38: a4 1f        	ldy	$1f                     ; 0x1f <__rc15>
    1a3a: 84 23        	sty	$23                     ; 0x23 <__rc19>
    1a3c: a4 1c        	ldy	$1c                     ; 0x1c <__rc12>
    1a3e: 84 1e        	sty	$1e                     ; 0x1e <__rc14>
    1a40: a4 1d        	ldy	$1d                     ; 0x1d <__rc13>
    1a42: 84 1f        	sty	$1f                     ; 0x1f <__rc15>
    1a44: 92 22        	sta	($22)                   ; 0x22 <__rc18>
    1a46: e6 1c        	inc	$1c                     ; 0x1c <__rc12>
    1a48: d0 02        	bne	$1a4c <putchar+0x14f>
    1a4a: e6 1d        	inc	$1d                     ; 0x1d <__rc13>
    1a4c: ca           	dex
    1a4d: d0 e5        	bne	$1a34 <putchar+0x137>
    1a4f: a2 f0        	ldx	#$f0
    1a51: 86 eb        	stx	$eb                     ; 0xeb <__zp_data_size+0xa2>
    1a53: a2 02        	ldx	#$2
    1a55: 86 01        	stx	$1                      ; 0x1 <__data_size+0x1>
    1a57: a2 50        	ldx	#$50
    1a59: a0 11        	ldy	#$11
    1a5b: 84 1c        	sty	$1c                     ; 0x1c <__rc12>
    1a5d: a0 c9        	ldy	#$c9
    1a5f: 84 1d        	sty	$1d                     ; 0x1d <__rc13>
    1a61: a0 10        	ldy	#$10
    1a63: 84 1e        	sty	$1e                     ; 0x1e <__rc14>
    1a65: a0 c9        	ldy	#$c9
    1a67: 84 1f        	sty	$1f                     ; 0x1f <__rc15>
    1a69: a4 1e        	ldy	$1e                     ; 0x1e <__rc14>
    1a6b: 84 22        	sty	$22                     ; 0x22 <__rc18>
    1a6d: a4 1f        	ldy	$1f                     ; 0x1f <__rc15>
    1a6f: 84 23        	sty	$23                     ; 0x23 <__rc19>
    1a71: a4 1c        	ldy	$1c                     ; 0x1c <__rc12>
    1a73: 84 1e        	sty	$1e                     ; 0x1e <__rc14>
    1a75: a4 1d        	ldy	$1d                     ; 0x1d <__rc13>
    1a77: 84 1f        	sty	$1f                     ; 0x1f <__rc15>
    1a79: a9 20        	lda	#$20
    1a7b: a8           	tay
    1a7c: 92 22        	sta	($22)                   ; 0x22 <__rc18>
    1a7e: e6 1c        	inc	$1c                     ; 0x1c <__rc12>
    1a80: d0 02        	bne	$1a84 <putchar+0x187>
    1a82: e6 1d        	inc	$1d                     ; 0x1d <__rc13>
    1a84: ca           	dex
    1a85: d0 e2        	bne	$1a69 <putchar+0x16c>
    1a87: 84 1b        	sty	$1b                     ; 0x1b <__rc11>
    1a89: c6 7a        	dec	$7a                     ; 0x7a <_row>
    1a8b: 9c 08 de     	stz	$de08                   ; 0xde08 <end_block9+0xc1a0>
    1a8e: a2 c0        	ldx	#$c0
    1a90: 8e 09 de     	stx	$de09                   ; 0xde09 <end_block9+0xc1a1>
    1a93: 9c 0a de     	stz	$de0a                   ; 0xde0a <end_block9+0xc1a2>
    1a96: 9c 0b de     	stz	$de0b                   ; 0xde0b <end_block9+0xc1a3>
    1a99: a2 1d        	ldx	#$1d
    1a9b: 8e 0c de     	stx	$de0c                   ; 0xde0c <end_block9+0xc1a4>
    1a9e: 9c 0d de     	stz	$de0d                   ; 0xde0d <end_block9+0xc1a5>
    1aa1: 9c 0e de     	stz	$de0e                   ; 0xde0e <end_block9+0xc1a6>
    1aa4: 9c 0f de     	stz	$de0f                   ; 0xde0f <end_block9+0xc1a7>
    1aa7: ad 18 de     	lda	$de18                   ; 0xde18 <end_block9+0xc1b0>
    1aaa: ac 19 de     	ldy	$de19                   ; 0xde19 <end_block9+0xc1b1>
    1aad: ae 1a de     	ldx	$de1a                   ; 0xde1a <end_block9+0xc1b2>
    1ab0: ae 1b de     	ldx	$de1b                   ; 0xde1b <end_block9+0xc1b3>
    1ab3: 85 1c        	sta	$1c                     ; 0x1c <__rc12>
    1ab5: 84 1d        	sty	$1d                     ; 0x1d <__rc13>
    1ab7: 4c 8b 19     	jmp	$198b <putchar+0x8e>
    1aba: a6 e9        	ldx	$e9                     ; 0xe9 <__zp_data_size+0xa0>
    1abc: 86 01        	stx	$1                      ; 0x1 <__data_size+0x1>
    1abe: a6 79        	ldx	$79                     ; 0x79 <_col>
    1ac0: a4 7a        	ldy	$7a                     ; 0x7a <_row>
    1ac2: 8e 14 d0     	stx	$d014                   ; 0xd014 <end_block9+0xb3ac>
    1ac5: 9c 15 d0     	stz	$d015                   ; 0xd015 <end_block9+0xb3ad>
    1ac8: 84 7a        	sty	$7a                     ; 0x7a <_row>
    1aca: 8c 16 d0     	sty	$d016                   ; 0xd016 <end_block9+0xb3ae>
    1acd: 9c 17 d0     	stz	$d017                   ; 0xd017 <end_block9+0xb3af>
    1ad0: a6 12        	ldx	$12                     ; 0x12 <__rc2>
    1ad2: a5 ea        	lda	$ea                     ; 0xea <__zp_data_size+0xa1>
    1ad4: 60           	rts

00001ad5 <puts>:
    1ad5: b2 12        	lda	($12)                   ; 0x12 <__rc2>
    1ad7: f0 2e        	beq	$1b07 <puts+0x32>
    1ad9: a6 12        	ldx	$12                     ; 0x12 <__rc2>
    1adb: 86 8d        	stx	$8d                     ; 0x8d <__zp_data_size+0x44>
    1add: a6 13        	ldx	$13                     ; 0x13 <__rc3>
    1adf: 86 8e        	stx	$8e                     ; 0x8e <__zp_data_size+0x45>
    1ae1: a2 00        	ldx	#$0
    1ae3: 86 91        	stx	$91                     ; 0x91 <__zp_data_size+0x48>
    1ae5: a6 12        	ldx	$12                     ; 0x12 <__rc2>
    1ae7: 86 8f        	stx	$8f                     ; 0x8f <__zp_data_size+0x46>
    1ae9: a6 13        	ldx	$13                     ; 0x13 <__rc3>
    1aeb: 86 90        	stx	$90                     ; 0x90 <__zp_data_size+0x47>
    1aed: e6 8f        	inc	$8f                     ; 0x8f <__zp_data_size+0x46>
    1aef: d0 02        	bne	$1af3 <puts+0x1e>
    1af1: e6 90        	inc	$90                     ; 0x90 <__zp_data_size+0x47>
    1af3: a6 91        	ldx	$91                     ; 0x91 <__zp_data_size+0x48>
    1af5: 20 fd 18     	jsr	$18fd <putchar>
    1af8: a0 01        	ldy	#$1
    1afa: b1 8d        	lda	($8d),y                 ; 0x8d <__zp_data_size+0x44>
    1afc: a6 8f        	ldx	$8f                     ; 0x8f <__zp_data_size+0x46>
    1afe: 86 8d        	stx	$8d                     ; 0x8d <__zp_data_size+0x44>
    1b00: a6 90        	ldx	$90                     ; 0x90 <__zp_data_size+0x47>
    1b02: 86 8e        	stx	$8e                     ; 0x8e <__zp_data_size+0x45>
    1b04: aa           	tax
    1b05: d0 e6        	bne	$1aed <puts+0x18>
    1b07: a9 0a        	lda	#$a
    1b09: a2 00        	ldx	#$0
    1b0b: 4c fd 18     	jmp	$18fd <putchar>

00001b0e <memcpy>:
    1b0e: a8           	tay
    1b0f: 8a           	txa
    1b10: d0 03        	bne	$1b15 <memcpy+0x7>
    1b12: 98           	tya
    1b13: f0 24        	beq	$1b39 <memcpy+0x2b>
    1b15: a5 12        	lda	$12                     ; 0x12 <__rc2>
    1b17: 85 16        	sta	$16                     ; 0x16 <__rc6>
    1b19: a5 13        	lda	$13                     ; 0x13 <__rc3>
    1b1b: 85 17        	sta	$17                     ; 0x17 <__rc7>
    1b1d: b2 14        	lda	($14)                   ; 0x14 <__rc4>
    1b1f: 92 16        	sta	($16)                   ; 0x16 <__rc6>
    1b21: e6 16        	inc	$16                     ; 0x16 <__rc6>
    1b23: d0 02        	bne	$1b27 <memcpy+0x19>
    1b25: e6 17        	inc	$17                     ; 0x17 <__rc7>
    1b27: e6 14        	inc	$14                     ; 0x14 <__rc4>
    1b29: d0 02        	bne	$1b2d <memcpy+0x1f>
    1b2b: e6 15        	inc	$15                     ; 0x15 <__rc5>
    1b2d: 88           	dey
    1b2e: c0 ff        	cpy	#$ff
    1b30: d0 01        	bne	$1b33 <memcpy+0x25>
    1b32: ca           	dex
    1b33: 8a           	txa
    1b34: d0 e7        	bne	$1b1d <memcpy+0xf>
    1b36: 98           	tya
    1b37: d0 e4        	bne	$1b1d <memcpy+0xf>
    1b39: 60           	rts

00001b3a <__memset>:
    1b3a: a4 14        	ldy	$14                     ; 0x14 <__rc4>
    1b3c: d0 04        	bne	$1b42 <__memset+0x8>
    1b3e: e0 00        	cpx	#$0
    1b40: f0 17        	beq	$1b59 <__memset+0x1f>
    1b42: 92 12        	sta	($12)                   ; 0x12 <__rc2>
    1b44: e6 12        	inc	$12                     ; 0x12 <__rc2>
    1b46: d0 02        	bne	$1b4a <__memset+0x10>
    1b48: e6 13        	inc	$13                     ; 0x13 <__rc3>
    1b4a: ca           	dex
    1b4b: e0 ff        	cpx	#$ff
    1b4d: d0 02        	bne	$1b51 <__memset+0x17>
    1b4f: c6 14        	dec	$14                     ; 0x14 <__rc4>
    1b51: a4 14        	ldy	$14                     ; 0x14 <__rc4>
    1b53: d0 ed        	bne	$1b42 <__memset+0x8>
    1b55: e0 00        	cpx	#$0
    1b57: d0 e9        	bne	$1b42 <__memset+0x8>
    1b59: 60           	rts
